(lp0
V\u0906\u092a
p1
aV\u0906\u092a\u0938
p2
aV\u0939\u092e\u0938\u0947
p3
aV\u0939\u092e\u093e\u0930\u0947
p4
aV\u092e\u0947\u0930\u093e
p5
aV\u092e\u0947\u0930\u0940
p6
aV\u092e\u0947\u0930\u0947
p7
aV\u0939\u092e
p8
aV\u0939\u092e\u093e\u0930\u093e
p9
aV\u0939\u092e\u0928\u0947
p10
aV\u092e\u0941\u091d\u0947
p11
aV\u092e\u0948\u0902
p12
aV\u0906\u092a\u0915\u0940
p13
aV\u0906\u092a\u0915\u0947
p14
aV\u0906\u092a\u0915\u094b
p15
aV\u092e\u0941\u091d
p16
aV\u092e\u0948\u0928\u0947
p17
aV\u0906\u092a\u0915\u093e
p18
aV\u0939\u092e\u0947\u0902
p19
aV\u092e\u0948\u0902\u0928\u0947
p20
aV\u0939\u092e\u093e\u0930\u0940
p21
a.