(lp0
V\u0935\u0939\u093e\u0901
p1
aV\u0935\u0939\u093e\u0902
p2
aV\u0935\u0939\u0940\u0902
p3
aV\u092f\u0939\u0940\u0902
p4
aV\u092f\u0939\u093e\u0901
p5
aV\u092f\u0939\u093e\u0902
p6
aV\u091c\u0939\u093e\u0902
p7
aV\u091c\u0939\u093e\u0901
p8
aV\u0915\u0939\u0940\u0902
p9
aV\u0907\u0938\u092e\u0947\u0902
p10
aV\u0909\u0938\u092e\u0947\u0902
p11
aV\u0907\u0928\u092e\u0947\u0902
p12
a.