(issf_api
SSFInfo
p0
(dp1
S'globalWordList'
p2
(lp3
(issf_api
Word
p4
(dp5
S'splitConn'
p6
I00
sS'word'
p7
V\u0917\u0941\u091f\u0916\u093e
p8
sS'extraFeatureSet'
p9
(issf_api
FeatureSet
p10
(dp11
S'featureDict'
p12
(dp13
S'posn'
p14
S'10'
p15
sS'name'
p16
S'\xe0\xa4\x97\xe0\xa5\x81\xe0\xa4\x9f\xe0\xa4\x96\xe0\xa4\xbe'
p17
sS'af'
p18
S'\xe0\xa4\x97\xe0\xa5\x81\xe0\xa4\x9f\xe0\xa4\x96\xe0\xa4\xbe,n,m,sg,3,d,0,0'
p19
sS'drel'
p20
S'pof__cn:NP'
p21
sS'chunktype'
p22
S'child:NP'
p23
sS'cref'
p24
S'i1%0:t1'
p25
ssbsS'arg1'
p26
I00
sS'arg2'
p27
I00
sS'sense'
p28
NsS'arg1Span'
p29
NsS'chunkNum'
p30
I0
sS'sentenceNum'
p31
I0
sS'relationNum'
p32
NsS'arg2Span'
p33
NsS'wordTag'
p34
S'NNC'
p35
sS'featureSet'
p36
g10
sS'conn'
p37
I00
sba(issf_api
Word
p38
(dp39
g6
I00
sg7
V\u0928\u093f\u0930\u094d\u092e\u093e\u0924\u093e
p40
sg9
(issf_api
FeatureSet
p41
(dp42
g12
(dp43
S'crefhead'
p44
S'\xe0\xa4\xa8\xe0\xa4\xbf\xe0\xa4\xb0\xe0\xa5\x8d\xe0\xa4\xae\xe0\xa4\xbe\xe0\xa4\xa4\xe0\xa4\xbe:i1'
p45
sS'posn'
p46
S'20'
p47
sS'name'
p48
S'\xe0\xa4\xa8\xe0\xa4\xbf\xe0\xa4\xb0\xe0\xa5\x8d\xe0\xa4\xae\xe0\xa4\xbe\xe0\xa4\xa4\xe0\xa4\xbe'
p49
sS'af'
p50
S'\xe0\xa4\xa8\xe0\xa4\xbf\xe0\xa4\xb0\xe0\xa5\x8d\xe0\xa4\xae\xe0\xa4\xbe\xe0\xa4\xa4\xe0\xa4\xbe,n,m,sg,3,o,0,0'
p51
sS'chunkid'
p52
S'NP'
p53
sS'drel'
p54
S'nmod:NP2'
p55
sS'chunktype'
p56
S'head:NP'
p57
sS'cref'
p58
S'i1%1:t1'
p59
ssbsg26
I00
sg27
I00
sg28
Nsg29
Nsg30
I0
sg31
I0
sg32
Nsg33
Nsg34
S'NN'
p60
sg36
g41
sg37
I00
sba(issf_api
Word
p61
(dp62
g6
I00
sg7
V\u0930\u0938\u093f\u0915\u0932\u093e\u0932
p63
sg9
(issf_api
FeatureSet
p64
(dp65
g12
(dp66
S'posn'
p67
S'30'
p68
sS'name'
p69
S'\xe0\xa4\xb0\xe0\xa4\xb8\xe0\xa4\xbf\xe0\xa4\x95\xe0\xa4\xb2\xe0\xa4\xbe\xe0\xa4\xb2'
p70
sS'af'
p71
S'\xe0\xa4\xb0\xe0\xa4\xb8\xe0\xa4\xbf\xe0\xa4\x95\xe0\xa4\xb2\xe0\xa4\xbe\xe0\xa4\xb2,n,m,sg,3,d,0,0'
p72
sS'drel'
p73
S'pof__cn:NP2'
p74
sS'chunktype'
p75
S'child:NP2'
p76
sS'cref'
p77
S'i2%0:t1'
p78
ssbsg26
I00
sg27
I00
sg28
Nsg29
Nsg30
I1
sg31
I0
sg32
Nsg33
Nsg34
S'NNPC'
p79
sg36
g64
sg37
I00
sba(issf_api
Word
p80
(dp81
g6
I00
sg7
V\u092e\u093e\u0923\u093f\u0915\u091a\u0902\u0926
p82
sg9
(issf_api
FeatureSet
p83
(dp84
g12
(dp85
S'posn'
p86
S'40'
p87
sS'name'
p88
S'\xe0\xa4\xae\xe0\xa4\xbe\xe0\xa4\xa3\xe0\xa4\xbf\xe0\xa4\x95\xe0\xa4\x9a\xe0\xa4\x82\xe0\xa4\xa6'
p89
sS'af'
p90
S'\xe0\xa4\xae\xe0\xa4\xbe\xe0\xa4\xa3\xe0\xa4\xbf\xe0\xa4\x95\xe0\xa4\x9a\xe0\xa4\x82\xe0\xa4\xa6,n,m,sg,3,d,0,0'
p91
sS'drel'
p92
S'pof__cn:NP2'
p93
sS'chunktype'
p94
S'child:NP2'
p95
sS'cref'
p96
S'i2%0:t1'
p97
ssbsg26
I00
sg27
I00
sg28
Nsg29
Nsg30
I1
sg31
I0
sg32
Nsg33
Nsg34
S'NNPC'
p98
sg36
g83
sg37
I00
sba(issf_api
Word
p99
(dp100
g6
I00
sg7
V\u0927\u093e\u0930\u0940\u0935\u093e\u0932
p101
sg9
(issf_api
FeatureSet
p102
(dp103
g12
(dp104
S'crefhead'
p105
S'\xe0\xa4\xa7\xe0\xa4\xbe\xe0\xa4\xb0\xe0\xa5\x80\xe0\xa4\xb5\xe0\xa4\xbe\xe0\xa4\xb2:i2'
p106
sS'posn'
p107
S'50'
p108
sS'name'
p109
S'\xe0\xa4\xa7\xe0\xa4\xbe\xe0\xa4\xb0\xe0\xa5\x80\xe0\xa4\xb5\xe0\xa4\xbe\xe0\xa4\xb2'
p110
sS'af'
p111
S'\xe0\xa4\xa7\xe0\xa4\xbe\xe0\xa4\xb0\xe0\xa5\x80\xe0\xa4\xb5\xe0\xa4\xbe\xe0\xa4\xb2,n,any,sg,3,o,0_\xe0\xa4\xa8\xe0\xa5\x87,0'
p112
sS'chunkid'
p113
S'NP2'
p114
sS'creftype'
p115
S'Coreference-NounComplement:i1'
p116
sS'chunktype'
p117
S'head:NP2'
p118
sS'crefchainhead'
p119
S'i2:t1'
p120
sS'vpos'
p121
S'vib_4'
p122
sS'cref'
p123
S'i2%1:t1'
p124
sS'drel'
p125
S'k1:VGF'
p126
ssbsg26
I00
sg27
I00
sg28
Nsg29
Nsg30
I1
sg31
I0
sg32
Nsg33
Nsg34
S'NNP'
p127
sg36
g102
sg37
I00
sba(issf_api
Word
p128
(dp129
g6
I00
sg7
V\u0928\u0947
p130
sg9
(issf_api
FeatureSet
p131
(dp132
g12
(dp133
S'posn'
p134
S'60'
p135
sS'name'
p136
S'\xe0\xa4\xa8\xe0\xa5\x87'
p137
sS'drel'
p138
S'lwg__psp:NP2'
p139
sS'chunktype'
p140
S'child:NP2'
p141
sS'af'
p142
S'\xe0\xa4\xa8\xe0\xa5\x87,psp,,,,,,'
p143
ssbsg26
I00
sg27
I00
sg28
Nsg29
Nsg30
I1
sg31
I0
sg32
Nsg33
Nsg34
S'PSP'
p144
sg36
g131
sg37
I00
sba(issf_api
Word
p145
(dp146
g6
I00
sg7
V\u0905\u0902\u0921\u0930\u0935\u0930\u094d\u0932\u094d\u0921
p147
sg9
(issf_api
FeatureSet
p148
(dp149
g12
(dp150
S'crefhead'
p151
S'\xe0\xa4\x85\xe0\xa4\x82\xe0\xa4\xa1\xe0\xa4\xb0\xe0\xa4\xb5\xe0\xa4\xb0\xe0\xa5\x8d\xe0\xa4\xb2\xe0\xa5\x8d\xe0\xa4\xa1:i3'
p152
sS'posn'
p153
S'70'
p154
sS'name'
p155
S'\xe0\xa4\x85\xe0\xa4\x82\xe0\xa4\xa1\xe0\xa4\xb0\xe0\xa4\xb5\xe0\xa4\xb0\xe0\xa5\x8d\xe0\xa4\xb2\xe0\xa5\x8d\xe0\xa4\xa1'
p156
sS'af'
p157
S'\xe0\xa4\x85\xe0\xa4\x82\xe0\xa4\xa1\xe0\xa4\xb0\xe0\xa4\xb5\xe0\xa4\xb0\xe0\xa5\x8d\xe0\xa4\xb2\xe0\xa5\x8d\xe0\xa4\xa1,n,m,sg,3,o,0_\xe0\xa4\x95\xe0\xa5\x87_\xe0\xa4\xb8\xe0\xa4\xbe\xe0\xa4\xa5,0'
p158
sS'chunkid'
p159
S'NP3'
p160
sS'acrefmod'
p161
S'm1%0:i4'
p162
sS'chunktype'
p163
S'head:NP3'
p164
sS'crefchainhead'
p165
S'i3:t2'
p166
sS'vpos'
p167
S'vib_2_3'
p168
sS'cref'
p169
S'i3%1:t2'
p170
sS'drel'
p171
S'ras-k1:VGF'
p172
ssbsg26
I00
sg27
I00
sg28
Nsg29
Nsg30
I2
sg31
I0
sg32
Nsg33
Nsg34
S'NN'
p173
sg36
g148
sg37
I00
sba(issf_api
Word
p174
(dp175
g6
I00
sg7
V\u0915\u0947
p176
sg9
(issf_api
FeatureSet
p177
(dp178
g12
(dp179
S'posn'
p180
S'80'
p181
sS'name'
p182
S'\xe0\xa4\x95\xe0\xa5\x87'
p183
sS'af'
p184
S'\xe0\xa4\x95\xe0\xa5\x87,psp,,,,,,'
p185
sS'acrefmod'
p186
S'm1%0:i4'
p187
sS'drel'
p188
S'lwg__psp:NP3'
p189
sS'chunktype'
p190
S'child:NP3'
p191
ssbsg26
I00
sg27
I00
sg28
Nsg29
Nsg30
I2
sg31
I0
sg32
Nsg33
Nsg34
S'PSP'
p192
sg36
g177
sg37
I00
sba(issf_api
Word
p193
(dp194
g6
I00
sg7
V\u0938\u093e\u0925
p195
sg9
(issf_api
FeatureSet
p196
(dp197
g12
(dp198
S'posn'
p199
S'90'
p200
sS'name'
p201
S'\xe0\xa4\xb8\xe0\xa4\xbe\xe0\xa4\xa5'
p202
sS'af'
p203
S'\xe0\xa4\xb8\xe0\xa4\xbe\xe0\xa4\xa5,nst,m,sg,3,d,,'
p204
sS'acrefmod'
p205
S'm1%0:i4'
p206
sS'drel'
p207
S'lwg__psp:NP3'
p208
sS'chunktype'
p209
S'child:NP3'
p210
ssbsg26
I00
sg27
I00
sg28
Nsg29
Nsg30
I2
sg31
I0
sg32
Nsg33
Nsg34
S'NST'
p211
sg36
g196
sg37
I00
sba(issf_api
Word
p212
(dp213
g6
I00
sg7
V\u0938\u0902\u092c\u0902\u0927\u094b\u0902
p214
sg9
(issf_api
FeatureSet
p215
(dp216
g12
(dp217
S'posn'
p218
S'100'
p219
sS'name'
p220
S'\xe0\xa4\xb8\xe0\xa4\x82\xe0\xa4\xac\xe0\xa4\x82\xe0\xa4\xa7\xe0\xa5\x8b\xe0\xa4\x82'
p221
sS'af'
p222
S'\xe0\xa4\xb8\xe0\xa4\x82\xe0\xa4\xac\xe0\xa4\x82\xe0\xa4\xa7,n,m,pl,3,o,0_\xe0\xa4\x95\xe0\xa4\xbe,0'
p223
sS'acrefmodhead'
p224
S'\xe0\xa4\xb8\xe0\xa4\x82\xe0\xa4\xac\xe0\xa4\x82\xe0\xa4\xa7\xe0\xa5\x8b\xe0\xa4\x82:m1'
p225
sS'chunkid'
p226
S'NP4'
p227
sS'acrefmod'
p228
S'm1%1:i4'
p229
sS'drel'
p230
S'r6:NP5'
p231
sS'vpos'
p232
S'vib_2'
p233
sS'chunktype'
p234
S'head:NP4'
p235
ssbsg26
I00
sg27
I00
sg28
Nsg29
Nsg30
I3
sg31
I0
sg32
Nsg33
Nsg34
S'NN'
p236
sg36
g215
sg37
I00
sba(issf_api
Word
p237
(dp238
g6
I00
sg7
V\u0915\u0947
p239
sg9
(issf_api
FeatureSet
p240
(dp241
g12
(dp242
S'posn'
p243
S'110'
p244
sS'name'
p245
S'\xe0\xa4\x95\xe0\xa5\x872'
p246
sS'drel'
p247
S'lwg__psp:NP4'
p248
sS'chunktype'
p249
S'child:NP4'
p250
sS'af'
p251
S'\xe0\xa4\x95\xe0\xa4\xbe,psp,m,sg,,o,,'
p252
ssbsg26
I00
sg27
I00
sg28
Nsg29
Nsg30
I3
sg31
I0
sg32
Nsg33
Nsg34
S'PSP'
p253
sg36
g240
sg37
I00
sba(issf_api
Word
p254
(dp255
g6
I00
sg7
V\u092e\u093e\u092e\u0932\u0947
p256
sg9
(issf_api
FeatureSet
p257
(dp258
g12
(dp259
S'crefhead'
p260
S'\xe0\xa4\xae\xe0\xa4\xbe\xe0\xa4\xae\xe0\xa4\xb2\xe0\xa5\x87:i4'
p261
sS'posn'
p262
S'120'
p263
sS'name'
p264
S'\xe0\xa4\xae\xe0\xa4\xbe\xe0\xa4\xae\xe0\xa4\xb2\xe0\xa5\x87'
p265
sS'af'
p266
S'\xe0\xa4\xae\xe0\xa4\xbe\xe0\xa4\xae\xe0\xa4\xb2\xe0\xa4\xbe,n,m,sg,3,o,0_\xe0\xa4\xae\xe0\xa5\x87\xe0\xa4\x82,0'
p267
sS'chunkid'
p268
S'NP5'
p269
sS'crefmod'
p270
S'm1:i4'
p271
sS'chunktype'
p272
S'head:NP5'
p273
sS'crefchainhead'
p274
S'i4:t3'
p275
sS'vpos'
p276
S'vib_2'
p277
sS'cref'
p278
S'i4%1:t3'
p279
sS'drel'
p280
S'k7:VGF'
p281
ssbsg26
I00
sg27
I00
sg28
Nsg29
Nsg30
I4
sg31
I0
sg32
Nsg33
Nsg34
S'NN'
p282
sg36
g257
sg37
I00
sba(issf_api
Word
p283
(dp284
g6
I00
sg7
V\u092e\u0947\u0902
p285
sg9
(issf_api
FeatureSet
p286
(dp287
g12
(dp288
S'posn'
p289
S'130'
p290
sS'name'
p291
S'\xe0\xa4\xae\xe0\xa5\x87\xe0\xa4\x82'
p292
sS'drel'
p293
S'lwg__psp:NP5'
p294
sS'chunktype'
p295
S'child:NP5'
p296
sS'af'
p297
S'\xe0\xa4\xae\xe0\xa5\x87\xe0\xa4\x82,psp,,,,,,'
p298
ssbsg26
I00
sg27
I00
sg28
Nsg29
Nsg30
I4
sg31
I0
sg32
Nsg33
Nsg34
S'PSP'
p299
sg36
g286
sg37
I00
sba(issf_api
Word
p300
(dp301
g6
I00
sg7
V\u0915\u094b\u0930\u094d\u091f
p302
sg9
(issf_api
FeatureSet
p303
(dp304
g12
(dp305
S'posn'
p306
S'140'
p307
sS'name'
p308
S'\xe0\xa4\x95\xe0\xa5\x8b\xe0\xa4\xb0\xe0\xa5\x8d\xe0\xa4\x9f'
p309
sS'af'
p310
S'\xe0\xa4\x95\xe0\xa5\x8b\xe0\xa4\xb0\xe0\xa5\x8d\xe0\xa4\x9f,n,f,sg,3,o,0_\xe0\xa4\xae\xe0\xa5\x87\xe0\xa4\x82,0'
p311
sS'chunkid'
p312
S'NP6'
p313
sS'drel'
p314
S'k7:VGNN'
p315
sS'vpos'
p316
S'vib_2'
p317
sS'chunktype'
p318
S'head:NP6'
p319
ssbsg26
I00
sg27
I00
sg28
Nsg29
Nsg30
I5
sg31
I0
sg32
Nsg33
Nsg34
S'NN'
p320
sg36
g303
sg37
I00
sba(issf_api
Word
p321
(dp322
g6
I00
sg7
V\u092e\u0947\u0902
p323
sg9
(issf_api
FeatureSet
p324
(dp325
g12
(dp326
S'posn'
p327
S'150'
p328
sS'name'
p329
S'\xe0\xa4\xae\xe0\xa5\x87\xe0\xa4\x822'
p330
sS'drel'
p331
S'lwg__psp:NP6'
p332
sS'chunktype'
p333
S'child:NP6'
p334
sS'af'
p335
S'\xe0\xa4\xae\xe0\xa5\x87\xe0\xa4\x82,psp,,,,,,'
p336
ssbsg26
I00
sg27
I00
sg28
Nsg29
Nsg30
I5
sg31
I0
sg32
Nsg33
Nsg34
S'PSP'
p337
sg36
g324
sg37
I00
sba(issf_api
Word
p338
(dp339
g6
I00
sg7
V\u092a\u0947\u0936
p340
sg9
(issf_api
FeatureSet
p341
(dp342
g12
(dp343
S'posn'
p344
S'160'
p345
sS'name'
p346
S'\xe0\xa4\xaa\xe0\xa5\x87\xe0\xa4\xb6'
p347
sS'af'
p348
S'\xe0\xa4\xaa\xe0\xa5\x87\xe0\xa4\xb6,adj,any,any,,,,'
p349
sS'chunkid'
p350
S'JJP'
p351
sS'drel'
p352
S'pof:VGNN'
p353
sS'chunktype'
p354
S'head:JJP'
p355
ssbsg26
I00
sg27
I00
sg28
Nsg29
Nsg30
I6
sg31
I0
sg32
Nsg33
Nsg34
S'JJ'
p356
sg36
g341
sg37
I00
sba(issf_api
Word
p357
(dp358
g6
I00
sg7
V\u0928
p359
sg9
(issf_api
FeatureSet
p360
(dp361
g12
(dp362
S'posn'
p363
S'170'
p364
sS'name'
p365
S'\xe0\xa4\xa8'
p366
sS'drel'
p367
S'lwg__neg:VGNN'
p368
sS'chunktype'
p369
S'child:VGNN'
p370
sS'af'
p371
S'\xe0\xa4\xa8,avy,,,,,,'
p372
ssbsg26
I00
sg27
I00
sg28
Nsg29
Nsg30
I7
sg31
I0
sg32
Nsg33
Nsg34
S'NEG'
p373
sg36
g360
sg37
I00
sba(issf_api
Word
p374
(dp375
g6
I00
sg7
V\u0939\u094b\u0928\u0947
p376
sg9
(issf_api
FeatureSet
p377
(dp378
g12
(dp379
S'posn'
p380
S'180'
p381
sS'name'
p382
S'\xe0\xa4\xb9\xe0\xa5\x8b\xe0\xa4\xa8\xe0\xa5\x87'
p383
sS'af'
p384
S'\xe0\xa4\xb9\xe0\xa5\x8b,v,any,any,any,o,\xe0\xa4\xa8\xe0\xa4\xbe_\xe0\xa4\xaa\xe0\xa4\xb0,nA'
p385
sS'chunkid'
p386
S'VGNN'
p387
sS'drel'
p388
S'jjmod:JJP2'
p389
sS'vpos'
p390
S'tam_3'
p391
sS'chunktype'
p392
S'head:VGNN'
p393
ssbsg26
I00
sg27
I00
sg28
Nsg29
Nsg30
I7
sg31
I0
sg32
Nsg33
Nsg34
S'VM'
p394
sg36
g377
sg37
I00
sba(issf_api
Word
p395
(dp396
g6
I00
sg7
V\u092a\u0930
p397
sg9
(issf_api
FeatureSet
p398
(dp399
g12
(dp400
S'posn'
p401
S'190'
p402
sS'name'
p403
S'\xe0\xa4\xaa\xe0\xa4\xb0'
p404
sS'drel'
p405
S'lwg__psp:VGNN'
p406
sS'chunktype'
p407
S'child:VGNN'
p408
sS'af'
p409
S'\xe0\xa4\xaa\xe0\xa4\xb0,psp,,,,,,'
p410
ssbsg26
I00
sg27
I00
sg28
Nsg29
Nsg30
I7
sg31
I0
sg32
Nsg33
Nsg34
S'PSP'
p411
sg36
g398
sg37
I00
sba(issf_api
Word
p412
(dp413
g6
I00
sg7
V\u091c\u093e\u0930\u0940
p414
sg9
(issf_api
FeatureSet
p415
(dp416
g12
(dp417
S'posn'
p418
S'200'
p419
sS'name'
p420
S'\xe0\xa4\x9c\xe0\xa4\xbe\xe0\xa4\xb0\xe0\xa5\x80'
p421
sS'af'
p422
S'\xe0\xa4\x9c\xe0\xa4\xbe\xe0\xa4\xb0\xe0\xa5\x80,adj,any,any,,o,,'
p423
sS'chunkid'
p424
S'JJP2'
p425
sS'drel'
p426
S'nmod:NP7'
p427
sS'chunktype'
p428
S'head:JJP2'
p429
ssbsg26
I00
sg27
I00
sg28
Nsg29
Nsg30
I8
sg31
I0
sg32
Nsg33
Nsg34
S'JJ'
p430
sg36
g415
sg37
I00
sba(issf_api
Word
p431
(dp432
g6
I00
sg7
V\u0917\u0948\u0930
p433
sg9
(issf_api
FeatureSet
p434
(dp435
g12
(dp436
S'name'
p437
S'\xe0\xa4\x97\xe0\xa5\x88\xe0\xa4\xb0'
p438
sS'drel'
p439
S'mod:NP7'
p440
sS'cref'
p441
S'i5%0:t4'
p442
sS'chunktype'
p443
S'child:NP7'
p444
sS'af'
p445
S'\xe0\xa4\x97\xe0\xa5\x88\xe0\xa4\xb0,adj,any,any,,,,'
p446
ssbsg26
I00
sg27
I00
sg28
Nsg29
Nsg30
I9
sg31
I0
sg32
Nsg33
Nsg34
S'JJC'
p447
sg36
g434
sg37
I00
sba(issf_api
Word
p448
(dp449
g6
I00
sg7
V\u091c\u092e\u093e\u0928\u0924\u0940
p450
sg9
(issf_api
FeatureSet
p451
(dp452
g12
(dp453
S'name'
p454
S'\xe0\xa4\x9c\xe0\xa4\xae\xe0\xa4\xbe\xe0\xa4\xa8\xe0\xa4\xa4\xe0\xa5\x80'
p455
sS'drel'
p456
S'nmod__adj:NP7'
p457
sS'cref'
p458
S'i5%0:t4'
p459
sS'chunktype'
p460
S'child:NP7'
p461
sS'af'
p462
S'\xe0\xa4\x9c\xe0\xa4\xae\xe0\xa4\xbe\xe0\xa4\xa8\xe0\xa4\xa4\xe0\xa5\x80,adj,any,any,,o,,'
p463
ssbsg26
I00
sg27
I00
sg28
Nsg29
Nsg30
I9
sg31
I0
sg32
Nsg33
Nsg34
S'JJ'
p464
sg36
g451
sg37
I00
sba(issf_api
Word
p465
(dp466
g6
I00
sg7
V\u0935\u093e\u0930\u0902\u091f
p467
sg9
(issf_api
FeatureSet
p468
(dp469
g12
(dp470
S'crefhead'
p471
S'\xe0\xa4\xb5\xe0\xa4\xbe\xe0\xa4\xb0\xe0\xa4\x82\xe0\xa4\x9f:i5'
p472
sS'name'
p473
S'\xe0\xa4\xb5\xe0\xa4\xbe\xe0\xa4\xb0\xe0\xa4\x82\xe0\xa4\x9f'
p474
sS'af'
p475
S'\xe0\xa4\xb5\xe0\xa4\xbe\xe0\xa4\xb0\xe0\xa4\x82\xe0\xa4\x9f,n,m,sg,3,o,0_\xe0\xa4\x95\xe0\xa5\x8b,0'
p476
sS'chunkid'
p477
S'NP7'
p478
sS'chunktype'
p479
S'head:NP7'
p480
sS'crefchainhead'
p481
S'i5:t4'
p482
sS'vpos'
p483
S'vib_4'
p484
sS'cref'
p485
S'i5%1:t4'
p486
sS'drel'
p487
S'k2:VGNN2'
p488
ssbsg26
I00
sg27
I00
sg28
Nsg29
Nsg30
I9
sg31
I0
sg32
Nsg33
Nsg34
S'NN'
p489
sg36
g468
sg37
I00
sba(issf_api
Word
p490
(dp491
g6
I00
sg7
V\u0915\u094b
p492
sg9
(issf_api
FeatureSet
p493
(dp494
g12
(dp495
S'name'
p496
S'\xe0\xa4\x95\xe0\xa5\x8b'
p497
sS'drel'
p498
S'lwg__psp:NP7'
p499
sS'chunktype'
p500
S'child:NP7'
p501
sS'af'
p502
S'\xe0\xa4\x95\xe0\xa5\x8b,psp,,,,,,'
p503
ssbsg26
I00
sg27
I00
sg28
Nsg29
Nsg30
I9
sg31
I0
sg32
Nsg33
Nsg34
S'PSP'
p504
sg36
g493
sg37
I00
sba(issf_api
Word
p505
(dp506
g6
I00
sg7
V\u0930\u0926\u094d\u0926
p507
sg9
(issf_api
FeatureSet
p508
(dp509
g12
(dp510
S'posn'
p511
S'210'
p512
sS'name'
p513
S'\xe0\xa4\xb0\xe0\xa4\xa6\xe0\xa5\x8d\xe0\xa4\xa6'
p514
sS'af'
p515
S'\xe0\xa4\xb0\xe0\xa4\xa6\xe0\xa5\x8d\xe0\xa4\xa6,adj,any,any,,,,'
p516
sS'chunkid'
p517
S'JJP3'
p518
sS'drel'
p519
S'pof:VGNN2'
p520
sS'chunktype'
p521
S'head:JJP3'
p522
ssbsg26
I00
sg27
I00
sg28
Nsg29
Nsg30
I10
sg31
I0
sg32
Nsg33
Nsg34
S'JJ'
p523
sg36
g508
sg37
I00
sba(issf_api
Word
p524
(dp525
g6
I00
sg7
V\u0915\u0930\u0928\u0947
p526
sg9
(issf_api
FeatureSet
p527
(dp528
g12
(dp529
S'posn'
p530
S'220'
p531
sS'name'
p532
S'\xe0\xa4\x95\xe0\xa4\xb0\xe0\xa4\xa8\xe0\xa5\x87'
p533
sS'af'
p534
S'\xe0\xa4\x95\xe0\xa4\xb0,v,any,any,any,o,\xe0\xa4\xa8\xe0\xa4\xbe_\xe0\xa4\x95\xe0\xa5\x87_\xe0\xa4\xb2\xe0\xa4\xbf\xe0\xa4\x8f,nA'
p535
sS'chunkid'
p536
S'VGNN2'
p537
sS'drel'
p538
S'rt:VGF'
p539
sS'vpos'
p540
S'tam_2_3'
p541
sS'chunktype'
p542
S'head:VGNN2'
p543
ssbsg26
I00
sg27
I00
sg28
Nsg29
Nsg30
I11
sg31
I0
sg32
Nsg33
Nsg34
S'VM'
p544
sg36
g527
sg37
I00
sba(issf_api
Word
p545
(dp546
g6
I00
sg7
V\u0915\u0947
p547
sg9
(issf_api
FeatureSet
p548
(dp549
g12
(dp550
S'posn'
p551
S'230'
p552
sS'name'
p553
S'\xe0\xa4\x95\xe0\xa5\x873'
p554
sS'drel'
p555
S'lwg__psp:VGNN2'
p556
sS'chunktype'
p557
S'child:VGNN2'
p558
sS'af'
p559
S'\xe0\xa4\x95\xe0\xa5\x87,psp,,,,,,'
p560
ssbsg26
I00
sg27
I00
sg28
Nsg29
Nsg30
I11
sg31
I0
sg32
Nsg33
Nsg34
S'PSP'
p561
sg36
g548
sg37
I00
sba(issf_api
Word
p562
(dp563
g6
I00
sg7
V\u0932\u093f\u090f
p564
sg9
(issf_api
FeatureSet
p565
(dp566
g12
(dp567
S'posn'
p568
S'240'
p569
sS'name'
p570
S'\xe0\xa4\xb2\xe0\xa4\xbf\xe0\xa4\x8f'
p571
sS'drel'
p572
S'lwg__psp:VGNN2'
p573
sS'chunktype'
p574
S'child:VGNN2'
p575
sS'af'
p576
S'\xe0\xa4\xb2\xe0\xa4\xbf\xe0\xa4\x8f,psp,,,,,,'
p577
ssbsg26
I00
sg27
I00
sg28
Nsg29
Nsg30
I11
sg31
I0
sg32
Nsg33
Nsg34
S'PSP'
p578
sg36
g565
sg37
I00
sba(issf_api
Word
p579
(dp580
g6
I00
sg7
V\u0905\u092c
p581
sg9
(issf_api
FeatureSet
p582
(dp583
g12
(dp584
S'crefhead'
p585
S'\xe0\xa4\x85\xe0\xa4\xac:i6'
p586
sS'posn'
p587
S'250'
p588
sS'name'
p589
S'\xe0\xa4\x85\xe0\xa4\xac'
p590
sS'af'
p591
S'\xe0\xa4\x85\xe0\xa4\xac,pn,,,,d,,'
p592
sS'chunkid'
p593
S'NP8'
p594
sS'creftype'
p595
S'anaphora-?:i6'
p596
sS'chunktype'
p597
S'head:NP8'
p598
sS'crefchainhead'
p599
S'i6:t5'
p600
sS'cref'
p601
S'i6%1:t5'
p602
sS'drel'
p603
S'k7t:VGF'
p604
ssbsg26
I00
sg27
I00
sg28
Nsg29
Nsg30
I12
sg31
I0
sg32
Nsg33
Nsg34
S'PRP'
p605
sg36
g582
sg37
I00
sba(issf_api
Word
p606
(dp607
g6
I00
sg7
V\u0938\u0941\u092a\u094d\u0930\u0940\u092e
p608
sg9
(issf_api
FeatureSet
p609
(dp610
g12
(dp611
S'name'
p612
S'\xe0\xa4\xb8\xe0\xa5\x81\xe0\xa4\xaa\xe0\xa5\x8d\xe0\xa4\xb0\xe0\xa5\x80\xe0\xa4\xae'
p613
sS'drel'
p614
S'pof__cn:NP9'
p615
sS'chunktype'
p616
S'child:NP9'
p617
sS'af'
p618
S'\xe0\xa4\xb8\xe0\xa5\x81\xe0\xa4\xaa\xe0\xa5\x8d\xe0\xa4\xb0\xe0\xa5\x80\xe0\xa4\xae,adj,any,any,,o,,'
p619
ssbsg26
I00
sg27
I00
sg28
Nsg29
Nsg30
I13
sg31
I0
sg32
Nsg33
Nsg34
S'NNPC'
p620
sg36
g609
sg37
I00
sba(issf_api
Word
p621
(dp622
g6
I00
sg7
V\u0915\u094b\u0930\u094d\u091f
p623
sg9
(issf_api
FeatureSet
p624
(dp625
g12
(dp626
S'posn'
p627
S'270'
p628
sS'name'
p629
S'\xe0\xa4\x95\xe0\xa5\x8b\xe0\xa4\xb0\xe0\xa5\x8d\xe0\xa4\x9f2'
p630
sS'af'
p631
S'\xe0\xa4\x95\xe0\xa5\x8b\xe0\xa4\xb0\xe0\xa5\x8d\xe0\xa4\x9f,n,f,sg,3,o,0_\xe0\xa4\xae\xe0\xa5\x87\xe0\xa4\x82,0'
p632
sS'chunkid'
p633
S'NP9'
p634
sS'drel'
p635
S'k7:VGF'
p636
sS'vpos'
p637
S'vib_3'
p638
sS'chunktype'
p639
S'head:NP9'
p640
ssbsg26
I00
sg27
I00
sg28
Nsg29
Nsg30
I13
sg31
I0
sg32
Nsg33
Nsg34
S'NNP'
p641
sg36
g624
sg37
I00
sba(issf_api
Word
p642
(dp643
g6
I00
sg7
V\u092e\u0947\u0902
p644
sg9
(issf_api
FeatureSet
p645
(dp646
g12
(dp647
S'posn'
p648
S'280'
p649
sS'name'
p650
S'\xe0\xa4\xae\xe0\xa5\x87\xe0\xa4\x823'
p651
sS'drel'
p652
S'lwg__psp:NP9'
p653
sS'chunktype'
p654
S'child:NP9'
p655
sS'af'
p656
S'\xe0\xa4\xae\xe0\xa5\x87\xe0\xa4\x82,psp,,,,,,'
p657
ssbsg26
I00
sg27
I00
sg28
Nsg29
Nsg30
I13
sg31
I0
sg32
Nsg33
Nsg34
S'PSP'
p658
sg36
g645
sg37
I00
sba(issf_api
Word
p659
(dp660
g6
I00
sg7
V\u092f\u093e\u091a\u093f\u0915\u093e
p661
sg9
(issf_api
FeatureSet
p662
(dp663
g12
(dp664
S'crefhead'
p665
S'\xe0\xa4\xaf\xe0\xa4\xbe\xe0\xa4\x9a\xe0\xa4\xbf\xe0\xa4\x95\xe0\xa4\xbe:i7'
p666
sS'posn'
p667
S'290'
p668
sS'name'
p669
S'\xe0\xa4\xaf\xe0\xa4\xbe\xe0\xa4\x9a\xe0\xa4\xbf\xe0\xa4\x95\xe0\xa4\xbe'
p670
sS'af'
p671
S'\xe0\xa4\xaf\xe0\xa4\xbe\xe0\xa4\x9a\xe0\xa4\xbf\xe0\xa4\x95\xe0\xa4\xbe,n,f,sg,3,d,0,0'
p672
sS'chunkid'
p673
S'NP10'
p674
sS'drel'
p675
S'k2:VGF'
p676
sS'chunktype'
p677
S'head:NP10'
p678
sS'cref'
p679
S'i7%1:t6'
p680
ssbsg26
I00
sg27
I00
sg28
Nsg29
Nsg30
I14
sg31
I0
sg32
Nsg33
Nsg34
S'NN'
p681
sg36
g662
sg37
I00
sba(issf_api
Word
p682
(dp683
g6
I00
sg7
V\u0926\u093e\u092f\u0930
p684
sg9
(issf_api
FeatureSet
p685
(dp686
g12
(dp687
S'posn'
p688
S'300'
p689
sS'name'
p690
S'\xe0\xa4\xa6\xe0\xa4\xbe\xe0\xa4\xaf\xe0\xa4\xb0'
p691
sS'af'
p692
S'\xe0\xa4\xa6\xe0\xa4\xbe\xe0\xa4\xaf\xe0\xa4\xb0,adj,any,any,,,,'
p693
sS'chunkid'
p694
S'JJP4'
p695
sS'drel'
p696
S'pof:VGF'
p697
sS'chunktype'
p698
S'head:JJP4'
p699
ssbsg26
I00
sg27
I00
sg28
Nsg29
Nsg30
I15
sg31
I0
sg32
Nsg33
Nsg34
S'JJ'
p700
sg36
g685
sg37
I00
sba(issf_api
Word
p701
(dp702
g6
I00
sg7
V\u0915\u0940
p703
sg9
(issf_api
FeatureSet
p704
(dp705
g12
(dp706
S'posn'
p707
S'310'
p708
sS'name'
p709
S'\xe0\xa4\x95\xe0\xa5\x80'
p710
sS'af'
p711
S'\xe0\xa4\x95\xe0\xa4\xb0,v,f,sg,3,,\xe0\xa4\xaf\xe0\xa4\xbe_\xe0\xa4\xb9\xe0\xa5\x88,yA'
p712
sS'chunkid'
p713
S'VGF'
p714
sS'chunktype'
p715
S'head:VGF'
p716
sS'voicetype'
p717
S'active'
p718
sS'vpos'
p719
S'tam_2'
p720
sS'stype'
p721
S'declarative'
p722
ssbsg26
I00
sg27
I00
sg28
Nsg29
Nsg30
I16
sg31
I0
sg32
Nsg33
Nsg34
S'VM'
p723
sg36
g704
sg37
I00
sba(issf_api
Word
p724
(dp725
g6
I00
sg7
V\u0939\u0948
p726
sg9
(issf_api
FeatureSet
p727
(dp728
g12
(dp729
S'posn'
p730
S'320'
p731
sS'name'
p732
S'\xe0\xa4\xb9\xe0\xa5\x88'
p733
sS'drel'
p734
S'lwg__vaux:VGF'
p735
sS'chunktype'
p736
S'child:VGF'
p737
sS'af'
p738
S'\xe0\xa4\xb9\xe0\xa5\x88,v,any,sg,3,,\xe0\xa4\xb9\xe0\xa5\x88,hE'
p739
ssbsg26
I00
sg27
I00
sg28
Nsg29
Nsg30
I16
sg31
I0
sg32
Nsg33
Nsg34
S'VAUX'
p740
sg36
g727
sg37
I00
sba(issf_api
Word
p741
(dp742
g6
I00
sg7
V\u0964
p743
sg9
(issf_api
FeatureSet
p744
(dp745
g12
(dp746
S'posn'
p747
S'330'
p748
sS'name'
p749
S'\xe0\xa5\xa4'
p750
sS'af'
p751
S'\xe0\xa5\xa4,punc,,,,,,'
p752
sS'chunkid'
p753
S'BLK'
p754
sS'drel'
p755
S'rsym:VGF'
p756
sS'chunktype'
p757
S'head:BLK'
p758
ssbsg26
I00
sg27
I00
sg28
Nsg29
Nsg30
I17
sg31
I0
sg32
Nsg33
Nsg34
S'SYM'
p759
sg36
g744
sg37
I00
sba(issf_api
Word
p760
(dp761
g6
I00
sg7
V\u0927\u093e\u0930\u0940\u0935\u093e\u0932
p762
sg9
(issf_api
FeatureSet
p763
(dp764
g12
(dp765
S'crefhead'
p766
S'\xe0\xa4\xa7\xe0\xa4\xbe\xe0\xa4\xb0\xe0\xa5\x80\xe0\xa4\xb5\xe0\xa4\xbe\xe0\xa4\xb2:i8'
p767
sS'posn'
p768
S'10'
p769
sS'name'
p770
S'\xe0\xa4\xa7\xe0\xa4\xbe\xe0\xa4\xb0\xe0\xa5\x80\xe0\xa4\xb5\xe0\xa4\xbe\xe0\xa4\xb2'
p771
sS'af'
p772
S'\xe0\xa4\xa7\xe0\xa4\xbe\xe0\xa4\xb0\xe0\xa5\x80\xe0\xa4\xb5\xe0\xa4\xbe\xe0\xa4\xb2,n,any,sg,3,o,0_\xe0\xa4\x95\xe0\xa4\xbe_\xe0\xa4\x93\xe0\xa4\xb0_\xe0\xa4\xb8\xe0\xa5\x87,0'
p773
sS'chunkid'
p774
S'NP'
p775
sS'creftype'
p776
S'Coreference-Identity:i2'
p777
sS'chunktype'
p778
S'head:NP'
p779
sS'vpos'
p780
S'vib_2_3_4'
p781
sS'cref'
p782
S'i8%1:t1'
p783
sS'drel'
p784
S'k7:VGF'
p785
ssbsg26
I00
sg27
I00
sg28
Nsg29
Nsg30
I0
sg31
I1
sg32
Nsg33
Nsg34
S'NNP'
p786
sg36
g763
sg37
I00
sba(issf_api
Word
p787
(dp788
g6
I00
sg7
V\u0915\u0940
p789
sg9
(issf_api
FeatureSet
p790
(dp791
g12
(dp792
S'posn'
p793
S'20'
p794
sS'name'
p795
S'\xe0\xa4\x95\xe0\xa5\x80'
p796
sS'drel'
p797
S'lwg__psp:NP'
p798
sS'chunktype'
p799
S'child:NP'
p800
sS'af'
p801
S'\xe0\xa4\x95\xe0\xa4\xbe,psp,f,sg,,o,,'
p802
ssbsg26
I00
sg27
I00
sg28
Nsg29
Nsg30
I0
sg31
I1
sg32
Nsg33
Nsg34
S'PSP'
p803
sg36
g790
sg37
I00
sba(issf_api
Word
p804
(dp805
g6
I00
sg7
V\u0913\u0930
p806
sg9
(issf_api
FeatureSet
p807
(dp808
g12
(dp809
S'posn'
p810
S'30'
p811
sS'name'
p812
S'\xe0\xa4\x93\xe0\xa4\xb0'
p813
sS'drel'
p814
S'lwg__psp:NP'
p815
sS'chunktype'
p816
S'child:NP'
p817
sS'af'
p818
S'\xe0\xa4\x93\xe0\xa4\xb0,nst,f,sg,3,o,,'
p819
ssbsg26
I00
sg27
I00
sg28
Nsg29
Nsg30
I0
sg31
I1
sg32
Nsg33
Nsg34
S'NST'
p820
sg36
g807
sg37
I00
sba(issf_api
Word
p821
(dp822
g6
I00
sg7
V\u0938\u0947
p823
sg9
(issf_api
FeatureSet
p824
(dp825
g12
(dp826
S'posn'
p827
S'40'
p828
sS'name'
p829
S'\xe0\xa4\xb8\xe0\xa5\x87'
p830
sS'drel'
p831
S'lwg__psp:NP'
p832
sS'chunktype'
p833
S'child:NP'
p834
sS'af'
p835
S'\xe0\xa4\xb8\xe0\xa5\x87,psp,,,,,,'
p836
ssbsg26
I00
sg27
I00
sg28
Nsg29
Nsg30
I0
sg31
I1
sg32
Nsg33
Nsg34
S'PSP'
p837
sg36
g824
sg37
I00
sba(issf_api
Word
p838
(dp839
g6
I00
sg7
V\u0926\u093e\u092f\u0930
p840
sg9
(issf_api
FeatureSet
p841
(dp842
g12
(dp843
S'posn'
p844
S'50'
p845
sS'name'
p846
S'\xe0\xa4\xa6\xe0\xa4\xbe\xe0\xa4\xaf\xe0\xa4\xb0'
p847
sS'af'
p848
S'\xe0\xa4\xa6\xe0\xa4\xbe\xe0\xa4\xaf\xe0\xa4\xb0,adj,any,any,,o,,'
p849
sS'chunkid'
p850
S'JJP'
p851
sS'drel'
p852
S'nmod:NP2'
p853
sS'chunktype'
p854
S'head:JJP'
p855
ssbsg26
I00
sg27
I00
sg28
Nsg29
Nsg30
I1
sg31
I1
sg32
Nsg33
Nsg34
S'JJ'
p856
sg36
g841
sg37
I00
sba(issf_api
Word
p857
(dp858
g6
I00
sg7
V\u0935\u093f\u0936\u0947\u0937
p859
sg9
(issf_api
FeatureSet
p860
(dp861
g12
(dp862
S'posn'
p863
S'60'
p864
sS'name'
p865
S'\xe0\xa4\xb5\xe0\xa4\xbf\xe0\xa4\xb6\xe0\xa5\x87\xe0\xa4\xb7'
p866
sS'af'
p867
S'\xe0\xa4\xb5\xe0\xa4\xbf\xe0\xa4\xb6\xe0\xa5\x87\xe0\xa4\xb7,adj,any,any,,o,,'
p868
sS'drel'
p869
S'nmod__adj:NP2'
p870
sS'chunktype'
p871
S'child:NP2'
p872
sS'cref'
p873
S'i9%0:t6'
p874
ssbsg26
I00
sg27
I00
sg28
Nsg29
Nsg30
I2
sg31
I1
sg32
Nsg33
Nsg34
S'JJ'
p875
sg36
g860
sg37
I00
sba(issf_api
Word
p876
(dp877
g6
I00
sg7
V\u0905\u0928\u0941\u092e\u0924\u093f
p878
sg9
(issf_api
FeatureSet
p879
(dp880
g12
(dp881
S'posn'
p882
S'70'
p883
sS'name'
p884
S'\xe0\xa4\x85\xe0\xa4\xa8\xe0\xa5\x81\xe0\xa4\xae\xe0\xa4\xa4\xe0\xa4\xbf'
p885
sS'af'
p886
S'\xe0\xa4\x85\xe0\xa4\xa8\xe0\xa5\x81\xe0\xa4\xae\xe0\xa4\xa4\xe0\xa4\xbf,n,f,sg,3,d,0,0'
p887
sS'drel'
p888
S'pof__cn:NP2'
p889
sS'chunktype'
p890
S'child:NP2'
p891
sS'cref'
p892
S'i9%0:t6'
p893
ssbsg26
I00
sg27
I00
sg28
Nsg29
Nsg30
I2
sg31
I1
sg32
Nsg33
Nsg34
S'NNC'
p894
sg36
g879
sg37
I00
sba(issf_api
Word
p895
(dp896
g6
I00
sg7
V\u092f\u093e\u091a\u093f\u0915\u093e
p897
sg9
(issf_api
FeatureSet
p898
(dp899
g12
(dp900
S'crefhead'
p901
S'\xe0\xa4\xaf\xe0\xa4\xbe\xe0\xa4\x9a\xe0\xa4\xbf\xe0\xa4\x95\xe0\xa4\xbe:i9'
p902
sS'posn'
p903
S'80'
p904
sS'name'
p905
S'\xe0\xa4\xaf\xe0\xa4\xbe\xe0\xa4\x9a\xe0\xa4\xbf\xe0\xa4\x95\xe0\xa4\xbe'
p906
sS'af'
p907
S'\xe0\xa4\xaf\xe0\xa4\xbe\xe0\xa4\x9a\xe0\xa4\xbf\xe0\xa4\x95\xe0\xa4\xbe,n,f,sg,3,o,0_\xe0\xa4\xae\xe0\xa5\x87\xe0\xa4\x82,0'
p908
sS'chunkid'
p909
S'NP2'
p910
sS'creftype'
p911
S'Coreference-Identity:i7'
p912
sS'chunktype'
p913
S'head:NP2'
p914
sS'crefchainhead'
p915
S'i9:t6'
p916
sS'vpos'
p917
S'vib_4'
p918
sS'cref'
p919
S'i9%1:t6'
p920
sS'drel'
p921
S'k7:VGF'
p922
ssbsg26
I00
sg27
I00
sg28
Nsg29
Nsg30
I2
sg31
I1
sg32
Nsg33
Nsg34
S'NN'
p923
sg36
g898
sg37
I00
sba(issf_api
Word
p924
(dp925
g6
I00
sg7
V\u092e\u0947\u0902
p926
sg9
(issf_api
FeatureSet
p927
(dp928
g12
(dp929
S'posn'
p930
S'90'
p931
sS'name'
p932
S'\xe0\xa4\xae\xe0\xa5\x87\xe0\xa4\x82'
p933
sS'drel'
p934
S'lwg__psp:NP2'
p935
sS'chunktype'
p936
S'child:NP2'
p937
sS'af'
p938
S'\xe0\xa4\xae\xe0\xa5\x87\xe0\xa4\x82,psp,,,,,,'
p939
ssbsg26
I00
sg27
I00
sg28
Nsg29
Nsg30
I2
sg31
I1
sg32
Nsg33
Nsg34
S'PSP'
p940
sg36
g927
sg37
I00
sba(issf_api
Word
p941
(dp942
g6
I00
sg7
V\u092c\u0949\u092e\u094d\u092c\u0947
p943
sg9
(issf_api
FeatureSet
p944
(dp945
g12
(dp946
S'posn'
p947
S'100'
p948
sS'name'
p949
S'\xe0\xa4\xac\xe0\xa5\x89\xe0\xa4\xae\xe0\xa5\x8d\xe0\xa4\xac\xe0\xa5\x87'
p950
sS'drel'
p951
S'pof__cn:NP3'
p952
sS'chunktype'
p953
S'child:NP3'
p954
sS'af'
p955
S'\xe0\xa4\xac\xe0\xa5\x89\xe0\xa4\xae\xe0\xa5\x8d\xe0\xa4\xac\xe0\xa5\x87,n,f,sg,3,d,0,0'
p956
ssbsg26
I00
sg27
I00
sg28
Nsg29
Nsg30
I3
sg31
I1
sg32
Nsg33
Nsg34
S'NNPC'
p957
sg36
g944
sg37
I00
sba(issf_api
Word
p958
(dp959
g6
I00
sg7
V\u0939\u093e\u0908\u0915\u094b\u0930\u094d\u091f
p960
sg9
(issf_api
FeatureSet
p961
(dp962
g12
(dp963
S'posn'
p964
S'110'
p965
sS'name'
p966
S'\xe0\xa4\xb9\xe0\xa4\xbe\xe0\xa4\x88\xe0\xa4\x95\xe0\xa5\x8b\xe0\xa4\xb0\xe0\xa5\x8d\xe0\xa4\x9f'
p967
sS'af'
p968
S'\xe0\xa4\xb9\xe0\xa4\xbe\xe0\xa4\x88\xe0\xa4\x95\xe0\xa5\x8b\xe0\xa4\xb0\xe0\xa5\x8d\xe0\xa4\x9f,n,f,sg,3,o,0_\xe0\xa4\xa6\xe0\xa5\x8d\xe0\xa4\xb5\xe0\xa4\xbe\xe0\xa4\xb0\xe0\xa4\xbe,0'
p969
sS'chunkid'
p970
S'NP3'
p971
sS'drel'
p972
S'k1:VGF'
p973
sS'vpos'
p974
S'vib_3'
p975
sS'chunktype'
p976
S'head:NP3'
p977
ssbsg26
I00
sg27
I00
sg28
Nsg29
Nsg30
I3
sg31
I1
sg32
Nsg33
Nsg34
S'NNP'
p978
sg36
g961
sg37
I00
sba(issf_api
Word
p979
(dp980
g6
I00
sg7
V\u0926\u094d\u0935\u093e\u0930\u093e
p981
sg9
(issf_api
FeatureSet
p982
(dp983
g12
(dp984
S'posn'
p985
S'120'
p986
sS'name'
p987
S'\xe0\xa4\xa6\xe0\xa5\x8d\xe0\xa4\xb5\xe0\xa4\xbe\xe0\xa4\xb0\xe0\xa4\xbe'
p988
sS'drel'
p989
S'lwg__psp:NP3'
p990
sS'chunktype'
p991
S'child:NP3'
p992
sS'af'
p993
S'\xe0\xa4\xa6\xe0\xa5\x8d\xe0\xa4\xb5\xe0\xa4\xbe\xe0\xa4\xb0\xe0\xa4\xbe,psp,,,,,,'
p994
ssbsg26
I00
sg27
I00
sg28
Nsg29
Nsg30
I3
sg31
I1
sg32
Nsg33
Nsg34
S'PSP'
p995
sg36
g982
sg37
I00
sba(issf_api
Word
p996
(dp997
g6
I00
sg7
V\u0909\u0928\u0915\u0940
p998
sg9
(issf_api
FeatureSet
p999
(dp1000
g12
(dp1001
S'crefhead'
p1002
S'\xe0\xa4\x89\xe0\xa4\xa8\xe0\xa4\x95\xe0\xa5\x80:i10'
p1003
sS'posn'
p1004
S'130'
p1005
sS'name'
p1006
S'\xe0\xa4\x89\xe0\xa4\xa8\xe0\xa4\x95\xe0\xa5\x80'
p1007
sS'af'
p1008
S'\xe0\xa4\xb5\xe0\xa4\xb9,pn,any,sg,3h,o,\xe0\xa4\x95\xe0\xa4\xbe,kA'
p1009
sS'chunkid'
p1010
S'NP4'
p1011
sS'creftype'
p1012
S'Anaphora-C:i8'
p1013
sS'chunktype'
p1014
S'head:NP4'
p1015
sS'cref'
p1016
S'i10%1:t1'
p1017
sS'drel'
p1018
S'r6:NP5'
p1019
ssbsg26
I00
sg27
I00
sg28
Nsg29
Nsg30
I4
sg31
I1
sg32
Nsg33
Nsg34
S'PRP'
p1020
sg36
g999
sg37
I00
sba(issf_api
Word
p1021
(dp1022
g6
I00
sg7
V\u0917\u0948\u0930
p1023
sg9
(issf_api
FeatureSet
p1024
(dp1025
g12
(dp1026
S'posn'
p1027
S'140'
p1028
sS'name'
p1029
S'\xe0\xa4\x97\xe0\xa5\x88\xe0\xa4\xb0'
p1030
sS'af'
p1031
S'\xe0\xa4\x97\xe0\xa5\x88\xe0\xa4\xb0,adj,any,any,,,,'
p1032
sS'drel'
p1033
S'mod:NP5'
p1034
sS'chunktype'
p1035
S'child:NP5'
p1036
sS'cref'
p1037
S'i11%0:t4'
p1038
ssbsg26
I00
sg27
I00
sg28
Nsg29
Nsg30
I5
sg31
I1
sg32
Nsg33
Nsg34
S'JJC'
p1039
sg36
g1024
sg37
I00
sba(issf_api
Word
p1040
(dp1041
g6
I00
sg7
V\u091c\u092e\u093e\u0928\u0924\u0940
p1042
sg9
(issf_api
FeatureSet
p1043
(dp1044
g12
(dp1045
S'posn'
p1046
S'150'
p1047
sS'name'
p1048
S'\xe0\xa4\x9c\xe0\xa4\xae\xe0\xa4\xbe\xe0\xa4\xa8\xe0\xa4\xa4\xe0\xa5\x80'
p1049
sS'af'
p1050
S'\xe0\xa4\x9c\xe0\xa4\xae\xe0\xa4\xbe\xe0\xa4\xa8\xe0\xa4\xa4\xe0\xa5\x80,adj,any,any,,d,,'
p1051
sS'drel'
p1052
S'nmod__adj:NP5'
p1053
sS'chunktype'
p1054
S'child:NP5'
p1055
sS'cref'
p1056
S'i11%0:t4'
p1057
ssbsg26
I00
sg27
I00
sg28
Nsg29
Nsg30
I5
sg31
I1
sg32
Nsg33
Nsg34
S'JJ'
p1058
sg36
g1043
sg37
I00
sba(issf_api
Word
p1059
(dp1060
g6
I00
sg7
V\u0935\u093e\u0930\u0902\u091f
p1061
sg9
(issf_api
FeatureSet
p1062
(dp1063
g12
(dp1064
S'crefhead'
p1065
S'\xe0\xa4\xb5\xe0\xa4\xbe\xe0\xa4\xb0\xe0\xa4\x82\xe0\xa4\x9f:i11'
p1066
sS'posn'
p1067
S'160'
p1068
sS'name'
p1069
S'\xe0\xa4\xb5\xe0\xa4\xbe\xe0\xa4\xb0\xe0\xa4\x82\xe0\xa4\x9f'
p1070
sS'af'
p1071
S'\xe0\xa4\xb5\xe0\xa4\xbe\xe0\xa4\xb0\xe0\xa4\x82\xe0\xa4\x9f,n,m,sg,3,d,0,0'
p1072
sS'chunkid'
p1073
S'NP5'
p1074
sS'creftype'
p1075
S'Coreference-Identity:i5'
p1076
sS'chunktype'
p1077
S'head:NP5'
p1078
sS'cref'
p1079
S'i11%1:t4'
p1080
sS'drel'
p1081
S'k2:VGNN'
p1082
ssbsg26
I00
sg27
I00
sg28
Nsg29
Nsg30
I5
sg31
I1
sg32
Nsg33
Nsg34
S'NN'
p1083
sg36
g1062
sg37
I00
sba(issf_api
Word
p1084
(dp1085
g6
I00
sg7
V\u0930\u0926\u094d\u0926
p1086
sg9
(issf_api
FeatureSet
p1087
(dp1088
g12
(dp1089
S'posn'
p1090
S'170'
p1091
sS'name'
p1092
S'\xe0\xa4\xb0\xe0\xa4\xa6\xe0\xa5\x8d\xe0\xa4\xa6'
p1093
sS'af'
p1094
S'\xe0\xa4\xb0\xe0\xa4\xa6\xe0\xa5\x8d\xe0\xa4\xa6,adj,any,any,,,,'
p1095
sS'chunkid'
p1096
S'JJP2'
p1097
sS'drel'
p1098
S'pof:VGNN'
p1099
sS'chunktype'
p1100
S'head:JJP2'
p1101
ssbsg26
I00
sg27
I00
sg28
Nsg29
Nsg30
I6
sg31
I1
sg32
Nsg33
Nsg34
S'JJ'
p1102
sg36
g1087
sg37
I00
sba(issf_api
Word
p1103
(dp1104
g6
I00
sg7
V\u0915\u0930\u0928\u0947
p1105
sg9
(issf_api
FeatureSet
p1106
(dp1107
g12
(dp1108
S'posn'
p1109
S'180'
p1110
sS'name'
p1111
S'\xe0\xa4\x95\xe0\xa4\xb0\xe0\xa4\xa8\xe0\xa5\x87'
p1112
sS'af'
p1113
S'\xe0\xa4\x95\xe0\xa4\xb0,v,any,sg,any,o,\xe0\xa4\xa8\xe0\xa4\xbe_\xe0\xa4\x95\xe0\xa4\xbe,nA'
p1114
sS'chunkid'
p1115
S'VGNN'
p1116
sS'drel'
p1117
S'r6:NP6'
p1118
sS'vpos'
p1119
S'tam_2'
p1120
sS'chunktype'
p1121
S'head:VGNN'
p1122
ssbsg26
I00
sg27
I00
sg28
Nsg29
Nsg30
I7
sg31
I1
sg32
Nsg33
Nsg34
S'VM'
p1123
sg36
g1106
sg37
I00
sba(issf_api
Word
p1124
(dp1125
g6
I00
sg7
V\u0915\u0940
p1126
sg9
(issf_api
FeatureSet
p1127
(dp1128
g12
(dp1129
S'posn'
p1130
S'190'
p1131
sS'name'
p1132
S'\xe0\xa4\x95\xe0\xa5\x802'
p1133
sS'drel'
p1134
S'lwg__psp:VGNN'
p1135
sS'chunktype'
p1136
S'child:VGNN'
p1137
sS'af'
p1138
S'\xe0\xa4\x95\xe0\xa4\xbe,psp,f,sg,,d,,'
p1139
ssbsg26
I00
sg27
I00
sg28
Nsg29
Nsg30
I7
sg31
I1
sg32
Nsg33
Nsg34
S'PSP'
p1140
sg36
g1127
sg37
I00
sba(issf_api
Word
p1141
(dp1142
g6
I00
sg7
V\u092f\u093e\u091a\u093f\u0915\u093e
p1143
sg9
(issf_api
FeatureSet
p1144
(dp1145
g12
(dp1146
S'posn'
p1147
S'200'
p1148
sS'name'
p1149
S'\xe0\xa4\xaf\xe0\xa4\xbe\xe0\xa4\x9a\xe0\xa4\xbf\xe0\xa4\x95\xe0\xa4\xbe2'
p1150
sS'af'
p1151
S'\xe0\xa4\xaf\xe0\xa4\xbe\xe0\xa4\x9a\xe0\xa4\xbf\xe0\xa4\x95\xe0\xa4\xbe,n,f,sg,3,d,0,0'
p1152
sS'chunkid'
p1153
S'NP6'
p1154
sS'drel'
p1155
S'k2:VGNN2'
p1156
sS'chunktype'
p1157
S'head:NP6'
p1158
ssbsg26
I00
sg27
I00
sg28
Nsg29
Nsg30
I8
sg31
I1
sg32
Nsg33
Nsg34
S'NN'
p1159
sg36
g1144
sg37
I00
sba(issf_api
Word
p1160
(dp1161
g6
I00
sg7
V\u0916\u093e\u0930\u093f\u091c
p1162
sg9
(issf_api
FeatureSet
p1163
(dp1164
g12
(dp1165
S'posn'
p1166
S'210'
p1167
sS'name'
p1168
S'\xe0\xa4\x96\xe0\xa4\xbe\xe0\xa4\xb0\xe0\xa4\xbf\xe0\xa4\x9c'
p1169
sS'af'
p1170
S'\xe0\xa4\x96\xe0\xa4\xbe\xe0\xa4\xb0\xe0\xa4\xbf\xe0\xa4\x9c,adj,any,any,,,,'
p1171
sS'chunkid'
p1172
S'JJP3'
p1173
sS'drel'
p1174
S'pof:VGNN2'
p1175
sS'chunktype'
p1176
S'head:JJP3'
p1177
ssbsg26
I00
sg27
I00
sg28
Nsg29
Nsg30
I9
sg31
I1
sg32
Nsg33
Nsg34
S'JJ'
p1178
sg36
g1163
sg37
I00
sba(issf_api
Word
p1179
(dp1180
g6
I00
sg7
V\u0915\u0930\u0928\u0947
p1181
sg9
(issf_api
FeatureSet
p1182
(dp1183
g12
(dp1184
S'posn'
p1185
S'220'
p1186
sS'name'
p1187
S'\xe0\xa4\x95\xe0\xa4\xb0\xe0\xa4\xa8\xe0\xa5\x872'
p1188
sS'af'
p1189
S'\xe0\xa4\x95\xe0\xa4\xb0,v,any,sg,any,o,\xe0\xa4\xa8\xe0\xa4\xbe_\xe0\xa4\x95\xe0\xa4\xbe,nA'
p1190
sS'chunkid'
p1191
S'VGNN2'
p1192
sS'drel'
p1193
S'r6:NP8'
p1194
sS'vpos'
p1195
S'tam_2'
p1196
sS'chunktype'
p1197
S'head:VGNN2'
p1198
ssbsg26
I00
sg27
I00
sg28
Nsg29
Nsg30
I10
sg31
I1
sg32
Nsg33
Nsg34
S'VM'
p1199
sg36
g1182
sg37
I00
sba(issf_api
Word
p1200
(dp1201
g6
I00
sg7
V\u0915\u0947
p1202
sg9
(issf_api
FeatureSet
p1203
(dp1204
g12
(dp1205
S'posn'
p1206
S'230'
p1207
sS'name'
p1208
S'\xe0\xa4\x95\xe0\xa5\x87'
p1209
sS'drel'
p1210
S'lwg__psp:VGNN2'
p1211
sS'chunktype'
p1212
S'child:VGNN2'
p1213
sS'af'
p1214
S'\xe0\xa4\x95\xe0\xa4\xbe,psp,m,sg,,o,,'
p1215
ssbsg26
I00
sg27
I00
sg28
Nsg29
Nsg30
I10
sg31
I1
sg32
Nsg33
Nsg34
S'PSP'
p1216
sg36
g1203
sg37
I00
sba(issf_api
Word
p1217
(dp1218
g6
I00
sg7
V\u0968\u0968
p1219
sg9
(issf_api
FeatureSet
p1220
(dp1221
g12
(dp1222
S'posn'
p1223
S'240'
p1224
sS'name'
p1225
S'\xe0\xa5\xa8\xe0\xa5\xa8'
p1226
sS'drel'
p1227
S'pof__cn:NP7'
p1228
sS'chunktype'
p1229
S'child:NP7'
p1230
sS'af'
p1231
S'\xe0\xa5\xa8\xe0\xa5\xa8,n,any,sg,3,d,0,0'
p1232
ssbsg26
I00
sg27
I00
sg28
Nsg29
Nsg30
I11
sg31
I1
sg32
Nsg33
Nsg34
S'NNPC'
p1233
sg36
g1220
sg37
I00
sba(issf_api
Word
p1234
(dp1235
g6
I00
sg7
V\u092b\u0930\u0935\u0930\u0940
p1236
sg9
(issf_api
FeatureSet
p1237
(dp1238
g12
(dp1239
S'posn'
p1240
S'250'
p1241
sS'name'
p1242
S'\xe0\xa4\xab\xe0\xa4\xb0\xe0\xa4\xb5\xe0\xa4\xb0\xe0\xa5\x80'
p1243
sS'af'
p1244
S'\xe0\xa4\xab\xe0\xa4\xb0\xe0\xa4\xb5\xe0\xa4\xb0\xe0\xa5\x80,n,f,sg,3,o,0_\xe0\xa4\x95\xe0\xa4\xbe,0'
p1245
sS'chunkid'
p1246
S'NP7'
p1247
sS'drel'
p1248
S'r6:NP8'
p1249
sS'vpos'
p1250
S'vib_3'
p1251
sS'chunktype'
p1252
S'head:NP7'
p1253
ssbsg26
I00
sg27
I00
sg28
Nsg29
Nsg30
I11
sg31
I1
sg32
Nsg33
Nsg34
S'NNP'
p1254
sg36
g1237
sg37
I00
sba(issf_api
Word
p1255
(dp1256
g6
I00
sg7
V\u0915\u0947
p1257
sg9
(issf_api
FeatureSet
p1258
(dp1259
g12
(dp1260
S'posn'
p1261
S'260'
p1262
sS'name'
p1263
S'\xe0\xa4\x95\xe0\xa5\x872'
p1264
sS'drel'
p1265
S'lwg__psp:NP7'
p1266
sS'chunktype'
p1267
S'child:NP7'
p1268
sS'af'
p1269
S'\xe0\xa4\x95\xe0\xa4\xbe,psp,m,sg,,o,,'
p1270
ssbsg26
I00
sg27
I00
sg28
Nsg29
Nsg30
I11
sg31
I1
sg32
Nsg33
Nsg34
S'PSP'
p1271
sg36
g1258
sg37
I00
sba(issf_api
Word
p1272
(dp1273
g6
I00
sg7
V\u0906\u0926\u0947\u0936
p1274
sg9
(issf_api
FeatureSet
p1275
(dp1276
g12
(dp1277
S'posn'
p1278
S'270'
p1279
sS'name'
p1280
S'\xe0\xa4\x86\xe0\xa4\xa6\xe0\xa5\x87\xe0\xa4\xb6'
p1281
sS'af'
p1282
S'\xe0\xa4\x86\xe0\xa4\xa6\xe0\xa5\x87\xe0\xa4\xb6,n,m,sg,3,o,0_\xe0\xa4\x95\xe0\xa5\x8b,0'
p1283
sS'chunkid'
p1284
S'NP8'
p1285
sS'drel'
p1286
S'k4:VGF'
p1287
sS'vpos'
p1288
S'vib_2'
p1289
sS'chunktype'
p1290
S'head:NP8'
p1291
ssbsg26
I00
sg27
I00
sg28
Nsg29
Nsg30
I12
sg31
I1
sg32
Nsg33
Nsg34
S'NN'
p1292
sg36
g1275
sg37
I00
sba(issf_api
Word
p1293
(dp1294
g6
I00
sg7
V\u0915\u094b
p1295
sg9
(issf_api
FeatureSet
p1296
(dp1297
g12
(dp1298
S'posn'
p1299
S'280'
p1300
sS'name'
p1301
S'\xe0\xa4\x95\xe0\xa5\x8b'
p1302
sS'drel'
p1303
S'lwg__psp:NP8'
p1304
sS'chunktype'
p1305
S'child:NP8'
p1306
sS'af'
p1307
S'\xe0\xa4\x95\xe0\xa5\x8b,psp,,,,,,'
p1308
ssbsg26
I00
sg27
I00
sg28
Nsg29
Nsg30
I12
sg31
I1
sg32
Nsg33
Nsg34
S'PSP'
p1309
sg36
g1296
sg37
I00
sba(issf_api
Word
p1310
(dp1311
g6
I00
sg7
V\u091a\u0941\u0928\u094c\u0924\u0940
p1312
sg9
(issf_api
FeatureSet
p1313
(dp1314
g12
(dp1315
S'posn'
p1316
S'290'
p1317
sS'name'
p1318
S'\xe0\xa4\x9a\xe0\xa5\x81\xe0\xa4\xa8\xe0\xa5\x8c\xe0\xa4\xa4\xe0\xa5\x80'
p1319
sS'af'
p1320
S'\xe0\xa4\x9a\xe0\xa5\x81\xe0\xa4\xa8\xe0\xa5\x8c\xe0\xa4\xa4\xe0\xa5\x80,n,f,sg,3,d,0,0'
p1321
sS'chunkid'
p1322
S'NP9'
p1323
sS'drel'
p1324
S'k2:VGF'
p1325
sS'chunktype'
p1326
S'head:NP9'
p1327
ssbsg26
I00
sg27
I00
sg28
Nsg29
Nsg30
I13
sg31
I1
sg32
Nsg33
Nsg34
S'NN'
p1328
sg36
g1313
sg37
I00
sba(issf_api
Word
p1329
(dp1330
g6
I00
sg7
V\u0926\u0940
p1331
sg9
(issf_api
FeatureSet
p1332
(dp1333
g12
(dp1334
S'posn'
p1335
S'300'
p1336
sS'name'
p1337
S'\xe0\xa4\xa6\xe0\xa5\x80'
p1338
sS'af'
p1339
S'\xe0\xa4\xa6\xe0\xa5\x87,v,f,sg,3,,\xe0\xa4\xaf\xe0\xa4\xbe_\xe0\xa4\x9c\xe0\xa4\xbe+\xe0\xa4\xaf\xe0\xa4\xbe\xe0\xa5\xa7_\xe0\xa4\xb9\xe0\xa5\x88,yA'
p1340
sS'chunkid'
p1341
S'VGF'
p1342
sS'chunktype'
p1343
S'head:VGF'
p1344
sS'voicetype'
p1345
S'passive'
p1346
sS'vpos'
p1347
S'tam_2_3'
p1348
sS'stype'
p1349
S'declarative'
p1350
ssbsg26
I00
sg27
I00
sg28
Nsg29
Nsg30
I14
sg31
I1
sg32
Nsg33
Nsg34
S'VM'
p1351
sg36
g1332
sg37
I00
sba(issf_api
Word
p1352
(dp1353
g6
I00
sg7
V\u0917\u0908
p1354
sg9
(issf_api
FeatureSet
p1355
(dp1356
g12
(dp1357
S'posn'
p1358
S'310'
p1359
sS'name'
p1360
S'\xe0\xa4\x97\xe0\xa4\x88'
p1361
sS'drel'
p1362
S'lwg__vaux:VGF'
p1363
sS'chunktype'
p1364
S'child:VGF'
p1365
sS'af'
p1366
S'\xe0\xa4\x9c\xe0\xa4\xbe,v,f,sg,any,,\xe0\xa4\xaf\xe0\xa4\xbe\xe0\xa5\xa7,yA1'
p1367
ssbsg26
I00
sg27
I00
sg28
Nsg29
Nsg30
I14
sg31
I1
sg32
Nsg33
Nsg34
S'VAUX'
p1368
sg36
g1355
sg37
I00
sba(issf_api
Word
p1369
(dp1370
g6
I00
sg7
V\u0939\u0948
p1371
sg9
(issf_api
FeatureSet
p1372
(dp1373
g12
(dp1374
S'posn'
p1375
S'320'
p1376
sS'name'
p1377
S'\xe0\xa4\xb9\xe0\xa5\x88'
p1378
sS'drel'
p1379
S'lwg__vaux:VGF'
p1380
sS'chunktype'
p1381
S'child:VGF'
p1382
sS'af'
p1383
S'\xe0\xa4\xb9\xe0\xa5\x88,v,any,sg,3,,\xe0\xa4\xb9\xe0\xa5\x88,hE'
p1384
ssbsg26
I00
sg27
I00
sg28
Nsg29
Nsg30
I14
sg31
I1
sg32
Nsg33
Nsg34
S'VAUX'
p1385
sg36
g1372
sg37
I00
sba(issf_api
Word
p1386
(dp1387
g6
I00
sg7
V\u0964
p1388
sg9
(issf_api
FeatureSet
p1389
(dp1390
g12
(dp1391
S'posn'
p1392
S'330'
p1393
sS'name'
p1394
S'\xe0\xa5\xa4'
p1395
sS'af'
p1396
S'\xe0\xa5\xa4,punc,,,,,,'
p1397
sS'chunkid'
p1398
S'BLK'
p1399
sS'drel'
p1400
S'rsym:VGF'
p1401
sS'chunktype'
p1402
S'head:BLK'
p1403
ssbsg26
I00
sg27
I00
sg28
Nsg29
Nsg30
I15
sg31
I1
sg32
Nsg33
Nsg34
S'SYM'
p1404
sg36
g1389
sg37
I00
sba(issf_api
Word
p1405
(dp1406
g6
I00
sg7
V\u092e\u0941\u0902\u092c\u0908
p1407
sg9
(issf_api
FeatureSet
p1408
(dp1409
g12
(dp1410
S'posn'
p1411
S'10'
p1412
sS'name'
p1413
S'\xe0\xa4\xae\xe0\xa5\x81\xe0\xa4\x82\xe0\xa4\xac\xe0\xa4\x88'
p1414
sS'af'
p1415
S'\xe0\xa4\xae\xe0\xa5\x81\xe0\xa4\x82\xe0\xa4\xac\xe0\xa4\x88,n,f,sg,3,d,0,0'
p1416
sS'drel'
p1417
S'nmod__adj:NP'
p1418
sS'chunktype'
p1419
S'child:NP'
p1420
sS'cref'
p1421
S'i12%0:t7'
p1422
ssbsg26
I00
sg27
I00
sg28
Nsg29
Nsg30
I0
sg31
I2
sg32
Nsg33
Nsg34
S'NNP'
p1423
sg36
g1408
sg37
I00
sba(issf_api
Word
p1424
(dp1425
g6
I00
sg7
V\u092a\u0941\u0932\u093f\u0938
p1426
sg9
(issf_api
FeatureSet
p1427
(dp1428
g12
(dp1429
S'crefhead'
p1430
S'\xe0\xa4\xaa\xe0\xa5\x81\xe0\xa4\xb2\xe0\xa4\xbf\xe0\xa4\xb8:i12'
p1431
sS'posn'
p1432
S'20'
p1433
sS'name'
p1434
S'\xe0\xa4\xaa\xe0\xa5\x81\xe0\xa4\xb2\xe0\xa4\xbf\xe0\xa4\xb8'
p1435
sS'af'
p1436
S'\xe0\xa4\xaa\xe0\xa5\x81\xe0\xa4\xb2\xe0\xa4\xbf\xe0\xa4\xb8,n,f,sg,3,o,0_\xe0\xa4\xa8\xe0\xa5\x87,0'
p1437
sS'chunkid'
p1438
S'NP'
p1439
sS'chunktype'
p1440
S'head:NP'
p1441
sS'crefchainhead'
p1442
S'i12:t7'
p1443
sS'vpos'
p1444
S'vib_vib_3'
p1445
sS'cref'
p1446
S'i12%1:t7'
p1447
sS'drel'
p1448
S'k1:VGF'
p1449
ssbsg26
I00
sg27
I00
sg28
Nsg29
Nsg30
I0
sg31
I2
sg32
Nsg33
Nsg34
S'NN'
p1450
sg36
g1427
sg37
I00
sba(issf_api
Word
p1451
(dp1452
g6
I00
sg7
V\u0928\u0947
p1453
sg9
(issf_api
FeatureSet
p1454
(dp1455
g12
(dp1456
S'posn'
p1457
S'30'
p1458
sS'name'
p1459
S'\xe0\xa4\xa8\xe0\xa5\x87'
p1460
sS'drel'
p1461
S'lwg__psp:NP'
p1462
sS'chunktype'
p1463
S'child:NP'
p1464
sS'af'
p1465
S'\xe0\xa4\xa8\xe0\xa5\x87,psp,,,,,,'
p1466
ssbsg26
I00
sg27
I00
sg28
Nsg29
Nsg30
I0
sg31
I2
sg32
Nsg33
Nsg34
S'PSP'
p1467
sg36
g1454
sg37
I00
sba(issf_api
Word
p1468
(dp1469
g6
I00
sg7
V\u0905\u092a\u0928\u0940
p1470
sg9
(issf_api
FeatureSet
p1471
(dp1472
g12
(dp1473
S'crefhead'
p1474
S'\xe0\xa4\x85\xe0\xa4\xaa\xe0\xa4\xa8\xe0\xa5\x80:i13'
p1475
sS'posn'
p1476
S'40'
p1477
sS'name'
p1478
S'\xe0\xa4\x85\xe0\xa4\xaa\xe0\xa4\xa8\xe0\xa5\x80'
p1479
sS'af'
p1480
S'\xe0\xa4\x85\xe0\xa4\xaa\xe0\xa4\xa8\xe0\xa4\xbe,pn,f,any,any,o,0,0'
p1481
sS'chunkid'
p1482
S'NP2'
p1483
sS'creftype'
p1484
S'Anaphora-C:i12'
p1485
sS'chunktype'
p1486
S'head:NP2'
p1487
sS'cref'
p1488
S'i13%1:t7'
p1489
sS'drel'
p1490
S'r6:NP3'
p1491
ssbsg26
I00
sg27
I00
sg28
Nsg29
Nsg30
I1
sg31
I2
sg32
Nsg33
Nsg34
S'PRP'
p1492
sg36
g1471
sg37
I00
sba(issf_api
Word
p1493
(dp1494
g6
I00
sg7
V\u0926\u0932\u0940\u0932
p1495
sg9
(issf_api
FeatureSet
p1496
(dp1497
g12
(dp1498
S'posn'
p1499
S'50'
p1500
sS'name'
p1501
S'\xe0\xa4\xa6\xe0\xa4\xb2\xe0\xa5\x80\xe0\xa4\xb2'
p1502
sS'af'
p1503
S'\xe0\xa4\xa6\xe0\xa4\xb2\xe0\xa5\x80\xe0\xa4\xb2,n,f,sg,3,o,0_\xe0\xa4\xae\xe0\xa5\x87\xe0\xa4\x82,0'
p1504
sS'chunkid'
p1505
S'NP3'
p1506
sS'drel'
p1507
S'k7:VGF'
p1508
sS'vpos'
p1509
S'vib_2'
p1510
sS'chunktype'
p1511
S'head:NP3'
p1512
ssbsg26
I00
sg27
I00
sg28
Nsg29
Nsg30
I2
sg31
I2
sg32
Nsg33
Nsg34
S'NN'
p1513
sg36
g1496
sg37
I00
sba(issf_api
Word
p1514
(dp1515
g6
I00
sg7
V\u092e\u0947\u0902
p1516
sg9
(issf_api
FeatureSet
p1517
(dp1518
g12
(dp1519
S'posn'
p1520
S'60'
p1521
sS'name'
p1522
S'\xe0\xa4\xae\xe0\xa5\x87\xe0\xa4\x82'
p1523
sS'drel'
p1524
S'lwg__psp:NP3'
p1525
sS'chunktype'
p1526
S'child:NP3'
p1527
sS'af'
p1528
S'\xe0\xa4\xae\xe0\xa5\x87\xe0\xa4\x82,psp,,,,,,'
p1529
ssbsg26
I00
sg27
I00
sg28
Nsg29
Nsg30
I2
sg31
I2
sg32
Nsg33
Nsg34
S'PSP'
p1530
sg36
g1517
sg37
I00
sba(issf_api
Word
p1531
(dp1532
g6
I00
sg7
V\u0915\u0939\u093e
p1533
sg9
(issf_api
FeatureSet
p1534
(dp1535
g12
(dp1536
S'posn'
p1537
S'70'
p1538
sS'name'
p1539
S'\xe0\xa4\x95\xe0\xa4\xb9\xe0\xa4\xbe'
p1540
sS'af'
p1541
S'\xe0\xa4\x95\xe0\xa4\xb9,v,m,sg,any,,\xe0\xa4\xaf\xe0\xa4\xbe_\xe0\xa4\xa5\xe0\xa4\xbe,yA'
p1542
sS'chunkid'
p1543
S'VGF'
p1544
sS'chunktype'
p1545
S'head:VGF'
p1546
sS'voicetype'
p1547
S'active'
p1548
sS'vpos'
p1549
S'tam_2'
p1550
sS'stype'
p1551
S'declarative'
p1552
ssbsg26
I00
sg27
I00
sg28
Nsg29
Nsg30
I3
sg31
I2
sg32
Nsg33
Nsg34
S'VM'
p1553
sg36
g1534
sg37
I00
sba(issf_api
Word
p1554
(dp1555
g6
I00
sg7
V\u0925\u093e
p1556
sg9
(issf_api
FeatureSet
p1557
(dp1558
g12
(dp1559
S'posn'
p1560
S'80'
p1561
sS'name'
p1562
S'\xe0\xa4\xa5\xe0\xa4\xbe'
p1563
sS'drel'
p1564
S'lwg__vaux:VGF'
p1565
sS'chunktype'
p1566
S'child:VGF'
p1567
sS'af'
p1568
S'\xe0\xa4\xa5\xe0\xa4\xbe,v,m,sg,any,,\xe0\xa4\xa5\xe0\xa4\xbe,WA'
p1569
ssbsg26
I00
sg27
I00
sg28
Nsg29
Nsg30
I3
sg31
I2
sg32
Nsg33
Nsg34
S'VAUX'
p1570
sg36
g1557
sg37
I00
sba(issf_api
Word
p1571
(dp1572
g6
I00
sg7
V\u0915\u093f
p1573
sg9
(issf_api
FeatureSet
p1574
(dp1575
g12
(dp1576
S'posn'
p1577
S'90'
p1578
sS'name'
p1579
S'\xe0\xa4\x95\xe0\xa4\xbf'
p1580
sS'af'
p1581
S'\xe0\xa4\x95\xe0\xa4\xbf,avy,,,,,,'
p1582
sS'chunkid'
p1583
S'CCP'
p1584
sS'drel'
p1585
S'k2:VGF'
p1586
sS'chunktype'
p1587
S'head:CCP'
p1588
ssbsg26
I00
sg27
I00
sg28
Nsg29
Nsg30
I4
sg31
I2
sg32
Nsg33
Nsg34
S'CC'
p1589
sg36
g1574
sg37
I00
sba(issf_api
Word
p1590
(dp1591
g6
I00
sg7
V\u0938\u091a\u094d\u091a\u093e\u0908
p1592
sg9
(issf_api
FeatureSet
p1593
(dp1594
g12
(dp1595
S'posn'
p1596
S'100'
p1597
sS'name'
p1598
S'\xe0\xa4\xb8\xe0\xa4\x9a\xe0\xa5\x8d\xe0\xa4\x9a\xe0\xa4\xbe\xe0\xa4\x88'
p1599
sS'af'
p1600
S'\xe0\xa4\xb8\xe0\xa4\x9a\xe0\xa5\x8d\xe0\xa4\x9a\xe0\xa4\xbe\xe0\xa4\x88,n,f,sg,3,d,0,0'
p1601
sS'chunkid'
p1602
S'NP4'
p1603
sS'drel'
p1604
S'k2:VGNN'
p1605
sS'chunktype'
p1606
S'head:NP4'
p1607
ssbsg26
I00
sg27
I00
sg28
Nsg29
Nsg30
I5
sg31
I2
sg32
Nsg33
Nsg34
S'NN'
p1608
sg36
g1593
sg37
I00
sba(issf_api
Word
p1609
(dp1610
g6
I00
sg7
V\u091c\u093e\u0928\u0928\u0947
p1611
sg9
(issf_api
FeatureSet
p1612
(dp1613
g12
(dp1614
S'posn'
p1615
S'110'
p1616
sS'name'
p1617
S'\xe0\xa4\x9c\xe0\xa4\xbe\xe0\xa4\xa8\xe0\xa4\xa8\xe0\xa5\x87'
p1618
sS'af'
p1619
S'\xe0\xa4\x9c\xe0\xa4\xbe\xe0\xa4\xa8,v,any,any,any,o,\xe0\xa4\xa8\xe0\xa4\xbe_\xe0\xa4\x95\xe0\xa5\x87_\xe0\xa4\xb2\xe0\xa4\xbf\xe0\xa4\x8f,nA'
p1620
sS'chunkid'
p1621
S'VGNN'
p1622
sS'drel'
p1623
S'rt:VGF2'
p1624
sS'vpos'
p1625
S'tam_2_3'
p1626
sS'chunktype'
p1627
S'head:VGNN'
p1628
ssbsg26
I00
sg27
I00
sg28
Nsg29
Nsg30
I6
sg31
I2
sg32
Nsg33
Nsg34
S'VM'
p1629
sg36
g1612
sg37
I00
sba(issf_api
Word
p1630
(dp1631
g6
I00
sg7
V\u0915\u0947
p1632
sg9
(issf_api
FeatureSet
p1633
(dp1634
g12
(dp1635
S'posn'
p1636
S'120'
p1637
sS'name'
p1638
S'\xe0\xa4\x95\xe0\xa5\x87'
p1639
sS'drel'
p1640
S'lwg__psp:VGNN'
p1641
sS'chunktype'
p1642
S'child:VGNN'
p1643
sS'af'
p1644
S'\xe0\xa4\x95\xe0\xa5\x87,psp,,,,,,'
p1645
ssbsg26
I00
sg27
I00
sg28
Nsg29
Nsg30
I6
sg31
I2
sg32
Nsg33
Nsg34
S'PSP'
p1646
sg36
g1633
sg37
I00
sba(issf_api
Word
p1647
(dp1648
g6
I00
sg7
V\u0932\u093f\u090f
p1649
sg9
(issf_api
FeatureSet
p1650
(dp1651
g12
(dp1652
S'posn'
p1653
S'130'
p1654
sS'name'
p1655
S'\xe0\xa4\xb2\xe0\xa4\xbf\xe0\xa4\x8f'
p1656
sS'drel'
p1657
S'lwg__psp:VGNN'
p1658
sS'chunktype'
p1659
S'child:VGNN'
p1660
sS'af'
p1661
S'\xe0\xa4\xb2\xe0\xa4\xbf\xe0\xa4\x8f,psp,,,,,,'
p1662
ssbsg26
I00
sg27
I00
sg28
Nsg29
Nsg30
I6
sg31
I2
sg32
Nsg33
Nsg34
S'PSP'
p1663
sg36
g1650
sg37
I00
sba(issf_api
Word
p1664
(dp1665
g6
I00
sg7
V\u0927\u093e\u0930\u0940\u0935\u093e\u0932
p1666
sg9
(issf_api
FeatureSet
p1667
(dp1668
g12
(dp1669
S'crefhead'
p1670
S'\xe0\xa4\xa7\xe0\xa4\xbe\xe0\xa4\xb0\xe0\xa5\x80\xe0\xa4\xb5\xe0\xa4\xbe\xe0\xa4\xb2:i14'
p1671
sS'posn'
p1672
S'140'
p1673
sS'name'
p1674
S'\xe0\xa4\xa7\xe0\xa4\xbe\xe0\xa4\xb0\xe0\xa5\x80\xe0\xa4\xb5\xe0\xa4\xbe\xe0\xa4\xb2'
p1675
sS'af'
p1676
S'\xe0\xa4\xa7\xe0\xa4\xbe\xe0\xa4\xb0\xe0\xa5\x80\xe0\xa4\xb5\xe0\xa4\xbe\xe0\xa4\xb2,n,any,sg,3,o,0_\xe0\xa4\x95\xe0\xa5\x8b,0'
p1677
sS'chunkid'
p1678
S'NP5'
p1679
sS'creftype'
p1680
S'Coreference-Identity:i10'
p1681
sS'chunktype'
p1682
S'head:NP5'
p1683
sS'vpos'
p1684
S'vib_2'
p1685
sS'cref'
p1686
S'i14%1:t1'
p1687
sS'drel'
p1688
S'k2:VGNF'
p1689
ssbsg26
I00
sg27
I00
sg28
Nsg29
Nsg30
I7
sg31
I2
sg32
Nsg33
Nsg34
S'NNP'
p1690
sg36
g1667
sg37
I00
sba(issf_api
Word
p1691
(dp1692
g6
I00
sg7
V\u0915\u094b
p1693
sg9
(issf_api
FeatureSet
p1694
(dp1695
g12
(dp1696
S'posn'
p1697
S'150'
p1698
sS'name'
p1699
S'\xe0\xa4\x95\xe0\xa5\x8b'
p1700
sS'drel'
p1701
S'lwg__psp:NP5'
p1702
sS'chunktype'
p1703
S'child:NP5'
p1704
sS'af'
p1705
S'\xe0\xa4\x95\xe0\xa5\x8b,psp,,,,,,'
p1706
ssbsg26
I00
sg27
I00
sg28
Nsg29
Nsg30
I7
sg31
I2
sg32
Nsg33
Nsg34
S'PSP'
p1707
sg36
g1694
sg37
I00
sba(issf_api
Word
p1708
(dp1709
g6
I00
sg7
V\u0939\u093f\u0930\u093e\u0938\u0924
p1710
sg9
(issf_api
FeatureSet
p1711
(dp1712
g12
(dp1713
S'posn'
p1714
S'160'
p1715
sS'name'
p1716
S'\xe0\xa4\xb9\xe0\xa4\xbf\xe0\xa4\xb0\xe0\xa4\xbe\xe0\xa4\xb8\xe0\xa4\xa4'
p1717
sS'af'
p1718
S'\xe0\xa4\xb9\xe0\xa4\xbf\xe0\xa4\xb0\xe0\xa4\xbe\xe0\xa4\xb8\xe0\xa4\xa4,n,f,sg,3,o,0_\xe0\xa4\xae\xe0\xa5\x87\xe0\xa4\x82,0'
p1719
sS'chunkid'
p1720
S'NP6'
p1721
sS'drel'
p1722
S'k7:VGNF'
p1723
sS'vpos'
p1724
S'vib_2'
p1725
sS'chunktype'
p1726
S'head:NP6'
p1727
ssbsg26
I00
sg27
I00
sg28
Nsg29
Nsg30
I8
sg31
I2
sg32
Nsg33
Nsg34
S'NN'
p1728
sg36
g1711
sg37
I00
sba(issf_api
Word
p1729
(dp1730
g6
I00
sg7
V\u092e\u0947\u0902
p1731
sg9
(issf_api
FeatureSet
p1732
(dp1733
g12
(dp1734
S'posn'
p1735
S'170'
p1736
sS'name'
p1737
S'\xe0\xa4\xae\xe0\xa5\x87\xe0\xa4\x822'
p1738
sS'drel'
p1739
S'lwg__psp:NP6'
p1740
sS'chunktype'
p1741
S'child:NP6'
p1742
sS'af'
p1743
S'\xe0\xa4\xae\xe0\xa5\x87\xe0\xa4\x82,psp,,,,,,'
p1744
ssbsg26
I00
sg27
I00
sg28
Nsg29
Nsg30
I8
sg31
I2
sg32
Nsg33
Nsg34
S'PSP'
p1745
sg36
g1732
sg37
I00
sba(issf_api
Word
p1746
(dp1747
g6
I00
sg7
V\u0932\u0947\u0915\u0930
p1748
sg9
(issf_api
FeatureSet
p1749
(dp1750
g12
(dp1751
S'posn'
p1752
S'180'
p1753
sS'name'
p1754
S'\xe0\xa4\xb2\xe0\xa5\x87\xe0\xa4\x95\xe0\xa4\xb0'
p1755
sS'af'
p1756
S'\xe0\xa4\xb2\xe0\xa5\x87,v,any,any,any,,\xe0\xa4\x95\xe0\xa4\xb0,kara'
p1757
sS'chunkid'
p1758
S'VGNF'
p1759
sS'drel'
p1760
S'vmod:VGF2'
p1761
sS'chunktype'
p1762
S'head:VGNF'
p1763
ssbsg26
I00
sg27
I00
sg28
Nsg29
Nsg30
I9
sg31
I2
sg32
Nsg33
Nsg34
S'VM'
p1764
sg36
g1749
sg37
I00
sba(issf_api
Word
p1765
(dp1766
g6
I00
sg7
V\u092a\u0942\u091b\u0924\u093e\u091b
p1767
sg9
(issf_api
FeatureSet
p1768
(dp1769
g12
(dp1770
S'posn'
p1771
S'190'
p1772
sS'name'
p1773
S'\xe0\xa4\xaa\xe0\xa5\x82\xe0\xa4\x9b\xe0\xa4\xa4\xe0\xa4\xbe\xe0\xa4\x9b'
p1774
sS'af'
p1775
S'\xe0\xa4\xaa\xe0\xa5\x82\xe0\xa4\x9b\xe0\xa4\xa4\xe0\xa4\xbe\xe0\xa4\x9b,n,f,sg,3,d,0,0'
p1776
sS'chunkid'
p1777
S'NP7'
p1778
sS'drel'
p1779
S'pof:VGNN2'
p1780
sS'chunktype'
p1781
S'head:NP7'
p1782
ssbsg26
I00
sg27
I00
sg28
Nsg29
Nsg30
I10
sg31
I2
sg32
Nsg33
Nsg34
S'NN'
p1783
sg36
g1768
sg37
I00
sba(issf_api
Word
p1784
(dp1785
g6
I00
sg7
V\u0915\u0930\u0928\u093e
p1786
sg9
(issf_api
FeatureSet
p1787
(dp1788
g12
(dp1789
S'posn'
p1790
S'200'
p1791
sS'name'
p1792
S'\xe0\xa4\x95\xe0\xa4\xb0\xe0\xa4\xa8\xe0\xa4\xbe'
p1793
sS'af'
p1794
S'\xe0\xa4\x95\xe0\xa4\xb0,v,any,any,any,d,\xe0\xa4\xa8\xe0\xa4\xbe,nA'
p1795
sS'chunkid'
p1796
S'VGNN2'
p1797
sS'drel'
p1798
S'k1:VGF2'
p1799
sS'chunktype'
p1800
S'head:VGNN2'
p1801
ssbsg26
I00
sg27
I00
sg28
Nsg29
Nsg30
I11
sg31
I2
sg32
Nsg33
Nsg34
S'VM'
p1802
sg36
g1787
sg37
I00
sba(issf_api
Word
p1803
(dp1804
g6
I00
sg7
V\u091c\u0930\u0942\u0930\u0940
p1805
sg9
(issf_api
FeatureSet
p1806
(dp1807
g12
(dp1808
S'posn'
p1809
S'210'
p1810
sS'name'
p1811
S'\xe0\xa4\x9c\xe0\xa4\xb0\xe0\xa5\x82\xe0\xa4\xb0\xe0\xa5\x80'
p1812
sS'af'
p1813
S'\xe0\xa4\x9c\xe0\xa4\xb0\xe0\xa5\x82\xe0\xa4\xb0\xe0\xa5\x80,adj,any,any,,,,'
p1814
sS'chunkid'
p1815
S'JJP'
p1816
sS'drel'
p1817
S'k1s:VGF2'
p1818
sS'chunktype'
p1819
S'head:JJP'
p1820
ssbsg26
I00
sg27
I00
sg28
Nsg29
Nsg30
I12
sg31
I2
sg32
Nsg33
Nsg34
S'JJ'
p1821
sg36
g1806
sg37
I00
sba(issf_api
Word
p1822
(dp1823
g6
I00
sg7
V\u0939\u0948
p1824
sg9
(issf_api
FeatureSet
p1825
(dp1826
g12
(dp1827
S'posn'
p1828
S'220'
p1829
sS'name'
p1830
S'\xe0\xa4\xb9\xe0\xa5\x88'
p1831
sS'af'
p1832
S'\xe0\xa4\xb9\xe0\xa5\x88,v,any,sg,3,,\xe0\xa4\xb9\xe0\xa5\x88,hE'
p1833
sS'chunkid'
p1834
S'VGF2'
p1835
sS'stype'
p1836
S'declarative'
p1837
sS'drel'
p1838
S'ccof:CCP'
p1839
sS'voicetype'
p1840
S'active'
p1841
sS'chunktype'
p1842
S'head:VGF2'
p1843
ssbsg26
I00
sg27
I00
sg28
Nsg29
Nsg30
I13
sg31
I2
sg32
Nsg33
Nsg34
S'VM'
p1844
sg36
g1825
sg37
I00
sba(issf_api
Word
p1845
(dp1846
g6
I00
sg7
V\u0964
p1847
sg9
(issf_api
FeatureSet
p1848
(dp1849
g12
(dp1850
S'posn'
p1851
S'230'
p1852
sS'name'
p1853
S'\xe0\xa5\xa4'
p1854
sS'af'
p1855
S'\xe0\xa5\xa4,punc,,,,,,'
p1856
sS'chunkid'
p1857
S'BLK'
p1858
sS'drel'
p1859
S'rsym:VGF'
p1860
sS'chunktype'
p1861
S'head:BLK'
p1862
ssbsg26
I00
sg27
I00
sg28
Nsg29
Nsg30
I14
sg31
I2
sg32
Nsg33
Nsg34
S'SYM'
p1863
sg36
g1848
sg37
I00
sba(issf_api
Word
p1864
(dp1865
g6
I00
sg7
V\u091c\u092c\u0915\u093f
p1866
sg9
(issf_api
FeatureSet
p1867
(dp1868
g12
(dp1869
S'posn'
p1870
S'10'
p1871
sS'chunkid'
p1872
S'CCP'
p1873
sS'name'
p1874
S'\xe0\xa4\x9c\xe0\xa4\xac\xe0\xa4\x95\xe0\xa4\xbf'
p1875
sS'chunktype'
p1876
S'head:CCP'
p1877
sS'af'
p1878
S'\xe0\xa4\x9c\xe0\xa4\xac\xe0\xa4\x95\xe0\xa4\xbf,avy,,,,,,'
p1879
ssbsg26
I00
sg27
I00
sg28
Nsg29
Nsg30
I0
sg31
I3
sg32
Nsg33
Nsg34
S'CC'
p1880
sg36
g1867
sg37
I00
sba(issf_api
Word
p1881
(dp1882
g6
I00
sg7
V\u0938\u0940\u092c\u0940\u0906\u0908
p1883
sg9
(issf_api
FeatureSet
p1884
(dp1885
g12
(dp1886
S'crefhead'
p1887
S'\xe0\xa4\xb8\xe0\xa5\x80\xe0\xa4\xac\xe0\xa5\x80\xe0\xa4\x86\xe0\xa4\x88:i15'
p1888
sS'posn'
p1889
S'20'
p1890
sS'name'
p1891
S'\xe0\xa4\xb8\xe0\xa5\x80\xe0\xa4\xac\xe0\xa5\x80\xe0\xa4\x86\xe0\xa4\x88'
p1892
sS'af'
p1893
S'\xe0\xa4\xb8\xe0\xa5\x80\xe0\xa4\xac\xe0\xa5\x80\xe0\xa4\x86\xe0\xa4\x88,n,m,sg,3,o,0_\xe0\xa4\x95\xe0\xa4\xbe,0'
p1894
sS'chunkid'
p1895
S'NP'
p1896
sS'chunktype'
p1897
S'head:NP'
p1898
sS'crefchainhead'
p1899
S'i15:t8'
p1900
sS'vpos'
p1901
S'vib_2'
p1902
sS'cref'
p1903
S'i15%1:t8'
p1904
sS'drel'
p1905
S'k1:VGNN'
p1906
ssbsg26
I00
sg27
I00
sg28
Nsg29
Nsg30
I1
sg31
I3
sg32
Nsg33
Nsg34
S'NNP'
p1907
sg36
g1884
sg37
I00
sba(issf_api
Word
p1908
(dp1909
g6
I00
sg7
V\u0915\u093e
p1910
sg9
(issf_api
FeatureSet
p1911
(dp1912
g12
(dp1913
S'posn'
p1914
S'30'
p1915
sS'name'
p1916
S'\xe0\xa4\x95\xe0\xa4\xbe'
p1917
sS'drel'
p1918
S'lwg__psp:NP'
p1919
sS'chunktype'
p1920
S'child:NP'
p1921
sS'af'
p1922
S'\xe0\xa4\x95\xe0\xa4\xbe,psp,m,sg,,d,,'
p1923
ssbsg26
I00
sg27
I00
sg28
Nsg29
Nsg30
I1
sg31
I3
sg32
Nsg33
Nsg34
S'PSP'
p1924
sg36
g1911
sg37
I00
sba(issf_api
Word
p1925
(dp1926
g6
I00
sg7
V\u0915\u0939\u0928\u093e
p1927
sg9
(issf_api
FeatureSet
p1928
(dp1929
g12
(dp1930
S'posn'
p1931
S'40'
p1932
sS'name'
p1933
S'\xe0\xa4\x95\xe0\xa4\xb9\xe0\xa4\xa8\xe0\xa4\xbe'
p1934
sS'af'
p1935
S'\xe0\xa4\x95\xe0\xa4\xb9,v,any,any,any,d,\xe0\xa4\xa8\xe0\xa4\xbe,nA'
p1936
sS'chunkid'
p1937
S'VGNN'
p1938
sS'drel'
p1939
S'k1:VGF'
p1940
sS'chunktype'
p1941
S'head:VGNN'
p1942
ssbsg26
I00
sg27
I00
sg28
Nsg29
Nsg30
I2
sg31
I3
sg32
Nsg33
Nsg34
S'VM'
p1943
sg36
g1928
sg37
I00
sba(issf_api
Word
p1944
(dp1945
g6
I00
sg7
V\u0939\u0948
p1946
sg9
(issf_api
FeatureSet
p1947
(dp1948
g12
(dp1949
S'posn'
p1950
S'50'
p1951
sS'name'
p1952
S'\xe0\xa4\xb9\xe0\xa5\x88'
p1953
sS'af'
p1954
S'\xe0\xa4\xb9\xe0\xa5\x88,v,any,sg,3,,\xe0\xa4\xb9\xe0\xa5\x88,hE'
p1955
sS'chunkid'
p1956
S'VGF'
p1957
sS'stype'
p1958
S'declarative'
p1959
sS'drel'
p1960
S'ccof:CCP'
p1961
sS'voicetype'
p1962
S'active'
p1963
sS'chunktype'
p1964
S'head:VGF'
p1965
ssbsg26
I00
sg27
I00
sg28
Nsg29
Nsg30
I3
sg31
I3
sg32
Nsg33
Nsg34
S'VM'
p1966
sg36
g1947
sg37
I00
sba(issf_api
Word
p1967
(dp1968
g6
I00
sg7
V\u0915\u093f
p1969
sg9
(issf_api
FeatureSet
p1970
(dp1971
g12
(dp1972
S'posn'
p1973
S'60'
p1974
sS'name'
p1975
S'\xe0\xa4\x95\xe0\xa4\xbf'
p1976
sS'af'
p1977
S'\xe0\xa4\x95\xe0\xa4\xbf,avy,,,,,,'
p1978
sS'chunkid'
p1979
S'CCP2'
p1980
sS'drel'
p1981
S'k2:VGNN'
p1982
sS'chunktype'
p1983
S'head:CCP2'
p1984
ssbsg26
I00
sg27
I00
sg28
Nsg29
Nsg30
I4
sg31
I3
sg32
Nsg33
Nsg34
S'CC'
p1985
sg36
g1970
sg37
I00
sba(issf_api
Word
p1986
(dp1987
g6
I00
sg7
V\u092b\u093f\u0932\u0939\u093e\u0932
p1988
sg9
(issf_api
FeatureSet
p1989
(dp1990
g12
(dp1991
S'posn'
p1992
S'70'
p1993
sS'name'
p1994
S'\xe0\xa4\xab\xe0\xa4\xbf\xe0\xa4\xb2\xe0\xa4\xb9\xe0\xa4\xbe\xe0\xa4\xb2'
p1995
sS'af'
p1996
S'\xe0\xa4\xab\xe0\xa4\xbf\xe0\xa4\xb2\xe0\xa4\xb9\xe0\xa4\xbe\xe0\xa4\xb2,adv,,,,,,'
p1997
sS'chunkid'
p1998
S'RBP'
p1999
sS'drel'
p2000
S'adv:VGF2'
p2001
sS'chunktype'
p2002
S'head:RBP'
p2003
ssbsg26
I00
sg27
I00
sg28
Nsg29
Nsg30
I5
sg31
I3
sg32
Nsg33
Nsg34
S'RB'
p2004
sg36
g1989
sg37
I00
sba(issf_api
Word
p2005
(dp2006
g6
I00
sg7
V\u0927\u093e\u0930\u0940\u0935\u093e\u0932
p2007
sg9
(issf_api
FeatureSet
p2008
(dp2009
g12
(dp2010
S'crefhead'
p2011
S'\xe0\xa4\xa7\xe0\xa4\xbe\xe0\xa4\xb0\xe0\xa5\x80\xe0\xa4\xb5\xe0\xa4\xbe\xe0\xa4\xb2:i16'
p2012
sS'posn'
p2013
S'80'
p2014
sS'name'
p2015
S'\xe0\xa4\xa7\xe0\xa4\xbe\xe0\xa4\xb0\xe0\xa5\x80\xe0\xa4\xb5\xe0\xa4\xbe\xe0\xa4\xb2'
p2016
sS'af'
p2017
S'\xe0\xa4\xa7\xe0\xa4\xbe\xe0\xa4\xb0\xe0\xa5\x80\xe0\xa4\xb5\xe0\xa4\xbe\xe0\xa4\xb2,n,m,any,3,o,0_\xe0\xa4\x95\xe0\xa5\x8b,0'
p2018
sS'chunkid'
p2019
S'NP2'
p2020
sS'creftype'
p2021
S'Coreference-Identity:i14'
p2022
sS'chunktype'
p2023
S'head:NP2'
p2024
sS'vpos'
p2025
S'vib_2'
p2026
sS'cref'
p2027
S'i16%1:t1'
p2028
sS'drel'
p2029
S'k2:VGNN2'
p2030
ssbsg26
I00
sg27
I00
sg28
Nsg29
Nsg30
I6
sg31
I3
sg32
Nsg33
Nsg34
S'NNP'
p2031
sg36
g2008
sg37
I00
sba(issf_api
Word
p2032
(dp2033
g6
I00
sg7
V\u0915\u094b
p2034
sg9
(issf_api
FeatureSet
p2035
(dp2036
g12
(dp2037
S'posn'
p2038
S'90'
p2039
sS'name'
p2040
S'\xe0\xa4\x95\xe0\xa5\x8b'
p2041
sS'drel'
p2042
S'lwg__psp:NP2'
p2043
sS'chunktype'
p2044
S'child:NP2'
p2045
sS'af'
p2046
S'\xe0\xa4\x95\xe0\xa5\x8b,psp,,,,,,'
p2047
ssbsg26
I00
sg27
I00
sg28
Nsg29
Nsg30
I6
sg31
I3
sg32
Nsg33
Nsg34
S'PSP'
p2048
sg36
g2035
sg37
I00
sba(issf_api
Word
p2049
(dp2050
g6
I00
sg7
V\u0917\u093f\u0930\u092b\u094d\u0924\u093e\u0930
p2051
sg9
(issf_api
FeatureSet
p2052
(dp2053
g12
(dp2054
S'posn'
p2055
S'100'
p2056
sS'name'
p2057
S'\xe0\xa4\x97\xe0\xa4\xbf\xe0\xa4\xb0\xe0\xa4\xab\xe0\xa5\x8d\xe0\xa4\xa4\xe0\xa4\xbe\xe0\xa4\xb0'
p2058
sS'af'
p2059
S'\xe0\xa4\x97\xe0\xa4\xbf\xe0\xa4\xb0\xe0\xa4\xab\xe0\xa5\x8d\xe0\xa4\xa4\xe0\xa4\xbe\xe0\xa4\xb0,adj,any,any,,,,'
p2060
sS'chunkid'
p2061
S'JJP'
p2062
sS'drel'
p2063
S'pof:VGNN2'
p2064
sS'chunktype'
p2065
S'head:JJP'
p2066
ssbsg26
I00
sg27
I00
sg28
Nsg29
Nsg30
I7
sg31
I3
sg32
Nsg33
Nsg34
S'JJ'
p2067
sg36
g2052
sg37
I00
sba(issf_api
Word
p2068
(dp2069
g6
I00
sg7
V\u0915\u0930\u0928\u0947
p2070
sg9
(issf_api
FeatureSet
p2071
(dp2072
g12
(dp2073
S'posn'
p2074
S'110'
p2075
sS'name'
p2076
S'\xe0\xa4\x95\xe0\xa4\xb0\xe0\xa4\xa8\xe0\xa5\x87'
p2077
sS'af'
p2078
S'\xe0\xa4\x95\xe0\xa4\xb0,v,any,sg,any,o,\xe0\xa4\xa8\xe0\xa4\xbe_\xe0\xa4\x95\xe0\xa4\xbe,nA'
p2079
sS'chunkid'
p2080
S'VGNN2'
p2081
sS'drel'
p2082
S'r6:NP3'
p2083
sS'vpos'
p2084
S'tam_2'
p2085
sS'chunktype'
p2086
S'head:VGNN2'
p2087
ssbsg26
I00
sg27
I00
sg28
Nsg29
Nsg30
I8
sg31
I3
sg32
Nsg33
Nsg34
S'VM'
p2088
sg36
g2071
sg37
I00
sba(issf_api
Word
p2089
(dp2090
g6
I00
sg7
V\u0915\u0940
p2091
sg9
(issf_api
FeatureSet
p2092
(dp2093
g12
(dp2094
S'posn'
p2095
S'120'
p2096
sS'name'
p2097
S'\xe0\xa4\x95\xe0\xa5\x80'
p2098
sS'drel'
p2099
S'lwg__psp:VGNN2'
p2100
sS'chunktype'
p2101
S'child:VGNN2'
p2102
sS'af'
p2103
S'\xe0\xa4\x95\xe0\xa4\xbe,psp,f,sg,,d,,'
p2104
ssbsg26
I00
sg27
I00
sg28
Nsg29
Nsg30
I8
sg31
I3
sg32
Nsg33
Nsg34
S'PSP'
p2105
sg36
g2092
sg37
I00
sba(issf_api
Word
p2106
(dp2107
g6
I00
sg7
V\u0909\u0938\u0915\u0940
p2108
sg9
(issf_api
FeatureSet
p2109
(dp2110
g12
(dp2111
S'crefhead'
p2112
S'\xe0\xa4\x89\xe0\xa4\xb8\xe0\xa4\x95\xe0\xa5\x80:i17'
p2113
sS'posn'
p2114
S'130'
p2115
sS'name'
p2116
S'\xe0\xa4\x89\xe0\xa4\xb8\xe0\xa4\x95\xe0\xa5\x80'
p2117
sS'af'
p2118
S'\xe0\xa4\xb5\xe0\xa4\xb9,pn,f,sg,3,o,\xe0\xa4\x95\xe0\xa4\xbe,kA'
p2119
sS'chunkid'
p2120
S'NP3'
p2121
sS'creftype'
p2122
S'Anaphora-C:i15'
p2123
sS'chunktype'
p2124
S'head:NP3'
p2125
sS'cref'
p2126
S'i17%1:t8'
p2127
sS'drel'
p2128
S'r6:NP4'
p2129
ssbsg26
I00
sg27
I00
sg28
Nsg29
Nsg30
I9
sg31
I3
sg32
Nsg33
Nsg34
S'PRP'
p2130
sg36
g2109
sg37
I00
sba(issf_api
Word
p2131
(dp2132
g6
I00
sg7
V\u0915\u094b\u0908
p2133
sg9
(issf_api
FeatureSet
p2134
(dp2135
g12
(dp2136
S'crefhead'
p2137
S'\xe0\xa4\x95\xe0\xa5\x8b\xe0\xa4\x88:i18'
p2138
sS'posn'
p2139
S'140'
p2140
sS'name'
p2141
S'\xe0\xa4\x95\xe0\xa5\x8b\xe0\xa4\x88'
p2142
sS'af'
p2143
S'\xe0\xa4\x95\xe0\xa5\x8b\xe0\xa4\x88,pn,any,sg,3,d,0,0'
p2144
sS'creftype'
p2145
S'anaphora-?:i18'
p2146
sS'chunktype'
p2147
S'child:NP4'
p2148
sS'crefchainhead'
p2149
S'i18:t9'
p2150
sS'cref'
p2151
S'i18%1:t9'
p2152
sS'drel'
p2153
S'nmod__adj:NP4'
p2154
ssbsg26
I00
sg27
I00
sg28
Nsg29
Nsg30
I10
sg31
I3
sg32
Nsg33
Nsg34
S'PRP'
p2155
sg36
g2134
sg37
I00
sba(issf_api
Word
p2156
(dp2157
g6
I00
sg7
V\u092e\u0902\u0936\u093e
p2158
sg9
(issf_api
FeatureSet
p2159
(dp2160
g12
(dp2161
S'posn'
p2162
S'150'
p2163
sS'name'
p2164
S'\xe0\xa4\xae\xe0\xa4\x82\xe0\xa4\xb6\xe0\xa4\xbe'
p2165
sS'af'
p2166
S'\xe0\xa4\xae\xe0\xa4\x82\xe0\xa4\xb6\xe0\xa4\xbe,n,f,sg,3,d,0,0'
p2167
sS'chunkid'
p2168
S'NP4'
p2169
sS'drel'
p2170
S'k1:VGF2'
p2171
sS'chunktype'
p2172
S'head:NP4'
p2173
ssbsg26
I00
sg27
I00
sg28
Nsg29
Nsg30
I10
sg31
I3
sg32
Nsg33
Nsg34
S'NN'
p2174
sg36
g2159
sg37
I00
sba(issf_api
Word
p2175
(dp2176
g6
I00
sg7
V\u0928\u0939\u0940\u0902
p2177
sg9
(issf_api
FeatureSet
p2178
(dp2179
g12
(dp2180
S'posn'
p2181
S'160'
p2182
sS'name'
p2183
S'\xe0\xa4\xa8\xe0\xa4\xb9\xe0\xa5\x80\xe0\xa4\x82'
p2184
sS'drel'
p2185
S'lwg__neg:VGF2'
p2186
sS'chunktype'
p2187
S'child:VGF2'
p2188
sS'af'
p2189
S'\xe0\xa4\xa8\xe0\xa4\xb9\xe0\xa5\x80\xe0\xa4\x82,avy,,,,,,'
p2190
ssbsg26
I00
sg27
I00
sg28
Nsg29
Nsg30
I11
sg31
I3
sg32
Nsg33
Nsg34
S'NEG'
p2191
sg36
g2178
sg37
I00
sba(issf_api
Word
p2192
(dp2193
g6
I00
sg7
V\u0939\u0948
p2194
sg9
(issf_api
FeatureSet
p2195
(dp2196
g12
(dp2197
S'posn'
p2198
S'170'
p2199
sS'name'
p2200
S'\xe0\xa4\xb9\xe0\xa5\x882'
p2201
sS'af'
p2202
S'\xe0\xa4\xb9\xe0\xa5\x88,v,any,sg,3,,\xe0\xa4\xb9\xe0\xa5\x88,hE'
p2203
sS'chunkid'
p2204
S'VGF2'
p2205
sS'stype'
p2206
S'declarative'
p2207
sS'drel'
p2208
S'ccof:CCP2'
p2209
sS'voicetype'
p2210
S'active'
p2211
sS'chunktype'
p2212
S'head:VGF2'
p2213
ssbsg26
I00
sg27
I00
sg28
Nsg29
Nsg30
I11
sg31
I3
sg32
Nsg33
Nsg34
S'VM'
p2214
sg36
g2195
sg37
I00
sba(issf_api
Word
p2215
(dp2216
g6
I00
sg7
V,
p2217
sg9
(issf_api
FeatureSet
p2218
(dp2219
g12
(dp2220
S'posn'
p2221
S'180'
p2222
sS'name'
p2223
S','
p2224
sS'drel'
p2225
S'rsym:VGF2'
p2226
sS'chunktype'
p2227
S'child:VGF2'
p2228
sS'af'
p2229
S'COMMA,punc,,,,,,'
p2230
ssbsg26
I00
sg27
I00
sg28
Nsg29
Nsg30
I11
sg31
I3
sg32
Nsg33
Nsg34
S'SYM'
p2231
sg36
g2218
sg37
I00
sba(issf_api
Word
p2232
(dp2233
g6
I00
sg7
V\u0932\u0947\u0915\u093f\u0928
p2234
sg9
(issf_api
FeatureSet
p2235
(dp2236
g12
(dp2237
S'posn'
p2238
S'190'
p2239
sS'name'
p2240
S'\xe0\xa4\xb2\xe0\xa5\x87\xe0\xa4\x95\xe0\xa4\xbf\xe0\xa4\xa8'
p2241
sS'af'
p2242
S'\xe0\xa4\xb2\xe0\xa5\x87\xe0\xa4\x95\xe0\xa4\xbf\xe0\xa4\xa8,avy,,,,,,'
p2243
sS'chunkid'
p2244
S'CCP3'
p2245
sS'drel'
p2246
S'vmod:VGF2'
p2247
sS'chunktype'
p2248
S'head:CCP3'
p2249
ssbsg26
I00
sg27
I00
sg28
Nsg29
Nsg30
I12
sg31
I3
sg32
Nsg33
Nsg34
S'CC'
p2250
sg36
g2235
sg37
I00
sba(issf_api
Word
p2251
(dp2252
g6
I00
sg7
V\u092a\u0942\u091b\u0924\u093e\u091b
p2253
sg9
(issf_api
FeatureSet
p2254
(dp2255
g12
(dp2256
S'posn'
p2257
S'200'
p2258
sS'name'
p2259
S'\xe0\xa4\xaa\xe0\xa5\x82\xe0\xa4\x9b\xe0\xa4\xa4\xe0\xa4\xbe\xe0\xa4\x9b'
p2260
sS'af'
p2261
S'\xe0\xa4\xaa\xe0\xa5\x82\xe0\xa4\x9b\xe0\xa4\xa4\xe0\xa4\xbe\xe0\xa4\x9b,n,f,sg,3,o,0_\xe0\xa4\x95\xe0\xa5\x87_\xe0\xa4\xac\xe0\xa4\xbe\xe0\xa4\xa6,0'
p2262
sS'chunkid'
p2263
S'NP5'
p2264
sS'drel'
p2265
S'k7t:VGNN3'
p2266
sS'vpos'
p2267
S'vib_2_3'
p2268
sS'chunktype'
p2269
S'head:NP5'
p2270
ssbsg26
I00
sg27
I00
sg28
Nsg29
Nsg30
I13
sg31
I3
sg32
Nsg33
Nsg34
S'NN'
p2271
sg36
g2254
sg37
I00
sba(issf_api
Word
p2272
(dp2273
g6
I00
sg7
V\u0915\u0947
p2274
sg9
(issf_api
FeatureSet
p2275
(dp2276
g12
(dp2277
S'posn'
p2278
S'210'
p2279
sS'name'
p2280
S'\xe0\xa4\x95\xe0\xa5\x87'
p2281
sS'drel'
p2282
S'lwg__psp:NP5'
p2283
sS'chunktype'
p2284
S'child:NP5'
p2285
sS'af'
p2286
S'\xe0\xa4\x95\xe0\xa5\x87,psp,,,,,,'
p2287
ssbsg26
I00
sg27
I00
sg28
Nsg29
Nsg30
I13
sg31
I3
sg32
Nsg33
Nsg34
S'PSP'
p2288
sg36
g2275
sg37
I00
sba(issf_api
Word
p2289
(dp2290
g6
I00
sg7
V\u092c\u093e\u0926
p2291
sg9
(issf_api
FeatureSet
p2292
(dp2293
g12
(dp2294
S'posn'
p2295
S'220'
p2296
sS'name'
p2297
S'\xe0\xa4\xac\xe0\xa4\xbe\xe0\xa4\xa6'
p2298
sS'drel'
p2299
S'lwg__psp:NP5'
p2300
sS'chunktype'
p2301
S'child:NP5'
p2302
sS'af'
p2303
S'\xe0\xa4\xac\xe0\xa4\xbe\xe0\xa4\xa6,nst,m,sg,3,d,,'
p2304
ssbsg26
I00
sg27
I00
sg28
Nsg29
Nsg30
I13
sg31
I3
sg32
Nsg33
Nsg34
S'NST'
p2305
sg36
g2292
sg37
I00
sba(issf_api
Word
p2306
(dp2307
g6
I00
sg7
V\u091c\u0930\u0942\u0930\u0940
p2308
sg9
(issf_api
FeatureSet
p2309
(dp2310
g12
(dp2311
S'posn'
p2312
S'230'
p2313
sS'name'
p2314
S'\xe0\xa4\x9c\xe0\xa4\xb0\xe0\xa5\x82\xe0\xa4\xb0\xe0\xa5\x80'
p2315
sS'af'
p2316
S'\xe0\xa4\x9c\xe0\xa4\xb0\xe0\xa5\x82\xe0\xa4\xb0\xe0\xa5\x80,adj,any,any,,,,'
p2317
sS'chunkid'
p2318
S'JJP2'
p2319
sS'drel'
p2320
S'pof:VGNN3'
p2321
sS'chunktype'
p2322
S'head:JJP2'
p2323
ssbsg26
I00
sg27
I00
sg28
Nsg29
Nsg30
I14
sg31
I3
sg32
Nsg33
Nsg34
S'JJ'
p2324
sg36
g2309
sg37
I00
sba(issf_api
Word
p2325
(dp2326
g6
I00
sg7
V\u0939\u094b\u0928\u0947
p2327
sg9
(issf_api
FeatureSet
p2328
(dp2329
g12
(dp2330
S'posn'
p2331
S'240'
p2332
sS'name'
p2333
S'\xe0\xa4\xb9\xe0\xa5\x8b\xe0\xa4\xa8\xe0\xa5\x87'
p2334
sS'af'
p2335
S'\xe0\xa4\xb9\xe0\xa5\x8b,v,any,any,any,o,\xe0\xa4\xa8\xe0\xa4\xbe_\xe0\xa4\xaa\xe0\xa4\xb0,nA'
p2336
sS'chunkid'
p2337
S'VGNN3'
p2338
sS'drel'
p2339
S'k7:VGF3'
p2340
sS'vpos'
p2341
S'tam_2'
p2342
sS'chunktype'
p2343
S'head:VGNN3'
p2344
ssbsg26
I00
sg27
I00
sg28
Nsg29
Nsg30
I15
sg31
I3
sg32
Nsg33
Nsg34
S'VM'
p2345
sg36
g2328
sg37
I00
sba(issf_api
Word
p2346
(dp2347
g6
I00
sg7
V\u092a\u0930
p2348
sg9
(issf_api
FeatureSet
p2349
(dp2350
g12
(dp2351
S'posn'
p2352
S'250'
p2353
sS'name'
p2354
S'\xe0\xa4\xaa\xe0\xa4\xb0'
p2355
sS'drel'
p2356
S'lwg__psp:VGNN3'
p2357
sS'chunktype'
p2358
S'child:VGNN3'
p2359
sS'af'
p2360
S'\xe0\xa4\xaa\xe0\xa4\xb0,psp,,,,,,'
p2361
ssbsg26
I00
sg27
I00
sg28
Nsg29
Nsg30
I15
sg31
I3
sg32
Nsg33
Nsg34
S'PSP'
p2362
sg36
g2349
sg37
I00
sba(issf_api
Word
p2363
(dp2364
g6
I00
sg7
V\u0928\u092f\u093e
p2365
sg9
(issf_api
FeatureSet
p2366
(dp2367
g12
(dp2368
S'posn'
p2369
S'260'
p2370
sS'name'
p2371
S'\xe0\xa4\xa8\xe0\xa4\xaf\xe0\xa4\xbe'
p2372
sS'drel'
p2373
S'nmod__adj:NP6'
p2374
sS'chunktype'
p2375
S'child:NP6'
p2376
sS'af'
p2377
S'\xe0\xa4\xa8\xe0\xa4\xaf\xe0\xa4\xbe,adj,m,sg,,d,,'
p2378
ssbsg26
I00
sg27
I00
sg28
Nsg29
Nsg30
I16
sg31
I3
sg32
Nsg33
Nsg34
S'JJ'
p2379
sg36
g2366
sg37
I00
sba(issf_api
Word
p2380
(dp2381
g6
I00
sg7
V\u092e\u093e\u092e\u0932\u093e
p2382
sg9
(issf_api
FeatureSet
p2383
(dp2384
g12
(dp2385
S'posn'
p2386
S'270'
p2387
sS'name'
p2388
S'\xe0\xa4\xae\xe0\xa4\xbe\xe0\xa4\xae\xe0\xa4\xb2\xe0\xa4\xbe'
p2389
sS'af'
p2390
S'\xe0\xa4\xae\xe0\xa4\xbe\xe0\xa4\xae\xe0\xa4\xb2\xe0\xa4\xbe,n,m,sg,3,d,0,0'
p2391
sS'chunkid'
p2392
S'NP6'
p2393
sS'drel'
p2394
S'k2:VGF3'
p2395
sS'chunktype'
p2396
S'head:NP6'
p2397
ssbsg26
I00
sg27
I00
sg28
Nsg29
Nsg30
I16
sg31
I3
sg32
Nsg33
Nsg34
S'NN'
p2398
sg36
g2383
sg37
I00
sba(issf_api
Word
p2399
(dp2400
g6
I00
sg7
V\u0926\u0930\u094d\u091c
p2401
sg9
(issf_api
FeatureSet
p2402
(dp2403
g12
(dp2404
S'posn'
p2405
S'280'
p2406
sS'name'
p2407
S'\xe0\xa4\xa6\xe0\xa4\xb0\xe0\xa5\x8d\xe0\xa4\x9c'
p2408
sS'af'
p2409
S'\xe0\xa4\xa6\xe0\xa4\xb0\xe0\xa5\x8d\xe0\xa4\x9c,adj,any,any,,,,'
p2410
sS'chunkid'
p2411
S'JJP3'
p2412
sS'drel'
p2413
S'pof:VGF3'
p2414
sS'chunktype'
p2415
S'head:JJP3'
p2416
ssbsg26
I00
sg27
I00
sg28
Nsg29
Nsg30
I17
sg31
I3
sg32
Nsg33
Nsg34
S'JJ'
p2417
sg36
g2402
sg37
I00
sba(issf_api
Word
p2418
(dp2419
g6
I00
sg7
V\u0915\u0930\u093e\u092f\u093e
p2420
sg9
(issf_api
FeatureSet
p2421
(dp2422
g12
(dp2423
S'posn'
p2424
S'290'
p2425
sS'name'
p2426
S'\xe0\xa4\x95\xe0\xa4\xb0\xe0\xa4\xbe\xe0\xa4\xaf\xe0\xa4\xbe'
p2427
sS'af'
p2428
S'\xe0\xa4\x95\xe0\xa4\xb0\xe0\xa4\xbe,v,m,sg,3,,\xe0\xa4\xaf\xe0\xa4\xbe_\xe0\xa4\x9c\xe0\xa4\xbe_\xe0\xa4\xb8\xe0\xa4\x95+\xe0\xa4\xa4\xe0\xa4\xbe_\xe0\xa4\xb9\xe0\xa5\x88,yA'
p2429
sS'chunkid'
p2430
S'VGF3'
p2431
sS'stype'
p2432
S'declarative'
p2433
sS'drel'
p2434
S'ccof:CCP3'
p2435
sS'voicetype'
p2436
S'passive'
p2437
sS'vpos'
p2438
S'tam_2_3_4'
p2439
sS'chunktype'
p2440
S'head:VGF3'
p2441
ssbsg26
I00
sg27
I00
sg28
Nsg29
Nsg30
I18
sg31
I3
sg32
Nsg33
Nsg34
S'VM'
p2442
sg36
g2421
sg37
I00
sba(issf_api
Word
p2443
(dp2444
g6
I00
sg7
V\u091c\u093e
p2445
sg9
(issf_api
FeatureSet
p2446
(dp2447
g12
(dp2448
S'posn'
p2449
S'300'
p2450
sS'name'
p2451
S'\xe0\xa4\x9c\xe0\xa4\xbe'
p2452
sS'drel'
p2453
S'lwg__vaux:VGF3'
p2454
sS'chunktype'
p2455
S'child:VGF3'
p2456
sS'af'
p2457
S'\xe0\xa4\x9c\xe0\xa4\xbe,v,any,any,any,,0,0'
p2458
ssbsg26
I00
sg27
I00
sg28
Nsg29
Nsg30
I18
sg31
I3
sg32
Nsg33
Nsg34
S'VAUX'
p2459
sg36
g2446
sg37
I00
sba(issf_api
Word
p2460
(dp2461
g6
I00
sg7
V\u0938\u0915\u0924\u093e
p2462
sg9
(issf_api
FeatureSet
p2463
(dp2464
g12
(dp2465
S'posn'
p2466
S'310'
p2467
sS'name'
p2468
S'\xe0\xa4\xb8\xe0\xa4\x95\xe0\xa4\xa4\xe0\xa4\xbe'
p2469
sS'drel'
p2470
S'lwg__vaux:VGF3'
p2471
sS'chunktype'
p2472
S'child:VGF3'
p2473
sS'af'
p2474
S'\xe0\xa4\xb8\xe0\xa4\x95,v,m,sg,any,,\xe0\xa4\xa4\xe0\xa4\xbe,wA'
p2475
ssbsg26
I00
sg27
I00
sg28
Nsg29
Nsg30
I18
sg31
I3
sg32
Nsg33
Nsg34
S'VAUX'
p2476
sg36
g2463
sg37
I00
sba(issf_api
Word
p2477
(dp2478
g6
I00
sg7
V\u0939\u0948
p2479
sg9
(issf_api
FeatureSet
p2480
(dp2481
g12
(dp2482
S'posn'
p2483
S'320'
p2484
sS'name'
p2485
S'\xe0\xa4\xb9\xe0\xa5\x883'
p2486
sS'drel'
p2487
S'lwg__vaux:VGF3'
p2488
sS'chunktype'
p2489
S'child:VGF3'
p2490
sS'af'
p2491
S'\xe0\xa4\xb9\xe0\xa5\x88,v,any,sg,3,,\xe0\xa4\xb9\xe0\xa5\x88,hE'
p2492
ssbsg26
I00
sg27
I00
sg28
Nsg29
Nsg30
I18
sg31
I3
sg32
Nsg33
Nsg34
S'VAUX'
p2493
sg36
g2480
sg37
I00
sba(issf_api
Word
p2494
(dp2495
g6
I00
sg7
V\u0964
p2496
sg9
(issf_api
FeatureSet
p2497
(dp2498
g12
(dp2499
S'posn'
p2500
S'330'
p2501
sS'name'
p2502
S'\xe0\xa5\xa4'
p2503
sS'af'
p2504
S'\xe0\xa5\xa4,punc,,,,,,'
p2505
sS'chunkid'
p2506
S'BLK'
p2507
sS'drel'
p2508
S'rsym:CCP'
p2509
sS'chunktype'
p2510
S'head:BLK'
p2511
ssbsg26
I00
sg27
I00
sg28
Nsg29
Nsg30
I19
sg31
I3
sg32
Nsg33
Nsg34
S'SYM'
p2512
sg36
g2497
sg37
I00
sba(issf_api
Word
p2513
(dp2514
g6
I00
sg7
V\u0905\u0902\u0921\u0930\u0935\u0930\u094d\u0932\u094d\u0921
p2515
sg9
(issf_api
FeatureSet
p2516
(dp2517
g12
(dp2518
S'crefhead'
p2519
S'\xe0\xa4\x85\xe0\xa4\x82\xe0\xa4\xa1\xe0\xa4\xb0\xe0\xa4\xb5\xe0\xa4\xb0\xe0\xa5\x8d\xe0\xa4\xb2\xe0\xa5\x8d\xe0\xa4\xa1:i19'
p2520
sS'posn'
p2521
S'10'
p2522
sS'name'
p2523
S'\xe0\xa4\x85\xe0\xa4\x82\xe0\xa4\xa1\xe0\xa4\xb0\xe0\xa4\xb5\xe0\xa4\xb0\xe0\xa5\x8d\xe0\xa4\xb2\xe0\xa5\x8d\xe0\xa4\xa1'
p2524
sS'af'
p2525
S'\xe0\xa4\x85\xe0\xa4\x82\xe0\xa4\xa1\xe0\xa4\xb0\xe0\xa4\xb5\xe0\xa4\xb0\xe0\xa5\x8d\xe0\xa4\xb2\xe0\xa5\x8d\xe0\xa4\xa1,n,m,sg,3,o,0_\xe0\xa4\xb8\xe0\xa5\x87,0'
p2526
sS'chunkid'
p2527
S'NP'
p2528
sS'acrefmod'
p2529
S'm2%0:i20'
p2530
sS'creftype'
p2531
S'Coreference-Identity:i3'
p2532
sS'chunktype'
p2533
S'head:NP'
p2534
sS'vpos'
p2535
S'vib_2'
p2536
sS'cref'
p2537
S'i19%1:t2'
p2538
sS'drel'
p2539
S'ras-k2:NP2'
p2540
ssbsg26
I00
sg27
I00
sg28
Nsg29
Nsg30
I0
sg31
I4
sg32
Nsg33
Nsg34
S'NN'
p2541
sg36
g2516
sg37
I00
sba(issf_api
Word
p2542
(dp2543
g6
I00
sg7
V\u0938\u0947
p2544
sg9
(issf_api
FeatureSet
p2545
(dp2546
g12
(dp2547
S'posn'
p2548
S'20'
p2549
sS'name'
p2550
S'\xe0\xa4\xb8\xe0\xa5\x87'
p2551
sS'af'
p2552
S'\xe0\xa4\xb8\xe0\xa5\x87,psp,,,,,,'
p2553
sS'acrefmod'
p2554
S'm2%0:i20'
p2555
sS'drel'
p2556
S'lwg__psp:NP'
p2557
sS'chunktype'
p2558
S'child:NP'
p2559
ssbsg26
I00
sg27
I00
sg28
Nsg29
Nsg30
I0
sg31
I4
sg32
Nsg33
Nsg34
S'PSP'
p2560
sg36
g2545
sg37
I00
sba(issf_api
Word
p2561
(dp2562
g6
I00
sg7
V\u0930\u093f\u0936\u094d\u0924\u0947
p2563
sg9
(issf_api
FeatureSet
p2564
(dp2565
g12
(dp2566
S'posn'
p2567
S'30'
p2568
sS'name'
p2569
S'\xe0\xa4\xb0\xe0\xa4\xbf\xe0\xa4\xb6\xe0\xa5\x8d\xe0\xa4\xa4\xe0\xa5\x87'
p2570
sS'af'
p2571
S'\xe0\xa4\xb0\xe0\xa4\xbf\xe0\xa4\xb6\xe0\xa5\x8d\xe0\xa4\xa4\xe0\xa4\xbe,n,m,sg,3,o,0_\xe0\xa4\x95\xe0\xa4\xbe,0'
p2572
sS'acrefmodhead'
p2573
S'\xe0\xa4\xb0\xe0\xa4\xbf\xe0\xa4\xb6\xe0\xa5\x8d\xe0\xa4\xa4\xe0\xa5\x87:m2'
p2574
sS'chunkid'
p2575
S'NP2'
p2576
sS'acrefmod'
p2577
S'm2%1:i20'
p2578
sS'drel'
p2579
S'r6:NP3'
p2580
sS'vpos'
p2581
S'vib_2'
p2582
sS'chunktype'
p2583
S'head:NP2'
p2584
ssbsg26
I00
sg27
I00
sg28
Nsg29
Nsg30
I1
sg31
I4
sg32
Nsg33
Nsg34
S'NN'
p2585
sg36
g2564
sg37
I00
sba(issf_api
Word
p2586
(dp2587
g6
I00
sg7
V\u0915\u0947
p2588
sg9
(issf_api
FeatureSet
p2589
(dp2590
g12
(dp2591
S'posn'
p2592
S'40'
p2593
sS'name'
p2594
S'\xe0\xa4\x95\xe0\xa5\x87'
p2595
sS'drel'
p2596
S'lwg__psp:NP2'
p2597
sS'chunktype'
p2598
S'child:NP2'
p2599
sS'af'
p2600
S'\xe0\xa4\x95\xe0\xa4\xbe,psp,m,sg,,o,,'
p2601
ssbsg26
I00
sg27
I00
sg28
Nsg29
Nsg30
I1
sg31
I4
sg32
Nsg33
Nsg34
S'PSP'
p2602
sg36
g2589
sg37
I00
sba(issf_api
Word
p2603
(dp2604
g6
I00
sg7
V\u092e\u093e\u092e\u0932\u0947
p2605
sg9
(issf_api
FeatureSet
p2606
(dp2607
g12
(dp2608
S'crefhead'
p2609
S'\xe0\xa4\xae\xe0\xa4\xbe\xe0\xa4\xae\xe0\xa4\xb2\xe0\xa5\x87:i20'
p2610
sS'posn'
p2611
S'50'
p2612
sS'name'
p2613
S'\xe0\xa4\xae\xe0\xa4\xbe\xe0\xa4\xae\xe0\xa4\xb2\xe0\xa5\x87'
p2614
sS'af'
p2615
S'\xe0\xa4\xae\xe0\xa4\xbe\xe0\xa4\xae\xe0\xa4\xb2\xe0\xa4\xbe,n,m,sg,3,o,0_\xe0\xa4\x95\xe0\xa4\xbe,0'
p2616
sS'acrefmodhead'
p2617
S'\xe0\xa4\xae\xe0\xa4\xbe\xe0\xa4\xae\xe0\xa4\xb2\xe0\xa5\x87:m3'
p2618
sS'chunkid'
p2619
S'NP3'
p2620
sS'acrefmod'
p2621
S'm3%1:i21'
p2622
sS'creftype'
p2623
S'Coreference-Identity:i4'
p2624
sS'chunktype'
p2625
S'head:NP3'
p2626
sS'crefmod'
p2627
S'm2:i20'
p2628
sS'vpos'
p2629
S'vib_2'
p2630
sS'cref'
p2631
S'i20%1:t3'
p2632
sS'drel'
p2633
S'r6-k2:NP4'
p2634
ssbsg26
I00
sg27
I00
sg28
Nsg29
Nsg30
I2
sg31
I4
sg32
Nsg33
Nsg34
S'NN'
p2635
sg36
g2606
sg37
I00
sba(issf_api
Word
p2636
(dp2637
g6
I00
sg7
V\u0915\u0940
p2638
sg9
(issf_api
FeatureSet
p2639
(dp2640
g12
(dp2641
S'posn'
p2642
S'60'
p2643
sS'name'
p2644
S'\xe0\xa4\x95\xe0\xa5\x80'
p2645
sS'drel'
p2646
S'lwg__psp:NP3'
p2647
sS'chunktype'
p2648
S'child:NP3'
p2649
sS'af'
p2650
S'\xe0\xa4\x95\xe0\xa4\xbe,psp,f,sg,,d,,'
p2651
ssbsg26
I00
sg27
I00
sg28
Nsg29
Nsg30
I2
sg31
I4
sg32
Nsg33
Nsg34
S'PSP'
p2652
sg36
g2639
sg37
I00
sba(issf_api
Word
p2653
(dp2654
g6
I00
sg7
V\u091c\u093e\u0902\u091a
p2655
sg9
(issf_api
FeatureSet
p2656
(dp2657
g12
(dp2658
S'crefhead'
p2659
S'\xe0\xa4\x9c\xe0\xa4\xbe\xe0\xa4\x82\xe0\xa4\x9a:i21'
p2660
sS'posn'
p2661
S'70'
p2662
sS'name'
p2663
S'\xe0\xa4\x9c\xe0\xa4\xbe\xe0\xa4\x82\xe0\xa4\x9a'
p2664
sS'af'
p2665
S'\xe0\xa4\x9c\xe0\xa4\xbe\xe0\xa4\x82\xe0\xa4\x9a,n,f,sg,3,d,0,0'
p2666
sS'chunkid'
p2667
S'NP4'
p2668
sS'crefmod'
p2669
S'm3:i21'
p2670
sS'chunktype'
p2671
S'head:NP4'
p2672
sS'crefchainhead'
p2673
S'i21:t10'
p2674
sS'cref'
p2675
S'i21%1:t10'
p2676
sS'drel'
p2677
S'pof:VGF'
p2678
ssbsg26
I00
sg27
I00
sg28
Nsg29
Nsg30
I3
sg31
I4
sg32
Nsg33
Nsg34
S'NN'
p2679
sg36
g2656
sg37
I00
sba(issf_api
Word
p2680
(dp2681
g6
I00
sg7
V\u092a\u0939\u0932\u0947
p2682
sg9
(issf_api
FeatureSet
p2683
(dp2684
g12
(dp2685
S'posn'
p2686
S'80'
p2687
sS'name'
p2688
S'\xe0\xa4\xaa\xe0\xa4\xb9\xe0\xa4\xb2\xe0\xa5\x87'
p2689
sS'af'
p2690
S'\xe0\xa4\xaa\xe0\xa4\xb9\xe0\xa4\xb2\xe0\xa5\x87,nst,m,sg,3,d,,'
p2691
sS'chunkid'
p2692
S'NP5'
p2693
sS'drel'
p2694
S'k7t:VGF'
p2695
sS'chunktype'
p2696
S'head:NP5'
p2697
ssbsg26
I00
sg27
I00
sg28
Nsg29
Nsg30
I4
sg31
I4
sg32
Nsg33
Nsg34
S'NST'
p2698
sg36
g2683
sg37
I00
sba(issf_api
Word
p2699
(dp2700
g6
I00
sg7
V\u092e\u0941\u0902\u092c\u0908
p2701
sg9
(issf_api
FeatureSet
p2702
(dp2703
g12
(dp2704
S'posn'
p2705
S'90'
p2706
sS'name'
p2707
S'\xe0\xa4\xae\xe0\xa5\x81\xe0\xa4\x82\xe0\xa4\xac\xe0\xa4\x88'
p2708
sS'af'
p2709
S'\xe0\xa4\xae\xe0\xa5\x81\xe0\xa4\x82\xe0\xa4\xac\xe0\xa4\x88,n,f,sg,3,d,0,0'
p2710
sS'drel'
p2711
S'nmod__adj:NP6'
p2712
sS'chunktype'
p2713
S'child:NP6'
p2714
sS'cref'
p2715
S'i22%0:t7'
p2716
ssbsg26
I00
sg27
I00
sg28
Nsg29
Nsg30
I5
sg31
I4
sg32
Nsg33
Nsg34
S'NNP'
p2717
sg36
g2702
sg37
I00
sba(issf_api
Word
p2718
(dp2719
g6
I00
sg7
V\u092a\u0941\u0932\u093f\u0938
p2720
sg9
(issf_api
FeatureSet
p2721
(dp2722
g12
(dp2723
S'crefhead'
p2724
S'\xe0\xa4\xaa\xe0\xa5\x81\xe0\xa4\xb2\xe0\xa4\xbf\xe0\xa4\xb8:i22'
p2725
sS'posn'
p2726
S'100'
p2727
sS'name'
p2728
S'\xe0\xa4\xaa\xe0\xa5\x81\xe0\xa4\xb2\xe0\xa4\xbf\xe0\xa4\xb8'
p2729
sS'af'
p2730
S'\xe0\xa4\xaa\xe0\xa5\x81\xe0\xa4\xb2\xe0\xa4\xbf\xe0\xa4\xb8,n,f,sg,3,d,0,0'
p2731
sS'chunkid'
p2732
S'NP6'
p2733
sS'creftype'
p2734
S'Coreference-Identity:i13'
p2735
sS'chunktype'
p2736
S'head:NP6'
p2737
sS'cref'
p2738
S'i22%1:t7'
p2739
sS'drel'
p2740
S'k1:VGF'
p2741
ssbsg26
I00
sg27
I00
sg28
Nsg29
Nsg30
I5
sg31
I4
sg32
Nsg33
Nsg34
S'NN'
p2742
sg36
g2721
sg37
I00
sba(issf_api
Word
p2743
(dp2744
g6
I00
sg7
V\u0915\u0930
p2745
sg9
(issf_api
FeatureSet
p2746
(dp2747
g12
(dp2748
S'posn'
p2749
S'110'
p2750
sS'name'
p2751
S'\xe0\xa4\x95\xe0\xa4\xb0'
p2752
sS'af'
p2753
S'\xe0\xa4\x95\xe0\xa4\xb0,v,f,sg,any,,0_\xe0\xa4\xb0\xe0\xa4\xb9+\xe0\xa4\xaf\xe0\xa4\xbe_\xe0\xa4\xa5\xe0\xa4\xbe,0'
p2754
sS'chunkid'
p2755
S'VGF'
p2756
sS'stype'
p2757
S'declarative'
p2758
sS'drel'
p2759
S'ccof:CCP'
p2760
sS'voicetype'
p2761
S'active'
p2762
sS'vpos'
p2763
S'tam_2_3'
p2764
sS'chunktype'
p2765
S'head:VGF'
p2766
ssbsg26
I00
sg27
I00
sg28
Nsg29
Nsg30
I6
sg31
I4
sg32
Nsg33
Nsg34
S'VM'
p2767
sg36
g2746
sg37
I00
sba(issf_api
Word
p2768
(dp2769
g6
I00
sg7
V\u0930\u0939\u0940
p2770
sg9
(issf_api
FeatureSet
p2771
(dp2772
g12
(dp2773
S'posn'
p2774
S'120'
p2775
sS'name'
p2776
S'\xe0\xa4\xb0\xe0\xa4\xb9\xe0\xa5\x80'
p2777
sS'drel'
p2778
S'lwg__vaux:VGF'
p2779
sS'chunktype'
p2780
S'child:VGF'
p2781
sS'af'
p2782
S'\xe0\xa4\xb0\xe0\xa4\xb9,v,f,sg,any,,\xe0\xa4\xaf\xe0\xa4\xbe,yA'
p2783
ssbsg26
I00
sg27
I00
sg28
Nsg29
Nsg30
I6
sg31
I4
sg32
Nsg33
Nsg34
S'VAUX'
p2784
sg36
g2771
sg37
I00
sba(issf_api
Word
p2785
(dp2786
g6
I00
sg7
V\u0925\u0940
p2787
sg9
(issf_api
FeatureSet
p2788
(dp2789
g12
(dp2790
S'posn'
p2791
S'130'
p2792
sS'name'
p2793
S'\xe0\xa4\xa5\xe0\xa5\x80'
p2794
sS'drel'
p2795
S'lwg__vaux:VGF'
p2796
sS'chunktype'
p2797
S'child:VGF'
p2798
sS'af'
p2799
S'\xe0\xa4\xa5\xe0\xa4\xbe,v,f,sg,any,,\xe0\xa4\xa5\xe0\xa4\xbe,WA'
p2800
ssbsg26
I00
sg27
I00
sg28
Nsg29
Nsg30
I6
sg31
I4
sg32
Nsg33
Nsg34
S'VAUX'
p2801
sg36
g2788
sg37
I00
sba(issf_api
Word
p2802
(dp2803
g6
I00
sg7
V\u0914\u0930
p2804
sg9
(issf_api
FeatureSet
p2805
(dp2806
g12
(dp2807
S'posn'
p2808
S'140'
p2809
sS'chunkid'
p2810
S'CCP'
p2811
sS'name'
p2812
S'\xe0\xa4\x94\xe0\xa4\xb0'
p2813
sS'chunktype'
p2814
S'head:CCP'
p2815
sS'af'
p2816
S'\xe0\xa4\x94\xe0\xa4\xb0,avy,,,,,,'
p2817
ssbsg26
I00
sg27
I00
sg28
Nsg29
Nsg30
I7
sg31
I4
sg32
Nsg33
Nsg34
S'CC'
p2818
sg36
g2805
sg37
I00
sba(issf_api
Word
p2819
(dp2820
g6
I00
sg7
V\u0909\u0938\u0915\u0947
p2821
sg9
(issf_api
FeatureSet
p2822
(dp2823
g12
(dp2824
S'crefhead'
p2825
S'\xe0\xa4\x89\xe0\xa4\xb8\xe0\xa4\x95\xe0\xa5\x87:i23'
p2826
sS'posn'
p2827
S'150'
p2828
sS'name'
p2829
S'\xe0\xa4\x89\xe0\xa4\xb8\xe0\xa4\x95\xe0\xa5\x87'
p2830
sS'af'
p2831
S'\xe0\xa4\xb5\xe0\xa4\xb9,pn,m,sg,3,o,\xe0\xa4\x95\xe0\xa4\xbe,kA'
p2832
sS'chunkid'
p2833
S'NP7'
p2834
sS'creftype'
p2835
S'Anaphora-C:i22'
p2836
sS'chunktype'
p2837
S'head:NP7'
p2838
sS'cref'
p2839
S'i23%1:t7'
p2840
sS'drel'
p2841
S'r6:NP8'
p2842
ssbsg26
I00
sg27
I00
sg28
Nsg29
Nsg30
I8
sg31
I4
sg32
Nsg33
Nsg34
S'PRP'
p2843
sg36
g2822
sg37
I00
sba(issf_api
Word
p2844
(dp2845
g6
I00
sg7
V\u0905\u0928\u0941\u0930\u094b\u0927
p2846
sg9
(issf_api
FeatureSet
p2847
(dp2848
g12
(dp2849
S'posn'
p2850
S'160'
p2851
sS'name'
p2852
S'\xe0\xa4\x85\xe0\xa4\xa8\xe0\xa5\x81\xe0\xa4\xb0\xe0\xa5\x8b\xe0\xa4\xa7'
p2853
sS'af'
p2854
S'\xe0\xa4\x85\xe0\xa4\xa8\xe0\xa5\x81\xe0\xa4\xb0\xe0\xa5\x8b\xe0\xa4\xa7,n,m,sg,3,o,0_\xe0\xa4\xaa\xe0\xa4\xb0,0'
p2855
sS'chunkid'
p2856
S'NP8'
p2857
sS'drel'
p2858
S'k7:VGF2'
p2859
sS'vpos'
p2860
S'vib_2'
p2861
sS'chunktype'
p2862
S'head:NP8'
p2863
ssbsg26
I00
sg27
I00
sg28
Nsg29
Nsg30
I9
sg31
I4
sg32
Nsg33
Nsg34
S'NN'
p2864
sg36
g2847
sg37
I00
sba(issf_api
Word
p2865
(dp2866
g6
I00
sg7
V\u092a\u0930
p2867
sg9
(issf_api
FeatureSet
p2868
(dp2869
g12
(dp2870
S'posn'
p2871
S'170'
p2872
sS'name'
p2873
S'\xe0\xa4\xaa\xe0\xa4\xb0'
p2874
sS'drel'
p2875
S'lwg__psp:NP8'
p2876
sS'chunktype'
p2877
S'child:NP8'
p2878
sS'af'
p2879
S'\xe0\xa4\xaa\xe0\xa4\xb0,psp,,,,,,'
p2880
ssbsg26
I00
sg27
I00
sg28
Nsg29
Nsg30
I9
sg31
I4
sg32
Nsg33
Nsg34
S'PSP'
p2881
sg36
g2868
sg37
I00
sba(issf_api
Word
p2882
(dp2883
g6
I00
sg7
V\u0927\u093e\u0930\u0940\u0935\u093e\u0932
p2884
sg9
(issf_api
FeatureSet
p2885
(dp2886
g12
(dp2887
S'crefhead'
p2888
S'\xe0\xa4\xa7\xe0\xa4\xbe\xe0\xa4\xb0\xe0\xa5\x80\xe0\xa4\xb5\xe0\xa4\xbe\xe0\xa4\xb2:i24'
p2889
sS'posn'
p2890
S'180'
p2891
sS'name'
p2892
S'\xe0\xa4\xa7\xe0\xa4\xbe\xe0\xa4\xb0\xe0\xa5\x80\xe0\xa4\xb5\xe0\xa4\xbe\xe0\xa4\xb2'
p2893
sS'af'
p2894
S'\xe0\xa4\xa7\xe0\xa4\xbe\xe0\xa4\xb0\xe0\xa5\x80\xe0\xa4\xb5\xe0\xa4\xbe\xe0\xa4\xb2,n,m,any,3,o,0_\xe0\xa4\x95\xe0\xa5\x87_\xe0\xa4\x96\xe0\xa4\xbf\xe0\xa4\xb2\xe0\xa4\xbe\xe0\xa4\xab,0'
p2895
sS'chunkid'
p2896
S'NP9'
p2897
sS'creftype'
p2898
S'Coreference-Identity:i16'
p2899
sS'chunktype'
p2900
S'head:NP9'
p2901
sS'vpos'
p2902
S'vib_2_3'
p2903
sS'cref'
p2904
S'i24%1:t1'
p2905
sS'drel'
p2906
S'vmod:VGF2'
p2907
ssbsg26
I00
sg27
I00
sg28
Nsg29
Nsg30
I10
sg31
I4
sg32
Nsg33
Nsg34
S'NNP'
p2908
sg36
g2885
sg37
I00
sba(issf_api
Word
p2909
(dp2910
g6
I00
sg7
V\u0915\u0947
p2911
sg9
(issf_api
FeatureSet
p2912
(dp2913
g12
(dp2914
S'posn'
p2915
S'190'
p2916
sS'name'
p2917
S'\xe0\xa4\x95\xe0\xa5\x872'
p2918
sS'drel'
p2919
S'lwg__psp:NP9'
p2920
sS'chunktype'
p2921
S'child:NP9'
p2922
sS'af'
p2923
S'\xe0\xa4\x95\xe0\xa5\x87,psp,,,,,,'
p2924
ssbsg26
I00
sg27
I00
sg28
Nsg29
Nsg30
I10
sg31
I4
sg32
Nsg33
Nsg34
S'PSP'
p2925
sg36
g2912
sg37
I00
sba(issf_api
Word
p2926
(dp2927
g6
I00
sg7
V\u0916\u093f\u0932\u093e\u092b
p2928
sg9
(issf_api
FeatureSet
p2929
(dp2930
g12
(dp2931
S'posn'
p2932
S'200'
p2933
sS'name'
p2934
S'\xe0\xa4\x96\xe0\xa4\xbf\xe0\xa4\xb2\xe0\xa4\xbe\xe0\xa4\xab'
p2935
sS'drel'
p2936
S'lwg__psp:NP9'
p2937
sS'chunktype'
p2938
S'child:NP9'
p2939
sS'af'
p2940
S'\xe0\xa4\x96\xe0\xa4\xbf\xe0\xa4\xb2\xe0\xa4\xbe\xe0\xa4\xab,adj,,,,,,'
p2941
ssbsg26
I00
sg27
I00
sg28
Nsg29
Nsg30
I10
sg31
I4
sg32
Nsg33
Nsg34
S'PSP'
p2942
sg36
g2929
sg37
I00
sba(issf_api
Word
p2943
(dp2944
g6
I00
sg7
V\u0935\u093e\u0930\u0902\u091f
p2945
sg9
(issf_api
FeatureSet
p2946
(dp2947
g12
(dp2948
S'posn'
p2949
S'210'
p2950
sS'name'
p2951
S'\xe0\xa4\xb5\xe0\xa4\xbe\xe0\xa4\xb0\xe0\xa4\x82\xe0\xa4\x9f'
p2952
sS'af'
p2953
S'\xe0\xa4\xb5\xe0\xa4\xbe\xe0\xa4\xb0\xe0\xa4\x82\xe0\xa4\x9f,n,m,pl,3,d,0,0'
p2954
sS'chunkid'
p2955
S'NP10'
p2956
sS'drel'
p2957
S'k2:VGF2'
p2958
sS'chunktype'
p2959
S'head:NP10'
p2960
ssbsg26
I00
sg27
I00
sg28
Nsg29
Nsg30
I11
sg31
I4
sg32
Nsg33
Nsg34
S'NN'
p2961
sg36
g2946
sg37
I00
sba(issf_api
Word
p2962
(dp2963
g6
I00
sg7
V\u091c\u093e\u0930\u0940
p2964
sg9
(issf_api
FeatureSet
p2965
(dp2966
g12
(dp2967
S'posn'
p2968
S'220'
p2969
sS'name'
p2970
S'\xe0\xa4\x9c\xe0\xa4\xbe\xe0\xa4\xb0\xe0\xa5\x80'
p2971
sS'af'
p2972
S'\xe0\xa4\x9c\xe0\xa4\xbe\xe0\xa4\xb0\xe0\xa5\x80,adj,any,any,,,,'
p2973
sS'chunkid'
p2974
S'JJP'
p2975
sS'drel'
p2976
S'pof:VGF2'
p2977
sS'chunktype'
p2978
S'head:JJP'
p2979
ssbsg26
I00
sg27
I00
sg28
Nsg29
Nsg30
I12
sg31
I4
sg32
Nsg33
Nsg34
S'JJ'
p2980
sg36
g2965
sg37
I00
sba(issf_api
Word
p2981
(dp2982
g6
I00
sg7
V\u0915\u093f\u090f
p2983
sg9
(issf_api
FeatureSet
p2984
(dp2985
g12
(dp2986
S'posn'
p2987
S'230'
p2988
sS'name'
p2989
S'\xe0\xa4\x95\xe0\xa4\xbf\xe0\xa4\x8f'
p2990
sS'af'
p2991
S'\xe0\xa4\x95\xe0\xa4\xb0,v,m,pl,3,,\xe0\xa4\xaf\xe0\xa4\xbe_\xe0\xa4\x9c\xe0\xa4\xbe+\xe0\xa4\xaf\xe0\xa4\xbe\xe0\xa5\xa7_\xe0\xa4\xb9\xe0\xa5\x88,yA'
p2992
sS'chunkid'
p2993
S'VGF2'
p2994
sS'stype'
p2995
S'declarative'
p2996
sS'drel'
p2997
S'ccof:CCP'
p2998
sS'voicetype'
p2999
S'passive'
p3000
sS'vpos'
p3001
S'tam_2_3'
p3002
sS'chunktype'
p3003
S'head:VGF2'
p3004
ssbsg26
I00
sg27
I00
sg28
Nsg29
Nsg30
I13
sg31
I4
sg32
Nsg33
Nsg34
S'VM'
p3005
sg36
g2984
sg37
I00
sba(issf_api
Word
p3006
(dp3007
g6
I00
sg7
V\u0917\u090f
p3008
sg9
(issf_api
FeatureSet
p3009
(dp3010
g12
(dp3011
S'posn'
p3012
S'240'
p3013
sS'name'
p3014
S'\xe0\xa4\x97\xe0\xa4\x8f'
p3015
sS'drel'
p3016
S'lwg__vaux:VGF2'
p3017
sS'chunktype'
p3018
S'child:VGF2'
p3019
sS'af'
p3020
S'\xe0\xa4\x9c\xe0\xa4\xbe,v,m,pl,any,,\xe0\xa4\xaf\xe0\xa4\xbe\xe0\xa5\xa7,yA1'
p3021
ssbsg26
I00
sg27
I00
sg28
Nsg29
Nsg30
I13
sg31
I4
sg32
Nsg33
Nsg34
S'VAUX'
p3022
sg36
g3009
sg37
I00
sba(issf_api
Word
p3023
(dp3024
g6
I00
sg7
V\u0939\u0948\u0902
p3025
sg9
(issf_api
FeatureSet
p3026
(dp3027
g12
(dp3028
S'posn'
p3029
S'250'
p3030
sS'name'
p3031
S'\xe0\xa4\xb9\xe0\xa5\x88\xe0\xa4\x82'
p3032
sS'drel'
p3033
S'lwg__vaux:VGF2'
p3034
sS'chunktype'
p3035
S'child:VGF2'
p3036
sS'af'
p3037
S'\xe0\xa4\xb9\xe0\xa5\x88,v,any,pl,3,,\xe0\xa4\xb9\xe0\xa5\x88,hE'
p3038
ssbsg26
I00
sg27
I00
sg28
Nsg29
Nsg30
I13
sg31
I4
sg32
Nsg33
Nsg34
S'VAUX'
p3039
sg36
g3026
sg37
I00
sba(issf_api
Word
p3040
(dp3041
g6
I00
sg7
V\u0964
p3042
sg9
(issf_api
FeatureSet
p3043
(dp3044
g12
(dp3045
S'posn'
p3046
S'260'
p3047
sS'name'
p3048
S'\xe0\xa5\xa4'
p3049
sS'af'
p3050
S'\xe0\xa5\xa4,punc,,,,,,'
p3051
sS'chunkid'
p3052
S'BLK'
p3053
sS'drel'
p3054
S'rsym:CCP'
p3055
sS'chunktype'
p3056
S'head:BLK'
p3057
ssbsg26
I00
sg27
I00
sg28
Nsg29
Nsg30
I14
sg31
I4
sg32
Nsg33
Nsg34
S'SYM'
p3058
sg36
g3043
sg37
I00
sba(issf_api
Word
p3059
(dp3060
g6
I00
sg7
V\u0938\u0940\u092c\u0940\u0906\u0908
p3061
sg9
(issf_api
FeatureSet
p3062
(dp3063
g12
(dp3064
S'crefhead'
p3065
S'\xe0\xa4\xb8\xe0\xa5\x80\xe0\xa4\xac\xe0\xa5\x80\xe0\xa4\x86\xe0\xa4\x88:i25'
p3066
sS'posn'
p3067
S'10'
p3068
sS'name'
p3069
S'\xe0\xa4\xb8\xe0\xa5\x80\xe0\xa4\xac\xe0\xa5\x80\xe0\xa4\x86\xe0\xa4\x88'
p3070
sS'af'
p3071
S'\xe0\xa4\xb8\xe0\xa5\x80\xe0\xa4\xac\xe0\xa5\x80\xe0\xa4\x86\xe0\xa4\x88,n,f,sg,3,o,0_\xe0\xa4\x95\xe0\xa5\x8b,0'
p3072
sS'chunkid'
p3073
S'NP'
p3074
sS'creftype'
p3075
S'Coreference-Identity:i17'
p3076
sS'chunktype'
p3077
S'head:NP'
p3078
sS'vpos'
p3079
S'vib_2'
p3080
sS'cref'
p3081
S'i25%1:t8'
p3082
sS'drel'
p3083
S'k4:VGF'
p3084
ssbsg26
I00
sg27
I00
sg28
Nsg29
Nsg30
I0
sg31
I5
sg32
Nsg33
Nsg34
S'NNP'
p3085
sg36
g3062
sg37
I00
sba(issf_api
Word
p3086
(dp3087
g6
I00
sg7
V\u0915\u094b
p3088
sg9
(issf_api
FeatureSet
p3089
(dp3090
g12
(dp3091
S'posn'
p3092
S'20'
p3093
sS'name'
p3094
S'\xe0\xa4\x95\xe0\xa5\x8b'
p3095
sS'drel'
p3096
S'lwg__psp:NP'
p3097
sS'chunktype'
p3098
S'child:NP'
p3099
sS'af'
p3100
S'\xe0\xa4\x95\xe0\xa5\x8b,psp,,,,,,'
p3101
ssbsg26
I00
sg27
I00
sg28
Nsg29
Nsg30
I0
sg31
I5
sg32
Nsg33
Nsg34
S'PSP'
p3102
sg36
g3089
sg37
I00
sba(issf_api
Word
p3103
(dp3104
g6
I00
sg7
V\u0907\u0938
p3105
sg9
(issf_api
FeatureSet
p3106
(dp3107
g12
(dp3108
S'posn'
p3109
S'30'
p3110
sS'name'
p3111
S'\xe0\xa4\x87\xe0\xa4\xb8'
p3112
sS'af'
p3113
S'\xe0\xa4\xaf\xe0\xa4\xb9,pn,any,sg,3,o,,'
p3114
sS'acrefmod'
p3115
S'm4%0:i27'
p3116
sS'drel'
p3117
S'nmod__adj:NP2'
p3118
sS'chunktype'
p3119
S'child:NP2'
p3120
sS'cref'
p3121
S'i26%0:t3'
p3122
ssbsg26
I00
sg27
I00
sg28
Nsg29
Nsg30
I1
sg31
I5
sg32
Nsg33
Nsg34
S'DEM'
p3123
sg36
g3106
sg37
I00
sba(issf_api
Word
p3124
(dp3125
g6
I00
sg7
V\u092e\u093e\u092e\u0932\u0947
p3126
sg9
(issf_api
FeatureSet
p3127
(dp3128
g12
(dp3129
S'crefhead'
p3130
S'\xe0\xa4\xae\xe0\xa4\xbe\xe0\xa4\xae\xe0\xa4\xb2\xe0\xa5\x87:i26'
p3131
sS'posn'
p3132
S'40'
p3133
sS'name'
p3134
S'\xe0\xa4\xae\xe0\xa4\xbe\xe0\xa4\xae\xe0\xa4\xb2\xe0\xa5\x87'
p3135
sS'af'
p3136
S'\xe0\xa4\xae\xe0\xa4\xbe\xe0\xa4\xae\xe0\xa4\xb2\xe0\xa4\xbe,n,m,sg,3,o,0_\xe0\xa4\x95\xe0\xa4\xbe,0'
p3137
sS'acrefmodhead'
p3138
S'\xe0\xa4\xae\xe0\xa4\xbe\xe0\xa4\xae\xe0\xa4\xb2\xe0\xa5\x87:m4'
p3139
sS'chunkid'
p3140
S'NP2'
p3141
sS'acrefmod'
p3142
S'm4%1:i27'
p3143
sS'creftype'
p3144
S'Coreference-Identity:i20'
p3145
sS'chunktype'
p3146
S'head:NP2'
p3147
sS'vpos'
p3148
S'vib_3'
p3149
sS'cref'
p3150
S'i26%1:t3'
p3151
sS'drel'
p3152
S'r6:NP3'
p3153
ssbsg26
I00
sg27
I00
sg28
Nsg29
Nsg30
I1
sg31
I5
sg32
Nsg33
Nsg34
S'NN'
p3154
sg36
g3127
sg37
I00
sba(issf_api
Word
p3155
(dp3156
g6
I00
sg7
V\u0915\u0940
p3157
sg9
(issf_api
FeatureSet
p3158
(dp3159
g12
(dp3160
S'posn'
p3161
S'50'
p3162
sS'name'
p3163
S'\xe0\xa4\x95\xe0\xa5\x80'
p3164
sS'drel'
p3165
S'lwg__psp:NP2'
p3166
sS'chunktype'
p3167
S'child:NP2'
p3168
sS'af'
p3169
S'\xe0\xa4\x95\xe0\xa4\xbe,psp,f,sg,,d,,'
p3170
ssbsg26
I00
sg27
I00
sg28
Nsg29
Nsg30
I1
sg31
I5
sg32
Nsg33
Nsg34
S'PSP'
p3171
sg36
g3158
sg37
I00
sba(issf_api
Word
p3172
(dp3173
g6
I00
sg7
V\u091c\u093e\u0902\u091a
p3174
sg9
(issf_api
FeatureSet
p3175
(dp3176
g12
(dp3177
S'crefhead'
p3178
S'\xe0\xa4\x9c\xe0\xa4\xbe\xe0\xa4\x82\xe0\xa4\x9a:i27'
p3179
sS'posn'
p3180
S'60'
p3181
sS'name'
p3182
S'\xe0\xa4\x9c\xe0\xa4\xbe\xe0\xa4\x82\xe0\xa4\x9a'
p3183
sS'af'
p3184
S'\xe0\xa4\x9c\xe0\xa4\xbe\xe0\xa4\x82\xe0\xa4\x9a,n,f,sg,3,d,0,0'
p3185
sS'chunkid'
p3186
S'NP3'
p3187
sS'crefmod'
p3188
S'm4:i27'
p3189
sS'creftype'
p3190
S'Coreference-Identity:i21'
p3191
sS'chunktype'
p3192
S'head:NP3'
p3193
sS'cref'
p3194
S'i27%1:t10'
p3195
sS'drel'
p3196
S'k2:VGF'
p3197
ssbsg26
I00
sg27
I00
sg28
Nsg29
Nsg30
I2
sg31
I5
sg32
Nsg33
Nsg34
S'NN'
p3198
sg36
g3175
sg37
I00
sba(issf_api
Word
p3199
(dp3200
g6
I00
sg7
V\u0939\u093e\u0932
p3201
sg9
(issf_api
FeatureSet
p3202
(dp3203
g12
(dp3204
S'posn'
p3205
S'70'
p3206
sS'name'
p3207
S'\xe0\xa4\xb9\xe0\xa4\xbe\xe0\xa4\xb2'
p3208
sS'af'
p3209
S'\xe0\xa4\xb9\xe0\xa4\xbe\xe0\xa4\xb2,n,m,sg,3,o,0_\xe0\xa4\xae\xe0\xa5\x87\xe0\xa4\x82,0'
p3210
sS'chunkid'
p3211
S'NP4'
p3212
sS'drel'
p3213
S'k7:VGF'
p3214
sS'vpos'
p3215
S'vib_RP_3'
p3216
sS'chunktype'
p3217
S'head:NP4'
p3218
ssbsg26
I00
sg27
I00
sg28
Nsg29
Nsg30
I3
sg31
I5
sg32
Nsg33
Nsg34
S'NN'
p3219
sg36
g3202
sg37
I00
sba(issf_api
Word
p3220
(dp3221
g6
I00
sg7
V\u0939\u0940
p3222
sg9
(issf_api
FeatureSet
p3223
(dp3224
g12
(dp3225
S'posn'
p3226
S'80'
p3227
sS'name'
p3228
S'\xe0\xa4\xb9\xe0\xa5\x80'
p3229
sS'drel'
p3230
S'lwg__rp:NP4'
p3231
sS'chunktype'
p3232
S'child:NP4'
p3233
sS'af'
p3234
S'\xe0\xa4\xb9\xe0\xa5\x80,avy,,,,,,'
p3235
ssbsg26
I00
sg27
I00
sg28
Nsg29
Nsg30
I3
sg31
I5
sg32
Nsg33
Nsg34
S'RP'
p3236
sg36
g3223
sg37
I00
sba(issf_api
Word
p3237
(dp3238
g6
I00
sg7
V\u092e\u0947\u0902
p3239
sg9
(issf_api
FeatureSet
p3240
(dp3241
g12
(dp3242
S'posn'
p3243
S'90'
p3244
sS'name'
p3245
S'\xe0\xa4\xae\xe0\xa5\x87\xe0\xa4\x82'
p3246
sS'drel'
p3247
S'lwg__psp:NP4'
p3248
sS'chunktype'
p3249
S'child:NP4'
p3250
sS'af'
p3251
S'\xe0\xa4\xae\xe0\xa5\x87\xe0\xa4\x82,psp,,,,,,'
p3252
ssbsg26
I00
sg27
I00
sg28
Nsg29
Nsg30
I3
sg31
I5
sg32
Nsg33
Nsg34
S'PSP'
p3253
sg36
g3240
sg37
I00
sba(issf_api
Word
p3254
(dp3255
g6
I00
sg7
V\u0938\u094c\u0902\u092a\u0940
p3256
sg9
(issf_api
FeatureSet
p3257
(dp3258
g12
(dp3259
S'posn'
p3260
S'100'
p3261
sS'name'
p3262
S'\xe0\xa4\xb8\xe0\xa5\x8c\xe0\xa4\x82\xe0\xa4\xaa\xe0\xa5\x80'
p3263
sS'af'
p3264
S'\xe0\xa4\xb8\xe0\xa5\x8c\xe0\xa4\x82\xe0\xa4\xaa,v,f,sg,3,,\xe0\xa4\xaf\xe0\xa4\xbe_\xe0\xa4\x9c\xe0\xa4\xbe+\xe0\xa4\xaf\xe0\xa4\xbe\xe0\xa5\xa7_\xe0\xa4\xb9\xe0\xa5\x88,yA'
p3265
sS'chunkid'
p3266
S'VGF'
p3267
sS'chunktype'
p3268
S'head:VGF'
p3269
sS'voicetype'
p3270
S'passive'
p3271
sS'vpos'
p3272
S'tam_2_3'
p3273
sS'stype'
p3274
S'declarative'
p3275
ssbsg26
I00
sg27
I00
sg28
Nsg29
Nsg30
I4
sg31
I5
sg32
Nsg33
Nsg34
S'VM'
p3276
sg36
g3257
sg37
I00
sba(issf_api
Word
p3277
(dp3278
g6
I00
sg7
V\u0917\u0908
p3279
sg9
(issf_api
FeatureSet
p3280
(dp3281
g12
(dp3282
S'posn'
p3283
S'110'
p3284
sS'name'
p3285
S'\xe0\xa4\x97\xe0\xa4\x88'
p3286
sS'drel'
p3287
S'lwg__vaux:VGF'
p3288
sS'chunktype'
p3289
S'child:VGF'
p3290
sS'af'
p3291
S'\xe0\xa4\x9c\xe0\xa4\xbe,v,f,sg,any,,\xe0\xa4\xaf\xe0\xa4\xbe\xe0\xa5\xa7,yA1'
p3292
ssbsg26
I00
sg27
I00
sg28
Nsg29
Nsg30
I4
sg31
I5
sg32
Nsg33
Nsg34
S'VAUX'
p3293
sg36
g3280
sg37
I00
sba(issf_api
Word
p3294
(dp3295
g6
I00
sg7
V\u0939\u0948
p3296
sg9
(issf_api
FeatureSet
p3297
(dp3298
g12
(dp3299
S'posn'
p3300
S'120'
p3301
sS'name'
p3302
S'\xe0\xa4\xb9\xe0\xa5\x88'
p3303
sS'drel'
p3304
S'lwg__vaux:VGF'
p3305
sS'chunktype'
p3306
S'child:VGF'
p3307
sS'af'
p3308
S'\xe0\xa4\xb9\xe0\xa5\x88,v,any,sg,3,,\xe0\xa4\xb9\xe0\xa5\x88,hE'
p3309
ssbsg26
I00
sg27
I00
sg28
Nsg29
Nsg30
I4
sg31
I5
sg32
Nsg33
Nsg34
S'VAUX'
p3310
sg36
g3297
sg37
I00
sba(issf_api
Word
p3311
(dp3312
g6
I00
sg7
V\u0964
p3313
sg9
(issf_api
FeatureSet
p3314
(dp3315
g12
(dp3316
S'posn'
p3317
S'130'
p3318
sS'name'
p3319
S'\xe0\xa5\xa4'
p3320
sS'af'
p3321
S'\xe0\xa5\xa4,punc,,,,,,'
p3322
sS'chunkid'
p3323
S'BLK'
p3324
sS'drel'
p3325
S'rsym:VGF'
p3326
sS'chunktype'
p3327
S'head:BLK'
p3328
ssbsg26
I00
sg27
I00
sg28
Nsg29
Nsg30
I5
sg31
I5
sg32
Nsg33
Nsg34
S'SYM'
p3329
sg36
g3314
sg37
I00
sbasS'sentenceList'
p3330
(lp3331
(issf_api
Sentence
p3332
(dp3333
S'rootNode'
p3334
(lp3335
sg31
I0
sS'wordNumList'
p3336
(lp3337
I0
aI1
aI2
aI3
aI4
aI5
aI6
aI7
aI8
aI9
aI10
aI11
aI12
aI13
aI14
aI15
aI16
aI17
aI18
aI19
aI20
aI21
aI22
aI23
aI24
aI25
aI26
aI27
aI28
aI29
aI30
aI31
aI32
aI33
aI34
aI35
aI36
asS'nodeDict'
p3338
(dp3339
S'VGNN'
p3340
(issf_api
Node
p3341
(dp3342
S'nodeRelation'
p3343
S'jjmod'
p3344
sS'nodeName'
p3345
g3340
sS'nodeParent'
p3346
S'JJP2'
p3347
sS'nodeLevel'
p3348
I-1
sg30
I7
sS'childList'
p3349
(lp3350
S'JJP'
p3351
aS'NP6'
p3352
asbsS'JJP4'
p3353
(issf_api
Node
p3354
(dp3355
g3343
S'pof'
p3356
sg3345
g3353
sg3346
S'VGF'
p3357
sg3348
I-1
sg30
I15
sg3349
(lp3358
sbsg3351
(issf_api
Node
p3359
(dp3360
g3343
S'pof'
p3361
sg3345
g3351
sg3346
S'VGNN'
p3362
sg3348
I-1
sg30
I6
sg3349
(lp3363
sbsS'VGNN2'
p3364
(issf_api
Node
p3365
(dp3366
g3343
S'rt'
p3367
sg3345
g3364
sg3346
S'VGF'
p3368
sg3348
I-1
sg30
I11
sg3349
(lp3369
S'JJP3'
p3370
aS'NP7'
p3371
asbsS'NP5'
p3372
(issf_api
Node
p3373
(dp3374
g3343
S'k7'
p3375
sg3345
g3372
sg3346
S'VGF'
p3376
sg3348
I-1
sg30
I4
sg3349
(lp3377
S'NP4'
p3378
asbsS'JJP2'
p3379
(issf_api
Node
p3380
(dp3381
g3343
S'nmod'
p3382
sg3345
g3379
sg3346
S'NP7'
p3383
sg3348
I-1
sg30
I8
sg3349
(lp3384
g3340
asbsg3370
(issf_api
Node
p3385
(dp3386
g3343
S'pof'
p3387
sg3345
g3370
sg3346
S'VGNN2'
p3388
sg3348
I-1
sg30
I10
sg3349
(lp3389
sbsS'NP9'
p3390
(issf_api
Node
p3391
(dp3392
g3343
S'k7'
p3393
sg3345
g3390
sg3346
S'VGF'
p3394
sg3348
I-1
sg30
I13
sg3349
(lp3395
sbsS'NP8'
p3396
(issf_api
Node
p3397
(dp3398
g3343
S'k7t'
p3399
sg3345
g3396
sg3346
S'VGF'
p3400
sg3348
I-1
sg30
I12
sg3349
(lp3401
sbsS'BLK'
p3402
(issf_api
Node
p3403
(dp3404
g3343
S'rsym'
p3405
sg3345
g3402
sg3346
S'VGF'
p3406
sg3348
I-1
sg30
I17
sg3349
(lp3407
sbsS'NP10'
p3408
(issf_api
Node
p3409
(dp3410
g3343
S'k2'
p3411
sg3345
g3408
sg3346
S'VGF'
p3412
sg3348
I-1
sg30
I14
sg3349
(lp3413
sbsS'NP'
p3414
(issf_api
Node
p3415
(dp3416
g3343
S'nmod'
p3417
sg3345
g3414
sg3346
S'NP2'
p3418
sg3348
I-1
sg30
I0
sg3349
(lp3419
sbsg3378
(issf_api
Node
p3420
(dp3421
g3343
S'r6'
p3422
sg3345
g3378
sg3346
S'NP5'
p3423
sg3348
I-1
sg30
I3
sg3349
(lp3424
sbsg3371
(issf_api
Node
p3425
(dp3426
g3343
S'k2'
p3427
sg3345
g3371
sg3346
S'VGNN2'
p3428
sg3348
I-1
sg30
I9
sg3349
(lp3429
g3379
asbsg3352
(issf_api
Node
p3430
(dp3431
g3343
S'k7'
p3432
sg3345
g3352
sg3346
S'VGNN'
p3433
sg3348
I-1
sg30
I5
sg3349
(lp3434
sbsS'VGF'
p3435
(issf_api
Node
p3436
(dp3437
g3343
S'None'
p3438
sg3345
g3435
sg3346
g3438
sg3348
I-1
sg30
I16
sg3349
(lp3439
g3353
ag3364
ag3372
ag3390
ag3396
ag3402
ag3408
aS'NP3'
p3440
aS'NP2'
p3441
asbsg3440
(issf_api
Node
p3442
(dp3443
g3343
S'ras-k1'
p3444
sg3345
g3440
sg3346
S'VGF'
p3445
sg3348
I-1
sg30
I2
sg3349
(lp3446
sbsg3441
(issf_api
Node
p3447
(dp3448
g3343
S'k1'
p3449
sg3345
g3441
sg3346
S'VGF'
p3450
sg3348
I-1
sg30
I1
sg3349
(lp3451
g3414
asbssS'chunkList'
p3452
(lp3453
(issf_api
Chunk
p3454
(dp3455
g3345
g53
sg30
I0
sS'chunkTag'
p3456
g60
sg31
I0
sg3336
(lp3457
I0
aI1
asg36
(issf_api
FeatureSet
p3458
(dp3459
g12
(dp3460
S'name'
p3461
g3414
sS'drel'
p3462
S'nmod:NP2'
p3463
ssbsba(issf_api
Chunk
p3464
(dp3465
g3345
g114
sg30
I1
sg3456
g127
sg31
I0
sg3336
(lp3466
I2
aI3
aI4
aI5
asg36
(issf_api
FeatureSet
p3467
(dp3468
g12
(dp3469
S'name'
p3470
g3441
sS'drel'
p3471
S'k1:VGF'
p3472
ssbsba(issf_api
Chunk
p3473
(dp3474
g3345
g160
sg30
I2
sg3456
g173
sg31
I0
sg3336
(lp3475
I6
aI7
aI8
asg36
(issf_api
FeatureSet
p3476
(dp3477
g12
(dp3478
S'name'
p3479
g3440
sS'drel'
p3480
S'ras-k1:VGF'
p3481
ssbsba(issf_api
Chunk
p3482
(dp3483
g3345
g227
sg30
I3
sg3456
g236
sg31
I0
sg3336
(lp3484
I9
aI10
asg36
(issf_api
FeatureSet
p3485
(dp3486
g12
(dp3487
S'name'
p3488
g3378
sS'drel'
p3489
S'r6:NP5'
p3490
ssbsba(issf_api
Chunk
p3491
(dp3492
g3345
g269
sg30
I4
sg3456
g282
sg31
I0
sg3336
(lp3493
I11
aI12
asg36
(issf_api
FeatureSet
p3494
(dp3495
g12
(dp3496
S'name'
p3497
g3372
sS'drel'
p3498
S'k7:VGF'
p3499
ssbsba(issf_api
Chunk
p3500
(dp3501
g3345
g313
sg30
I5
sg3456
g320
sg31
I0
sg3336
(lp3502
I13
aI14
asg36
(issf_api
FeatureSet
p3503
(dp3504
g12
(dp3505
S'name'
p3506
g3352
sS'drel'
p3507
S'k7:VGNN'
p3508
ssbsba(issf_api
Chunk
p3509
(dp3510
g3345
g351
sg30
I6
sg3456
g356
sg31
I0
sg3336
(lp3511
I15
asg36
(issf_api
FeatureSet
p3512
(dp3513
g12
(dp3514
S'name'
p3515
g3351
sS'drel'
p3516
S'pof:VGNN'
p3517
ssbsba(issf_api
Chunk
p3518
(dp3519
g3345
g387
sg30
I7
sg3456
g394
sg31
I0
sg3336
(lp3520
I16
aI17
aI18
asg36
(issf_api
FeatureSet
p3521
(dp3522
g12
(dp3523
S'name'
p3524
g3340
sS'drel'
p3525
S'jjmod:JJP2'
p3526
ssbsba(issf_api
Chunk
p3527
(dp3528
g3345
g425
sg30
I8
sg3456
g430
sg31
I0
sg3336
(lp3529
I19
asg36
(issf_api
FeatureSet
p3530
(dp3531
g12
(dp3532
S'name'
p3533
g3379
sS'drel'
p3534
S'nmod:NP7'
p3535
ssbsba(issf_api
Chunk
p3536
(dp3537
g3345
g478
sg30
I9
sg3456
g489
sg31
I0
sg3336
(lp3538
I20
aI21
aI22
aI23
asg36
(issf_api
FeatureSet
p3539
(dp3540
g12
(dp3541
S'name'
p3542
g3371
sS'drel'
p3543
S'k2:VGNN2'
p3544
ssbsba(issf_api
Chunk
p3545
(dp3546
g3345
g518
sg30
I10
sg3456
g523
sg31
I0
sg3336
(lp3547
I24
asg36
(issf_api
FeatureSet
p3548
(dp3549
g12
(dp3550
S'name'
p3551
g3370
sS'drel'
p3552
S'pof:VGNN2'
p3553
ssbsba(issf_api
Chunk
p3554
(dp3555
g3345
g537
sg30
I11
sg3456
g544
sg31
I0
sg3336
(lp3556
I25
aI26
aI27
asg36
(issf_api
FeatureSet
p3557
(dp3558
g12
(dp3559
S'name'
p3560
g3364
sS'drel'
p3561
S'rt:VGF'
p3562
ssbsba(issf_api
Chunk
p3563
(dp3564
g3345
g594
sg30
I12
sg3456
g605
sg31
I0
sg3336
(lp3565
I28
asg36
(issf_api
FeatureSet
p3566
(dp3567
g12
(dp3568
S'name'
p3569
g3396
sS'drel'
p3570
S'k7t:VGF'
p3571
ssbsba(issf_api
Chunk
p3572
(dp3573
g3345
g634
sg30
I13
sg3456
g641
sg31
I0
sg3336
(lp3574
I29
aI30
aI31
asg36
(issf_api
FeatureSet
p3575
(dp3576
g12
(dp3577
S'name'
p3578
g3390
sS'drel'
p3579
S'k7:VGF'
p3580
ssbsba(issf_api
Chunk
p3581
(dp3582
g3345
g674
sg30
I14
sg3456
g681
sg31
I0
sg3336
(lp3583
I32
asg36
(issf_api
FeatureSet
p3584
(dp3585
g12
(dp3586
S'name'
p3587
g3408
sS'drel'
p3588
S'k2:VGF'
p3589
ssbsba(issf_api
Chunk
p3590
(dp3591
g3345
g695
sg30
I15
sg3456
g700
sg31
I0
sg3336
(lp3592
I33
asg36
(issf_api
FeatureSet
p3593
(dp3594
g12
(dp3595
S'name'
p3596
g3353
sS'drel'
p3597
S'pof:VGF'
p3598
ssbsba(issf_api
Chunk
p3599
(dp3600
g3345
g714
sg30
I16
sg3456
g723
sg31
I0
sg3336
(lp3601
I34
aI35
asg36
(issf_api
FeatureSet
p3602
(dp3603
g12
(dp3604
S'name'
p3605
g3435
ssbsba(issf_api
Chunk
p3606
(dp3607
g3345
g754
sg30
I17
sg3456
g759
sg31
I0
sg3336
(lp3608
I36
asg36
(issf_api
FeatureSet
p3609
(dp3610
g12
(dp3611
S'name'
p3612
g3402
sS'drel'
p3613
S'rsym:VGF'
p3614
ssbsbasba(issf_api
Sentence
p3615
(dp3616
g3334
(lp3617
sg31
I1
sg3336
(lp3618
I37
aI38
aI39
aI40
aI41
aI42
aI43
aI44
aI45
aI46
aI47
aI48
aI49
aI50
aI51
aI52
aI53
aI54
aI55
aI56
aI57
aI58
aI59
aI60
aI61
aI62
aI63
aI64
aI65
aI66
aI67
aI68
aI69
asg3338
(dp3619
S'VGNN'
p3620
(issf_api
Node
p3621
(dp3622
g3343
S'r6'
p3623
sg3345
g3620
sg3346
S'NP6'
p3624
sg3348
I-1
sg30
I7
sg3349
(lp3625
S'NP5'
p3626
aS'JJP2'
p3627
asbsS'VGF'
p3628
(issf_api
Node
p3629
(dp3630
g3343
g3438
sg3345
g3628
sg3346
g3438
sg3348
I-1
sg30
I14
sg3349
(lp3631
S'NP9'
p3632
aS'NP8'
p3633
aS'BLK'
p3634
aS'NP'
p3635
aS'NP3'
p3636
aS'NP2'
p3637
asbsS'JJP'
p3638
(issf_api
Node
p3639
(dp3640
g3343
S'nmod'
p3641
sg3345
g3638
sg3346
S'NP2'
p3642
sg3348
I-1
sg30
I1
sg3349
(lp3643
sbsS'VGNN2'
p3644
(issf_api
Node
p3645
(dp3646
g3343
S'r6'
p3647
sg3345
g3644
sg3346
S'NP8'
p3648
sg3348
I-1
sg30
I10
sg3349
(lp3649
S'JJP3'
p3650
aS'NP6'
p3651
asbsg3626
(issf_api
Node
p3652
(dp3653
g3343
S'k2'
p3654
sg3345
g3626
sg3346
S'VGNN'
p3655
sg3348
I-1
sg30
I5
sg3349
(lp3656
S'NP4'
p3657
asbsg3627
(issf_api
Node
p3658
(dp3659
g3343
S'pof'
p3660
sg3345
g3627
sg3346
S'VGNN'
p3661
sg3348
I-1
sg30
I6
sg3349
(lp3662
sbsg3650
(issf_api
Node
p3663
(dp3664
g3343
S'pof'
p3665
sg3345
g3650
sg3346
S'VGNN2'
p3666
sg3348
I-1
sg30
I9
sg3349
(lp3667
sbsg3632
(issf_api
Node
p3668
(dp3669
g3343
S'k2'
p3670
sg3345
g3632
sg3346
S'VGF'
p3671
sg3348
I-1
sg30
I13
sg3349
(lp3672
sbsg3633
(issf_api
Node
p3673
(dp3674
g3343
S'k4'
p3675
sg3345
g3633
sg3346
S'VGF'
p3676
sg3348
I-1
sg30
I12
sg3349
(lp3677
g3644
aS'NP7'
p3678
asbsg3634
(issf_api
Node
p3679
(dp3680
g3343
S'rsym'
p3681
sg3345
g3634
sg3346
S'VGF'
p3682
sg3348
I-1
sg30
I15
sg3349
(lp3683
sbsg3635
(issf_api
Node
p3684
(dp3685
g3343
S'k7'
p3686
sg3345
g3635
sg3346
S'VGF'
p3687
sg3348
I-1
sg30
I0
sg3349
(lp3688
sbsg3657
(issf_api
Node
p3689
(dp3690
g3343
S'r6'
p3691
sg3345
g3657
sg3346
S'NP5'
p3692
sg3348
I-1
sg30
I4
sg3349
(lp3693
sbsg3678
(issf_api
Node
p3694
(dp3695
g3343
S'r6'
p3696
sg3345
g3678
sg3346
S'NP8'
p3697
sg3348
I-1
sg30
I11
sg3349
(lp3698
sbsg3651
(issf_api
Node
p3699
(dp3700
g3343
S'k2'
p3701
sg3345
g3651
sg3346
S'VGNN2'
p3702
sg3348
I-1
sg30
I8
sg3349
(lp3703
g3620
asbsg3636
(issf_api
Node
p3704
(dp3705
g3343
S'k1'
p3706
sg3345
g3636
sg3346
S'VGF'
p3707
sg3348
I-1
sg30
I3
sg3349
(lp3708
sbsg3637
(issf_api
Node
p3709
(dp3710
g3343
S'k7'
p3711
sg3345
g3637
sg3346
S'VGF'
p3712
sg3348
I-1
sg30
I2
sg3349
(lp3713
g3638
asbssg3452
(lp3714
(issf_api
Chunk
p3715
(dp3716
g3345
g775
sg30
I0
sg3456
g786
sg31
I1
sg3336
(lp3717
I37
aI38
aI39
aI40
asg36
(issf_api
FeatureSet
p3718
(dp3719
g12
(dp3720
S'name'
p3721
g3635
sS'drel'
p3722
S'k7:VGF'
p3723
ssbsba(issf_api
Chunk
p3724
(dp3725
g3345
g851
sg30
I1
sg3456
g856
sg31
I1
sg3336
(lp3726
I41
asg36
(issf_api
FeatureSet
p3727
(dp3728
g12
(dp3729
S'name'
p3730
g3638
sS'drel'
p3731
S'nmod:NP2'
p3732
ssbsba(issf_api
Chunk
p3733
(dp3734
g3345
g910
sg30
I2
sg3456
g923
sg31
I1
sg3336
(lp3735
I42
aI43
aI44
aI45
asg36
(issf_api
FeatureSet
p3736
(dp3737
g12
(dp3738
S'name'
p3739
g3637
sS'drel'
p3740
S'k7:VGF'
p3741
ssbsba(issf_api
Chunk
p3742
(dp3743
g3345
g971
sg30
I3
sg3456
g978
sg31
I1
sg3336
(lp3744
I46
aI47
aI48
asg36
(issf_api
FeatureSet
p3745
(dp3746
g12
(dp3747
S'name'
p3748
g3636
sS'drel'
p3749
S'k1:VGF'
p3750
ssbsba(issf_api
Chunk
p3751
(dp3752
g3345
g1011
sg30
I4
sg3456
g1020
sg31
I1
sg3336
(lp3753
I49
asg36
(issf_api
FeatureSet
p3754
(dp3755
g12
(dp3756
S'name'
p3757
g3657
sS'drel'
p3758
S'r6:NP5'
p3759
ssbsba(issf_api
Chunk
p3760
(dp3761
g3345
g1074
sg30
I5
sg3456
g1083
sg31
I1
sg3336
(lp3762
I50
aI51
aI52
asg36
(issf_api
FeatureSet
p3763
(dp3764
g12
(dp3765
S'name'
p3766
g3626
sS'drel'
p3767
S'k2:VGNN'
p3768
ssbsba(issf_api
Chunk
p3769
(dp3770
g3345
g1097
sg30
I6
sg3456
g1102
sg31
I1
sg3336
(lp3771
I53
asg36
(issf_api
FeatureSet
p3772
(dp3773
g12
(dp3774
S'name'
p3775
g3627
sS'drel'
p3776
S'pof:VGNN'
p3777
ssbsba(issf_api
Chunk
p3778
(dp3779
g3345
g1116
sg30
I7
sg3456
g1123
sg31
I1
sg3336
(lp3780
I54
aI55
asg36
(issf_api
FeatureSet
p3781
(dp3782
g12
(dp3783
S'name'
p3784
g3620
sS'drel'
p3785
S'r6:NP6'
p3786
ssbsba(issf_api
Chunk
p3787
(dp3788
g3345
g1154
sg30
I8
sg3456
g1159
sg31
I1
sg3336
(lp3789
I56
asg36
(issf_api
FeatureSet
p3790
(dp3791
g12
(dp3792
S'name'
p3793
g3651
sS'drel'
p3794
S'k2:VGNN2'
p3795
ssbsba(issf_api
Chunk
p3796
(dp3797
g3345
g1173
sg30
I9
sg3456
g1178
sg31
I1
sg3336
(lp3798
I57
asg36
(issf_api
FeatureSet
p3799
(dp3800
g12
(dp3801
S'name'
p3802
g3650
sS'drel'
p3803
S'pof:VGNN2'
p3804
ssbsba(issf_api
Chunk
p3805
(dp3806
g3345
g1192
sg30
I10
sg3456
g1199
sg31
I1
sg3336
(lp3807
I58
aI59
asg36
(issf_api
FeatureSet
p3808
(dp3809
g12
(dp3810
S'name'
p3811
g3644
sS'drel'
p3812
S'r6:NP8'
p3813
ssbsba(issf_api
Chunk
p3814
(dp3815
g3345
g1247
sg30
I11
sg3456
g1254
sg31
I1
sg3336
(lp3816
I60
aI61
aI62
asg36
(issf_api
FeatureSet
p3817
(dp3818
g12
(dp3819
S'name'
p3820
g3678
sS'drel'
p3821
S'r6:NP8'
p3822
ssbsba(issf_api
Chunk
p3823
(dp3824
g3345
g1285
sg30
I12
sg3456
g1292
sg31
I1
sg3336
(lp3825
I63
aI64
asg36
(issf_api
FeatureSet
p3826
(dp3827
g12
(dp3828
S'name'
p3829
g3633
sS'drel'
p3830
S'k4:VGF'
p3831
ssbsba(issf_api
Chunk
p3832
(dp3833
g3345
g1323
sg30
I13
sg3456
g1328
sg31
I1
sg3336
(lp3834
I65
asg36
(issf_api
FeatureSet
p3835
(dp3836
g12
(dp3837
S'name'
p3838
g3632
sS'drel'
p3839
S'k2:VGF'
p3840
ssbsba(issf_api
Chunk
p3841
(dp3842
g3345
g1342
sg30
I14
sg3456
g1351
sg31
I1
sg3336
(lp3843
I66
aI67
aI68
asg36
(issf_api
FeatureSet
p3844
(dp3845
g12
(dp3846
S'name'
p3847
g3628
ssbsba(issf_api
Chunk
p3848
(dp3849
g3345
g1399
sg30
I15
sg3456
g1404
sg31
I1
sg3336
(lp3850
I69
asg36
(issf_api
FeatureSet
p3851
(dp3852
g12
(dp3853
S'name'
p3854
g3634
sS'drel'
p3855
S'rsym:VGF'
p3856
ssbsbasba(issf_api
Sentence
p3857
(dp3858
g3334
(lp3859
sg31
I2
sg3336
(lp3860
I70
aI71
aI72
aI73
aI74
aI75
aI76
aI77
aI78
aI79
aI80
aI81
aI82
aI83
aI84
aI85
aI86
aI87
aI88
aI89
aI90
aI91
aI92
asg3338
(dp3861
S'VGNF'
p3862
(issf_api
Node
p3863
(dp3864
g3343
S'vmod'
p3865
sg3345
g3862
sg3346
S'VGF2'
p3866
sg3348
I-1
sg30
I9
sg3349
(lp3867
S'NP5'
p3868
aS'NP6'
p3869
asbsS'VGF2'
p3870
(issf_api
Node
p3871
(dp3872
g3343
S'ccof'
p3873
sg3345
g3870
sg3346
S'CCP'
p3874
sg3348
I-1
sg30
I13
sg3349
(lp3875
g3862
aS'VGNN'
p3876
aS'JJP'
p3877
aS'VGNN2'
p3878
asbsg3876
(issf_api
Node
p3879
(dp3880
g3343
S'rt'
p3881
sg3345
g3876
sg3346
S'VGF2'
p3882
sg3348
I-1
sg30
I6
sg3349
(lp3883
S'NP4'
p3884
asbsS'VGF'
p3885
(issf_api
Node
p3886
(dp3887
g3343
g3438
sg3345
g3885
sg3346
g3438
sg3348
I-1
sg30
I3
sg3349
(lp3888
S'CCP'
p3889
aS'BLK'
p3890
aS'NP'
p3891
aS'NP3'
p3892
asbsg3889
(issf_api
Node
p3893
(dp3894
g3343
S'k2'
p3895
sg3345
g3889
sg3346
S'VGF'
p3896
sg3348
I-1
sg30
I4
sg3349
(lp3897
g3870
asbsg3877
(issf_api
Node
p3898
(dp3899
g3343
S'k1s'
p3900
sg3345
g3877
sg3346
S'VGF2'
p3901
sg3348
I-1
sg30
I12
sg3349
(lp3902
sbsg3878
(issf_api
Node
p3903
(dp3904
g3343
S'k1'
p3905
sg3345
g3878
sg3346
S'VGF2'
p3906
sg3348
I-1
sg30
I11
sg3349
(lp3907
S'NP7'
p3908
asbsg3868
(issf_api
Node
p3909
(dp3910
g3343
S'k2'
p3911
sg3345
g3868
sg3346
S'VGNF'
p3912
sg3348
I-1
sg30
I7
sg3349
(lp3913
sbsg3890
(issf_api
Node
p3914
(dp3915
g3343
S'rsym'
p3916
sg3345
g3890
sg3346
S'VGF'
p3917
sg3348
I-1
sg30
I14
sg3349
(lp3918
sbsg3891
(issf_api
Node
p3919
(dp3920
g3343
S'k1'
p3921
sg3345
g3891
sg3346
S'VGF'
p3922
sg3348
I-1
sg30
I0
sg3349
(lp3923
sbsg3884
(issf_api
Node
p3924
(dp3925
g3343
S'k2'
p3926
sg3345
g3884
sg3346
S'VGNN'
p3927
sg3348
I-1
sg30
I5
sg3349
(lp3928
sbsg3908
(issf_api
Node
p3929
(dp3930
g3343
S'pof'
p3931
sg3345
g3908
sg3346
S'VGNN2'
p3932
sg3348
I-1
sg30
I10
sg3349
(lp3933
sbsg3869
(issf_api
Node
p3934
(dp3935
g3343
S'k7'
p3936
sg3345
g3869
sg3346
S'VGNF'
p3937
sg3348
I-1
sg30
I8
sg3349
(lp3938
sbsg3892
(issf_api
Node
p3939
(dp3940
g3343
S'k7'
p3941
sg3345
g3892
sg3346
S'VGF'
p3942
sg3348
I-1
sg30
I2
sg3349
(lp3943
S'NP2'
p3944
asbsg3944
(issf_api
Node
p3945
(dp3946
g3343
S'r6'
p3947
sg3345
g3944
sg3346
S'NP3'
p3948
sg3348
I-1
sg30
I1
sg3349
(lp3949
sbssg3452
(lp3950
(issf_api
Chunk
p3951
(dp3952
g3345
g1439
sg30
I0
sg3456
g1450
sg31
I2
sg3336
(lp3953
I70
aI71
aI72
asg36
(issf_api
FeatureSet
p3954
(dp3955
g12
(dp3956
S'name'
p3957
g3891
sS'drel'
p3958
S'k1:VGF'
p3959
ssbsba(issf_api
Chunk
p3960
(dp3961
g3345
g1483
sg30
I1
sg3456
g1492
sg31
I2
sg3336
(lp3962
I73
asg36
(issf_api
FeatureSet
p3963
(dp3964
g12
(dp3965
S'name'
p3966
g3944
sS'drel'
p3967
S'r6:NP3'
p3968
ssbsba(issf_api
Chunk
p3969
(dp3970
g3345
g1506
sg30
I2
sg3456
g1513
sg31
I2
sg3336
(lp3971
I74
aI75
asg36
(issf_api
FeatureSet
p3972
(dp3973
g12
(dp3974
S'name'
p3975
g3892
sS'drel'
p3976
S'k7:VGF'
p3977
ssbsba(issf_api
Chunk
p3978
(dp3979
g3345
g1544
sg30
I3
sg3456
g1553
sg31
I2
sg3336
(lp3980
I76
aI77
asg36
(issf_api
FeatureSet
p3981
(dp3982
g12
(dp3983
S'name'
p3984
g3885
ssbsba(issf_api
Chunk
p3985
(dp3986
g3345
g1584
sg30
I4
sg3456
g1589
sg31
I2
sg3336
(lp3987
I78
asg36
(issf_api
FeatureSet
p3988
(dp3989
g12
(dp3990
S'name'
p3991
g3889
sS'drel'
p3992
S'k2:VGF'
p3993
ssbsba(issf_api
Chunk
p3994
(dp3995
g3345
g1603
sg30
I5
sg3456
g1608
sg31
I2
sg3336
(lp3996
I79
asg36
(issf_api
FeatureSet
p3997
(dp3998
g12
(dp3999
S'name'
p4000
g3884
sS'drel'
p4001
S'k2:VGNN'
p4002
ssbsba(issf_api
Chunk
p4003
(dp4004
g3345
g1622
sg30
I6
sg3456
g1629
sg31
I2
sg3336
(lp4005
I80
aI81
aI82
asg36
(issf_api
FeatureSet
p4006
(dp4007
g12
(dp4008
S'name'
p4009
g3876
sS'drel'
p4010
S'rt:VGF2'
p4011
ssbsba(issf_api
Chunk
p4012
(dp4013
g3345
g1679
sg30
I7
sg3456
g1690
sg31
I2
sg3336
(lp4014
I83
aI84
asg36
(issf_api
FeatureSet
p4015
(dp4016
g12
(dp4017
S'name'
p4018
g3868
sS'drel'
p4019
S'k2:VGNF'
p4020
ssbsba(issf_api
Chunk
p4021
(dp4022
g3345
g1721
sg30
I8
sg3456
g1728
sg31
I2
sg3336
(lp4023
I85
aI86
asg36
(issf_api
FeatureSet
p4024
(dp4025
g12
(dp4026
S'name'
p4027
g3869
sS'drel'
p4028
S'k7:VGNF'
p4029
ssbsba(issf_api
Chunk
p4030
(dp4031
g3345
g1759
sg30
I9
sg3456
g1764
sg31
I2
sg3336
(lp4032
I87
asg36
(issf_api
FeatureSet
p4033
(dp4034
g12
(dp4035
S'name'
p4036
g3862
sS'drel'
p4037
S'vmod:VGF2'
p4038
ssbsba(issf_api
Chunk
p4039
(dp4040
g3345
g1778
sg30
I10
sg3456
g1783
sg31
I2
sg3336
(lp4041
I88
asg36
(issf_api
FeatureSet
p4042
(dp4043
g12
(dp4044
S'name'
p4045
g3908
sS'drel'
p4046
S'pof:VGNN2'
p4047
ssbsba(issf_api
Chunk
p4048
(dp4049
g3345
g1797
sg30
I11
sg3456
g1802
sg31
I2
sg3336
(lp4050
I89
asg36
(issf_api
FeatureSet
p4051
(dp4052
g12
(dp4053
S'name'
p4054
g3878
sS'drel'
p4055
S'k1:VGF2'
p4056
ssbsba(issf_api
Chunk
p4057
(dp4058
g3345
g1816
sg30
I12
sg3456
g1821
sg31
I2
sg3336
(lp4059
I90
asg36
(issf_api
FeatureSet
p4060
(dp4061
g12
(dp4062
S'name'
p4063
g3877
sS'drel'
p4064
S'k1s:VGF2'
p4065
ssbsba(issf_api
Chunk
p4066
(dp4067
g3345
g1835
sg30
I13
sg3456
g1844
sg31
I2
sg3336
(lp4068
I91
asg36
(issf_api
FeatureSet
p4069
(dp4070
g12
(dp4071
S'name'
p4072
g3870
sS'drel'
p4073
S'ccof:CCP'
p4074
ssbsba(issf_api
Chunk
p4075
(dp4076
g3345
g1858
sg30
I14
sg3456
g1863
sg31
I2
sg3336
(lp4077
I92
asg36
(issf_api
FeatureSet
p4078
(dp4079
g12
(dp4080
S'name'
p4081
g3890
sS'drel'
p4082
S'rsym:VGF'
p4083
ssbsbasba(issf_api
Sentence
p4084
(dp4085
g3334
(lp4086
sg31
I3
sg3336
(lp4087
I93
aI94
aI95
aI96
aI97
aI98
aI99
aI100
aI101
aI102
aI103
aI104
aI105
aI106
aI107
aI108
aI109
aI110
aI111
aI112
aI113
aI114
aI115
aI116
aI117
aI118
aI119
aI120
aI121
aI122
aI123
aI124
aI125
asg3338
(dp4088
S'VGF2'
p4089
(issf_api
Node
p4090
(dp4091
g3343
S'ccof'
p4092
sg3345
g4089
sg3346
S'CCP2'
p4093
sg3348
I-1
sg30
I11
sg3349
(lp4094
S'RBP'
p4095
aS'NP4'
p4096
aS'CCP3'
p4097
asbsS'NP6'
p4098
(issf_api
Node
p4099
(dp4100
g3343
S'k2'
p4101
sg3345
g4098
sg3346
S'VGF3'
p4102
sg3348
I-1
sg30
I16
sg3349
(lp4103
sbsS'VGNN3'
p4104
(issf_api
Node
p4105
(dp4106
g3343
S'k7'
p4107
sg3345
g4104
sg3346
S'VGF3'
p4108
sg3348
I-1
sg30
I15
sg3349
(lp4109
S'NP5'
p4110
aS'JJP2'
p4111
asbsS'VGNN'
p4112
(issf_api
Node
p4113
(dp4114
g3343
S'k1'
p4115
sg3345
g4112
sg3346
S'VGF'
p4116
sg3348
I-1
sg30
I2
sg3349
(lp4117
S'NP'
p4118
aS'CCP2'
p4119
asbsS'VGF'
p4120
(issf_api
Node
p4121
(dp4122
g3343
S'ccof'
p4123
sg3345
g4120
sg3346
S'CCP'
p4124
sg3348
I-1
sg30
I3
sg3349
(lp4125
g4112
asbsS'VGF3'
p4126
(issf_api
Node
p4127
(dp4128
g3343
S'ccof'
p4129
sg3345
g4126
sg3346
S'CCP3'
p4130
sg3348
I-1
sg30
I18
sg3349
(lp4131
g4098
ag4104
aS'JJP3'
p4132
asbsS'CCP'
p4133
(issf_api
Node
p4134
(dp4135
g3343
g3438
sg3345
g4133
sg3346
g3438
sg3348
I-1
sg30
I0
sg3349
(lp4136
g4120
aS'BLK'
p4137
asbsg4095
(issf_api
Node
p4138
(dp4139
g3343
S'adv'
p4140
sg3345
g4095
sg3346
S'VGF2'
p4141
sg3348
I-1
sg30
I5
sg3349
(lp4142
sbsS'VGNN2'
p4143
(issf_api
Node
p4144
(dp4145
g3343
S'r6'
p4146
sg3345
g4143
sg3346
S'NP3'
p4147
sg3348
I-1
sg30
I8
sg3349
(lp4148
S'JJP'
p4149
aS'NP2'
p4150
asbsg4110
(issf_api
Node
p4151
(dp4152
g3343
S'k7t'
p4153
sg3345
g4110
sg3346
S'VGNN3'
p4154
sg3348
I-1
sg30
I13
sg3349
(lp4155
sbsg4111
(issf_api
Node
p4156
(dp4157
g3343
S'pof'
p4158
sg3345
g4111
sg3346
S'VGNN3'
p4159
sg3348
I-1
sg30
I14
sg3349
(lp4160
sbsg4132
(issf_api
Node
p4161
(dp4162
g3343
S'pof'
p4163
sg3345
g4132
sg3346
S'VGF3'
p4164
sg3348
I-1
sg30
I17
sg3349
(lp4165
sbsg4137
(issf_api
Node
p4166
(dp4167
g3343
S'rsym'
p4168
sg3345
g4137
sg3346
S'CCP'
p4169
sg3348
I-1
sg30
I19
sg3349
(lp4170
sbsg4118
(issf_api
Node
p4171
(dp4172
g3343
S'k1'
p4173
sg3345
g4118
sg3346
S'VGNN'
p4174
sg3348
I-1
sg30
I1
sg3349
(lp4175
sbsg4096
(issf_api
Node
p4176
(dp4177
g3343
S'k1'
p4178
sg3345
g4096
sg3346
S'VGF2'
p4179
sg3348
I-1
sg30
I10
sg3349
(lp4180
S'NP3'
p4181
asbsg4149
(issf_api
Node
p4182
(dp4183
g3343
S'pof'
p4184
sg3345
g4149
sg3346
S'VGNN2'
p4185
sg3348
I-1
sg30
I7
sg3349
(lp4186
sbsg4119
(issf_api
Node
p4187
(dp4188
g3343
S'k2'
p4189
sg3345
g4119
sg3346
S'VGNN'
p4190
sg3348
I-1
sg30
I4
sg3349
(lp4191
g4089
asbsg4097
(issf_api
Node
p4192
(dp4193
g3343
S'vmod'
p4194
sg3345
g4097
sg3346
S'VGF2'
p4195
sg3348
I-1
sg30
I12
sg3349
(lp4196
g4126
asbsg4181
(issf_api
Node
p4197
(dp4198
g3343
S'r6'
p4199
sg3345
g4181
sg3346
S'NP4'
p4200
sg3348
I-1
sg30
I9
sg3349
(lp4201
g4143
asbsg4150
(issf_api
Node
p4202
(dp4203
g3343
S'k2'
p4204
sg3345
g4150
sg3346
S'VGNN2'
p4205
sg3348
I-1
sg30
I6
sg3349
(lp4206
sbssg3452
(lp4207
(issf_api
Chunk
p4208
(dp4209
g3345
g1873
sg30
I0
sg3456
g1880
sg31
I3
sg3336
(lp4210
I93
asg36
(issf_api
FeatureSet
p4211
(dp4212
g12
(dp4213
S'name'
p4214
g4133
ssbsba(issf_api
Chunk
p4215
(dp4216
g3345
g1896
sg30
I1
sg3456
g1907
sg31
I3
sg3336
(lp4217
I94
aI95
asg36
(issf_api
FeatureSet
p4218
(dp4219
g12
(dp4220
S'name'
p4221
g4118
sS'drel'
p4222
S'k1:VGNN'
p4223
ssbsba(issf_api
Chunk
p4224
(dp4225
g3345
g1938
sg30
I2
sg3456
g1943
sg31
I3
sg3336
(lp4226
I96
asg36
(issf_api
FeatureSet
p4227
(dp4228
g12
(dp4229
S'name'
p4230
g4112
sS'drel'
p4231
S'k1:VGF'
p4232
ssbsba(issf_api
Chunk
p4233
(dp4234
g3345
g1957
sg30
I3
sg3456
g1966
sg31
I3
sg3336
(lp4235
I97
asg36
(issf_api
FeatureSet
p4236
(dp4237
g12
(dp4238
S'name'
p4239
g4120
sS'drel'
p4240
S'ccof:CCP'
p4241
ssbsba(issf_api
Chunk
p4242
(dp4243
g3345
g1980
sg30
I4
sg3456
g1985
sg31
I3
sg3336
(lp4244
I98
asg36
(issf_api
FeatureSet
p4245
(dp4246
g12
(dp4247
S'name'
p4248
g4119
sS'drel'
p4249
S'k2:VGNN'
p4250
ssbsba(issf_api
Chunk
p4251
(dp4252
g3345
g1999
sg30
I5
sg3456
g2004
sg31
I3
sg3336
(lp4253
I99
asg36
(issf_api
FeatureSet
p4254
(dp4255
g12
(dp4256
S'name'
p4257
g4095
sS'drel'
p4258
S'adv:VGF2'
p4259
ssbsba(issf_api
Chunk
p4260
(dp4261
g3345
g2020
sg30
I6
sg3456
g2031
sg31
I3
sg3336
(lp4262
I100
aI101
asg36
(issf_api
FeatureSet
p4263
(dp4264
g12
(dp4265
S'name'
p4266
g4150
sS'drel'
p4267
S'k2:VGNN2'
p4268
ssbsba(issf_api
Chunk
p4269
(dp4270
g3345
g2062
sg30
I7
sg3456
g2067
sg31
I3
sg3336
(lp4271
I102
asg36
(issf_api
FeatureSet
p4272
(dp4273
g12
(dp4274
S'name'
p4275
g4149
sS'drel'
p4276
S'pof:VGNN2'
p4277
ssbsba(issf_api
Chunk
p4278
(dp4279
g3345
g2081
sg30
I8
sg3456
g2088
sg31
I3
sg3336
(lp4280
I103
aI104
asg36
(issf_api
FeatureSet
p4281
(dp4282
g12
(dp4283
S'name'
p4284
g4143
sS'drel'
p4285
S'r6:NP3'
p4286
ssbsba(issf_api
Chunk
p4287
(dp4288
g3345
g2121
sg30
I9
sg3456
g2130
sg31
I3
sg3336
(lp4289
I105
asg36
(issf_api
FeatureSet
p4290
(dp4291
g12
(dp4292
S'name'
p4293
g4181
sS'drel'
p4294
S'r6:NP4'
p4295
ssbsba(issf_api
Chunk
p4296
(dp4297
g3345
g2169
sg30
I10
sg3456
g2174
sg31
I3
sg3336
(lp4298
I106
aI107
asg36
(issf_api
FeatureSet
p4299
(dp4300
g12
(dp4301
S'name'
p4302
g4096
sS'drel'
p4303
S'k1:VGF2'
p4304
ssbsba(issf_api
Chunk
p4305
(dp4306
g3345
g2205
sg30
I11
sg3456
g2214
sg31
I3
sg3336
(lp4307
I108
aI109
aI110
asg36
(issf_api
FeatureSet
p4308
(dp4309
g12
(dp4310
S'name'
p4311
g4089
sS'drel'
p4312
S'ccof:CCP2'
p4313
ssbsba(issf_api
Chunk
p4314
(dp4315
g3345
g2245
sg30
I12
sg3456
g2250
sg31
I3
sg3336
(lp4316
I111
asg36
(issf_api
FeatureSet
p4317
(dp4318
g12
(dp4319
S'name'
p4320
g4097
sS'drel'
p4321
S'vmod:VGF2'
p4322
ssbsba(issf_api
Chunk
p4323
(dp4324
g3345
g2264
sg30
I13
sg3456
g2271
sg31
I3
sg3336
(lp4325
I112
aI113
aI114
asg36
(issf_api
FeatureSet
p4326
(dp4327
g12
(dp4328
S'name'
p4329
g4110
sS'drel'
p4330
S'k7t:VGNN3'
p4331
ssbsba(issf_api
Chunk
p4332
(dp4333
g3345
g2319
sg30
I14
sg3456
g2324
sg31
I3
sg3336
(lp4334
I115
asg36
(issf_api
FeatureSet
p4335
(dp4336
g12
(dp4337
S'name'
p4338
g4111
sS'drel'
p4339
S'pof:VGNN3'
p4340
ssbsba(issf_api
Chunk
p4341
(dp4342
g3345
g2338
sg30
I15
sg3456
g2345
sg31
I3
sg3336
(lp4343
I116
aI117
asg36
(issf_api
FeatureSet
p4344
(dp4345
g12
(dp4346
S'name'
p4347
g4104
sS'drel'
p4348
S'k7:VGF3'
p4349
ssbsba(issf_api
Chunk
p4350
(dp4351
g3345
g2393
sg30
I16
sg3456
g2398
sg31
I3
sg3336
(lp4352
I118
aI119
asg36
(issf_api
FeatureSet
p4353
(dp4354
g12
(dp4355
S'name'
p4356
g4098
sS'drel'
p4357
S'k2:VGF3'
p4358
ssbsba(issf_api
Chunk
p4359
(dp4360
g3345
g2412
sg30
I17
sg3456
g2417
sg31
I3
sg3336
(lp4361
I120
asg36
(issf_api
FeatureSet
p4362
(dp4363
g12
(dp4364
S'name'
p4365
g4132
sS'drel'
p4366
S'pof:VGF3'
p4367
ssbsba(issf_api
Chunk
p4368
(dp4369
g3345
g2431
sg30
I18
sg3456
g2442
sg31
I3
sg3336
(lp4370
I121
aI122
aI123
aI124
asg36
(issf_api
FeatureSet
p4371
(dp4372
g12
(dp4373
S'name'
p4374
g4126
sS'drel'
p4375
S'ccof:CCP3'
p4376
ssbsba(issf_api
Chunk
p4377
(dp4378
g3345
g2507
sg30
I19
sg3456
g2512
sg31
I3
sg3336
(lp4379
I125
asg36
(issf_api
FeatureSet
p4380
(dp4381
g12
(dp4382
S'name'
p4383
g4137
sS'drel'
p4384
S'rsym:CCP'
p4385
ssbsbasba(issf_api
Sentence
p4386
(dp4387
g3334
(lp4388
sg31
I4
sg3336
(lp4389
I126
aI127
aI128
aI129
aI130
aI131
aI132
aI133
aI134
aI135
aI136
aI137
aI138
aI139
aI140
aI141
aI142
aI143
aI144
aI145
aI146
aI147
aI148
aI149
aI150
aI151
asg3338
(dp4390
S'VGF2'
p4391
(issf_api
Node
p4392
(dp4393
g3343
S'ccof'
p4394
sg3345
g4391
sg3346
S'CCP'
p4395
sg3348
I-1
sg30
I13
sg3349
(lp4396
S'NP10'
p4397
aS'JJP'
p4398
aS'NP9'
p4399
aS'NP8'
p4400
asbsg4397
(issf_api
Node
p4401
(dp4402
g3343
S'k2'
p4403
sg3345
g4397
sg3346
S'VGF2'
p4404
sg3348
I-1
sg30
I11
sg3349
(lp4405
sbsS'VGF'
p4406
(issf_api
Node
p4407
(dp4408
g3343
S'ccof'
p4409
sg3345
g4406
sg3346
S'CCP'
p4410
sg3348
I-1
sg30
I6
sg3349
(lp4411
S'NP5'
p4412
aS'NP4'
p4413
aS'NP6'
p4414
asbsS'CCP'
p4415
(issf_api
Node
p4416
(dp4417
g3343
g3438
sg3345
g4415
sg3346
g3438
sg3348
I-1
sg30
I7
sg3349
(lp4418
g4391
ag4406
aS'BLK'
p4419
asbsg4398
(issf_api
Node
p4420
(dp4421
g3343
S'pof'
p4422
sg3345
g4398
sg3346
S'VGF2'
p4423
sg3348
I-1
sg30
I12
sg3349
(lp4424
sbsg4412
(issf_api
Node
p4425
(dp4426
g3343
S'k7t'
p4427
sg3345
g4412
sg3346
S'VGF'
p4428
sg3348
I-1
sg30
I4
sg3349
(lp4429
sbsg4399
(issf_api
Node
p4430
(dp4431
g3343
S'vmod'
p4432
sg3345
g4399
sg3346
S'VGF2'
p4433
sg3348
I-1
sg30
I10
sg3349
(lp4434
sbsg4400
(issf_api
Node
p4435
(dp4436
g3343
S'k7'
p4437
sg3345
g4400
sg3346
S'VGF2'
p4438
sg3348
I-1
sg30
I9
sg3349
(lp4439
S'NP7'
p4440
asbsg4419
(issf_api
Node
p4441
(dp4442
g3343
S'rsym'
p4443
sg3345
g4419
sg3346
S'CCP'
p4444
sg3348
I-1
sg30
I14
sg3349
(lp4445
sbsS'NP'
p4446
(issf_api
Node
p4447
(dp4448
g3343
S'ras-k2'
p4449
sg3345
g4446
sg3346
S'NP2'
p4450
sg3348
I-1
sg30
I0
sg3349
(lp4451
sbsg4413
(issf_api
Node
p4452
(dp4453
g3343
S'pof'
p4454
sg3345
g4413
sg3346
S'VGF'
p4455
sg3348
I-1
sg30
I3
sg3349
(lp4456
S'NP3'
p4457
asbsg4440
(issf_api
Node
p4458
(dp4459
g3343
S'r6'
p4460
sg3345
g4440
sg3346
S'NP8'
p4461
sg3348
I-1
sg30
I8
sg3349
(lp4462
sbsg4414
(issf_api
Node
p4463
(dp4464
g3343
S'k1'
p4465
sg3345
g4414
sg3346
S'VGF'
p4466
sg3348
I-1
sg30
I5
sg3349
(lp4467
sbsg4457
(issf_api
Node
p4468
(dp4469
g3343
S'r6-k2'
p4470
sg3345
g4457
sg3346
S'NP4'
p4471
sg3348
I-1
sg30
I2
sg3349
(lp4472
S'NP2'
p4473
asbsg4473
(issf_api
Node
p4474
(dp4475
g3343
S'r6'
p4476
sg3345
g4473
sg3346
S'NP3'
p4477
sg3348
I-1
sg30
I1
sg3349
(lp4478
g4446
asbssg3452
(lp4479
(issf_api
Chunk
p4480
(dp4481
g3345
g2528
sg30
I0
sg3456
g2541
sg31
I4
sg3336
(lp4482
I126
aI127
asg36
(issf_api
FeatureSet
p4483
(dp4484
g12
(dp4485
S'name'
p4486
g4446
sS'drel'
p4487
S'ras-k2:NP2'
p4488
ssbsba(issf_api
Chunk
p4489
(dp4490
g3345
g2576
sg30
I1
sg3456
g2585
sg31
I4
sg3336
(lp4491
I128
aI129
asg36
(issf_api
FeatureSet
p4492
(dp4493
g12
(dp4494
S'name'
p4495
g4473
sS'drel'
p4496
S'r6:NP3'
p4497
ssbsba(issf_api
Chunk
p4498
(dp4499
g3345
g2620
sg30
I2
sg3456
g2635
sg31
I4
sg3336
(lp4500
I130
aI131
asg36
(issf_api
FeatureSet
p4501
(dp4502
g12
(dp4503
S'name'
p4504
g4457
sS'drel'
p4505
S'r6-k2:NP4'
p4506
ssbsba(issf_api
Chunk
p4507
(dp4508
g3345
g2668
sg30
I3
sg3456
g2679
sg31
I4
sg3336
(lp4509
I132
asg36
(issf_api
FeatureSet
p4510
(dp4511
g12
(dp4512
S'name'
p4513
g4413
sS'drel'
p4514
S'pof:VGF'
p4515
ssbsba(issf_api
Chunk
p4516
(dp4517
g3345
g2693
sg30
I4
sg3456
g2698
sg31
I4
sg3336
(lp4518
I133
asg36
(issf_api
FeatureSet
p4519
(dp4520
g12
(dp4521
S'name'
p4522
g4412
sS'drel'
p4523
S'k7t:VGF'
p4524
ssbsba(issf_api
Chunk
p4525
(dp4526
g3345
g2733
sg30
I5
sg3456
g2742
sg31
I4
sg3336
(lp4527
I134
aI135
asg36
(issf_api
FeatureSet
p4528
(dp4529
g12
(dp4530
S'name'
p4531
g4414
sS'drel'
p4532
S'k1:VGF'
p4533
ssbsba(issf_api
Chunk
p4534
(dp4535
g3345
g2756
sg30
I6
sg3456
g2767
sg31
I4
sg3336
(lp4536
I136
aI137
aI138
asg36
(issf_api
FeatureSet
p4537
(dp4538
g12
(dp4539
S'name'
p4540
g4406
sS'drel'
p4541
S'ccof:CCP'
p4542
ssbsba(issf_api
Chunk
p4543
(dp4544
g3345
g2811
sg30
I7
sg3456
g2818
sg31
I4
sg3336
(lp4545
I139
asg36
(issf_api
FeatureSet
p4546
(dp4547
g12
(dp4548
S'name'
p4549
g4415
ssbsba(issf_api
Chunk
p4550
(dp4551
g3345
g2834
sg30
I8
sg3456
g2843
sg31
I4
sg3336
(lp4552
I140
asg36
(issf_api
FeatureSet
p4553
(dp4554
g12
(dp4555
S'name'
p4556
g4440
sS'drel'
p4557
S'r6:NP8'
p4558
ssbsba(issf_api
Chunk
p4559
(dp4560
g3345
g2857
sg30
I9
sg3456
g2864
sg31
I4
sg3336
(lp4561
I141
aI142
asg36
(issf_api
FeatureSet
p4562
(dp4563
g12
(dp4564
S'name'
p4565
g4400
sS'drel'
p4566
S'k7:VGF2'
p4567
ssbsba(issf_api
Chunk
p4568
(dp4569
g3345
g2897
sg30
I10
sg3456
g2908
sg31
I4
sg3336
(lp4570
I143
aI144
aI145
asg36
(issf_api
FeatureSet
p4571
(dp4572
g12
(dp4573
S'name'
p4574
g4399
sS'drel'
p4575
S'vmod:VGF2'
p4576
ssbsba(issf_api
Chunk
p4577
(dp4578
g3345
g2956
sg30
I11
sg3456
g2961
sg31
I4
sg3336
(lp4579
I146
asg36
(issf_api
FeatureSet
p4580
(dp4581
g12
(dp4582
S'name'
p4583
g4397
sS'drel'
p4584
S'k2:VGF2'
p4585
ssbsba(issf_api
Chunk
p4586
(dp4587
g3345
g2975
sg30
I12
sg3456
g2980
sg31
I4
sg3336
(lp4588
I147
asg36
(issf_api
FeatureSet
p4589
(dp4590
g12
(dp4591
S'name'
p4592
g4398
sS'drel'
p4593
S'pof:VGF2'
p4594
ssbsba(issf_api
Chunk
p4595
(dp4596
g3345
g2994
sg30
I13
sg3456
g3005
sg31
I4
sg3336
(lp4597
I148
aI149
aI150
asg36
(issf_api
FeatureSet
p4598
(dp4599
g12
(dp4600
S'name'
p4601
g4391
sS'drel'
p4602
S'ccof:CCP'
p4603
ssbsba(issf_api
Chunk
p4604
(dp4605
g3345
g3053
sg30
I14
sg3456
g3058
sg31
I4
sg3336
(lp4606
I151
asg36
(issf_api
FeatureSet
p4607
(dp4608
g12
(dp4609
S'name'
p4610
g4419
sS'drel'
p4611
S'rsym:CCP'
p4612
ssbsbasba(issf_api
Sentence
p4613
(dp4614
g3334
(lp4615
sg31
I5
sg3336
(lp4616
I152
aI153
aI154
aI155
aI156
aI157
aI158
aI159
aI160
aI161
aI162
aI163
aI164
asg3338
(dp4617
S'VGF'
p4618
(issf_api
Node
p4619
(dp4620
g3343
g3438
sg3345
g4618
sg3346
g3438
sg3348
I-1
sg30
I4
sg3349
(lp4621
S'BLK'
p4622
aS'NP'
p4623
aS'NP4'
p4624
aS'NP3'
p4625
asbsg4622
(issf_api
Node
p4626
(dp4627
g3343
S'rsym'
p4628
sg3345
g4622
sg3346
S'VGF'
p4629
sg3348
I-1
sg30
I5
sg3349
(lp4630
sbsg4623
(issf_api
Node
p4631
(dp4632
g3343
S'k4'
p4633
sg3345
g4623
sg3346
S'VGF'
p4634
sg3348
I-1
sg30
I0
sg3349
(lp4635
sbsg4624
(issf_api
Node
p4636
(dp4637
g3343
S'k7'
p4638
sg3345
g4624
sg3346
S'VGF'
p4639
sg3348
I-1
sg30
I3
sg3349
(lp4640
sbsg4625
(issf_api
Node
p4641
(dp4642
g3343
S'k2'
p4643
sg3345
g4625
sg3346
S'VGF'
p4644
sg3348
I-1
sg30
I2
sg3349
(lp4645
S'NP2'
p4646
asbsg4646
(issf_api
Node
p4647
(dp4648
g3343
S'r6'
p4649
sg3345
g4646
sg3346
S'NP3'
p4650
sg3348
I-1
sg30
I1
sg3349
(lp4651
sbssg3452
(lp4652
(issf_api
Chunk
p4653
(dp4654
g3345
g3074
sg30
I0
sg3456
g3085
sg31
I5
sg3336
(lp4655
I152
aI153
asg36
(issf_api
FeatureSet
p4656
(dp4657
g12
(dp4658
S'name'
p4659
g4623
sS'drel'
p4660
S'k4:VGF'
p4661
ssbsba(issf_api
Chunk
p4662
(dp4663
g3345
g3141
sg30
I1
sg3456
g3154
sg31
I5
sg3336
(lp4664
I154
aI155
aI156
asg36
(issf_api
FeatureSet
p4665
(dp4666
g12
(dp4667
S'name'
p4668
g4646
sS'drel'
p4669
S'r6:NP3'
p4670
ssbsba(issf_api
Chunk
p4671
(dp4672
g3345
g3187
sg30
I2
sg3456
g3198
sg31
I5
sg3336
(lp4673
I157
asg36
(issf_api
FeatureSet
p4674
(dp4675
g12
(dp4676
S'name'
p4677
g4625
sS'drel'
p4678
S'k2:VGF'
p4679
ssbsba(issf_api
Chunk
p4680
(dp4681
g3345
g3212
sg30
I3
sg3456
g3219
sg31
I5
sg3336
(lp4682
I158
aI159
aI160
asg36
(issf_api
FeatureSet
p4683
(dp4684
g12
(dp4685
S'name'
p4686
g4624
sS'drel'
p4687
S'k7:VGF'
p4688
ssbsba(issf_api
Chunk
p4689
(dp4690
g3345
g3267
sg30
I4
sg3456
g3276
sg31
I5
sg3336
(lp4691
I161
aI162
aI163
asg36
(issf_api
FeatureSet
p4692
(dp4693
g12
(dp4694
S'name'
p4695
g4618
ssbsba(issf_api
Chunk
p4696
(dp4697
g3345
g3324
sg30
I5
sg3456
g3329
sg31
I5
sg3336
(lp4698
I164
asg36
(issf_api
FeatureSet
p4699
(dp4700
g12
(dp4701
S'name'
p4702
g4622
sS'drel'
p4703
S'rsym:VGF'
p4704
ssbsbasbasb.