(issf_api
SSFInfo
p0
(dp1
S'globalWordList'
p2
(lp3
(issf_api
Word
p4
(dp5
S'splitConn'
p6
I00
sS'word'
p7
V\u092a\u0936\u094d\u091a\u093f\u092e
p8
sS'extraFeatureSet'
p9
(issf_api
FeatureSet
p10
(dp11
S'featureDict'
p12
(dp13
S'posn'
p14
S'10'
p15
sS'name'
p16
S'\xe0\xa4\xaa\xe0\xa4\xb6\xe0\xa5\x8d\xe0\xa4\x9a\xe0\xa4\xbf\xe0\xa4\xae'
p17
sS'af'
p18
S'\xe0\xa4\xaa\xe0\xa4\xb6\xe0\xa5\x8d\xe0\xa4\x9a\xe0\xa4\xbf\xe0\xa4\xae,n,m,sg,3,d,0,0'
p19
sS'drel'
p20
S'pof__cn:NP'
p21
sS'chunktype'
p22
S'child:NP'
p23
sS'cref'
p24
S'i1%0:t1'
p25
ssbsS'arg1'
p26
I00
sS'arg2'
p27
I00
sS'sense'
p28
NsS'arg1Span'
p29
NsS'chunkNum'
p30
I0
sS'sentenceNum'
p31
I0
sS'relationNum'
p32
NsS'arg2Span'
p33
NsS'wordTag'
p34
S'NNPC'
p35
sS'featureSet'
p36
g10
sS'conn'
p37
I00
sba(issf_api
Word
p38
(dp39
g6
I00
sg7
V\u092c\u0902\u0917\u093e\u0932
p40
sg9
(issf_api
FeatureSet
p41
(dp42
g12
(dp43
S'crefhead'
p44
S'\xe0\xa4\xac\xe0\xa4\x82\xe0\xa4\x97\xe0\xa4\xbe\xe0\xa4\xb2:i1'
p45
sS'posn'
p46
S'20'
p47
sS'name'
p48
S'\xe0\xa4\xac\xe0\xa4\x82\xe0\xa4\x97\xe0\xa4\xbe\xe0\xa4\xb2'
p49
sS'af'
p50
S'\xe0\xa4\xac\xe0\xa4\x82\xe0\xa4\x97\xe0\xa4\xbe\xe0\xa4\xb2,n,m,sg,3,o,0_\xe0\xa4\xae\xe0\xa5\x87\xe0\xa4\x82,0'
p51
sS'chunkid'
p52
S'NP'
p53
sS'chunktype'
p54
S'head:NP'
p55
sS'crefchainhead'
p56
S'i1:t1'
p57
sS'vpos'
p58
S'vib_3'
p59
sS'cref'
p60
S'i1%1:t1'
p61
sS'drel'
p62
S'k7p:VGF'
p63
ssbsg26
I00
sg27
I00
sg28
Nsg29
Nsg30
I0
sg31
I0
sg32
Nsg33
Nsg34
S'NNP'
p64
sg36
g41
sg37
I00
sba(issf_api
Word
p65
(dp66
g6
I00
sg7
V\u092e\u0947\u0902
p67
sg9
(issf_api
FeatureSet
p68
(dp69
g12
(dp70
S'posn'
p71
S'30'
p72
sS'name'
p73
S'\xe0\xa4\xae\xe0\xa5\x87\xe0\xa4\x82'
p74
sS'drel'
p75
S'lwg__psp:NP'
p76
sS'chunktype'
p77
S'child:NP'
p78
sS'af'
p79
S'\xe0\xa4\xae\xe0\xa5\x87\xe0\xa4\x82,psp,,,,,,'
p80
ssbsg26
I00
sg27
I00
sg28
Nsg29
Nsg30
I0
sg31
I0
sg32
Nsg33
Nsg34
S'PSP'
p81
sg36
g68
sg37
I00
sba(issf_api
Word
p82
(dp83
g6
I00
sg7
V\u091f\u0948\u0915\u094d\u0938\u0940
p84
sg9
(issf_api
FeatureSet
p85
(dp86
g12
(dp87
S'posn'
p88
S'40'
p89
sS'name'
p90
S'\xe0\xa4\x9f\xe0\xa5\x88\xe0\xa4\x95\xe0\xa5\x8d\xe0\xa4\xb8\xe0\xa5\x80'
p91
sS'af'
p92
S'\xe0\xa4\x9f\xe0\xa5\x88\xe0\xa4\x95\xe0\xa5\x8d\xe0\xa4\xb8\xe0\xa5\x80,n,f,sg,3,d,0,0'
p93
sS'drel'
p94
S'pof__cn:NP2'
p95
sS'chunktype'
p96
S'child:NP2'
p97
sS'cref'
p98
S'i2%0:t2'
p99
ssbsg26
I00
sg27
I00
sg28
Nsg29
Nsg30
I1
sg31
I0
sg32
Nsg33
Nsg34
S'NNC'
p100
sg36
g85
sg37
I00
sba(issf_api
Word
p101
(dp102
g6
I00
sg7
V\u092e\u093e\u0932\u093f\u0915\u094b\u0902
p103
sg9
(issf_api
FeatureSet
p104
(dp105
g12
(dp106
S'crefhead'
p107
S'\xe0\xa4\xae\xe0\xa4\xbe\xe0\xa4\xb2\xe0\xa4\xbf\xe0\xa4\x95\xe0\xa5\x8b\xe0\xa4\x82:i2'
p108
sS'posn'
p109
S'50'
p110
sS'name'
p111
S'\xe0\xa4\xae\xe0\xa4\xbe\xe0\xa4\xb2\xe0\xa4\xbf\xe0\xa4\x95\xe0\xa5\x8b\xe0\xa4\x82'
p112
sS'af'
p113
S'\xe0\xa4\xae\xe0\xa4\xbe\xe0\xa4\xb2\xe0\xa4\xbf\xe0\xa4\x95,n,m,pl,3,o,0_\xe0\xa4\xa8\xe0\xa5\x87,0'
p114
sS'chunkid'
p115
S'NP2'
p116
sS'chunktype'
p117
S'head:NP2'
p118
sS'crefchainhead'
p119
S'i2:t2'
p120
sS'vpos'
p121
S'vib_3'
p122
sS'cref'
p123
S'i2%1:t2'
p124
sS'drel'
p125
S'k1:VGF'
p126
ssbsg26
I00
sg27
I00
sg28
Nsg29
Nsg30
I1
sg31
I0
sg32
Nsg33
Nsg34
S'NN'
p127
sg36
g104
sg37
I00
sba(issf_api
Word
p128
(dp129
g6
I00
sg7
V\u0928\u0947
p130
sg9
(issf_api
FeatureSet
p131
(dp132
g12
(dp133
S'posn'
p134
S'60'
p135
sS'name'
p136
S'\xe0\xa4\xa8\xe0\xa5\x87'
p137
sS'drel'
p138
S'lwg__psp:NP2'
p139
sS'chunktype'
p140
S'child:NP2'
p141
sS'af'
p142
S'\xe0\xa4\xa8\xe0\xa5\x87,psp,,,,,,'
p143
ssbsg26
I00
sg27
I00
sg28
Nsg29
Nsg30
I1
sg31
I0
sg32
Nsg33
Nsg34
S'PSP'
p144
sg36
g131
sg37
I00
sba(issf_api
Word
p145
(dp146
g6
I00
sg7
V\u0915\u093f\u0930\u093e\u092f\u093e
p147
sg9
(issf_api
FeatureSet
p148
(dp149
g12
(dp150
S'posn'
p151
S'70'
p152
sS'name'
p153
S'\xe0\xa4\x95\xe0\xa4\xbf\xe0\xa4\xb0\xe0\xa4\xbe\xe0\xa4\xaf\xe0\xa4\xbe'
p154
sS'drel'
p155
S'pof__cn:NP3'
p156
sS'chunktype'
p157
S'child:NP3'
p158
sS'af'
p159
S'\xe0\xa4\x95\xe0\xa4\xbf\xe0\xa4\xb0\xe0\xa4\xbe\xe0\xa4\xaf\xe0\xa4\xbe,n,m,sg,3,d,0,0'
p160
ssbsg26
I00
sg27
I00
sg28
Nsg29
Nsg30
I2
sg31
I0
sg32
Nsg33
Nsg34
S'NNC'
p161
sg36
g148
sg37
I00
sba(issf_api
Word
p162
(dp163
g6
I00
sg7
V\u0935\u0943\u0926\u094d\u0927\u093f
p164
sg9
(issf_api
FeatureSet
p165
(dp166
g12
(dp167
S'posn'
p168
S'80'
p169
sS'name'
p170
S'\xe0\xa4\xb5\xe0\xa5\x83\xe0\xa4\xa6\xe0\xa5\x8d\xe0\xa4\xa7\xe0\xa4\xbf'
p171
sS'af'
p172
S'\xe0\xa4\xb5\xe0\xa5\x83\xe0\xa4\xa6\xe0\xa5\x8d\xe0\xa4\xa7\xe0\xa4\xbf,n,f,sg,3,o,0_\xe0\xa4\x95\xe0\xa4\xbe,0'
p173
sS'chunkid'
p174
S'NP3'
p175
sS'drel'
p176
S'r6:NP4'
p177
sS'vpos'
p178
S'vib_3'
p179
sS'chunktype'
p180
S'head:NP3'
p181
ssbsg26
I00
sg27
I00
sg28
Nsg29
Nsg30
I2
sg31
I0
sg32
Nsg33
Nsg34
S'NN'
p182
sg36
g165
sg37
I00
sba(issf_api
Word
p183
(dp184
g6
I00
sg7
V\u0915\u0940
p185
sg9
(issf_api
FeatureSet
p186
(dp187
g12
(dp188
S'posn'
p189
S'90'
p190
sS'name'
p191
S'\xe0\xa4\x95\xe0\xa5\x80'
p192
sS'drel'
p193
S'lwg__psp:NP3'
p194
sS'chunktype'
p195
S'child:NP3'
p196
sS'af'
p197
S'\xe0\xa4\x95\xe0\xa4\xbe,psp,f,sg,,o,,'
p198
ssbsg26
I00
sg27
I00
sg28
Nsg29
Nsg30
I2
sg31
I0
sg32
Nsg33
Nsg34
S'PSP'
p199
sg36
g186
sg37
I00
sba(issf_api
Word
p200
(dp201
g6
I00
sg7
V\u092e\u093e\u0901\u0917
p202
sg9
(issf_api
FeatureSet
p203
(dp204
g12
(dp205
S'posn'
p206
S'100'
p207
sS'name'
p208
S'\xe0\xa4\xae\xe0\xa4\xbe\xe0\xa4\x81\xe0\xa4\x97'
p209
sS'af'
p210
S'\xe0\xa4\xae\xe0\xa4\xbe\xe0\xa4\x81\xe0\xa4\x97,n,f,sg,3,o,0_\xe0\xa4\x95\xe0\xa5\x8b,0'
p211
sS'chunkid'
p212
S'NP4'
p213
sS'drel'
p214
S'k2:VGNF'
p215
sS'vpos'
p216
S'vib_2'
p217
sS'chunktype'
p218
S'head:NP4'
p219
ssbsg26
I00
sg27
I00
sg28
Nsg29
Nsg30
I3
sg31
I0
sg32
Nsg33
Nsg34
S'NN'
p220
sg36
g203
sg37
I00
sba(issf_api
Word
p221
(dp222
g6
I00
sg7
V\u0915\u094b
p223
sg9
(issf_api
FeatureSet
p224
(dp225
g12
(dp226
S'posn'
p227
S'110'
p228
sS'name'
p229
S'\xe0\xa4\x95\xe0\xa5\x8b'
p230
sS'drel'
p231
S'lwg__psp:NP4'
p232
sS'chunktype'
p233
S'child:NP4'
p234
sS'af'
p235
S'\xe0\xa4\x95\xe0\xa5\x8b,psp,,,,,,'
p236
ssbsg26
I00
sg27
I00
sg28
Nsg29
Nsg30
I3
sg31
I0
sg32
Nsg33
Nsg34
S'PSP'
p237
sg36
g224
sg37
I00
sba(issf_api
Word
p238
(dp239
g6
I00
sg7
V\u0932\u0947\u0915\u0930
p240
sg9
(issf_api
FeatureSet
p241
(dp242
g12
(dp243
S'posn'
p244
S'120'
p245
sS'name'
p246
S'\xe0\xa4\xb2\xe0\xa5\x87\xe0\xa4\x95\xe0\xa4\xb0'
p247
sS'af'
p248
S'\xe0\xa4\xb2\xe0\xa5\x87,v,any,any,any,,\xe0\xa4\x95\xe0\xa4\xb0,kara'
p249
sS'chunkid'
p250
S'VGNF'
p251
sS'drel'
p252
S'vmod:VGF'
p253
sS'chunktype'
p254
S'head:VGNF'
p255
ssbsg26
I00
sg27
I00
sg28
Nsg29
Nsg30
I4
sg31
I0
sg32
Nsg33
Nsg34
S'VM'
p256
sg36
g241
sg37
I00
sba(issf_api
Word
p257
(dp258
g6
I00
sg7
V\u092e\u0902\u0917\u0932\u0935\u093e\u0930
p259
sg9
(issf_api
FeatureSet
p260
(dp261
g12
(dp262
S'posn'
p263
S'130'
p264
sS'name'
p265
S'\xe0\xa4\xae\xe0\xa4\x82\xe0\xa4\x97\xe0\xa4\xb2\xe0\xa4\xb5\xe0\xa4\xbe\xe0\xa4\xb0'
p266
sS'af'
p267
S'\xe0\xa4\xae\xe0\xa4\x82\xe0\xa4\x97\xe0\xa4\xb2\xe0\xa4\xb5\xe0\xa4\xbe\xe0\xa4\xb0,n,m,sg,3,o,0_\xe0\xa4\x95\xe0\xa5\x8b,0'
p268
sS'chunkid'
p269
S'NP5'
p270
sS'drel'
p271
S'k7t:VGNN'
p272
sS'vpos'
p273
S'vib_2'
p274
sS'chunktype'
p275
S'head:NP5'
p276
ssbsg26
I00
sg27
I00
sg28
Nsg29
Nsg30
I5
sg31
I0
sg32
Nsg33
Nsg34
S'NNP'
p277
sg36
g260
sg37
I00
sba(issf_api
Word
p278
(dp279
g6
I00
sg7
V\u0915\u094b
p280
sg9
(issf_api
FeatureSet
p281
(dp282
g12
(dp283
S'posn'
p284
S'140'
p285
sS'name'
p286
S'\xe0\xa4\x95\xe0\xa5\x8b2'
p287
sS'drel'
p288
S'lwg__psp:NP5'
p289
sS'chunktype'
p290
S'child:NP5'
p291
sS'af'
p292
S'\xe0\xa4\x95\xe0\xa5\x8b,psp,,,,,,'
p293
ssbsg26
I00
sg27
I00
sg28
Nsg29
Nsg30
I5
sg31
I0
sg32
Nsg33
Nsg34
S'PSP'
p294
sg36
g281
sg37
I00
sba(issf_api
Word
p295
(dp296
g6
I00
sg7
V\u090f\u0915
p297
sg9
(issf_api
FeatureSet
p298
(dp299
g12
(dp300
S'posn'
p301
S'150'
p302
sS'name'
p303
S'\xe0\xa4\x8f\xe0\xa4\x95'
p304
sS'af'
p305
S'\xe0\xa4\x8f\xe0\xa4\x95,num,any,any,,any,,'
p306
sS'acrefmod'
p307
S'm1%0:i3'
p308
sS'drel'
p309
S'nmod__adj:NP6'
p310
sS'chunktype'
p311
S'child:NP6'
p312
ssbsg26
I00
sg27
I00
sg28
Nsg29
Nsg30
I6
sg31
I0
sg32
Nsg33
Nsg34
S'QC'
p313
sg36
g298
sg37
I00
sba(issf_api
Word
p314
(dp315
g6
I00
sg7
V\u0926\u093f\u0928
p316
sg9
(issf_api
FeatureSet
p317
(dp318
g12
(dp319
S'posn'
p320
S'160'
p321
sS'name'
p322
S'\xe0\xa4\xa6\xe0\xa4\xbf\xe0\xa4\xa8'
p323
sS'af'
p324
S'\xe0\xa4\xa6\xe0\xa4\xbf\xe0\xa4\xa8,n,m,sg,3,o,0_\xe0\xa4\x95\xe0\xa4\xbe,0'
p325
sS'acrefmodhead'
p326
S'\xe0\xa4\xa6\xe0\xa4\xbf\xe0\xa4\xa8:m1'
p327
sS'chunkid'
p328
S'NP6'
p329
sS'acrefmod'
p330
S'm1%1:i3'
p331
sS'drel'
p332
S'r6:NP7'
p333
sS'vpos'
p334
S'vib_3'
p335
sS'chunktype'
p336
S'head:NP6'
p337
ssbsg26
I00
sg27
I00
sg28
Nsg29
Nsg30
I6
sg31
I0
sg32
Nsg33
Nsg34
S'NN'
p338
sg36
g317
sg37
I00
sba(issf_api
Word
p339
(dp340
g6
I00
sg7
V\u0915\u0940
p341
sg9
(issf_api
FeatureSet
p342
(dp343
g12
(dp344
S'posn'
p345
S'170'
p346
sS'name'
p347
S'\xe0\xa4\x95\xe0\xa5\x802'
p348
sS'drel'
p349
S'lwg__psp:NP6'
p350
sS'chunktype'
p351
S'child:NP6'
p352
sS'af'
p353
S'\xe0\xa4\x95\xe0\xa4\xbe,psp,f,sg,,d,,'
p354
ssbsg26
I00
sg27
I00
sg28
Nsg29
Nsg30
I6
sg31
I0
sg32
Nsg33
Nsg34
S'PSP'
p355
sg36
g342
sg37
I00
sba(issf_api
Word
p356
(dp357
g6
I00
sg7
V\u0939\u0921\u093c\u0924\u093e\u0932
p358
sg9
(issf_api
FeatureSet
p359
(dp360
g12
(dp361
S'crefhead'
p362
S'\xe0\xa4\xb9\xe0\xa4\xa1\xe0\xa4\xbc\xe0\xa4\xa4\xe0\xa4\xbe\xe0\xa4\xb2:i3'
p363
sS'posn'
p364
S'180'
p365
sS'name'
p366
S'\xe0\xa4\xb9\xe0\xa4\xa1\xe0\xa4\xbc\xe0\xa4\xa4\xe0\xa4\xbe\xe0\xa4\xb2'
p367
sS'af'
p368
S'\xe0\xa4\xb9\xe0\xa4\xa1\xe0\xa4\xbc\xe0\xa4\xa4\xe0\xa4\xbe\xe0\xa4\xb2,n,f,sg,3,d,0,0'
p369
sS'chunkid'
p370
S'NP7'
p371
sS'crefmod'
p372
S'm1:i3'
p373
sS'chunktype'
p374
S'head:NP7'
p375
sS'cref'
p376
S'i3%1:t3'
p377
sS'drel'
p378
S'k2:VGNN'
p379
ssbsg26
I00
sg27
I00
sg28
Nsg29
Nsg30
I7
sg31
I0
sg32
Nsg33
Nsg34
S'NN'
p380
sg36
g359
sg37
I00
sba(issf_api
Word
p381
(dp382
g6
I00
sg7
V\u0930\u0916\u0928\u0947
p383
sg9
(issf_api
FeatureSet
p384
(dp385
g12
(dp386
S'posn'
p387
S'190'
p388
sS'name'
p389
S'\xe0\xa4\xb0\xe0\xa4\x96\xe0\xa4\xa8\xe0\xa5\x87'
p390
sS'af'
p391
S'\xe0\xa4\xb0\xe0\xa4\x96,v,any,sg,3,o,\xe0\xa4\xa8\xe0\xa4\xbe_\xe0\xa4\x95\xe0\xa5\x87_\xe0\xa4\xac\xe0\xa4\xbe\xe0\xa4\xa6,nA'
p392
sS'chunkid'
p393
S'VGNN'
p394
sS'drel'
p395
S'k7t:VGF'
p396
sS'vpos'
p397
S'tam_2_3'
p398
sS'chunktype'
p399
S'head:VGNN'
p400
ssbsg26
I00
sg27
I00
sg28
Nsg29
Nsg30
I8
sg31
I0
sg32
Nsg33
Nsg34
S'VM'
p401
sg36
g384
sg37
I00
sba(issf_api
Word
p402
(dp403
g6
I00
sg7
V\u0915\u0947
p404
sg9
(issf_api
FeatureSet
p405
(dp406
g12
(dp407
S'posn'
p408
S'200'
p409
sS'name'
p410
S'\xe0\xa4\x95\xe0\xa5\x87'
p411
sS'drel'
p412
S'lwg__psp:VGNN'
p413
sS'chunktype'
p414
S'child:VGNN'
p415
sS'af'
p416
S'\xe0\xa4\x95\xe0\xa5\x87,psp,,,,,,'
p417
ssbsg26
I00
sg27
I00
sg28
Nsg29
Nsg30
I8
sg31
I0
sg32
Nsg33
Nsg34
S'PSP'
p418
sg36
g405
sg37
I00
sba(issf_api
Word
p419
(dp420
g6
I00
sg7
V\u092c\u093e\u0926
p421
sg9
(issf_api
FeatureSet
p422
(dp423
g12
(dp424
S'posn'
p425
S'210'
p426
sS'name'
p427
S'\xe0\xa4\xac\xe0\xa4\xbe\xe0\xa4\xa6'
p428
sS'drel'
p429
S'lwg__nst:VGNN'
p430
sS'chunktype'
p431
S'child:VGNN'
p432
sS'af'
p433
S'\xe0\xa4\xac\xe0\xa4\xbe\xe0\xa4\xa6,nst,m,sg,3,d,,'
p434
ssbsg26
I00
sg27
I00
sg28
Nsg29
Nsg30
I8
sg31
I0
sg32
Nsg33
Nsg34
S'NST'
p435
sg36
g422
sg37
I00
sba(issf_api
Word
p436
(dp437
g6
I00
sg7
V\u0905\u092a\u0928\u0940
p438
sg9
(issf_api
FeatureSet
p439
(dp440
g12
(dp441
S'crefhead'
p442
S'\xe0\xa4\x85\xe0\xa4\xaa\xe0\xa4\xa8\xe0\xa5\x80:i4'
p443
sS'posn'
p444
S'220'
p445
sS'name'
p446
S'\xe0\xa4\x85\xe0\xa4\xaa\xe0\xa4\xa8\xe0\xa5\x80'
p447
sS'af'
p448
S'\xe0\xa4\x85\xe0\xa4\xaa\xe0\xa4\xa8\xe0\xa4\xbe,pn,f,any,any,d,0,0'
p449
sS'acrefmodhead'
p450
S'\xe0\xa4\x85\xe0\xa4\xaa\xe0\xa4\xa8\xe0\xa5\x80:m2'
p451
sS'chunkid'
p452
S'NP8'
p453
sS'acrefmod'
p454
S'm2%1:i5'
p455
sS'creftype'
p456
S'Anaphora-C:i2'
p457
sS'chunktype'
p458
S'head:NP8'
p459
sS'cref'
p460
S'i4%1:t2'
p461
sS'drel'
p462
S'r6:NP9'
p463
ssbsg26
I00
sg27
I00
sg28
Nsg29
Nsg30
I9
sg31
I0
sg32
Nsg33
Nsg34
S'PRP'
p464
sg36
g439
sg37
I00
sba(issf_api
Word
p465
(dp466
g6
I00
sg7
V\u0905\u0928\u093f\u0936\u094d\u091a\u093f\u0924\u0915\u093e\u0932\u0940\u0928
p467
sg9
(issf_api
FeatureSet
p468
(dp469
g12
(dp470
S'posn'
p471
S'230'
p472
sS'name'
p473
S'\xe0\xa4\x85\xe0\xa4\xa8\xe0\xa4\xbf\xe0\xa4\xb6\xe0\xa5\x8d\xe0\xa4\x9a\xe0\xa4\xbf\xe0\xa4\xa4\xe0\xa4\x95\xe0\xa4\xbe\xe0\xa4\xb2\xe0\xa5\x80\xe0\xa4\xa8'
p474
sS'af'
p475
S'\xe0\xa4\x85\xe0\xa4\xa8\xe0\xa4\xbf\xe0\xa4\xb6\xe0\xa5\x8d\xe0\xa4\x9a\xe0\xa4\xbf\xe0\xa4\xa4\xe0\xa4\x95\xe0\xa4\xbe\xe0\xa4\xb2\xe0\xa5\x80\xe0\xa4\xa8,adj,any,any,,d,,'
p476
sS'acrefmod'
p477
S'm3%0:i6'
p478
sS'drel'
p479
S'nmod__adj:NP9'
p480
sS'chunktype'
p481
S'child:NP9'
p482
sS'cref'
p483
S'i5%0:t3'
p484
ssbsg26
I00
sg27
I00
sg28
Nsg29
Nsg30
I10
sg31
I0
sg32
Nsg33
Nsg34
S'JJ'
p485
sg36
g468
sg37
I00
sba(issf_api
Word
p486
(dp487
g6
I00
sg7
V\u0939\u0921\u093c\u0924\u093e\u0932
p488
sg9
(issf_api
FeatureSet
p489
(dp490
g12
(dp491
S'a'
p492
S''
p493
sS'crefhead'
p494
S'\xe0\xa4\xb9\xe0\xa4\xa1\xe0\xa4\xbc\xe0\xa4\xa4\xe0\xa4\xbe\xe0\xa4\xb2:i5'
p495
sS'name'
p496
S'\xe0\xa4\xb9\xe0\xa4\xa1\xe0\xa4\xbc\xe0\xa4\xa4\xe0\xa4\xbe\xe0\xa4\xb22'
p497
sS'af'
p498
S'\xe0\xa4\xb9\xe0\xa4\xa1\xe0\xa4\xbc\xe0\xa4\xa4\xe0\xa4\xbe\xe0\xa4\xb2,n,f,sg,3,d,0,0'
p499
sS'chunkid'
p500
S'NP9'
p501
sS'crefmod'
p502
S'm2:i5'
p503
sS'creftype'
p504
S'Coreference-RPartOf:i3'
p505
sS'chunktype'
p506
S'head:NP9'
p507
sS'crefchainhead'
p508
S'i5:t3'
p509
sS'posn'
p510
S'240'
p511
sS'cref'
p512
S'i5%1:t3'
p513
sS'drel'
p514
S'k2:VGNN2'
p515
ssbsg26
I00
sg27
I00
sg28
Nsg29
Nsg30
I10
sg31
I0
sg32
Nsg33
Nsg34
S'NN'
p516
sg36
g489
sg37
I00
sba(issf_api
Word
p517
(dp518
g6
I00
sg7
V\u0935\u093e\u092a\u0938
p519
sg9
(issf_api
FeatureSet
p520
(dp521
g12
(dp522
S'posn'
p523
S'250'
p524
sS'name'
p525
S'\xe0\xa4\xb5\xe0\xa4\xbe\xe0\xa4\xaa\xe0\xa4\xb8'
p526
sS'af'
p527
S'\xe0\xa4\xb5\xe0\xa4\xbe\xe0\xa4\xaa\xe0\xa4\xb8,adj,any,any,,,,'
p528
sS'chunkid'
p529
S'JJP'
p530
sS'acrefmod'
p531
S'm3%0:i6'
p532
sS'drel'
p533
S'pof:VGNN2'
p534
sS'chunktype'
p535
S'head:JJP'
p536
ssbsg26
I00
sg27
I00
sg28
Nsg29
Nsg30
I11
sg31
I0
sg32
Nsg33
Nsg34
S'JJ'
p537
sg36
g520
sg37
I00
sba(issf_api
Word
p538
(dp539
g6
I00
sg7
V\u0932\u0947\u0928\u0947
p540
sg9
(issf_api
FeatureSet
p541
(dp542
g12
(dp543
S'posn'
p544
S'260'
p545
sS'name'
p546
S'\xe0\xa4\xb2\xe0\xa5\x87\xe0\xa4\xa8\xe0\xa5\x87'
p547
sS'af'
p548
S'\xe0\xa4\xb2\xe0\xa5\x87,v,any,sg,any,o,\xe0\xa4\xa8\xe0\xa4\xbe_\xe0\xa4\x95\xe0\xa4\xbe,nA'
p549
sS'acrefmodhead'
p550
S'\xe0\xa4\xb2\xe0\xa5\x87\xe0\xa4\xa8\xe0\xa5\x87:m3'
p551
sS'chunkid'
p552
S'VGNN2'
p553
sS'acrefmod'
p554
S'm3%1:i6'
p555
sS'drel'
p556
S'r6-k2:NP10'
p557
sS'vpos'
p558
S'tam_2'
p559
sS'chunktype'
p560
S'head:VGNN2'
p561
ssbsg26
I00
sg27
I00
sg28
Nsg29
Nsg30
I12
sg31
I0
sg32
Nsg33
Nsg34
S'VM'
p562
sg36
g541
sg37
I00
sba(issf_api
Word
p563
(dp564
g6
I00
sg7
V\u0915\u093e
p565
sg9
(issf_api
FeatureSet
p566
(dp567
g12
(dp568
S'posn'
p569
S'270'
p570
sS'name'
p571
S'\xe0\xa4\x95\xe0\xa4\xbe'
p572
sS'drel'
p573
S'lwg__psp:VGNN2'
p574
sS'chunktype'
p575
S'child:VGNN2'
p576
sS'af'
p577
S'\xe0\xa4\x95\xe0\xa4\xbe,psp,m,sg,,d,,'
p578
ssbsg26
I00
sg27
I00
sg28
Nsg29
Nsg30
I12
sg31
I0
sg32
Nsg33
Nsg34
S'PSP'
p579
sg36
g566
sg37
I00
sba(issf_api
Word
p580
(dp581
g6
I00
sg7
V\u092b\u0948\u0938\u0932\u093e
p582
sg9
(issf_api
FeatureSet
p583
(dp584
g12
(dp585
S'crefhead'
p586
S'\xe0\xa4\xab\xe0\xa5\x88\xe0\xa4\xb8\xe0\xa4\xb2\xe0\xa4\xbe:i6'
p587
sS'posn'
p588
S'280'
p589
sS'name'
p590
S'\xe0\xa4\xab\xe0\xa5\x88\xe0\xa4\xb8\xe0\xa4\xb2\xe0\xa4\xbe'
p591
sS'af'
p592
S'\xe0\xa4\xab\xe0\xa5\x88\xe0\xa4\xb8\xe0\xa4\xb2\xe0\xa4\xbe,n,m,sg,3,d,0,0'
p593
sS'chunkid'
p594
S'NP10'
p595
sS'crefmod'
p596
S'm3:i6'
p597
sS'chunktype'
p598
S'head:NP10'
p599
sS'crefchainhead'
p600
S'i6:t4'
p601
sS'cref'
p602
S'i6%1:t4'
p603
sS'drel'
p604
S'pof:VGF'
p605
ssbsg26
I00
sg27
I00
sg28
Nsg29
Nsg30
I13
sg31
I0
sg32
Nsg33
Nsg34
S'NN'
p606
sg36
g583
sg37
I00
sba(issf_api
Word
p607
(dp608
g6
I00
sg7
V\u0915\u093f\u092f\u093e
p609
sg9
(issf_api
FeatureSet
p610
(dp611
g12
(dp612
S'posn'
p613
S'290'
p614
sS'name'
p615
S'\xe0\xa4\x95\xe0\xa4\xbf\xe0\xa4\xaf\xe0\xa4\xbe'
p616
sS'af'
p617
S'\xe0\xa4\x95\xe0\xa4\xb0,v,m,sg,3,,\xe0\xa4\xaf\xe0\xa4\xbe_\xe0\xa4\xb9\xe0\xa5\x88,yA'
p618
sS'chunkid'
p619
S'VGF'
p620
sS'chunktype'
p621
S'head:VGF'
p622
sS'voicetype'
p623
S'active'
p624
sS'vpos'
p625
S'tam_2'
p626
sS'stype'
p627
S'declarative'
p628
ssbsg26
I00
sg27
I00
sg28
Nsg29
Nsg30
I14
sg31
I0
sg32
Nsg33
Nsg34
S'VM'
p629
sg36
g610
sg37
I00
sba(issf_api
Word
p630
(dp631
g6
I00
sg7
V\u0939\u0948
p632
sg9
(issf_api
FeatureSet
p633
(dp634
g12
(dp635
S'posn'
p636
S'300'
p637
sS'name'
p638
S'\xe0\xa4\xb9\xe0\xa5\x88'
p639
sS'drel'
p640
S'lwg__vaux:VGF'
p641
sS'chunktype'
p642
S'child:VGF'
p643
sS'af'
p644
S'\xe0\xa4\xb9\xe0\xa5\x88,v,any,sg,3,,\xe0\xa4\xb9\xe0\xa5\x88,hE'
p645
ssbsg26
I00
sg27
I00
sg28
Nsg29
Nsg30
I14
sg31
I0
sg32
Nsg33
Nsg34
S'VAUX'
p646
sg36
g633
sg37
I00
sba(issf_api
Word
p647
(dp648
g6
I00
sg7
V\u0964
p649
sg9
(issf_api
FeatureSet
p650
(dp651
g12
(dp652
S'posn'
p653
S'310'
p654
sS'name'
p655
S'\xe0\xa5\xa4'
p656
sS'af'
p657
S'\xe0\xa5\xa4,punc,,,,,,'
p658
sS'chunkid'
p659
S'BLK'
p660
sS'drel'
p661
S'rsym:VGF'
p662
sS'chunktype'
p663
S'head:BLK'
p664
ssbsg26
I00
sg27
I00
sg28
Nsg29
Nsg30
I15
sg31
I0
sg32
Nsg33
Nsg34
S'SYM'
p665
sg36
g650
sg37
I00
sba(issf_api
Word
p666
(dp667
g6
I00
sg7
V\u091c\u092c\u0915\u093f
p668
sg9
(issf_api
FeatureSet
p669
(dp670
g12
(dp671
S'posn'
p672
S'10'
p673
sS'chunkid'
p674
S'CCP'
p675
sS'name'
p676
S'\xe0\xa4\x9c\xe0\xa4\xac\xe0\xa4\x95\xe0\xa4\xbf'
p677
sS'chunktype'
p678
S'head:CCP'
p679
sS'af'
p680
S'\xe0\xa4\x9c\xe0\xa4\xac\xe0\xa4\x95\xe0\xa4\xbf,avy,,,,,,'
p681
ssbsg26
I00
sg27
I00
sg28
Nsg29
Nsg30
I0
sg31
I1
sg32
Nsg33
Nsg34
S'CC'
p682
sg36
g669
sg37
I00
sba(issf_api
Word
p683
(dp684
g6
I00
sg7
V\u0928\u093f\u091c\u0940
p685
sg9
(issf_api
FeatureSet
p686
(dp687
g12
(dp688
S'posn'
p689
S'20'
p690
sS'name'
p691
S'\xe0\xa4\xa8\xe0\xa4\xbf\xe0\xa4\x9c\xe0\xa5\x80'
p692
sS'af'
p693
S'\xe0\xa4\xa8\xe0\xa4\xbf\xe0\xa4\x9c\xe0\xa5\x80,adj,any,any,,d,,'
p694
sS'drel'
p695
S'nmod__adj:NP'
p696
sS'chunktype'
p697
S'child:NP'
p698
sS'cref'
p699
S'i7%0:t5'
p700
ssbsg26
I00
sg27
I00
sg28
Nsg29
Nsg30
I1
sg31
I1
sg32
Nsg33
Nsg34
S'JJ'
p701
sg36
g686
sg37
I00
sba(issf_api
Word
p702
(dp703
g6
I00
sg7
V\u092c\u0938
p704
sg9
(issf_api
FeatureSet
p705
(dp706
g12
(dp707
S'posn'
p708
S'30'
p709
sS'name'
p710
S'\xe0\xa4\xac\xe0\xa4\xb8'
p711
sS'af'
p712
S'\xe0\xa4\xac\xe0\xa4\xb8,n,f,sg,3,d,0,0'
p713
sS'chunkid'
p714
S'NP'
p715
sS'drel'
p716
S'ccof:CCP2'
p717
sS'chunktype'
p718
S'head:NP'
p719
sS'cref'
p720
S'i7%0:t5'
p721
ssbsg26
I00
sg27
I00
sg28
Nsg29
Nsg30
I1
sg31
I1
sg32
Nsg33
Nsg34
S'NN'
p722
sg36
g705
sg37
I00
sba(issf_api
Word
p723
(dp724
g6
I00
sg7
V\u0914\u0930
p725
sg9
(issf_api
FeatureSet
p726
(dp727
g12
(dp728
S'posn'
p729
S'40'
p730
sS'name'
p731
S'\xe0\xa4\x94\xe0\xa4\xb0'
p732
sS'af'
p733
S'\xe0\xa4\x94\xe0\xa4\xb0,avy,,,,,,'
p734
sS'chunkid'
p735
S'CCP2'
p736
sS'drel'
p737
S'nmod:NP3'
p738
sS'chunktype'
p739
S'head:CCP2'
p740
sS'cref'
p741
S'i7%0:t5'
p742
ssbsg26
I00
sg27
I00
sg28
Nsg29
Nsg30
I2
sg31
I1
sg32
Nsg33
Nsg34
S'CC'
p743
sg36
g726
sg37
I00
sba(issf_api
Word
p744
(dp745
g6
I00
sg7
V\u092e\u093f\u0928\u0940
p746
sg9
(issf_api
FeatureSet
p747
(dp748
g12
(dp749
S'posn'
p750
S'50'
p751
sS'name'
p752
S'\xe0\xa4\xae\xe0\xa4\xbf\xe0\xa4\xa8\xe0\xa5\x80'
p753
sS'af'
p754
S'\xe0\xa4\xae\xe0\xa4\xbf\xe0\xa4\xa8\xe0\xa5\x80,adj,any,any,,d,,'
p755
sS'drel'
p756
S'pof__cn:NP2'
p757
sS'chunktype'
p758
S'child:NP2'
p759
sS'cref'
p760
S'i7%0:t5'
p761
ssbsg26
I00
sg27
I00
sg28
Nsg29
Nsg30
I3
sg31
I1
sg32
Nsg33
Nsg34
S'NNC'
p762
sg36
g747
sg37
I00
sba(issf_api
Word
p763
(dp764
g6
I00
sg7
V\u092c\u0938
p765
sg9
(issf_api
FeatureSet
p766
(dp767
g12
(dp768
S'posn'
p769
S'60'
p770
sS'name'
p771
S'\xe0\xa4\xac\xe0\xa4\xb82'
p772
sS'af'
p773
S'\xe0\xa4\xac\xe0\xa4\xb8,n,f,sg,3,d,0,0'
p774
sS'chunkid'
p775
S'NP2'
p776
sS'drel'
p777
S'ccof:CCP2'
p778
sS'chunktype'
p779
S'head:NP2'
p780
sS'cref'
p781
S'i7%0:t5'
p782
ssbsg26
I00
sg27
I00
sg28
Nsg29
Nsg30
I3
sg31
I1
sg32
Nsg33
Nsg34
S'NN'
p783
sg36
g766
sg37
I00
sba(issf_api
Word
p784
(dp785
g6
I00
sg7
V\u092e\u093e\u0932\u093f\u0915\u094b\u0902
p786
sg9
(issf_api
FeatureSet
p787
(dp788
g12
(dp789
S'crefhead'
p790
S'\xe0\xa4\xae\xe0\xa4\xbe\xe0\xa4\xb2\xe0\xa4\xbf\xe0\xa4\x95\xe0\xa5\x8b\xe0\xa4\x82:i7'
p791
sS'posn'
p792
S'70'
p793
sS'name'
p794
S'\xe0\xa4\xae\xe0\xa4\xbe\xe0\xa4\xb2\xe0\xa4\xbf\xe0\xa4\x95\xe0\xa5\x8b\xe0\xa4\x82'
p795
sS'af'
p796
S'\xe0\xa4\xae\xe0\xa4\xbe\xe0\xa4\xb2\xe0\xa4\xbf\xe0\xa4\x95,n,m,pl,3,o,0_\xe0\xa4\xa8\xe0\xa5\x87,0'
p797
sS'chunkid'
p798
S'NP3'
p799
sS'chunktype'
p800
S'head:NP3'
p801
sS'crefchainhead'
p802
S'i7:t5'
p803
sS'vpos'
p804
S'vib_2'
p805
sS'cref'
p806
S'i7%1:t5'
p807
sS'drel'
p808
S'k1:VGF'
p809
ssbsg26
I00
sg27
I00
sg28
Nsg29
Nsg30
I4
sg31
I1
sg32
Nsg33
Nsg34
S'NN'
p810
sg36
g787
sg37
I00
sba(issf_api
Word
p811
(dp812
g6
I00
sg7
V\u0928\u0947
p813
sg9
(issf_api
FeatureSet
p814
(dp815
g12
(dp816
S'posn'
p817
S'80'
p818
sS'name'
p819
S'\xe0\xa4\xa8\xe0\xa5\x87'
p820
sS'drel'
p821
S'lwg__psp:NP3'
p822
sS'chunktype'
p823
S'child:NP3'
p824
sS'af'
p825
S'\xe0\xa4\xa8\xe0\xa5\x87,psp,,,,,,'
p826
ssbsg26
I00
sg27
I00
sg28
Nsg29
Nsg30
I4
sg31
I1
sg32
Nsg33
Nsg34
S'PSP'
p827
sg36
g814
sg37
I00
sba(issf_api
Word
p828
(dp829
g6
I00
sg7
V\u0905\u092a\u0928\u093e
p830
sg9
(issf_api
FeatureSet
p831
(dp832
g12
(dp833
S'crefhead'
p834
S'\xe0\xa4\x85\xe0\xa4\xaa\xe0\xa4\xa8\xe0\xa4\xbe:i8'
p835
sS'posn'
p836
S'90'
p837
sS'name'
p838
S'\xe0\xa4\x85\xe0\xa4\xaa\xe0\xa4\xa8\xe0\xa4\xbe'
p839
sS'af'
p840
S'\xe0\xa4\x85\xe0\xa4\xaa\xe0\xa4\xa8\xe0\xa4\xbe,pn,m,sg,any,d,0,0'
p841
sS'chunkid'
p842
S'NP4'
p843
sS'creftype'
p844
S'Anaphora-C:i7'
p845
sS'chunktype'
p846
S'head:NP4'
p847
sS'cref'
p848
S'i8%1:t5'
p849
sS'drel'
p850
S'r6:NP5'
p851
ssbsg26
I00
sg27
I00
sg28
Nsg29
Nsg30
I5
sg31
I1
sg32
Nsg33
Nsg34
S'PRP'
p852
sg36
g831
sg37
I00
sba(issf_api
Word
p853
(dp854
g6
I00
sg7
V\u0906\u0902\u0926\u094b\u0932\u0928
p855
sg9
(issf_api
FeatureSet
p856
(dp857
g12
(dp858
S'posn'
p859
S'100'
p860
sS'name'
p861
S'\xe0\xa4\x86\xe0\xa4\x82\xe0\xa4\xa6\xe0\xa5\x8b\xe0\xa4\xb2\xe0\xa4\xa8'
p862
sS'af'
p863
S'\xe0\xa4\x86\xe0\xa4\x82\xe0\xa4\xa6\xe0\xa5\x8b\xe0\xa4\xb2\xe0\xa4\xa8,n,m,sg,3,d,0,0'
p864
sS'chunkid'
p865
S'NP5'
p866
sS'drel'
p867
S'k2:VGNN'
p868
sS'chunktype'
p869
S'head:NP5'
p870
ssbsg26
I00
sg27
I00
sg28
Nsg29
Nsg30
I6
sg31
I1
sg32
Nsg33
Nsg34
S'NN'
p871
sg36
g856
sg37
I00
sba(issf_api
Word
p872
(dp873
g6
I00
sg7
V\u0924\u092f
p874
sg9
(issf_api
FeatureSet
p875
(dp876
g12
(dp877
S'posn'
p878
S'110'
p879
sS'name'
p880
S'\xe0\xa4\xa4\xe0\xa4\xaf'
p881
sS'drel'
p882
S'nmod__adj:NP6'
p883
sS'chunktype'
p884
S'child:NP6'
p885
sS'af'
p886
S'\xe0\xa4\xa4\xe0\xa4\xaf,adj,any,any,,o,,'
p887
ssbsg26
I00
sg27
I00
sg28
Nsg29
Nsg30
I7
sg31
I1
sg32
Nsg33
Nsg34
S'JJ'
p888
sg36
g875
sg37
I00
sba(issf_api
Word
p889
(dp890
g6
I00
sg7
V\u0915\u093e\u0930\u094d\u092f\u0915\u094d\u0930\u092e
p891
sg9
(issf_api
FeatureSet
p892
(dp893
g12
(dp894
S'posn'
p895
S'120'
p896
sS'name'
p897
S'\xe0\xa4\x95\xe0\xa4\xbe\xe0\xa4\xb0\xe0\xa5\x8d\xe0\xa4\xaf\xe0\xa4\x95\xe0\xa5\x8d\xe0\xa4\xb0\xe0\xa4\xae'
p898
sS'af'
p899
S'\xe0\xa4\x95\xe0\xa4\xbe\xe0\xa4\xb0\xe0\xa5\x8d\xe0\xa4\xaf\xe0\xa4\x95\xe0\xa5\x8d\xe0\xa4\xb0\xe0\xa4\xae,n,m,sg,3,o,0_\xe0\xa4\x95\xe0\xa5\x87_\xe0\xa4\x85\xe0\xa4\xa8\xe0\xa5\x81\xe0\xa4\xb8\xe0\xa4\xbe\xe0\xa4\xb0,0'
p900
sS'chunkid'
p901
S'NP6'
p902
sS'drel'
p903
S'k7a:VGNN'
p904
sS'vpos'
p905
S'vib_3_4'
p906
sS'chunktype'
p907
S'head:NP6'
p908
ssbsg26
I00
sg27
I00
sg28
Nsg29
Nsg30
I7
sg31
I1
sg32
Nsg33
Nsg34
S'NN'
p909
sg36
g892
sg37
I00
sba(issf_api
Word
p910
(dp911
g6
I00
sg7
V\u0915\u0947
p912
sg9
(issf_api
FeatureSet
p913
(dp914
g12
(dp915
S'posn'
p916
S'130'
p917
sS'name'
p918
S'\xe0\xa4\x95\xe0\xa5\x87'
p919
sS'drel'
p920
S'lwg__psp:NP6'
p921
sS'chunktype'
p922
S'child:NP6'
p923
sS'af'
p924
S'\xe0\xa4\x95\xe0\xa5\x87,psp,,,,,,'
p925
ssbsg26
I00
sg27
I00
sg28
Nsg29
Nsg30
I7
sg31
I1
sg32
Nsg33
Nsg34
S'PSP'
p926
sg36
g913
sg37
I00
sba(issf_api
Word
p927
(dp928
g6
I00
sg7
V\u0905\u0928\u0941\u0938\u093e\u0930
p929
sg9
(issf_api
FeatureSet
p930
(dp931
g12
(dp932
S'posn'
p933
S'140'
p934
sS'name'
p935
S'\xe0\xa4\x85\xe0\xa4\xa8\xe0\xa5\x81\xe0\xa4\xb8\xe0\xa4\xbe\xe0\xa4\xb0'
p936
sS'drel'
p937
S'lwg__psp:NP6'
p938
sS'chunktype'
p939
S'child:NP6'
p940
sS'af'
p941
S'\xe0\xa4\x85\xe0\xa4\xa8\xe0\xa5\x81\xe0\xa4\xb8\xe0\xa4\xbe\xe0\xa4\xb0,psp,,,,,,'
p942
ssbsg26
I00
sg27
I00
sg28
Nsg29
Nsg30
I7
sg31
I1
sg32
Nsg33
Nsg34
S'PSP'
p943
sg36
g930
sg37
I00
sba(issf_api
Word
p944
(dp945
g6
I00
sg7
V\u091c\u093e\u0930\u0940
p946
sg9
(issf_api
FeatureSet
p947
(dp948
g12
(dp949
S'posn'
p950
S'150'
p951
sS'name'
p952
S'\xe0\xa4\x9c\xe0\xa4\xbe\xe0\xa4\xb0\xe0\xa5\x80'
p953
sS'af'
p954
S'\xe0\xa4\x9c\xe0\xa4\xbe\xe0\xa4\xb0\xe0\xa5\x80,adj,any,any,,,,'
p955
sS'chunkid'
p956
S'JJP'
p957
sS'drel'
p958
S'pof:VGNN'
p959
sS'chunktype'
p960
S'head:JJP'
p961
ssbsg26
I00
sg27
I00
sg28
Nsg29
Nsg30
I8
sg31
I1
sg32
Nsg33
Nsg34
S'JJ'
p962
sg36
g947
sg37
I00
sba(issf_api
Word
p963
(dp964
g6
I00
sg7
V\u0930\u0916\u0928\u0947
p965
sg9
(issf_api
FeatureSet
p966
(dp967
g12
(dp968
S'posn'
p969
S'160'
p970
sS'name'
p971
S'\xe0\xa4\xb0\xe0\xa4\x96\xe0\xa4\xa8\xe0\xa5\x87'
p972
sS'af'
p973
S'\xe0\xa4\xb0\xe0\xa4\x96,v,any,sg,any,o,\xe0\xa4\xa8\xe0\xa4\xbe_\xe0\xa4\x95\xe0\xa4\xbe,nA'
p974
sS'chunkid'
p975
S'VGNN'
p976
sS'drel'
p977
S'r6-k2:NP7'
p978
sS'vpos'
p979
S'tam_2'
p980
sS'chunktype'
p981
S'head:VGNN'
p982
ssbsg26
I00
sg27
I00
sg28
Nsg29
Nsg30
I9
sg31
I1
sg32
Nsg33
Nsg34
S'VM'
p983
sg36
g966
sg37
I00
sba(issf_api
Word
p984
(dp985
g6
I00
sg7
V\u0915\u093e
p986
sg9
(issf_api
FeatureSet
p987
(dp988
g12
(dp989
S'posn'
p990
S'170'
p991
sS'name'
p992
S'\xe0\xa4\x95\xe0\xa4\xbe'
p993
sS'drel'
p994
S'lwg__psp:VGNN'
p995
sS'chunktype'
p996
S'child:VGNN'
p997
sS'af'
p998
S'\xe0\xa4\x95\xe0\xa4\xbe,psp,m,sg,,d,,'
p999
ssbsg26
I00
sg27
I00
sg28
Nsg29
Nsg30
I9
sg31
I1
sg32
Nsg33
Nsg34
S'PSP'
p1000
sg36
g987
sg37
I00
sba(issf_api
Word
p1001
(dp1002
g6
I00
sg7
V\u092b\u0948\u0938\u0932\u093e
p1003
sg9
(issf_api
FeatureSet
p1004
(dp1005
g12
(dp1006
S'posn'
p1007
S'180'
p1008
sS'name'
p1009
S'\xe0\xa4\xab\xe0\xa5\x88\xe0\xa4\xb8\xe0\xa4\xb2\xe0\xa4\xbe'
p1010
sS'af'
p1011
S'\xe0\xa4\xab\xe0\xa5\x88\xe0\xa4\xb8\xe0\xa4\xb2\xe0\xa4\xbe,n,m,sg,3,d,0,0'
p1012
sS'chunkid'
p1013
S'NP7'
p1014
sS'drel'
p1015
S'pof:VGF'
p1016
sS'chunktype'
p1017
S'head:NP7'
p1018
ssbsg26
I00
sg27
I00
sg28
Nsg29
Nsg30
I10
sg31
I1
sg32
Nsg33
Nsg34
S'NN'
p1019
sg36
g1004
sg37
I00
sba(issf_api
Word
p1020
(dp1021
g6
I00
sg7
V\u0915\u093f\u092f\u093e
p1022
sg9
(issf_api
FeatureSet
p1023
(dp1024
g12
(dp1025
S'posn'
p1026
S'190'
p1027
sS'name'
p1028
S'\xe0\xa4\x95\xe0\xa4\xbf\xe0\xa4\xaf\xe0\xa4\xbe'
p1029
sS'af'
p1030
S'\xe0\xa4\x95\xe0\xa4\xb0,v,m,sg,3,,\xe0\xa4\xaf\xe0\xa4\xbe_\xe0\xa4\xb9\xe0\xa5\x88,yA'
p1031
sS'chunkid'
p1032
S'VGF'
p1033
sS'stype'
p1034
S'declarative'
p1035
sS'drel'
p1036
S'ccof:CCP'
p1037
sS'voicetype'
p1038
S'active'
p1039
sS'vpos'
p1040
S'tam_2'
p1041
sS'chunktype'
p1042
S'head:VGF'
p1043
ssbsg26
I00
sg27
I00
sg28
Nsg29
Nsg30
I11
sg31
I1
sg32
Nsg33
Nsg34
S'VM'
p1044
sg36
g1023
sg37
I00
sba(issf_api
Word
p1045
(dp1046
g6
I00
sg7
V\u0939\u0948
p1047
sg9
(issf_api
FeatureSet
p1048
(dp1049
g12
(dp1050
S'posn'
p1051
S'200'
p1052
sS'name'
p1053
S'\xe0\xa4\xb9\xe0\xa5\x88'
p1054
sS'drel'
p1055
S'lwg__vaux:VGF'
p1056
sS'chunktype'
p1057
S'child:VGF'
p1058
sS'af'
p1059
S'\xe0\xa4\xb9\xe0\xa5\x88,v,any,sg,3,,\xe0\xa4\xb9\xe0\xa5\x88,hE'
p1060
ssbsg26
I00
sg27
I00
sg28
Nsg29
Nsg30
I11
sg31
I1
sg32
Nsg33
Nsg34
S'VAUX'
p1061
sg36
g1048
sg37
I00
sba(issf_api
Word
p1062
(dp1063
g6
I00
sg7
V\u0964
p1064
sg9
(issf_api
FeatureSet
p1065
(dp1066
g12
(dp1067
S'posn'
p1068
S'210'
p1069
sS'name'
p1070
S'\xe0\xa5\xa4'
p1071
sS'af'
p1072
S'\xe0\xa5\xa4,punc,,,,,,'
p1073
sS'chunkid'
p1074
S'BLK'
p1075
sS'drel'
p1076
S'rsym:CCP'
p1077
sS'chunktype'
p1078
S'head:BLK'
p1079
ssbsg26
I00
sg27
I00
sg28
Nsg29
Nsg30
I12
sg31
I1
sg32
Nsg33
Nsg34
S'SYM'
p1080
sg36
g1065
sg37
I00
sba(issf_api
Word
p1081
(dp1082
g6
I00
sg7
V\u092a\u0930\u093f\u0935\u0939\u0928
p1083
sg9
(issf_api
FeatureSet
p1084
(dp1085
g12
(dp1086
S'posn'
p1087
S'10'
p1088
sS'name'
p1089
S'\xe0\xa4\xaa\xe0\xa4\xb0\xe0\xa4\xbf\xe0\xa4\xb5\xe0\xa4\xb9\xe0\xa4\xa8'
p1090
sS'af'
p1091
S'\xe0\xa4\xaa\xe0\xa4\xb0\xe0\xa4\xbf\xe0\xa4\xb5\xe0\xa4\xb9\xe0\xa4\xa8,n,m,sg,3,d,0,0'
p1092
sS'drel'
p1093
S'pof__cn:NP'
p1094
sS'chunktype'
p1095
S'child:NP'
p1096
sS'cref'
p1097
S'i9%0:t6'
p1098
ssbsg26
I00
sg27
I00
sg28
Nsg29
Nsg30
I0
sg31
I2
sg32
Nsg33
Nsg34
S'NNPC'
p1099
sg36
g1084
sg37
I00
sba(issf_api
Word
p1100
(dp1101
g6
I00
sg7
V\u092e\u0902\u0924\u094d\u0930\u0940
p1102
sg9
(issf_api
FeatureSet
p1103
(dp1104
g12
(dp1105
S'crefhead'
p1106
S'\xe0\xa4\xae\xe0\xa4\x82\xe0\xa4\xa4\xe0\xa5\x8d\xe0\xa4\xb0\xe0\xa5\x80:i9'
p1107
sS'posn'
p1108
S'20'
p1109
sS'name'
p1110
S'\xe0\xa4\xae\xe0\xa4\x82\xe0\xa4\xa4\xe0\xa5\x8d\xe0\xa4\xb0\xe0\xa5\x80'
p1111
sS'af'
p1112
S'\xe0\xa4\xae\xe0\xa4\x82\xe0\xa4\xa4\xe0\xa5\x8d\xe0\xa4\xb0\xe0\xa5\x80,n,m,sg,3,d,0,0'
p1113
sS'drel'
p1114
S'nmod__adj:NP'
p1115
sS'chunktype'
p1116
S'child:NP'
p1117
sS'cref'
p1118
S'i9%1:t6'
p1119
ssbsg26
I00
sg27
I00
sg28
Nsg29
Nsg30
I0
sg31
I2
sg32
Nsg33
Nsg34
S'NNP'
p1120
sg36
g1103
sg37
I00
sba(issf_api
Word
p1121
(dp1122
g6
I00
sg7
V\u0938\u0941\u092d\u093e\u0937
p1123
sg9
(issf_api
FeatureSet
p1124
(dp1125
g12
(dp1126
S'posn'
p1127
S'30'
p1128
sS'name'
p1129
S'\xe0\xa4\xb8\xe0\xa5\x81\xe0\xa4\xad\xe0\xa4\xbe\xe0\xa4\xb7'
p1130
sS'af'
p1131
S'\xe0\xa4\xb8\xe0\xa5\x81\xe0\xa4\xad\xe0\xa4\xbe\xe0\xa4\xb7,n,m,sg,3,d,0,0'
p1132
sS'drel'
p1133
S'pof__cn:NP'
p1134
sS'chunktype'
p1135
S'child:NP'
p1136
sS'cref'
p1137
S'i10%0:t6'
p1138
ssbsg26
I00
sg27
I00
sg28
Nsg29
Nsg30
I0
sg31
I2
sg32
Nsg33
Nsg34
S'NNPC'
p1139
sg36
g1124
sg37
I00
sba(issf_api
Word
p1140
(dp1141
g6
I00
sg7
V\u091a\u0915\u094d\u0930\u0935\u0930\u094d\u0924\u0940
p1142
sg9
(issf_api
FeatureSet
p1143
(dp1144
g12
(dp1145
S'crefhead'
p1146
S'\xe0\xa4\x9a\xe0\xa4\x95\xe0\xa5\x8d\xe0\xa4\xb0\xe0\xa4\xb5\xe0\xa4\xb0\xe0\xa5\x8d\xe0\xa4\xa4\xe0\xa5\x80:i10'
p1147
sS'posn'
p1148
S'40'
p1149
sS'name'
p1150
S'\xe0\xa4\x9a\xe0\xa4\x95\xe0\xa5\x8d\xe0\xa4\xb0\xe0\xa4\xb5\xe0\xa4\xb0\xe0\xa5\x8d\xe0\xa4\xa4\xe0\xa5\x80'
p1151
sS'af'
p1152
S'\xe0\xa4\x9a\xe0\xa4\x95\xe0\xa5\x8d\xe0\xa4\xb0\xe0\xa4\xb5\xe0\xa4\xb0\xe0\xa5\x8d\xe0\xa4\xa4\xe0\xa5\x80,n,any,sg,3,o,0_\xe0\xa4\x95\xe0\xa5\x87_\xe0\xa4\xb8\xe0\xa4\xbe\xe0\xa4\xa5,0'
p1153
sS'chunkid'
p1154
S'NP'
p1155
sS'creftype'
p1156
S'Coreference-NounComplement:i9'
p1157
sS'chunktype'
p1158
S'head:NP'
p1159
sS'crefchainhead'
p1160
S'i10:t6'
p1161
sS'vpos'
p1162
S'vib_vib_5_6'
p1163
sS'cref'
p1164
S'i10%1:t6'
p1165
sS'drel'
p1166
S'vmod:VGF'
p1167
ssbsg26
I00
sg27
I00
sg28
Nsg29
Nsg30
I0
sg31
I2
sg32
Nsg33
Nsg34
S'NNP'
p1168
sg36
g1143
sg37
I00
sba(issf_api
Word
p1169
(dp1170
g6
I00
sg7
V\u0915\u0947
p1171
sg9
(issf_api
FeatureSet
p1172
(dp1173
g12
(dp1174
S'posn'
p1175
S'50'
p1176
sS'name'
p1177
S'\xe0\xa4\x95\xe0\xa5\x87'
p1178
sS'drel'
p1179
S'lwg__psp:NP'
p1180
sS'chunktype'
p1181
S'child:NP'
p1182
sS'af'
p1183
S'\xe0\xa4\x95\xe0\xa5\x87,psp,,,,,,'
p1184
ssbsg26
I00
sg27
I00
sg28
Nsg29
Nsg30
I0
sg31
I2
sg32
Nsg33
Nsg34
S'PSP'
p1185
sg36
g1172
sg37
I00
sba(issf_api
Word
p1186
(dp1187
g6
I00
sg7
V\u0938\u093e\u0925
p1188
sg9
(issf_api
FeatureSet
p1189
(dp1190
g12
(dp1191
S'posn'
p1192
S'60'
p1193
sS'name'
p1194
S'\xe0\xa4\xb8\xe0\xa4\xbe\xe0\xa4\xa5'
p1195
sS'drel'
p1196
S'lwg__psp:NP'
p1197
sS'chunktype'
p1198
S'child:NP'
p1199
sS'af'
p1200
S'\xe0\xa4\xb8\xe0\xa4\xbe\xe0\xa4\xa5,nst,m,sg,3,d,,'
p1201
ssbsg26
I00
sg27
I00
sg28
Nsg29
Nsg30
I0
sg31
I2
sg32
Nsg33
Nsg34
S'NST'
p1202
sg36
g1189
sg37
I00
sba(issf_api
Word
p1203
(dp1204
g6
I00
sg7
V\u092c\u0948\u0920\u0915
p1205
sg9
(issf_api
FeatureSet
p1206
(dp1207
g12
(dp1208
S'posn'
p1209
S'70'
p1210
sS'name'
p1211
S'\xe0\xa4\xac\xe0\xa5\x88\xe0\xa4\xa0\xe0\xa4\x95'
p1212
sS'af'
p1213
S'\xe0\xa4\xac\xe0\xa5\x88\xe0\xa4\xa0\xe0\xa4\x95,n,f,sg,3,o,0_\xe0\xa4\x95\xe0\xa5\x87_\xe0\xa4\xac\xe0\xa4\xbe\xe0\xa4\xa6,0'
p1214
sS'chunkid'
p1215
S'NP2'
p1216
sS'drel'
p1217
S'k7t:VGF'
p1218
sS'vpos'
p1219
S'vib_2_3'
p1220
sS'chunktype'
p1221
S'head:NP2'
p1222
ssbsg26
I00
sg27
I00
sg28
Nsg29
Nsg30
I1
sg31
I2
sg32
Nsg33
Nsg34
S'NN'
p1223
sg36
g1206
sg37
I00
sba(issf_api
Word
p1224
(dp1225
g6
I00
sg7
V\u0915\u0947
p1226
sg9
(issf_api
FeatureSet
p1227
(dp1228
g12
(dp1229
S'posn'
p1230
S'80'
p1231
sS'name'
p1232
S'\xe0\xa4\x95\xe0\xa5\x872'
p1233
sS'drel'
p1234
S'lwg__psp:NP2'
p1235
sS'chunktype'
p1236
S'child:NP2'
p1237
sS'af'
p1238
S'\xe0\xa4\x95\xe0\xa5\x87,psp,,,,,,'
p1239
ssbsg26
I00
sg27
I00
sg28
Nsg29
Nsg30
I1
sg31
I2
sg32
Nsg33
Nsg34
S'PSP'
p1240
sg36
g1227
sg37
I00
sba(issf_api
Word
p1241
(dp1242
g6
I00
sg7
V\u092c\u093e\u0926
p1243
sg9
(issf_api
FeatureSet
p1244
(dp1245
g12
(dp1246
S'posn'
p1247
S'90'
p1248
sS'name'
p1249
S'\xe0\xa4\xac\xe0\xa4\xbe\xe0\xa4\xa6'
p1250
sS'drel'
p1251
S'lwg__psp:NP2'
p1252
sS'chunktype'
p1253
S'child:NP2'
p1254
sS'af'
p1255
S'\xe0\xa4\xac\xe0\xa4\xbe\xe0\xa4\xa6,nst,m,sg,3,d,,'
p1256
ssbsg26
I00
sg27
I00
sg28
Nsg29
Nsg30
I1
sg31
I2
sg32
Nsg33
Nsg34
S'NST'
p1257
sg36
g1244
sg37
I00
sba(issf_api
Word
p1258
(dp1259
g6
I00
sg7
V\u092c\u0902\u0917\u093e\u0932
p1260
sg9
(issf_api
FeatureSet
p1261
(dp1262
g12
(dp1263
S'crefhead'
p1264
S'\xe0\xa4\xac\xe0\xa4\x82\xe0\xa4\x97\xe0\xa4\xbe\xe0\xa4\xb2:i12'
p1265
sS'posn'
p1266
S'100'
p1267
sS'name'
p1268
S'\xe0\xa4\xac\xe0\xa4\x82\xe0\xa4\x97\xe0\xa4\xbe\xe0\xa4\xb2'
p1269
sS'af'
p1270
S'\xe0\xa4\xac\xe0\xa4\x82\xe0\xa4\x97\xe0\xa4\xbe\xe0\xa4\xb2,n,m,sg,3,d,0,0'
p1271
sS'acrefmod'
p1272
S'm4%0:i13'
p1273
sS'creftype'
p1274
S'Coreference-Identity:i1'
p1275
sS'chunktype'
p1276
S'child:NP3'
p1277
sS'cref'
p1278
S'i11%0:t7,i12%1:t1'
p1279
sS'drel'
p1280
S'pof__cn:NP3'
p1281
ssbsg26
I00
sg27
I00
sg28
Nsg29
Nsg30
I2
sg31
I2
sg32
Nsg33
Nsg34
S'NNPC'
p1282
sg36
g1261
sg37
I00
sba(issf_api
Word
p1283
(dp1284
g6
I00
sg7
V\u091f\u0948\u0915\u094d\u0938\u0940
p1285
sg9
(issf_api
FeatureSet
p1286
(dp1287
g12
(dp1288
S'posn'
p1289
S'110'
p1290
sS'name'
p1291
S'\xe0\xa4\x9f\xe0\xa5\x88\xe0\xa4\x95\xe0\xa5\x8d\xe0\xa4\xb8\xe0\xa5\x80'
p1292
sS'af'
p1293
S'\xe0\xa4\x9f\xe0\xa5\x88\xe0\xa4\x95\xe0\xa5\x8d\xe0\xa4\xb8\xe0\xa5\x80,n,f,sg,3,d,0,0'
p1294
sS'acrefmod'
p1295
S'm4%0:i13'
p1296
sS'drel'
p1297
S'pof__cn:NP3'
p1298
sS'chunktype'
p1299
S'child:NP3'
p1300
sS'cref'
p1301
S'i11%0:t7'
p1302
ssbsg26
I00
sg27
I00
sg28
Nsg29
Nsg30
I2
sg31
I2
sg32
Nsg33
Nsg34
S'NNPC'
p1303
sg36
g1286
sg37
I00
sba(issf_api
Word
p1304
(dp1305
g6
I00
sg7
V\u090f\u0938\u094b\u0938\u093f\u090f\u0936\u0928
p1306
sg9
(issf_api
FeatureSet
p1307
(dp1308
g12
(dp1309
S'crefhead'
p1310
S'\xe0\xa4\x8f\xe0\xa4\xb8\xe0\xa5\x8b\xe0\xa4\xb8\xe0\xa4\xbf\xe0\xa4\x8f\xe0\xa4\xb6\xe0\xa4\xa8:i11'
p1311
sS'posn'
p1312
S'120'
p1313
sS'name'
p1314
S'\xe0\xa4\x8f\xe0\xa4\xb8\xe0\xa5\x8b\xe0\xa4\xb8\xe0\xa4\xbf\xe0\xa4\x8f\xe0\xa4\xb6\xe0\xa4\xa8'
p1315
sS'af'
p1316
S'\xe0\xa4\x8f\xe0\xa4\xb8\xe0\xa5\x8b\xe0\xa4\xb8\xe0\xa4\xbf\xe0\xa4\x8f\xe0\xa4\xb6\xe0\xa4\xa8,n,f,sg,3,o,0,0'
p1317
sS'chunkid'
p1318
S'NP3'
p1319
sS'acrefmod'
p1320
S'm4%0:i13'
p1321
sS'chunktype'
p1322
S'head:NP3'
p1323
sS'crefchainhead'
p1324
S'i11:t7'
p1325
sS'cref'
p1326
S'i11%1:t7'
p1327
sS'drel'
p1328
S'ccof:CCP'
p1329
ssbsg26
I00
sg27
I00
sg28
Nsg29
Nsg30
I2
sg31
I2
sg32
Nsg33
Nsg34
S'NNP'
p1330
sg36
g1307
sg37
I00
sba(issf_api
Word
p1331
(dp1332
g6
I00
sg7
V(
p1333
sg9
(issf_api
FeatureSet
p1334
(dp1335
g12
(dp1336
S'posn'
p1337
S'130'
p1338
sS'name'
p1339
S'('
p1340
sS'af'
p1341
S',punc,,,,,,'
p1342
sS'acrefmod'
p1343
S'm4%0:i13'
p1344
sS'drel'
p1345
S'rsym:NP4'
p1346
sS'chunktype'
p1347
S'child:NP4'
p1348
ssbsg26
I00
sg27
I00
sg28
Nsg29
Nsg30
I3
sg31
I2
sg32
Nsg33
Nsg34
S'SYM'
p1349
sg36
g1334
sg37
I00
sba(issf_api
Word
p1350
(dp1351
g6
I00
sg7
V\u092c\u0940\u091f\u0940\u090f
p1352
sg9
(issf_api
FeatureSet
p1353
(dp1354
g12
(dp1355
S'crefhead'
p1356
S'\xe0\xa4\xac\xe0\xa5\x80\xe0\xa4\x9f\xe0\xa5\x80\xe0\xa4\x8f:i14'
p1357
sS'posn'
p1358
S'140'
p1359
sS'name'
p1360
S'\xe0\xa4\xac\xe0\xa5\x80\xe0\xa4\x9f\xe0\xa5\x80\xe0\xa4\x8f'
p1361
sS'af'
p1362
S'\xe0\xa4\xac\xe0\xa5\x80\xe0\xa4\x9f\xe0\xa5\x80\xe0\xa4\x8f,n,m,sg,3,o,0,0'
p1363
sS'chunkid'
p1364
S'NP4'
p1365
sS'acrefmod'
p1366
S'm4%0:i13'
p1367
sS'creftype'
p1368
S'Coreference-Abbreviation:i11'
p1369
sS'chunktype'
p1370
S'head:NP4'
p1371
sS'cref'
p1372
S'i14%1:t7'
p1373
sS'drel'
p1374
S'rs:NP3'
p1375
ssbsg26
I00
sg27
I00
sg28
Nsg29
Nsg30
I3
sg31
I2
sg32
Nsg33
Nsg34
S'NNP'
p1376
sg36
g1353
sg37
I00
sba(issf_api
Word
p1377
(dp1378
g6
I00
sg7
V)
p1379
sg9
(issf_api
FeatureSet
p1380
(dp1381
g12
(dp1382
S'posn'
p1383
S'150'
p1384
sS'name'
p1385
S')'
p1386
sS'af'
p1387
S',punc,,,,,,'
p1388
sS'acrefmod'
p1389
S'm4%0:i13'
p1390
sS'drel'
p1391
S'rsym:NP4'
p1392
sS'chunktype'
p1393
S'child:NP4'
p1394
ssbsg26
I00
sg27
I00
sg28
Nsg29
Nsg30
I3
sg31
I2
sg32
Nsg33
Nsg34
S'SYM'
p1395
sg36
g1380
sg37
I00
sba(issf_api
Word
p1396
(dp1397
g6
I00
sg7
V\u0914\u0930
p1398
sg9
(issf_api
FeatureSet
p1399
(dp1400
g12
(dp1401
S'posn'
p1402
S'160'
p1403
sS'name'
p1404
S'\xe0\xa4\x94\xe0\xa4\xb0'
p1405
sS'af'
p1406
S'\xe0\xa4\x94\xe0\xa4\xb0,avy,,,,,,'
p1407
sS'acrefmodhead'
p1408
S'\xe0\xa4\x94\xe0\xa4\xb0:m4'
p1409
sS'chunkid'
p1410
S'CCP'
p1411
sS'acrefmod'
p1412
S'm4%0:i13'
p1413
sS'drel'
p1414
S'r6:NP7'
p1415
sS'chunktype'
p1416
S'head:CCP'
p1417
ssbsg26
I00
sg27
I00
sg28
Nsg29
Nsg30
I4
sg31
I2
sg32
Nsg33
Nsg34
S'CC'
p1418
sg36
g1399
sg37
I00
sba(issf_api
Word
p1419
(dp1420
g6
I00
sg7
V\u0915\u0932\u0915\u0924\u094d\u0924\u093e
p1421
sg9
(issf_api
FeatureSet
p1422
(dp1423
g12
(dp1424
S'posn'
p1425
S'170'
p1426
sS'name'
p1427
S'\xe0\xa4\x95\xe0\xa4\xb2\xe0\xa4\x95\xe0\xa4\xa4\xe0\xa5\x8d\xe0\xa4\xa4\xe0\xa4\xbe'
p1428
sS'af'
p1429
S'\xe0\xa4\x95\xe0\xa4\xb2\xe0\xa4\x95\xe0\xa4\xa4\xe0\xa5\x8d\xe0\xa4\xa4\xe0\xa4\xbe,n,m,sg,3,d,0,0'
p1430
sS'acrefmod'
p1431
S'm4%0:i13'
p1432
sS'drel'
p1433
S'pof__cn:NP5'
p1434
sS'chunktype'
p1435
S'child:NP5'
p1436
sS'cref'
p1437
S'i15%0:t8'
p1438
ssbsg26
I00
sg27
I00
sg28
Nsg29
Nsg30
I5
sg31
I2
sg32
Nsg33
Nsg34
S'NNPC'
p1439
sg36
g1422
sg37
I00
sba(issf_api
Word
p1440
(dp1441
g6
I00
sg7
V\u092e\u0947\u091f\u094d\u0930\u094b\u092a\u0949\u0932\u093f\u091f\u0928
p1442
sg9
(issf_api
FeatureSet
p1443
(dp1444
g12
(dp1445
S'posn'
p1446
S'180'
p1447
sS'name'
p1448
S'\xe0\xa4\xae\xe0\xa5\x87\xe0\xa4\x9f\xe0\xa5\x8d\xe0\xa4\xb0\xe0\xa5\x8b\xe0\xa4\xaa\xe0\xa5\x89\xe0\xa4\xb2\xe0\xa4\xbf\xe0\xa4\x9f\xe0\xa4\xa8'
p1449
sS'af'
p1450
S'\xe0\xa4\xae\xe0\xa5\x87\xe0\xa4\x9f\xe0\xa5\x8d\xe0\xa4\xb0\xe0\xa5\x8b\xe0\xa4\xaa\xe0\xa5\x89\xe0\xa4\xb2\xe0\xa4\xbf\xe0\xa4\x9f\xe0\xa4\xa8,n,m,sg,3,d,0,0'
p1451
sS'acrefmod'
p1452
S'm4%0:i13'
p1453
sS'drel'
p1454
S'pof__cn:NP5'
p1455
sS'chunktype'
p1456
S'child:NP5'
p1457
sS'cref'
p1458
S'i15%0:t8'
p1459
ssbsg26
I00
sg27
I00
sg28
Nsg29
Nsg30
I5
sg31
I2
sg32
Nsg33
Nsg34
S'NNPC'
p1460
sg36
g1443
sg37
I00
sba(issf_api
Word
p1461
(dp1462
g6
I00
sg7
V\u091f\u0948\u0915\u094d\u0938\u0940
p1463
sg9
(issf_api
FeatureSet
p1464
(dp1465
g12
(dp1466
S'posn'
p1467
S'190'
p1468
sS'name'
p1469
S'\xe0\xa4\x9f\xe0\xa5\x88\xe0\xa4\x95\xe0\xa5\x8d\xe0\xa4\xb8\xe0\xa5\x802'
p1470
sS'af'
p1471
S'\xe0\xa4\x9f\xe0\xa5\x88\xe0\xa4\x95\xe0\xa5\x8d\xe0\xa4\xb8\xe0\xa5\x80,n,f,sg,3,d,0,0'
p1472
sS'acrefmod'
p1473
S'm4%0:i13'
p1474
sS'drel'
p1475
S'pof__cn:NP5'
p1476
sS'chunktype'
p1477
S'child:NP5'
p1478
sS'cref'
p1479
S'i15%0:t8'
p1480
ssbsg26
I00
sg27
I00
sg28
Nsg29
Nsg30
I5
sg31
I2
sg32
Nsg33
Nsg34
S'NNPC'
p1481
sg36
g1464
sg37
I00
sba(issf_api
Word
p1482
(dp1483
g6
I00
sg7
V\u0921\u094d\u0930\u093e\u0908\u0935\u0930\u094d\u0938
p1484
sg9
(issf_api
FeatureSet
p1485
(dp1486
g12
(dp1487
S'posn'
p1488
S'200'
p1489
sS'name'
p1490
S'\xe0\xa4\xa1\xe0\xa5\x8d\xe0\xa4\xb0\xe0\xa4\xbe\xe0\xa4\x88\xe0\xa4\xb5\xe0\xa4\xb0\xe0\xa5\x8d\xe0\xa4\xb8'
p1491
sS'af'
p1492
S'\xe0\xa4\xa1\xe0\xa5\x8d\xe0\xa4\xb0\xe0\xa4\xbe\xe0\xa4\x88\xe0\xa4\xb5\xe0\xa4\xb0,n,m,pl,3,d,0,0'
p1493
sS'acrefmod'
p1494
S'm4%0:i13'
p1495
sS'drel'
p1496
S'pof__cn:NP5'
p1497
sS'chunktype'
p1498
S'child:NP5'
p1499
sS'cref'
p1500
S'i15%0:t8'
p1501
ssbsg26
I00
sg27
I00
sg28
Nsg29
Nsg30
I5
sg31
I2
sg32
Nsg33
Nsg34
S'NNPC'
p1502
sg36
g1485
sg37
I00
sba(issf_api
Word
p1503
(dp1504
g6
I00
sg7
V\u092f\u0942\u0928\u093f\u092f\u0928
p1505
sg9
(issf_api
FeatureSet
p1506
(dp1507
g12
(dp1508
S'crefhead'
p1509
S'\xe0\xa4\xaf\xe0\xa5\x82\xe0\xa4\xa8\xe0\xa4\xbf\xe0\xa4\xaf\xe0\xa4\xa8:i15'
p1510
sS'posn'
p1511
S'210'
p1512
sS'name'
p1513
S'\xe0\xa4\xaf\xe0\xa5\x82\xe0\xa4\xa8\xe0\xa4\xbf\xe0\xa4\xaf\xe0\xa4\xa8'
p1514
sS'af'
p1515
S'\xe0\xa4\xaf\xe0\xa5\x82\xe0\xa4\xa8\xe0\xa4\xbf\xe0\xa4\xaf\xe0\xa4\xa8,n,f,sg,3,o,0,0'
p1516
sS'chunkid'
p1517
S'NP5'
p1518
sS'acrefmod'
p1519
S'm4%0:i13'
p1520
sS'chunktype'
p1521
S'head:NP5'
p1522
sS'crefchainhead'
p1523
S'i15:t8'
p1524
sS'cref'
p1525
S'i15%1:t8'
p1526
sS'drel'
p1527
S'ccof:CCP'
p1528
ssbsg26
I00
sg27
I00
sg28
Nsg29
Nsg30
I5
sg31
I2
sg32
Nsg33
Nsg34
S'NNP'
p1529
sg36
g1506
sg37
I00
sba(issf_api
Word
p1530
(dp1531
g6
I00
sg7
V(
p1532
sg9
(issf_api
FeatureSet
p1533
(dp1534
g12
(dp1535
S'posn'
p1536
S'220'
p1537
sS'name'
p1538
S'(2'
p1539
sS'af'
p1540
S',punc,,,,,,'
p1541
sS'acrefmod'
p1542
S'm4%0:i13'
p1543
sS'drel'
p1544
S'rsym:NP6'
p1545
sS'chunktype'
p1546
S'child:NP6'
p1547
ssbsg26
I00
sg27
I00
sg28
Nsg29
Nsg30
I6
sg31
I2
sg32
Nsg33
Nsg34
S'SYM'
p1548
sg36
g1533
sg37
I00
sba(issf_api
Word
p1549
(dp1550
g6
I00
sg7
V\u0938\u0940\u090f\u092e\u091f\u0940\u0921\u0940\u092f\u0942
p1551
sg9
(issf_api
FeatureSet
p1552
(dp1553
g12
(dp1554
S'crefhead'
p1555
S'\xe0\xa4\xb8\xe0\xa5\x80\xe0\xa4\x8f\xe0\xa4\xae\xe0\xa4\x9f\xe0\xa5\x80\xe0\xa4\xa1\xe0\xa5\x80\xe0\xa4\xaf\xe0\xa5\x82:i16'
p1556
sS'posn'
p1557
S'230'
p1558
sS'name'
p1559
S'\xe0\xa4\xb8\xe0\xa5\x80\xe0\xa4\x8f\xe0\xa4\xae\xe0\xa4\x9f\xe0\xa5\x80\xe0\xa4\xa1\xe0\xa5\x80\xe0\xa4\xaf\xe0\xa5\x82'
p1560
sS'af'
p1561
S'\xe0\xa4\xb8\xe0\xa5\x80\xe0\xa4\x8f\xe0\xa4\xae\xe0\xa4\x9f\xe0\xa5\x80\xe0\xa4\xa1\xe0\xa5\x80\xe0\xa4\xaf\xe0\xa5\x82,n,f,sg,3,o,0,0'
p1562
sS'chunkid'
p1563
S'NP6'
p1564
sS'acrefmod'
p1565
S'm4%0:i13'
p1566
sS'creftype'
p1567
S'Coreference-Abbreviation:i15'
p1568
sS'chunktype'
p1569
S'head:NP6'
p1570
sS'cref'
p1571
S'i16%1:t8'
p1572
sS'drel'
p1573
S'rs:NP5'
p1574
ssbsg26
I00
sg27
I00
sg28
Nsg29
Nsg30
I6
sg31
I2
sg32
Nsg33
Nsg34
S'NNP'
p1575
sg36
g1552
sg37
I00
sba(issf_api
Word
p1576
(dp1577
g6
I00
sg7
V)
p1578
sg9
(issf_api
FeatureSet
p1579
(dp1580
g12
(dp1581
S'posn'
p1582
S'240'
p1583
sS'name'
p1584
S')2'
p1585
sS'af'
p1586
S',punc,,,,,,'
p1587
sS'acrefmod'
p1588
S'm4%1:i13'
p1589
sS'drel'
p1590
S'rsym:NP6'
p1591
sS'chunktype'
p1592
S'child:NP6'
p1593
ssbsg26
I00
sg27
I00
sg28
Nsg29
Nsg30
I6
sg31
I2
sg32
Nsg33
Nsg34
S'SYM'
p1594
sg36
g1579
sg37
I00
sba(issf_api
Word
p1595
(dp1596
g6
I00
sg7
V\u0915\u0947
p1597
sg9
(issf_api
FeatureSet
p1598
(dp1599
g12
(dp1600
S'name'
p1601
S'\xe0\xa4\x95\xe0\xa5\x873'
p1602
sS'drel'
p1603
S'fragof:NP5'
p1604
sS'chunktype'
p1605
S'head:FRAGP'
p1606
sS'chunkid'
p1607
S'FRAGP'
p1608
ssbsg26
I00
sg27
I00
sg28
Nsg29
Nsg30
I7
sg31
I2
sg32
Nsg33
Nsg34
S'PSP'
p1609
sg36
g1598
sg37
I00
sba(issf_api
Word
p1610
(dp1611
g6
I00
sg7
V\u092a\u094d\u0930\u0924\u093f\u0928\u093f\u0927\u093f\u092f\u094b\u0902
p1612
sg9
(issf_api
FeatureSet
p1613
(dp1614
g12
(dp1615
S'crefhead'
p1616
S'\xe0\xa4\xaa\xe0\xa5\x8d\xe0\xa4\xb0\xe0\xa4\xa4\xe0\xa4\xbf\xe0\xa4\xa8\xe0\xa4\xbf\xe0\xa4\xa7\xe0\xa4\xbf\xe0\xa4\xaf\xe0\xa5\x8b\xe0\xa4\x82:i13'
p1617
sS'posn'
p1618
S'260'
p1619
sS'name'
p1620
S'\xe0\xa4\xaa\xe0\xa5\x8d\xe0\xa4\xb0\xe0\xa4\xa4\xe0\xa4\xbf\xe0\xa4\xa8\xe0\xa4\xbf\xe0\xa4\xa7\xe0\xa4\xbf\xe0\xa4\xaf\xe0\xa5\x8b\xe0\xa4\x82'
p1621
sS'af'
p1622
S'\xe0\xa4\xaa\xe0\xa5\x8d\xe0\xa4\xb0\xe0\xa4\xa4\xe0\xa4\xbf\xe0\xa4\xa8\xe0\xa4\xbf\xe0\xa4\xa7\xe0\xa4\xbf,n,m,pl,3,o,0_\xe0\xa4\xa8\xe0\xa5\x87,0'
p1623
sS'chunkid'
p1624
S'NP7'
p1625
sS'crefmod'
p1626
S'm4:i13'
p1627
sS'chunktype'
p1628
S'head:NP7'
p1629
sS'crefchainhead'
p1630
S'i13:t9'
p1631
sS'vpos'
p1632
S'vib_2'
p1633
sS'cref'
p1634
S'i13%1:t9'
p1635
sS'drel'
p1636
S'k1:VGF'
p1637
ssbsg26
I00
sg27
I00
sg28
Nsg29
Nsg30
I8
sg31
I2
sg32
Nsg33
Nsg34
S'NN'
p1638
sg36
g1613
sg37
I00
sba(issf_api
Word
p1639
(dp1640
g6
I00
sg7
V\u0928\u0947
p1641
sg9
(issf_api
FeatureSet
p1642
(dp1643
g12
(dp1644
S'posn'
p1645
S'270'
p1646
sS'name'
p1647
S'\xe0\xa4\xa8\xe0\xa5\x87'
p1648
sS'drel'
p1649
S'lwg__psp:NP7'
p1650
sS'chunktype'
p1651
S'child:NP7'
p1652
sS'af'
p1653
S'\xe0\xa4\xa8\xe0\xa5\x87,psp,,,,,,'
p1654
ssbsg26
I00
sg27
I00
sg28
Nsg29
Nsg30
I8
sg31
I2
sg32
Nsg33
Nsg34
S'PSP'
p1655
sg36
g1642
sg37
I00
sba(issf_api
Word
p1656
(dp1657
g6
I00
sg7
V\u0915\u0939\u093e
p1658
sg9
(issf_api
FeatureSet
p1659
(dp1660
g12
(dp1661
S'posn'
p1662
S'280'
p1663
sS'name'
p1664
S'\xe0\xa4\x95\xe0\xa4\xb9\xe0\xa4\xbe'
p1665
sS'af'
p1666
S'\xe0\xa4\x95\xe0\xa4\xb9,v,m,sg,any,,\xe0\xa4\xaf\xe0\xa4\xbe,yA'
p1667
sS'chunkid'
p1668
S'VGF'
p1669
sS'chunktype'
p1670
S'head:VGF'
p1671
sS'voicetype'
p1672
S'active'
p1673
sS'stype'
p1674
S'declarative'
p1675
ssbsg26
I00
sg27
I00
sg28
Nsg29
Nsg30
I9
sg31
I2
sg32
Nsg33
Nsg34
S'VM'
p1676
sg36
g1659
sg37
I00
sba(issf_api
Word
p1677
(dp1678
g6
I00
sg7
V\u0915\u093f
p1679
sg9
(issf_api
FeatureSet
p1680
(dp1681
g12
(dp1682
S'posn'
p1683
S'290'
p1684
sS'name'
p1685
S'\xe0\xa4\x95\xe0\xa4\xbf'
p1686
sS'af'
p1687
S'\xe0\xa4\x95\xe0\xa4\xbf,avy,,,,,,'
p1688
sS'chunkid'
p1689
S'CCP2'
p1690
sS'drel'
p1691
S'k2:VGF'
p1692
sS'chunktype'
p1693
S'head:CCP2'
p1694
ssbsg26
I00
sg27
I00
sg28
Nsg29
Nsg30
I10
sg31
I2
sg32
Nsg33
Nsg34
S'CC'
p1695
sg36
g1680
sg37
I00
sba(issf_api
Word
p1696
(dp1697
g6
I00
sg7
V\u0935\u0947
p1698
sg9
(issf_api
FeatureSet
p1699
(dp1700
g12
(dp1701
S'crefhead'
p1702
S'\xe0\xa4\xb5\xe0\xa5\x87:i17'
p1703
sS'posn'
p1704
S'300'
p1705
sS'name'
p1706
S'\xe0\xa4\xb5\xe0\xa5\x87'
p1707
sS'af'
p1708
S'\xe0\xa4\xb5\xe0\xa4\xb9,pn,any,pl,3,d,0,0'
p1709
sS'chunkid'
p1710
S'NP8'
p1711
sS'creftype'
p1712
S'Anaphora-C:i13'
p1713
sS'chunktype'
p1714
S'head:NP8'
p1715
sS'cref'
p1716
S'i17%1:t9'
p1717
sS'drel'
p1718
S'k1:VGF2'
p1719
ssbsg26
I00
sg27
I00
sg28
Nsg29
Nsg30
I11
sg31
I2
sg32
Nsg33
Nsg34
S'PRP'
p1720
sg36
g1699
sg37
I00
sba(issf_api
Word
p1721
(dp1722
g6
I00
sg7
V\u0915\u093f\u0930\u093e\u092f\u093e
p1723
sg9
(issf_api
FeatureSet
p1724
(dp1725
g12
(dp1726
S'posn'
p1727
S'310'
p1728
sS'name'
p1729
S'\xe0\xa4\x95\xe0\xa4\xbf\xe0\xa4\xb0\xe0\xa4\xbe\xe0\xa4\xaf\xe0\xa4\xbe'
p1730
sS'af'
p1731
S'\xe0\xa4\x95\xe0\xa4\xbf\xe0\xa4\xb0\xe0\xa4\xbe\xe0\xa4\xaf\xe0\xa4\xbe,n,m,sg,3,d,0,0'
p1732
sS'chunkid'
p1733
S'NP9'
p1734
sS'drel'
p1735
S'k2:VGNN'
p1736
sS'chunktype'
p1737
S'head:NP9'
p1738
sS'cref'
p1739
S'i18%0:t10'
p1740
ssbsg26
I00
sg27
I00
sg28
Nsg29
Nsg30
I12
sg31
I2
sg32
Nsg33
Nsg34
S'NN'
p1741
sg36
g1724
sg37
I00
sba(issf_api
Word
p1742
(dp1743
g6
I00
sg7
V\u092c\u0922\u093c\u093e\u092f\u0947
p1744
sg9
(issf_api
FeatureSet
p1745
(dp1746
g12
(dp1747
S'crefhead'
p1748
S'\xe0\xa4\xac\xe0\xa4\xa2\xe0\xa4\xbc\xe0\xa4\xbe\xe0\xa4\xaf\xe0\xa5\x87:i18'
p1749
sS'posn'
p1750
S'320'
p1751
sS'name'
p1752
S'\xe0\xa4\xac\xe0\xa4\xa2\xe0\xa4\xbc\xe0\xa4\xbe\xe0\xa4\xaf\xe0\xa5\x87'
p1753
sS'af'
p1754
S'\xe0\xa4\xac\xe0\xa4\xa2\xe0\xa4\xbc\xe0\xa4\xbe,v,any,sg,any,,\xe0\xa4\xaf\xe0\xa4\xbe_\xe0\xa4\x9c\xe0\xa4\xbe+\xe0\xa4\xa8\xe0\xa4\xbe_\xe0\xa4\x95\xe0\xa4\xbe,yA'
p1755
sS'chunkid'
p1756
S'VGNN'
p1757
sS'chunktype'
p1758
S'head:VGNN'
p1759
sS'crefchainhead'
p1760
S'i18:t10'
p1761
sS'vpos'
p1762
S'tam_2_3'
p1763
sS'cref'
p1764
S'i18%0:t10'
p1765
sS'drel'
p1766
S'r6:NP10'
p1767
ssbsg26
I00
sg27
I00
sg28
Nsg29
Nsg30
I13
sg31
I2
sg32
Nsg33
Nsg34
S'VM'
p1768
sg36
g1745
sg37
I00
sba(issf_api
Word
p1769
(dp1770
g6
I00
sg7
V\u091c\u093e\u0928\u0947
p1771
sg9
(issf_api
FeatureSet
p1772
(dp1773
g12
(dp1774
S'posn'
p1775
S'330'
p1776
sS'name'
p1777
S'\xe0\xa4\x9c\xe0\xa4\xbe\xe0\xa4\xa8\xe0\xa5\x87'
p1778
sS'af'
p1779
S'\xe0\xa4\x9c\xe0\xa4\xbe,v,any,any,any,o,\xe0\xa4\xa8\xe0\xa4\xbe,nA'
p1780
sS'drel'
p1781
S'lwg__vaux:VGNN'
p1782
sS'chunktype'
p1783
S'child:VGNN'
p1784
sS'cref'
p1785
S'i18%1:t10'
p1786
ssbsg26
I00
sg27
I00
sg28
Nsg29
Nsg30
I13
sg31
I2
sg32
Nsg33
Nsg34
S'VAUX'
p1787
sg36
g1772
sg37
I00
sba(issf_api
Word
p1788
(dp1789
g6
I00
sg7
V\u0915\u0947
p1790
sg9
(issf_api
FeatureSet
p1791
(dp1792
g12
(dp1793
S'posn'
p1794
S'340'
p1795
sS'name'
p1796
S'\xe0\xa4\x95\xe0\xa5\x874'
p1797
sS'drel'
p1798
S'lwg__psp:VGNN'
p1799
sS'chunktype'
p1800
S'child:VGNN'
p1801
sS'af'
p1802
S'\xe0\xa4\x95\xe0\xa4\xbe,psp,m,sg,,o,,'
p1803
ssbsg26
I00
sg27
I00
sg28
Nsg29
Nsg30
I13
sg31
I2
sg32
Nsg33
Nsg34
S'PSP'
p1804
sg36
g1791
sg37
I00
sba(issf_api
Word
p1805
(dp1806
g6
I00
sg7
V\u0938\u0930\u0915\u093e\u0930
p1807
sg9
(issf_api
FeatureSet
p1808
(dp1809
g12
(dp1810
S'crefhead'
p1811
S'\xe0\xa4\xb8\xe0\xa4\xb0\xe0\xa4\x95\xe0\xa4\xbe\xe0\xa4\xb0:i19'
p1812
sS'posn'
p1813
S'350'
p1814
sS'name'
p1815
S'\xe0\xa4\xb8\xe0\xa4\xb0\xe0\xa4\x95\xe0\xa4\xbe\xe0\xa4\xb0'
p1816
sS'af'
p1817
S'\xe0\xa4\xb8\xe0\xa4\xb0\xe0\xa4\x95\xe0\xa4\xbe\xe0\xa4\xb0,n,f,sg,3,o,0_\xe0\xa4\x95\xe0\xa4\xbe,0'
p1818
sS'chunkid'
p1819
S'NP10'
p1820
sS'chunktype'
p1821
S'head:NP10'
p1822
sS'crefchainhead'
p1823
S'i19:t11'
p1824
sS'vpos'
p1825
S'vib_2'
p1826
sS'cref'
p1827
S'i19%1:t11'
p1828
sS'drel'
p1829
S'r6:NP11'
p1830
ssbsg26
I00
sg27
I00
sg28
Nsg29
Nsg30
I14
sg31
I2
sg32
Nsg33
Nsg34
S'NN'
p1831
sg36
g1808
sg37
I00
sba(issf_api
Word
p1832
(dp1833
g6
I00
sg7
V\u0915\u0947
p1834
sg9
(issf_api
FeatureSet
p1835
(dp1836
g12
(dp1837
S'posn'
p1838
S'360'
p1839
sS'name'
p1840
S'\xe0\xa4\x95\xe0\xa5\x875'
p1841
sS'drel'
p1842
S'lwg__psp:NP10'
p1843
sS'chunktype'
p1844
S'child:NP10'
p1845
sS'af'
p1846
S'\xe0\xa4\x95\xe0\xa4\xbe,psp,m,sg,,o,,'
p1847
ssbsg26
I00
sg27
I00
sg28
Nsg29
Nsg30
I14
sg31
I2
sg32
Nsg33
Nsg34
S'PSP'
p1848
sg36
g1835
sg37
I00
sba(issf_api
Word
p1849
(dp1850
g6
I00
sg7
V\u0906\u0936\u094d\u0935\u093e\u0938\u0928
p1851
sg9
(issf_api
FeatureSet
p1852
(dp1853
g12
(dp1854
S'posn'
p1855
S'370'
p1856
sS'name'
p1857
S'\xe0\xa4\x86\xe0\xa4\xb6\xe0\xa5\x8d\xe0\xa4\xb5\xe0\xa4\xbe\xe0\xa4\xb8\xe0\xa4\xa8'
p1858
sS'af'
p1859
S'\xe0\xa4\x86\xe0\xa4\xb6\xe0\xa5\x8d\xe0\xa4\xb5\xe0\xa4\xbe\xe0\xa4\xb8\xe0\xa4\xa8,n,m,sg,3,o,0_\xe0\xa4\x95\xe0\xa5\x87_\xe0\xa4\xac\xe0\xa4\xbe\xe0\xa4\xa6,0'
p1860
sS'chunkid'
p1861
S'NP11'
p1862
sS'drel'
p1863
S'k7t:VGF2'
p1864
sS'vpos'
p1865
S'vib_2_3'
p1866
sS'chunktype'
p1867
S'head:NP11'
p1868
ssbsg26
I00
sg27
I00
sg28
Nsg29
Nsg30
I15
sg31
I2
sg32
Nsg33
Nsg34
S'NN'
p1869
sg36
g1852
sg37
I00
sba(issf_api
Word
p1870
(dp1871
g6
I00
sg7
V\u0915\u0947
p1872
sg9
(issf_api
FeatureSet
p1873
(dp1874
g12
(dp1875
S'posn'
p1876
S'380'
p1877
sS'name'
p1878
S'\xe0\xa4\x95\xe0\xa5\x876'
p1879
sS'drel'
p1880
S'lwg__psp:NP11'
p1881
sS'chunktype'
p1882
S'child:NP11'
p1883
sS'af'
p1884
S'\xe0\xa4\x95\xe0\xa5\x87,psp,,,,,,'
p1885
ssbsg26
I00
sg27
I00
sg28
Nsg29
Nsg30
I15
sg31
I2
sg32
Nsg33
Nsg34
S'PSP'
p1886
sg36
g1873
sg37
I00
sba(issf_api
Word
p1887
(dp1888
g6
I00
sg7
V\u092c\u093e\u0926
p1889
sg9
(issf_api
FeatureSet
p1890
(dp1891
g12
(dp1892
S'posn'
p1893
S'390'
p1894
sS'name'
p1895
S'\xe0\xa4\xac\xe0\xa4\xbe\xe0\xa4\xa62'
p1896
sS'drel'
p1897
S'lwg__psp:NP11'
p1898
sS'chunktype'
p1899
S'child:NP11'
p1900
sS'af'
p1901
S'\xe0\xa4\xac\xe0\xa4\xbe\xe0\xa4\xa6,nst,m,sg,3,d,,'
p1902
ssbsg26
I00
sg27
I00
sg28
Nsg29
Nsg30
I15
sg31
I2
sg32
Nsg33
Nsg34
S'NST'
p1903
sg36
g1890
sg37
I00
sba(issf_api
Word
p1904
(dp1905
g6
I00
sg7
V\u092c\u0941\u0927\u0935\u093e\u0930
p1906
sg9
(issf_api
FeatureSet
p1907
(dp1908
g12
(dp1909
S'crefhead'
p1910
S'\xe0\xa4\xac\xe0\xa5\x81\xe0\xa4\xa7\xe0\xa4\xb5\xe0\xa4\xbe\xe0\xa4\xb0:i20'
p1911
sS'posn'
p1912
S'400'
p1913
sS'name'
p1914
S'\xe0\xa4\xac\xe0\xa5\x81\xe0\xa4\xa7\xe0\xa4\xb5\xe0\xa4\xbe\xe0\xa4\xb0'
p1915
sS'af'
p1916
S'\xe0\xa4\xac\xe0\xa5\x81\xe0\xa4\xa7\xe0\xa4\xb5\xe0\xa4\xbe\xe0\xa4\xb0,n,m,sg,3,o,0_\xe0\xa4\xb8\xe0\xa5\x87,0'
p1917
sS'chunkid'
p1918
S'NP12'
p1919
sS'chunktype'
p1920
S'head:NP12'
p1921
sS'crefchainhead'
p1922
S'i20:t12'
p1923
sS'vpos'
p1924
S'vib_2'
p1925
sS'cref'
p1926
S'i20%1:t12'
p1927
sS'drel'
p1928
S'k7t:VGF2'
p1929
ssbsg26
I00
sg27
I00
sg28
Nsg29
Nsg30
I16
sg31
I2
sg32
Nsg33
Nsg34
S'NNP'
p1930
sg36
g1907
sg37
I00
sba(issf_api
Word
p1931
(dp1932
g6
I00
sg7
V\u0938\u0947
p1933
sg9
(issf_api
FeatureSet
p1934
(dp1935
g12
(dp1936
S'posn'
p1937
S'410'
p1938
sS'name'
p1939
S'\xe0\xa4\xb8\xe0\xa5\x87'
p1940
sS'drel'
p1941
S'lwg__psp:NP12'
p1942
sS'chunktype'
p1943
S'child:NP12'
p1944
sS'af'
p1945
S'\xe0\xa4\xb8\xe0\xa5\x87,psp,,,,,,'
p1946
ssbsg26
I00
sg27
I00
sg28
Nsg29
Nsg30
I16
sg31
I2
sg32
Nsg33
Nsg34
S'PSP'
p1947
sg36
g1934
sg37
I00
sba(issf_api
Word
p1948
(dp1949
g6
I00
sg7
V\u0905\u092a\u0928\u0940
p1950
sg9
(issf_api
FeatureSet
p1951
(dp1952
g12
(dp1953
S'crefhead'
p1954
S'\xe0\xa4\x85\xe0\xa4\xaa\xe0\xa4\xa8\xe0\xa5\x80:i21'
p1955
sS'posn'
p1956
S'420'
p1957
sS'name'
p1958
S'\xe0\xa4\x85\xe0\xa4\xaa\xe0\xa4\xa8\xe0\xa5\x80'
p1959
sS'af'
p1960
S'\xe0\xa4\x85\xe0\xa4\xaa\xe0\xa4\xa8\xe0\xa4\xbe,pn,f,any,any,d,0,0'
p1961
sS'acrefmodhead'
p1962
S'\xe0\xa4\x85\xe0\xa4\xaa\xe0\xa4\xa8\xe0\xa5\x80:m5'
p1963
sS'chunkid'
p1964
S'NP13'
p1965
sS'acrefmod'
p1966
S'm5%1:i22'
p1967
sS'creftype'
p1968
S'Anaphora-C:i17'
p1969
sS'chunktype'
p1970
S'head:NP13'
p1971
sS'cref'
p1972
S'i21%1:t9'
p1973
sS'drel'
p1974
S'r6:NP14'
p1975
ssbsg26
I00
sg27
I00
sg28
Nsg29
Nsg30
I17
sg31
I2
sg32
Nsg33
Nsg34
S'PRP'
p1976
sg36
g1951
sg37
I00
sba(issf_api
Word
p1977
(dp1978
g6
I00
sg7
V\u0939\u0921\u093c\u0924\u093e\u0932
p1979
sg9
(issf_api
FeatureSet
p1980
(dp1981
g12
(dp1982
S'crefhead'
p1983
S'\xe0\xa4\xb9\xe0\xa4\xa1\xe0\xa4\xbc\xe0\xa4\xa4\xe0\xa4\xbe\xe0\xa4\xb2:i22'
p1984
sS'posn'
p1985
S'430'
p1986
sS'name'
p1987
S'\xe0\xa4\xb9\xe0\xa4\xa1\xe0\xa4\xbc\xe0\xa4\xa4\xe0\xa4\xbe\xe0\xa4\xb2'
p1988
sS'af'
p1989
S'\xe0\xa4\xb9\xe0\xa4\xa1\xe0\xa4\xbc\xe0\xa4\xa4\xe0\xa4\xbe\xe0\xa4\xb2,n,f,sg,3,d,0,0'
p1990
sS'chunkid'
p1991
S'NP14'
p1992
sS'crefmod'
p1993
S'm5:i22'
p1994
sS'creftype'
p1995
S'Coreference-Identity:i5'
p1996
sS'chunktype'
p1997
S'head:NP14'
p1998
sS'cref'
p1999
S'i22%1:t3'
p2000
sS'drel'
p2001
S'k2:VGF2'
p2002
ssbsg26
I00
sg27
I00
sg28
Nsg29
Nsg30
I18
sg31
I2
sg32
Nsg33
Nsg34
S'NN'
p2003
sg36
g1980
sg37
I00
sba(issf_api
Word
p2004
(dp2005
g6
I00
sg7
V\u0938\u092e\u093e\u092a\u094d\u0924
p2006
sg9
(issf_api
FeatureSet
p2007
(dp2008
g12
(dp2009
S'posn'
p2010
S'440'
p2011
sS'name'
p2012
S'\xe0\xa4\xb8\xe0\xa4\xae\xe0\xa4\xbe\xe0\xa4\xaa\xe0\xa5\x8d\xe0\xa4\xa4'
p2013
sS'af'
p2014
S'\xe0\xa4\xb8\xe0\xa4\xae\xe0\xa4\xbe\xe0\xa4\xaa\xe0\xa5\x8d\xe0\xa4\xa4,adj,any,any,,,,'
p2015
sS'chunkid'
p2016
S'JJP'
p2017
sS'drel'
p2018
S'pof:VGF2'
p2019
sS'chunktype'
p2020
S'head:JJP'
p2021
ssbsg26
I00
sg27
I00
sg28
Nsg29
Nsg30
I19
sg31
I2
sg32
Nsg33
Nsg34
S'JJ'
p2022
sg36
g2007
sg37
I00
sba(issf_api
Word
p2023
(dp2024
g6
I00
sg7
V\u0915\u0930
p2025
sg9
(issf_api
FeatureSet
p2026
(dp2027
g12
(dp2028
S'posn'
p2029
S'450'
p2030
sS'name'
p2031
S'\xe0\xa4\x95\xe0\xa4\xb0'
p2032
sS'af'
p2033
S'\xe0\xa4\x95\xe0\xa4\xb0,v,any,pl,3,,0_\xe0\xa4\xa6\xe0\xa5\x87+\xe0\xa4\x97\xe0\xa4\xbe,0'
p2034
sS'chunkid'
p2035
S'VGF2'
p2036
sS'stype'
p2037
S'declarative'
p2038
sS'drel'
p2039
S'ccof:CCP2'
p2040
sS'voicetype'
p2041
S'active'
p2042
sS'vpos'
p2043
S'tam_2'
p2044
sS'chunktype'
p2045
S'head:VGF2'
p2046
ssbsg26
I00
sg27
I00
sg28
Nsg29
Nsg30
I20
sg31
I2
sg32
Nsg33
Nsg34
S'VM'
p2047
sg36
g2026
sg37
I00
sba(issf_api
Word
p2048
(dp2049
g6
I00
sg7
V\u0926\u0947\u0902\u0917\u0947
p2050
sg9
(issf_api
FeatureSet
p2051
(dp2052
g12
(dp2053
S'posn'
p2054
S'460'
p2055
sS'name'
p2056
S'\xe0\xa4\xa6\xe0\xa5\x87\xe0\xa4\x82\xe0\xa4\x97\xe0\xa5\x87'
p2057
sS'drel'
p2058
S'lwg__vaux:VGF2'
p2059
sS'chunktype'
p2060
S'child:VGF2'
p2061
sS'af'
p2062
S'\xe0\xa4\xa6\xe0\xa5\x87,v,m,pl,3,,\xe0\xa4\x97\xe0\xa4\xbe,gA'
p2063
ssbsg26
I00
sg27
I00
sg28
Nsg29
Nsg30
I20
sg31
I2
sg32
Nsg33
Nsg34
S'VAUX'
p2064
sg36
g2051
sg37
I00
sba(issf_api
Word
p2065
(dp2066
g6
I00
sg7
V\u0964
p2067
sg9
(issf_api
FeatureSet
p2068
(dp2069
g12
(dp2070
S'posn'
p2071
S'470'
p2072
sS'name'
p2073
S'\xe0\xa5\xa4'
p2074
sS'af'
p2075
S'\xe0\xa5\xa4,punc,,,,,,'
p2076
sS'chunkid'
p2077
S'BLK'
p2078
sS'drel'
p2079
S'rsym:VGF'
p2080
sS'chunktype'
p2081
S'head:BLK'
p2082
ssbsg26
I00
sg27
I00
sg28
Nsg29
Nsg30
I21
sg31
I2
sg32
Nsg33
Nsg34
S'SYM'
p2083
sg36
g2068
sg37
I00
sba(issf_api
Word
p2084
(dp2085
g6
I00
sg7
V\u0926\u0942\u0938\u0930\u0940
p2086
sg9
(issf_api
FeatureSet
p2087
(dp2088
g12
(dp2089
S'posn'
p2090
S'10'
p2091
sS'name'
p2092
S'\xe0\xa4\xa6\xe0\xa5\x82\xe0\xa4\xb8\xe0\xa4\xb0\xe0\xa5\x80'
p2093
sS'af'
p2094
S'\xe0\xa4\xa6\xe0\xa5\x82\xe0\xa4\xb8\xe0\xa4\xb0\xe0\xa4\xbe,num,f,sg,,d,,'
p2095
sS'chunkid'
p2096
S'NP'
p2097
sS'drel'
p2098
S'sent-adv:VGF'
p2099
sS'chunktype'
p2100
S'head:NP'
p2101
ssbsg26
I00
sg27
I00
sg28
Nsg29
Nsg30
I0
sg31
I3
sg32
Nsg33
Nsg34
S'QO'
p2102
sg36
g2087
sg37
I00
sba(issf_api
Word
p2103
(dp2104
g6
I00
sg7
V\u0913\u0930
p2105
sg9
(issf_api
FeatureSet
p2106
(dp2107
g12
(dp2108
S'posn'
p2109
S'20'
p2110
sS'name'
p2111
S'\xe0\xa4\x93\xe0\xa4\xb0'
p2112
sS'drel'
p2113
S'lwg__psp:NP'
p2114
sS'chunktype'
p2115
S'child:NP'
p2116
sS'af'
p2117
S'\xe0\xa4\x93\xe0\xa4\xb0,nst,f,sg,3,d,,'
p2118
ssbsg26
I00
sg27
I00
sg28
Nsg29
Nsg30
I0
sg31
I3
sg32
Nsg33
Nsg34
S'NST'
p2119
sg36
g2106
sg37
I00
sba(issf_api
Word
p2120
(dp2121
g6
I00
sg7
V,
p2122
sg9
(issf_api
FeatureSet
p2123
(dp2124
g12
(dp2125
S'posn'
p2126
S'30'
p2127
sS'name'
p2128
S','
p2129
sS'drel'
p2130
S'rsym:NP'
p2131
sS'chunktype'
p2132
S'child:NP'
p2133
sS'af'
p2134
S'COMMA,punc,,,,,,'
p2135
ssbsg26
I00
sg27
I00
sg28
Nsg29
Nsg30
I0
sg31
I3
sg32
Nsg33
Nsg34
S'SYM'
p2136
sg36
g2123
sg37
I00
sba(issf_api
Word
p2137
(dp2138
g6
I00
sg7
V\u091a\u0915\u094d\u0930\u0935\u0930\u094d\u0924\u0940
p2139
sg9
(issf_api
FeatureSet
p2140
(dp2141
g12
(dp2142
S'crefhead'
p2143
S'\xe0\xa4\x9a\xe0\xa4\x95\xe0\xa5\x8d\xe0\xa4\xb0\xe0\xa4\xb5\xe0\xa4\xb0\xe0\xa5\x8d\xe0\xa4\xa4\xe0\xa5\x80:i23'
p2144
sS'posn'
p2145
S'40'
p2146
sS'name'
p2147
S'\xe0\xa4\x9a\xe0\xa4\x95\xe0\xa5\x8d\xe0\xa4\xb0\xe0\xa4\xb5\xe0\xa4\xb0\xe0\xa5\x8d\xe0\xa4\xa4\xe0\xa5\x80'
p2148
sS'af'
p2149
S'\xe0\xa4\x9a\xe0\xa4\x95\xe0\xa5\x8d\xe0\xa4\xb0\xe0\xa4\xb5\xe0\xa4\xb0\xe0\xa5\x8d\xe0\xa4\xa4\xe0\xa5\x80,n,any,sg,3,o,0_\xe0\xa4\xa8\xe0\xa5\x87,0'
p2150
sS'chunkid'
p2151
S'NP2'
p2152
sS'creftype'
p2153
S'Coreference-Identity:i10'
p2154
sS'chunktype'
p2155
S'head:NP2'
p2156
sS'vpos'
p2157
S'vib_2'
p2158
sS'cref'
p2159
S'i23%1:t6'
p2160
sS'drel'
p2161
S'k1:VGF'
p2162
ssbsg26
I00
sg27
I00
sg28
Nsg29
Nsg30
I1
sg31
I3
sg32
Nsg33
Nsg34
S'NNP'
p2163
sg36
g2140
sg37
I00
sba(issf_api
Word
p2164
(dp2165
g6
I00
sg7
V\u0928\u0947
p2166
sg9
(issf_api
FeatureSet
p2167
(dp2168
g12
(dp2169
S'posn'
p2170
S'50'
p2171
sS'name'
p2172
S'\xe0\xa4\xa8\xe0\xa5\x87'
p2173
sS'drel'
p2174
S'lwg__psp:NP2'
p2175
sS'chunktype'
p2176
S'child:NP2'
p2177
sS'af'
p2178
S'\xe0\xa4\xa8\xe0\xa5\x87,psp,,,,,,'
p2179
ssbsg26
I00
sg27
I00
sg28
Nsg29
Nsg30
I1
sg31
I3
sg32
Nsg33
Nsg34
S'PSP'
p2180
sg36
g2167
sg37
I00
sba(issf_api
Word
p2181
(dp2182
g6
I00
sg7
V\u092a\u0924\u094d\u0930\u0915\u093e\u0930\u094b\u0902
p2183
sg9
(issf_api
FeatureSet
p2184
(dp2185
g12
(dp2186
S'posn'
p2187
S'60'
p2188
sS'name'
p2189
S'\xe0\xa4\xaa\xe0\xa4\xa4\xe0\xa5\x8d\xe0\xa4\xb0\xe0\xa4\x95\xe0\xa4\xbe\xe0\xa4\xb0\xe0\xa5\x8b\xe0\xa4\x82'
p2190
sS'af'
p2191
S'\xe0\xa4\xaa\xe0\xa4\xa4\xe0\xa5\x8d\xe0\xa4\xb0\xe0\xa4\x95\xe0\xa4\xbe\xe0\xa4\xb0,n,m,pl,3,o,0_\xe0\xa4\xb8\xe0\xa5\x87,0'
p2192
sS'chunkid'
p2193
S'NP3'
p2194
sS'drel'
p2195
S'k4:VGF'
p2196
sS'vpos'
p2197
S'vib_2'
p2198
sS'chunktype'
p2199
S'head:NP3'
p2200
ssbsg26
I00
sg27
I00
sg28
Nsg29
Nsg30
I2
sg31
I3
sg32
Nsg33
Nsg34
S'NN'
p2201
sg36
g2184
sg37
I00
sba(issf_api
Word
p2202
(dp2203
g6
I00
sg7
V\u0938\u0947
p2204
sg9
(issf_api
FeatureSet
p2205
(dp2206
g12
(dp2207
S'posn'
p2208
S'70'
p2209
sS'name'
p2210
S'\xe0\xa4\xb8\xe0\xa5\x87'
p2211
sS'drel'
p2212
S'lwg__psp:NP3'
p2213
sS'chunktype'
p2214
S'child:NP3'
p2215
sS'af'
p2216
S'\xe0\xa4\xb8\xe0\xa5\x87,psp,,,,,,'
p2217
ssbsg26
I00
sg27
I00
sg28
Nsg29
Nsg30
I2
sg31
I3
sg32
Nsg33
Nsg34
S'PSP'
p2218
sg36
g2205
sg37
I00
sba(issf_api
Word
p2219
(dp2220
g6
I00
sg7
V\u0915\u0939\u093e
p2221
sg9
(issf_api
FeatureSet
p2222
(dp2223
g12
(dp2224
S'posn'
p2225
S'80'
p2226
sS'name'
p2227
S'\xe0\xa4\x95\xe0\xa4\xb9\xe0\xa4\xbe'
p2228
sS'af'
p2229
S'\xe0\xa4\x95\xe0\xa4\xb9,v,m,sg,any,,\xe0\xa4\xaf\xe0\xa4\xbe,yA'
p2230
sS'chunkid'
p2231
S'VGF'
p2232
sS'chunktype'
p2233
S'head:VGF'
p2234
sS'voicetype'
p2235
S'active'
p2236
sS'stype'
p2237
S'declarative'
p2238
ssbsg26
I00
sg27
I00
sg28
Nsg29
Nsg30
I3
sg31
I3
sg32
Nsg33
Nsg34
S'VM'
p2239
sg36
g2222
sg37
I00
sba(issf_api
Word
p2240
(dp2241
g6
I00
sg7
V\u0915\u093f
p2242
sg9
(issf_api
FeatureSet
p2243
(dp2244
g12
(dp2245
S'posn'
p2246
S'90'
p2247
sS'name'
p2248
S'\xe0\xa4\x95\xe0\xa4\xbf'
p2249
sS'af'
p2250
S'\xe0\xa4\x95\xe0\xa4\xbf,avy,,,,,,'
p2251
sS'chunkid'
p2252
S'CCP'
p2253
sS'drel'
p2254
S'k2:VGF'
p2255
sS'chunktype'
p2256
S'head:CCP'
p2257
ssbsg26
I00
sg27
I00
sg28
Nsg29
Nsg30
I4
sg31
I3
sg32
Nsg33
Nsg34
S'CC'
p2258
sg36
g2243
sg37
I00
sba(issf_api
Word
p2259
(dp2260
g6
I00
sg7
V\u092c\u0940\u091f\u0940\u090f
p2261
sg9
(issf_api
FeatureSet
p2262
(dp2263
g12
(dp2264
S'crefhead'
p2265
S'\xe0\xa4\xac\xe0\xa5\x80\xe0\xa4\x9f\xe0\xa5\x80\xe0\xa4\x8f:i24'
p2266
sS'posn'
p2267
S'100'
p2268
sS'name'
p2269
S'\xe0\xa4\xac\xe0\xa5\x80\xe0\xa4\x9f\xe0\xa5\x80\xe0\xa4\x8f'
p2270
sS'af'
p2271
S'\xe0\xa4\xac\xe0\xa5\x80\xe0\xa4\x9f\xe0\xa5\x80\xe0\xa4\x8f,n,f,sg,3,o,0,0'
p2272
sS'chunkid'
p2273
S'NP4'
p2274
sS'creftype'
p2275
S'Coreference-Identity:i14'
p2276
sS'chunktype'
p2277
S'head:NP4'
p2278
sS'cref'
p2279
S'i24%1:t7'
p2280
sS'drel'
p2281
S'ccof:CCP2'
p2282
ssbsg26
I00
sg27
I00
sg28
Nsg29
Nsg30
I5
sg31
I3
sg32
Nsg33
Nsg34
S'NNP'
p2283
sg36
g2262
sg37
I00
sba(issf_api
Word
p2284
(dp2285
g6
I00
sg7
V\u0914\u0930
p2286
sg9
(issf_api
FeatureSet
p2287
(dp2288
g12
(dp2289
S'posn'
p2290
S'110'
p2291
sS'name'
p2292
S'\xe0\xa4\x94\xe0\xa4\xb0'
p2293
sS'af'
p2294
S'\xe0\xa4\x94\xe0\xa4\xb0,avy,,,,,,'
p2295
sS'chunkid'
p2296
S'CCP2'
p2297
sS'drel'
p2298
S'k1:VGF2'
p2299
sS'chunktype'
p2300
S'head:CCP2'
p2301
ssbsg26
I00
sg27
I00
sg28
Nsg29
Nsg30
I6
sg31
I3
sg32
Nsg33
Nsg34
S'CC'
p2302
sg36
g2287
sg37
I00
sba(issf_api
Word
p2303
(dp2304
g6
I00
sg7
V\u0938\u0940\u090f\u092e\u091f\u0940\u0921\u0940\u092f\u0942
p2305
sg9
(issf_api
FeatureSet
p2306
(dp2307
g12
(dp2308
S'crefhead'
p2309
S'\xe0\xa4\xb8\xe0\xa5\x80\xe0\xa4\x8f\xe0\xa4\xae\xe0\xa4\x9f\xe0\xa5\x80\xe0\xa4\xa1\xe0\xa5\x80\xe0\xa4\xaf\xe0\xa5\x82:i25'
p2310
sS'posn'
p2311
S'120'
p2312
sS'name'
p2313
S'\xe0\xa4\xb8\xe0\xa5\x80\xe0\xa4\x8f\xe0\xa4\xae\xe0\xa4\x9f\xe0\xa5\x80\xe0\xa4\xa1\xe0\xa5\x80\xe0\xa4\xaf\xe0\xa5\x82'
p2314
sS'af'
p2315
S'\xe0\xa4\xb8\xe0\xa5\x80\xe0\xa4\x8f\xe0\xa4\xae\xe0\xa4\x9f\xe0\xa5\x80\xe0\xa4\xa1\xe0\xa5\x80\xe0\xa4\xaf\xe0\xa5\x82,n,f,sg,3,o,0_\xe0\xa4\xa8\xe0\xa5\x87,0'
p2316
sS'chunkid'
p2317
S'NP5'
p2318
sS'creftype'
p2319
S'Coreference-Identity:i16'
p2320
sS'chunktype'
p2321
S'head:NP5'
p2322
sS'vpos'
p2323
S'vib_2'
p2324
sS'cref'
p2325
S'i25%1:t8'
p2326
sS'drel'
p2327
S'ccof:CCP2'
p2328
ssbsg26
I00
sg27
I00
sg28
Nsg29
Nsg30
I7
sg31
I3
sg32
Nsg33
Nsg34
S'NNP'
p2329
sg36
g2306
sg37
I00
sba(issf_api
Word
p2330
(dp2331
g6
I00
sg7
V\u0928\u0947
p2332
sg9
(issf_api
FeatureSet
p2333
(dp2334
g12
(dp2335
S'posn'
p2336
S'130'
p2337
sS'name'
p2338
S'\xe0\xa4\xa8\xe0\xa5\x872'
p2339
sS'drel'
p2340
S'lwg__psp:NP5'
p2341
sS'chunktype'
p2342
S'child:NP5'
p2343
sS'af'
p2344
S'\xe0\xa4\xa8\xe0\xa5\x87,psp,,,,,,'
p2345
ssbsg26
I00
sg27
I00
sg28
Nsg29
Nsg30
I7
sg31
I3
sg32
Nsg33
Nsg34
S'PSP'
p2346
sg36
g2333
sg37
I00
sba(issf_api
Word
p2347
(dp2348
g6
I00
sg7
V\u092c\u0941\u0927\u0935\u093e\u0930
p2349
sg9
(issf_api
FeatureSet
p2350
(dp2351
g12
(dp2352
S'crefhead'
p2353
S'\xe0\xa4\xac\xe0\xa5\x81\xe0\xa4\xa7\xe0\xa4\xb5\xe0\xa4\xbe\xe0\xa4\xb0:i26'
p2354
sS'posn'
p2355
S'140'
p2356
sS'name'
p2357
S'\xe0\xa4\xac\xe0\xa5\x81\xe0\xa4\xa7\xe0\xa4\xb5\xe0\xa4\xbe\xe0\xa4\xb0'
p2358
sS'af'
p2359
S'\xe0\xa4\xac\xe0\xa5\x81\xe0\xa4\xa7\xe0\xa4\xb5\xe0\xa4\xbe\xe0\xa4\xb0,n,m,sg,3,o,0_\xe0\xa4\xb8\xe0\xa5\x87,0'
p2360
sS'chunkid'
p2361
S'NP6'
p2362
sS'creftype'
p2363
S'Coreference-Identity:i20'
p2364
sS'chunktype'
p2365
S'head:NP6'
p2366
sS'vpos'
p2367
S'vib_2'
p2368
sS'cref'
p2369
S'i26%1:t12'
p2370
sS'drel'
p2371
S'k5:VGNN'
p2372
ssbsg26
I00
sg27
I00
sg28
Nsg29
Nsg30
I8
sg31
I3
sg32
Nsg33
Nsg34
S'NNP'
p2373
sg36
g2350
sg37
I00
sba(issf_api
Word
p2374
(dp2375
g6
I00
sg7
V\u0938\u0947
p2376
sg9
(issf_api
FeatureSet
p2377
(dp2378
g12
(dp2379
S'posn'
p2380
S'150'
p2381
sS'name'
p2382
S'\xe0\xa4\xb8\xe0\xa5\x872'
p2383
sS'drel'
p2384
S'lwg__psp:NP6'
p2385
sS'chunktype'
p2386
S'child:NP6'
p2387
sS'af'
p2388
S'\xe0\xa4\xb8\xe0\xa5\x87,psp,,,,,,'
p2389
ssbsg26
I00
sg27
I00
sg28
Nsg29
Nsg30
I8
sg31
I3
sg32
Nsg33
Nsg34
S'PSP'
p2390
sg36
g2377
sg37
I00
sba(issf_api
Word
p2391
(dp2392
g6
I00
sg7
V\u0905\u092a\u0928\u0940
p2393
sg9
(issf_api
FeatureSet
p2394
(dp2395
g12
(dp2396
S'posn'
p2397
S'160'
p2398
sS'name'
p2399
S'\xe0\xa4\x85\xe0\xa4\xaa\xe0\xa4\xa8\xe0\xa5\x80'
p2400
sS'af'
p2401
S'\xe0\xa4\x85\xe0\xa4\xaa\xe0\xa4\xa8\xe0\xa4\xbe,pn,f,any,any,d,0,0'
p2402
sS'acrefmodhead'
p2403
S'\xe0\xa4\x85\xe0\xa4\xaa\xe0\xa4\xa8\xe0\xa5\x80:m6'
p2404
sS'chunkid'
p2405
S'NP7'
p2406
sS'acrefmod'
p2407
S'm6%1:i27'
p2408
sS'drel'
p2409
S'r6:NP8'
p2410
sS'chunktype'
p2411
S'head:NP7'
p2412
ssbsg26
I00
sg27
I00
sg28
Nsg29
Nsg30
I9
sg31
I3
sg32
Nsg33
Nsg34
S'PRP'
p2413
sg36
g2394
sg37
I00
sba(issf_api
Word
p2414
(dp2415
g6
I00
sg7
V\u0939\u0921\u093c\u0924\u093e\u0932
p2416
sg9
(issf_api
FeatureSet
p2417
(dp2418
g12
(dp2419
g492
g493
sS'crefhead'
p2420
S'\xe0\xa4\xb9\xe0\xa4\xa1\xe0\xa4\xbc\xe0\xa4\xa4\xe0\xa4\xbe\xe0\xa4\xb2:i27'
p2421
sS'name'
p2422
S'\xe0\xa4\xb9\xe0\xa4\xa1\xe0\xa4\xbc\xe0\xa4\xa4\xe0\xa4\xbe\xe0\xa4\xb2'
p2423
sS'af'
p2424
S'\xe0\xa4\xb9\xe0\xa4\xa1\xe0\xa4\xbc\xe0\xa4\xa4\xe0\xa4\xbe\xe0\xa4\xb2,n,f,sg,3,d,0,0'
p2425
sS'chunkid'
p2426
S'NP8'
p2427
sS'crefmod'
p2428
S'm6:i27'
p2429
sS'creftype'
p2430
S'Coreference-Identity:i22'
p2431
sS'chunktype'
p2432
S'head:NP8'
p2433
sS'posn'
p2434
S'170'
p2435
sS'cref'
p2436
S'i27%1:t3'
p2437
sS'drel'
p2438
S'k2:VGNN'
p2439
ssbsg26
I00
sg27
I00
sg28
Nsg29
Nsg30
I10
sg31
I3
sg32
Nsg33
Nsg34
S'NN'
p2440
sg36
g2417
sg37
I00
sba(issf_api
Word
p2441
(dp2442
g6
I00
sg7
V\u0935\u093e\u092a\u0938
p2443
sg9
(issf_api
FeatureSet
p2444
(dp2445
g12
(dp2446
S'posn'
p2447
S'180'
p2448
sS'name'
p2449
S'\xe0\xa4\xb5\xe0\xa4\xbe\xe0\xa4\xaa\xe0\xa4\xb8'
p2450
sS'af'
p2451
S'\xe0\xa4\xb5\xe0\xa4\xbe\xe0\xa4\xaa\xe0\xa4\xb8,adj,any,any,,,,'
p2452
sS'chunkid'
p2453
S'JJP'
p2454
sS'acrefmod'
p2455
S'm7%0:i28'
p2456
sS'drel'
p2457
S'pof:VGNN'
p2458
sS'chunktype'
p2459
S'head:JJP'
p2460
ssbsg26
I00
sg27
I00
sg28
Nsg29
Nsg30
I11
sg31
I3
sg32
Nsg33
Nsg34
S'JJ'
p2461
sg36
g2444
sg37
I00
sba(issf_api
Word
p2462
(dp2463
g6
I00
sg7
V\u0932\u0947\u0928\u0947
p2464
sg9
(issf_api
FeatureSet
p2465
(dp2466
g12
(dp2467
S'posn'
p2468
S'190'
p2469
sS'name'
p2470
S'\xe0\xa4\xb2\xe0\xa5\x87\xe0\xa4\xa8\xe0\xa5\x87'
p2471
sS'af'
p2472
S'\xe0\xa4\xb2\xe0\xa5\x87,v,any,sg,any,o,\xe0\xa4\xa8\xe0\xa4\xbe_\xe0\xa4\x95\xe0\xa4\xbe,nA'
p2473
sS'acrefmodhead'
p2474
S'\xe0\xa4\xb2\xe0\xa5\x87\xe0\xa4\xa8\xe0\xa5\x87:m7'
p2475
sS'chunkid'
p2476
S'VGNN'
p2477
sS'acrefmod'
p2478
S'm7%1:i28'
p2479
sS'drel'
p2480
S'r6-k2:NP9'
p2481
sS'vpos'
p2482
S'tam_2'
p2483
sS'chunktype'
p2484
S'head:VGNN'
p2485
ssbsg26
I00
sg27
I00
sg28
Nsg29
Nsg30
I12
sg31
I3
sg32
Nsg33
Nsg34
S'VM'
p2486
sg36
g2465
sg37
I00
sba(issf_api
Word
p2487
(dp2488
g6
I00
sg7
V\u0915\u093e
p2489
sg9
(issf_api
FeatureSet
p2490
(dp2491
g12
(dp2492
S'posn'
p2493
S'200'
p2494
sS'name'
p2495
S'\xe0\xa4\x95\xe0\xa4\xbe'
p2496
sS'drel'
p2497
S'lwg__psp:VGNN'
p2498
sS'chunktype'
p2499
S'child:VGNN'
p2500
sS'af'
p2501
S'\xe0\xa4\x95\xe0\xa4\xbe,psp,m,sg,,d,,'
p2502
ssbsg26
I00
sg27
I00
sg28
Nsg29
Nsg30
I12
sg31
I3
sg32
Nsg33
Nsg34
S'PSP'
p2503
sg36
g2490
sg37
I00
sba(issf_api
Word
p2504
(dp2505
g6
I00
sg7
V\u092b\u0948\u0938\u0932\u093e
p2506
sg9
(issf_api
FeatureSet
p2507
(dp2508
g12
(dp2509
S'crefhead'
p2510
S'\xe0\xa4\xab\xe0\xa5\x88\xe0\xa4\xb8\xe0\xa4\xb2\xe0\xa4\xbe:i28'
p2511
sS'posn'
p2512
S'210'
p2513
sS'name'
p2514
S'\xe0\xa4\xab\xe0\xa5\x88\xe0\xa4\xb8\xe0\xa4\xb2\xe0\xa4\xbe'
p2515
sS'af'
p2516
S'\xe0\xa4\xab\xe0\xa5\x88\xe0\xa4\xb8\xe0\xa4\xb2\xe0\xa4\xbe,n,m,sg,3,d,0,0'
p2517
sS'chunkid'
p2518
S'NP9'
p2519
sS'crefmod'
p2520
S'm7:i28'
p2521
sS'creftype'
p2522
S'Coreference-Identity:i6'
p2523
sS'chunktype'
p2524
S'head:NP9'
p2525
sS'cref'
p2526
S'i28%1:t4'
p2527
sS'drel'
p2528
S'pof:VGF2'
p2529
ssbsg26
I00
sg27
I00
sg28
Nsg29
Nsg30
I13
sg31
I3
sg32
Nsg33
Nsg34
S'NN'
p2530
sg36
g2507
sg37
I00
sba(issf_api
Word
p2531
(dp2532
g6
I00
sg7
V\u0915\u093f\u092f\u093e
p2533
sg9
(issf_api
FeatureSet
p2534
(dp2535
g12
(dp2536
S'posn'
p2537
S'220'
p2538
sS'name'
p2539
S'\xe0\xa4\x95\xe0\xa4\xbf\xe0\xa4\xaf\xe0\xa4\xbe'
p2540
sS'af'
p2541
S'\xe0\xa4\x95\xe0\xa4\xb0,v,m,sg,3,,\xe0\xa4\xaf\xe0\xa4\xbe_\xe0\xa4\xb9\xe0\xa5\x88,yA'
p2542
sS'chunkid'
p2543
S'VGF2'
p2544
sS'stype'
p2545
S'declarative'
p2546
sS'drel'
p2547
S'ccof:CCP'
p2548
sS'voicetype'
p2549
S'active'
p2550
sS'vpos'
p2551
S'tam_2'
p2552
sS'chunktype'
p2553
S'head:VGF2'
p2554
ssbsg26
I00
sg27
I00
sg28
Nsg29
Nsg30
I14
sg31
I3
sg32
Nsg33
Nsg34
S'VM'
p2555
sg36
g2534
sg37
I00
sba(issf_api
Word
p2556
(dp2557
g6
I00
sg7
V\u0939\u0948
p2558
sg9
(issf_api
FeatureSet
p2559
(dp2560
g12
(dp2561
S'posn'
p2562
S'230'
p2563
sS'name'
p2564
S'\xe0\xa4\xb9\xe0\xa5\x88'
p2565
sS'drel'
p2566
S'lwg__vaux:VGF2'
p2567
sS'chunktype'
p2568
S'child:VGF2'
p2569
sS'af'
p2570
S'\xe0\xa4\xb9\xe0\xa5\x88,v,any,sg,3,,\xe0\xa4\xb9\xe0\xa5\x88,hE'
p2571
ssbsg26
I00
sg27
I00
sg28
Nsg29
Nsg30
I14
sg31
I3
sg32
Nsg33
Nsg34
S'VAUX'
p2572
sg36
g2559
sg37
I00
sba(issf_api
Word
p2573
(dp2574
g6
I00
sg7
V\u0964
p2575
sg9
(issf_api
FeatureSet
p2576
(dp2577
g12
(dp2578
S'posn'
p2579
S'240'
p2580
sS'name'
p2581
S'\xe0\xa5\xa4'
p2582
sS'af'
p2583
S'\xe0\xa5\xa4,punc,,,,,,'
p2584
sS'chunkid'
p2585
S'BLK'
p2586
sS'drel'
p2587
S'rsym:VGF'
p2588
sS'chunktype'
p2589
S'head:BLK'
p2590
ssbsg26
I00
sg27
I00
sg28
Nsg29
Nsg30
I15
sg31
I3
sg32
Nsg33
Nsg34
S'SYM'
p2591
sg36
g2576
sg37
I00
sba(issf_api
Word
p2592
(dp2593
g6
I00
sg7
V\u0909\u0928\u094d\u0939\u094b\u0902\u0928\u0947
p2594
sg9
(issf_api
FeatureSet
p2595
(dp2596
g12
(dp2597
S'crefhead'
p2598
S'\xe0\xa4\x89\xe0\xa4\xa8\xe0\xa5\x8d\xe0\xa4\xb9\xe0\xa5\x8b\xe0\xa4\x82\xe0\xa4\xa8\xe0\xa5\x87:i29'
p2599
sS'posn'
p2600
S'10'
p2601
sS'name'
p2602
S'\xe0\xa4\x89\xe0\xa4\xa8\xe0\xa5\x8d\xe0\xa4\xb9\xe0\xa5\x8b\xe0\xa4\x82\xe0\xa4\xa8\xe0\xa5\x87'
p2603
sS'af'
p2604
S'\xe0\xa4\xb5\xe0\xa4\xb9,pn,any,sg,3h,o,\xe0\xa4\xa8\xe0\xa5\x87,ne'
p2605
sS'chunkid'
p2606
S'NP'
p2607
sS'creftype'
p2608
S'Anaphora-C:i23'
p2609
sS'chunktype'
p2610
S'head:NP'
p2611
sS'cref'
p2612
S'i29%1:t6'
p2613
sS'drel'
p2614
S'k1:VGF'
p2615
ssbsg26
I00
sg27
I00
sg28
Nsg29
Nsg30
I0
sg31
I4
sg32
Nsg33
Nsg34
S'PRP'
p2616
sg36
g2595
sg37
I00
sba(issf_api
Word
p2617
(dp2618
g6
I00
sg7
V\u0915\u0939\u093e
p2619
sg9
(issf_api
FeatureSet
p2620
(dp2621
g12
(dp2622
S'posn'
p2623
S'20'
p2624
sS'name'
p2625
S'\xe0\xa4\x95\xe0\xa4\xb9\xe0\xa4\xbe'
p2626
sS'af'
p2627
S'\xe0\xa4\x95\xe0\xa4\xb9,v,m,sg,any,,\xe0\xa4\xaf\xe0\xa4\xbe,yA'
p2628
sS'chunkid'
p2629
S'VGF'
p2630
sS'chunktype'
p2631
S'head:VGF'
p2632
sS'voicetype'
p2633
S'active'
p2634
sS'stype'
p2635
S'declarative'
p2636
ssbsg26
I00
sg27
I00
sg28
Nsg29
Nsg30
I1
sg31
I4
sg32
Nsg33
Nsg34
S'VM'
p2637
sg36
g2620
sg37
I00
sba(issf_api
Word
p2638
(dp2639
g6
I00
sg7
V\u0915\u093f
p2640
sg9
(issf_api
FeatureSet
p2641
(dp2642
g12
(dp2643
S'posn'
p2644
S'30'
p2645
sS'name'
p2646
S'\xe0\xa4\x95\xe0\xa4\xbf'
p2647
sS'af'
p2648
S'\xe0\xa4\x95\xe0\xa4\xbf,avy,,,,,,'
p2649
sS'chunkid'
p2650
S'CCP'
p2651
sS'drel'
p2652
S'k2:VGF'
p2653
sS'chunktype'
p2654
S'head:CCP'
p2655
ssbsg26
I00
sg27
I00
sg28
Nsg29
Nsg30
I2
sg31
I4
sg32
Nsg33
Nsg34
S'CC'
p2656
sg36
g2641
sg37
I00
sba(issf_api
Word
p2657
(dp2658
g6
I00
sg7
V\u0915\u093f\u0930\u093e\u092f\u093e
p2659
sg9
(issf_api
FeatureSet
p2660
(dp2661
g12
(dp2662
S'posn'
p2663
S'40'
p2664
sS'name'
p2665
S'\xe0\xa4\x95\xe0\xa4\xbf\xe0\xa4\xb0\xe0\xa4\xbe\xe0\xa4\xaf\xe0\xa4\xbe'
p2666
sS'af'
p2667
S'\xe0\xa4\x95\xe0\xa4\xbf\xe0\xa4\xb0\xe0\xa4\xbe\xe0\xa4\xaf\xe0\xa4\xbe,n,m,sg,3,d,0,0'
p2668
sS'chunkid'
p2669
S'NP2'
p2670
sS'acrefmod'
p2671
S'm8%0:i31'
p2672
sS'drel'
p2673
S'k2:VGNN'
p2674
sS'chunktype'
p2675
S'head:NP2'
p2676
sS'cref'
p2677
S'i30%0:t10'
p2678
ssbsg26
I00
sg27
I00
sg28
Nsg29
Nsg30
I3
sg31
I4
sg32
Nsg33
Nsg34
S'NN'
p2679
sg36
g2660
sg37
I00
sba(issf_api
Word
p2680
(dp2681
g6
I00
sg7
V\u092c\u0922\u093c\u093e\u090f
p2682
sg9
(issf_api
FeatureSet
p2683
(dp2684
g12
(dp2685
S'crefhead'
p2686
S'\xe0\xa4\xac\xe0\xa4\xa2\xe0\xa4\xbc\xe0\xa4\xbe\xe0\xa4\x8f:i30'
p2687
sS'posn'
p2688
S'50'
p2689
sS'name'
p2690
S'\xe0\xa4\xac\xe0\xa4\xa2\xe0\xa4\xbc\xe0\xa4\xbe\xe0\xa4\x8f'
p2691
sS'af'
p2692
S'\xe0\xa4\xac\xe0\xa4\xa2\xe0\xa4\xbc\xe0\xa4\xbe,v,any,sg,any,,\xe0\xa4\xaf\xe0\xa4\xbe_\xe0\xa4\x9c\xe0\xa4\xbe+\xe0\xa4\xa8\xe0\xa4\xbe_\xe0\xa4\x95\xe0\xa4\xbe,yA'
p2693
sS'acrefmodhead'
p2694
S'\xe0\xa4\xac\xe0\xa4\xa2\xe0\xa4\xbc\xe0\xa4\xbe\xe0\xa4\x8f:m8'
p2695
sS'chunkid'
p2696
S'VGNN'
p2697
sS'acrefmod'
p2698
S'm8%0:i31'
p2699
sS'creftype'
p2700
S'Coreference-Identity:i18'
p2701
sS'chunktype'
p2702
S'head:VGNN'
p2703
sS'vpos'
p2704
S'tam_2_3'
p2705
sS'cref'
p2706
S'i30%0:t10'
p2707
sS'drel'
p2708
S'r6:NP3'
p2709
ssbsg26
I00
sg27
I00
sg28
Nsg29
Nsg30
I4
sg31
I4
sg32
Nsg33
Nsg34
S'VM'
p2710
sg36
g2683
sg37
I00
sba(issf_api
Word
p2711
(dp2712
g6
I00
sg7
V\u091c\u093e\u0928\u0947
p2713
sg9
(issf_api
FeatureSet
p2714
(dp2715
g12
(dp2716
S'posn'
p2717
S'60'
p2718
sS'name'
p2719
S'\xe0\xa4\x9c\xe0\xa4\xbe\xe0\xa4\xa8\xe0\xa5\x87'
p2720
sS'af'
p2721
S'\xe0\xa4\x9c\xe0\xa4\xbe,v,any,any,any,o,\xe0\xa4\xa8\xe0\xa4\xbe,nA'
p2722
sS'acrefmod'
p2723
S'm8%1:i31'
p2724
sS'drel'
p2725
S'lwg__vaux:VGNN'
p2726
sS'chunktype'
p2727
S'child:VGNN'
p2728
sS'cref'
p2729
S'i30%1:t10'
p2730
ssbsg26
I00
sg27
I00
sg28
Nsg29
Nsg30
I4
sg31
I4
sg32
Nsg33
Nsg34
S'VAUX'
p2731
sg36
g2714
sg37
I00
sba(issf_api
Word
p2732
(dp2733
g6
I00
sg7
V\u0915\u0947
p2734
sg9
(issf_api
FeatureSet
p2735
(dp2736
g12
(dp2737
S'posn'
p2738
S'70'
p2739
sS'name'
p2740
S'\xe0\xa4\x95\xe0\xa5\x87'
p2741
sS'drel'
p2742
S'lwg__psp:VGNN'
p2743
sS'chunktype'
p2744
S'child:VGNN'
p2745
sS'af'
p2746
S'\xe0\xa4\x95\xe0\xa4\xbe,psp,m,sg,,o,,'
p2747
ssbsg26
I00
sg27
I00
sg28
Nsg29
Nsg30
I4
sg31
I4
sg32
Nsg33
Nsg34
S'PSP'
p2748
sg36
g2735
sg37
I00
sba(issf_api
Word
p2749
(dp2750
g6
I00
sg7
V\u092b\u0948\u0938\u0932\u0947
p2751
sg9
(issf_api
FeatureSet
p2752
(dp2753
g12
(dp2754
S'crefhead'
p2755
S'\xe0\xa4\xab\xe0\xa5\x88\xe0\xa4\xb8\xe0\xa4\xb2\xe0\xa5\x87:i31'
p2756
sS'posn'
p2757
S'80'
p2758
sS'name'
p2759
S'\xe0\xa4\xab\xe0\xa5\x88\xe0\xa4\xb8\xe0\xa4\xb2\xe0\xa5\x87'
p2760
sS'af'
p2761
S'\xe0\xa4\xab\xe0\xa5\x88\xe0\xa4\xb8\xe0\xa4\xb2\xe0\xa4\xbe,n,m,sg,3,o,0_\xe0\xa4\xaa\xe0\xa4\xb0,0'
p2762
sS'chunkid'
p2763
S'NP3'
p2764
sS'crefmod'
p2765
S'm8:i31'
p2766
sS'chunktype'
p2767
S'head:NP3'
p2768
sS'crefchainhead'
p2769
S'i31:t13'
p2770
sS'vpos'
p2771
S'vib_2'
p2772
sS'cref'
p2773
S'i31%1:t13'
p2774
sS'drel'
p2775
S'k7:VGF2'
p2776
ssbsg26
I00
sg27
I00
sg28
Nsg29
Nsg30
I5
sg31
I4
sg32
Nsg33
Nsg34
S'NN'
p2777
sg36
g2752
sg37
I00
sba(issf_api
Word
p2778
(dp2779
g6
I00
sg7
V\u092a\u0930
p2780
sg9
(issf_api
FeatureSet
p2781
(dp2782
g12
(dp2783
S'posn'
p2784
S'90'
p2785
sS'name'
p2786
S'\xe0\xa4\xaa\xe0\xa4\xb0'
p2787
sS'drel'
p2788
S'lwg__psp:NP3'
p2789
sS'chunktype'
p2790
S'child:NP3'
p2791
sS'af'
p2792
S'\xe0\xa4\xaa\xe0\xa4\xb0,psp,,,,,,'
p2793
ssbsg26
I00
sg27
I00
sg28
Nsg29
Nsg30
I5
sg31
I4
sg32
Nsg33
Nsg34
S'PSP'
p2794
sg36
g2781
sg37
I00
sba(issf_api
Word
p2795
(dp2796
g6
I00
sg7
V\u0930\u093e\u091c\u0928\u0940\u0924\u093f\u0915
p2797
sg9
(issf_api
FeatureSet
p2798
(dp2799
g12
(dp2800
S'posn'
p2801
S'100'
p2802
sS'name'
p2803
S'\xe0\xa4\xb0\xe0\xa4\xbe\xe0\xa4\x9c\xe0\xa4\xa8\xe0\xa5\x80\xe0\xa4\xa4\xe0\xa4\xbf\xe0\xa4\x95'
p2804
sS'af'
p2805
S'\xe0\xa4\xb0\xe0\xa4\xbe\xe0\xa4\x9c\xe0\xa4\xa8\xe0\xa5\x80\xe0\xa4\xa4\xe0\xa4\xbf\xe0\xa4\x95,adj,any,any,,o,,'
p2806
sS'chunkid'
p2807
S'JJP'
p2808
sS'drel'
p2809
S'ccof:CCP2'
p2810
sS'chunktype'
p2811
S'head:JJP'
p2812
ssbsg26
I00
sg27
I00
sg28
Nsg29
Nsg30
I6
sg31
I4
sg32
Nsg33
Nsg34
S'JJ'
p2813
sg36
g2798
sg37
I00
sba(issf_api
Word
p2814
(dp2815
g6
I00
sg7
V\u0914\u0930
p2816
sg9
(issf_api
FeatureSet
p2817
(dp2818
g12
(dp2819
S'posn'
p2820
S'110'
p2821
sS'name'
p2822
S'\xe0\xa4\x94\xe0\xa4\xb0'
p2823
sS'af'
p2824
S'\xe0\xa4\x94\xe0\xa4\xb0,avy,,,,,,'
p2825
sS'chunkid'
p2826
S'CCP2'
p2827
sS'drel'
p2828
S'nmod:NP4'
p2829
sS'chunktype'
p2830
S'head:CCP2'
p2831
ssbsg26
I00
sg27
I00
sg28
Nsg29
Nsg30
I7
sg31
I4
sg32
Nsg33
Nsg34
S'CC'
p2832
sg36
g2817
sg37
I00
sba(issf_api
Word
p2833
(dp2834
g6
I00
sg7
V\u0924\u0915\u0928\u0940\u0915\u0940
p2835
sg9
(issf_api
FeatureSet
p2836
(dp2837
g12
(dp2838
S'posn'
p2839
S'120'
p2840
sS'name'
p2841
S'\xe0\xa4\xa4\xe0\xa4\x95\xe0\xa4\xa8\xe0\xa5\x80\xe0\xa4\x95\xe0\xa5\x80'
p2842
sS'af'
p2843
S'\xe0\xa4\xa4\xe0\xa4\x95\xe0\xa4\xa8\xe0\xa5\x80\xe0\xa4\x95\xe0\xa5\x80,adj,any,any,,o,,'
p2844
sS'chunkid'
p2845
S'JJP2'
p2846
sS'drel'
p2847
S'ccof:CCP2'
p2848
sS'chunktype'
p2849
S'head:JJP2'
p2850
ssbsg26
I00
sg27
I00
sg28
Nsg29
Nsg30
I8
sg31
I4
sg32
Nsg33
Nsg34
S'JJ'
p2851
sg36
g2836
sg37
I00
sba(issf_api
Word
p2852
(dp2853
g6
I00
sg7
V\u0915\u093e\u0930\u0923\u094b\u0902
p2854
sg9
(issf_api
FeatureSet
p2855
(dp2856
g12
(dp2857
S'posn'
p2858
S'130'
p2859
sS'name'
p2860
S'\xe0\xa4\x95\xe0\xa4\xbe\xe0\xa4\xb0\xe0\xa4\xa3\xe0\xa5\x8b\xe0\xa4\x82'
p2861
sS'af'
p2862
S'\xe0\xa4\x95\xe0\xa4\xbe\xe0\xa4\xb0\xe0\xa4\xa3,n,m,pl,3,o,0_\xe0\xa4\x95\xe0\xa5\x80_\xe0\xa4\xb5\xe0\xa4\x9c\xe0\xa4\xb9_\xe0\xa4\xb8\xe0\xa5\x87,0'
p2863
sS'chunkid'
p2864
S'NP4'
p2865
sS'drel'
p2866
S'rh:VGF2'
p2867
sS'vpos'
p2868
S'vib_2_3_4'
p2869
sS'chunktype'
p2870
S'head:NP4'
p2871
ssbsg26
I00
sg27
I00
sg28
Nsg29
Nsg30
I9
sg31
I4
sg32
Nsg33
Nsg34
S'NN'
p2872
sg36
g2855
sg37
I00
sba(issf_api
Word
p2873
(dp2874
g6
I00
sg7
V\u0915\u0940
p2875
sg9
(issf_api
FeatureSet
p2876
(dp2877
g12
(dp2878
S'posn'
p2879
S'140'
p2880
sS'name'
p2881
S'\xe0\xa4\x95\xe0\xa5\x80'
p2882
sS'drel'
p2883
S'lwg__psp:NP4'
p2884
sS'chunktype'
p2885
S'child:NP4'
p2886
sS'af'
p2887
S'\xe0\xa4\x95\xe0\xa5\x80,psp,f,,,o,,'
p2888
ssbsg26
I00
sg27
I00
sg28
Nsg29
Nsg30
I9
sg31
I4
sg32
Nsg33
Nsg34
S'PSP'
p2889
sg36
g2876
sg37
I00
sba(issf_api
Word
p2890
(dp2891
g6
I00
sg7
V\u0935\u091c\u0939
p2892
sg9
(issf_api
FeatureSet
p2893
(dp2894
g12
(dp2895
S'posn'
p2896
S'150'
p2897
sS'name'
p2898
S'\xe0\xa4\xb5\xe0\xa4\x9c\xe0\xa4\xb9'
p2899
sS'drel'
p2900
S'lwg__psp:NP4'
p2901
sS'chunktype'
p2902
S'child:NP4'
p2903
sS'af'
p2904
S'\xe0\xa4\xb5\xe0\xa4\x9c\xe0\xa4\xb9,n,f,,,o,,'
p2905
ssbsg26
I00
sg27
I00
sg28
Nsg29
Nsg30
I9
sg31
I4
sg32
Nsg33
Nsg34
S'PSP'
p2906
sg36
g2893
sg37
I00
sba(issf_api
Word
p2907
(dp2908
g6
I00
sg7
V\u0938\u0947
p2909
sg9
(issf_api
FeatureSet
p2910
(dp2911
g12
(dp2912
S'posn'
p2913
S'160'
p2914
sS'name'
p2915
S'\xe0\xa4\xb8\xe0\xa5\x87'
p2916
sS'drel'
p2917
S'lwg__psp:NP4'
p2918
sS'chunktype'
p2919
S'child:NP4'
p2920
sS'af'
p2921
S'\xe0\xa4\xb8\xe0\xa5\x87,psp,,,,,,'
p2922
ssbsg26
I00
sg27
I00
sg28
Nsg29
Nsg30
I9
sg31
I4
sg32
Nsg33
Nsg34
S'PSP'
p2923
sg36
g2910
sg37
I00
sba(issf_api
Word
p2924
(dp2925
g6
I00
sg7
V\u0926\u0947\u0930\u0940
p2926
sg9
(issf_api
FeatureSet
p2927
(dp2928
g12
(dp2929
S'posn'
p2930
S'170'
p2931
sS'name'
p2932
S'\xe0\xa4\xa6\xe0\xa5\x87\xe0\xa4\xb0\xe0\xa5\x80'
p2933
sS'af'
p2934
S'\xe0\xa4\xa6\xe0\xa5\x87\xe0\xa4\xb0\xe0\xa5\x80,n,f,sg,3,d,0,0'
p2935
sS'chunkid'
p2936
S'NP5'
p2937
sS'drel'
p2938
S'pof:VGF2'
p2939
sS'chunktype'
p2940
S'head:NP5'
p2941
ssbsg26
I00
sg27
I00
sg28
Nsg29
Nsg30
I10
sg31
I4
sg32
Nsg33
Nsg34
S'NN'
p2942
sg36
g2927
sg37
I00
sba(issf_api
Word
p2943
(dp2944
g6
I00
sg7
V\u0939\u094b
p2945
sg9
(issf_api
FeatureSet
p2946
(dp2947
g12
(dp2948
S'posn'
p2949
S'180'
p2950
sS'name'
p2951
S'\xe0\xa4\xb9\xe0\xa5\x8b'
p2952
sS'af'
p2953
S'\xe0\xa4\xb9\xe0\xa5\x8b,v,f,sg,3,,0_\xe0\xa4\xb0\xe0\xa4\xb9+\xe0\xa4\xaf\xe0\xa4\xbe_\xe0\xa4\xb9\xe0\xa5\x88,0'
p2954
sS'chunkid'
p2955
S'VGF2'
p2956
sS'stype'
p2957
S'declarative'
p2958
sS'drel'
p2959
S'ccof:CCP'
p2960
sS'voicetype'
p2961
S'active'
p2962
sS'vpos'
p2963
S'tam_2_3'
p2964
sS'chunktype'
p2965
S'head:VGF2'
p2966
ssbsg26
I00
sg27
I00
sg28
Nsg29
Nsg30
I11
sg31
I4
sg32
Nsg33
Nsg34
S'VM'
p2967
sg36
g2946
sg37
I00
sba(issf_api
Word
p2968
(dp2969
g6
I00
sg7
V\u0930\u0939\u0940
p2970
sg9
(issf_api
FeatureSet
p2971
(dp2972
g12
(dp2973
S'posn'
p2974
S'190'
p2975
sS'name'
p2976
S'\xe0\xa4\xb0\xe0\xa4\xb9\xe0\xa5\x80'
p2977
sS'drel'
p2978
S'lwg__vaux:VGF2'
p2979
sS'chunktype'
p2980
S'child:VGF2'
p2981
sS'af'
p2982
S'\xe0\xa4\xb0\xe0\xa4\xb9,v,f,sg,any,,\xe0\xa4\xaf\xe0\xa4\xbe,yA'
p2983
ssbsg26
I00
sg27
I00
sg28
Nsg29
Nsg30
I11
sg31
I4
sg32
Nsg33
Nsg34
S'VAUX'
p2984
sg36
g2971
sg37
I00
sba(issf_api
Word
p2985
(dp2986
g6
I00
sg7
V\u0939\u0948
p2987
sg9
(issf_api
FeatureSet
p2988
(dp2989
g12
(dp2990
S'posn'
p2991
S'200'
p2992
sS'name'
p2993
S'\xe0\xa4\xb9\xe0\xa5\x88'
p2994
sS'drel'
p2995
S'lwg__vaux:VGF2'
p2996
sS'chunktype'
p2997
S'child:VGF2'
p2998
sS'af'
p2999
S'\xe0\xa4\xb9\xe0\xa5\x88,v,any,sg,3,,\xe0\xa4\xb9\xe0\xa5\x88,hE'
p3000
ssbsg26
I00
sg27
I00
sg28
Nsg29
Nsg30
I11
sg31
I4
sg32
Nsg33
Nsg34
S'VAUX'
p3001
sg36
g2988
sg37
I00
sba(issf_api
Word
p3002
(dp3003
g6
I00
sg7
V\u0964
p3004
sg9
(issf_api
FeatureSet
p3005
(dp3006
g12
(dp3007
S'posn'
p3008
S'210'
p3009
sS'name'
p3010
S'\xe0\xa5\xa4'
p3011
sS'af'
p3012
S'\xe0\xa5\xa4,punc,,,,,,'
p3013
sS'chunkid'
p3014
S'BLK'
p3015
sS'drel'
p3016
S'rsym:VGF'
p3017
sS'chunktype'
p3018
S'head:BLK'
p3019
ssbsg26
I00
sg27
I00
sg28
Nsg29
Nsg30
I12
sg31
I4
sg32
Nsg33
Nsg34
S'SYM'
p3020
sg36
g3005
sg37
I00
sba(issf_api
Word
p3021
(dp3022
g6
I00
sg7
V\u0939\u093e\u0932\u093e\u0902\u0915\u093f
p3023
sg9
(issf_api
FeatureSet
p3024
(dp3025
g12
(dp3026
S'posn'
p3027
S'10'
p3028
sS'chunkid'
p3029
S'CCP'
p3030
sS'name'
p3031
S'\xe0\xa4\xb9\xe0\xa4\xbe\xe0\xa4\xb2\xe0\xa4\xbe\xe0\xa4\x82\xe0\xa4\x95\xe0\xa4\xbf'
p3032
sS'chunktype'
p3033
S'head:CCP'
p3034
sS'af'
p3035
S'\xe0\xa4\xb9\xe0\xa4\xbe\xe0\xa4\xb2\xe0\xa4\xbe\xe0\xa4\x82\xe0\xa4\x95\xe0\xa4\xbf,avy,,,,,,'
p3036
ssbsg26
I00
sg27
I00
sg28
Nsg29
Nsg30
I0
sg31
I5
sg32
Nsg33
Nsg34
S'CC'
p3037
sg36
g3024
sg37
I00
sba(issf_api
Word
p3038
(dp3039
g6
I00
sg7
V\u0909\u0928\u094d\u0939\u094b\u0902\u0928\u0947
p3040
sg9
(issf_api
FeatureSet
p3041
(dp3042
g12
(dp3043
S'crefhead'
p3044
S'\xe0\xa4\x89\xe0\xa4\xa8\xe0\xa5\x8d\xe0\xa4\xb9\xe0\xa5\x8b\xe0\xa4\x82\xe0\xa4\xa8\xe0\xa5\x87:i32'
p3045
sS'posn'
p3046
S'20'
p3047
sS'name'
p3048
S'\xe0\xa4\x89\xe0\xa4\xa8\xe0\xa5\x8d\xe0\xa4\xb9\xe0\xa5\x8b\xe0\xa4\x82\xe0\xa4\xa8\xe0\xa5\x87'
p3049
sS'af'
p3050
S'\xe0\xa4\xb5\xe0\xa4\xb9,pn,any,sg,3h,o,\xe0\xa4\xa8\xe0\xa5\x87,ne'
p3051
sS'chunkid'
p3052
S'NP'
p3053
sS'creftype'
p3054
S'Anaphora-C:i29'
p3055
sS'chunktype'
p3056
S'head:NP'
p3057
sS'cref'
p3058
S'i32%1:t6'
p3059
sS'drel'
p3060
S'k1:VGF'
p3061
ssbsg26
I00
sg27
I00
sg28
Nsg29
Nsg30
I1
sg31
I5
sg32
Nsg33
Nsg34
S'PRP'
p3062
sg36
g3041
sg37
I00
sba(issf_api
Word
p3063
(dp3064
g6
I00
sg7
V\u0909\u092e\u094d\u092e\u0940\u0926
p3065
sg9
(issf_api
FeatureSet
p3066
(dp3067
g12
(dp3068
S'posn'
p3069
S'30'
p3070
sS'name'
p3071
S'\xe0\xa4\x89\xe0\xa4\xae\xe0\xa5\x8d\xe0\xa4\xae\xe0\xa5\x80\xe0\xa4\xa6'
p3072
sS'af'
p3073
S'\xe0\xa4\x89\xe0\xa4\xae\xe0\xa5\x8d\xe0\xa4\xae\xe0\xa5\x80\xe0\xa4\xa6,n,f,sg,3,d,0,0'
p3074
sS'chunkid'
p3075
S'NP2'
p3076
sS'drel'
p3077
S'pof:VGF'
p3078
sS'chunktype'
p3079
S'head:NP2'
p3080
ssbsg26
I00
sg27
I00
sg28
Nsg29
Nsg30
I2
sg31
I5
sg32
Nsg33
Nsg34
S'NN'
p3081
sg36
g3066
sg37
I00
sba(issf_api
Word
p3082
(dp3083
g6
I00
sg7
V\u091c\u0924\u093e\u0908
p3084
sg9
(issf_api
FeatureSet
p3085
(dp3086
g12
(dp3087
S'posn'
p3088
S'40'
p3089
sS'name'
p3090
S'\xe0\xa4\x9c\xe0\xa4\xa4\xe0\xa4\xbe\xe0\xa4\x88'
p3091
sS'af'
p3092
S'\xe0\xa4\x9c\xe0\xa4\xa4\xe0\xa4\xbe,v,f,sg,any,,\xe0\xa4\xaf\xe0\xa4\xbe,yA'
p3093
sS'chunkid'
p3094
S'VGF'
p3095
sS'stype'
p3096
S'declarative'
p3097
sS'drel'
p3098
S'ccof:CCP'
p3099
sS'voicetype'
p3100
S'active'
p3101
sS'chunktype'
p3102
S'head:VGF'
p3103
ssbsg26
I00
sg27
I00
sg28
Nsg29
Nsg30
I3
sg31
I5
sg32
Nsg33
Nsg34
S'VM'
p3104
sg36
g3085
sg37
I00
sba(issf_api
Word
p3105
(dp3106
g6
I00
sg7
V\u0915\u093f
p3107
sg9
(issf_api
FeatureSet
p3108
(dp3109
g12
(dp3110
S'posn'
p3111
S'50'
p3112
sS'name'
p3113
S'\xe0\xa4\x95\xe0\xa4\xbf'
p3114
sS'af'
p3115
S'\xe0\xa4\x95\xe0\xa4\xbf,avy,,,,,,'
p3116
sS'chunkid'
p3117
S'CCP2'
p3118
sS'drel'
p3119
S'k2:VGF'
p3120
sS'chunktype'
p3121
S'head:CCP2'
p3122
ssbsg26
I00
sg27
I00
sg28
Nsg29
Nsg30
I4
sg31
I5
sg32
Nsg33
Nsg34
S'CC'
p3123
sg36
g3108
sg37
I00
sba(issf_api
Word
p3124
(dp3125
g6
I00
sg7
V\u0938\u0930\u0915\u093e\u0930
p3126
sg9
(issf_api
FeatureSet
p3127
(dp3128
g12
(dp3129
S'crefhead'
p3130
S'\xe0\xa4\xb8\xe0\xa4\xb0\xe0\xa4\x95\xe0\xa4\xbe\xe0\xa4\xb0:i33'
p3131
sS'posn'
p3132
S'60'
p3133
sS'name'
p3134
S'\xe0\xa4\xb8\xe0\xa4\xb0\xe0\xa4\x95\xe0\xa4\xbe\xe0\xa4\xb0'
p3135
sS'af'
p3136
S'\xe0\xa4\xb8\xe0\xa4\xb0\xe0\xa4\x95\xe0\xa4\xbe\xe0\xa4\xb0,n,f,sg,3,d,0,0'
p3137
sS'chunkid'
p3138
S'NP3'
p3139
sS'creftype'
p3140
S'Coreference-Identity:i19'
p3141
sS'chunktype'
p3142
S'head:NP3'
p3143
sS'cref'
p3144
S'i33%1:t11'
p3145
sS'drel'
p3146
S'k1:VGF2'
p3147
ssbsg26
I00
sg27
I00
sg28
Nsg29
Nsg30
I5
sg31
I5
sg32
Nsg33
Nsg34
S'NN'
p3148
sg36
g3127
sg37
I00
sba(issf_api
Word
p3149
(dp3150
g6
I00
sg7
V\u0905\u0917\u0932\u0947
p3151
sg9
(issf_api
FeatureSet
p3152
(dp3153
g12
(dp3154
S'posn'
p3155
S'70'
p3156
sS'name'
p3157
S'\xe0\xa4\x85\xe0\xa4\x97\xe0\xa4\xb2\xe0\xa5\x87'
p3158
sS'drel'
p3159
S'nmod__adj:NP4'
p3160
sS'chunktype'
p3161
S'child:NP4'
p3162
sS'af'
p3163
S'\xe0\xa4\x85\xe0\xa4\x97\xe0\xa4\xb2\xe0\xa4\xbe,adj,m,sg,,o,,'
p3164
ssbsg26
I00
sg27
I00
sg28
Nsg29
Nsg30
I6
sg31
I5
sg32
Nsg33
Nsg34
S'JJ'
p3165
sg36
g3152
sg37
I00
sba(issf_api
Word
p3166
(dp3167
g6
I00
sg7
V\u092e\u0939\u0940\u0928\u0947
p3168
sg9
(issf_api
FeatureSet
p3169
(dp3170
g12
(dp3171
S'posn'
p3172
S'80'
p3173
sS'name'
p3174
S'\xe0\xa4\xae\xe0\xa4\xb9\xe0\xa5\x80\xe0\xa4\xa8\xe0\xa5\x87'
p3175
sS'af'
p3176
S'\xe0\xa4\xae\xe0\xa4\xb9\xe0\xa5\x80\xe0\xa4\xa8\xe0\xa4\xbe,n,m,sg,3,o,0,0'
p3177
sS'chunkid'
p3178
S'NP4'
p3179
sS'drel'
p3180
S'k7t:VGF2'
p3181
sS'chunktype'
p3182
S'head:NP4'
p3183
ssbsg26
I00
sg27
I00
sg28
Nsg29
Nsg30
I6
sg31
I5
sg32
Nsg33
Nsg34
S'NN'
p3184
sg36
g3169
sg37
I00
sba(issf_api
Word
p3185
(dp3186
g6
I00
sg7
V\u0926\u0941\u0930\u094d\u0917\u093e
p3187
sg9
(issf_api
FeatureSet
p3188
(dp3189
g12
(dp3190
S'posn'
p3191
S'90'
p3192
sS'name'
p3193
S'\xe0\xa4\xa6\xe0\xa5\x81\xe0\xa4\xb0\xe0\xa5\x8d\xe0\xa4\x97\xe0\xa4\xbe'
p3194
sS'drel'
p3195
S'nmod__adj:NP5'
p3196
sS'chunktype'
p3197
S'child:NP5'
p3198
sS'af'
p3199
S'\xe0\xa4\xa6\xe0\xa5\x81\xe0\xa4\xb0\xe0\xa5\x8d\xe0\xa4\x97\xe0\xa4\xbe,n,f,sg,3,d,0,0'
p3200
ssbsg26
I00
sg27
I00
sg28
Nsg29
Nsg30
I7
sg31
I5
sg32
Nsg33
Nsg34
S'NNP'
p3201
sg36
g3188
sg37
I00
sba(issf_api
Word
p3202
(dp3203
g6
I00
sg7
V\u092a\u0942\u091c\u093e
p3204
sg9
(issf_api
FeatureSet
p3205
(dp3206
g12
(dp3207
S'posn'
p3208
S'100'
p3209
sS'name'
p3210
S'\xe0\xa4\xaa\xe0\xa5\x82\xe0\xa4\x9c\xe0\xa4\xbe'
p3211
sS'af'
p3212
S'\xe0\xa4\xaa\xe0\xa5\x82\xe0\xa4\x9c\xe0\xa4\xbe,n,f,sg,3,o,0_\xe0\xa4\xb8\xe0\xa5\x87_\xe0\xa4\xaa\xe0\xa4\xb9\xe0\xa4\xb2\xe0\xa5\x87,0'
p3213
sS'chunkid'
p3214
S'NP5'
p3215
sS'drel'
p3216
S'k7t:VGF2'
p3217
sS'vpos'
p3218
S'vib_vib_3_4'
p3219
sS'chunktype'
p3220
S'head:NP5'
p3221
ssbsg26
I00
sg27
I00
sg28
Nsg29
Nsg30
I7
sg31
I5
sg32
Nsg33
Nsg34
S'NN'
p3222
sg36
g3205
sg37
I00
sba(issf_api
Word
p3223
(dp3224
g6
I00
sg7
V\u0938\u0947
p3225
sg9
(issf_api
FeatureSet
p3226
(dp3227
g12
(dp3228
S'posn'
p3229
S'110'
p3230
sS'name'
p3231
S'\xe0\xa4\xb8\xe0\xa5\x87'
p3232
sS'drel'
p3233
S'lwg__psp:NP5'
p3234
sS'chunktype'
p3235
S'child:NP5'
p3236
sS'af'
p3237
S'\xe0\xa4\xb8\xe0\xa5\x87,psp,,,,,,'
p3238
ssbsg26
I00
sg27
I00
sg28
Nsg29
Nsg30
I7
sg31
I5
sg32
Nsg33
Nsg34
S'PSP'
p3239
sg36
g3226
sg37
I00
sba(issf_api
Word
p3240
(dp3241
g6
I00
sg7
V\u092a\u0939\u0932\u0947
p3242
sg9
(issf_api
FeatureSet
p3243
(dp3244
g12
(dp3245
S'posn'
p3246
S'120'
p3247
sS'name'
p3248
S'\xe0\xa4\xaa\xe0\xa4\xb9\xe0\xa4\xb2\xe0\xa5\x87'
p3249
sS'drel'
p3250
S'lwg__psp:NP5'
p3251
sS'chunktype'
p3252
S'child:NP5'
p3253
sS'af'
p3254
S'\xe0\xa4\xaa\xe0\xa4\xb9\xe0\xa4\xb2\xe0\xa5\x87,nst,m,sg,3,d,,'
p3255
ssbsg26
I00
sg27
I00
sg28
Nsg29
Nsg30
I7
sg31
I5
sg32
Nsg33
Nsg34
S'NST'
p3256
sg36
g3243
sg37
I00
sba(issf_api
Word
p3257
(dp3258
g6
I00
sg7
V\u0907\u0938
p3259
sg9
(issf_api
FeatureSet
p3260
(dp3261
g12
(dp3262
S'crefhead'
p3263
S'\xe0\xa4\x87\xe0\xa4\xb8:i34'
p3264
sS'posn'
p3265
S'130'
p3266
sS'name'
p3267
S'\xe0\xa4\x87\xe0\xa4\xb8'
p3268
sS'af'
p3269
S'\xe0\xa4\xaf\xe0\xa4\xb9,pn,any,sg,3,o,0_\xe0\xa4\xac\xe0\xa4\xbe\xe0\xa4\xb0\xe0\xa5\x87_\xe0\xa4\xae\xe0\xa5\x87\xe0\xa4\x82,0'
p3270
sS'chunkid'
p3271
S'NP6'
p3272
sS'creftype'
p3273
S'Anaphora-C:i30'
p3274
sS'chunktype'
p3275
S'head:NP6'
p3276
sS'vpos'
p3277
S'vib_2_3'
p3278
sS'cref'
p3279
S'i34%1:t10'
p3280
sS'drel'
p3281
S'k7:VGF2'
p3282
ssbsg26
I00
sg27
I00
sg28
Nsg29
Nsg30
I8
sg31
I5
sg32
Nsg33
Nsg34
S'PRP'
p3283
sg36
g3260
sg37
I00
sba(issf_api
Word
p3284
(dp3285
g6
I00
sg7
V\u092c\u093e\u0930\u0947
p3286
sg9
(issf_api
FeatureSet
p3287
(dp3288
g12
(dp3289
S'posn'
p3290
S'140'
p3291
sS'name'
p3292
S'\xe0\xa4\xac\xe0\xa4\xbe\xe0\xa4\xb0\xe0\xa5\x87'
p3293
sS'drel'
p3294
S'lwg__psp:NP6'
p3295
sS'chunktype'
p3296
S'child:NP6'
p3297
sS'af'
p3298
S'\xe0\xa4\xac\xe0\xa4\xbe\xe0\xa4\xb0\xe0\xa5\x87,psp,,,,,,'
p3299
ssbsg26
I00
sg27
I00
sg28
Nsg29
Nsg30
I8
sg31
I5
sg32
Nsg33
Nsg34
S'PSP'
p3300
sg36
g3287
sg37
I00
sba(issf_api
Word
p3301
(dp3302
g6
I00
sg7
V\u092e\u0947\u0902
p3303
sg9
(issf_api
FeatureSet
p3304
(dp3305
g12
(dp3306
S'posn'
p3307
S'150'
p3308
sS'name'
p3309
S'\xe0\xa4\xae\xe0\xa5\x87\xe0\xa4\x82'
p3310
sS'drel'
p3311
S'lwg__psp:NP6'
p3312
sS'chunktype'
p3313
S'child:NP6'
p3314
sS'af'
p3315
S'\xe0\xa4\xae\xe0\xa5\x87\xe0\xa4\x82,psp,,,,,,'
p3316
ssbsg26
I00
sg27
I00
sg28
Nsg29
Nsg30
I8
sg31
I5
sg32
Nsg33
Nsg34
S'PSP'
p3317
sg36
g3304
sg37
I00
sba(issf_api
Word
p3318
(dp3319
g6
I00
sg7
V\u092b\u0948\u0938\u0932\u093e
p3320
sg9
(issf_api
FeatureSet
p3321
(dp3322
g12
(dp3323
S'crefhead'
p3324
S'\xe0\xa4\xab\xe0\xa5\x88\xe0\xa4\xb8\xe0\xa4\xb2\xe0\xa4\xbe:i35'
p3325
sS'posn'
p3326
S'160'
p3327
sS'name'
p3328
S'\xe0\xa4\xab\xe0\xa5\x88\xe0\xa4\xb8\xe0\xa4\xb2\xe0\xa4\xbe'
p3329
sS'af'
p3330
S'\xe0\xa4\xab\xe0\xa5\x88\xe0\xa4\xb8\xe0\xa4\xb2\xe0\xa4\xbe,n,m,sg,3,d,0,0'
p3331
sS'chunkid'
p3332
S'NP7'
p3333
sS'creftype'
p3334
S'Coreference-Identity:i31'
p3335
sS'chunktype'
p3336
S'head:NP7'
p3337
sS'cref'
p3338
S'i35%1:t13'
p3339
sS'drel'
p3340
S'pof:VGF2'
p3341
ssbsg26
I00
sg27
I00
sg28
Nsg29
Nsg30
I9
sg31
I5
sg32
Nsg33
Nsg34
S'NN'
p3342
sg36
g3321
sg37
I00
sba(issf_api
Word
p3343
(dp3344
g6
I00
sg7
V\u0932\u0947
p3345
sg9
(issf_api
FeatureSet
p3346
(dp3347
g12
(dp3348
S'posn'
p3349
S'170'
p3350
sS'name'
p3351
S'\xe0\xa4\xb2\xe0\xa5\x87'
p3352
sS'af'
p3353
S'\xe0\xa4\xb2\xe0\xa5\x87,v,any,sg,3,,0_\xe0\xa4\xb2\xe0\xa5\x87+\xe0\xa4\x97\xe0\xa4\xbe,0'
p3354
sS'chunkid'
p3355
S'VGF2'
p3356
sS'stype'
p3357
S'declarative'
p3358
sS'drel'
p3359
S'ccof:CCP2'
p3360
sS'voicetype'
p3361
S'active'
p3362
sS'vpos'
p3363
S'tam_2'
p3364
sS'chunktype'
p3365
S'head:VGF2'
p3366
ssbsg26
I00
sg27
I00
sg28
Nsg29
Nsg30
I10
sg31
I5
sg32
Nsg33
Nsg34
S'VM'
p3367
sg36
g3346
sg37
I00
sba(issf_api
Word
p3368
(dp3369
g6
I00
sg7
V\u0932\u0947\u0917\u0940
p3370
sg9
(issf_api
FeatureSet
p3371
(dp3372
g12
(dp3373
S'posn'
p3374
S'180'
p3375
sS'name'
p3376
S'\xe0\xa4\xb2\xe0\xa5\x87\xe0\xa4\x97\xe0\xa5\x80'
p3377
sS'drel'
p3378
S'lwg__vaux:VGF2'
p3379
sS'chunktype'
p3380
S'child:VGF2'
p3381
sS'af'
p3382
S'\xe0\xa4\xb2\xe0\xa5\x87,v,f,sg,3,,\xe0\xa4\x97\xe0\xa4\xbe,gA'
p3383
ssbsg26
I00
sg27
I00
sg28
Nsg29
Nsg30
I10
sg31
I5
sg32
Nsg33
Nsg34
S'VAUX'
p3384
sg36
g3371
sg37
I00
sba(issf_api
Word
p3385
(dp3386
g6
I00
sg7
V\u0964
p3387
sg9
(issf_api
FeatureSet
p3388
(dp3389
g12
(dp3390
S'posn'
p3391
S'190'
p3392
sS'name'
p3393
S'\xe0\xa5\xa4'
p3394
sS'af'
p3395
S'\xe0\xa5\xa4,punc,,,,,,'
p3396
sS'chunkid'
p3397
S'BLK'
p3398
sS'drel'
p3399
S'rsym:CCP'
p3400
sS'chunktype'
p3401
S'head:BLK'
p3402
ssbsg26
I00
sg27
I00
sg28
Nsg29
Nsg30
I11
sg31
I5
sg32
Nsg33
Nsg34
S'SYM'
p3403
sg36
g3388
sg37
I00
sbasS'sentenceList'
p3404
(lp3405
(issf_api
Sentence
p3406
(dp3407
S'rootNode'
p3408
(lp3409
sg31
I0
sS'wordNumList'
p3410
(lp3411
I0
aI1
aI2
aI3
aI4
aI5
aI6
aI7
aI8
aI9
aI10
aI11
aI12
aI13
aI14
aI15
aI16
aI17
aI18
aI19
aI20
aI21
aI22
aI23
aI24
aI25
aI26
aI27
aI28
aI29
aI30
asS'nodeDict'
p3412
(dp3413
S'VGNF'
p3414
(issf_api
Node
p3415
(dp3416
S'nodeRelation'
p3417
S'vmod'
p3418
sS'nodeName'
p3419
g3414
sS'nodeParent'
p3420
S'VGF'
p3421
sS'nodeLevel'
p3422
I-1
sg30
I4
sS'childList'
p3423
(lp3424
S'NP4'
p3425
asbsS'VGNN'
p3426
(issf_api
Node
p3427
(dp3428
g3417
S'k7t'
p3429
sg3419
g3426
sg3420
S'VGF'
p3430
sg3422
I-1
sg30
I8
sg3423
(lp3431
S'NP5'
p3432
aS'NP7'
p3433
asbsS'VGF'
p3434
(issf_api
Node
p3435
(dp3436
g3417
S'None'
p3437
sg3419
g3434
sg3420
g3437
sg3422
I-1
sg30
I14
sg3423
(lp3438
g3414
ag3426
aS'BLK'
p3439
aS'NP10'
p3440
aS'NP'
p3441
aS'NP2'
p3442
asbsS'JJP'
p3443
(issf_api
Node
p3444
(dp3445
g3417
S'pof'
p3446
sg3419
g3443
sg3420
S'VGNN2'
p3447
sg3422
I-1
sg30
I11
sg3423
(lp3448
sbsS'VGNN2'
p3449
(issf_api
Node
p3450
(dp3451
g3417
S'r6-k2'
p3452
sg3419
g3449
sg3420
S'NP10'
p3453
sg3422
I-1
sg30
I12
sg3423
(lp3454
g3443
aS'NP9'
p3455
asbsg3432
(issf_api
Node
p3456
(dp3457
g3417
S'k7t'
p3458
sg3419
g3432
sg3420
S'VGNN'
p3459
sg3422
I-1
sg30
I5
sg3423
(lp3460
sbsg3455
(issf_api
Node
p3461
(dp3462
g3417
S'k2'
p3463
sg3419
g3455
sg3420
S'VGNN2'
p3464
sg3422
I-1
sg30
I10
sg3423
(lp3465
S'NP8'
p3466
asbsg3466
(issf_api
Node
p3467
(dp3468
g3417
S'r6'
p3469
sg3419
g3466
sg3420
S'NP9'
p3470
sg3422
I-1
sg30
I9
sg3423
(lp3471
sbsg3439
(issf_api
Node
p3472
(dp3473
g3417
S'rsym'
p3474
sg3419
g3439
sg3420
S'VGF'
p3475
sg3422
I-1
sg30
I15
sg3423
(lp3476
sbsg3440
(issf_api
Node
p3477
(dp3478
g3417
S'pof'
p3479
sg3419
g3440
sg3420
S'VGF'
p3480
sg3422
I-1
sg30
I13
sg3423
(lp3481
g3449
asbsg3441
(issf_api
Node
p3482
(dp3483
g3417
S'k7p'
p3484
sg3419
g3441
sg3420
S'VGF'
p3485
sg3422
I-1
sg30
I0
sg3423
(lp3486
sbsg3425
(issf_api
Node
p3487
(dp3488
g3417
S'k2'
p3489
sg3419
g3425
sg3420
S'VGNF'
p3490
sg3422
I-1
sg30
I3
sg3423
(lp3491
S'NP3'
p3492
asbsg3433
(issf_api
Node
p3493
(dp3494
g3417
S'k2'
p3495
sg3419
g3433
sg3420
S'VGNN'
p3496
sg3422
I-1
sg30
I7
sg3423
(lp3497
S'NP6'
p3498
asbsg3498
(issf_api
Node
p3499
(dp3500
g3417
S'r6'
p3501
sg3419
g3498
sg3420
S'NP7'
p3502
sg3422
I-1
sg30
I6
sg3423
(lp3503
sbsg3492
(issf_api
Node
p3504
(dp3505
g3417
S'r6'
p3506
sg3419
g3492
sg3420
S'NP4'
p3507
sg3422
I-1
sg30
I2
sg3423
(lp3508
sbsg3442
(issf_api
Node
p3509
(dp3510
g3417
S'k1'
p3511
sg3419
g3442
sg3420
S'VGF'
p3512
sg3422
I-1
sg30
I1
sg3423
(lp3513
sbssS'chunkList'
p3514
(lp3515
(issf_api
Chunk
p3516
(dp3517
g3419
g53
sg30
I0
sS'chunkTag'
p3518
g64
sg31
I0
sg3410
(lp3519
I0
aI1
aI2
asg36
(issf_api
FeatureSet
p3520
(dp3521
g12
(dp3522
S'name'
p3523
g3441
sS'drel'
p3524
S'k7p:VGF'
p3525
ssbsba(issf_api
Chunk
p3526
(dp3527
g3419
g116
sg30
I1
sg3518
g127
sg31
I0
sg3410
(lp3528
I3
aI4
aI5
asg36
(issf_api
FeatureSet
p3529
(dp3530
g12
(dp3531
S'name'
p3532
g3442
sS'drel'
p3533
S'k1:VGF'
p3534
ssbsba(issf_api
Chunk
p3535
(dp3536
g3419
g175
sg30
I2
sg3518
g182
sg31
I0
sg3410
(lp3537
I6
aI7
aI8
asg36
(issf_api
FeatureSet
p3538
(dp3539
g12
(dp3540
S'name'
p3541
g3492
sS'drel'
p3542
S'r6:NP4'
p3543
ssbsba(issf_api
Chunk
p3544
(dp3545
g3419
g213
sg30
I3
sg3518
g220
sg31
I0
sg3410
(lp3546
I9
aI10
asg36
(issf_api
FeatureSet
p3547
(dp3548
g12
(dp3549
S'name'
p3550
g3425
sS'drel'
p3551
S'k2:VGNF'
p3552
ssbsba(issf_api
Chunk
p3553
(dp3554
g3419
g251
sg30
I4
sg3518
g256
sg31
I0
sg3410
(lp3555
I11
asg36
(issf_api
FeatureSet
p3556
(dp3557
g12
(dp3558
S'name'
p3559
g3414
sS'drel'
p3560
S'vmod:VGF'
p3561
ssbsba(issf_api
Chunk
p3562
(dp3563
g3419
g270
sg30
I5
sg3518
g277
sg31
I0
sg3410
(lp3564
I12
aI13
asg36
(issf_api
FeatureSet
p3565
(dp3566
g12
(dp3567
S'name'
p3568
g3432
sS'drel'
p3569
S'k7t:VGNN'
p3570
ssbsba(issf_api
Chunk
p3571
(dp3572
g3419
g329
sg30
I6
sg3518
g338
sg31
I0
sg3410
(lp3573
I14
aI15
aI16
asg36
(issf_api
FeatureSet
p3574
(dp3575
g12
(dp3576
S'name'
p3577
g3498
sS'drel'
p3578
S'r6:NP7'
p3579
ssbsba(issf_api
Chunk
p3580
(dp3581
g3419
g371
sg30
I7
sg3518
g380
sg31
I0
sg3410
(lp3582
I17
asg36
(issf_api
FeatureSet
p3583
(dp3584
g12
(dp3585
S'name'
p3586
g3433
sS'drel'
p3587
S'k2:VGNN'
p3588
ssbsba(issf_api
Chunk
p3589
(dp3590
g3419
g394
sg30
I8
sg3518
g401
sg31
I0
sg3410
(lp3591
I18
aI19
aI20
asg36
(issf_api
FeatureSet
p3592
(dp3593
g12
(dp3594
S'name'
p3595
g3426
sS'drel'
p3596
S'k7t:VGF'
p3597
ssbsba(issf_api
Chunk
p3598
(dp3599
g3419
g453
sg30
I9
sg3518
g464
sg31
I0
sg3410
(lp3600
I21
asg36
(issf_api
FeatureSet
p3601
(dp3602
g12
(dp3603
S'name'
p3604
g3466
sS'drel'
p3605
S'r6:NP9'
p3606
ssbsba(issf_api
Chunk
p3607
(dp3608
g3419
g501
sg30
I10
sg3518
g516
sg31
I0
sg3410
(lp3609
I22
aI23
asg36
(issf_api
FeatureSet
p3610
(dp3611
g12
(dp3612
S'name'
p3613
g3455
sS'drel'
p3614
S'k2:VGNN2'
p3615
ssbsba(issf_api
Chunk
p3616
(dp3617
g3419
g530
sg30
I11
sg3518
g537
sg31
I0
sg3410
(lp3618
I24
asg36
(issf_api
FeatureSet
p3619
(dp3620
g12
(dp3621
S'name'
p3622
g3443
sS'drel'
p3623
S'pof:VGNN2'
p3624
ssbsba(issf_api
Chunk
p3625
(dp3626
g3419
g553
sg30
I12
sg3518
g562
sg31
I0
sg3410
(lp3627
I25
aI26
asg36
(issf_api
FeatureSet
p3628
(dp3629
g12
(dp3630
S'name'
p3631
g3449
sS'drel'
p3632
S'r6-k2:NP10'
p3633
ssbsba(issf_api
Chunk
p3634
(dp3635
g3419
g595
sg30
I13
sg3518
g606
sg31
I0
sg3410
(lp3636
I27
asg36
(issf_api
FeatureSet
p3637
(dp3638
g12
(dp3639
S'name'
p3640
g3440
sS'drel'
p3641
S'pof:VGF'
p3642
ssbsba(issf_api
Chunk
p3643
(dp3644
g3419
g620
sg30
I14
sg3518
g629
sg31
I0
sg3410
(lp3645
I28
aI29
asg36
(issf_api
FeatureSet
p3646
(dp3647
g12
(dp3648
S'name'
p3649
g3434
ssbsba(issf_api
Chunk
p3650
(dp3651
g3419
g660
sg30
I15
sg3518
g665
sg31
I0
sg3410
(lp3652
I30
asg36
(issf_api
FeatureSet
p3653
(dp3654
g12
(dp3655
S'name'
p3656
g3439
sS'drel'
p3657
S'rsym:VGF'
p3658
ssbsbasba(issf_api
Sentence
p3659
(dp3660
g3408
(lp3661
sg31
I1
sg3410
(lp3662
I31
aI32
aI33
aI34
aI35
aI36
aI37
aI38
aI39
aI40
aI41
aI42
aI43
aI44
aI45
aI46
aI47
aI48
aI49
aI50
aI51
asg3412
(dp3663
S'VGNN'
p3664
(issf_api
Node
p3665
(dp3666
g3417
S'r6-k2'
p3667
sg3419
g3664
sg3420
S'NP7'
p3668
sg3422
I-1
sg30
I9
sg3423
(lp3669
S'JJP'
p3670
aS'NP5'
p3671
aS'NP6'
p3672
asbsS'VGF'
p3673
(issf_api
Node
p3674
(dp3675
g3417
S'ccof'
p3676
sg3419
g3673
sg3420
S'CCP'
p3677
sg3422
I-1
sg30
I11
sg3423
(lp3678
S'NP7'
p3679
aS'NP3'
p3680
asbsS'CCP'
p3681
(issf_api
Node
p3682
(dp3683
g3417
g3437
sg3419
g3681
sg3420
g3437
sg3422
I-1
sg30
I0
sg3423
(lp3684
g3673
aS'BLK'
p3685
asbsg3670
(issf_api
Node
p3686
(dp3687
g3417
S'pof'
p3688
sg3419
g3670
sg3420
S'VGNN'
p3689
sg3422
I-1
sg30
I8
sg3423
(lp3690
sbsg3671
(issf_api
Node
p3691
(dp3692
g3417
S'k2'
p3693
sg3419
g3671
sg3420
S'VGNN'
p3694
sg3422
I-1
sg30
I6
sg3423
(lp3695
S'NP4'
p3696
asbsg3685
(issf_api
Node
p3697
(dp3698
g3417
S'rsym'
p3699
sg3419
g3685
sg3420
S'CCP'
p3700
sg3422
I-1
sg30
I12
sg3423
(lp3701
sbsS'NP'
p3702
(issf_api
Node
p3703
(dp3704
g3417
S'ccof'
p3705
sg3419
g3702
sg3420
S'CCP2'
p3706
sg3422
I-1
sg30
I1
sg3423
(lp3707
sbsg3696
(issf_api
Node
p3708
(dp3709
g3417
S'r6'
p3710
sg3419
g3696
sg3420
S'NP5'
p3711
sg3422
I-1
sg30
I5
sg3423
(lp3712
sbsg3679
(issf_api
Node
p3713
(dp3714
g3417
S'pof'
p3715
sg3419
g3679
sg3420
S'VGF'
p3716
sg3422
I-1
sg30
I10
sg3423
(lp3717
g3664
asbsg3672
(issf_api
Node
p3718
(dp3719
g3417
S'k7a'
p3720
sg3419
g3672
sg3420
S'VGNN'
p3721
sg3422
I-1
sg30
I7
sg3423
(lp3722
sbsS'CCP2'
p3723
(issf_api
Node
p3724
(dp3725
g3417
S'nmod'
p3726
sg3419
g3723
sg3420
S'NP3'
p3727
sg3422
I-1
sg30
I2
sg3423
(lp3728
g3702
aS'NP2'
p3729
asbsg3680
(issf_api
Node
p3730
(dp3731
g3417
S'k1'
p3732
sg3419
g3680
sg3420
S'VGF'
p3733
sg3422
I-1
sg30
I4
sg3423
(lp3734
g3723
asbsg3729
(issf_api
Node
p3735
(dp3736
g3417
S'ccof'
p3737
sg3419
g3729
sg3420
S'CCP2'
p3738
sg3422
I-1
sg30
I3
sg3423
(lp3739
sbssg3514
(lp3740
(issf_api
Chunk
p3741
(dp3742
g3419
g675
sg30
I0
sg3518
g682
sg31
I1
sg3410
(lp3743
I31
asg36
(issf_api
FeatureSet
p3744
(dp3745
g12
(dp3746
S'name'
p3747
g3681
ssbsba(issf_api
Chunk
p3748
(dp3749
g3419
g715
sg30
I1
sg3518
g722
sg31
I1
sg3410
(lp3750
I32
aI33
asg36
(issf_api
FeatureSet
p3751
(dp3752
g12
(dp3753
S'name'
p3754
g3702
sS'drel'
p3755
S'ccof:CCP2'
p3756
ssbsba(issf_api
Chunk
p3757
(dp3758
g3419
g736
sg30
I2
sg3518
g743
sg31
I1
sg3410
(lp3759
I34
asg36
(issf_api
FeatureSet
p3760
(dp3761
g12
(dp3762
S'name'
p3763
g3723
sS'drel'
p3764
S'nmod:NP3'
p3765
ssbsba(issf_api
Chunk
p3766
(dp3767
g3419
g776
sg30
I3
sg3518
g783
sg31
I1
sg3410
(lp3768
I35
aI36
asg36
(issf_api
FeatureSet
p3769
(dp3770
g12
(dp3771
S'name'
p3772
g3729
sS'drel'
p3773
S'ccof:CCP2'
p3774
ssbsba(issf_api
Chunk
p3775
(dp3776
g3419
g799
sg30
I4
sg3518
g810
sg31
I1
sg3410
(lp3777
I37
aI38
asg36
(issf_api
FeatureSet
p3778
(dp3779
g12
(dp3780
S'name'
p3781
g3680
sS'drel'
p3782
S'k1:VGF'
p3783
ssbsba(issf_api
Chunk
p3784
(dp3785
g3419
g843
sg30
I5
sg3518
g852
sg31
I1
sg3410
(lp3786
I39
asg36
(issf_api
FeatureSet
p3787
(dp3788
g12
(dp3789
S'name'
p3790
g3696
sS'drel'
p3791
S'r6:NP5'
p3792
ssbsba(issf_api
Chunk
p3793
(dp3794
g3419
g866
sg30
I6
sg3518
g871
sg31
I1
sg3410
(lp3795
I40
asg36
(issf_api
FeatureSet
p3796
(dp3797
g12
(dp3798
S'name'
p3799
g3671
sS'drel'
p3800
S'k2:VGNN'
p3801
ssbsba(issf_api
Chunk
p3802
(dp3803
g3419
g902
sg30
I7
sg3518
g909
sg31
I1
sg3410
(lp3804
I41
aI42
aI43
aI44
asg36
(issf_api
FeatureSet
p3805
(dp3806
g12
(dp3807
S'name'
p3808
g3672
sS'drel'
p3809
S'k7a:VGNN'
p3810
ssbsba(issf_api
Chunk
p3811
(dp3812
g3419
g957
sg30
I8
sg3518
g962
sg31
I1
sg3410
(lp3813
I45
asg36
(issf_api
FeatureSet
p3814
(dp3815
g12
(dp3816
S'name'
p3817
g3670
sS'drel'
p3818
S'pof:VGNN'
p3819
ssbsba(issf_api
Chunk
p3820
(dp3821
g3419
g976
sg30
I9
sg3518
g983
sg31
I1
sg3410
(lp3822
I46
aI47
asg36
(issf_api
FeatureSet
p3823
(dp3824
g12
(dp3825
S'name'
p3826
g3664
sS'drel'
p3827
S'r6-k2:NP7'
p3828
ssbsba(issf_api
Chunk
p3829
(dp3830
g3419
g1014
sg30
I10
sg3518
g1019
sg31
I1
sg3410
(lp3831
I48
asg36
(issf_api
FeatureSet
p3832
(dp3833
g12
(dp3834
S'name'
p3835
g3679
sS'drel'
p3836
S'pof:VGF'
p3837
ssbsba(issf_api
Chunk
p3838
(dp3839
g3419
g1033
sg30
I11
sg3518
g1044
sg31
I1
sg3410
(lp3840
I49
aI50
asg36
(issf_api
FeatureSet
p3841
(dp3842
g12
(dp3843
S'name'
p3844
g3673
sS'drel'
p3845
S'ccof:CCP'
p3846
ssbsba(issf_api
Chunk
p3847
(dp3848
g3419
g1075
sg30
I12
sg3518
g1080
sg31
I1
sg3410
(lp3849
I51
asg36
(issf_api
FeatureSet
p3850
(dp3851
g12
(dp3852
S'name'
p3853
g3685
sS'drel'
p3854
S'rsym:CCP'
p3855
ssbsbasba(issf_api
Sentence
p3856
(dp3857
g3408
(lp3858
sg31
I2
sg3410
(lp3859
I52
aI53
aI54
aI55
aI56
aI57
aI58
aI59
aI60
aI61
aI62
aI63
aI64
aI65
aI66
aI67
aI68
aI69
aI70
aI71
aI72
aI73
aI74
aI75
aI76
aI77
aI78
aI79
aI80
aI81
aI82
aI83
aI84
aI85
aI86
aI87
aI88
aI89
aI90
aI91
aI92
aI93
aI94
aI95
aI96
aI97
aI98
asg3412
(dp3860
S'CCP'
p3861
(issf_api
Node
p3862
(dp3863
g3417
S'r6'
p3864
sg3419
g3861
sg3420
S'NP7'
p3865
sg3422
I-1
sg30
I4
sg3423
(lp3866
S'NP5'
p3867
aS'NP3'
p3868
asbsS'NP14'
p3869
(issf_api
Node
p3870
(dp3871
g3417
S'k2'
p3872
sg3419
g3869
sg3420
S'VGF2'
p3873
sg3422
I-1
sg30
I18
sg3423
(lp3874
S'NP13'
p3875
asbsS'NP9'
p3876
(issf_api
Node
p3877
(dp3878
g3417
S'k2'
p3879
sg3419
g3876
sg3420
S'VGNN'
p3880
sg3422
I-1
sg30
I12
sg3423
(lp3881
sbsS'NP8'
p3882
(issf_api
Node
p3883
(dp3884
g3417
S'k1'
p3885
sg3419
g3882
sg3420
S'VGF2'
p3886
sg3422
I-1
sg30
I11
sg3423
(lp3887
sbsS'NP4'
p3888
(issf_api
Node
p3889
(dp3890
g3417
S'rs'
p3891
sg3419
g3888
sg3420
S'NP3'
p3892
sg3422
I-1
sg30
I3
sg3423
(lp3893
sbsg3867
(issf_api
Node
p3894
(dp3895
g3417
S'ccof'
p3896
sg3419
g3867
sg3420
S'CCP'
p3897
sg3422
I-1
sg30
I5
sg3423
(lp3898
S'FRAGP'
p3899
aS'NP6'
p3900
asbsg3899
(issf_api
Node
p3901
(dp3902
g3417
S'fragof'
p3903
sg3419
g3899
sg3420
S'NP5'
p3904
sg3422
I-1
sg30
I7
sg3423
(lp3905
sbsS'NP7'
p3906
(issf_api
Node
p3907
(dp3908
g3417
S'k1'
p3909
sg3419
g3906
sg3420
S'VGF'
p3910
sg3422
I-1
sg30
I8
sg3423
(lp3911
g3861
asbsg3900
(issf_api
Node
p3912
(dp3913
g3417
S'rs'
p3914
sg3419
g3900
sg3420
S'NP5'
p3915
sg3422
I-1
sg30
I6
sg3423
(lp3916
sbsS'CCP2'
p3917
(issf_api
Node
p3918
(dp3919
g3417
S'k2'
p3920
sg3419
g3917
sg3420
S'VGF'
p3921
sg3422
I-1
sg30
I10
sg3423
(lp3922
S'VGF2'
p3923
asbsg3868
(issf_api
Node
p3924
(dp3925
g3417
S'ccof'
p3926
sg3419
g3868
sg3420
S'CCP'
p3927
sg3422
I-1
sg30
I2
sg3423
(lp3928
g3888
asbsS'NP2'
p3929
(issf_api
Node
p3930
(dp3931
g3417
S'k7t'
p3932
sg3419
g3929
sg3420
S'VGF'
p3933
sg3422
I-1
sg30
I1
sg3423
(lp3934
sbsS'NP11'
p3935
(issf_api
Node
p3936
(dp3937
g3417
S'k7t'
p3938
sg3419
g3935
sg3420
S'VGF2'
p3939
sg3422
I-1
sg30
I15
sg3423
(lp3940
S'NP10'
p3941
asbsg3941
(issf_api
Node
p3942
(dp3943
g3417
S'r6'
p3944
sg3419
g3941
sg3420
S'NP11'
p3945
sg3422
I-1
sg30
I14
sg3423
(lp3946
S'VGNN'
p3947
asbsg3875
(issf_api
Node
p3948
(dp3949
g3417
S'r6'
p3950
sg3419
g3875
sg3420
S'NP14'
p3951
sg3422
I-1
sg30
I17
sg3423
(lp3952
sbsS'NP12'
p3953
(issf_api
Node
p3954
(dp3955
g3417
S'k7t'
p3956
sg3419
g3953
sg3420
S'VGF2'
p3957
sg3422
I-1
sg30
I16
sg3423
(lp3958
sbsg3923
(issf_api
Node
p3959
(dp3960
g3417
S'ccof'
p3961
sg3419
g3923
sg3420
S'CCP2'
p3962
sg3422
I-1
sg30
I20
sg3423
(lp3963
g3869
ag3882
ag3935
ag3953
aS'JJP'
p3964
asbsS'NP'
p3965
(issf_api
Node
p3966
(dp3967
g3417
S'vmod'
p3968
sg3419
g3965
sg3420
S'VGF'
p3969
sg3422
I-1
sg30
I0
sg3423
(lp3970
sbsg3947
(issf_api
Node
p3971
(dp3972
g3417
S'r6'
p3973
sg3419
g3947
sg3420
S'NP10'
p3974
sg3422
I-1
sg30
I13
sg3423
(lp3975
g3876
asbsS'VGF'
p3976
(issf_api
Node
p3977
(dp3978
g3417
g3437
sg3419
g3976
sg3420
g3437
sg3422
I-1
sg30
I9
sg3423
(lp3979
g3906
ag3917
ag3929
ag3965
aS'BLK'
p3980
asbsg3980
(issf_api
Node
p3981
(dp3982
g3417
S'rsym'
p3983
sg3419
g3980
sg3420
S'VGF'
p3984
sg3422
I-1
sg30
I21
sg3423
(lp3985
sbsg3964
(issf_api
Node
p3986
(dp3987
g3417
S'pof'
p3988
sg3419
g3964
sg3420
S'VGF2'
p3989
sg3422
I-1
sg30
I19
sg3423
(lp3990
sbssg3514
(lp3991
(issf_api
Chunk
p3992
(dp3993
g3419
g1155
sg30
I0
sg3518
g1168
sg31
I2
sg3410
(lp3994
I52
aI53
aI54
aI55
aI56
aI57
asg36
(issf_api
FeatureSet
p3995
(dp3996
g12
(dp3997
S'name'
p3998
g3965
sS'drel'
p3999
S'vmod:VGF'
p4000
ssbsba(issf_api
Chunk
p4001
(dp4002
g3419
g1216
sg30
I1
sg3518
g1223
sg31
I2
sg3410
(lp4003
I58
aI59
aI60
asg36
(issf_api
FeatureSet
p4004
(dp4005
g12
(dp4006
S'name'
p4007
g3929
sS'drel'
p4008
S'k7t:VGF'
p4009
ssbsba(issf_api
Chunk
p4010
(dp4011
g3419
g1319
sg30
I2
sg3518
g1330
sg31
I2
sg3410
(lp4012
I61
aI62
aI63
asg36
(issf_api
FeatureSet
p4013
(dp4014
g12
(dp4015
S'name'
p4016
g3868
sS'drel'
p4017
S'ccof:CCP'
p4018
ssbsba(issf_api
Chunk
p4019
(dp4020
g3419
g1365
sg30
I3
sg3518
g1376
sg31
I2
sg3410
(lp4021
I64
aI65
aI66
asg36
(issf_api
FeatureSet
p4022
(dp4023
g12
(dp4024
S'name'
p4025
g3888
sS'drel'
p4026
S'rs:NP3'
p4027
ssbsba(issf_api
Chunk
p4028
(dp4029
g3419
g1411
sg30
I4
sg3518
g1418
sg31
I2
sg3410
(lp4030
I67
asg36
(issf_api
FeatureSet
p4031
(dp4032
g12
(dp4033
S'name'
p4034
g3861
sS'drel'
p4035
S'r6:NP7'
p4036
ssbsba(issf_api
Chunk
p4037
(dp4038
g3419
g1518
sg30
I5
sg3518
g1529
sg31
I2
sg3410
(lp4039
I68
aI69
aI70
aI71
aI72
asg36
(issf_api
FeatureSet
p4040
(dp4041
g12
(dp4042
S'name'
p4043
g3867
sS'drel'
p4044
S'ccof:CCP'
p4045
ssbsba(issf_api
Chunk
p4046
(dp4047
g3419
g1564
sg30
I6
sg3518
g1575
sg31
I2
sg3410
(lp4048
I73
aI74
aI75
asg36
(issf_api
FeatureSet
p4049
(dp4050
g12
(dp4051
S'name'
p4052
g3900
sS'drel'
p4053
S'rs:NP5'
p4054
ssbsba(issf_api
Chunk
p4055
(dp4056
g3419
g1608
sg30
I7
sg3518
g1609
sg31
I2
sg3410
(lp4057
I76
asg36
(issf_api
FeatureSet
p4058
(dp4059
g12
(dp4060
S'name'
p4061
g3899
sS'drel'
p4062
S'fragof:NP5'
p4063
ssbsba(issf_api
Chunk
p4064
(dp4065
g3419
g1625
sg30
I8
sg3518
g1638
sg31
I2
sg3410
(lp4066
I77
aI78
asg36
(issf_api
FeatureSet
p4067
(dp4068
g12
(dp4069
S'name'
p4070
g3906
sS'drel'
p4071
S'k1:VGF'
p4072
ssbsba(issf_api
Chunk
p4073
(dp4074
g3419
g1669
sg30
I9
sg3518
g1676
sg31
I2
sg3410
(lp4075
I79
asg36
(issf_api
FeatureSet
p4076
(dp4077
g12
(dp4078
S'name'
p4079
g3976
ssbsba(issf_api
Chunk
p4080
(dp4081
g3419
g1690
sg30
I10
sg3518
g1695
sg31
I2
sg3410
(lp4082
I80
asg36
(issf_api
FeatureSet
p4083
(dp4084
g12
(dp4085
S'name'
p4086
g3917
sS'drel'
p4087
S'k2:VGF'
p4088
ssbsba(issf_api
Chunk
p4089
(dp4090
g3419
g1711
sg30
I11
sg3518
g1720
sg31
I2
sg3410
(lp4091
I81
asg36
(issf_api
FeatureSet
p4092
(dp4093
g12
(dp4094
S'name'
p4095
g3882
sS'drel'
p4096
S'k1:VGF2'
p4097
ssbsba(issf_api
Chunk
p4098
(dp4099
g3419
g1734
sg30
I12
sg3518
g1741
sg31
I2
sg3410
(lp4100
I82
asg36
(issf_api
FeatureSet
p4101
(dp4102
g12
(dp4103
S'name'
p4104
g3876
sS'drel'
p4105
S'k2:VGNN'
p4106
ssbsba(issf_api
Chunk
p4107
(dp4108
g3419
g1757
sg30
I13
sg3518
g1768
sg31
I2
sg3410
(lp4109
I83
aI84
aI85
asg36
(issf_api
FeatureSet
p4110
(dp4111
g12
(dp4112
S'name'
p4113
g3947
sS'drel'
p4114
S'r6:NP10'
p4115
ssbsba(issf_api
Chunk
p4116
(dp4117
g3419
g1820
sg30
I14
sg3518
g1831
sg31
I2
sg3410
(lp4118
I86
aI87
asg36
(issf_api
FeatureSet
p4119
(dp4120
g12
(dp4121
S'name'
p4122
g3941
sS'drel'
p4123
S'r6:NP11'
p4124
ssbsba(issf_api
Chunk
p4125
(dp4126
g3419
g1862
sg30
I15
sg3518
g1869
sg31
I2
sg3410
(lp4127
I88
aI89
aI90
asg36
(issf_api
FeatureSet
p4128
(dp4129
g12
(dp4130
S'name'
p4131
g3935
sS'drel'
p4132
S'k7t:VGF2'
p4133
ssbsba(issf_api
Chunk
p4134
(dp4135
g3419
g1919
sg30
I16
sg3518
g1930
sg31
I2
sg3410
(lp4136
I91
aI92
asg36
(issf_api
FeatureSet
p4137
(dp4138
g12
(dp4139
S'name'
p4140
g3953
sS'drel'
p4141
S'k7t:VGF2'
p4142
ssbsba(issf_api
Chunk
p4143
(dp4144
g3419
g1965
sg30
I17
sg3518
g1976
sg31
I2
sg3410
(lp4145
I93
asg36
(issf_api
FeatureSet
p4146
(dp4147
g12
(dp4148
S'name'
p4149
g3875
sS'drel'
p4150
S'r6:NP14'
p4151
ssbsba(issf_api
Chunk
p4152
(dp4153
g3419
g1992
sg30
I18
sg3518
g2003
sg31
I2
sg3410
(lp4154
I94
asg36
(issf_api
FeatureSet
p4155
(dp4156
g12
(dp4157
S'name'
p4158
g3869
sS'drel'
p4159
S'k2:VGF2'
p4160
ssbsba(issf_api
Chunk
p4161
(dp4162
g3419
g2017
sg30
I19
sg3518
g2022
sg31
I2
sg3410
(lp4163
I95
asg36
(issf_api
FeatureSet
p4164
(dp4165
g12
(dp4166
S'name'
p4167
g3964
sS'drel'
p4168
S'pof:VGF2'
p4169
ssbsba(issf_api
Chunk
p4170
(dp4171
g3419
g2036
sg30
I20
sg3518
g2047
sg31
I2
sg3410
(lp4172
I96
aI97
asg36
(issf_api
FeatureSet
p4173
(dp4174
g12
(dp4175
S'name'
p4176
g3923
sS'drel'
p4177
S'ccof:CCP2'
p4178
ssbsba(issf_api
Chunk
p4179
(dp4180
g3419
g2078
sg30
I21
sg3518
g2083
sg31
I2
sg3410
(lp4181
I98
asg36
(issf_api
FeatureSet
p4182
(dp4183
g12
(dp4184
S'name'
p4185
g3980
sS'drel'
p4186
S'rsym:VGF'
p4187
ssbsbasba(issf_api
Sentence
p4188
(dp4189
g3408
(lp4190
sg31
I3
sg3410
(lp4191
I99
aI100
aI101
aI102
aI103
aI104
aI105
aI106
aI107
aI108
aI109
aI110
aI111
aI112
aI113
aI114
aI115
aI116
aI117
aI118
aI119
aI120
aI121
aI122
asg3412
(dp4192
S'VGF2'
p4193
(issf_api
Node
p4194
(dp4195
g3417
S'ccof'
p4196
sg3419
g4193
sg3420
S'CCP'
p4197
sg3422
I-1
sg30
I14
sg3423
(lp4198
S'NP9'
p4199
aS'CCP2'
p4200
asbsS'VGNN'
p4201
(issf_api
Node
p4202
(dp4203
g3417
S'r6-k2'
p4204
sg3419
g4201
sg3420
S'NP9'
p4205
sg3422
I-1
sg30
I12
sg3423
(lp4206
S'JJP'
p4207
aS'NP8'
p4208
aS'NP6'
p4209
asbsS'VGF'
p4210
(issf_api
Node
p4211
(dp4212
g3417
g3437
sg3419
g4210
sg3420
g3437
sg3422
I-1
sg30
I3
sg3423
(lp4213
S'CCP'
p4214
aS'BLK'
p4215
aS'NP'
p4216
aS'NP3'
p4217
aS'NP2'
p4218
asbsg4214
(issf_api
Node
p4219
(dp4220
g3417
S'k2'
p4221
sg3419
g4214
sg3420
S'VGF'
p4222
sg3422
I-1
sg30
I4
sg3423
(lp4223
g4193
asbsg4207
(issf_api
Node
p4224
(dp4225
g3417
S'pof'
p4226
sg3419
g4207
sg3420
S'VGNN'
p4227
sg3422
I-1
sg30
I11
sg3423
(lp4228
sbsS'NP5'
p4229
(issf_api
Node
p4230
(dp4231
g3417
S'ccof'
p4232
sg3419
g4229
sg3420
S'CCP2'
p4233
sg3422
I-1
sg30
I7
sg3423
(lp4234
sbsg4199
(issf_api
Node
p4235
(dp4236
g3417
S'pof'
p4237
sg3419
g4199
sg3420
S'VGF2'
p4238
sg3422
I-1
sg30
I13
sg3423
(lp4239
g4201
asbsg4208
(issf_api
Node
p4240
(dp4241
g3417
S'k2'
p4242
sg3419
g4208
sg3420
S'VGNN'
p4243
sg3422
I-1
sg30
I10
sg3423
(lp4244
S'NP7'
p4245
asbsg4215
(issf_api
Node
p4246
(dp4247
g3417
S'rsym'
p4248
sg3419
g4215
sg3420
S'VGF'
p4249
sg3422
I-1
sg30
I15
sg3423
(lp4250
sbsg4216
(issf_api
Node
p4251
(dp4252
g3417
S'sent-adv'
p4253
sg3419
g4216
sg3420
S'VGF'
p4254
sg3422
I-1
sg30
I0
sg3423
(lp4255
sbsS'NP4'
p4256
(issf_api
Node
p4257
(dp4258
g3417
S'ccof'
p4259
sg3419
g4256
sg3420
S'CCP2'
p4260
sg3422
I-1
sg30
I5
sg3423
(lp4261
sbsg4245
(issf_api
Node
p4262
(dp4263
g3417
S'r6'
p4264
sg3419
g4245
sg3420
S'NP8'
p4265
sg3422
I-1
sg30
I9
sg3423
(lp4266
sbsg4209
(issf_api
Node
p4267
(dp4268
g3417
S'k5'
p4269
sg3419
g4209
sg3420
S'VGNN'
p4270
sg3422
I-1
sg30
I8
sg3423
(lp4271
sbsg4200
(issf_api
Node
p4272
(dp4273
g3417
S'k1'
p4274
sg3419
g4200
sg3420
S'VGF2'
p4275
sg3422
I-1
sg30
I6
sg3423
(lp4276
g4229
ag4256
asbsg4217
(issf_api
Node
p4277
(dp4278
g3417
S'k4'
p4279
sg3419
g4217
sg3420
S'VGF'
p4280
sg3422
I-1
sg30
I2
sg3423
(lp4281
sbsg4218
(issf_api
Node
p4282
(dp4283
g3417
S'k1'
p4284
sg3419
g4218
sg3420
S'VGF'
p4285
sg3422
I-1
sg30
I1
sg3423
(lp4286
sbssg3514
(lp4287
(issf_api
Chunk
p4288
(dp4289
g3419
g2097
sg30
I0
sg3518
g2102
sg31
I3
sg3410
(lp4290
I99
aI100
aI101
asg36
(issf_api
FeatureSet
p4291
(dp4292
g12
(dp4293
S'name'
p4294
g4216
sS'drel'
p4295
S'sent-adv:VGF'
p4296
ssbsba(issf_api
Chunk
p4297
(dp4298
g3419
g2152
sg30
I1
sg3518
g2163
sg31
I3
sg3410
(lp4299
I102
aI103
asg36
(issf_api
FeatureSet
p4300
(dp4301
g12
(dp4302
S'name'
p4303
g4218
sS'drel'
p4304
S'k1:VGF'
p4305
ssbsba(issf_api
Chunk
p4306
(dp4307
g3419
g2194
sg30
I2
sg3518
g2201
sg31
I3
sg3410
(lp4308
I104
aI105
asg36
(issf_api
FeatureSet
p4309
(dp4310
g12
(dp4311
S'name'
p4312
g4217
sS'drel'
p4313
S'k4:VGF'
p4314
ssbsba(issf_api
Chunk
p4315
(dp4316
g3419
g2232
sg30
I3
sg3518
g2239
sg31
I3
sg3410
(lp4317
I106
asg36
(issf_api
FeatureSet
p4318
(dp4319
g12
(dp4320
S'name'
p4321
g4210
ssbsba(issf_api
Chunk
p4322
(dp4323
g3419
g2253
sg30
I4
sg3518
g2258
sg31
I3
sg3410
(lp4324
I107
asg36
(issf_api
FeatureSet
p4325
(dp4326
g12
(dp4327
S'name'
p4328
g4214
sS'drel'
p4329
S'k2:VGF'
p4330
ssbsba(issf_api
Chunk
p4331
(dp4332
g3419
g2274
sg30
I5
sg3518
g2283
sg31
I3
sg3410
(lp4333
I108
asg36
(issf_api
FeatureSet
p4334
(dp4335
g12
(dp4336
S'name'
p4337
g4256
sS'drel'
p4338
S'ccof:CCP2'
p4339
ssbsba(issf_api
Chunk
p4340
(dp4341
g3419
g2297
sg30
I6
sg3518
g2302
sg31
I3
sg3410
(lp4342
I109
asg36
(issf_api
FeatureSet
p4343
(dp4344
g12
(dp4345
S'name'
p4346
g4200
sS'drel'
p4347
S'k1:VGF2'
p4348
ssbsba(issf_api
Chunk
p4349
(dp4350
g3419
g2318
sg30
I7
sg3518
g2329
sg31
I3
sg3410
(lp4351
I110
aI111
asg36
(issf_api
FeatureSet
p4352
(dp4353
g12
(dp4354
S'name'
p4355
g4229
sS'drel'
p4356
S'ccof:CCP2'
p4357
ssbsba(issf_api
Chunk
p4358
(dp4359
g3419
g2362
sg30
I8
sg3518
g2373
sg31
I3
sg3410
(lp4360
I112
aI113
asg36
(issf_api
FeatureSet
p4361
(dp4362
g12
(dp4363
S'name'
p4364
g4209
sS'drel'
p4365
S'k5:VGNN'
p4366
ssbsba(issf_api
Chunk
p4367
(dp4368
g3419
g2406
sg30
I9
sg3518
g2413
sg31
I3
sg3410
(lp4369
I114
asg36
(issf_api
FeatureSet
p4370
(dp4371
g12
(dp4372
S'name'
p4373
g4245
sS'drel'
p4374
S'r6:NP8'
p4375
ssbsba(issf_api
Chunk
p4376
(dp4377
g3419
g2427
sg30
I10
sg3518
g2440
sg31
I3
sg3410
(lp4378
I115
asg36
(issf_api
FeatureSet
p4379
(dp4380
g12
(dp4381
S'name'
p4382
g4208
sS'drel'
p4383
S'k2:VGNN'
p4384
ssbsba(issf_api
Chunk
p4385
(dp4386
g3419
g2454
sg30
I11
sg3518
g2461
sg31
I3
sg3410
(lp4387
I116
asg36
(issf_api
FeatureSet
p4388
(dp4389
g12
(dp4390
S'name'
p4391
g4207
sS'drel'
p4392
S'pof:VGNN'
p4393
ssbsba(issf_api
Chunk
p4394
(dp4395
g3419
g2477
sg30
I12
sg3518
g2486
sg31
I3
sg3410
(lp4396
I117
aI118
asg36
(issf_api
FeatureSet
p4397
(dp4398
g12
(dp4399
S'name'
p4400
g4201
sS'drel'
p4401
S'r6-k2:NP9'
p4402
ssbsba(issf_api
Chunk
p4403
(dp4404
g3419
g2519
sg30
I13
sg3518
g2530
sg31
I3
sg3410
(lp4405
I119
asg36
(issf_api
FeatureSet
p4406
(dp4407
g12
(dp4408
S'name'
p4409
g4199
sS'drel'
p4410
S'pof:VGF2'
p4411
ssbsba(issf_api
Chunk
p4412
(dp4413
g3419
g2544
sg30
I14
sg3518
g2555
sg31
I3
sg3410
(lp4414
I120
aI121
asg36
(issf_api
FeatureSet
p4415
(dp4416
g12
(dp4417
S'name'
p4418
g4193
sS'drel'
p4419
S'ccof:CCP'
p4420
ssbsba(issf_api
Chunk
p4421
(dp4422
g3419
g2586
sg30
I15
sg3518
g2591
sg31
I3
sg3410
(lp4423
I122
asg36
(issf_api
FeatureSet
p4424
(dp4425
g12
(dp4426
S'name'
p4427
g4215
sS'drel'
p4428
S'rsym:VGF'
p4429
ssbsbasba(issf_api
Sentence
p4430
(dp4431
g3408
(lp4432
sg31
I4
sg3410
(lp4433
I123
aI124
aI125
aI126
aI127
aI128
aI129
aI130
aI131
aI132
aI133
aI134
aI135
aI136
aI137
aI138
aI139
aI140
aI141
aI142
aI143
asg3412
(dp4434
S'VGF2'
p4435
(issf_api
Node
p4436
(dp4437
g3417
S'ccof'
p4438
sg3419
g4435
sg3420
S'CCP'
p4439
sg3422
I-1
sg30
I11
sg3423
(lp4440
S'NP5'
p4441
aS'NP4'
p4442
aS'NP3'
p4443
asbsS'VGNN'
p4444
(issf_api
Node
p4445
(dp4446
g3417
S'r6'
p4447
sg3419
g4444
sg3420
S'NP3'
p4448
sg3422
I-1
sg30
I4
sg3423
(lp4449
S'NP2'
p4450
asbsS'VGF'
p4451
(issf_api
Node
p4452
(dp4453
g3417
g3437
sg3419
g4451
sg3420
g3437
sg3422
I-1
sg30
I1
sg3423
(lp4454
S'CCP'
p4455
aS'BLK'
p4456
aS'NP'
p4457
asbsg4455
(issf_api
Node
p4458
(dp4459
g3417
S'k2'
p4460
sg3419
g4455
sg3420
S'VGF'
p4461
sg3422
I-1
sg30
I2
sg3423
(lp4462
g4435
asbsS'JJP'
p4463
(issf_api
Node
p4464
(dp4465
g3417
S'ccof'
p4466
sg3419
g4463
sg3420
S'CCP2'
p4467
sg3422
I-1
sg30
I6
sg3423
(lp4468
sbsg4441
(issf_api
Node
p4469
(dp4470
g3417
S'pof'
p4471
sg3419
g4441
sg3420
S'VGF2'
p4472
sg3422
I-1
sg30
I10
sg3423
(lp4473
sbsS'JJP2'
p4474
(issf_api
Node
p4475
(dp4476
g3417
S'ccof'
p4477
sg3419
g4474
sg3420
S'CCP2'
p4478
sg3422
I-1
sg30
I8
sg3423
(lp4479
sbsg4456
(issf_api
Node
p4480
(dp4481
g3417
S'rsym'
p4482
sg3419
g4456
sg3420
S'VGF'
p4483
sg3422
I-1
sg30
I12
sg3423
(lp4484
sbsg4457
(issf_api
Node
p4485
(dp4486
g3417
S'k1'
p4487
sg3419
g4457
sg3420
S'VGF'
p4488
sg3422
I-1
sg30
I0
sg3423
(lp4489
sbsg4442
(issf_api
Node
p4490
(dp4491
g3417
S'rh'
p4492
sg3419
g4442
sg3420
S'VGF2'
p4493
sg3422
I-1
sg30
I9
sg3423
(lp4494
S'CCP2'
p4495
asbsg4495
(issf_api
Node
p4496
(dp4497
g3417
S'nmod'
p4498
sg3419
g4495
sg3420
S'NP4'
p4499
sg3422
I-1
sg30
I7
sg3423
(lp4500
g4463
ag4474
asbsg4443
(issf_api
Node
p4501
(dp4502
g3417
S'k7'
p4503
sg3419
g4443
sg3420
S'VGF2'
p4504
sg3422
I-1
sg30
I5
sg3423
(lp4505
g4444
asbsg4450
(issf_api
Node
p4506
(dp4507
g3417
S'k2'
p4508
sg3419
g4450
sg3420
S'VGNN'
p4509
sg3422
I-1
sg30
I3
sg3423
(lp4510
sbssg3514
(lp4511
(issf_api
Chunk
p4512
(dp4513
g3419
g2607
sg30
I0
sg3518
g2616
sg31
I4
sg3410
(lp4514
I123
asg36
(issf_api
FeatureSet
p4515
(dp4516
g12
(dp4517
S'name'
p4518
g4457
sS'drel'
p4519
S'k1:VGF'
p4520
ssbsba(issf_api
Chunk
p4521
(dp4522
g3419
g2630
sg30
I1
sg3518
g2637
sg31
I4
sg3410
(lp4523
I124
asg36
(issf_api
FeatureSet
p4524
(dp4525
g12
(dp4526
S'name'
p4527
g4451
ssbsba(issf_api
Chunk
p4528
(dp4529
g3419
g2651
sg30
I2
sg3518
g2656
sg31
I4
sg3410
(lp4530
I125
asg36
(issf_api
FeatureSet
p4531
(dp4532
g12
(dp4533
S'name'
p4534
g4455
sS'drel'
p4535
S'k2:VGF'
p4536
ssbsba(issf_api
Chunk
p4537
(dp4538
g3419
g2670
sg30
I3
sg3518
g2679
sg31
I4
sg3410
(lp4539
I126
asg36
(issf_api
FeatureSet
p4540
(dp4541
g12
(dp4542
S'name'
p4543
g4450
sS'drel'
p4544
S'k2:VGNN'
p4545
ssbsba(issf_api
Chunk
p4546
(dp4547
g3419
g2697
sg30
I4
sg3518
g2710
sg31
I4
sg3410
(lp4548
I127
aI128
aI129
asg36
(issf_api
FeatureSet
p4549
(dp4550
g12
(dp4551
S'name'
p4552
g4444
sS'drel'
p4553
S'r6:NP3'
p4554
ssbsba(issf_api
Chunk
p4555
(dp4556
g3419
g2764
sg30
I5
sg3518
g2777
sg31
I4
sg3410
(lp4557
I130
aI131
asg36
(issf_api
FeatureSet
p4558
(dp4559
g12
(dp4560
S'name'
p4561
g4443
sS'drel'
p4562
S'k7:VGF2'
p4563
ssbsba(issf_api
Chunk
p4564
(dp4565
g3419
g2808
sg30
I6
sg3518
g2813
sg31
I4
sg3410
(lp4566
I132
asg36
(issf_api
FeatureSet
p4567
(dp4568
g12
(dp4569
S'name'
p4570
g4463
sS'drel'
p4571
S'ccof:CCP2'
p4572
ssbsba(issf_api
Chunk
p4573
(dp4574
g3419
g2827
sg30
I7
sg3518
g2832
sg31
I4
sg3410
(lp4575
I133
asg36
(issf_api
FeatureSet
p4576
(dp4577
g12
(dp4578
S'name'
p4579
g4495
sS'drel'
p4580
S'nmod:NP4'
p4581
ssbsba(issf_api
Chunk
p4582
(dp4583
g3419
g2846
sg30
I8
sg3518
g2851
sg31
I4
sg3410
(lp4584
I134
asg36
(issf_api
FeatureSet
p4585
(dp4586
g12
(dp4587
S'name'
p4588
g4474
sS'drel'
p4589
S'ccof:CCP2'
p4590
ssbsba(issf_api
Chunk
p4591
(dp4592
g3419
g2865
sg30
I9
sg3518
g2872
sg31
I4
sg3410
(lp4593
I135
aI136
aI137
aI138
asg36
(issf_api
FeatureSet
p4594
(dp4595
g12
(dp4596
S'name'
p4597
g4442
sS'drel'
p4598
S'rh:VGF2'
p4599
ssbsba(issf_api
Chunk
p4600
(dp4601
g3419
g2937
sg30
I10
sg3518
g2942
sg31
I4
sg3410
(lp4602
I139
asg36
(issf_api
FeatureSet
p4603
(dp4604
g12
(dp4605
S'name'
p4606
g4441
sS'drel'
p4607
S'pof:VGF2'
p4608
ssbsba(issf_api
Chunk
p4609
(dp4610
g3419
g2956
sg30
I11
sg3518
g2967
sg31
I4
sg3410
(lp4611
I140
aI141
aI142
asg36
(issf_api
FeatureSet
p4612
(dp4613
g12
(dp4614
S'name'
p4615
g4435
sS'drel'
p4616
S'ccof:CCP'
p4617
ssbsba(issf_api
Chunk
p4618
(dp4619
g3419
g3015
sg30
I12
sg3518
g3020
sg31
I4
sg3410
(lp4620
I143
asg36
(issf_api
FeatureSet
p4621
(dp4622
g12
(dp4623
S'name'
p4624
g4456
sS'drel'
p4625
S'rsym:VGF'
p4626
ssbsbasba(issf_api
Sentence
p4627
(dp4628
g3408
(lp4629
sg31
I5
sg3410
(lp4630
I144
aI145
aI146
aI147
aI148
aI149
aI150
aI151
aI152
aI153
aI154
aI155
aI156
aI157
aI158
aI159
aI160
aI161
aI162
asg3412
(dp4631
S'VGF'
p4632
(issf_api
Node
p4633
(dp4634
g3417
S'ccof'
p4635
sg3419
g4632
sg3420
S'CCP'
p4636
sg3422
I-1
sg30
I3
sg3423
(lp4637
S'NP'
p4638
aS'CCP2'
p4639
aS'NP2'
p4640
asbsS'CCP'
p4641
(issf_api
Node
p4642
(dp4643
g3417
g3437
sg3419
g4641
sg3420
g3437
sg3422
I-1
sg30
I0
sg3423
(lp4644
g4632
aS'BLK'
p4645
asbsS'VGF2'
p4646
(issf_api
Node
p4647
(dp4648
g3417
S'ccof'
p4649
sg3419
g4646
sg3420
S'CCP2'
p4650
sg3422
I-1
sg30
I10
sg3423
(lp4651
S'NP5'
p4652
aS'NP4'
p4653
aS'NP7'
p4654
aS'NP6'
p4655
aS'NP3'
p4656
asbsg4652
(issf_api
Node
p4657
(dp4658
g3417
S'k7t'
p4659
sg3419
g4652
sg3420
S'VGF2'
p4660
sg3422
I-1
sg30
I7
sg3423
(lp4661
sbsg4645
(issf_api
Node
p4662
(dp4663
g3417
S'rsym'
p4664
sg3419
g4645
sg3420
S'CCP'
p4665
sg3422
I-1
sg30
I11
sg3423
(lp4666
sbsg4638
(issf_api
Node
p4667
(dp4668
g3417
S'k1'
p4669
sg3419
g4638
sg3420
S'VGF'
p4670
sg3422
I-1
sg30
I1
sg3423
(lp4671
sbsg4653
(issf_api
Node
p4672
(dp4673
g3417
S'k7t'
p4674
sg3419
g4653
sg3420
S'VGF2'
p4675
sg3422
I-1
sg30
I6
sg3423
(lp4676
sbsg4654
(issf_api
Node
p4677
(dp4678
g3417
S'pof'
p4679
sg3419
g4654
sg3420
S'VGF2'
p4680
sg3422
I-1
sg30
I9
sg3423
(lp4681
sbsg4655
(issf_api
Node
p4682
(dp4683
g3417
S'k7'
p4684
sg3419
g4655
sg3420
S'VGF2'
p4685
sg3422
I-1
sg30
I8
sg3423
(lp4686
sbsg4639
(issf_api
Node
p4687
(dp4688
g3417
S'k2'
p4689
sg3419
g4639
sg3420
S'VGF'
p4690
sg3422
I-1
sg30
I4
sg3423
(lp4691
g4646
asbsg4656
(issf_api
Node
p4692
(dp4693
g3417
S'k1'
p4694
sg3419
g4656
sg3420
S'VGF2'
p4695
sg3422
I-1
sg30
I5
sg3423
(lp4696
sbsg4640
(issf_api
Node
p4697
(dp4698
g3417
S'pof'
p4699
sg3419
g4640
sg3420
S'VGF'
p4700
sg3422
I-1
sg30
I2
sg3423
(lp4701
sbssg3514
(lp4702
(issf_api
Chunk
p4703
(dp4704
g3419
g3030
sg30
I0
sg3518
g3037
sg31
I5
sg3410
(lp4705
I144
asg36
(issf_api
FeatureSet
p4706
(dp4707
g12
(dp4708
S'name'
p4709
g4641
ssbsba(issf_api
Chunk
p4710
(dp4711
g3419
g3053
sg30
I1
sg3518
g3062
sg31
I5
sg3410
(lp4712
I145
asg36
(issf_api
FeatureSet
p4713
(dp4714
g12
(dp4715
S'name'
p4716
g4638
sS'drel'
p4717
S'k1:VGF'
p4718
ssbsba(issf_api
Chunk
p4719
(dp4720
g3419
g3076
sg30
I2
sg3518
g3081
sg31
I5
sg3410
(lp4721
I146
asg36
(issf_api
FeatureSet
p4722
(dp4723
g12
(dp4724
S'name'
p4725
g4640
sS'drel'
p4726
S'pof:VGF'
p4727
ssbsba(issf_api
Chunk
p4728
(dp4729
g3419
g3095
sg30
I3
sg3518
g3104
sg31
I5
sg3410
(lp4730
I147
asg36
(issf_api
FeatureSet
p4731
(dp4732
g12
(dp4733
S'name'
p4734
g4632
sS'drel'
p4735
S'ccof:CCP'
p4736
ssbsba(issf_api
Chunk
p4737
(dp4738
g3419
g3118
sg30
I4
sg3518
g3123
sg31
I5
sg3410
(lp4739
I148
asg36
(issf_api
FeatureSet
p4740
(dp4741
g12
(dp4742
S'name'
p4743
g4639
sS'drel'
p4744
S'k2:VGF'
p4745
ssbsba(issf_api
Chunk
p4746
(dp4747
g3419
g3139
sg30
I5
sg3518
g3148
sg31
I5
sg3410
(lp4748
I149
asg36
(issf_api
FeatureSet
p4749
(dp4750
g12
(dp4751
S'name'
p4752
g4656
sS'drel'
p4753
S'k1:VGF2'
p4754
ssbsba(issf_api
Chunk
p4755
(dp4756
g3419
g3179
sg30
I6
sg3518
g3184
sg31
I5
sg3410
(lp4757
I150
aI151
asg36
(issf_api
FeatureSet
p4758
(dp4759
g12
(dp4760
S'name'
p4761
g4653
sS'drel'
p4762
S'k7t:VGF2'
p4763
ssbsba(issf_api
Chunk
p4764
(dp4765
g3419
g3215
sg30
I7
sg3518
g3222
sg31
I5
sg3410
(lp4766
I152
aI153
aI154
aI155
asg36
(issf_api
FeatureSet
p4767
(dp4768
g12
(dp4769
S'name'
p4770
g4652
sS'drel'
p4771
S'k7t:VGF2'
p4772
ssbsba(issf_api
Chunk
p4773
(dp4774
g3419
g3272
sg30
I8
sg3518
g3283
sg31
I5
sg3410
(lp4775
I156
aI157
aI158
asg36
(issf_api
FeatureSet
p4776
(dp4777
g12
(dp4778
S'name'
p4779
g4655
sS'drel'
p4780
S'k7:VGF2'
p4781
ssbsba(issf_api
Chunk
p4782
(dp4783
g3419
g3333
sg30
I9
sg3518
g3342
sg31
I5
sg3410
(lp4784
I159
asg36
(issf_api
FeatureSet
p4785
(dp4786
g12
(dp4787
S'name'
p4788
g4654
sS'drel'
p4789
S'pof:VGF2'
p4790
ssbsba(issf_api
Chunk
p4791
(dp4792
g3419
g3356
sg30
I10
sg3518
g3367
sg31
I5
sg3410
(lp4793
I160
aI161
asg36
(issf_api
FeatureSet
p4794
(dp4795
g12
(dp4796
S'name'
p4797
g4646
sS'drel'
p4798
S'ccof:CCP2'
p4799
ssbsba(issf_api
Chunk
p4800
(dp4801
g3419
g3398
sg30
I11
sg3518
g3403
sg31
I5
sg3410
(lp4802
I162
asg36
(issf_api
FeatureSet
p4803
(dp4804
g12
(dp4805
S'name'
p4806
g4645
sS'drel'
p4807
S'rsym:CCP'
p4808
ssbsbasbasb.