(issf_api
SSFInfo
p0
(dp1
S'globalWordList'
p2
(lp3
(issf_api
Word
p4
(dp5
S'splitConn'
p6
I00
sS'word'
p7
V\u092c\u093f\u0939\u093e\u0930
p8
sS'extraFeatureSet'
p9
(issf_api
FeatureSet
p10
(dp11
S'featureDict'
p12
(dp13
S'crefhead'
p14
S'\xe0\xa4\xac\xe0\xa4\xbf\xe0\xa4\xb9\xe0\xa4\xbe\xe0\xa4\xb0:i1'
p15
sS'posn'
p16
S'10'
p17
sS'name'
p18
S'\xe0\xa4\xac\xe0\xa4\xbf\xe0\xa4\xb9\xe0\xa4\xbe\xe0\xa4\xb0'
p19
sS'af'
p20
S'\xe0\xa4\xac\xe0\xa4\xbf\xe0\xa4\xb9\xe0\xa4\xbe\xe0\xa4\xb0,n,m,sg,3,o,0_\xe0\xa4\xae\xe0\xa5\x87\xe0\xa4\x82,0'
p21
sS'chunkid'
p22
S'NP'
p23
sS'chunktype'
p24
S'head:NP'
p25
sS'crefchainhead'
p26
S'i1:t1'
p27
sS'vpos'
p28
S'vib_2'
p29
sS'cref'
p30
S'i1%1:t1'
p31
sS'drel'
p32
S'k7:VGNN'
p33
ssbsS'arg1'
p34
I00
sS'arg2'
p35
I00
sS'sense'
p36
NsS'arg1Span'
p37
NsS'chunkNum'
p38
I0
sS'sentenceNum'
p39
I0
sS'relationNum'
p40
NsS'arg2Span'
p41
NsS'wordTag'
p42
S'NNP'
p43
sS'featureSet'
p44
g10
sS'conn'
p45
I00
sba(issf_api
Word
p46
(dp47
g6
I00
sg7
V\u092e\u0947\u0902
p48
sg9
(issf_api
FeatureSet
p49
(dp50
g12
(dp51
S'posn'
p52
S'20'
p53
sS'name'
p54
S'\xe0\xa4\xae\xe0\xa5\x87\xe0\xa4\x82'
p55
sS'drel'
p56
S'lwg__psp:NP'
p57
sS'chunktype'
p58
S'child:NP'
p59
sS'af'
p60
S'\xe0\xa4\xae\xe0\xa5\x87\xe0\xa4\x82,psp,,,,,,'
p61
ssbsg34
I00
sg35
I00
sg36
Nsg37
Nsg38
I0
sg39
I0
sg40
Nsg41
Nsg42
S'PSP'
p62
sg44
g49
sg45
I00
sba(issf_api
Word
p63
(dp64
g6
I00
sg7
V13
p65
sg9
(issf_api
FeatureSet
p66
(dp67
g12
(dp68
S'posn'
p69
S'30'
p70
sS'name'
p71
S'13'
p72
sS'drel'
p73
S'pof__cn:NP2'
p74
sS'chunktype'
p75
S'child:NP2'
p76
sS'af'
p77
S'13,n,any,sg,3,d,0,0'
p78
ssbsg34
I00
sg35
I00
sg36
Nsg37
Nsg38
I1
sg39
I0
sg40
Nsg41
Nsg42
S'NNPC'
p79
sg44
g66
sg45
I00
sba(issf_api
Word
p80
(dp81
g6
I00
sg7
V\u0928\u0935\u0902\u092c\u0930
p82
sg9
(issf_api
FeatureSet
p83
(dp84
g12
(dp85
S'posn'
p86
S'40'
p87
sS'name'
p88
S'\xe0\xa4\xa8\xe0\xa4\xb5\xe0\xa4\x82\xe0\xa4\xac\xe0\xa4\xb0'
p89
sS'af'
p90
S'\xe0\xa4\xa8\xe0\xa4\xb5\xe0\xa4\x82\xe0\xa4\xac\xe0\xa4\xb0,n,m,sg,3,o,0_\xe0\xa4\x95\xe0\xa5\x8b,0'
p91
sS'chunkid'
p92
S'NP2'
p93
sS'drel'
p94
S'k7t:VGNN'
p95
sS'vpos'
p96
S'vib_3'
p97
sS'chunktype'
p98
S'head:NP2'
p99
ssbsg34
I00
sg35
I00
sg36
Nsg37
Nsg38
I1
sg39
I0
sg40
Nsg41
Nsg42
S'NNP'
p100
sg44
g83
sg45
I00
sba(issf_api
Word
p101
(dp102
g6
I00
sg7
V\u0915\u094b
p103
sg9
(issf_api
FeatureSet
p104
(dp105
g12
(dp106
S'posn'
p107
S'50'
p108
sS'name'
p109
S'\xe0\xa4\x95\xe0\xa5\x8b'
p110
sS'drel'
p111
S'lwg__psp:NP2'
p112
sS'chunktype'
p113
S'child:NP2'
p114
sS'af'
p115
S'\xe0\xa4\x95\xe0\xa5\x8b,psp,,,,,,'
p116
ssbsg34
I00
sg35
I00
sg36
Nsg37
Nsg38
I1
sg39
I0
sg40
Nsg41
Nsg42
S'PSP'
p117
sg44
g104
sg45
I00
sba(issf_api
Word
p118
(dp119
g6
I00
sg7
V\u0939\u094b\u0928\u0947
p120
sg9
(issf_api
FeatureSet
p121
(dp122
g12
(dp123
S'posn'
p124
S'60'
p125
sS'name'
p126
S'\xe0\xa4\xb9\xe0\xa5\x8b\xe0\xa4\xa8\xe0\xa5\x87'
p127
sS'af'
p128
S'\xe0\xa4\xb9\xe0\xa5\x8b,v,any,sg,any,o,\xe0\xa4\xa8\xe0\xa4\xbe_\xe0\xa4\xb5\xe0\xa4\xbe\xe0\xa4\xb2\xe0\xa4\xbe,nA'
p129
sS'chunkid'
p130
S'VGNN'
p131
sS'drel'
p132
S'nmod:NP3'
p133
sS'vpos'
p134
S'tam_2'
p135
sS'chunktype'
p136
S'head:VGNN'
p137
ssbsg34
I00
sg35
I00
sg36
Nsg37
Nsg38
I2
sg39
I0
sg40
Nsg41
Nsg42
S'VM'
p138
sg44
g121
sg45
I00
sba(issf_api
Word
p139
(dp140
g6
I00
sg7
V\u0935\u093e\u0932\u0947
p141
sg9
(issf_api
FeatureSet
p142
(dp143
g12
(dp144
S'posn'
p145
S'70'
p146
sS'name'
p147
S'\xe0\xa4\xb5\xe0\xa4\xbe\xe0\xa4\xb2\xe0\xa5\x87'
p148
sS'drel'
p149
S'lwg__psp:VGNN'
p150
sS'chunktype'
p151
S'child:VGNN'
p152
sS'af'
p153
S'\xe0\xa4\xb5\xe0\xa4\xbe\xe0\xa4\xb2\xe0\xa4\xbe,psp,m,sg,,o,,'
p154
ssbsg34
I00
sg35
I00
sg36
Nsg37
Nsg38
I2
sg39
I0
sg40
Nsg41
Nsg42
S'PSP'
p155
sg44
g142
sg45
I00
sba(issf_api
Word
p156
(dp157
g6
I00
sg7
V\u0924\u0940\u0938\u0930\u0947
p158
sg9
(issf_api
FeatureSet
p159
(dp160
g12
(dp161
S'posn'
p162
S'80'
p163
sS'name'
p164
S'\xe0\xa4\xa4\xe0\xa5\x80\xe0\xa4\xb8\xe0\xa4\xb0\xe0\xa5\x87'
p165
sS'af'
p166
S'\xe0\xa4\xa4\xe0\xa5\x80\xe0\xa4\xb8\xe0\xa4\xb0\xe0\xa4\xbe,num,m,sg,,o,,'
p167
sS'acrefmod'
p168
S'm1%0:i2'
p169
sS'drel'
p170
S'nmod__adj:NP3'
p171
sS'chunktype'
p172
S'child:NP3'
p173
ssbsg34
I00
sg35
I00
sg36
Nsg37
Nsg38
I3
sg39
I0
sg40
Nsg41
Nsg42
S'QO'
p174
sg44
g159
sg45
I00
sba(issf_api
Word
p175
(dp176
g6
I00
sg7
V\u091a\u0930\u0923
p177
sg9
(issf_api
FeatureSet
p178
(dp179
g12
(dp180
S'posn'
p181
S'90'
p182
sS'name'
p183
S'\xe0\xa4\x9a\xe0\xa4\xb0\xe0\xa4\xa3'
p184
sS'af'
p185
S'\xe0\xa4\x9a\xe0\xa4\xb0\xe0\xa4\xa3,n,m,sg,3,o,0_\xe0\xa4\x95\xe0\xa4\xbe,0'
p186
sS'acrefmodhead'
p187
S'\xe0\xa4\x9a\xe0\xa4\xb0\xe0\xa4\xa3:m1'
p188
sS'chunkid'
p189
S'NP3'
p190
sS'acrefmod'
p191
S'm1%1:i2'
p192
sS'drel'
p193
S'r6:NP4'
p194
sS'vpos'
p195
S'vib_3'
p196
sS'chunktype'
p197
S'head:NP3'
p198
ssbsg34
I00
sg35
I00
sg36
Nsg37
Nsg38
I3
sg39
I0
sg40
Nsg41
Nsg42
S'NN'
p199
sg44
g178
sg45
I00
sba(issf_api
Word
p200
(dp201
g6
I00
sg7
V\u0915\u0947
p202
sg9
(issf_api
FeatureSet
p203
(dp204
g12
(dp205
S'posn'
p206
S'100'
p207
sS'name'
p208
S'\xe0\xa4\x95\xe0\xa5\x87'
p209
sS'drel'
p210
S'lwg__psp:NP3'
p211
sS'chunktype'
p212
S'child:NP3'
p213
sS'af'
p214
S'\xe0\xa4\x95\xe0\xa4\xbe,psp,m,sg,,o,,'
p215
ssbsg34
I00
sg35
I00
sg36
Nsg37
Nsg38
I3
sg39
I0
sg40
Nsg41
Nsg42
S'PSP'
p216
sg44
g203
sg45
I00
sba(issf_api
Word
p217
(dp218
g6
I00
sg7
V\u091a\u0941\u0928\u093e\u0935
p219
sg9
(issf_api
FeatureSet
p220
(dp221
g12
(dp222
S'crefhead'
p223
S'\xe0\xa4\x9a\xe0\xa5\x81\xe0\xa4\xa8\xe0\xa4\xbe\xe0\xa4\xb5:i2'
p224
sS'posn'
p225
S'110'
p226
sS'name'
p227
S'\xe0\xa4\x9a\xe0\xa5\x81\xe0\xa4\xa8\xe0\xa4\xbe\xe0\xa4\xb5'
p228
sS'af'
p229
S'\xe0\xa4\x9a\xe0\xa5\x81\xe0\xa4\xa8\xe0\xa4\xbe\xe0\xa4\xb5,n,m,sg,3,o,0_\xe0\xa4\x95\xe0\xa5\x87_\xe0\xa4\xae\xe0\xa4\xa6\xe0\xa5\x8d\xe0\xa4\xa6\xe0\xa5\x87\xe0\xa4\xa8\xe0\xa4\x9c\xe0\xa4\xbc\xe0\xa4\xb0,0'
p230
sS'chunkid'
p231
S'NP4'
p232
sS'crefmod'
p233
S'm1:i2'
p234
sS'chunktype'
p235
S'head:NP4'
p236
sS'crefchainhead'
p237
S'i2:t2'
p238
sS'vpos'
p239
S'vib_2_3'
p240
sS'cref'
p241
S'i2%1:t2'
p242
sS'drel'
p243
S'k7a:VGF'
p244
ssbsg34
I00
sg35
I00
sg36
Nsg37
Nsg38
I4
sg39
I0
sg40
Nsg41
Nsg42
S'NN'
p245
sg44
g220
sg45
I00
sba(issf_api
Word
p246
(dp247
g6
I00
sg7
V\u0915\u0947
p248
sg9
(issf_api
FeatureSet
p249
(dp250
g12
(dp251
S'posn'
p252
S'120'
p253
sS'name'
p254
S'\xe0\xa4\x95\xe0\xa5\x872'
p255
sS'drel'
p256
S'lwg__psp:NP4'
p257
sS'chunktype'
p258
S'child:NP4'
p259
sS'af'
p260
S'\xe0\xa4\x95\xe0\xa5\x87,psp,,,,,,'
p261
ssbsg34
I00
sg35
I00
sg36
Nsg37
Nsg38
I4
sg39
I0
sg40
Nsg41
Nsg42
S'PSP'
p262
sg44
g249
sg45
I00
sba(issf_api
Word
p263
(dp264
g6
I00
sg7
V\u092e\u0926\u094d\u0926\u0947\u0928\u091c\u093c\u0930
p265
sg9
(issf_api
FeatureSet
p266
(dp267
g12
(dp268
S'posn'
p269
S'130'
p270
sS'name'
p271
S'\xe0\xa4\xae\xe0\xa4\xa6\xe0\xa5\x8d\xe0\xa4\xa6\xe0\xa5\x87\xe0\xa4\xa8\xe0\xa4\x9c\xe0\xa4\xbc\xe0\xa4\xb0'
p272
sS'drel'
p273
S'lwg__psp:NP4'
p274
sS'chunktype'
p275
S'child:NP4'
p276
sS'af'
p277
S'\xe0\xa4\xae\xe0\xa4\xa6\xe0\xa5\x8d\xe0\xa4\xa6\xe0\xa5\x87\xe0\xa4\xa8\xe0\xa4\x9c\xe0\xa4\xbc\xe0\xa4\xb0,psp,,,,,,'
p278
ssbsg34
I00
sg35
I00
sg36
Nsg37
Nsg38
I4
sg39
I0
sg40
Nsg41
Nsg42
S'PSP'
p279
sg44
g266
sg45
I00
sba(issf_api
Word
p280
(dp281
g6
I00
sg7
V\u092e\u093e\u0913\u0935\u093e\u0926\u0940
p282
sg9
(issf_api
FeatureSet
p283
(dp284
g12
(dp285
S'posn'
p286
S'140'
p287
sS'name'
p288
S'\xe0\xa4\xae\xe0\xa4\xbe\xe0\xa4\x93\xe0\xa4\xb5\xe0\xa4\xbe\xe0\xa4\xa6\xe0\xa5\x80'
p289
sS'af'
p290
S'\xe0\xa4\xae\xe0\xa4\xbe\xe0\xa4\x93\xe0\xa4\xb5\xe0\xa4\xbe\xe0\xa4\xa6\xe0\xa5\x80,adj,any,any,,o,,'
p291
sS'drel'
p292
S'nmod__adj:NP5'
p293
sS'chunktype'
p294
S'child:NP5'
p295
sS'cref'
p296
S'i3%0:t3'
p297
ssbsg34
I00
sg35
I00
sg36
Nsg37
Nsg38
I5
sg39
I0
sg40
Nsg41
Nsg42
S'JJ'
p298
sg44
g283
sg45
I00
sba(issf_api
Word
p299
(dp300
g6
I00
sg7
V\u091b\u093e\u092a\u093e\u092e\u093e\u0930\u094b\u0902
p301
sg9
(issf_api
FeatureSet
p302
(dp303
g12
(dp304
S'crefhead'
p305
S'\xe0\xa4\x9b\xe0\xa4\xbe\xe0\xa4\xaa\xe0\xa4\xbe\xe0\xa4\xae\xe0\xa4\xbe\xe0\xa4\xb0\xe0\xa5\x8b\xe0\xa4\x82:i3'
p306
sS'posn'
p307
S'150'
p308
sS'name'
p309
S'\xe0\xa4\x9b\xe0\xa4\xbe\xe0\xa4\xaa\xe0\xa4\xbe\xe0\xa4\xae\xe0\xa4\xbe\xe0\xa4\xb0\xe0\xa5\x8b\xe0\xa4\x82'
p310
sS'af'
p311
S'\xe0\xa4\x9b\xe0\xa4\xbe\xe0\xa4\xaa\xe0\xa4\xbe\xe0\xa4\xae\xe0\xa4\xbe\xe0\xa4\xb0,n,m,pl,3,o,0_\xe0\xa4\x95\xe0\xa4\xbe,0'
p312
sS'chunkid'
p313
S'NP5'
p314
sS'drel'
p315
S'r6:NP6'
p316
sS'chunktype'
p317
S'head:NP5'
p318
sS'vpos'
p319
S'vib_3'
p320
sS'cref'
p321
S'i3%1:t3'
p322
ssbsg34
I00
sg35
I00
sg36
Nsg37
Nsg38
I5
sg39
I0
sg40
Nsg41
Nsg42
S'NN'
p323
sg44
g302
sg45
I00
sba(issf_api
Word
p324
(dp325
g6
I00
sg7
V\u0915\u0940
p326
sg9
(issf_api
FeatureSet
p327
(dp328
g12
(dp329
S'posn'
p330
S'160'
p331
sS'name'
p332
S'\xe0\xa4\x95\xe0\xa5\x80'
p333
sS'drel'
p334
S'lwg__psp:NP5'
p335
sS'chunktype'
p336
S'child:NP5'
p337
sS'af'
p338
S'\xe0\xa4\x95\xe0\xa4\xbe,psp,f,pl,,o,,'
p339
ssbsg34
I00
sg35
I00
sg36
Nsg37
Nsg38
I5
sg39
I0
sg40
Nsg41
Nsg42
S'PSP'
p340
sg44
g327
sg45
I00
sba(issf_api
Word
p341
(dp342
g6
I00
sg7
V\u0927\u092e\u0915\u093f\u092f\u094b\u0902
p343
sg9
(issf_api
FeatureSet
p344
(dp345
g12
(dp346
S'posn'
p347
S'170'
p348
sS'name'
p349
S'\xe0\xa4\xa7\xe0\xa4\xae\xe0\xa4\x95\xe0\xa4\xbf\xe0\xa4\xaf\xe0\xa5\x8b\xe0\xa4\x82'
p350
sS'af'
p351
S'\xe0\xa4\xa7\xe0\xa4\xae\xe0\xa4\x95\xe0\xa5\x80,n,f,pl,3,o,0_\xe0\xa4\x95\xe0\xa5\x8b,0'
p352
sS'chunkid'
p353
S'NP6'
p354
sS'drel'
p355
S'k2:VGNF'
p356
sS'vpos'
p357
S'vib_2'
p358
sS'chunktype'
p359
S'head:NP6'
p360
ssbsg34
I00
sg35
I00
sg36
Nsg37
Nsg38
I6
sg39
I0
sg40
Nsg41
Nsg42
S'NN'
p361
sg44
g344
sg45
I00
sba(issf_api
Word
p362
(dp363
g6
I00
sg7
V\u0915\u094b
p364
sg9
(issf_api
FeatureSet
p365
(dp366
g12
(dp367
S'posn'
p368
S'180'
p369
sS'name'
p370
S'\xe0\xa4\x95\xe0\xa5\x8b2'
p371
sS'drel'
p372
S'lwg__psp:NP6'
p373
sS'chunktype'
p374
S'child:NP6'
p375
sS'af'
p376
S'\xe0\xa4\x95\xe0\xa5\x8b,psp,,,,,,'
p377
ssbsg34
I00
sg35
I00
sg36
Nsg37
Nsg38
I6
sg39
I0
sg40
Nsg41
Nsg42
S'PSP'
p378
sg44
g365
sg45
I00
sba(issf_api
Word
p379
(dp380
g6
I00
sg7
V\u0926\u0947\u0916\u0924\u0947
p381
sg9
(issf_api
FeatureSet
p382
(dp383
g12
(dp384
S'posn'
p385
S'190'
p386
sS'name'
p387
S'\xe0\xa4\xa6\xe0\xa5\x87\xe0\xa4\x96\xe0\xa4\xa4\xe0\xa5\x87'
p388
sS'af'
p389
S'\xe0\xa4\xa6\xe0\xa5\x87\xe0\xa4\x96,v,m,pl,any,,\xe0\xa4\xa4\xe0\xa4\xbe_\xe0\xa4\xb9\xe0\xa5\x8b+\xe0\xa4\xaf\xe0\xa4\xbe,wA'
p390
sS'chunkid'
p391
S'VGNF'
p392
sS'drel'
p393
S'vmod:VGF'
p394
sS'vpos'
p395
S'tam_2'
p396
sS'chunktype'
p397
S'head:VGNF'
p398
ssbsg34
I00
sg35
I00
sg36
Nsg37
Nsg38
I7
sg39
I0
sg40
Nsg41
Nsg42
S'VM'
p399
sg44
g382
sg45
I00
sba(issf_api
Word
p400
(dp401
g6
I00
sg7
V\u0939\u0941\u090f
p402
sg9
(issf_api
FeatureSet
p403
(dp404
g12
(dp405
S'posn'
p406
S'200'
p407
sS'name'
p408
S'\xe0\xa4\xb9\xe0\xa5\x81\xe0\xa4\x8f'
p409
sS'drel'
p410
S'lwg__vaux:VGNF'
p411
sS'chunktype'
p412
S'child:VGNF'
p413
sS'af'
p414
S'\xe0\xa4\xb9\xe0\xa5\x8b,v,m,pl,any,,\xe0\xa4\xaf\xe0\xa4\xbe,yA'
p415
ssbsg34
I00
sg35
I00
sg36
Nsg37
Nsg38
I7
sg39
I0
sg40
Nsg41
Nsg42
S'VAUX'
p416
sg44
g403
sg45
I00
sba(issf_api
Word
p417
(dp418
g6
I00
sg7
V\u0928\u0947\u092a\u093e\u0932
p419
sg9
(issf_api
FeatureSet
p420
(dp421
g12
(dp422
S'crefhead'
p423
S'\xe0\xa4\xa8\xe0\xa5\x87\xe0\xa4\xaa\xe0\xa4\xbe\xe0\xa4\xb2:i4'
p424
sS'posn'
p425
S'210'
p426
sS'name'
p427
S'\xe0\xa4\xa8\xe0\xa5\x87\xe0\xa4\xaa\xe0\xa4\xbe\xe0\xa4\xb2'
p428
sS'af'
p429
S'\xe0\xa4\xa8\xe0\xa5\x87\xe0\xa4\xaa\xe0\xa4\xbe\xe0\xa4\xb2,n,m,sg,3,o,0,0'
p430
sS'chunkid'
p431
S'NP7'
p432
sS'chunktype'
p433
S'head:NP7'
p434
sS'crefchainhead'
p435
S'i4:t4'
p436
sS'cref'
p437
S'i4%1:t4'
p438
sS'drel'
p439
S'ccof:CCP'
p440
ssbsg34
I00
sg35
I00
sg36
Nsg37
Nsg38
I8
sg39
I0
sg40
Nsg41
Nsg42
S'NNP'
p441
sg44
g420
sg45
I00
sba(issf_api
Word
p442
(dp443
g6
I00
sg7
V,
p444
sg9
(issf_api
FeatureSet
p445
(dp446
g12
(dp447
S'posn'
p448
S'220'
p449
sS'name'
p450
S','
p451
sS'drel'
p452
S'rsym:NP7'
p453
sS'chunktype'
p454
S'child:NP7'
p455
sS'af'
p456
S'COMMA,punc,,,,,,'
p457
ssbsg34
I00
sg35
I00
sg36
Nsg37
Nsg38
I8
sg39
I0
sg40
Nsg41
Nsg42
S'SYM'
p458
sg44
g445
sg45
I00
sba(issf_api
Word
p459
(dp460
g6
I00
sg7
V\u092a\u0936\u094d\u091a\u093f\u092e
p461
sg9
(issf_api
FeatureSet
p462
(dp463
g12
(dp464
S'posn'
p465
S'230'
p466
sS'name'
p467
S'\xe0\xa4\xaa\xe0\xa4\xb6\xe0\xa5\x8d\xe0\xa4\x9a\xe0\xa4\xbf\xe0\xa4\xae'
p468
sS'drel'
p469
S'pof__cn:NP8'
p470
sS'chunktype'
p471
S'child:NP8'
p472
sS'af'
p473
S'\xe0\xa4\xaa\xe0\xa4\xb6\xe0\xa5\x8d\xe0\xa4\x9a\xe0\xa4\xbf\xe0\xa4\xae,n,m,sg,3,d,0,0'
p474
ssbsg34
I00
sg35
I00
sg36
Nsg37
Nsg38
I9
sg39
I0
sg40
Nsg41
Nsg42
S'NNPC'
p475
sg44
g462
sg45
I00
sba(issf_api
Word
p476
(dp477
g6
I00
sg7
V\u092c\u0902\u0917\u093e\u0932
p478
sg9
(issf_api
FeatureSet
p479
(dp480
g12
(dp481
S'posn'
p482
S'240'
p483
sS'name'
p484
S'\xe0\xa4\xac\xe0\xa4\x82\xe0\xa4\x97\xe0\xa4\xbe\xe0\xa4\xb2'
p485
sS'af'
p486
S'\xe0\xa4\xac\xe0\xa4\x82\xe0\xa4\x97\xe0\xa4\xbe\xe0\xa4\xb2,n,m,sg,3,o,0,0'
p487
sS'chunkid'
p488
S'NP8'
p489
sS'drel'
p490
S'ccof:CCP'
p491
sS'chunktype'
p492
S'head:NP8'
p493
ssbsg34
I00
sg35
I00
sg36
Nsg37
Nsg38
I9
sg39
I0
sg40
Nsg41
Nsg42
S'NNP'
p494
sg44
g479
sg45
I00
sba(issf_api
Word
p495
(dp496
g6
I00
sg7
V\u0914\u0930
p497
sg9
(issf_api
FeatureSet
p498
(dp499
g12
(dp500
S'posn'
p501
S'250'
p502
sS'name'
p503
S'\xe0\xa4\x94\xe0\xa4\xb0'
p504
sS'af'
p505
S'\xe0\xa4\x94\xe0\xa4\xb0,avy,,,,,,'
p506
sS'chunkid'
p507
S'CCP'
p508
sS'drel'
p509
S'k2:VGNF2'
p510
sS'chunktype'
p511
S'head:CCP'
p512
ssbsg34
I00
sg35
I00
sg36
Nsg37
Nsg38
I10
sg39
I0
sg40
Nsg41
Nsg42
S'CC'
p513
sg44
g498
sg45
I00
sba(issf_api
Word
p514
(dp515
g6
I00
sg7
V\u0909\u0924\u094d\u0924\u0930
p516
sg9
(issf_api
FeatureSet
p517
(dp518
g12
(dp519
S'posn'
p520
S'260'
p521
sS'name'
p522
S'\xe0\xa4\x89\xe0\xa4\xa4\xe0\xa5\x8d\xe0\xa4\xa4\xe0\xa4\xb0'
p523
sS'drel'
p524
S'pof__cn:NP9'
p525
sS'chunktype'
p526
S'child:NP9'
p527
sS'af'
p528
S'\xe0\xa4\x89\xe0\xa4\xa4\xe0\xa5\x8d\xe0\xa4\xa4\xe0\xa4\xb0,n,m,sg,3,d,0,0'
p529
ssbsg34
I00
sg35
I00
sg36
Nsg37
Nsg38
I11
sg39
I0
sg40
Nsg41
Nsg42
S'NNPC'
p530
sg44
g517
sg45
I00
sba(issf_api
Word
p531
(dp532
g6
I00
sg7
V\u092a\u094d\u0930\u0926\u0947\u0936
p533
sg9
(issf_api
FeatureSet
p534
(dp535
g12
(dp536
S'posn'
p537
S'270'
p538
sS'name'
p539
S'\xe0\xa4\xaa\xe0\xa5\x8d\xe0\xa4\xb0\xe0\xa4\xa6\xe0\xa5\x87\xe0\xa4\xb6'
p540
sS'af'
p541
S'\xe0\xa4\xaa\xe0\xa5\x8d\xe0\xa4\xb0\xe0\xa4\xa6\xe0\xa5\x87\xe0\xa4\xb6,n,m,sg,3,o,0_\xe0\xa4\xb8\xe0\xa5\x87,0'
p542
sS'chunkid'
p543
S'NP9'
p544
sS'drel'
p545
S'ccof:CCP'
p546
sS'vpos'
p547
S'vib_3'
p548
sS'chunktype'
p549
S'head:NP9'
p550
ssbsg34
I00
sg35
I00
sg36
Nsg37
Nsg38
I11
sg39
I0
sg40
Nsg41
Nsg42
S'NNP'
p551
sg44
g534
sg45
I00
sba(issf_api
Word
p552
(dp553
g6
I00
sg7
V\u0938\u0947
p554
sg9
(issf_api
FeatureSet
p555
(dp556
g12
(dp557
S'posn'
p558
S'280'
p559
sS'name'
p560
S'\xe0\xa4\xb8\xe0\xa5\x87'
p561
sS'drel'
p562
S'lwg__psp:NP9'
p563
sS'chunktype'
p564
S'child:NP9'
p565
sS'af'
p566
S'\xe0\xa4\xb8\xe0\xa5\x87,psp,,,,,,'
p567
ssbsg34
I00
sg35
I00
sg36
Nsg37
Nsg38
I11
sg39
I0
sg40
Nsg41
Nsg42
S'PSP'
p568
sg44
g555
sg45
I00
sba(issf_api
Word
p569
(dp570
g6
I00
sg7
V\u0932\u0917\u0940
p571
sg9
(issf_api
FeatureSet
p572
(dp573
g12
(dp574
S'posn'
p575
S'290'
p576
sS'name'
p577
S'\xe0\xa4\xb2\xe0\xa4\x97\xe0\xa5\x80'
p578
sS'af'
p579
S'\xe0\xa4\xb2\xe0\xa4\x97,v,f,pl,any,,\xe0\xa4\xaf\xe0\xa4\xbe,yA'
p580
sS'chunkid'
p581
S'VGNF2'
p582
sS'drel'
p583
S'nmod__k1inv:NP10'
p584
sS'chunktype'
p585
S'head:VGNF2'
p586
ssbsg34
I00
sg35
I00
sg36
Nsg37
Nsg38
I12
sg39
I0
sg40
Nsg41
Nsg42
S'VM'
p587
sg44
g572
sg45
I00
sba(issf_api
Word
p588
(dp589
g6
I00
sg7
V\u0938\u0940\u092e\u093e\u0913\u0902
p590
sg9
(issf_api
FeatureSet
p591
(dp592
g12
(dp593
S'posn'
p594
S'300'
p595
sS'name'
p596
S'\xe0\xa4\xb8\xe0\xa5\x80\xe0\xa4\xae\xe0\xa4\xbe\xe0\xa4\x93\xe0\xa4\x82'
p597
sS'af'
p598
S'\xe0\xa4\xb8\xe0\xa5\x80\xe0\xa4\xae\xe0\xa4\xbe,n,f,pl,3,o,0_\xe0\xa4\x95\xe0\xa5\x8b,0'
p599
sS'chunkid'
p600
S'NP10'
p601
sS'drel'
p602
S'k2:VGNN2'
p603
sS'vpos'
p604
S'vib_2'
p605
sS'chunktype'
p606
S'head:NP10'
p607
ssbsg34
I00
sg35
I00
sg36
Nsg37
Nsg38
I13
sg39
I0
sg40
Nsg41
Nsg42
S'NN'
p608
sg44
g591
sg45
I00
sba(issf_api
Word
p609
(dp610
g6
I00
sg7
V\u0915\u094b
p611
sg9
(issf_api
FeatureSet
p612
(dp613
g12
(dp614
S'posn'
p615
S'310'
p616
sS'name'
p617
S'\xe0\xa4\x95\xe0\xa5\x8b3'
p618
sS'drel'
p619
S'lwg__psp:NP10'
p620
sS'chunktype'
p621
S'child:NP10'
p622
sS'af'
p623
S'\xe0\xa4\x95\xe0\xa5\x8b,psp,,,,,,'
p624
ssbsg34
I00
sg35
I00
sg36
Nsg37
Nsg38
I13
sg39
I0
sg40
Nsg41
Nsg42
S'PSP'
p625
sg44
g612
sg45
I00
sba(issf_api
Word
p626
(dp627
g6
I00
sg7
V\u0938\u0940\u0932
p628
sg9
(issf_api
FeatureSet
p629
(dp630
g12
(dp631
S'posn'
p632
S'320'
p633
sS'name'
p634
S'\xe0\xa4\xb8\xe0\xa5\x80\xe0\xa4\xb2'
p635
sS'af'
p636
S'\xe0\xa4\xb8\xe0\xa5\x80\xe0\xa4\xb2,n,m,sg,3,d,0,0'
p637
sS'chunkid'
p638
S'NP11'
p639
sS'drel'
p640
S'pof:VGNN2'
p641
sS'chunktype'
p642
S'head:NP11'
p643
ssbsg34
I00
sg35
I00
sg36
Nsg37
Nsg38
I14
sg39
I0
sg40
Nsg41
Nsg42
S'NN'
p644
sg44
g629
sg45
I00
sba(issf_api
Word
p645
(dp646
g6
I00
sg7
V\u0915\u0930\u0928\u0947
p647
sg9
(issf_api
FeatureSet
p648
(dp649
g12
(dp650
S'posn'
p651
S'330'
p652
sS'name'
p653
S'\xe0\xa4\x95\xe0\xa4\xb0\xe0\xa4\xa8\xe0\xa5\x87'
p654
sS'af'
p655
S'\xe0\xa4\x95\xe0\xa4\xb0,v,any,sg,any,o,\xe0\xa4\xa8\xe0\xa4\xbe_\xe0\xa4\x95\xe0\xa4\xbe,nA'
p656
sS'chunkid'
p657
S'VGNN2'
p658
sS'drel'
p659
S'r6-k2:NP12'
p660
sS'vpos'
p661
S'tam_2'
p662
sS'chunktype'
p663
S'head:VGNN2'
p664
ssbsg34
I00
sg35
I00
sg36
Nsg37
Nsg38
I15
sg39
I0
sg40
Nsg41
Nsg42
S'VM'
p665
sg44
g648
sg45
I00
sba(issf_api
Word
p666
(dp667
g6
I00
sg7
V\u0915\u093e
p668
sg9
(issf_api
FeatureSet
p669
(dp670
g12
(dp671
S'posn'
p672
S'340'
p673
sS'name'
p674
S'\xe0\xa4\x95\xe0\xa4\xbe'
p675
sS'drel'
p676
S'lwg__psp:VGNN2'
p677
sS'chunktype'
p678
S'child:VGNN2'
p679
sS'af'
p680
S'\xe0\xa4\x95\xe0\xa4\xbe,psp,m,sg,,d,,'
p681
ssbsg34
I00
sg35
I00
sg36
Nsg37
Nsg38
I15
sg39
I0
sg40
Nsg41
Nsg42
S'PSP'
p682
sg44
g669
sg45
I00
sba(issf_api
Word
p683
(dp684
g6
I00
sg7
V\u0906\u0926\u0947\u0936
p685
sg9
(issf_api
FeatureSet
p686
(dp687
g12
(dp688
S'posn'
p689
S'350'
p690
sS'name'
p691
S'\xe0\xa4\x86\xe0\xa4\xa6\xe0\xa5\x87\xe0\xa4\xb6'
p692
sS'af'
p693
S'\xe0\xa4\x86\xe0\xa4\xa6\xe0\xa5\x87\xe0\xa4\xb6,n,m,sg,3,d,0,0'
p694
sS'chunkid'
p695
S'NP12'
p696
sS'drel'
p697
S'pof:VGF'
p698
sS'chunktype'
p699
S'head:NP12'
p700
ssbsg34
I00
sg35
I00
sg36
Nsg37
Nsg38
I16
sg39
I0
sg40
Nsg41
Nsg42
S'NN'
p701
sg44
g686
sg45
I00
sba(issf_api
Word
p702
(dp703
g6
I00
sg7
V\u0926\u093f\u092f\u093e
p704
sg9
(issf_api
FeatureSet
p705
(dp706
g12
(dp707
S'posn'
p708
S'360'
p709
sS'name'
p710
S'\xe0\xa4\xa6\xe0\xa4\xbf\xe0\xa4\xaf\xe0\xa4\xbe'
p711
sS'af'
p712
S'\xe0\xa4\xa6\xe0\xa5\x87,v,m,sg,3,,\xe0\xa4\xaf\xe0\xa4\xbe_\xe0\xa4\x9c\xe0\xa4\xbe+\xe0\xa4\xaf\xe0\xa4\xbe1_\xe0\xa4\xb9\xe0\xa5\x88,yA'
p713
sS'chunkid'
p714
S'VGF'
p715
sS'chunktype'
p716
S'head:VGF'
p717
sS'voicetype'
p718
S'active'
p719
sS'vpos'
p720
S'tam_2_3'
p721
sS'stype'
p722
S'declarative'
p723
ssbsg34
I00
sg35
I00
sg36
Nsg37
Nsg38
I17
sg39
I0
sg40
Nsg41
Nsg42
S'VM'
p724
sg44
g705
sg45
I00
sba(issf_api
Word
p725
(dp726
g6
I00
sg7
V\u0917\u092f\u093e
p727
sg9
(issf_api
FeatureSet
p728
(dp729
g12
(dp730
S'posn'
p731
S'370'
p732
sS'name'
p733
S'\xe0\xa4\x97\xe0\xa4\xaf\xe0\xa4\xbe'
p734
sS'drel'
p735
S'lwg__vaux:VGF'
p736
sS'chunktype'
p737
S'child:VGF'
p738
sS'af'
p739
S'\xe0\xa4\x9c\xe0\xa4\xbe,v,m,sg,any,,\xe0\xa4\xaf\xe0\xa4\xbe1,yA1'
p740
ssbsg34
I00
sg35
I00
sg36
Nsg37
Nsg38
I17
sg39
I0
sg40
Nsg41
Nsg42
S'VAUX'
p741
sg44
g728
sg45
I00
sba(issf_api
Word
p742
(dp743
g6
I00
sg7
V\u0939\u0948
p744
sg9
(issf_api
FeatureSet
p745
(dp746
g12
(dp747
S'posn'
p748
S'380'
p749
sS'name'
p750
S'\xe0\xa4\xb9\xe0\xa5\x88'
p751
sS'drel'
p752
S'lwg__vaux:VGF'
p753
sS'chunktype'
p754
S'child:VGF'
p755
sS'af'
p756
S'\xe0\xa4\xb9\xe0\xa5\x88,v,any,sg,3,,\xe0\xa4\xb9\xe0\xa5\x88,hE'
p757
ssbsg34
I00
sg35
I00
sg36
Nsg37
Nsg38
I17
sg39
I0
sg40
Nsg41
Nsg42
S'VAUX'
p758
sg44
g745
sg45
I00
sba(issf_api
Word
p759
(dp760
g6
I00
sg7
V\u0964
p761
sg9
(issf_api
FeatureSet
p762
(dp763
g12
(dp764
S'posn'
p765
S'390'
p766
sS'name'
p767
S'\xe0\xa5\xa4'
p768
sS'af'
p769
S'\xe0\xa5\xa4,punc,,,,,,'
p770
sS'chunkid'
p771
S'BLK'
p772
sS'drel'
p773
S'rsym:VGF'
p774
sS'chunktype'
p775
S'head:BLK'
p776
ssbsg34
I00
sg35
I00
sg36
Nsg37
Nsg38
I18
sg39
I0
sg40
Nsg41
Nsg42
S'SYM'
p777
sg44
g762
sg45
I00
sba(issf_api
Word
p778
(dp779
g6
I00
sg7
V\u092c\u093f\u0939\u093e\u0930
p780
sg9
(issf_api
FeatureSet
p781
(dp782
g12
(dp783
S'crefhead'
p784
S'\xe0\xa4\xac\xe0\xa4\xbf\xe0\xa4\xb9\xe0\xa4\xbe\xe0\xa4\xb0:i5'
p785
sS'posn'
p786
S'10'
p787
sS'name'
p788
S'\xe0\xa4\xac\xe0\xa4\xbf\xe0\xa4\xb9\xe0\xa4\xbe\xe0\xa4\xb0'
p789
sS'af'
p790
S'\xe0\xa4\xac\xe0\xa4\xbf\xe0\xa4\xb9\xe0\xa4\xbe\xe0\xa4\xb0,n,m,sg,3,d,0,0'
p791
sS'creftype'
p792
S'Coreference-Identity:i1'
p793
sS'drel'
p794
S'nmod__adj:NP'
p795
sS'chunktype'
p796
S'child:NP'
p797
sS'cref'
p798
S'i5%1:t1'
p799
ssbsg34
I00
sg35
I00
sg36
Nsg37
Nsg38
I0
sg39
I1
sg40
Nsg41
Nsg42
S'NNP'
p800
sg44
g781
sg45
I00
sba(issf_api
Word
p801
(dp802
g6
I00
sg7
V\u0935\u093f\u0927\u093e\u0928\u0938\u092d\u093e
p803
sg9
(issf_api
FeatureSet
p804
(dp805
g12
(dp806
S'posn'
p807
S'20'
p808
sS'name'
p809
S'\xe0\xa4\xb5\xe0\xa4\xbf\xe0\xa4\xa7\xe0\xa4\xbe\xe0\xa4\xa8\xe0\xa4\xb8\xe0\xa4\xad\xe0\xa4\xbe'
p810
sS'af'
p811
S'\xe0\xa4\xb5\xe0\xa4\xbf\xe0\xa4\xa7\xe0\xa4\xbe\xe0\xa4\xa8\xe0\xa4\xb8\xe0\xa4\xad\xe0\xa4\xbe,n,f,sg,3,o,0_\xe0\xa4\x95\xe0\xa4\xbe,0'
p812
sS'chunkid'
p813
S'NP'
p814
sS'drel'
p815
S'r6:NP2'
p816
sS'vpos'
p817
S'vib_vib_3'
p818
sS'chunktype'
p819
S'head:NP'
p820
ssbsg34
I00
sg35
I00
sg36
Nsg37
Nsg38
I0
sg39
I1
sg40
Nsg41
Nsg42
S'NN'
p821
sg44
g804
sg45
I00
sba(issf_api
Word
p822
(dp823
g6
I00
sg7
V\u0915\u0947
p824
sg9
(issf_api
FeatureSet
p825
(dp826
g12
(dp827
S'posn'
p828
S'30'
p829
sS'name'
p830
S'\xe0\xa4\x95\xe0\xa5\x87'
p831
sS'drel'
p832
S'lwg__psp:NP'
p833
sS'chunktype'
p834
S'child:NP'
p835
sS'af'
p836
S'\xe0\xa4\x95\xe0\xa4\xbe,psp,m,pl,,o,,'
p837
ssbsg34
I00
sg35
I00
sg36
Nsg37
Nsg38
I0
sg39
I1
sg40
Nsg41
Nsg42
S'PSP'
p838
sg44
g825
sg45
I00
sba(issf_api
Word
p839
(dp840
g6
I00
sg7
V\u0926\u094b
p841
sg9
(issf_api
FeatureSet
p842
(dp843
g12
(dp844
S'posn'
p845
S'40'
p846
sS'name'
p847
S'\xe0\xa4\xa6\xe0\xa5\x8b'
p848
sS'drel'
p849
S'nmod__adj:NP2'
p850
sS'chunktype'
p851
S'child:NP2'
p852
sS'af'
p853
S'\xe0\xa4\xa6\xe0\xa5\x8b,num,any,any,,any,,'
p854
ssbsg34
I00
sg35
I00
sg36
Nsg37
Nsg38
I1
sg39
I1
sg40
Nsg41
Nsg42
S'QC'
p855
sg44
g842
sg45
I00
sba(issf_api
Word
p856
(dp857
g6
I00
sg7
V\u091a\u0930\u0923\u094b\u0902
p858
sg9
(issf_api
FeatureSet
p859
(dp860
g12
(dp861
S'posn'
p862
S'50'
p863
sS'name'
p864
S'\xe0\xa4\x9a\xe0\xa4\xb0\xe0\xa4\xa3\xe0\xa5\x8b\xe0\xa4\x82'
p865
sS'af'
p866
S'\xe0\xa4\x9a\xe0\xa4\xb0\xe0\xa4\xa3,n,m,pl,3,o,0_\xe0\xa4\x95\xe0\xa4\xbe,0'
p867
sS'chunkid'
p868
S'NP2'
p869
sS'drel'
p870
S'r6:NP3'
p871
sS'vpos'
p872
S'vib_3'
p873
sS'chunktype'
p874
S'head:NP2'
p875
ssbsg34
I00
sg35
I00
sg36
Nsg37
Nsg38
I1
sg39
I1
sg40
Nsg41
Nsg42
S'NN'
p876
sg44
g859
sg45
I00
sba(issf_api
Word
p877
(dp878
g6
I00
sg7
V\u0915\u0947
p879
sg9
(issf_api
FeatureSet
p880
(dp881
g12
(dp882
S'posn'
p883
S'60'
p884
sS'name'
p885
S'\xe0\xa4\x95\xe0\xa5\x872'
p886
sS'drel'
p887
S'lwg__psp:NP2'
p888
sS'chunktype'
p889
S'child:NP2'
p890
sS'af'
p891
S'\xe0\xa4\x95\xe0\xa4\xbe,psp,m,pl,,d,,'
p892
ssbsg34
I00
sg35
I00
sg36
Nsg37
Nsg38
I1
sg39
I1
sg40
Nsg41
Nsg42
S'PSP'
p893
sg44
g880
sg45
I00
sba(issf_api
Word
p894
(dp895
g6
I00
sg7
V\u091a\u0941\u0928\u093e\u0935
p896
sg9
(issf_api
FeatureSet
p897
(dp898
g12
(dp899
S'posn'
p900
S'70'
p901
sS'name'
p902
S'\xe0\xa4\x9a\xe0\xa5\x81\xe0\xa4\xa8\xe0\xa4\xbe\xe0\xa4\xb5'
p903
sS'af'
p904
S'\xe0\xa4\x9a\xe0\xa5\x81\xe0\xa4\xa8\xe0\xa4\xbe\xe0\xa4\xb5,n,m,pl,3,d,0,0'
p905
sS'chunkid'
p906
S'NP3'
p907
sS'drel'
p908
S'k1:VGNN'
p909
sS'chunktype'
p910
S'head:NP3'
p911
ssbsg34
I00
sg35
I00
sg36
Nsg37
Nsg38
I2
sg39
I1
sg40
Nsg41
Nsg42
S'NN'
p912
sg44
g897
sg45
I00
sba(issf_api
Word
p913
(dp914
g6
I00
sg7
V\u0936\u093e\u0902\u0924\u093f\u092a\u0942\u0930\u094d\u0923
p915
sg9
(issf_api
FeatureSet
p916
(dp917
g12
(dp918
S'posn'
p919
S'80'
p920
sS'name'
p921
S'\xe0\xa4\xb6\xe0\xa4\xbe\xe0\xa4\x82\xe0\xa4\xa4\xe0\xa4\xbf\xe0\xa4\xaa\xe0\xa5\x82\xe0\xa4\xb0\xe0\xa5\x8d\xe0\xa4\xa3'
p922
sS'drel'
p923
S'nmod__adj:NP4'
p924
sS'chunktype'
p925
S'child:NP4'
p926
sS'af'
p927
S'\xe0\xa4\xb6\xe0\xa4\xbe\xe0\xa4\x82\xe0\xa4\xa4\xe0\xa4\xbf\xe0\xa4\xaa\xe0\xa5\x82\xe0\xa4\xb0\xe0\xa5\x8d\xe0\xa4\xa3,adj,any,any,,o,,'
p928
ssbsg34
I00
sg35
I00
sg36
Nsg37
Nsg38
I3
sg39
I1
sg40
Nsg41
Nsg42
S'JJ'
p929
sg44
g916
sg45
I00
sba(issf_api
Word
p930
(dp931
g6
I00
sg7
V\u0922\u0902\u0917
p932
sg9
(issf_api
FeatureSet
p933
(dp934
g12
(dp935
S'posn'
p936
S'90'
p937
sS'name'
p938
S'\xe0\xa4\xa2\xe0\xa4\x82\xe0\xa4\x97'
p939
sS'af'
p940
S'\xe0\xa4\xa2\xe0\xa4\x82\xe0\xa4\x97,n,m,sg,3,o,0_\xe0\xa4\xb8\xe0\xa5\x87,0'
p941
sS'chunkid'
p942
S'NP4'
p943
sS'drel'
p944
S'adv:VGNN'
p945
sS'vpos'
p946
S'vib_3'
p947
sS'chunktype'
p948
S'head:NP4'
p949
ssbsg34
I00
sg35
I00
sg36
Nsg37
Nsg38
I3
sg39
I1
sg40
Nsg41
Nsg42
S'NN'
p950
sg44
g933
sg45
I00
sba(issf_api
Word
p951
(dp952
g6
I00
sg7
V\u0938\u0947
p953
sg9
(issf_api
FeatureSet
p954
(dp955
g12
(dp956
S'posn'
p957
S'100'
p958
sS'name'
p959
S'\xe0\xa4\xb8\xe0\xa5\x87'
p960
sS'drel'
p961
S'lwg__psp:NP4'
p962
sS'chunktype'
p963
S'child:NP4'
p964
sS'af'
p965
S'\xe0\xa4\xb8\xe0\xa5\x87,psp,,,,,,'
p966
ssbsg34
I00
sg35
I00
sg36
Nsg37
Nsg38
I3
sg39
I1
sg40
Nsg41
Nsg42
S'PSP'
p967
sg44
g954
sg45
I00
sba(issf_api
Word
p968
(dp969
g6
I00
sg7
V\u0938\u092e\u094d\u092a\u0928\u094d\u0928
p970
sg9
(issf_api
FeatureSet
p971
(dp972
g12
(dp973
S'posn'
p974
S'110'
p975
sS'name'
p976
S'\xe0\xa4\xb8\xe0\xa4\xae\xe0\xa5\x8d\xe0\xa4\xaa\xe0\xa4\xa8\xe0\xa5\x8d\xe0\xa4\xa8'
p977
sS'af'
p978
S'\xe0\xa4\xb8\xe0\xa4\x82\xe0\xa4\xaa\xe0\xa4\xa8\xe0\xa5\x8d\xe0\xa4\xa8,adj,any,any,,,,'
p979
sS'chunkid'
p980
S'JJP'
p981
sS'drel'
p982
S'pof:VGNN'
p983
sS'chunktype'
p984
S'head:JJP'
p985
ssbsg34
I00
sg35
I00
sg36
Nsg37
Nsg38
I4
sg39
I1
sg40
Nsg41
Nsg42
S'JJ'
p986
sg44
g971
sg45
I00
sba(issf_api
Word
p987
(dp988
g6
I00
sg7
V\u0939\u094b\u0928\u0947
p989
sg9
(issf_api
FeatureSet
p990
(dp991
g12
(dp992
S'posn'
p993
S'120'
p994
sS'name'
p995
S'\xe0\xa4\xb9\xe0\xa5\x8b\xe0\xa4\xa8\xe0\xa5\x87'
p996
sS'af'
p997
S'\xe0\xa4\xb9\xe0\xa5\x8b,v,any,any,any,o,\xe0\xa4\xa8\xe0\xa4\xbe_\xe0\xa4\xb8\xe0\xa5\x87,nA'
p998
sS'chunkid'
p999
S'VGNN'
p1000
sS'drel'
p1001
S'jjmod:JJP2'
p1002
sS'vpos'
p1003
S'tam_2'
p1004
sS'chunktype'
p1005
S'head:VGNN'
p1006
ssbsg34
I00
sg35
I00
sg36
Nsg37
Nsg38
I5
sg39
I1
sg40
Nsg41
Nsg42
S'VM'
p1007
sg44
g990
sg45
I00
sba(issf_api
Word
p1008
(dp1009
g6
I00
sg7
V\u0938\u0947
p1010
sg9
(issf_api
FeatureSet
p1011
(dp1012
g12
(dp1013
S'posn'
p1014
S'130'
p1015
sS'name'
p1016
S'\xe0\xa4\xb8\xe0\xa5\x872'
p1017
sS'drel'
p1018
S'lwg__psp:VGNN'
p1019
sS'chunktype'
p1020
S'child:VGNN'
p1021
sS'af'
p1022
S'\xe0\xa4\xb8\xe0\xa5\x87,psp,,,,,,'
p1023
ssbsg34
I00
sg35
I00
sg36
Nsg37
Nsg38
I5
sg39
I1
sg40
Nsg41
Nsg42
S'PSP'
p1024
sg44
g1011
sg45
I00
sba(issf_api
Word
p1025
(dp1026
g6
I00
sg7
V\u0909\u0924\u094d\u0938\u093e\u0939\u093f\u0924
p1027
sg9
(issf_api
FeatureSet
p1028
(dp1029
g12
(dp1030
S'posn'
p1031
S'140'
p1032
sS'name'
p1033
S'\xe0\xa4\x89\xe0\xa4\xa4\xe0\xa5\x8d\xe0\xa4\xb8\xe0\xa4\xbe\xe0\xa4\xb9\xe0\xa4\xbf\xe0\xa4\xa4'
p1034
sS'af'
p1035
S'\xe0\xa4\x89\xe0\xa4\xa4\xe0\xa5\x8d\xe0\xa4\xb8\xe0\xa4\xbe\xe0\xa4\xb9\xe0\xa4\xbf\xe0\xa4\xa4,adj,any,any,,o,,'
p1036
sS'chunkid'
p1037
S'JJP2'
p1038
sS'drel'
p1039
S'nmod:NP5'
p1040
sS'chunktype'
p1041
S'head:JJP2'
p1042
ssbsg34
I00
sg35
I00
sg36
Nsg37
Nsg38
I6
sg39
I1
sg40
Nsg41
Nsg42
S'JJ'
p1043
sg44
g1028
sg45
I00
sba(issf_api
Word
p1044
(dp1045
g6
I00
sg7
V\u092e\u0941\u0916\u094d\u092f
p1046
sg9
(issf_api
FeatureSet
p1047
(dp1048
g12
(dp1049
S'posn'
p1050
S'150'
p1051
sS'name'
p1052
S'\xe0\xa4\xae\xe0\xa5\x81\xe0\xa4\x96\xe0\xa5\x8d\xe0\xa4\xaf'
p1053
sS'af'
p1054
S'\xe0\xa4\xae\xe0\xa5\x81\xe0\xa4\x96\xe0\xa5\x8d\xe0\xa4\xaf,adj,any,any,,o,,'
p1055
sS'drel'
p1056
S'nmod__adj:NP5'
p1057
sS'chunktype'
p1058
S'child:NP5'
p1059
sS'cref'
p1060
S'i6%0:t5'
p1061
ssbsg34
I00
sg35
I00
sg36
Nsg37
Nsg38
I7
sg39
I1
sg40
Nsg41
Nsg42
S'JJ'
p1062
sg44
g1047
sg45
I00
sba(issf_api
Word
p1063
(dp1064
g6
I00
sg7
V\u091a\u0941\u0928\u093e\u0935
p1065
sg9
(issf_api
FeatureSet
p1066
(dp1067
g12
(dp1068
S'posn'
p1069
S'160'
p1070
sS'name'
p1071
S'\xe0\xa4\x9a\xe0\xa5\x81\xe0\xa4\xa8\xe0\xa4\xbe\xe0\xa4\xb52'
p1072
sS'af'
p1073
S'\xe0\xa4\x9a\xe0\xa5\x81\xe0\xa4\xa8\xe0\xa4\xbe\xe0\xa4\xb5,n,m,sg,3,d,0,0'
p1074
sS'drel'
p1075
S'pof__cn:NP5'
p1076
sS'chunktype'
p1077
S'child:NP5'
p1078
sS'cref'
p1079
S'i6%0:t5'
p1080
ssbsg34
I00
sg35
I00
sg36
Nsg37
Nsg38
I7
sg39
I1
sg40
Nsg41
Nsg42
S'NNC'
p1081
sg44
g1066
sg45
I00
sba(issf_api
Word
p1082
(dp1083
g6
I00
sg7
V\u0906\u092f\u0941\u0915\u094d\u0924
p1084
sg9
(issf_api
FeatureSet
p1085
(dp1086
g12
(dp1087
S'crefhead'
p1088
S'\xe0\xa4\x86\xe0\xa4\xaf\xe0\xa5\x81\xe0\xa4\x95\xe0\xa5\x8d\xe0\xa4\xa4:i6'
p1089
sS'posn'
p1090
S'170'
p1091
sS'name'
p1092
S'\xe0\xa4\x86\xe0\xa4\xaf\xe0\xa5\x81\xe0\xa4\x95\xe0\xa5\x8d\xe0\xa4\xa4'
p1093
sS'af'
p1094
S'\xe0\xa4\x86\xe0\xa4\xaf\xe0\xa5\x81\xe0\xa4\x95\xe0\xa5\x8d\xe0\xa4\xa4,n,m,sg,3,o,0,0'
p1095
sS'chunkid'
p1096
S'NP5'
p1097
sS'drel'
p1098
S'nmod:NP6'
p1099
sS'chunktype'
p1100
S'head:NP5'
p1101
sS'cref'
p1102
S'i6%1:t5'
p1103
ssbsg34
I00
sg35
I00
sg36
Nsg37
Nsg38
I7
sg39
I1
sg40
Nsg41
Nsg42
S'NN'
p1104
sg44
g1085
sg45
I00
sba(issf_api
Word
p1105
(dp1106
g6
I00
sg7
V\u092c\u0940.
p1107
sg9
(issf_api
FeatureSet
p1108
(dp1109
g12
(dp1110
S'posn'
p1111
S'180'
p1112
sS'name'
p1113
S'\xe0\xa4\xac\xe0\xa5\x80.'
p1114
sS'af'
p1115
S'\xe0\xa4\xac\xe0\xa5\x80.,n,m,sg,3,d,0,0'
p1116
sS'drel'
p1117
S'pof__cn:NP6'
p1118
sS'chunktype'
p1119
S'child:NP6'
p1120
sS'cref'
p1121
S'i7%0:t5'
p1122
ssbsg34
I00
sg35
I00
sg36
Nsg37
Nsg38
I8
sg39
I1
sg40
Nsg41
Nsg42
S'NNPC'
p1123
sg44
g1108
sg45
I00
sba(issf_api
Word
p1124
(dp1125
g6
I00
sg7
V\u092c\u0940.
p1126
sg9
(issf_api
FeatureSet
p1127
(dp1128
g12
(dp1129
S'posn'
p1130
S'190'
p1131
sS'name'
p1132
S'\xe0\xa4\xac\xe0\xa5\x80.2'
p1133
sS'af'
p1134
S'\xe0\xa4\xac\xe0\xa5\x80.,n,m,sg,3,d,0,0'
p1135
sS'drel'
p1136
S'pof__cn:NP6'
p1137
sS'chunktype'
p1138
S'child:NP6'
p1139
sS'cref'
p1140
S'i7%0:t5'
p1141
ssbsg34
I00
sg35
I00
sg36
Nsg37
Nsg38
I8
sg39
I1
sg40
Nsg41
Nsg42
S'NNPC'
p1142
sg44
g1127
sg45
I00
sba(issf_api
Word
p1143
(dp1144
g6
I00
sg7
V\u091f\u0902\u0921\u0928
p1145
sg9
(issf_api
FeatureSet
p1146
(dp1147
g12
(dp1148
S'crefhead'
p1149
S'\xe0\xa4\x9f\xe0\xa4\x82\xe0\xa4\xa1\xe0\xa4\xa8:i7'
p1150
sS'posn'
p1151
S'200'
p1152
sS'name'
p1153
S'\xe0\xa4\x9f\xe0\xa4\x82\xe0\xa4\xa1\xe0\xa4\xa8'
p1154
sS'af'
p1155
S'\xe0\xa4\x9f\xe0\xa4\x82\xe0\xa4\xa1\xe0\xa4\xa8,n,m,sg,3,o,0_\xe0\xa4\xa8\xe0\xa5\x87,0'
p1156
sS'chunkid'
p1157
S'NP6'
p1158
sS'creftype'
p1159
S'Coreference-NounComplement:i6'
p1160
sS'chunktype'
p1161
S'head:NP6'
p1162
sS'crefchainhead'
p1163
S'i7:t5'
p1164
sS'vpos'
p1165
S'vib_4'
p1166
sS'cref'
p1167
S'i7%1:t5'
p1168
sS'drel'
p1169
S'k1:VGF'
p1170
ssbsg34
I00
sg35
I00
sg36
Nsg37
Nsg38
I8
sg39
I1
sg40
Nsg41
Nsg42
S'NNP'
p1171
sg44
g1146
sg45
I00
sba(issf_api
Word
p1172
(dp1173
g6
I00
sg7
V\u0928\u0947
p1174
sg9
(issf_api
FeatureSet
p1175
(dp1176
g12
(dp1177
S'posn'
p1178
S'210'
p1179
sS'name'
p1180
S'\xe0\xa4\xa8\xe0\xa5\x87'
p1181
sS'drel'
p1182
S'lwg__psp:NP6'
p1183
sS'chunktype'
p1184
S'child:NP6'
p1185
sS'af'
p1186
S'\xe0\xa4\xa8\xe0\xa5\x87,psp,,,,,,'
p1187
ssbsg34
I00
sg35
I00
sg36
Nsg37
Nsg38
I8
sg39
I1
sg40
Nsg41
Nsg42
S'PSP'
p1188
sg44
g1175
sg45
I00
sba(issf_api
Word
p1189
(dp1190
g6
I00
sg7
V\u0915\u0939\u093e
p1191
sg9
(issf_api
FeatureSet
p1192
(dp1193
g12
(dp1194
S'posn'
p1195
S'220'
p1196
sS'name'
p1197
S'\xe0\xa4\x95\xe0\xa4\xb9\xe0\xa4\xbe'
p1198
sS'af'
p1199
S'\xe0\xa4\x95\xe0\xa4\xb9,v,m,sg,any,,\xe0\xa4\xaf\xe0\xa4\xbe,yA'
p1200
sS'chunkid'
p1201
S'VGF'
p1202
sS'chunktype'
p1203
S'head:VGF'
p1204
sS'voicetype'
p1205
S'active'
p1206
sS'stype'
p1207
S'declarative'
p1208
ssbsg34
I00
sg35
I00
sg36
Nsg37
Nsg38
I9
sg39
I1
sg40
Nsg41
Nsg42
S'VM'
p1209
sg44
g1192
sg45
I00
sba(issf_api
Word
p1210
(dp1211
g6
I00
sg7
V\u0915\u093f
p1212
sg9
(issf_api
FeatureSet
p1213
(dp1214
g12
(dp1215
S'posn'
p1216
S'230'
p1217
sS'name'
p1218
S'\xe0\xa4\x95\xe0\xa4\xbf'
p1219
sS'af'
p1220
S'\xe0\xa4\x95\xe0\xa4\xbf,avy,,,,,,'
p1221
sS'chunkid'
p1222
S'CCP'
p1223
sS'drel'
p1224
S'k2:VGF'
p1225
sS'chunktype'
p1226
S'head:CCP'
p1227
ssbsg34
I00
sg35
I00
sg36
Nsg37
Nsg38
I10
sg39
I1
sg40
Nsg41
Nsg42
S'CC'
p1228
sg44
g1213
sg45
I00
sba(issf_api
Word
p1229
(dp1230
g6
I00
sg7
V\u0924\u0940\u0938\u0930\u0947
p1231
sg9
(issf_api
FeatureSet
p1232
(dp1233
g12
(dp1234
S'posn'
p1235
S'240'
p1236
sS'name'
p1237
S'\xe0\xa4\xa4\xe0\xa5\x80\xe0\xa4\xb8\xe0\xa4\xb0\xe0\xa5\x87'
p1238
sS'af'
p1239
S'\xe0\xa4\xa4\xe0\xa5\x80\xe0\xa4\xb8\xe0\xa4\xb0\xe0\xa4\xbe,num,m,sg,,o,,'
p1240
sS'acrefmod'
p1241
S'm2%0:i8'
p1242
sS'drel'
p1243
S'nmod__adj:NP7'
p1244
sS'chunktype'
p1245
S'child:NP7'
p1246
ssbsg34
I00
sg35
I00
sg36
Nsg37
Nsg38
I11
sg39
I1
sg40
Nsg41
Nsg42
S'QO'
p1247
sg44
g1232
sg45
I00
sba(issf_api
Word
p1248
(dp1249
g6
I00
sg7
V\u091a\u0930\u0923
p1250
sg9
(issf_api
FeatureSet
p1251
(dp1252
g12
(dp1253
S'posn'
p1254
S'250'
p1255
sS'name'
p1256
S'\xe0\xa4\x9a\xe0\xa4\xb0\xe0\xa4\xa3'
p1257
sS'af'
p1258
S'\xe0\xa4\x9a\xe0\xa4\xb0\xe0\xa4\xa3,n,m,sg,3,o,0_\xe0\xa4\x95\xe0\xa4\xbe,0'
p1259
sS'acrefmodhead'
p1260
S'\xe0\xa4\x9a\xe0\xa4\xb0\xe0\xa4\xa3:m2'
p1261
sS'chunkid'
p1262
S'NP7'
p1263
sS'acrefmod'
p1264
S'm2%1:i8'
p1265
sS'drel'
p1266
S'r6:NP8'
p1267
sS'vpos'
p1268
S'vib_3'
p1269
sS'chunktype'
p1270
S'head:NP7'
p1271
ssbsg34
I00
sg35
I00
sg36
Nsg37
Nsg38
I11
sg39
I1
sg40
Nsg41
Nsg42
S'NN'
p1272
sg44
g1251
sg45
I00
sba(issf_api
Word
p1273
(dp1274
g6
I00
sg7
V\u0915\u0947
p1275
sg9
(issf_api
FeatureSet
p1276
(dp1277
g12
(dp1278
S'posn'
p1279
S'260'
p1280
sS'name'
p1281
S'\xe0\xa4\x95\xe0\xa5\x873'
p1282
sS'drel'
p1283
S'lwg__psp:NP7'
p1284
sS'chunktype'
p1285
S'child:NP7'
p1286
sS'af'
p1287
S'\xe0\xa4\x95\xe0\xa4\xbe,psp,m,sg,,o,,'
p1288
ssbsg34
I00
sg35
I00
sg36
Nsg37
Nsg38
I11
sg39
I1
sg40
Nsg41
Nsg42
S'PSP'
p1289
sg44
g1276
sg45
I00
sba(issf_api
Word
p1290
(dp1291
g6
I00
sg7
V\u091a\u0941\u0928\u093e\u0935
p1292
sg9
(issf_api
FeatureSet
p1293
(dp1294
g12
(dp1295
S'crefhead'
p1296
S'\xe0\xa4\x9a\xe0\xa5\x81\xe0\xa4\xa8\xe0\xa4\xbe\xe0\xa4\xb5:i8'
p1297
sS'posn'
p1298
S'270'
p1299
sS'name'
p1300
S'\xe0\xa4\x9a\xe0\xa5\x81\xe0\xa4\xa8\xe0\xa4\xbe\xe0\xa4\xb53'
p1301
sS'af'
p1302
S'\xe0\xa4\x9a\xe0\xa5\x81\xe0\xa4\xa8\xe0\xa4\xbe\xe0\xa4\xb5,n,m,sg,3,o,0_\xe0\xa4\x95\xe0\xa5\x87_\xe0\xa4\xa6\xe0\xa4\xb0\xe0\xa4\xae\xe0\xa5\x8d\xe0\xa4\xaf\xe0\xa4\xbe\xe0\xa4\xa8,0'
p1303
sS'chunkid'
p1304
S'NP8'
p1305
sS'crefmod'
p1306
S'm2:i8'
p1307
sS'creftype'
p1308
S'Coreference-Identity:i2'
p1309
sS'chunktype'
p1310
S'head:NP8'
p1311
sS'vpos'
p1312
S'vib_2_3'
p1313
sS'cref'
p1314
S'i8%1:t2'
p1315
sS'drel'
p1316
S'k7t:VGF2'
p1317
ssbsg34
I00
sg35
I00
sg36
Nsg37
Nsg38
I12
sg39
I1
sg40
Nsg41
Nsg42
S'NN'
p1318
sg44
g1293
sg45
I00
sba(issf_api
Word
p1319
(dp1320
g6
I00
sg7
V\u0915\u0947
p1321
sg9
(issf_api
FeatureSet
p1322
(dp1323
g12
(dp1324
S'posn'
p1325
S'280'
p1326
sS'name'
p1327
S'\xe0\xa4\x95\xe0\xa5\x874'
p1328
sS'drel'
p1329
S'lwg__psp:NP8'
p1330
sS'chunktype'
p1331
S'child:NP8'
p1332
sS'af'
p1333
S'\xe0\xa4\x95\xe0\xa5\x87,psp,,,,,,'
p1334
ssbsg34
I00
sg35
I00
sg36
Nsg37
Nsg38
I12
sg39
I1
sg40
Nsg41
Nsg42
S'PSP'
p1335
sg44
g1322
sg45
I00
sba(issf_api
Word
p1336
(dp1337
g6
I00
sg7
V\u0926\u0930\u092e\u094d\u092f\u093e\u0928
p1338
sg9
(issf_api
FeatureSet
p1339
(dp1340
g12
(dp1341
S'posn'
p1342
S'290'
p1343
sS'name'
p1344
S'\xe0\xa4\xa6\xe0\xa4\xb0\xe0\xa4\xae\xe0\xa5\x8d\xe0\xa4\xaf\xe0\xa4\xbe\xe0\xa4\xa8'
p1345
sS'drel'
p1346
S'lwg__psp:NP8'
p1347
sS'chunktype'
p1348
S'child:NP8'
p1349
sS'af'
p1350
S'\xe0\xa4\xa6\xe0\xa4\xb0\xe0\xa4\xae\xe0\xa5\x8d\xe0\xa4\xaf\xe0\xa4\xbe\xe0\xa4\xa8,nst,m,sg,3,d,,'
p1351
ssbsg34
I00
sg35
I00
sg36
Nsg37
Nsg38
I12
sg39
I1
sg40
Nsg41
Nsg42
S'NST'
p1352
sg44
g1339
sg45
I00
sba(issf_api
Word
p1353
(dp1354
g6
I00
sg7
V\u0906\u092f\u094b\u0917
p1355
sg9
(issf_api
FeatureSet
p1356
(dp1357
g12
(dp1358
S'crefhead'
p1359
S'\xe0\xa4\x86\xe0\xa4\xaf\xe0\xa5\x8b\xe0\xa4\x97:i9'
p1360
sS'posn'
p1361
S'300'
p1362
sS'name'
p1363
S'\xe0\xa4\x86\xe0\xa4\xaf\xe0\xa5\x8b\xe0\xa4\x97'
p1364
sS'af'
p1365
S'\xe0\xa4\x86\xe0\xa4\xaf\xe0\xa5\x8b\xe0\xa4\x97,n,m,sg,3,d,0,0'
p1366
sS'chunkid'
p1367
S'NP9'
p1368
sS'chunktype'
p1369
S'head:NP9'
p1370
sS'crefchainhead'
p1371
S'i9:t6'
p1372
sS'cref'
p1373
S'i9%1:t6'
p1374
sS'drel'
p1375
S'k1:VGF2'
p1376
ssbsg34
I00
sg35
I00
sg36
Nsg37
Nsg38
I13
sg39
I1
sg40
Nsg41
Nsg42
S'NN'
p1377
sg44
g1356
sg45
I00
sba(issf_api
Word
p1378
(dp1379
g6
I00
sg7
V\u0938\u0941\u0930\u0915\u094d\u0937\u093e
p1380
sg9
(issf_api
FeatureSet
p1381
(dp1382
g12
(dp1383
S'posn'
p1384
S'310'
p1385
sS'name'
p1386
S'\xe0\xa4\xb8\xe0\xa5\x81\xe0\xa4\xb0\xe0\xa4\x95\xe0\xa5\x8d\xe0\xa4\xb7\xe0\xa4\xbe'
p1387
sS'af'
p1388
S'\xe0\xa4\xb8\xe0\xa5\x81\xe0\xa4\xb0\xe0\xa4\x95\xe0\xa5\x8d\xe0\xa4\xb7\xe0\xa4\xbe,n,f,sg,3,o,0_\xe0\xa4\x95\xe0\xa4\xbe,0'
p1389
sS'chunkid'
p1390
S'NP10'
p1391
sS'drel'
p1392
S'r6-k2:NP11'
p1393
sS'vpos'
p1394
S'vib_2'
p1395
sS'chunktype'
p1396
S'head:NP10'
p1397
ssbsg34
I00
sg35
I00
sg36
Nsg37
Nsg38
I14
sg39
I1
sg40
Nsg41
Nsg42
S'NN'
p1398
sg44
g1381
sg45
I00
sba(issf_api
Word
p1399
(dp1400
g6
I00
sg7
V\u0915\u0940
p1401
sg9
(issf_api
FeatureSet
p1402
(dp1403
g12
(dp1404
S'posn'
p1405
S'320'
p1406
sS'name'
p1407
S'\xe0\xa4\x95\xe0\xa5\x80'
p1408
sS'drel'
p1409
S'lwg__psp:NP10'
p1410
sS'chunktype'
p1411
S'child:NP10'
p1412
sS'af'
p1413
S'\xe0\xa4\x95\xe0\xa4\xbe,psp,f,sg,,d,,'
p1414
ssbsg34
I00
sg35
I00
sg36
Nsg37
Nsg38
I14
sg39
I1
sg40
Nsg41
Nsg42
S'PSP'
p1415
sg44
g1402
sg45
I00
sba(issf_api
Word
p1416
(dp1417
g6
I00
sg7
V\u0915\u0921\u093c\u0940
p1418
sg9
(issf_api
FeatureSet
p1419
(dp1420
g12
(dp1421
S'posn'
p1422
S'330'
p1423
sS'name'
p1424
S'\xe0\xa4\x95\xe0\xa4\xa1\xe0\xa4\xbc\xe0\xa5\x80'
p1425
sS'drel'
p1426
S'nmod__adj:NP11'
p1427
sS'chunktype'
p1428
S'child:NP11'
p1429
sS'af'
p1430
S'\xe0\xa4\x95\xe0\xa4\xa1\xe0\xa4\xbc\xe0\xa4\xbe,adj,f,sg,,d,,'
p1431
ssbsg34
I00
sg35
I00
sg36
Nsg37
Nsg38
I15
sg39
I1
sg40
Nsg41
Nsg42
S'JJ'
p1432
sg44
g1419
sg45
I00
sba(issf_api
Word
p1433
(dp1434
g6
I00
sg7
V\u0935\u094d\u092f\u0935\u0938\u094d\u0925\u093e
p1435
sg9
(issf_api
FeatureSet
p1436
(dp1437
g12
(dp1438
S'posn'
p1439
S'340'
p1440
sS'name'
p1441
S'\xe0\xa4\xb5\xe0\xa5\x8d\xe0\xa4\xaf\xe0\xa4\xb5\xe0\xa4\xb8\xe0\xa5\x8d\xe0\xa4\xa5\xe0\xa4\xbe'
p1442
sS'af'
p1443
S'\xe0\xa4\xb5\xe0\xa5\x8d\xe0\xa4\xaf\xe0\xa4\xb5\xe0\xa4\xb8\xe0\xa5\x8d\xe0\xa4\xa5\xe0\xa4\xbe,n,f,sg,3,d,0,0'
p1444
sS'chunkid'
p1445
S'NP11'
p1446
sS'drel'
p1447
S'pof:VGF2'
p1448
sS'chunktype'
p1449
S'head:NP11'
p1450
ssbsg34
I00
sg35
I00
sg36
Nsg37
Nsg38
I15
sg39
I1
sg40
Nsg41
Nsg42
S'NN'
p1451
sg44
g1436
sg45
I00
sba(issf_api
Word
p1452
(dp1453
g6
I00
sg7
V\u0915\u0930\u0947\u0917\u093e
p1454
sg9
(issf_api
FeatureSet
p1455
(dp1456
g12
(dp1457
S'posn'
p1458
S'350'
p1459
sS'name'
p1460
S'\xe0\xa4\x95\xe0\xa4\xb0\xe0\xa5\x87\xe0\xa4\x97\xe0\xa4\xbe'
p1461
sS'af'
p1462
S'\xe0\xa4\x95\xe0\xa4\xb0,v,m,sg,3,,\xe0\xa4\x97\xe0\xa4\xbe,gA'
p1463
sS'chunkid'
p1464
S'VGF2'
p1465
sS'stype'
p1466
S'declarative'
p1467
sS'drel'
p1468
S'ccof:CCP'
p1469
sS'voicetype'
p1470
S'active'
p1471
sS'chunktype'
p1472
S'head:VGF2'
p1473
ssbsg34
I00
sg35
I00
sg36
Nsg37
Nsg38
I16
sg39
I1
sg40
Nsg41
Nsg42
S'VM'
p1474
sg44
g1455
sg45
I00
sba(issf_api
Word
p1475
(dp1476
g6
I00
sg7
V\u0964
p1477
sg9
(issf_api
FeatureSet
p1478
(dp1479
g12
(dp1480
S'posn'
p1481
S'360'
p1482
sS'name'
p1483
S'\xe0\xa5\xa4'
p1484
sS'af'
p1485
S'\xe0\xa5\xa4,punc,,,,,,'
p1486
sS'chunkid'
p1487
S'BLK'
p1488
sS'drel'
p1489
S'rsym:VGF'
p1490
sS'chunktype'
p1491
S'head:BLK'
p1492
ssbsg34
I00
sg35
I00
sg36
Nsg37
Nsg38
I17
sg39
I1
sg40
Nsg41
Nsg42
S'SYM'
p1493
sg44
g1478
sg45
I00
sba(issf_api
Word
p1494
(dp1495
g6
I00
sg7
V\u0924\u0940\u0938\u0930\u0947
p1496
sg9
(issf_api
FeatureSet
p1497
(dp1498
g12
(dp1499
S'posn'
p1500
S'10'
p1501
sS'name'
p1502
S'\xe0\xa4\xa4\xe0\xa5\x80\xe0\xa4\xb8\xe0\xa4\xb0\xe0\xa5\x87'
p1503
sS'drel'
p1504
S'nmod__adj:NP'
p1505
sS'chunktype'
p1506
S'child:NP'
p1507
sS'af'
p1508
S'\xe0\xa4\xa4\xe0\xa5\x80\xe0\xa4\xb8\xe0\xa4\xb0\xe0\xa4\xbe,num,m,sg,,o,,'
p1509
ssbsg34
I00
sg35
I00
sg36
Nsg37
Nsg38
I0
sg39
I2
sg40
Nsg41
Nsg42
S'QO'
p1510
sg44
g1497
sg45
I00
sba(issf_api
Word
p1511
(dp1512
g6
I00
sg7
V\u091a\u0930\u0923
p1513
sg9
(issf_api
FeatureSet
p1514
(dp1515
g12
(dp1516
S'posn'
p1517
S'20'
p1518
sS'name'
p1519
S'\xe0\xa4\x9a\xe0\xa4\xb0\xe0\xa4\xa3'
p1520
sS'af'
p1521
S'\xe0\xa4\x9a\xe0\xa4\xb0\xe0\xa4\xa3,n,m,sg,3,o,0_\xe0\xa4\x95\xe0\xa4\xbe,0'
p1522
sS'chunkid'
p1523
S'NP'
p1524
sS'drel'
p1525
S'r6:NP2'
p1526
sS'vpos'
p1527
S'vib_3'
p1528
sS'chunktype'
p1529
S'head:NP'
p1530
ssbsg34
I00
sg35
I00
sg36
Nsg37
Nsg38
I0
sg39
I2
sg40
Nsg41
Nsg42
S'NN'
p1531
sg44
g1514
sg45
I00
sba(issf_api
Word
p1532
(dp1533
g6
I00
sg7
V\u0915\u0947
p1534
sg9
(issf_api
FeatureSet
p1535
(dp1536
g12
(dp1537
S'posn'
p1538
S'30'
p1539
sS'name'
p1540
S'\xe0\xa4\x95\xe0\xa5\x87'
p1541
sS'drel'
p1542
S'lwg__psp:NP'
p1543
sS'chunktype'
p1544
S'child:NP'
p1545
sS'af'
p1546
S'\xe0\xa4\x95\xe0\xa4\xbe,psp,m,sg,,o,,'
p1547
ssbsg34
I00
sg35
I00
sg36
Nsg37
Nsg38
I0
sg39
I2
sg40
Nsg41
Nsg42
S'PSP'
p1548
sg44
g1535
sg45
I00
sba(issf_api
Word
p1549
(dp1550
g6
I00
sg7
V\u092e\u0924\u0926\u093e\u0928
p1551
sg9
(issf_api
FeatureSet
p1552
(dp1553
g12
(dp1554
S'posn'
p1555
S'40'
p1556
sS'name'
p1557
S'\xe0\xa4\xae\xe0\xa4\xa4\xe0\xa4\xa6\xe0\xa4\xbe\xe0\xa4\xa8'
p1558
sS'af'
p1559
S'\xe0\xa4\xae\xe0\xa4\xa4\xe0\xa4\xa6\xe0\xa4\xbe\xe0\xa4\xa8,n,m,sg,3,o,0_\xe0\xa4\x95\xe0\xa5\x87_\xe0\xa4\xa6\xe0\xa5\x8c\xe0\xa4\xb0\xe0\xa4\xbe\xe0\xa4\xa8,0'
p1560
sS'chunkid'
p1561
S'NP2'
p1562
sS'drel'
p1563
S'k7t:VGNF'
p1564
sS'vpos'
p1565
S'vib_2_3'
p1566
sS'chunktype'
p1567
S'head:NP2'
p1568
ssbsg34
I00
sg35
I00
sg36
Nsg37
Nsg38
I1
sg39
I2
sg40
Nsg41
Nsg42
S'NN'
p1569
sg44
g1552
sg45
I00
sba(issf_api
Word
p1570
(dp1571
g6
I00
sg7
V\u0915\u0947
p1572
sg9
(issf_api
FeatureSet
p1573
(dp1574
g12
(dp1575
S'posn'
p1576
S'50'
p1577
sS'name'
p1578
S'\xe0\xa4\x95\xe0\xa5\x872'
p1579
sS'drel'
p1580
S'lwg__psp:NP2'
p1581
sS'chunktype'
p1582
S'child:NP2'
p1583
sS'af'
p1584
S'\xe0\xa4\x95\xe0\xa5\x87,psp,,,,,,'
p1585
ssbsg34
I00
sg35
I00
sg36
Nsg37
Nsg38
I1
sg39
I2
sg40
Nsg41
Nsg42
S'PSP'
p1586
sg44
g1573
sg45
I00
sba(issf_api
Word
p1587
(dp1588
g6
I00
sg7
V\u0926\u094c\u0930\u093e\u0928
p1589
sg9
(issf_api
FeatureSet
p1590
(dp1591
g12
(dp1592
S'posn'
p1593
S'60'
p1594
sS'name'
p1595
S'\xe0\xa4\xa6\xe0\xa5\x8c\xe0\xa4\xb0\xe0\xa4\xbe\xe0\xa4\xa8'
p1596
sS'drel'
p1597
S'lwg__psp:NP2'
p1598
sS'chunktype'
p1599
S'child:NP2'
p1600
sS'af'
p1601
S'\xe0\xa4\xa6\xe0\xa5\x8c\xe0\xa4\xb0\xe0\xa4\xbe\xe0\xa4\xa8,nst,m,sg,3,d,,'
p1602
ssbsg34
I00
sg35
I00
sg36
Nsg37
Nsg38
I1
sg39
I2
sg40
Nsg41
Nsg42
S'NST'
p1603
sg44
g1590
sg45
I00
sba(issf_api
Word
p1604
(dp1605
g6
I00
sg7
V\u0928\u0947\u092a\u093e\u0932
p1606
sg9
(issf_api
FeatureSet
p1607
(dp1608
g12
(dp1609
S'crefhead'
p1610
S'\xe0\xa4\xa8\xe0\xa5\x87\xe0\xa4\xaa\xe0\xa4\xbe\xe0\xa4\xb2:i10'
p1611
sS'posn'
p1612
S'70'
p1613
sS'name'
p1614
S'\xe0\xa4\xa8\xe0\xa5\x87\xe0\xa4\xaa\xe0\xa4\xbe\xe0\xa4\xb2'
p1615
sS'af'
p1616
S'\xe0\xa4\xa8\xe0\xa5\x87\xe0\xa4\xaa\xe0\xa4\xbe\xe0\xa4\xb2,n,m,sg,3,o,0_\xe0\xa4\xb8\xe0\xa5\x87,0'
p1617
sS'chunkid'
p1618
S'NP3'
p1619
sS'creftype'
p1620
S'Coreference-Identity:i4'
p1621
sS'chunktype'
p1622
S'head:NP3'
p1623
sS'vpos'
p1624
S'vib_2'
p1625
sS'cref'
p1626
S'i10%1:t4,i11%0:t7'
p1627
sS'drel'
p1628
S'k2:VGNF'
p1629
ssbsg34
I00
sg35
I00
sg36
Nsg37
Nsg38
I2
sg39
I2
sg40
Nsg41
Nsg42
S'NNP'
p1630
sg44
g1607
sg45
I00
sba(issf_api
Word
p1631
(dp1632
g6
I00
sg7
V\u0938\u0947
p1633
sg9
(issf_api
FeatureSet
p1634
(dp1635
g12
(dp1636
S'posn'
p1637
S'80'
p1638
sS'name'
p1639
S'\xe0\xa4\xb8\xe0\xa5\x87'
p1640
sS'af'
p1641
S'\xe0\xa4\xb8\xe0\xa5\x87,psp,,,,,,'
p1642
sS'drel'
p1643
S'lwg__psp:NP3'
p1644
sS'chunktype'
p1645
S'child:NP3'
p1646
sS'cref'
p1647
S'i11%0:t7'
p1648
ssbsg34
I00
sg35
I00
sg36
Nsg37
Nsg38
I2
sg39
I2
sg40
Nsg41
Nsg42
S'PSP'
p1649
sg44
g1634
sg45
I00
sba(issf_api
Word
p1650
(dp1651
g6
I00
sg7
V\u0938\u091f\u0947
p1652
sg9
(issf_api
FeatureSet
p1653
(dp1654
g12
(dp1655
S'posn'
p1656
S'90'
p1657
sS'name'
p1658
S'\xe0\xa4\xb8\xe0\xa4\x9f\xe0\xa5\x87'
p1659
sS'af'
p1660
S'\xe0\xa4\xb8\xe0\xa4\x9f,v,m,pl,any,,\xe0\xa4\xaf\xe0\xa4\xbe,yA'
p1661
sS'chunkid'
p1662
S'VGNF'
p1663
sS'drel'
p1664
S'nmod__k1inv:NP4'
p1665
sS'chunktype'
p1666
S'head:VGNF'
p1667
sS'cref'
p1668
S'i11%0:t7'
p1669
ssbsg34
I00
sg35
I00
sg36
Nsg37
Nsg38
I3
sg39
I2
sg40
Nsg41
Nsg42
S'VM'
p1670
sg44
g1653
sg45
I00
sba(issf_api
Word
p1671
(dp1672
g6
I00
sg7
V\u0935\u093f\u0927\u093e\u0928\u0938\u092d\u093e
p1673
sg9
(issf_api
FeatureSet
p1674
(dp1675
g12
(dp1676
S'posn'
p1677
S'100'
p1678
sS'name'
p1679
S'\xe0\xa4\xb5\xe0\xa4\xbf\xe0\xa4\xa7\xe0\xa4\xbe\xe0\xa4\xa8\xe0\xa4\xb8\xe0\xa4\xad\xe0\xa4\xbe'
p1680
sS'af'
p1681
S'\xe0\xa4\xb5\xe0\xa4\xbf\xe0\xa4\xa7\xe0\xa4\xbe\xe0\xa4\xa8\xe0\xa4\xb8\xe0\xa4\xad\xe0\xa4\xbe,n,f,sg,3,d,0,0'
p1682
sS'drel'
p1683
S'pof__cn:NP4'
p1684
sS'chunktype'
p1685
S'child:NP4'
p1686
sS'cref'
p1687
S'i11%0:t7'
p1688
ssbsg34
I00
sg35
I00
sg36
Nsg37
Nsg38
I4
sg39
I2
sg40
Nsg41
Nsg42
S'NNC'
p1689
sg44
g1674
sg45
I00
sba(issf_api
Word
p1690
(dp1691
g6
I00
sg7
V\u0915\u094d\u0937\u0947\u0924\u094d\u0930\u094b\u0902
p1692
sg9
(issf_api
FeatureSet
p1693
(dp1694
g12
(dp1695
S'crefhead'
p1696
S'\xe0\xa4\x95\xe0\xa5\x8d\xe0\xa4\xb7\xe0\xa5\x87\xe0\xa4\xa4\xe0\xa5\x8d\xe0\xa4\xb0\xe0\xa5\x8b\xe0\xa4\x82:i11'
p1697
sS'posn'
p1698
S'110'
p1699
sS'name'
p1700
S'\xe0\xa4\x95\xe0\xa5\x8d\xe0\xa4\xb7\xe0\xa5\x87\xe0\xa4\xa4\xe0\xa5\x8d\xe0\xa4\xb0\xe0\xa5\x8b\xe0\xa4\x82'
p1701
sS'af'
p1702
S'\xe0\xa4\x95\xe0\xa5\x8d\xe0\xa4\xb7\xe0\xa5\x87\xe0\xa4\xa4\xe0\xa5\x8d\xe0\xa4\xb0,n,m,pl,3,o,0_\xe0\xa4\xae\xe0\xa5\x87\xe0\xa4\x82,0'
p1703
sS'chunkid'
p1704
S'NP4'
p1705
sS'chunktype'
p1706
S'head:NP4'
p1707
sS'crefchainhead'
p1708
S'i11:t7'
p1709
sS'vpos'
p1710
S'vib_3'
p1711
sS'cref'
p1712
S'i11%1:t7'
p1713
sS'drel'
p1714
S'k7p:VGF'
p1715
ssbsg34
I00
sg35
I00
sg36
Nsg37
Nsg38
I4
sg39
I2
sg40
Nsg41
Nsg42
S'NN'
p1716
sg44
g1693
sg45
I00
sba(issf_api
Word
p1717
(dp1718
g6
I00
sg7
V\u092e\u0947\u0902
p1719
sg9
(issf_api
FeatureSet
p1720
(dp1721
g12
(dp1722
S'posn'
p1723
S'120'
p1724
sS'name'
p1725
S'\xe0\xa4\xae\xe0\xa5\x87\xe0\xa4\x82'
p1726
sS'drel'
p1727
S'lwg__psp:NP4'
p1728
sS'chunktype'
p1729
S'child:NP4'
p1730
sS'af'
p1731
S'\xe0\xa4\xae\xe0\xa5\x87\xe0\xa4\x82,psp,,,,,,'
p1732
ssbsg34
I00
sg35
I00
sg36
Nsg37
Nsg38
I4
sg39
I2
sg40
Nsg41
Nsg42
S'PSP'
p1733
sg44
g1720
sg45
I00
sba(issf_api
Word
p1734
(dp1735
g6
I00
sg7
V\u092c\u0921\u093c\u0947
p1736
sg9
(issf_api
FeatureSet
p1737
(dp1738
g12
(dp1739
S'posn'
p1740
S'130'
p1741
sS'name'
p1742
S'\xe0\xa4\xac\xe0\xa4\xa1\xe0\xa4\xbc\xe0\xa5\x87'
p1743
sS'drel'
p1744
S'nmod__adj:NP5'
p1745
sS'chunktype'
p1746
S'child:NP5'
p1747
sS'af'
p1748
S'\xe0\xa4\xac\xe0\xa4\xa1\xe0\xa4\xbc\xe0\xa4\xbe,adj,m,sg,,o,,'
p1749
ssbsg34
I00
sg35
I00
sg36
Nsg37
Nsg38
I5
sg39
I2
sg40
Nsg41
Nsg42
S'JJ'
p1750
sg44
g1737
sg45
I00
sba(issf_api
Word
p1751
(dp1752
g6
I00
sg7
V\u092a\u0948\u092e\u093e\u0928\u0947
p1753
sg9
(issf_api
FeatureSet
p1754
(dp1755
g12
(dp1756
S'posn'
p1757
S'140'
p1758
sS'name'
p1759
S'\xe0\xa4\xaa\xe0\xa5\x88\xe0\xa4\xae\xe0\xa4\xbe\xe0\xa4\xa8\xe0\xa5\x87'
p1760
sS'af'
p1761
S'\xe0\xa4\xaa\xe0\xa5\x88\xe0\xa4\xae\xe0\xa4\xbe\xe0\xa4\xa8\xe0\xa4\xbe,n,m,sg,3,o,0_\xe0\xa4\xaa\xe0\xa4\xb0,0'
p1762
sS'chunkid'
p1763
S'NP5'
p1764
sS'drel'
p1765
S'k7:VGF'
p1766
sS'vpos'
p1767
S'vib_3'
p1768
sS'chunktype'
p1769
S'head:NP5'
p1770
ssbsg34
I00
sg35
I00
sg36
Nsg37
Nsg38
I5
sg39
I2
sg40
Nsg41
Nsg42
S'NN'
p1771
sg44
g1754
sg45
I00
sba(issf_api
Word
p1772
(dp1773
g6
I00
sg7
V\u092a\u0930
p1774
sg9
(issf_api
FeatureSet
p1775
(dp1776
g12
(dp1777
S'posn'
p1778
S'150'
p1779
sS'name'
p1780
S'\xe0\xa4\xaa\xe0\xa4\xb0'
p1781
sS'drel'
p1782
S'lwg__psp:NP5'
p1783
sS'chunktype'
p1784
S'child:NP5'
p1785
sS'af'
p1786
S'\xe0\xa4\xaa\xe0\xa4\xb0,psp,,,,,,'
p1787
ssbsg34
I00
sg35
I00
sg36
Nsg37
Nsg38
I5
sg39
I2
sg40
Nsg41
Nsg42
S'PSP'
p1788
sg44
g1775
sg45
I00
sba(issf_api
Word
p1789
(dp1790
g6
I00
sg7
V\u0939\u093f\u0902\u0938\u093e
p1791
sg9
(issf_api
FeatureSet
p1792
(dp1793
g12
(dp1794
S'posn'
p1795
S'160'
p1796
sS'name'
p1797
S'\xe0\xa4\xb9\xe0\xa4\xbf\xe0\xa4\x82\xe0\xa4\xb8\xe0\xa4\xbe'
p1798
sS'af'
p1799
S'\xe0\xa4\xb9\xe0\xa4\xbf\xe0\xa4\x82\xe0\xa4\xb8\xe0\xa4\xbe,n,f,sg,3,o,0_\xe0\xa4\x95\xe0\xa4\xbe,0'
p1800
sS'chunkid'
p1801
S'NP6'
p1802
sS'drel'
p1803
S'r6:NP7'
p1804
sS'vpos'
p1805
S'vib_2'
p1806
sS'chunktype'
p1807
S'head:NP6'
p1808
ssbsg34
I00
sg35
I00
sg36
Nsg37
Nsg38
I6
sg39
I2
sg40
Nsg41
Nsg42
S'NN'
p1809
sg44
g1792
sg45
I00
sba(issf_api
Word
p1810
(dp1811
g6
I00
sg7
V\u0915\u0940
p1812
sg9
(issf_api
FeatureSet
p1813
(dp1814
g12
(dp1815
S'posn'
p1816
S'170'
p1817
sS'name'
p1818
S'\xe0\xa4\x95\xe0\xa5\x80'
p1819
sS'drel'
p1820
S'lwg__psp:NP6'
p1821
sS'chunktype'
p1822
S'child:NP6'
p1823
sS'af'
p1824
S'\xe0\xa4\x95\xe0\xa4\xbe,psp,f,sg,,d,,'
p1825
ssbsg34
I00
sg35
I00
sg36
Nsg37
Nsg38
I6
sg39
I2
sg40
Nsg41
Nsg42
S'PSP'
p1826
sg44
g1813
sg45
I00
sba(issf_api
Word
p1827
(dp1828
g6
I00
sg7
V\u0906\u0902\u0936\u0915\u093e
p1829
sg9
(issf_api
FeatureSet
p1830
(dp1831
g12
(dp1832
S'posn'
p1833
S'180'
p1834
sS'name'
p1835
S'\xe0\xa4\x86\xe0\xa4\x82\xe0\xa4\xb6\xe0\xa4\x95\xe0\xa4\xbe'
p1836
sS'af'
p1837
S'\xe0\xa4\x86\xe0\xa4\x82\xe0\xa4\xb6\xe0\xa4\x95\xe0\xa4\xbe,n,f,sg,3,d,0,0'
p1838
sS'chunkid'
p1839
S'NP7'
p1840
sS'drel'
p1841
S'k2:VGF'
p1842
sS'chunktype'
p1843
S'head:NP7'
p1844
ssbsg34
I00
sg35
I00
sg36
Nsg37
Nsg38
I7
sg39
I2
sg40
Nsg41
Nsg42
S'NN'
p1845
sg44
g1830
sg45
I00
sba(issf_api
Word
p1846
(dp1847
g6
I00
sg7
V\u091c\u0924\u093e\u0908
p1848
sg9
(issf_api
FeatureSet
p1849
(dp1850
g12
(dp1851
S'posn'
p1852
S'190'
p1853
sS'name'
p1854
S'\xe0\xa4\x9c\xe0\xa4\xa4\xe0\xa4\xbe\xe0\xa4\x88'
p1855
sS'af'
p1856
S'\xe0\xa4\x9c\xe0\xa4\xa4\xe0\xa4\xbe,v,f,sg,3,,\xe0\xa4\xaf\xe0\xa4\xbe_\xe0\xa4\x9c\xe0\xa4\xbe_\xe0\xa4\xb0\xe0\xa4\xb9+\xe0\xa4\xaf\xe0\xa4\xbe_\xe0\xa4\xb9\xe0\xa5\x88,yA'
p1857
sS'chunkid'
p1858
S'VGF'
p1859
sS'chunktype'
p1860
S'head:VGF'
p1861
sS'voicetype'
p1862
S'passive'
p1863
sS'vpos'
p1864
S'tam_2_3_4'
p1865
sS'stype'
p1866
S'declarative'
p1867
ssbsg34
I00
sg35
I00
sg36
Nsg37
Nsg38
I8
sg39
I2
sg40
Nsg41
Nsg42
S'VM'
p1868
sg44
g1849
sg45
I00
sba(issf_api
Word
p1869
(dp1870
g6
I00
sg7
V\u091c\u093e
p1871
sg9
(issf_api
FeatureSet
p1872
(dp1873
g12
(dp1874
S'posn'
p1875
S'200'
p1876
sS'name'
p1877
S'\xe0\xa4\x9c\xe0\xa4\xbe'
p1878
sS'drel'
p1879
S'lwg__vaux:VGF'
p1880
sS'chunktype'
p1881
S'child:VGF'
p1882
sS'af'
p1883
S'\xe0\xa4\x9c\xe0\xa4\xbe,v,any,any,any,,0,0'
p1884
ssbsg34
I00
sg35
I00
sg36
Nsg37
Nsg38
I8
sg39
I2
sg40
Nsg41
Nsg42
S'VAUX'
p1885
sg44
g1872
sg45
I00
sba(issf_api
Word
p1886
(dp1887
g6
I00
sg7
V\u0930\u0939\u0940
p1888
sg9
(issf_api
FeatureSet
p1889
(dp1890
g12
(dp1891
S'posn'
p1892
S'210'
p1893
sS'name'
p1894
S'\xe0\xa4\xb0\xe0\xa4\xb9\xe0\xa5\x80'
p1895
sS'drel'
p1896
S'lwg__vaux:VGF'
p1897
sS'chunktype'
p1898
S'child:VGF'
p1899
sS'af'
p1900
S'\xe0\xa4\xb0\xe0\xa4\xb9,v,f,sg,any,,\xe0\xa4\xaf\xe0\xa4\xbe,yA'
p1901
ssbsg34
I00
sg35
I00
sg36
Nsg37
Nsg38
I8
sg39
I2
sg40
Nsg41
Nsg42
S'VAUX'
p1902
sg44
g1889
sg45
I00
sba(issf_api
Word
p1903
(dp1904
g6
I00
sg7
V\u0939\u0948
p1905
sg9
(issf_api
FeatureSet
p1906
(dp1907
g12
(dp1908
S'posn'
p1909
S'220'
p1910
sS'name'
p1911
S'\xe0\xa4\xb9\xe0\xa5\x88'
p1912
sS'drel'
p1913
S'lwg__vaux:VGF'
p1914
sS'chunktype'
p1915
S'child:VGF'
p1916
sS'af'
p1917
S'\xe0\xa4\xb9\xe0\xa5\x88,v,any,sg,3,,\xe0\xa4\xb9\xe0\xa5\x88,hE'
p1918
ssbsg34
I00
sg35
I00
sg36
Nsg37
Nsg38
I8
sg39
I2
sg40
Nsg41
Nsg42
S'VAUX'
p1919
sg44
g1906
sg45
I00
sba(issf_api
Word
p1920
(dp1921
g6
I00
sg7
V\u0964
p1922
sg9
(issf_api
FeatureSet
p1923
(dp1924
g12
(dp1925
S'posn'
p1926
S'230'
p1927
sS'name'
p1928
S'\xe0\xa5\xa4'
p1929
sS'af'
p1930
S'\xe0\xa5\xa4,punc,,,,,,'
p1931
sS'chunkid'
p1932
S'BLK'
p1933
sS'drel'
p1934
S'rsym:VGF'
p1935
sS'chunktype'
p1936
S'head:BLK'
p1937
ssbsg34
I00
sg35
I00
sg36
Nsg37
Nsg38
I9
sg39
I2
sg40
Nsg41
Nsg42
S'SYM'
p1938
sg44
g1923
sg45
I00
sba(issf_api
Word
p1939
(dp1940
g6
I00
sg7
V\u092f\u0939
p1941
sg9
(issf_api
FeatureSet
p1942
(dp1943
g12
(dp1944
S'crefhead'
p1945
S'\xe0\xa4\xaf\xe0\xa4\xb9:i12'
p1946
sS'posn'
p1947
S'10'
p1948
sS'name'
p1949
S'\xe0\xa4\xaf\xe0\xa4\xb9'
p1950
sS'af'
p1951
S'\xe0\xa4\xaf\xe0\xa4\xb9,pn,any,sg,3,d,0,0'
p1952
sS'chunkid'
p1953
S'NP'
p1954
sS'chunktype'
p1955
S'head:NP'
p1956
sS'crefchainhead'
p1957
S'i12:t8'
p1958
sS'cref'
p1959
S'i12%1:t8'
p1960
sS'drel'
p1961
S'k1:VGF'
p1962
ssbsg34
I00
sg35
I00
sg36
Nsg37
Nsg38
I0
sg39
I3
sg40
Nsg41
Nsg42
S'PRP'
p1963
sg44
g1942
sg45
I00
sba(issf_api
Word
p1964
(dp1965
g6
I00
sg7
V\u092a\u094d\u0930\u0936\u093e\u0938\u0928
p1966
sg9
(issf_api
FeatureSet
p1967
(dp1968
g12
(dp1969
S'posn'
p1970
S'20'
p1971
sS'name'
p1972
S'\xe0\xa4\xaa\xe0\xa5\x8d\xe0\xa4\xb0\xe0\xa4\xb6\xe0\xa4\xbe\xe0\xa4\xb8\xe0\xa4\xa8'
p1973
sS'af'
p1974
S'\xe0\xa4\xaa\xe0\xa5\x8d\xe0\xa4\xb0\xe0\xa4\xb6\xe0\xa4\xbe\xe0\xa4\xb8\xe0\xa4\xa8,n,m,sg,3,d,0,0'
p1975
sS'chunkid'
p1976
S'NP2'
p1977
sS'drel'
p1978
S'ccof:CCP'
p1979
sS'chunktype'
p1980
S'head:NP2'
p1981
ssbsg34
I00
sg35
I00
sg36
Nsg37
Nsg38
I1
sg39
I3
sg40
Nsg41
Nsg42
S'NN'
p1982
sg44
g1967
sg45
I00
sba(issf_api
Word
p1983
(dp1984
g6
I00
sg7
V\u0914\u0930
p1985
sg9
(issf_api
FeatureSet
p1986
(dp1987
g12
(dp1988
S'posn'
p1989
S'30'
p1990
sS'name'
p1991
S'\xe0\xa4\x94\xe0\xa4\xb0'
p1992
sS'af'
p1993
S'\xe0\xa4\x94\xe0\xa4\xb0,avy,,,,,,'
p1994
sS'chunkid'
p1995
S'CCP'
p1996
sS'drel'
p1997
S'rs:NP4'
p1998
sS'chunktype'
p1999
S'head:CCP'
p2000
ssbsg34
I00
sg35
I00
sg36
Nsg37
Nsg38
I2
sg39
I3
sg40
Nsg41
Nsg42
S'CC'
p2001
sg44
g1986
sg45
I00
sba(issf_api
Word
p2002
(dp2003
g6
I00
sg7
V\u0906\u092f\u094b\u0917
p2004
sg9
(issf_api
FeatureSet
p2005
(dp2006
g12
(dp2007
S'crefhead'
p2008
S'\xe0\xa4\x86\xe0\xa4\xaf\xe0\xa5\x8b\xe0\xa4\x97:i13'
p2009
sS'posn'
p2010
S'40'
p2011
sS'name'
p2012
S'\xe0\xa4\x86\xe0\xa4\xaf\xe0\xa5\x8b\xe0\xa4\x97'
p2013
sS'af'
p2014
S'\xe0\xa4\x86\xe0\xa4\xaf\xe0\xa5\x8b\xe0\xa4\x97,n,m,sg,3,d,0,0'
p2015
sS'chunkid'
p2016
S'NP3'
p2017
sS'creftype'
p2018
S'Coreference-Identity:i9'
p2019
sS'chunktype'
p2020
S'head:NP3'
p2021
sS'cref'
p2022
S'i13%1:t6'
p2023
sS'drel'
p2024
S'ccof:CCP'
p2025
ssbsg34
I00
sg35
I00
sg36
Nsg37
Nsg38
I3
sg39
I3
sg40
Nsg41
Nsg42
S'NN'
p2026
sg44
g2005
sg45
I00
sba(issf_api
Word
p2027
(dp2028
g6
I00
sg7
V\u0926\u094b\u0928\u094b\u0902
p2029
sg9
(issf_api
FeatureSet
p2030
(dp2031
g12
(dp2032
S'posn'
p2033
S'50'
p2034
sS'name'
p2035
S'\xe0\xa4\xa6\xe0\xa5\x8b\xe0\xa4\xa8\xe0\xa5\x8b\xe0\xa4\x82'
p2036
sS'af'
p2037
S'\xe0\xa4\xa6\xe0\xa5\x8b,n,m,pl,3,o,0_\xe0\xa4\x95\xe0\xa5\x87_\xe0\xa4\xb2\xe0\xa4\xbf\xe0\xa4\x8f,0'
p2038
sS'chunkid'
p2039
S'NP4'
p2040
sS'drel'
p2041
S'rt:VGF'
p2042
sS'vpos'
p2043
S'vib_2_3'
p2044
sS'chunktype'
p2045
S'head:NP4'
p2046
ssbsg34
I00
sg35
I00
sg36
Nsg37
Nsg38
I4
sg39
I3
sg40
Nsg41
Nsg42
S'NN'
p2047
sg44
g2030
sg45
I00
sba(issf_api
Word
p2048
(dp2049
g6
I00
sg7
V\u0915\u0947
p2050
sg9
(issf_api
FeatureSet
p2051
(dp2052
g12
(dp2053
S'posn'
p2054
S'60'
p2055
sS'name'
p2056
S'\xe0\xa4\x95\xe0\xa5\x87'
p2057
sS'drel'
p2058
S'lwg__psp:NP4'
p2059
sS'chunktype'
p2060
S'child:NP4'
p2061
sS'af'
p2062
S'\xe0\xa4\x95\xe0\xa5\x87,psp,,,,,,'
p2063
ssbsg34
I00
sg35
I00
sg36
Nsg37
Nsg38
I4
sg39
I3
sg40
Nsg41
Nsg42
S'PSP'
p2064
sg44
g2051
sg45
I00
sba(issf_api
Word
p2065
(dp2066
g6
I00
sg7
V\u0932\u093f\u090f
p2067
sg9
(issf_api
FeatureSet
p2068
(dp2069
g12
(dp2070
S'posn'
p2071
S'70'
p2072
sS'name'
p2073
S'\xe0\xa4\xb2\xe0\xa4\xbf\xe0\xa4\x8f'
p2074
sS'drel'
p2075
S'lwg__psp:NP4'
p2076
sS'chunktype'
p2077
S'child:NP4'
p2078
sS'af'
p2079
S'\xe0\xa4\xb2\xe0\xa4\xbf\xe0\xa4\x8f,psp,,,,,,'
p2080
ssbsg34
I00
sg35
I00
sg36
Nsg37
Nsg38
I4
sg39
I3
sg40
Nsg41
Nsg42
S'PSP'
p2081
sg44
g2068
sg45
I00
sba(issf_api
Word
p2082
(dp2083
g6
I00
sg7
V\u091a\u0941\u0928\u094c\u0924\u0940
p2084
sg9
(issf_api
FeatureSet
p2085
(dp2086
g12
(dp2087
S'posn'
p2088
S'80'
p2089
sS'name'
p2090
S'\xe0\xa4\x9a\xe0\xa5\x81\xe0\xa4\xa8\xe0\xa5\x8c\xe0\xa4\xa4\xe0\xa5\x80'
p2091
sS'af'
p2092
S'\xe0\xa4\x9a\xe0\xa5\x81\xe0\xa4\xa8\xe0\xa5\x8c\xe0\xa4\xa4\xe0\xa5\x80,n,f,sg,3,d,0,0'
p2093
sS'chunkid'
p2094
S'NP5'
p2095
sS'drel'
p2096
S'k1s:VGF'
p2097
sS'chunktype'
p2098
S'head:NP5'
p2099
ssbsg34
I00
sg35
I00
sg36
Nsg37
Nsg38
I5
sg39
I3
sg40
Nsg41
Nsg42
S'NN'
p2100
sg44
g2085
sg45
I00
sba(issf_api
Word
p2101
(dp2102
g6
I00
sg7
V\u0939\u0948
p2103
sg9
(issf_api
FeatureSet
p2104
(dp2105
g12
(dp2106
S'posn'
p2107
S'90'
p2108
sS'name'
p2109
S'\xe0\xa4\xb9\xe0\xa5\x88'
p2110
sS'af'
p2111
S'\xe0\xa4\xb9\xe0\xa5\x88,v,any,sg,3,,\xe0\xa4\xb9\xe0\xa5\x88,hE'
p2112
sS'chunkid'
p2113
S'VGF'
p2114
sS'chunktype'
p2115
S'head:VGF'
p2116
sS'voicetype'
p2117
S'active'
p2118
sS'stype'
p2119
S'declarative'
p2120
ssbsg34
I00
sg35
I00
sg36
Nsg37
Nsg38
I6
sg39
I3
sg40
Nsg41
Nsg42
S'VM'
p2121
sg44
g2104
sg45
I00
sba(issf_api
Word
p2122
(dp2123
g6
I00
sg7
V\u0964
p2124
sg9
(issf_api
FeatureSet
p2125
(dp2126
g12
(dp2127
S'posn'
p2128
S'100'
p2129
sS'name'
p2130
S'\xe0\xa5\xa4'
p2131
sS'af'
p2132
S'\xe0\xa5\xa4,punc,,,,,,'
p2133
sS'chunkid'
p2134
S'BLK'
p2135
sS'drel'
p2136
S'rsym:VGF'
p2137
sS'chunktype'
p2138
S'head:BLK'
p2139
ssbsg34
I00
sg35
I00
sg36
Nsg37
Nsg38
I7
sg39
I3
sg40
Nsg41
Nsg42
S'SYM'
p2140
sg44
g2125
sg45
I00
sba(issf_api
Word
p2141
(dp2142
g6
I00
sg7
V\u0930\u093e\u091c\u094d\u092f
p2143
sg9
(issf_api
FeatureSet
p2144
(dp2145
g12
(dp2146
S'crefhead'
p2147
S'\xe0\xa4\xb0\xe0\xa4\xbe\xe0\xa4\x9c\xe0\xa5\x8d\xe0\xa4\xaf:i14'
p2148
sS'posn'
p2149
S'10'
p2150
sS'name'
p2151
S'\xe0\xa4\xb0\xe0\xa4\xbe\xe0\xa4\x9c\xe0\xa5\x8d\xe0\xa4\xaf'
p2152
sS'af'
p2153
S'\xe0\xa4\xb0\xe0\xa4\xbe\xe0\xa4\x9c\xe0\xa5\x8d\xe0\xa4\xaf,n,m,sg,3,o,0_\xe0\xa4\x95\xe0\xa4\xbe,0'
p2154
sS'chunkid'
p2155
S'NP'
p2156
sS'creftype'
p2157
S'Coreference-Noun-Noun:i5'
p2158
sS'chunktype'
p2159
S'head:NP'
p2160
sS'vpos'
p2161
S'vib_2'
p2162
sS'cref'
p2163
S'i14%1:t1'
p2164
sS'drel'
p2165
S'r6:NP2'
p2166
ssbsg34
I00
sg35
I00
sg36
Nsg37
Nsg38
I0
sg39
I4
sg40
Nsg41
Nsg42
S'NN'
p2167
sg44
g2144
sg45
I00
sba(issf_api
Word
p2168
(dp2169
g6
I00
sg7
V\u0915\u0947
p2170
sg9
(issf_api
FeatureSet
p2171
(dp2172
g12
(dp2173
S'posn'
p2174
S'20'
p2175
sS'name'
p2176
S'\xe0\xa4\x95\xe0\xa5\x87'
p2177
sS'drel'
p2178
S'lwg__psp:NP'
p2179
sS'chunktype'
p2180
S'child:NP'
p2181
sS'af'
p2182
S'\xe0\xa4\x95\xe0\xa4\xbe,psp,m,sg,,o,,'
p2183
ssbsg34
I00
sg35
I00
sg36
Nsg37
Nsg38
I0
sg39
I4
sg40
Nsg41
Nsg42
S'PSP'
p2184
sg44
g2171
sg45
I00
sba(issf_api
Word
p2185
(dp2186
g6
I00
sg7
V\u0917\u0943\u0939
p2187
sg9
(issf_api
FeatureSet
p2188
(dp2189
g12
(dp2190
S'posn'
p2191
S'30'
p2192
sS'name'
p2193
S'\xe0\xa4\x97\xe0\xa5\x83\xe0\xa4\xb9'
p2194
sS'drel'
p2195
S'pof__cn:NP2'
p2196
sS'chunktype'
p2197
S'child:NP2'
p2198
sS'af'
p2199
S'\xe0\xa4\x97\xe0\xa5\x83\xe0\xa4\xb9,n,m,sg,3,d,0,0'
p2200
ssbsg34
I00
sg35
I00
sg36
Nsg37
Nsg38
I1
sg39
I4
sg40
Nsg41
Nsg42
S'NNPC'
p2201
sg44
g2188
sg45
I00
sba(issf_api
Word
p2202
(dp2203
g6
I00
sg7
V\u0935\u093f\u092d\u093e\u0917
p2204
sg9
(issf_api
FeatureSet
p2205
(dp2206
g12
(dp2207
S'posn'
p2208
S'40'
p2209
sS'name'
p2210
S'\xe0\xa4\xb5\xe0\xa4\xbf\xe0\xa4\xad\xe0\xa4\xbe\xe0\xa4\x97'
p2211
sS'af'
p2212
S'\xe0\xa4\xb5\xe0\xa4\xbf\xe0\xa4\xad\xe0\xa4\xbe\xe0\xa4\x97,n,m,sg,3,o,0_\xe0\xa4\x95\xe0\xa4\xbe,0'
p2213
sS'chunkid'
p2214
S'NP2'
p2215
sS'drel'
p2216
S'r6:NP3'
p2217
sS'vpos'
p2218
S'vib_3'
p2219
sS'chunktype'
p2220
S'head:NP2'
p2221
ssbsg34
I00
sg35
I00
sg36
Nsg37
Nsg38
I1
sg39
I4
sg40
Nsg41
Nsg42
S'NNP'
p2222
sg44
g2205
sg45
I00
sba(issf_api
Word
p2223
(dp2224
g6
I00
sg7
V\u0915\u0947
p2225
sg9
(issf_api
FeatureSet
p2226
(dp2227
g12
(dp2228
S'posn'
p2229
S'50'
p2230
sS'name'
p2231
S'\xe0\xa4\x95\xe0\xa5\x872'
p2232
sS'drel'
p2233
S'lwg__psp:NP2'
p2234
sS'chunktype'
p2235
S'child:NP2'
p2236
sS'af'
p2237
S'\xe0\xa4\x95\xe0\xa4\xbe,psp,m,pl,,o,,'
p2238
ssbsg34
I00
sg35
I00
sg36
Nsg37
Nsg38
I1
sg39
I4
sg40
Nsg41
Nsg42
S'PSP'
p2239
sg44
g2226
sg45
I00
sba(issf_api
Word
p2240
(dp2241
g6
I00
sg7
V\u0938\u0942\u0924\u094d\u0930\u094b\u0902
p2242
sg9
(issf_api
FeatureSet
p2243
(dp2244
g12
(dp2245
S'posn'
p2246
S'60'
p2247
sS'name'
p2248
S'\xe0\xa4\xb8\xe0\xa5\x82\xe0\xa4\xa4\xe0\xa5\x8d\xe0\xa4\xb0\xe0\xa5\x8b\xe0\xa4\x82'
p2249
sS'af'
p2250
S'\xe0\xa4\xb8\xe0\xa5\x82\xe0\xa4\xa4\xe0\xa5\x8d\xe0\xa4\xb0,n,m,pl,3,o,0_\xe0\xa4\xa8\xe0\xa5\x87,0'
p2251
sS'chunkid'
p2252
S'NP3'
p2253
sS'drel'
p2254
S'k1:VGF'
p2255
sS'vpos'
p2256
S'vib_2'
p2257
sS'chunktype'
p2258
S'head:NP3'
p2259
ssbsg34
I00
sg35
I00
sg36
Nsg37
Nsg38
I2
sg39
I4
sg40
Nsg41
Nsg42
S'NN'
p2260
sg44
g2243
sg45
I00
sba(issf_api
Word
p2261
(dp2262
g6
I00
sg7
V\u0928\u0947
p2263
sg9
(issf_api
FeatureSet
p2264
(dp2265
g12
(dp2266
S'posn'
p2267
S'70'
p2268
sS'name'
p2269
S'\xe0\xa4\xa8\xe0\xa5\x87'
p2270
sS'drel'
p2271
S'lwg__psp:NP3'
p2272
sS'chunktype'
p2273
S'child:NP3'
p2274
sS'af'
p2275
S'\xe0\xa4\xa8\xe0\xa5\x87,psp,,,,,,'
p2276
ssbsg34
I00
sg35
I00
sg36
Nsg37
Nsg38
I2
sg39
I4
sg40
Nsg41
Nsg42
S'PSP'
p2277
sg44
g2264
sg45
I00
sba(issf_api
Word
p2278
(dp2279
g6
I00
sg7
V\u0915\u0939\u093e
p2280
sg9
(issf_api
FeatureSet
p2281
(dp2282
g12
(dp2283
S'posn'
p2284
S'80'
p2285
sS'name'
p2286
S'\xe0\xa4\x95\xe0\xa4\xb9\xe0\xa4\xbe'
p2287
sS'af'
p2288
S'\xe0\xa4\x95\xe0\xa4\xb9,v,m,sg,3,,\xe0\xa4\xaf\xe0\xa4\xbe_\xe0\xa4\xb9\xe0\xa5\x88,yA'
p2289
sS'chunkid'
p2290
S'VGF'
p2291
sS'chunktype'
p2292
S'head:VGF'
p2293
sS'voicetype'
p2294
S'active'
p2295
sS'vpos'
p2296
S'tam_2'
p2297
sS'stype'
p2298
S'declarative'
p2299
ssbsg34
I00
sg35
I00
sg36
Nsg37
Nsg38
I3
sg39
I4
sg40
Nsg41
Nsg42
S'VM'
p2300
sg44
g2281
sg45
I00
sba(issf_api
Word
p2301
(dp2302
g6
I00
sg7
V\u0939\u0948
p2303
sg9
(issf_api
FeatureSet
p2304
(dp2305
g12
(dp2306
S'posn'
p2307
S'90'
p2308
sS'name'
p2309
S'\xe0\xa4\xb9\xe0\xa5\x88'
p2310
sS'drel'
p2311
S'lwg__vaux:VGF'
p2312
sS'chunktype'
p2313
S'child:VGF'
p2314
sS'af'
p2315
S'\xe0\xa4\xb9\xe0\xa5\x88,v,any,sg,3,,\xe0\xa4\xb9\xe0\xa5\x88,hE'
p2316
ssbsg34
I00
sg35
I00
sg36
Nsg37
Nsg38
I3
sg39
I4
sg40
Nsg41
Nsg42
S'VAUX'
p2317
sg44
g2304
sg45
I00
sba(issf_api
Word
p2318
(dp2319
g6
I00
sg7
V\u0915\u093f
p2320
sg9
(issf_api
FeatureSet
p2321
(dp2322
g12
(dp2323
S'posn'
p2324
S'100'
p2325
sS'name'
p2326
S'\xe0\xa4\x95\xe0\xa4\xbf'
p2327
sS'af'
p2328
S'\xe0\xa4\x95\xe0\xa4\xbf,avy,,,,,,'
p2329
sS'chunkid'
p2330
S'CCP'
p2331
sS'drel'
p2332
S'k2:VGF'
p2333
sS'chunktype'
p2334
S'head:CCP'
p2335
ssbsg34
I00
sg35
I00
sg36
Nsg37
Nsg38
I4
sg39
I4
sg40
Nsg41
Nsg42
S'CC'
p2336
sg44
g2321
sg45
I00
sba(issf_api
Word
p2337
(dp2338
g6
I00
sg7
V\u0916\u0941\u092b\u093f\u092f\u093e
p2339
sg9
(issf_api
FeatureSet
p2340
(dp2341
g12
(dp2342
S'posn'
p2343
S'110'
p2344
sS'name'
p2345
S'\xe0\xa4\x96\xe0\xa5\x81\xe0\xa4\xab\xe0\xa4\xbf\xe0\xa4\xaf\xe0\xa4\xbe'
p2346
sS'drel'
p2347
S'pof__cn:NP4'
p2348
sS'chunktype'
p2349
S'child:NP4'
p2350
sS'af'
p2351
S'\xe0\xa4\x96\xe0\xa5\x81\xe0\xa4\xab\xe0\xa4\xbf\xe0\xa4\xaf\xe0\xa4\xbe,n,f,sg,3,d,0,0'
p2352
ssbsg34
I00
sg35
I00
sg36
Nsg37
Nsg38
I5
sg39
I4
sg40
Nsg41
Nsg42
S'NNPC'
p2353
sg44
g2340
sg45
I00
sba(issf_api
Word
p2354
(dp2355
g6
I00
sg7
V\u0935\u093f\u092d\u093e\u0917
p2356
sg9
(issf_api
FeatureSet
p2357
(dp2358
g12
(dp2359
S'posn'
p2360
S'120'
p2361
sS'name'
p2362
S'\xe0\xa4\xb5\xe0\xa4\xbf\xe0\xa4\xad\xe0\xa4\xbe\xe0\xa4\x972'
p2363
sS'af'
p2364
S'\xe0\xa4\xb5\xe0\xa4\xbf\xe0\xa4\xad\xe0\xa4\xbe\xe0\xa4\x97,n,m,sg,3,o,0_\xe0\xa4\xa8\xe0\xa5\x87,0'
p2365
sS'chunkid'
p2366
S'NP4'
p2367
sS'drel'
p2368
S'k1:VGF2'
p2369
sS'vpos'
p2370
S'vib_3'
p2371
sS'chunktype'
p2372
S'head:NP4'
p2373
ssbsg34
I00
sg35
I00
sg36
Nsg37
Nsg38
I5
sg39
I4
sg40
Nsg41
Nsg42
S'NNP'
p2374
sg44
g2357
sg45
I00
sba(issf_api
Word
p2375
(dp2376
g6
I00
sg7
V\u0928\u0947
p2377
sg9
(issf_api
FeatureSet
p2378
(dp2379
g12
(dp2380
S'posn'
p2381
S'130'
p2382
sS'name'
p2383
S'\xe0\xa4\xa8\xe0\xa5\x872'
p2384
sS'drel'
p2385
S'lwg__psp:NP4'
p2386
sS'chunktype'
p2387
S'child:NP4'
p2388
sS'af'
p2389
S'\xe0\xa4\xa8\xe0\xa5\x87,psp,,,,,,'
p2390
ssbsg34
I00
sg35
I00
sg36
Nsg37
Nsg38
I5
sg39
I4
sg40
Nsg41
Nsg42
S'PSP'
p2391
sg44
g2378
sg45
I00
sba(issf_api
Word
p2392
(dp2393
g6
I00
sg7
V\u0928\u0947\u092a\u093e\u0932\u0940
p2394
sg9
(issf_api
FeatureSet
p2395
(dp2396
g12
(dp2397
S'posn'
p2398
S'140'
p2399
sS'name'
p2400
S'\xe0\xa4\xa8\xe0\xa5\x87\xe0\xa4\xaa\xe0\xa4\xbe\xe0\xa4\xb2\xe0\xa5\x80'
p2401
sS'af'
p2402
S'\xe0\xa4\xa8\xe0\xa5\x87\xe0\xa4\xaa\xe0\xa4\xbe\xe0\xa4\xb2\xe0\xa5\x80,adj,any,any,,o,,'
p2403
sS'drel'
p2404
S'nmod__adj:NP5'
p2405
sS'chunktype'
p2406
S'child:NP5'
p2407
sS'cref'
p2408
S'i15%0:t9'
p2409
ssbsg34
I00
sg35
I00
sg36
Nsg37
Nsg38
I6
sg39
I4
sg40
Nsg41
Nsg42
S'JJ'
p2410
sg44
g2395
sg45
I00
sba(issf_api
Word
p2411
(dp2412
g6
I00
sg7
V\u092e\u093e\u0913\u0935\u093e\u0926\u0940
p2413
sg9
(issf_api
FeatureSet
p2414
(dp2415
g12
(dp2416
S'posn'
p2417
S'150'
p2418
sS'name'
p2419
S'\xe0\xa4\xae\xe0\xa4\xbe\xe0\xa4\x93\xe0\xa4\xb5\xe0\xa4\xbe\xe0\xa4\xa6\xe0\xa5\x80'
p2420
sS'af'
p2421
S'\xe0\xa4\xae\xe0\xa4\xbe\xe0\xa4\x93\xe0\xa4\xb5\xe0\xa4\xbe\xe0\xa4\xa6\xe0\xa5\x80,adj,any,any,,o,,'
p2422
sS'drel'
p2423
S'nmod__adj:NP5'
p2424
sS'chunktype'
p2425
S'child:NP5'
p2426
sS'cref'
p2427
S'i15%0:t9'
p2428
ssbsg34
I00
sg35
I00
sg36
Nsg37
Nsg38
I6
sg39
I4
sg40
Nsg41
Nsg42
S'JJ'
p2429
sg44
g2414
sg45
I00
sba(issf_api
Word
p2430
(dp2431
g6
I00
sg7
V\u0935\u093f\u0926\u094d\u0930\u094b\u0939\u093f\u092f\u094b\u0902
p2432
sg9
(issf_api
FeatureSet
p2433
(dp2434
g12
(dp2435
S'crefhead'
p2436
S'\xe0\xa4\xb5\xe0\xa4\xbf\xe0\xa4\xa6\xe0\xa5\x8d\xe0\xa4\xb0\xe0\xa5\x8b\xe0\xa4\xb9\xe0\xa4\xbf\xe0\xa4\xaf\xe0\xa5\x8b\xe0\xa4\x82:i15'
p2437
sS'posn'
p2438
S'160'
p2439
sS'name'
p2440
S'\xe0\xa4\xb5\xe0\xa4\xbf\xe0\xa4\xa6\xe0\xa5\x8d\xe0\xa4\xb0\xe0\xa5\x8b\xe0\xa4\xb9\xe0\xa4\xbf\xe0\xa4\xaf\xe0\xa5\x8b\xe0\xa4\x82'
p2441
sS'af'
p2442
S'\xe0\xa4\xb5\xe0\xa4\xbf\xe0\xa4\xa6\xe0\xa5\x8d\xe0\xa4\xb0\xe0\xa5\x8b\xe0\xa4\xb9\xe0\xa5\x80,n,m,pl,3,o,0_\xe0\xa4\x95\xe0\xa4\xbe,0'
p2443
sS'chunkid'
p2444
S'NP5'
p2445
sS'chunktype'
p2446
S'head:NP5'
p2447
sS'crefchainhead'
p2448
S'i15:t9'
p2449
sS'vpos'
p2450
S'vib_4'
p2451
sS'cref'
p2452
S'i15%1:t9'
p2453
sS'drel'
p2454
S'r6:NP6'
p2455
ssbsg34
I00
sg35
I00
sg36
Nsg37
Nsg38
I6
sg39
I4
sg40
Nsg41
Nsg42
S'NN'
p2456
sg44
g2433
sg45
I00
sba(issf_api
Word
p2457
(dp2458
g6
I00
sg7
V\u0915\u0947
p2459
sg9
(issf_api
FeatureSet
p2460
(dp2461
g12
(dp2462
S'posn'
p2463
S'170'
p2464
sS'name'
p2465
S'\xe0\xa4\x95\xe0\xa5\x873'
p2466
sS'drel'
p2467
S'lwg__psp:NP5'
p2468
sS'chunktype'
p2469
S'child:NP5'
p2470
sS'af'
p2471
S'\xe0\xa4\x95\xe0\xa4\xbe,psp,m,sg,,o,,'
p2472
ssbsg34
I00
sg35
I00
sg36
Nsg37
Nsg38
I6
sg39
I4
sg40
Nsg41
Nsg42
S'PSP'
p2473
sg44
g2460
sg45
I00
sba(issf_api
Word
p2474
(dp2475
g6
I00
sg7
V\u0938\u092e\u0930\u094d\u0925\u0928
p2476
sg9
(issf_api
FeatureSet
p2477
(dp2478
g12
(dp2479
S'posn'
p2480
S'180'
p2481
sS'name'
p2482
S'\xe0\xa4\xb8\xe0\xa4\xae\xe0\xa4\xb0\xe0\xa5\x8d\xe0\xa4\xa5\xe0\xa4\xa8'
p2483
sS'af'
p2484
S'\xe0\xa4\xb8\xe0\xa4\xae\xe0\xa4\xb0\xe0\xa5\x8d\xe0\xa4\xa5\xe0\xa4\xa8,n,m,sg,3,o,0_\xe0\xa4\xb8\xe0\xa5\x87,0'
p2485
sS'chunkid'
p2486
S'NP6'
p2487
sS'drel'
p2488
S'rh:VGF2'
p2489
sS'vpos'
p2490
S'vib_2'
p2491
sS'chunktype'
p2492
S'head:NP6'
p2493
ssbsg34
I00
sg35
I00
sg36
Nsg37
Nsg38
I7
sg39
I4
sg40
Nsg41
Nsg42
S'NN'
p2494
sg44
g2477
sg45
I00
sba(issf_api
Word
p2495
(dp2496
g6
I00
sg7
V\u0938\u0947
p2497
sg9
(issf_api
FeatureSet
p2498
(dp2499
g12
(dp2500
S'posn'
p2501
S'190'
p2502
sS'name'
p2503
S'\xe0\xa4\xb8\xe0\xa5\x87'
p2504
sS'drel'
p2505
S'lwg__psp:NP6'
p2506
sS'chunktype'
p2507
S'child:NP6'
p2508
sS'af'
p2509
S'\xe0\xa4\xb8\xe0\xa5\x87,psp,,,,,,'
p2510
ssbsg34
I00
sg35
I00
sg36
Nsg37
Nsg38
I7
sg39
I4
sg40
Nsg41
Nsg42
S'PSP'
p2511
sg44
g2498
sg45
I00
sba(issf_api
Word
p2512
(dp2513
g6
I00
sg7
V\u0907\u0928
p2514
sg9
(issf_api
FeatureSet
p2515
(dp2516
g12
(dp2517
S'posn'
p2518
S'200'
p2519
sS'name'
p2520
S'\xe0\xa4\x87\xe0\xa4\xa8'
p2521
sS'af'
p2522
S'\xe0\xa4\xaf\xe0\xa4\xb9,pn,any,pl,3,o,,'
p2523
sS'drel'
p2524
S'nmod__adj:NP7'
p2525
sS'chunktype'
p2526
S'child:NP7'
p2527
sS'cref'
p2528
S'i16%0:t7'
p2529
ssbsg34
I00
sg35
I00
sg36
Nsg37
Nsg38
I8
sg39
I4
sg40
Nsg41
Nsg42
S'DEM'
p2530
sg44
g2515
sg45
I00
sba(issf_api
Word
p2531
(dp2532
g6
I00
sg7
V\u0915\u094d\u0937\u0947\u0924\u094d\u0930\u094b\u0902
p2533
sg9
(issf_api
FeatureSet
p2534
(dp2535
g12
(dp2536
S'crefhead'
p2537
S'\xe0\xa4\x95\xe0\xa5\x8d\xe0\xa4\xb7\xe0\xa5\x87\xe0\xa4\xa4\xe0\xa5\x8d\xe0\xa4\xb0\xe0\xa5\x8b\xe0\xa4\x82:i16'
p2538
sS'posn'
p2539
S'210'
p2540
sS'name'
p2541
S'\xe0\xa4\x95\xe0\xa5\x8d\xe0\xa4\xb7\xe0\xa5\x87\xe0\xa4\xa4\xe0\xa5\x8d\xe0\xa4\xb0\xe0\xa5\x8b\xe0\xa4\x82'
p2542
sS'af'
p2543
S'\xe0\xa4\x95\xe0\xa5\x8d\xe0\xa4\xb7\xe0\xa5\x87\xe0\xa4\xa4\xe0\xa5\x8d\xe0\xa4\xb0,n,m,pl,3,o,0_\xe0\xa4\xae\xe0\xa5\x87\xe0\xa4\x82,0'
p2544
sS'chunkid'
p2545
S'NP7'
p2546
sS'creftype'
p2547
S'Coreference-Identity:i11'
p2548
sS'chunktype'
p2549
S'head:NP7'
p2550
sS'vpos'
p2551
S'vib_3'
p2552
sS'cref'
p2553
S'i16%1:t7'
p2554
sS'drel'
p2555
S'k7:VGF2'
p2556
ssbsg34
I00
sg35
I00
sg36
Nsg37
Nsg38
I8
sg39
I4
sg40
Nsg41
Nsg42
S'NN'
p2557
sg44
g2534
sg45
I00
sba(issf_api
Word
p2558
(dp2559
g6
I00
sg7
V\u092e\u0947\u0902
p2560
sg9
(issf_api
FeatureSet
p2561
(dp2562
g12
(dp2563
S'posn'
p2564
S'220'
p2565
sS'name'
p2566
S'\xe0\xa4\xae\xe0\xa5\x87\xe0\xa4\x82'
p2567
sS'drel'
p2568
S'lwg__psp:NP7'
p2569
sS'chunktype'
p2570
S'child:NP7'
p2571
sS'af'
p2572
S'\xe0\xa4\xae\xe0\xa5\x87\xe0\xa4\x82,psp,,,,,,'
p2573
ssbsg34
I00
sg35
I00
sg36
Nsg37
Nsg38
I8
sg39
I4
sg40
Nsg41
Nsg42
S'PSP'
p2574
sg44
g2561
sg45
I00
sba(issf_api
Word
p2575
(dp2576
g6
I00
sg7
V\u0924\u0940\u0938\u0930\u0947
p2577
sg9
(issf_api
FeatureSet
p2578
(dp2579
g12
(dp2580
S'posn'
p2581
S'230'
p2582
sS'name'
p2583
S'\xe0\xa4\xa4\xe0\xa5\x80\xe0\xa4\xb8\xe0\xa4\xb0\xe0\xa5\x87'
p2584
sS'drel'
p2585
S'nmod__adj:NP8'
p2586
sS'chunktype'
p2587
S'child:NP8'
p2588
sS'af'
p2589
S'\xe0\xa4\xa4\xe0\xa5\x80\xe0\xa4\xb8\xe0\xa4\xb0\xe0\xa4\xbe,num,m,sg,,o,,'
p2590
ssbsg34
I00
sg35
I00
sg36
Nsg37
Nsg38
I9
sg39
I4
sg40
Nsg41
Nsg42
S'QO'
p2591
sg44
g2578
sg45
I00
sba(issf_api
Word
p2592
(dp2593
g6
I00
sg7
V\u091a\u0930\u0923
p2594
sg9
(issf_api
FeatureSet
p2595
(dp2596
g12
(dp2597
S'posn'
p2598
S'240'
p2599
sS'name'
p2600
S'\xe0\xa4\x9a\xe0\xa4\xb0\xe0\xa4\xa3'
p2601
sS'af'
p2602
S'\xe0\xa4\x9a\xe0\xa4\xb0\xe0\xa4\xa3,n,m,sg,3,o,0_\xe0\xa4\x95\xe0\xa4\xbe,0'
p2603
sS'chunkid'
p2604
S'NP8'
p2605
sS'drel'
p2606
S'r6:NP9'
p2607
sS'vpos'
p2608
S'vib_3'
p2609
sS'chunktype'
p2610
S'head:NP8'
p2611
ssbsg34
I00
sg35
I00
sg36
Nsg37
Nsg38
I9
sg39
I4
sg40
Nsg41
Nsg42
S'NN'
p2612
sg44
g2595
sg45
I00
sba(issf_api
Word
p2613
(dp2614
g6
I00
sg7
V\u0915\u0947
p2615
sg9
(issf_api
FeatureSet
p2616
(dp2617
g12
(dp2618
S'posn'
p2619
S'250'
p2620
sS'name'
p2621
S'\xe0\xa4\x95\xe0\xa5\x874'
p2622
sS'drel'
p2623
S'lwg__psp:NP8'
p2624
sS'chunktype'
p2625
S'child:NP8'
p2626
sS'af'
p2627
S'\xe0\xa4\x95\xe0\xa4\xbe,psp,m,sg,,o,,'
p2628
ssbsg34
I00
sg35
I00
sg36
Nsg37
Nsg38
I9
sg39
I4
sg40
Nsg41
Nsg42
S'PSP'
p2629
sg44
g2616
sg45
I00
sba(issf_api
Word
p2630
(dp2631
g6
I00
sg7
V\u092e\u0924\u0926\u093e\u0928
p2632
sg9
(issf_api
FeatureSet
p2633
(dp2634
g12
(dp2635
S'posn'
p2636
S'260'
p2637
sS'name'
p2638
S'\xe0\xa4\xae\xe0\xa4\xa4\xe0\xa4\xa6\xe0\xa4\xbe\xe0\xa4\xa8'
p2639
sS'af'
p2640
S'\xe0\xa4\xae\xe0\xa4\xa4\xe0\xa4\xa6\xe0\xa4\xbe\xe0\xa4\xa8,n,m,sg,3,o,0_\xe0\xa4\x95\xe0\xa5\x87_\xe0\xa4\xa6\xe0\xa5\x8c\xe0\xa4\xb0\xe0\xa4\xbe\xe0\xa4\xa8,0'
p2641
sS'chunkid'
p2642
S'NP9'
p2643
sS'drel'
p2644
S'k7p:VGF2'
p2645
sS'vpos'
p2646
S'vib_2_3'
p2647
sS'chunktype'
p2648
S'head:NP9'
p2649
ssbsg34
I00
sg35
I00
sg36
Nsg37
Nsg38
I10
sg39
I4
sg40
Nsg41
Nsg42
S'NN'
p2650
sg44
g2633
sg45
I00
sba(issf_api
Word
p2651
(dp2652
g6
I00
sg7
V\u0915\u0947
p2653
sg9
(issf_api
FeatureSet
p2654
(dp2655
g12
(dp2656
S'posn'
p2657
S'270'
p2658
sS'name'
p2659
S'\xe0\xa4\x95\xe0\xa5\x875'
p2660
sS'drel'
p2661
S'lwg__psp:NP9'
p2662
sS'chunktype'
p2663
S'child:NP9'
p2664
sS'af'
p2665
S'\xe0\xa4\x95\xe0\xa5\x87,psp,,,,,,'
p2666
ssbsg34
I00
sg35
I00
sg36
Nsg37
Nsg38
I10
sg39
I4
sg40
Nsg41
Nsg42
S'PSP'
p2667
sg44
g2654
sg45
I00
sba(issf_api
Word
p2668
(dp2669
g6
I00
sg7
V\u0926\u094c\u0930\u093e\u0928
p2670
sg9
(issf_api
FeatureSet
p2671
(dp2672
g12
(dp2673
S'posn'
p2674
S'280'
p2675
sS'name'
p2676
S'\xe0\xa4\xa6\xe0\xa5\x8c\xe0\xa4\xb0\xe0\xa4\xbe\xe0\xa4\xa8'
p2677
sS'drel'
p2678
S'lwg__psp:NP9'
p2679
sS'chunktype'
p2680
S'child:NP9'
p2681
sS'af'
p2682
S'\xe0\xa4\xa6\xe0\xa5\x8c\xe0\xa4\xb0\xe0\xa4\xbe\xe0\xa4\xa8,nst,m,sg,3,d,,'
p2683
ssbsg34
I00
sg35
I00
sg36
Nsg37
Nsg38
I10
sg39
I4
sg40
Nsg41
Nsg42
S'NST'
p2684
sg44
g2671
sg45
I00
sba(issf_api
Word
p2685
(dp2686
g6
I00
sg7
V\u092d\u093e\u0930\u0940
p2687
sg9
(issf_api
FeatureSet
p2688
(dp2689
g12
(dp2690
S'posn'
p2691
S'290'
p2692
sS'name'
p2693
S'\xe0\xa4\xad\xe0\xa4\xbe\xe0\xa4\xb0\xe0\xa5\x80'
p2694
sS'drel'
p2695
S'nmod__adj:NP10'
p2696
sS'chunktype'
p2697
S'child:NP10'
p2698
sS'af'
p2699
S'\xe0\xa4\xad\xe0\xa4\xbe\xe0\xa4\xb0\xe0\xa5\x80,adj,any,any,,o,,'
p2700
ssbsg34
I00
sg35
I00
sg36
Nsg37
Nsg38
I11
sg39
I4
sg40
Nsg41
Nsg42
S'JJ'
p2701
sg44
g2688
sg45
I00
sba(issf_api
Word
p2702
(dp2703
g6
I00
sg7
V\u0939\u093f\u0902\u0938\u093e
p2704
sg9
(issf_api
FeatureSet
p2705
(dp2706
g12
(dp2707
S'posn'
p2708
S'300'
p2709
sS'name'
p2710
S'\xe0\xa4\xb9\xe0\xa4\xbf\xe0\xa4\x82\xe0\xa4\xb8\xe0\xa4\xbe'
p2711
sS'af'
p2712
S'\xe0\xa4\xb9\xe0\xa4\xbf\xe0\xa4\x82\xe0\xa4\xb8\xe0\xa4\xbe,n,f,sg,3,o,0_\xe0\xa4\x95\xe0\xa4\xbe,0'
p2713
sS'chunkid'
p2714
S'NP10'
p2715
sS'drel'
p2716
S'r6:NP11'
p2717
sS'vpos'
p2718
S'vib_3'
p2719
sS'chunktype'
p2720
S'head:NP10'
p2721
ssbsg34
I00
sg35
I00
sg36
Nsg37
Nsg38
I11
sg39
I4
sg40
Nsg41
Nsg42
S'NN'
p2722
sg44
g2705
sg45
I00
sba(issf_api
Word
p2723
(dp2724
g6
I00
sg7
V\u0915\u0940
p2725
sg9
(issf_api
FeatureSet
p2726
(dp2727
g12
(dp2728
S'posn'
p2729
S'310'
p2730
sS'name'
p2731
S'\xe0\xa4\x95\xe0\xa5\x80'
p2732
sS'drel'
p2733
S'lwg__psp:NP10'
p2734
sS'chunktype'
p2735
S'child:NP10'
p2736
sS'af'
p2737
S'\xe0\xa4\x95\xe0\xa4\xbe,psp,f,sg,,d,,'
p2738
ssbsg34
I00
sg35
I00
sg36
Nsg37
Nsg38
I11
sg39
I4
sg40
Nsg41
Nsg42
S'PSP'
p2739
sg44
g2726
sg45
I00
sba(issf_api
Word
p2740
(dp2741
g6
I00
sg7
V\u0906\u0936\u0902\u0915\u093e
p2742
sg9
(issf_api
FeatureSet
p2743
(dp2744
g12
(dp2745
S'posn'
p2746
S'320'
p2747
sS'name'
p2748
S'\xe0\xa4\x86\xe0\xa4\xb6\xe0\xa4\x82\xe0\xa4\x95\xe0\xa4\xbe'
p2749
sS'af'
p2750
S'\xe0\xa4\x86\xe0\xa4\xb6\xe0\xa4\x82\xe0\xa4\x95\xe0\xa4\xbe,n,f,sg,3,d,0,0'
p2751
sS'chunkid'
p2752
S'NP11'
p2753
sS'drel'
p2754
S'pof:VGF2'
p2755
sS'chunktype'
p2756
S'head:NP11'
p2757
ssbsg34
I00
sg35
I00
sg36
Nsg37
Nsg38
I12
sg39
I4
sg40
Nsg41
Nsg42
S'NN'
p2758
sg44
g2743
sg45
I00
sba(issf_api
Word
p2759
(dp2760
g6
I00
sg7
V\u091c\u0924\u093e\u0908
p2761
sg9
(issf_api
FeatureSet
p2762
(dp2763
g12
(dp2764
S'posn'
p2765
S'330'
p2766
sS'name'
p2767
S'\xe0\xa4\x9c\xe0\xa4\xa4\xe0\xa4\xbe\xe0\xa4\x88'
p2768
sS'af'
p2769
S'\xe0\xa4\x9c\xe0\xa4\xa4\xe0\xa4\xbe,v,f,sg,3,,\xe0\xa4\xaf\xe0\xa4\xbe_\xe0\xa4\xb9\xe0\xa5\x88,yA'
p2770
sS'chunkid'
p2771
S'VGF2'
p2772
sS'stype'
p2773
S'declarative'
p2774
sS'drel'
p2775
S'ccof:CCP'
p2776
sS'voicetype'
p2777
S'active'
p2778
sS'vpos'
p2779
S'tam_2'
p2780
sS'chunktype'
p2781
S'head:VGF2'
p2782
ssbsg34
I00
sg35
I00
sg36
Nsg37
Nsg38
I13
sg39
I4
sg40
Nsg41
Nsg42
S'VM'
p2783
sg44
g2762
sg45
I00
sba(issf_api
Word
p2784
(dp2785
g6
I00
sg7
V\u0939\u0948
p2786
sg9
(issf_api
FeatureSet
p2787
(dp2788
g12
(dp2789
S'posn'
p2790
S'340'
p2791
sS'name'
p2792
S'\xe0\xa4\xb9\xe0\xa5\x882'
p2793
sS'drel'
p2794
S'lwg__vaux:VGF2'
p2795
sS'chunktype'
p2796
S'child:VGF2'
p2797
sS'af'
p2798
S'\xe0\xa4\xb9\xe0\xa5\x88,v,any,sg,3,,\xe0\xa4\xb9\xe0\xa5\x88,hE'
p2799
ssbsg34
I00
sg35
I00
sg36
Nsg37
Nsg38
I13
sg39
I4
sg40
Nsg41
Nsg42
S'VAUX'
p2800
sg44
g2787
sg45
I00
sba(issf_api
Word
p2801
(dp2802
g6
I00
sg7
V\u0964
p2803
sg9
(issf_api
FeatureSet
p2804
(dp2805
g12
(dp2806
S'posn'
p2807
S'350'
p2808
sS'name'
p2809
S'\xe0\xa5\xa4'
p2810
sS'af'
p2811
S'\xe0\xa5\xa4,punc,,,,,,'
p2812
sS'chunkid'
p2813
S'BLK'
p2814
sS'drel'
p2815
S'rsym:VGF'
p2816
sS'chunktype'
p2817
S'head:BLK'
p2818
ssbsg34
I00
sg35
I00
sg36
Nsg37
Nsg38
I14
sg39
I4
sg40
Nsg41
Nsg42
S'SYM'
p2819
sg44
g2804
sg45
I00
sba(issf_api
Word
p2820
(dp2821
g6
I00
sg7
V\u0905\u0927\u093f\u0915\u093e\u0930\u093f\u092f\u094b\u0902
p2822
sg9
(issf_api
FeatureSet
p2823
(dp2824
g12
(dp2825
S'posn'
p2826
S'10'
p2827
sS'name'
p2828
S'\xe0\xa4\x85\xe0\xa4\xa7\xe0\xa4\xbf\xe0\xa4\x95\xe0\xa4\xbe\xe0\xa4\xb0\xe0\xa4\xbf\xe0\xa4\xaf\xe0\xa5\x8b\xe0\xa4\x82'
p2829
sS'af'
p2830
S'\xe0\xa4\x85\xe0\xa4\xa7\xe0\xa4\xbf\xe0\xa4\x95\xe0\xa4\xbe\xe0\xa4\xb0\xe0\xa5\x80,n,m,pl,3,o,0_\xe0\xa4\xa8\xe0\xa5\x87,0'
p2831
sS'chunkid'
p2832
S'NP'
p2833
sS'drel'
p2834
S'k1:VGF'
p2835
sS'vpos'
p2836
S'vib_2'
p2837
sS'chunktype'
p2838
S'head:NP'
p2839
ssbsg34
I00
sg35
I00
sg36
Nsg37
Nsg38
I0
sg39
I5
sg40
Nsg41
Nsg42
S'NN'
p2840
sg44
g2823
sg45
I00
sba(issf_api
Word
p2841
(dp2842
g6
I00
sg7
V\u0928\u0947
p2843
sg9
(issf_api
FeatureSet
p2844
(dp2845
g12
(dp2846
S'posn'
p2847
S'20'
p2848
sS'name'
p2849
S'\xe0\xa4\xa8\xe0\xa5\x87'
p2850
sS'drel'
p2851
S'lwg__psp:NP'
p2852
sS'chunktype'
p2853
S'child:NP'
p2854
sS'af'
p2855
S'\xe0\xa4\xa8\xe0\xa5\x87,psp,,,,,,'
p2856
ssbsg34
I00
sg35
I00
sg36
Nsg37
Nsg38
I0
sg39
I5
sg40
Nsg41
Nsg42
S'PSP'
p2857
sg44
g2844
sg45
I00
sba(issf_api
Word
p2858
(dp2859
g6
I00
sg7
V\u0915\u0939\u093e
p2860
sg9
(issf_api
FeatureSet
p2861
(dp2862
g12
(dp2863
S'posn'
p2864
S'30'
p2865
sS'name'
p2866
S'\xe0\xa4\x95\xe0\xa4\xb9\xe0\xa4\xbe'
p2867
sS'af'
p2868
S'\xe0\xa4\x95\xe0\xa4\xb9,v,m,sg,any,,\xe0\xa4\xaf\xe0\xa4\xbe,yA'
p2869
sS'chunkid'
p2870
S'VGF'
p2871
sS'chunktype'
p2872
S'head:VGF'
p2873
sS'voicetype'
p2874
S'active'
p2875
sS'stype'
p2876
S'declarative'
p2877
ssbsg34
I00
sg35
I00
sg36
Nsg37
Nsg38
I1
sg39
I5
sg40
Nsg41
Nsg42
S'VM'
p2878
sg44
g2861
sg45
I00
sba(issf_api
Word
p2879
(dp2880
g6
I00
sg7
V\u0915\u093f
p2881
sg9
(issf_api
FeatureSet
p2882
(dp2883
g12
(dp2884
S'posn'
p2885
S'40'
p2886
sS'name'
p2887
S'\xe0\xa4\x95\xe0\xa4\xbf'
p2888
sS'af'
p2889
S'\xe0\xa4\x95\xe0\xa4\xbf,avy,,,,,,'
p2890
sS'chunkid'
p2891
S'CCP'
p2892
sS'drel'
p2893
S'k2:VGF'
p2894
sS'chunktype'
p2895
S'head:CCP'
p2896
ssbsg34
I00
sg35
I00
sg36
Nsg37
Nsg38
I2
sg39
I5
sg40
Nsg41
Nsg42
S'CC'
p2897
sg44
g2882
sg45
I00
sba(issf_api
Word
p2898
(dp2899
g6
I00
sg7
V\u0915\u0941\u091b
p2900
sg9
(issf_api
FeatureSet
p2901
(dp2902
g12
(dp2903
S'posn'
p2904
S'50'
p2905
sS'name'
p2906
S'\xe0\xa4\x95\xe0\xa5\x81\xe0\xa4\x9b'
p2907
sS'drel'
p2908
S'nmod__adj:NP2'
p2909
sS'chunktype'
p2910
S'child:NP2'
p2911
sS'af'
p2912
S'\xe0\xa4\x95\xe0\xa5\x81\xe0\xa4\x9b,avy,,,,,,'
p2913
ssbsg34
I00
sg35
I00
sg36
Nsg37
Nsg38
I3
sg39
I5
sg40
Nsg41
Nsg42
S'QF'
p2914
sg44
g2901
sg45
I00
sba(issf_api
Word
p2915
(dp2916
g6
I00
sg7
V\u0939\u0940
p2917
sg9
(issf_api
FeatureSet
p2918
(dp2919
g12
(dp2920
S'posn'
p2921
S'60'
p2922
sS'name'
p2923
S'\xe0\xa4\xb9\xe0\xa5\x80'
p2924
sS'drel'
p2925
S'lwg__rp:NP2'
p2926
sS'chunktype'
p2927
S'child:NP2'
p2928
sS'af'
p2929
S'\xe0\xa4\xb9\xe0\xa5\x80,avy,,,,,,'
p2930
ssbsg34
I00
sg35
I00
sg36
Nsg37
Nsg38
I3
sg39
I5
sg40
Nsg41
Nsg42
S'RP'
p2931
sg44
g2918
sg45
I00
sba(issf_api
Word
p2932
(dp2933
g6
I00
sg7
V\u092e\u0939\u0940\u0928\u0947
p2934
sg9
(issf_api
FeatureSet
p2935
(dp2936
g12
(dp2937
S'posn'
p2938
S'70'
p2939
sS'name'
p2940
S'\xe0\xa4\xae\xe0\xa4\xb9\xe0\xa5\x80\xe0\xa4\xa8\xe0\xa5\x87'
p2941
sS'af'
p2942
S'\xe0\xa4\xae\xe0\xa4\xb9\xe0\xa5\x80\xe0\xa4\xa8\xe0\xa4\xbe,n,m,pl,3,d,0_\xe0\xa4\xaa\xe0\xa4\xb9\xe0\xa4\xb2\xe0\xa5\x87,0'
p2943
sS'chunkid'
p2944
S'NP2'
p2945
sS'drel'
p2946
S'k7t:VGF2'
p2947
sS'vpos'
p2948
S'vib_4'
p2949
sS'chunktype'
p2950
S'head:NP2'
p2951
ssbsg34
I00
sg35
I00
sg36
Nsg37
Nsg38
I3
sg39
I5
sg40
Nsg41
Nsg42
S'NN'
p2952
sg44
g2935
sg45
I00
sba(issf_api
Word
p2953
(dp2954
g6
I00
sg7
V\u092a\u0939\u0932\u0947
p2955
sg9
(issf_api
FeatureSet
p2956
(dp2957
g12
(dp2958
S'posn'
p2959
S'80'
p2960
sS'name'
p2961
S'\xe0\xa4\xaa\xe0\xa4\xb9\xe0\xa4\xb2\xe0\xa5\x87'
p2962
sS'drel'
p2963
S'lwg__psp:NP2'
p2964
sS'chunktype'
p2965
S'child:NP2'
p2966
sS'af'
p2967
S'\xe0\xa4\xaa\xe0\xa4\xb9\xe0\xa4\xb2\xe0\xa5\x87,nst,m,sg,3,d,,'
p2968
ssbsg34
I00
sg35
I00
sg36
Nsg37
Nsg38
I3
sg39
I5
sg40
Nsg41
Nsg42
S'NST'
p2969
sg44
g2956
sg45
I00
sba(issf_api
Word
p2970
(dp2971
g6
I00
sg7
V\u092e\u093e\u0913\u0935\u093e\u0926\u093f\u092f\u094b\u0902
p2972
sg9
(issf_api
FeatureSet
p2973
(dp2974
g12
(dp2975
S'posn'
p2976
S'90'
p2977
sS'name'
p2978
S'\xe0\xa4\xae\xe0\xa4\xbe\xe0\xa4\x93\xe0\xa4\xb5\xe0\xa4\xbe\xe0\xa4\xa6\xe0\xa4\xbf\xe0\xa4\xaf\xe0\xa5\x8b\xe0\xa4\x82'
p2979
sS'af'
p2980
S'\xe0\xa4\xae\xe0\xa4\xbe\xe0\xa4\x93\xe0\xa4\xb5\xe0\xa4\xbe\xe0\xa4\xa6\xe0\xa5\x80,n,m,pl,3,o,0_\xe0\xa4\xa8\xe0\xa5\x87,0'
p2981
sS'chunkid'
p2982
S'NP3'
p2983
sS'drel'
p2984
S'k1:VGF2'
p2985
sS'vpos'
p2986
S'vib_2'
p2987
sS'chunktype'
p2988
S'head:NP3'
p2989
ssbsg34
I00
sg35
I00
sg36
Nsg37
Nsg38
I4
sg39
I5
sg40
Nsg41
Nsg42
S'NN'
p2990
sg44
g2973
sg45
I00
sba(issf_api
Word
p2991
(dp2992
g6
I00
sg7
V\u0928\u0947
p2993
sg9
(issf_api
FeatureSet
p2994
(dp2995
g12
(dp2996
S'posn'
p2997
S'100'
p2998
sS'name'
p2999
S'\xe0\xa4\xa8\xe0\xa5\x872'
p3000
sS'drel'
p3001
S'lwg__psp:NP3'
p3002
sS'chunktype'
p3003
S'child:NP3'
p3004
sS'af'
p3005
S'\xe0\xa4\xa8\xe0\xa5\x87,psp,,,,,,'
p3006
ssbsg34
I00
sg35
I00
sg36
Nsg37
Nsg38
I4
sg39
I5
sg40
Nsg41
Nsg42
S'PSP'
p3007
sg44
g2994
sg45
I00
sba(issf_api
Word
p3008
(dp3009
g6
I00
sg7
V\u0928\u0947\u092a\u093e\u0932
p3010
sg9
(issf_api
FeatureSet
p3011
(dp3012
g12
(dp3013
S'crefhead'
p3014
S'\xe0\xa4\xa8\xe0\xa5\x87\xe0\xa4\xaa\xe0\xa4\xbe\xe0\xa4\xb2:i17'
p3015
sS'posn'
p3016
S'110'
p3017
sS'name'
p3018
S'\xe0\xa4\xa8\xe0\xa5\x87\xe0\xa4\xaa\xe0\xa4\xbe\xe0\xa4\xb2'
p3019
sS'af'
p3020
S'\xe0\xa4\xa8\xe0\xa5\x87\xe0\xa4\xaa\xe0\xa4\xbe\xe0\xa4\xb2,n,m,sg,3,d,0,0'
p3021
sS'creftype'
p3022
S'Coreference-Identity:i10'
p3023
sS'drel'
p3024
S'nmod__adj:NP4'
p3025
sS'chunktype'
p3026
S'child:NP4'
p3027
sS'cref'
p3028
S'i17%1:t4'
p3029
ssbsg34
I00
sg35
I00
sg36
Nsg37
Nsg38
I5
sg39
I5
sg40
Nsg41
Nsg42
S'NNP'
p3030
sg44
g3011
sg45
I00
sba(issf_api
Word
p3031
(dp3032
g6
I00
sg7
V\u0938\u0940\u092e\u093e
p3033
sg9
(issf_api
FeatureSet
p3034
(dp3035
g12
(dp3036
S'posn'
p3037
S'120'
p3038
sS'name'
p3039
S'\xe0\xa4\xb8\xe0\xa5\x80\xe0\xa4\xae\xe0\xa4\xbe'
p3040
sS'af'
p3041
S'\xe0\xa4\xb8\xe0\xa5\x80\xe0\xa4\xae\xe0\xa4\xbe,n,f,sg,3,o,0_\xe0\xa4\xb8\xe0\xa5\x87,0'
p3042
sS'chunkid'
p3043
S'NP4'
p3044
sS'drel'
p3045
S'k2:VGNF'
p3046
sS'vpos'
p3047
S'vib_vib_3'
p3048
sS'chunktype'
p3049
S'head:NP4'
p3050
ssbsg34
I00
sg35
I00
sg36
Nsg37
Nsg38
I5
sg39
I5
sg40
Nsg41
Nsg42
S'NN'
p3051
sg44
g3034
sg45
I00
sba(issf_api
Word
p3052
(dp3053
g6
I00
sg7
V\u0938\u0947
p3054
sg9
(issf_api
FeatureSet
p3055
(dp3056
g12
(dp3057
S'posn'
p3058
S'130'
p3059
sS'name'
p3060
S'\xe0\xa4\xb8\xe0\xa5\x87'
p3061
sS'drel'
p3062
S'lwg__psp:NP4'
p3063
sS'chunktype'
p3064
S'child:NP4'
p3065
sS'af'
p3066
S'\xe0\xa4\xb8\xe0\xa5\x87,psp,,,,,,'
p3067
ssbsg34
I00
sg35
I00
sg36
Nsg37
Nsg38
I5
sg39
I5
sg40
Nsg41
Nsg42
S'PSP'
p3068
sg44
g3055
sg45
I00
sba(issf_api
Word
p3069
(dp3070
g6
I00
sg7
V\u0932\u0917\u0947
p3071
sg9
(issf_api
FeatureSet
p3072
(dp3073
g12
(dp3074
S'posn'
p3075
S'140'
p3076
sS'name'
p3077
S'\xe0\xa4\xb2\xe0\xa4\x97\xe0\xa5\x87'
p3078
sS'af'
p3079
S'\xe0\xa4\xb2\xe0\xa4\x97,v,m,sg,any,,\xe0\xa4\xaf\xe0\xa4\xbe,yA'
p3080
sS'chunkid'
p3081
S'VGNF'
p3082
sS'drel'
p3083
S'nmod__k1inv:NP5'
p3084
sS'chunktype'
p3085
S'head:VGNF'
p3086
ssbsg34
I00
sg35
I00
sg36
Nsg37
Nsg38
I6
sg39
I5
sg40
Nsg41
Nsg42
S'VM'
p3087
sg44
g3072
sg45
I00
sba(issf_api
Word
p3088
(dp3089
g6
I00
sg7
V\u092e\u0927\u0941\u092c\u0928
p3090
sg9
(issf_api
FeatureSet
p3091
(dp3092
g12
(dp3093
S'posn'
p3094
S'150'
p3095
sS'name'
p3096
S'\xe0\xa4\xae\xe0\xa4\xa7\xe0\xa5\x81\xe0\xa4\xac\xe0\xa4\xa8'
p3097
sS'drel'
p3098
S'nmod__adj:NP5'
p3099
sS'chunktype'
p3100
S'child:NP5'
p3101
sS'af'
p3102
S'\xe0\xa4\xae\xe0\xa4\xa7\xe0\xa5\x81\xe0\xa4\xac\xe0\xa4\xa8,n,m,sg,3,d,0,0'
p3103
ssbsg34
I00
sg35
I00
sg36
Nsg37
Nsg38
I7
sg39
I5
sg40
Nsg41
Nsg42
S'NNP'
p3104
sg44
g3091
sg45
I00
sba(issf_api
Word
p3105
(dp3106
g6
I00
sg7
V\u092c\u094d\u0932\u0949\u0915
p3107
sg9
(issf_api
FeatureSet
p3108
(dp3109
g12
(dp3110
S'posn'
p3111
S'160'
p3112
sS'name'
p3113
S'\xe0\xa4\xac\xe0\xa5\x8d\xe0\xa4\xb2\xe0\xa5\x89\xe0\xa4\x95'
p3114
sS'af'
p3115
S'\xe0\xa4\xac\xe0\xa5\x8d\xe0\xa4\xb2\xe0\xa5\x89\xe0\xa4\x95,n,m,sg,3,o,0_\xe0\xa4\x95\xe0\xa5\x87_\xe0\xa4\x85\xe0\xa4\x82\xe0\xa4\xa4\xe0\xa4\xb0\xe0\xa5\x8d\xe0\xa4\x97\xe0\xa4\xa4,0'
p3116
sS'chunkid'
p3117
S'NP5'
p3118
sS'drel'
p3119
S'k7a:VGNN'
p3120
sS'vpos'
p3121
S'vib_vib_3_4'
p3122
sS'chunktype'
p3123
S'head:NP5'
p3124
ssbsg34
I00
sg35
I00
sg36
Nsg37
Nsg38
I7
sg39
I5
sg40
Nsg41
Nsg42
S'NN'
p3125
sg44
g3108
sg45
I00
sba(issf_api
Word
p3126
(dp3127
g6
I00
sg7
V\u0915\u0947
p3128
sg9
(issf_api
FeatureSet
p3129
(dp3130
g12
(dp3131
S'posn'
p3132
S'170'
p3133
sS'name'
p3134
S'\xe0\xa4\x95\xe0\xa5\x87'
p3135
sS'drel'
p3136
S'lwg__psp:NP5'
p3137
sS'chunktype'
p3138
S'child:NP5'
p3139
sS'af'
p3140
S'\xe0\xa4\x95\xe0\xa5\x87,psp,,,,,,'
p3141
ssbsg34
I00
sg35
I00
sg36
Nsg37
Nsg38
I7
sg39
I5
sg40
Nsg41
Nsg42
S'PSP'
p3142
sg44
g3129
sg45
I00
sba(issf_api
Word
p3143
(dp3144
g6
I00
sg7
V\u0905\u0902\u0924\u0930\u094d\u0917\u0924
p3145
sg9
(issf_api
FeatureSet
p3146
(dp3147
g12
(dp3148
S'posn'
p3149
S'180'
p3150
sS'name'
p3151
S'\xe0\xa4\x85\xe0\xa4\x82\xe0\xa4\xa4\xe0\xa4\xb0\xe0\xa5\x8d\xe0\xa4\x97\xe0\xa4\xa4'
p3152
sS'drel'
p3153
S'lwg__psp:NP5'
p3154
sS'chunktype'
p3155
S'child:NP5'
p3156
sS'af'
p3157
S'\xe0\xa4\x85\xe0\xa4\x82\xe0\xa4\xa4\xe0\xa4\xb0\xe0\xa5\x8d\xe0\xa4\x97\xe0\xa4\xa4,psp,,,,,,'
p3158
ssbsg34
I00
sg35
I00
sg36
Nsg37
Nsg38
I7
sg39
I5
sg40
Nsg41
Nsg42
S'PSP'
p3159
sg44
g3146
sg45
I00
sba(issf_api
Word
p3160
(dp3161
g6
I00
sg7
V\u0906\u0928\u0947
p3162
sg9
(issf_api
FeatureSet
p3163
(dp3164
g12
(dp3165
S'posn'
p3166
S'190'
p3167
sS'name'
p3168
S'\xe0\xa4\x86\xe0\xa4\xa8\xe0\xa5\x87'
p3169
sS'af'
p3170
S'\xe0\xa4\x86,v,any,sg,any,o,\xe0\xa4\xa8\xe0\xa4\xbe_\xe0\xa4\xb5\xe0\xa4\xbe\xe0\xa4\xb2\xe0\xa4\xbe,nA'
p3171
sS'chunkid'
p3172
S'VGNN'
p3173
sS'drel'
p3174
S'nmod:NP6'
p3175
sS'vpos'
p3176
S'tam_2'
p3177
sS'chunktype'
p3178
S'head:VGNN'
p3179
ssbsg34
I00
sg35
I00
sg36
Nsg37
Nsg38
I8
sg39
I5
sg40
Nsg41
Nsg42
S'VM'
p3180
sg44
g3163
sg45
I00
sba(issf_api
Word
p3181
(dp3182
g6
I00
sg7
V\u0935\u093e\u0932\u0947
p3183
sg9
(issf_api
FeatureSet
p3184
(dp3185
g12
(dp3186
S'posn'
p3187
S'200'
p3188
sS'name'
p3189
S'\xe0\xa4\xb5\xe0\xa4\xbe\xe0\xa4\xb2\xe0\xa5\x87'
p3190
sS'drel'
p3191
S'lwg__psp:VGNN'
p3192
sS'chunktype'
p3193
S'child:VGNN'
p3194
sS'af'
p3195
S'\xe0\xa4\xb5\xe0\xa4\xbe\xe0\xa4\xb2\xe0\xa4\xbe,psp,m,sg,,o,,'
p3196
ssbsg34
I00
sg35
I00
sg36
Nsg37
Nsg38
I8
sg39
I5
sg40
Nsg41
Nsg42
S'PSP'
p3197
sg44
g3184
sg45
I00
sba(issf_api
Word
p3198
(dp3199
g6
I00
sg7
V\u092a\u0941\u0932\u093f\u0938
p3200
sg9
(issf_api
FeatureSet
p3201
(dp3202
g12
(dp3203
S'posn'
p3204
S'210'
p3205
sS'name'
p3206
S'\xe0\xa4\xaa\xe0\xa5\x81\xe0\xa4\xb2\xe0\xa4\xbf\xe0\xa4\xb8'
p3207
sS'drel'
p3208
S'pof__cn:NP6'
p3209
sS'chunktype'
p3210
S'child:NP6'
p3211
sS'af'
p3212
S'\xe0\xa4\xaa\xe0\xa5\x81\xe0\xa4\xb2\xe0\xa4\xbf\xe0\xa4\xb8,n,f,sg,3,d,0,0'
p3213
ssbsg34
I00
sg35
I00
sg36
Nsg37
Nsg38
I9
sg39
I5
sg40
Nsg41
Nsg42
S'NNC'
p3214
sg44
g3201
sg45
I00
sba(issf_api
Word
p3215
(dp3216
g6
I00
sg7
V\u0938\u094d\u091f\u0947\u0936\u0928
p3217
sg9
(issf_api
FeatureSet
p3218
(dp3219
g12
(dp3220
S'posn'
p3221
S'220'
p3222
sS'name'
p3223
S'\xe0\xa4\xb8\xe0\xa5\x8d\xe0\xa4\x9f\xe0\xa5\x87\xe0\xa4\xb6\xe0\xa4\xa8'
p3224
sS'af'
p3225
S'\xe0\xa4\xb8\xe0\xa5\x8d\xe0\xa4\x9f\xe0\xa5\x87\xe0\xa4\xb6\xe0\xa4\xa8,n,m,sg,3,o,0,0'
p3226
sS'chunkid'
p3227
S'NP6'
p3228
sS'drel'
p3229
S'ccof:CCP2'
p3230
sS'chunktype'
p3231
S'head:NP6'
p3232
ssbsg34
I00
sg35
I00
sg36
Nsg37
Nsg38
I9
sg39
I5
sg40
Nsg41
Nsg42
S'NN'
p3233
sg44
g3218
sg45
I00
sba(issf_api
Word
p3234
(dp3235
g6
I00
sg7
V,
p3236
sg9
(issf_api
FeatureSet
p3237
(dp3238
g12
(dp3239
S'posn'
p3240
S'230'
p3241
sS'name'
p3242
g451
sS'drel'
p3243
S'rsym:NP6'
p3244
sS'chunktype'
p3245
S'child:NP6'
p3246
sS'af'
p3247
S'COMMA,punc,,,,,,'
p3248
ssbsg34
I00
sg35
I00
sg36
Nsg37
Nsg38
I9
sg39
I5
sg40
Nsg41
Nsg42
S'SYM'
p3249
sg44
g3237
sg45
I00
sba(issf_api
Word
p3250
(dp3251
g6
I00
sg7
V\u092c\u0948\u0902\u0915
p3252
sg9
(issf_api
FeatureSet
p3253
(dp3254
g12
(dp3255
S'posn'
p3256
S'240'
p3257
sS'name'
p3258
S'\xe0\xa4\xac\xe0\xa5\x88\xe0\xa4\x82\xe0\xa4\x95'
p3259
sS'af'
p3260
S'\xe0\xa4\xac\xe0\xa5\x88\xe0\xa4\x82\xe0\xa4\x95,n,m,sg,3,o,0,0'
p3261
sS'chunkid'
p3262
S'NP7'
p3263
sS'drel'
p3264
S'ccof:CCP2'
p3265
sS'chunktype'
p3266
S'head:NP7'
p3267
ssbsg34
I00
sg35
I00
sg36
Nsg37
Nsg38
I10
sg39
I5
sg40
Nsg41
Nsg42
S'NN'
p3268
sg44
g3253
sg45
I00
sba(issf_api
Word
p3269
(dp3270
g6
I00
sg7
V\u0914\u0930
p3271
sg9
(issf_api
FeatureSet
p3272
(dp3273
g12
(dp3274
S'posn'
p3275
S'250'
p3276
sS'name'
p3277
S'\xe0\xa4\x94\xe0\xa4\xb0'
p3278
sS'af'
p3279
S'\xe0\xa4\x94\xe0\xa4\xb0,avy,,,,,,'
p3280
sS'chunkid'
p3281
S'CCP2'
p3282
sS'drel'
p3283
S'k7p:VGF2'
p3284
sS'chunktype'
p3285
S'head:CCP2'
p3286
ssbsg34
I00
sg35
I00
sg36
Nsg37
Nsg38
I11
sg39
I5
sg40
Nsg41
Nsg42
S'CC'
p3287
sg44
g3272
sg45
I00
sba(issf_api
Word
p3288
(dp3289
g6
I00
sg7
V\u0938\u0930\u0915\u093e\u0930\u0940
p3290
sg9
(issf_api
FeatureSet
p3291
(dp3292
g12
(dp3293
S'posn'
p3294
S'260'
p3295
sS'name'
p3296
S'\xe0\xa4\xb8\xe0\xa4\xb0\xe0\xa4\x95\xe0\xa4\xbe\xe0\xa4\xb0\xe0\xa5\x80'
p3297
sS'drel'
p3298
S'nmod__adj:NP8'
p3299
sS'chunktype'
p3300
S'child:NP8'
p3301
sS'af'
p3302
S'\xe0\xa4\xb8\xe0\xa4\xb0\xe0\xa4\x95\xe0\xa4\xbe\xe0\xa4\xb0\xe0\xa5\x80,adj,any,any,,o,,'
p3303
ssbsg34
I00
sg35
I00
sg36
Nsg37
Nsg38
I12
sg39
I5
sg40
Nsg41
Nsg42
S'JJ'
p3304
sg44
g3291
sg45
I00
sba(issf_api
Word
p3305
(dp3306
g6
I00
sg7
V\u0915\u093e\u0930\u094d\u092f\u093e\u0932\u092f\u094b\u0902
p3307
sg9
(issf_api
FeatureSet
p3308
(dp3309
g12
(dp3310
S'posn'
p3311
S'270'
p3312
sS'name'
p3313
S'\xe0\xa4\x95\xe0\xa4\xbe\xe0\xa4\xb0\xe0\xa5\x8d\xe0\xa4\xaf\xe0\xa4\xbe\xe0\xa4\xb2\xe0\xa4\xaf\xe0\xa5\x8b\xe0\xa4\x82'
p3314
sS'af'
p3315
S'\xe0\xa4\x95\xe0\xa4\xbe\xe0\xa4\xb0\xe0\xa5\x8d\xe0\xa4\xaf\xe0\xa4\xbe\xe0\xa4\xb2\xe0\xa4\xaf,n,m,pl,3,o,0_\xe0\xa4\xaa\xe0\xa4\xb0,0'
p3316
sS'chunkid'
p3317
S'NP8'
p3318
sS'drel'
p3319
S'ccof:CCP2'
p3320
sS'vpos'
p3321
S'vib_3'
p3322
sS'chunktype'
p3323
S'head:NP8'
p3324
ssbsg34
I00
sg35
I00
sg36
Nsg37
Nsg38
I12
sg39
I5
sg40
Nsg41
Nsg42
S'NN'
p3325
sg44
g3308
sg45
I00
sba(issf_api
Word
p3326
(dp3327
g6
I00
sg7
V\u092a\u0930
p3328
sg9
(issf_api
FeatureSet
p3329
(dp3330
g12
(dp3331
S'posn'
p3332
S'280'
p3333
sS'name'
p3334
S'\xe0\xa4\xaa\xe0\xa4\xb0'
p3335
sS'drel'
p3336
S'lwg__psp:NP8'
p3337
sS'chunktype'
p3338
S'child:NP8'
p3339
sS'af'
p3340
S'\xe0\xa4\xaa\xe0\xa4\xb0,psp,,,,,,'
p3341
ssbsg34
I00
sg35
I00
sg36
Nsg37
Nsg38
I12
sg39
I5
sg40
Nsg41
Nsg42
S'PSP'
p3342
sg44
g3329
sg45
I00
sba(issf_api
Word
p3343
(dp3344
g6
I00
sg7
V\u0939\u092e\u0932\u0947
p3345
sg9
(issf_api
FeatureSet
p3346
(dp3347
g12
(dp3348
S'posn'
p3349
S'290'
p3350
sS'name'
p3351
S'\xe0\xa4\xb9\xe0\xa4\xae\xe0\xa4\xb2\xe0\xa5\x87'
p3352
sS'af'
p3353
S'\xe0\xa4\xb9\xe0\xa4\xae\xe0\xa4\xb2\xe0\xa4\xbe,n,m,pl,3,d,0,0'
p3354
sS'chunkid'
p3355
S'NP9'
p3356
sS'drel'
p3357
S'pof:VGF2'
p3358
sS'chunktype'
p3359
S'head:NP9'
p3360
ssbsg34
I00
sg35
I00
sg36
Nsg37
Nsg38
I13
sg39
I5
sg40
Nsg41
Nsg42
S'NN'
p3361
sg44
g3346
sg45
I00
sba(issf_api
Word
p3362
(dp3363
g6
I00
sg7
V\u0915\u093f\u090f
p3364
sg9
(issf_api
FeatureSet
p3365
(dp3366
g12
(dp3367
S'posn'
p3368
S'300'
p3369
sS'name'
p3370
S'\xe0\xa4\x95\xe0\xa4\xbf\xe0\xa4\x8f'
p3371
sS'af'
p3372
S'\xe0\xa4\x95\xe0\xa4\xb0,v,m,pl,any,,\xe0\xa4\xaf\xe0\xa4\xbe_\xe0\xa4\xa5\xe0\xa4\xbe,yA'
p3373
sS'chunkid'
p3374
S'VGF2'
p3375
sS'stype'
p3376
S'declarative'
p3377
sS'drel'
p3378
S'ccof:CCP'
p3379
sS'voicetype'
p3380
S'active'
p3381
sS'vpos'
p3382
S'tam_2'
p3383
sS'chunktype'
p3384
S'head:VGF2'
p3385
ssbsg34
I00
sg35
I00
sg36
Nsg37
Nsg38
I14
sg39
I5
sg40
Nsg41
Nsg42
S'VM'
p3386
sg44
g3365
sg45
I00
sba(issf_api
Word
p3387
(dp3388
g6
I00
sg7
V\u0925\u0947
p3389
sg9
(issf_api
FeatureSet
p3390
(dp3391
g12
(dp3392
S'posn'
p3393
S'310'
p3394
sS'name'
p3395
S'\xe0\xa4\xa5\xe0\xa5\x87'
p3396
sS'drel'
p3397
S'lwg__vaux:VGF2'
p3398
sS'chunktype'
p3399
S'child:VGF2'
p3400
sS'af'
p3401
S'\xe0\xa4\xa5\xe0\xa4\xbe,v,m,pl,any,,\xe0\xa4\xa5\xe0\xa4\xbe,WA'
p3402
ssbsg34
I00
sg35
I00
sg36
Nsg37
Nsg38
I14
sg39
I5
sg40
Nsg41
Nsg42
S'VAUX'
p3403
sg44
g3390
sg45
I00
sba(issf_api
Word
p3404
(dp3405
g6
I00
sg7
V\u0964
p3406
sg9
(issf_api
FeatureSet
p3407
(dp3408
g12
(dp3409
S'posn'
p3410
S'320'
p3411
sS'name'
p3412
S'\xe0\xa5\xa4'
p3413
sS'af'
p3414
S'\xe0\xa5\xa4,punc,,,,,,'
p3415
sS'chunkid'
p3416
S'BLK'
p3417
sS'drel'
p3418
S'rsym:VGF'
p3419
sS'chunktype'
p3420
S'head:BLK'
p3421
ssbsg34
I00
sg35
I00
sg36
Nsg37
Nsg38
I15
sg39
I5
sg40
Nsg41
Nsg42
S'SYM'
p3422
sg44
g3407
sg45
I00
sba(issf_api
Word
p3423
(dp3424
g6
I00
sg7
V\u0907\u0928
p3425
sg9
(issf_api
FeatureSet
p3426
(dp3427
g12
(dp3428
S'posn'
p3429
S'10'
p3430
sS'name'
p3431
S'\xe0\xa4\x87\xe0\xa4\xa8'
p3432
sS'drel'
p3433
S'nmod__adj:NP'
p3434
sS'chunktype'
p3435
S'child:NP'
p3436
sS'af'
p3437
S'\xe0\xa4\xaf\xe0\xa4\xb9,pn,any,pl,3,o,,'
p3438
ssbsg34
I00
sg35
I00
sg36
Nsg37
Nsg38
I0
sg39
I6
sg40
Nsg41
Nsg42
S'DEM'
p3439
sg44
g3426
sg45
I00
sba(issf_api
Word
p3440
(dp3441
g6
I00
sg7
V\u0939\u092e\u0932\u094b\u0902
p3442
sg9
(issf_api
FeatureSet
p3443
(dp3444
g12
(dp3445
S'posn'
p3446
S'20'
p3447
sS'name'
p3448
S'\xe0\xa4\xb9\xe0\xa4\xae\xe0\xa4\xb2\xe0\xa5\x8b\xe0\xa4\x82'
p3449
sS'af'
p3450
S'\xe0\xa4\xb9\xe0\xa4\xae\xe0\xa4\xb2\xe0\xa4\xbe,n,m,pl,3,o,0_\xe0\xa4\xae\xe0\xa5\x87\xe0\xa4\x82,0'
p3451
sS'chunkid'
p3452
S'NP'
p3453
sS'drel'
p3454
S'k7:VGF'
p3455
sS'vpos'
p3456
S'vib_3'
p3457
sS'chunktype'
p3458
S'head:NP'
p3459
ssbsg34
I00
sg35
I00
sg36
Nsg37
Nsg38
I0
sg39
I6
sg40
Nsg41
Nsg42
S'NN'
p3460
sg44
g3443
sg45
I00
sba(issf_api
Word
p3461
(dp3462
g6
I00
sg7
V\u092e\u0947\u0902
p3463
sg9
(issf_api
FeatureSet
p3464
(dp3465
g12
(dp3466
S'posn'
p3467
S'30'
p3468
sS'name'
p3469
S'\xe0\xa4\xae\xe0\xa5\x87\xe0\xa4\x82'
p3470
sS'drel'
p3471
S'lwg__psp:NP'
p3472
sS'chunktype'
p3473
S'child:NP'
p3474
sS'af'
p3475
S'\xe0\xa4\xae\xe0\xa5\x87\xe0\xa4\x82,psp,,,,,,'
p3476
ssbsg34
I00
sg35
I00
sg36
Nsg37
Nsg38
I0
sg39
I6
sg40
Nsg41
Nsg42
S'PSP'
p3477
sg44
g3464
sg45
I00
sba(issf_api
Word
p3478
(dp3479
g6
I00
sg7
V\u092a\u0941\u0932\u093f\u0938
p3480
sg9
(issf_api
FeatureSet
p3481
(dp3482
g12
(dp3483
S'posn'
p3484
S'40'
p3485
sS'name'
p3486
S'\xe0\xa4\xaa\xe0\xa5\x81\xe0\xa4\xb2\xe0\xa4\xbf\xe0\xa4\xb8'
p3487
sS'af'
p3488
S'\xe0\xa4\xaa\xe0\xa5\x81\xe0\xa4\xb2\xe0\xa4\xbf\xe0\xa4\xb8,n,f,sg,3,o,0_\xe0\xa4\x95\xe0\xa4\xbe,0'
p3489
sS'chunkid'
p3490
S'NP2'
p3491
sS'drel'
p3492
S'r6:NP3'
p3493
sS'vpos'
p3494
S'vib_2'
p3495
sS'chunktype'
p3496
S'head:NP2'
p3497
ssbsg34
I00
sg35
I00
sg36
Nsg37
Nsg38
I1
sg39
I6
sg40
Nsg41
Nsg42
S'NN'
p3498
sg44
g3481
sg45
I00
sba(issf_api
Word
p3499
(dp3500
g6
I00
sg7
V\u0915\u0947
p3501
sg9
(issf_api
FeatureSet
p3502
(dp3503
g12
(dp3504
S'posn'
p3505
S'50'
p3506
sS'name'
p3507
S'\xe0\xa4\x95\xe0\xa5\x87'
p3508
sS'drel'
p3509
S'lwg__psp:NP2'
p3510
sS'chunktype'
p3511
S'child:NP2'
p3512
sS'af'
p3513
S'\xe0\xa4\x95\xe0\xa4\xbe,psp,m,pl,,d,,'
p3514
ssbsg34
I00
sg35
I00
sg36
Nsg37
Nsg38
I1
sg39
I6
sg40
Nsg41
Nsg42
S'PSP'
p3515
sg44
g3502
sg45
I00
sba(issf_api
Word
p3516
(dp3517
g6
I00
sg7
V\u0915\u0908
p3518
sg9
(issf_api
FeatureSet
p3519
(dp3520
g12
(dp3521
S'posn'
p3522
S'60'
p3523
sS'name'
p3524
S'\xe0\xa4\x95\xe0\xa4\x88'
p3525
sS'drel'
p3526
S'nmod__adj:NP3'
p3527
sS'chunktype'
p3528
S'child:NP3'
p3529
sS'af'
p3530
S'\xe0\xa4\x95\xe0\xa4\x88,avy,,,,,,'
p3531
ssbsg34
I00
sg35
I00
sg36
Nsg37
Nsg38
I2
sg39
I6
sg40
Nsg41
Nsg42
S'QF'
p3532
sg44
g3519
sg45
I00
sba(issf_api
Word
p3533
(dp3534
g6
I00
sg7
V\u091c\u0935\u093e\u0928
p3535
sg9
(issf_api
FeatureSet
p3536
(dp3537
g12
(dp3538
S'posn'
p3539
S'70'
p3540
sS'name'
p3541
S'\xe0\xa4\x9c\xe0\xa4\xb5\xe0\xa4\xbe\xe0\xa4\xa8'
p3542
sS'af'
p3543
S'\xe0\xa4\x9c\xe0\xa4\xb5\xe0\xa4\xbe\xe0\xa4\xa8,n,m,pl,3,d,0,0'
p3544
sS'chunkid'
p3545
S'NP3'
p3546
sS'drel'
p3547
S'k2:VGF'
p3548
sS'chunktype'
p3549
S'head:NP3'
p3550
ssbsg34
I00
sg35
I00
sg36
Nsg37
Nsg38
I2
sg39
I6
sg40
Nsg41
Nsg42
S'NN'
p3551
sg44
g3536
sg45
I00
sba(issf_api
Word
p3552
(dp3553
g6
I00
sg7
V\u092e\u093e\u0930\u0947
p3554
sg9
(issf_api
FeatureSet
p3555
(dp3556
g12
(dp3557
S'posn'
p3558
S'80'
p3559
sS'name'
p3560
S'\xe0\xa4\xae\xe0\xa4\xbe\xe0\xa4\xb0\xe0\xa5\x87'
p3561
sS'af'
p3562
S'\xe0\xa4\xae\xe0\xa4\xbe\xe0\xa4\xb0,v,m,pl,any,,\xe0\xa4\xaf\xe0\xa4\xbe_\xe0\xa4\x9c\xe0\xa4\xbe+\xe0\xa4\xaf\xe0\xa4\xbe1_\xe0\xa4\xa5\xe0\xa4\xbe,yA'
p3563
sS'chunkid'
p3564
S'VGF'
p3565
sS'chunktype'
p3566
S'head:VGF'
p3567
sS'voicetype'
p3568
S'passive'
p3569
sS'vpos'
p3570
S'tam_2_3'
p3571
sS'stype'
p3572
S'declarative'
p3573
ssbsg34
I00
sg35
I00
sg36
Nsg37
Nsg38
I3
sg39
I6
sg40
Nsg41
Nsg42
S'VM'
p3574
sg44
g3555
sg45
I00
sba(issf_api
Word
p3575
(dp3576
g6
I00
sg7
V\u0917\u090f
p3577
sg9
(issf_api
FeatureSet
p3578
(dp3579
g12
(dp3580
S'posn'
p3581
S'90'
p3582
sS'name'
p3583
S'\xe0\xa4\x97\xe0\xa4\x8f'
p3584
sS'drel'
p3585
S'lwg__vaux:VGF'
p3586
sS'chunktype'
p3587
S'child:VGF'
p3588
sS'af'
p3589
S'\xe0\xa4\x9c\xe0\xa4\xbe,v,m,pl,any,,\xe0\xa4\xaf\xe0\xa4\xbe1,yA1'
p3590
ssbsg34
I00
sg35
I00
sg36
Nsg37
Nsg38
I3
sg39
I6
sg40
Nsg41
Nsg42
S'VAUX'
p3591
sg44
g3578
sg45
I00
sba(issf_api
Word
p3592
(dp3593
g6
I00
sg7
V\u0925\u0947
p3594
sg9
(issf_api
FeatureSet
p3595
(dp3596
g12
(dp3597
S'posn'
p3598
S'100'
p3599
sS'name'
p3600
S'\xe0\xa4\xa5\xe0\xa5\x87'
p3601
sS'drel'
p3602
S'lwg__vaux:VGF'
p3603
sS'chunktype'
p3604
S'child:VGF'
p3605
sS'af'
p3606
S'\xe0\xa4\xa5\xe0\xa4\xbe,v,m,pl,any,,\xe0\xa4\xa5\xe0\xa4\xbe,WA'
p3607
ssbsg34
I00
sg35
I00
sg36
Nsg37
Nsg38
I3
sg39
I6
sg40
Nsg41
Nsg42
S'VAUX'
p3608
sg44
g3595
sg45
I00
sba(issf_api
Word
p3609
(dp3610
g6
I00
sg7
V\u0964
p3611
sg9
(issf_api
FeatureSet
p3612
(dp3613
g12
(dp3614
S'posn'
p3615
S'110'
p3616
sS'name'
p3617
S'\xe0\xa5\xa4'
p3618
sS'af'
p3619
S'\xe0\xa5\xa4,punc,,,,,,'
p3620
sS'chunkid'
p3621
S'BLK'
p3622
sS'drel'
p3623
S'rsym:VGF'
p3624
sS'chunktype'
p3625
S'head:BLK'
p3626
ssbsg34
I00
sg35
I00
sg36
Nsg37
Nsg38
I4
sg39
I6
sg40
Nsg41
Nsg42
S'SYM'
p3627
sg44
g3612
sg45
I00
sba(issf_api
Word
p3628
(dp3629
g6
I00
sg7
V\u092f\u0939\u093e\u0901
p3630
sg9
(issf_api
FeatureSet
p3631
(dp3632
g12
(dp3633
S'crefhead'
p3634
S'\xe0\xa4\xaf\xe0\xa4\xb9\xe0\xa4\xbe\xe0\xa4\x81:i18'
p3635
sS'posn'
p3636
S'10'
p3637
sS'name'
p3638
S'\xe0\xa4\xaf\xe0\xa4\xb9\xe0\xa4\xbe\xe0\xa4\x81'
p3639
sS'af'
p3640
S'\xe0\xa4\xaf\xe0\xa4\xb9\xe0\xa4\xbe\xe0\xa4\x81,pn,,,,o,0_\xe0\xa4\x95\xe0\xa4\xbe,'
p3641
sS'acrefmodhead'
p3642
S'\xe0\xa4\xaf\xe0\xa4\xb9\xe0\xa4\xbe\xe0\xa4\x81:m3'
p3643
sS'chunkid'
p3644
S'NP'
p3645
sS'acrefmod'
p3646
S'm3%1:i19'
p3647
sS'creftype'
p3648
S'Anaphora-C:i16'
p3649
sS'chunktype'
p3650
S'head:NP'
p3651
sS'vpos'
p3652
S'vib_2'
p3653
sS'cref'
p3654
S'i18%1:t7'
p3655
sS'drel'
p3656
S'r6:NP2'
p3657
ssbsg34
I00
sg35
I00
sg36
Nsg37
Nsg38
I0
sg39
I7
sg40
Nsg41
Nsg42
S'PRP'
p3658
sg44
g3631
sg45
I00
sba(issf_api
Word
p3659
(dp3660
g6
I00
sg7
V\u0915\u0947
p3661
sg9
(issf_api
FeatureSet
p3662
(dp3663
g12
(dp3664
S'posn'
p3665
S'20'
p3666
sS'name'
p3667
S'\xe0\xa4\x95\xe0\xa5\x87'
p3668
sS'drel'
p3669
S'lwg__psp:NP'
p3670
sS'chunktype'
p3671
S'child:NP'
p3672
sS'af'
p3673
S'\xe0\xa4\x95\xe0\xa4\xbe,psp,m,pl,,o,,'
p3674
ssbsg34
I00
sg35
I00
sg36
Nsg37
Nsg38
I0
sg39
I7
sg40
Nsg41
Nsg42
S'PSP'
p3675
sg44
g3662
sg45
I00
sba(issf_api
Word
p3676
(dp3677
g6
I00
sg7
V\u092e\u093e\u0913\u0935\u093e\u0926\u0940
p3678
sg9
(issf_api
FeatureSet
p3679
(dp3680
g12
(dp3681
S'posn'
p3682
S'30'
p3683
sS'name'
p3684
S'\xe0\xa4\xae\xe0\xa4\xbe\xe0\xa4\x93\xe0\xa4\xb5\xe0\xa4\xbe\xe0\xa4\xa6\xe0\xa5\x80'
p3685
sS'af'
p3686
S'\xe0\xa4\xae\xe0\xa4\xbe\xe0\xa4\x93\xe0\xa4\xb5\xe0\xa4\xbe\xe0\xa4\xa6\xe0\xa5\x80,adj,any,any,,o,,'
p3687
sS'drel'
p3688
S'nmod__adj:NP2'
p3689
sS'chunktype'
p3690
S'child:NP2'
p3691
sS'cref'
p3692
S'i19%0:t3'
p3693
ssbsg34
I00
sg35
I00
sg36
Nsg37
Nsg38
I1
sg39
I7
sg40
Nsg41
Nsg42
S'JJ'
p3694
sg44
g3679
sg45
I00
sba(issf_api
Word
p3695
(dp3696
g6
I00
sg7
V\u091b\u093e\u092a\u093e\u092e\u093e\u0930\u094b\u0902
p3697
sg9
(issf_api
FeatureSet
p3698
(dp3699
g12
(dp3700
S'crefhead'
p3701
S'\xe0\xa4\x9b\xe0\xa4\xbe\xe0\xa4\xaa\xe0\xa4\xbe\xe0\xa4\xae\xe0\xa4\xbe\xe0\xa4\xb0\xe0\xa5\x8b\xe0\xa4\x82:i19'
p3702
sS'posn'
p3703
S'40'
p3704
sS'name'
p3705
S'\xe0\xa4\x9b\xe0\xa4\xbe\xe0\xa4\xaa\xe0\xa4\xbe\xe0\xa4\xae\xe0\xa4\xbe\xe0\xa4\xb0\xe0\xa5\x8b\xe0\xa4\x82'
p3706
sS'af'
p3707
S'\xe0\xa4\x9b\xe0\xa4\xbe\xe0\xa4\xaa\xe0\xa4\xbe\xe0\xa4\xae\xe0\xa4\xbe\xe0\xa4\xb0,n,m,pl,3,o,0_\xe0\xa4\x95\xe0\xa5\x8b,0'
p3708
sS'chunkid'
p3709
S'NP2'
p3710
sS'crefmod'
p3711
S'm3:i19'
p3712
sS'creftype'
p3713
S'Coreference-Identity:i3'
p3714
sS'chunktype'
p3715
S'head:NP2'
p3716
sS'crefchainhead'
p3717
S'i19:t3'
p3718
sS'vpos'
p3719
S'vib_3'
p3720
sS'cref'
p3721
S'i19%1:t3'
p3722
sS'drel'
p3723
S'k4:VGNN'
p3724
ssbsg34
I00
sg35
I00
sg36
Nsg37
Nsg38
I1
sg39
I7
sg40
Nsg41
Nsg42
S'NN'
p3725
sg44
g3698
sg45
I00
sba(issf_api
Word
p3726
(dp3727
g6
I00
sg7
V\u0915\u094b
p3728
sg9
(issf_api
FeatureSet
p3729
(dp3730
g12
(dp3731
S'posn'
p3732
S'50'
p3733
sS'name'
p3734
S'\xe0\xa4\x95\xe0\xa5\x8b'
p3735
sS'drel'
p3736
S'lwg__psp:NP2'
p3737
sS'chunktype'
p3738
S'child:NP2'
p3739
sS'af'
p3740
S'\xe0\xa4\x95\xe0\xa5\x8b,psp,,,,,,'
p3741
ssbsg34
I00
sg35
I00
sg36
Nsg37
Nsg38
I1
sg39
I7
sg40
Nsg41
Nsg42
S'PSP'
p3742
sg44
g3729
sg45
I00
sba(issf_api
Word
p3743
(dp3744
g6
I00
sg7
V\u0928\u0947\u092a\u093e\u0932
p3745
sg9
(issf_api
FeatureSet
p3746
(dp3747
g12
(dp3748
S'crefhead'
p3749
S'\xe0\xa4\xa8\xe0\xa5\x87\xe0\xa4\xaa\xe0\xa4\xbe\xe0\xa4\xb2:i20'
p3750
sS'posn'
p3751
S'60'
p3752
sS'name'
p3753
S'\xe0\xa4\xa8\xe0\xa5\x87\xe0\xa4\xaa\xe0\xa4\xbe\xe0\xa4\xb2'
p3754
sS'af'
p3755
S'\xe0\xa4\xa8\xe0\xa5\x87\xe0\xa4\xaa\xe0\xa4\xbe\xe0\xa4\xb2,n,m,sg,3,o,0_\xe0\xa4\x95\xe0\xa4\xbe,0'
p3756
sS'acrefmodhead'
p3757
S'\xe0\xa4\xa8\xe0\xa5\x87\xe0\xa4\xaa\xe0\xa4\xbe\xe0\xa4\xb2:m4'
p3758
sS'chunkid'
p3759
S'NP3'
p3760
sS'acrefmod'
p3761
S'm4%1:i21'
p3762
sS'creftype'
p3763
S'Coreference-Identity:i17'
p3764
sS'chunktype'
p3765
S'head:NP3'
p3766
sS'vpos'
p3767
S'vib_2'
p3768
sS'cref'
p3769
S'i20%1:t4'
p3770
sS'drel'
p3771
S'r6:NP4'
p3772
ssbsg34
I00
sg35
I00
sg36
Nsg37
Nsg38
I2
sg39
I7
sg40
Nsg41
Nsg42
S'NNP'
p3773
sg44
g3746
sg45
I00
sba(issf_api
Word
p3774
(dp3775
g6
I00
sg7
V\u0915\u0947
p3776
sg9
(issf_api
FeatureSet
p3777
(dp3778
g12
(dp3779
S'posn'
p3780
S'70'
p3781
sS'name'
p3782
S'\xe0\xa4\x95\xe0\xa5\x872'
p3783
sS'drel'
p3784
S'lwg__psp:NP3'
p3785
sS'chunktype'
p3786
S'child:NP3'
p3787
sS'af'
p3788
S'\xe0\xa4\x95\xe0\xa4\xbe,psp,m,pl,,o,,'
p3789
ssbsg34
I00
sg35
I00
sg36
Nsg37
Nsg38
I2
sg39
I7
sg40
Nsg41
Nsg42
S'PSP'
p3790
sg44
g3777
sg45
I00
sba(issf_api
Word
p3791
(dp3792
g6
I00
sg7
V\u092e\u093e\u0913\u0935\u093e\u0926\u0940
p3793
sg9
(issf_api
FeatureSet
p3794
(dp3795
g12
(dp3796
S'posn'
p3797
S'80'
p3798
sS'name'
p3799
S'\xe0\xa4\xae\xe0\xa4\xbe\xe0\xa4\x93\xe0\xa4\xb5\xe0\xa4\xbe\xe0\xa4\xa6\xe0\xa5\x802'
p3800
sS'af'
p3801
S'\xe0\xa4\xae\xe0\xa4\xbe\xe0\xa4\x93\xe0\xa4\xb5\xe0\xa4\xbe\xe0\xa4\xa6\xe0\xa5\x80,adj,any,any,,o,,'
p3802
sS'drel'
p3803
S'nmod__adj:NP4'
p3804
sS'chunktype'
p3805
S'child:NP4'
p3806
sS'cref'
p3807
S'i21%0:t9'
p3808
ssbsg34
I00
sg35
I00
sg36
Nsg37
Nsg38
I3
sg39
I7
sg40
Nsg41
Nsg42
S'JJ'
p3809
sg44
g3794
sg45
I00
sba(issf_api
Word
p3810
(dp3811
g6
I00
sg7
V\u0935\u093f\u0926\u094d\u0930\u094b\u0939\u093f\u092f\u094b\u0902
p3812
sg9
(issf_api
FeatureSet
p3813
(dp3814
g12
(dp3815
S'crefhead'
p3816
S'\xe0\xa4\xb5\xe0\xa4\xbf\xe0\xa4\xa6\xe0\xa5\x8d\xe0\xa4\xb0\xe0\xa5\x8b\xe0\xa4\xb9\xe0\xa4\xbf\xe0\xa4\xaf\xe0\xa5\x8b\xe0\xa4\x82:i21'
p3817
sS'posn'
p3818
S'90'
p3819
sS'name'
p3820
S'\xe0\xa4\xb5\xe0\xa4\xbf\xe0\xa4\xa6\xe0\xa5\x8d\xe0\xa4\xb0\xe0\xa5\x8b\xe0\xa4\xb9\xe0\xa4\xbf\xe0\xa4\xaf\xe0\xa5\x8b\xe0\xa4\x82'
p3821
sS'af'
p3822
S'\xe0\xa4\xb5\xe0\xa4\xbf\xe0\xa4\xa6\xe0\xa5\x8d\xe0\xa4\xb0\xe0\xa5\x8b\xe0\xa4\xb9\xe0\xa5\x80,n,m,pl,3,o,0_\xe0\xa4\xb8\xe0\xa5\x87,0'
p3823
sS'chunkid'
p3824
S'NP4'
p3825
sS'crefmod'
p3826
S'm4:i21'
p3827
sS'creftype'
p3828
S'Coreference-Identity:i15'
p3829
sS'chunktype'
p3830
S'head:NP4'
p3831
sS'vpos'
p3832
S'vib_3'
p3833
sS'cref'
p3834
S'i21%1:t9'
p3835
sS'drel'
p3836
S'k5:VGNN'
p3837
ssbsg34
I00
sg35
I00
sg36
Nsg37
Nsg38
I3
sg39
I7
sg40
Nsg41
Nsg42
S'NN'
p3838
sg44
g3813
sg45
I00
sba(issf_api
Word
p3839
(dp3840
g6
I00
sg7
V\u0938\u0947
p3841
sg9
(issf_api
FeatureSet
p3842
(dp3843
g12
(dp3844
S'posn'
p3845
S'100'
p3846
sS'name'
p3847
S'\xe0\xa4\xb8\xe0\xa5\x87'
p3848
sS'drel'
p3849
S'lwg__psp:NP4'
p3850
sS'chunktype'
p3851
S'child:NP4'
p3852
sS'af'
p3853
S'\xe0\xa4\xb8\xe0\xa5\x87,psp,,,,,,'
p3854
ssbsg34
I00
sg35
I00
sg36
Nsg37
Nsg38
I3
sg39
I7
sg40
Nsg41
Nsg42
S'PSP'
p3855
sg44
g3842
sg45
I00
sba(issf_api
Word
p3856
(dp3857
g6
I00
sg7
V\u0939\u0930
p3858
sg9
(issf_api
FeatureSet
p3859
(dp3860
g12
(dp3861
S'posn'
p3862
S'110'
p3863
sS'name'
p3864
S'\xe0\xa4\xb9\xe0\xa4\xb0'
p3865
sS'drel'
p3866
S'nmod__adj:NP5'
p3867
sS'chunktype'
p3868
S'child:NP5'
p3869
sS'af'
p3870
S'\xe0\xa4\xb9\xe0\xa4\xb0,avy,,,,,,'
p3871
ssbsg34
I00
sg35
I00
sg36
Nsg37
Nsg38
I4
sg39
I7
sg40
Nsg41
Nsg42
S'QF'
p3872
sg44
g3859
sg45
I00
sba(issf_api
Word
p3873
(dp3874
g6
I00
sg7
V\u0938\u0902\u092d\u0935
p3875
sg9
(issf_api
FeatureSet
p3876
(dp3877
g12
(dp3878
S'posn'
p3879
S'120'
p3880
sS'name'
p3881
S'\xe0\xa4\xb8\xe0\xa4\x82\xe0\xa4\xad\xe0\xa4\xb5'
p3882
sS'drel'
p3883
S'nmod__adj:NP5'
p3884
sS'chunktype'
p3885
S'child:NP5'
p3886
sS'af'
p3887
S'\xe0\xa4\xb8\xe0\xa4\x82\xe0\xa4\xad\xe0\xa4\xb5,adj,any,any,,d,,'
p3888
ssbsg34
I00
sg35
I00
sg36
Nsg37
Nsg38
I4
sg39
I7
sg40
Nsg41
Nsg42
S'JJ'
p3889
sg44
g3876
sg45
I00
sba(issf_api
Word
p3890
(dp3891
g6
I00
sg7
V\u0938\u0939\u093e\u092f\u0924\u093e
p3892
sg9
(issf_api
FeatureSet
p3893
(dp3894
g12
(dp3895
S'posn'
p3896
S'130'
p3897
sS'name'
p3898
S'\xe0\xa4\xb8\xe0\xa4\xb9\xe0\xa4\xbe\xe0\xa4\xaf\xe0\xa4\xa4\xe0\xa4\xbe'
p3899
sS'af'
p3900
S'\xe0\xa4\xb8\xe0\xa4\xb9\xe0\xa4\xbe\xe0\xa4\xaf\xe0\xa4\xa4\xe0\xa4\xbe,n,f,sg,3,d,0,0'
p3901
sS'chunkid'
p3902
S'NP5'
p3903
sS'drel'
p3904
S'k1:VGNN'
p3905
sS'chunktype'
p3906
S'head:NP5'
p3907
ssbsg34
I00
sg35
I00
sg36
Nsg37
Nsg38
I4
sg39
I7
sg40
Nsg41
Nsg42
S'NN'
p3908
sg44
g3893
sg45
I00
sba(issf_api
Word
p3909
(dp3910
g6
I00
sg7
V\u092e\u093f\u0932\u0928\u0947
p3911
sg9
(issf_api
FeatureSet
p3912
(dp3913
g12
(dp3914
S'posn'
p3915
S'140'
p3916
sS'name'
p3917
S'\xe0\xa4\xae\xe0\xa4\xbf\xe0\xa4\xb2\xe0\xa4\xa8\xe0\xa5\x87'
p3918
sS'af'
p3919
S'\xe0\xa4\xae\xe0\xa4\xbf\xe0\xa4\xb2,v,any,sg,any,o,\xe0\xa4\xa8\xe0\xa4\xbe_\xe0\xa4\x95\xe0\xa4\xbe,nA'
p3920
sS'chunkid'
p3921
S'VGNN'
p3922
sS'drel'
p3923
S'r6:NP6'
p3924
sS'vpos'
p3925
S'tam_2'
p3926
sS'chunktype'
p3927
S'head:VGNN'
p3928
ssbsg34
I00
sg35
I00
sg36
Nsg37
Nsg38
I5
sg39
I7
sg40
Nsg41
Nsg42
S'VM'
p3929
sg44
g3912
sg45
I00
sba(issf_api
Word
p3930
(dp3931
g6
I00
sg7
V\u0915\u0940
p3932
sg9
(issf_api
FeatureSet
p3933
(dp3934
g12
(dp3935
S'posn'
p3936
S'150'
p3937
sS'name'
p3938
S'\xe0\xa4\x95\xe0\xa5\x80'
p3939
sS'drel'
p3940
S'lwg__psp:VGNN'
p3941
sS'chunktype'
p3942
S'child:VGNN'
p3943
sS'af'
p3944
S'\xe0\xa4\x95\xe0\xa4\xbe,psp,f,sg,,d,,'
p3945
ssbsg34
I00
sg35
I00
sg36
Nsg37
Nsg38
I5
sg39
I7
sg40
Nsg41
Nsg42
S'PSP'
p3946
sg44
g3933
sg45
I00
sba(issf_api
Word
p3947
(dp3948
g6
I00
sg7
V\u092d\u0940
p3949
sg9
(issf_api
FeatureSet
p3950
(dp3951
g12
(dp3952
S'posn'
p3953
S'160'
p3954
sS'name'
p3955
S'\xe0\xa4\xad\xe0\xa5\x80'
p3956
sS'drel'
p3957
S'lwg__rp:VGNN'
p3958
sS'chunktype'
p3959
S'child:VGNN'
p3960
sS'af'
p3961
S'\xe0\xa4\xad\xe0\xa5\x80,avy,,,,,,'
p3962
ssbsg34
I00
sg35
I00
sg36
Nsg37
Nsg38
I5
sg39
I7
sg40
Nsg41
Nsg42
S'RP'
p3963
sg44
g3950
sg45
I00
sba(issf_api
Word
p3964
(dp3965
g6
I00
sg7
V\u0916\u092c\u0930
p3966
sg9
(issf_api
FeatureSet
p3967
(dp3968
g12
(dp3969
S'posn'
p3970
S'170'
p3971
sS'name'
p3972
S'\xe0\xa4\x96\xe0\xa4\xac\xe0\xa4\xb0'
p3973
sS'af'
p3974
S'\xe0\xa4\x96\xe0\xa4\xac\xe0\xa4\xb0,n,f,sg,3,d,0,0'
p3975
sS'chunkid'
p3976
S'NP6'
p3977
sS'drel'
p3978
S'k1:VGF'
p3979
sS'chunktype'
p3980
S'head:NP6'
p3981
ssbsg34
I00
sg35
I00
sg36
Nsg37
Nsg38
I6
sg39
I7
sg40
Nsg41
Nsg42
S'NN'
p3982
sg44
g3967
sg45
I00
sba(issf_api
Word
p3983
(dp3984
g6
I00
sg7
V\u0939\u0948
p3985
sg9
(issf_api
FeatureSet
p3986
(dp3987
g12
(dp3988
S'posn'
p3989
S'180'
p3990
sS'name'
p3991
S'\xe0\xa4\xb9\xe0\xa5\x88'
p3992
sS'af'
p3993
S'\xe0\xa4\xb9\xe0\xa5\x88,v,any,sg,3,,\xe0\xa4\xb9\xe0\xa5\x88,hE'
p3994
sS'chunkid'
p3995
S'VGF'
p3996
sS'chunktype'
p3997
S'head:VGF'
p3998
sS'voicetype'
p3999
S'active'
p4000
sS'stype'
p4001
S'declarative'
p4002
ssbsg34
I00
sg35
I00
sg36
Nsg37
Nsg38
I7
sg39
I7
sg40
Nsg41
Nsg42
S'VM'
p4003
sg44
g3986
sg45
I00
sba(issf_api
Word
p4004
(dp4005
g6
I00
sg7
V\u0964
p4006
sg9
(issf_api
FeatureSet
p4007
(dp4008
g12
(dp4009
S'posn'
p4010
S'190'
p4011
sS'name'
p4012
S'\xe0\xa5\xa4'
p4013
sS'af'
p4014
S'\xe0\xa5\xa4,punc,,,,,,'
p4015
sS'chunkid'
p4016
S'BLK'
p4017
sS'drel'
p4018
S'rsym:VGF'
p4019
sS'chunktype'
p4020
S'head:BLK'
p4021
ssbsg34
I00
sg35
I00
sg36
Nsg37
Nsg38
I8
sg39
I7
sg40
Nsg41
Nsg42
S'SYM'
p4022
sg44
g4007
sg45
I00
sba(issf_api
Word
p4023
(dp4024
g6
I00
sg7
V\u0905\u0927\u093f\u0915\u093e\u0930\u093f\u092f\u094b\u0902
p4025
sg9
(issf_api
FeatureSet
p4026
(dp4027
g12
(dp4028
S'posn'
p4029
S'10'
p4030
sS'name'
p4031
S'\xe0\xa4\x85\xe0\xa4\xa7\xe0\xa4\xbf\xe0\xa4\x95\xe0\xa4\xbe\xe0\xa4\xb0\xe0\xa4\xbf\xe0\xa4\xaf\xe0\xa5\x8b\xe0\xa4\x82'
p4032
sS'af'
p4033
S'\xe0\xa4\x85\xe0\xa4\xa7\xe0\xa4\xbf\xe0\xa4\x95\xe0\xa4\xbe\xe0\xa4\xb0\xe0\xa5\x80,n,m,pl,3,o,0_\xe0\xa4\xa8\xe0\xa5\x87,0'
p4034
sS'chunkid'
p4035
S'NP'
p4036
sS'drel'
p4037
S'k1:VGF'
p4038
sS'vpos'
p4039
S'vib_2'
p4040
sS'chunktype'
p4041
S'head:NP'
p4042
ssbsg34
I00
sg35
I00
sg36
Nsg37
Nsg38
I0
sg39
I8
sg40
Nsg41
Nsg42
S'NN'
p4043
sg44
g4026
sg45
I00
sba(issf_api
Word
p4044
(dp4045
g6
I00
sg7
V\u0928\u0947
p4046
sg9
(issf_api
FeatureSet
p4047
(dp4048
g12
(dp4049
S'posn'
p4050
S'20'
p4051
sS'name'
p4052
S'\xe0\xa4\xa8\xe0\xa5\x87'
p4053
sS'drel'
p4054
S'lwg__psp:NP'
p4055
sS'chunktype'
p4056
S'child:NP'
p4057
sS'af'
p4058
S'\xe0\xa4\xa8\xe0\xa5\x87,psp,,,,,,'
p4059
ssbsg34
I00
sg35
I00
sg36
Nsg37
Nsg38
I0
sg39
I8
sg40
Nsg41
Nsg42
S'PSP'
p4060
sg44
g4047
sg45
I00
sba(issf_api
Word
p4061
(dp4062
g6
I00
sg7
V\u092c\u0924\u093e\u092f\u093e
p4063
sg9
(issf_api
FeatureSet
p4064
(dp4065
g12
(dp4066
S'posn'
p4067
S'30'
p4068
sS'name'
p4069
S'\xe0\xa4\xac\xe0\xa4\xa4\xe0\xa4\xbe\xe0\xa4\xaf\xe0\xa4\xbe'
p4070
sS'af'
p4071
S'\xe0\xa4\xac\xe0\xa4\xa4\xe0\xa4\xbe,v,m,sg,any,,\xe0\xa4\xaf\xe0\xa4\xbe,yA'
p4072
sS'chunkid'
p4073
S'VGF'
p4074
sS'chunktype'
p4075
S'head:VGF'
p4076
sS'voicetype'
p4077
S'active'
p4078
sS'stype'
p4079
S'declarative'
p4080
ssbsg34
I00
sg35
I00
sg36
Nsg37
Nsg38
I1
sg39
I8
sg40
Nsg41
Nsg42
S'VM'
p4081
sg44
g4064
sg45
I00
sba(issf_api
Word
p4082
(dp4083
g6
I00
sg7
V\u0915\u093f
p4084
sg9
(issf_api
FeatureSet
p4085
(dp4086
g12
(dp4087
S'posn'
p4088
S'40'
p4089
sS'name'
p4090
S'\xe0\xa4\x95\xe0\xa4\xbf'
p4091
sS'af'
p4092
S'\xe0\xa4\x95\xe0\xa4\xbf,avy,,,,,,'
p4093
sS'chunkid'
p4094
S'CCP'
p4095
sS'drel'
p4096
S'k2:VGF'
p4097
sS'chunktype'
p4098
S'head:CCP'
p4099
ssbsg34
I00
sg35
I00
sg36
Nsg37
Nsg38
I2
sg39
I8
sg40
Nsg41
Nsg42
S'CC'
p4100
sg44
g4085
sg45
I00
sba(issf_api
Word
p4101
(dp4102
g6
I00
sg7
V\u0939\u093f\u0902\u0938\u093e
p4103
sg9
(issf_api
FeatureSet
p4104
(dp4105
g12
(dp4106
S'posn'
p4107
S'50'
p4108
sS'name'
p4109
S'\xe0\xa4\xb9\xe0\xa4\xbf\xe0\xa4\x82\xe0\xa4\xb8\xe0\xa4\xbe'
p4110
sS'af'
p4111
S'\xe0\xa4\xb9\xe0\xa4\xbf\xe0\xa4\x82\xe0\xa4\xb8\xe0\xa4\xbe,n,f,sg,3,o,0_\xe0\xa4\x95\xe0\xa4\xbe,0'
p4112
sS'chunkid'
p4113
S'NP2'
p4114
sS'drel'
p4115
S'r6:NP3'
p4116
sS'vpos'
p4117
S'vib_2'
p4118
sS'chunktype'
p4119
S'head:NP2'
p4120
ssbsg34
I00
sg35
I00
sg36
Nsg37
Nsg38
I3
sg39
I8
sg40
Nsg41
Nsg42
S'NN'
p4121
sg44
g4104
sg45
I00
sba(issf_api
Word
p4122
(dp4123
g6
I00
sg7
V\u0915\u0940
p4124
sg9
(issf_api
FeatureSet
p4125
(dp4126
g12
(dp4127
S'posn'
p4128
S'60'
p4129
sS'name'
p4130
S'\xe0\xa4\x95\xe0\xa5\x80'
p4131
sS'drel'
p4132
S'lwg__psp:NP2'
p4133
sS'chunktype'
p4134
S'child:NP2'
p4135
sS'af'
p4136
S'\xe0\xa4\x95\xe0\xa4\xbe,psp,f,sg,,o,,'
p4137
ssbsg34
I00
sg35
I00
sg36
Nsg37
Nsg38
I3
sg39
I8
sg40
Nsg41
Nsg42
S'PSP'
p4138
sg44
g4125
sg45
I00
sba(issf_api
Word
p4139
(dp4140
g6
I00
sg7
V\u0918\u091f\u0928\u093e
p4141
sg9
(issf_api
FeatureSet
p4142
(dp4143
g12
(dp4144
S'posn'
p4145
S'70'
p4146
sS'name'
p4147
S'\xe0\xa4\x98\xe0\xa4\x9f\xe0\xa4\xa8\xe0\xa4\xbe'
p4148
sS'af'
p4149
S'\xe0\xa4\x98\xe0\xa4\x9f\xe0\xa4\xa8\xe0\xa4\xbe,n,f,sg,3,o,0_\xe0\xa4\x95\xe0\xa5\x8b,0'
p4150
sS'chunkid'
p4151
S'NP3'
p4152
sS'drel'
p4153
S'k2:VGNN'
p4154
sS'vpos'
p4155
S'vib_2'
p4156
sS'chunktype'
p4157
S'head:NP3'
p4158
ssbsg34
I00
sg35
I00
sg36
Nsg37
Nsg38
I4
sg39
I8
sg40
Nsg41
Nsg42
S'NN'
p4159
sg44
g4142
sg45
I00
sba(issf_api
Word
p4160
(dp4161
g6
I00
sg7
V\u0915\u094b
p4162
sg9
(issf_api
FeatureSet
p4163
(dp4164
g12
(dp4165
S'posn'
p4166
S'80'
p4167
sS'name'
p4168
S'\xe0\xa4\x95\xe0\xa5\x8b'
p4169
sS'drel'
p4170
S'lwg__psp:NP3'
p4171
sS'chunktype'
p4172
S'child:NP3'
p4173
sS'af'
p4174
S'\xe0\xa4\x95\xe0\xa5\x8b,psp,,,,,,'
p4175
ssbsg34
I00
sg35
I00
sg36
Nsg37
Nsg38
I4
sg39
I8
sg40
Nsg41
Nsg42
S'PSP'
p4176
sg44
g4163
sg45
I00
sba(issf_api
Word
p4177
(dp4178
g6
I00
sg7
V\u0905\u0902\u091c\u093e\u092e
p4179
sg9
(issf_api
FeatureSet
p4180
(dp4181
g12
(dp4182
S'posn'
p4183
S'90'
p4184
sS'name'
p4185
S'\xe0\xa4\x85\xe0\xa4\x82\xe0\xa4\x9c\xe0\xa4\xbe\xe0\xa4\xae'
p4186
sS'af'
p4187
S'\xe0\xa4\x85\xe0\xa4\x82\xe0\xa4\x9c\xe0\xa4\xbe\xe0\xa4\xae,n,m,sg,3,d,0,0'
p4188
sS'chunkid'
p4189
S'NP4'
p4190
sS'drel'
p4191
S'pof:VGNN'
p4192
sS'chunktype'
p4193
S'head:NP4'
p4194
ssbsg34
I00
sg35
I00
sg36
Nsg37
Nsg38
I5
sg39
I8
sg40
Nsg41
Nsg42
S'NN'
p4195
sg44
g4180
sg45
I00
sba(issf_api
Word
p4196
(dp4197
g6
I00
sg7
V\u0926\u0947\u0928\u0947
p4198
sg9
(issf_api
FeatureSet
p4199
(dp4200
g12
(dp4201
S'posn'
p4202
S'100'
p4203
sS'name'
p4204
S'\xe0\xa4\xa6\xe0\xa5\x87\xe0\xa4\xa8\xe0\xa5\x87'
p4205
sS'af'
p4206
S'\xe0\xa4\xa6\xe0\xa5\x87,v,any,sg,3,o,\xe0\xa4\xa8\xe0\xa4\xbe_\xe0\xa4\x95\xe0\xa5\x87_\xe0\xa4\xac\xe0\xa4\xbe\xe0\xa4\xa6,nA'
p4207
sS'chunkid'
p4208
S'VGNN'
p4209
sS'drel'
p4210
S'k7t:VGF2'
p4211
sS'vpos'
p4212
S'tam_2_3'
p4213
sS'chunktype'
p4214
S'head:VGNN'
p4215
ssbsg34
I00
sg35
I00
sg36
Nsg37
Nsg38
I6
sg39
I8
sg40
Nsg41
Nsg42
S'VM'
p4216
sg44
g4199
sg45
I00
sba(issf_api
Word
p4217
(dp4218
g6
I00
sg7
V\u0915\u0947
p4219
sg9
(issf_api
FeatureSet
p4220
(dp4221
g12
(dp4222
S'posn'
p4223
S'110'
p4224
sS'name'
p4225
S'\xe0\xa4\x95\xe0\xa5\x87'
p4226
sS'drel'
p4227
S'lwg__psp:VGNN'
p4228
sS'chunktype'
p4229
S'child:VGNN'
p4230
sS'af'
p4231
S'\xe0\xa4\x95\xe0\xa5\x87,psp,,,,,,'
p4232
ssbsg34
I00
sg35
I00
sg36
Nsg37
Nsg38
I6
sg39
I8
sg40
Nsg41
Nsg42
S'PSP'
p4233
sg44
g4220
sg45
I00
sba(issf_api
Word
p4234
(dp4235
g6
I00
sg7
V\u092c\u093e\u0926
p4236
sg9
(issf_api
FeatureSet
p4237
(dp4238
g12
(dp4239
S'posn'
p4240
S'120'
p4241
sS'name'
p4242
S'\xe0\xa4\xac\xe0\xa4\xbe\xe0\xa4\xa6'
p4243
sS'drel'
p4244
S'lwg__nst:VGNN'
p4245
sS'chunktype'
p4246
S'child:VGNN'
p4247
sS'af'
p4248
S'\xe0\xa4\xac\xe0\xa4\xbe\xe0\xa4\xa6,nst,m,sg,3,d,,'
p4249
ssbsg34
I00
sg35
I00
sg36
Nsg37
Nsg38
I6
sg39
I8
sg40
Nsg41
Nsg42
S'NST'
p4250
sg44
g4237
sg45
I00
sba(issf_api
Word
p4251
(dp4252
g6
I00
sg7
V\u092f\u0947
p4253
sg9
(issf_api
FeatureSet
p4254
(dp4255
g12
(dp4256
S'posn'
p4257
S'130'
p4258
sS'name'
p4259
S'\xe0\xa4\xaf\xe0\xa5\x87'
p4260
sS'af'
p4261
S'\xe0\xa4\xaf\xe0\xa4\xb9,pn,any,pl,3,d,,'
p4262
sS'drel'
p4263
S'nmod__adj:NP5'
p4264
sS'chunktype'
p4265
S'child:NP5'
p4266
sS'cref'
p4267
S'i22%0:t3'
p4268
ssbsg34
I00
sg35
I00
sg36
Nsg37
Nsg38
I7
sg39
I8
sg40
Nsg41
Nsg42
S'DEM'
p4269
sg44
g4254
sg45
I00
sba(issf_api
Word
p4270
(dp4271
g6
I00
sg7
V\u091b\u093e\u092a\u093e\u092e\u093e\u0930
p4272
sg9
(issf_api
FeatureSet
p4273
(dp4274
g12
(dp4275
S'crefhead'
p4276
S'\xe0\xa4\x9b\xe0\xa4\xbe\xe0\xa4\xaa\xe0\xa4\xbe\xe0\xa4\xae\xe0\xa4\xbe\xe0\xa4\xb0:i22'
p4277
sS'posn'
p4278
S'140'
p4279
sS'name'
p4280
S'\xe0\xa4\x9b\xe0\xa4\xbe\xe0\xa4\xaa\xe0\xa4\xbe\xe0\xa4\xae\xe0\xa4\xbe\xe0\xa4\xb0'
p4281
sS'af'
p4282
S'\xe0\xa4\x9b\xe0\xa4\xbe\xe0\xa4\xaa\xe0\xa4\xbe\xe0\xa4\xae\xe0\xa4\xbe\xe0\xa4\xb0,n,m,sg,3,d,0,0'
p4283
sS'chunkid'
p4284
S'NP5'
p4285
sS'creftype'
p4286
S'Coreference-Identity:i19'
p4287
sS'chunktype'
p4288
S'head:NP5'
p4289
sS'cref'
p4290
S'i22%1:t3'
p4291
sS'drel'
p4292
S'k1:VGF2'
p4293
ssbsg34
I00
sg35
I00
sg36
Nsg37
Nsg38
I7
sg39
I8
sg40
Nsg41
Nsg42
S'NN'
p4294
sg44
g4273
sg45
I00
sba(issf_api
Word
p4295
(dp4296
g6
I00
sg7
V\u0938\u0940\u092e\u093e
p4297
sg9
(issf_api
FeatureSet
p4298
(dp4299
g12
(dp4300
S'posn'
p4301
S'150'
p4302
sS'name'
p4303
S'\xe0\xa4\xb8\xe0\xa5\x80\xe0\xa4\xae\xe0\xa4\xbe'
p4304
sS'af'
p4305
S'\xe0\xa4\xb8\xe0\xa5\x80\xe0\xa4\xae\xe0\xa4\xbe,n,f,sg,3,d,0,0'
p4306
sS'chunkid'
p4307
S'NP6'
p4308
sS'drel'
p4309
S'k2:VGNF'
p4310
sS'chunktype'
p4311
S'head:NP6'
p4312
ssbsg34
I00
sg35
I00
sg36
Nsg37
Nsg38
I8
sg39
I8
sg40
Nsg41
Nsg42
S'NN'
p4313
sg44
g4298
sg45
I00
sba(issf_api
Word
p4314
(dp4315
g6
I00
sg7
V\u092a\u093e\u0930
p4316
sg9
(issf_api
FeatureSet
p4317
(dp4318
g12
(dp4319
S'posn'
p4320
S'160'
p4321
sS'name'
p4322
S'\xe0\xa4\xaa\xe0\xa4\xbe\xe0\xa4\xb0'
p4323
sS'af'
p4324
S'\xe0\xa4\xaa\xe0\xa4\xbe\xe0\xa4\xb0,n,m,sg,3,d,0,0'
p4325
sS'chunkid'
p4326
S'NP7'
p4327
sS'drel'
p4328
S'pof:VGNF'
p4329
sS'chunktype'
p4330
S'head:NP7'
p4331
ssbsg34
I00
sg35
I00
sg36
Nsg37
Nsg38
I9
sg39
I8
sg40
Nsg41
Nsg42
S'NN'
p4332
sg44
g4317
sg45
I00
sba(issf_api
Word
p4333
(dp4334
g6
I00
sg7
V\u0915\u0930
p4335
sg9
(issf_api
FeatureSet
p4336
(dp4337
g12
(dp4338
S'posn'
p4339
S'170'
p4340
sS'name'
p4341
S'\xe0\xa4\x95\xe0\xa4\xb0'
p4342
sS'af'
p4343
S'\xe0\xa4\x95\xe0\xa4\xb0,v,any,any,any,,0,0'
p4344
sS'chunkid'
p4345
S'VGNF'
p4346
sS'drel'
p4347
S'vmod:VGF2'
p4348
sS'chunktype'
p4349
S'head:VGNF'
p4350
ssbsg34
I00
sg35
I00
sg36
Nsg37
Nsg38
I10
sg39
I8
sg40
Nsg41
Nsg42
S'VM'
p4351
sg44
g4336
sg45
I00
sba(issf_api
Word
p4352
(dp4353
g6
I00
sg7
V\u0928\u0947\u092a\u093e\u0932
p4354
sg9
(issf_api
FeatureSet
p4355
(dp4356
g12
(dp4357
S'crefhead'
p4358
S'\xe0\xa4\xa8\xe0\xa5\x87\xe0\xa4\xaa\xe0\xa4\xbe\xe0\xa4\xb2:i23'
p4359
sS'posn'
p4360
S'180'
p4361
sS'name'
p4362
S'\xe0\xa4\xa8\xe0\xa5\x87\xe0\xa4\xaa\xe0\xa4\xbe\xe0\xa4\xb2'
p4363
sS'af'
p4364
S'\xe0\xa4\xa8\xe0\xa5\x87\xe0\xa4\xaa\xe0\xa4\xbe\xe0\xa4\xb2,n,m,sg,3,d,0,0'
p4365
sS'chunkid'
p4366
S'NP8'
p4367
sS'creftype'
p4368
S'Coreference-Identity:i20'
p4369
sS'chunktype'
p4370
S'head:NP8'
p4371
sS'cref'
p4372
S'i23%1:t4'
p4373
sS'drel'
p4374
S'k2p:VGF2'
p4375
ssbsg34
I00
sg35
I00
sg36
Nsg37
Nsg38
I11
sg39
I8
sg40
Nsg41
Nsg42
S'NNP'
p4376
sg44
g4355
sg45
I00
sba(issf_api
Word
p4377
(dp4378
g6
I00
sg7
V\u092d\u093e\u0917
p4379
sg9
(issf_api
FeatureSet
p4380
(dp4381
g12
(dp4382
S'posn'
p4383
S'190'
p4384
sS'name'
p4385
S'\xe0\xa4\xad\xe0\xa4\xbe\xe0\xa4\x97'
p4386
sS'af'
p4387
S'\xe0\xa4\xad\xe0\xa4\xbe\xe0\xa4\x97,v,m,pl,3,,0_\xe0\xa4\x9c\xe0\xa4\xbe+\xe0\xa4\xa4\xe0\xa4\xbe_\xe0\xa4\xb9\xe0\xa5\x88,0'
p4388
sS'chunkid'
p4389
S'VGF2'
p4390
sS'stype'
p4391
S'declarative'
p4392
sS'drel'
p4393
S'ccof:CCP'
p4394
sS'voicetype'
p4395
S'active'
p4396
sS'vpos'
p4397
S'tam_2_3'
p4398
sS'chunktype'
p4399
S'head:VGF2'
p4400
ssbsg34
I00
sg35
I00
sg36
Nsg37
Nsg38
I12
sg39
I8
sg40
Nsg41
Nsg42
S'VM'
p4401
sg44
g4380
sg45
I00
sba(issf_api
Word
p4402
(dp4403
g6
I00
sg7
V\u091c\u093e\u0924\u0947
p4404
sg9
(issf_api
FeatureSet
p4405
(dp4406
g12
(dp4407
S'posn'
p4408
S'200'
p4409
sS'name'
p4410
S'\xe0\xa4\x9c\xe0\xa4\xbe\xe0\xa4\xa4\xe0\xa5\x87'
p4411
sS'drel'
p4412
S'lwg__vaux:VGF2'
p4413
sS'chunktype'
p4414
S'child:VGF2'
p4415
sS'af'
p4416
S'\xe0\xa4\x9c\xe0\xa4\xbe,v,m,pl,any,,\xe0\xa4\xa4\xe0\xa4\xbe,wA'
p4417
ssbsg34
I00
sg35
I00
sg36
Nsg37
Nsg38
I12
sg39
I8
sg40
Nsg41
Nsg42
S'VAUX'
p4418
sg44
g4405
sg45
I00
sba(issf_api
Word
p4419
(dp4420
g6
I00
sg7
V\u0939\u0948\u0902
p4421
sg9
(issf_api
FeatureSet
p4422
(dp4423
g12
(dp4424
S'posn'
p4425
S'210'
p4426
sS'name'
p4427
S'\xe0\xa4\xb9\xe0\xa5\x88\xe0\xa4\x82'
p4428
sS'drel'
p4429
S'lwg__vaux:VGF2'
p4430
sS'chunktype'
p4431
S'child:VGF2'
p4432
sS'af'
p4433
S'\xe0\xa4\xb9\xe0\xa5\x88,v,any,pl,3,,\xe0\xa4\xb9\xe0\xa5\x88,hE'
p4434
ssbsg34
I00
sg35
I00
sg36
Nsg37
Nsg38
I12
sg39
I8
sg40
Nsg41
Nsg42
S'VAUX'
p4435
sg44
g4422
sg45
I00
sba(issf_api
Word
p4436
(dp4437
g6
I00
sg7
V\u0964
p4438
sg9
(issf_api
FeatureSet
p4439
(dp4440
g12
(dp4441
S'posn'
p4442
S'220'
p4443
sS'name'
p4444
S'\xe0\xa5\xa4'
p4445
sS'af'
p4446
S'\xe0\xa5\xa4,punc,,,,,,'
p4447
sS'chunkid'
p4448
S'BLK'
p4449
sS'drel'
p4450
S'rsym:VGF'
p4451
sS'chunktype'
p4452
S'head:BLK'
p4453
ssbsg34
I00
sg35
I00
sg36
Nsg37
Nsg38
I13
sg39
I8
sg40
Nsg41
Nsg42
S'SYM'
p4454
sg44
g4439
sg45
I00
sba(issf_api
Word
p4455
(dp4456
g6
I00
sg7
V\u0924\u0940\u0938\u0930\u0947
p4457
sg9
(issf_api
FeatureSet
p4458
(dp4459
g12
(dp4460
S'posn'
p4461
S'10'
p4462
sS'name'
p4463
S'\xe0\xa4\xa4\xe0\xa5\x80\xe0\xa4\xb8\xe0\xa4\xb0\xe0\xa5\x87'
p4464
sS'drel'
p4465
S'nmod__adj:NP'
p4466
sS'chunktype'
p4467
S'child:NP'
p4468
sS'af'
p4469
S'\xe0\xa4\xa4\xe0\xa5\x80\xe0\xa4\xb8\xe0\xa4\xb0\xe0\xa4\xbe,num,m,sg,,o,,'
p4470
ssbsg34
I00
sg35
I00
sg36
Nsg37
Nsg38
I0
sg39
I9
sg40
Nsg41
Nsg42
S'QO'
p4471
sg44
g4458
sg45
I00
sba(issf_api
Word
p4472
(dp4473
g6
I00
sg7
V\u091a\u0930\u0923
p4474
sg9
(issf_api
FeatureSet
p4475
(dp4476
g12
(dp4477
S'posn'
p4478
S'20'
p4479
sS'name'
p4480
S'\xe0\xa4\x9a\xe0\xa4\xb0\xe0\xa4\xa3'
p4481
sS'af'
p4482
S'\xe0\xa4\x9a\xe0\xa4\xb0\xe0\xa4\xa3,n,m,sg,3,o,0_\xe0\xa4\xae\xe0\xa5\x87\xe0\xa4\x82,0'
p4483
sS'chunkid'
p4484
S'NP'
p4485
sS'drel'
p4486
S'k7:VGF'
p4487
sS'vpos'
p4488
S'vib_3'
p4489
sS'chunktype'
p4490
S'head:NP'
p4491
ssbsg34
I00
sg35
I00
sg36
Nsg37
Nsg38
I0
sg39
I9
sg40
Nsg41
Nsg42
S'NN'
p4492
sg44
g4475
sg45
I00
sba(issf_api
Word
p4493
(dp4494
g6
I00
sg7
V\u092e\u0947\u0902
p4495
sg9
(issf_api
FeatureSet
p4496
(dp4497
g12
(dp4498
S'posn'
p4499
S'30'
p4500
sS'name'
p4501
S'\xe0\xa4\xae\xe0\xa5\x87\xe0\xa4\x82'
p4502
sS'drel'
p4503
S'lwg__psp:NP'
p4504
sS'chunktype'
p4505
S'child:NP'
p4506
sS'af'
p4507
S'\xe0\xa4\xae\xe0\xa5\x87\xe0\xa4\x82,psp,,,,,,'
p4508
ssbsg34
I00
sg35
I00
sg36
Nsg37
Nsg38
I0
sg39
I9
sg40
Nsg41
Nsg42
S'PSP'
p4509
sg44
g4496
sg45
I00
sba(issf_api
Word
p4510
(dp4511
g6
I00
sg7
V72
p4512
sg9
(issf_api
FeatureSet
p4513
(dp4514
g12
(dp4515
S'posn'
p4516
S'40'
p4517
sS'name'
p4518
S'72'
p4519
sS'af'
p4520
S'72,num,any,any,,any,,'
p4521
sS'drel'
p4522
S'nmod__adj:NP2'
p4523
sS'chunktype'
p4524
S'child:NP2'
p4525
sS'cref'
p4526
S'i24%0:t10'
p4527
ssbsg34
I00
sg35
I00
sg36
Nsg37
Nsg38
I1
sg39
I9
sg40
Nsg41
Nsg42
S'QC'
p4528
sg44
g4513
sg45
I00
sba(issf_api
Word
p4529
(dp4530
g6
I00
sg7
V\u0935\u093f\u0927\u093e\u0928
p4531
sg9
(issf_api
FeatureSet
p4532
(dp4533
g12
(dp4534
S'posn'
p4535
S'50'
p4536
sS'name'
p4537
S'\xe0\xa4\xb5\xe0\xa4\xbf\xe0\xa4\xa7\xe0\xa4\xbe\xe0\xa4\xa8'
p4538
sS'af'
p4539
S'\xe0\xa4\xb5\xe0\xa4\xbf\xe0\xa4\xa7\xe0\xa4\xbe\xe0\xa4\xa8,n,m,sg,3,d,0,0'
p4540
sS'drel'
p4541
S'pof__cn:NP2'
p4542
sS'chunktype'
p4543
S'child:NP2'
p4544
sS'cref'
p4545
S'i24%0:t10'
p4546
ssbsg34
I00
sg35
I00
sg36
Nsg37
Nsg38
I1
sg39
I9
sg40
Nsg41
Nsg42
S'NNC'
p4547
sg44
g4532
sg45
I00
sba(issf_api
Word
p4548
(dp4549
g6
I00
sg7
V\u0938\u092d\u093e
p4550
sg9
(issf_api
FeatureSet
p4551
(dp4552
g12
(dp4553
S'posn'
p4554
S'60'
p4555
sS'name'
p4556
S'\xe0\xa4\xb8\xe0\xa4\xad\xe0\xa4\xbe'
p4557
sS'af'
p4558
S'\xe0\xa4\xb8\xe0\xa4\xad\xe0\xa4\xbe,n,f,sg,3,d,0,0'
p4559
sS'drel'
p4560
S'nmod:NP2'
p4561
sS'chunktype'
p4562
S'child:NP2'
p4563
sS'cref'
p4564
S'i24%0:t10'
p4565
ssbsg34
I00
sg35
I00
sg36
Nsg37
Nsg38
I1
sg39
I9
sg40
Nsg41
Nsg42
S'NN'
p4566
sg44
g4551
sg45
I00
sba(issf_api
Word
p4567
(dp4568
g6
I00
sg7
V\u0915\u094d\u0937\u0947\u0924\u094d\u0930\u094b\u0902
p4569
sg9
(issf_api
FeatureSet
p4570
(dp4571
g12
(dp4572
S'crefhead'
p4573
S'\xe0\xa4\x95\xe0\xa5\x8d\xe0\xa4\xb7\xe0\xa5\x87\xe0\xa4\xa4\xe0\xa5\x8d\xe0\xa4\xb0\xe0\xa5\x8b\xe0\xa4\x82:i24'
p4574
sS'posn'
p4575
S'70'
p4576
sS'name'
p4577
S'\xe0\xa4\x95\xe0\xa5\x8d\xe0\xa4\xb7\xe0\xa5\x87\xe0\xa4\xa4\xe0\xa5\x8d\xe0\xa4\xb0\xe0\xa5\x8b\xe0\xa4\x82'
p4578
sS'af'
p4579
S'\xe0\xa4\x95\xe0\xa5\x8d\xe0\xa4\xb7\xe0\xa5\x87\xe0\xa4\xa4\xe0\xa5\x8d\xe0\xa4\xb0,n,m,pl,3,o,0_\xe0\xa4\xae\xe0\xa5\x87\xe0\xa4\x82,0'
p4580
sS'chunkid'
p4581
S'NP2'
p4582
sS'chunktype'
p4583
S'head:NP2'
p4584
sS'crefchainhead'
p4585
S'i24:t10'
p4586
sS'vpos'
p4587
S'vib_vib_5'
p4588
sS'cref'
p4589
S'i24%1:t10'
p4590
sS'drel'
p4591
S'k7:VGF'
p4592
ssbsg34
I00
sg35
I00
sg36
Nsg37
Nsg38
I1
sg39
I9
sg40
Nsg41
Nsg42
S'NN'
p4593
sg44
g4570
sg45
I00
sba(issf_api
Word
p4594
(dp4595
g6
I00
sg7
V\u092e\u0947\u0902
p4596
sg9
(issf_api
FeatureSet
p4597
(dp4598
g12
(dp4599
S'posn'
p4600
S'80'
p4601
sS'name'
p4602
S'\xe0\xa4\xae\xe0\xa5\x87\xe0\xa4\x822'
p4603
sS'drel'
p4604
S'lwg__psp:NP2'
p4605
sS'chunktype'
p4606
S'child:NP2'
p4607
sS'af'
p4608
S'\xe0\xa4\xae\xe0\xa5\x87\xe0\xa4\x82,psp,,,,,,'
p4609
ssbsg34
I00
sg35
I00
sg36
Nsg37
Nsg38
I1
sg39
I9
sg40
Nsg41
Nsg42
S'PSP'
p4610
sg44
g4597
sg45
I00
sba(issf_api
Word
p4611
(dp4612
g6
I00
sg7
V\u091a\u0941\u0928\u093e\u0935
p4613
sg9
(issf_api
FeatureSet
p4614
(dp4615
g12
(dp4616
S'posn'
p4617
S'90'
p4618
sS'name'
p4619
S'\xe0\xa4\x9a\xe0\xa5\x81\xe0\xa4\xa8\xe0\xa4\xbe\xe0\xa4\xb5'
p4620
sS'af'
p4621
S'\xe0\xa4\x9a\xe0\xa5\x81\xe0\xa4\xa8\xe0\xa4\xbe\xe0\xa4\xb5,n,m,pl,3,d,0,0'
p4622
sS'chunkid'
p4623
S'NP3'
p4624
sS'drel'
p4625
S'k2:VGF'
p4626
sS'chunktype'
p4627
S'head:NP3'
p4628
ssbsg34
I00
sg35
I00
sg36
Nsg37
Nsg38
I2
sg39
I9
sg40
Nsg41
Nsg42
S'NN'
p4629
sg44
g4614
sg45
I00
sba(issf_api
Word
p4630
(dp4631
g6
I00
sg7
V\u0915\u0930\u093e\u090f
p4632
sg9
(issf_api
FeatureSet
p4633
(dp4634
g12
(dp4635
S'posn'
p4636
S'100'
p4637
sS'name'
p4638
S'\xe0\xa4\x95\xe0\xa4\xb0\xe0\xa4\xbe\xe0\xa4\x8f'
p4639
sS'af'
p4640
S'\xe0\xa4\x95\xe0\xa4\xb0\xe0\xa4\xbe,v,m,pl,3,,\xe0\xa4\xaf\xe0\xa4\xbe_\xe0\xa4\x9c\xe0\xa4\xbe+\xe0\xa4\x97\xe0\xa4\xbe,yA'
p4641
sS'chunkid'
p4642
S'VGF'
p4643
sS'chunktype'
p4644
S'head:VGF'
p4645
sS'voicetype'
p4646
S'passive'
p4647
sS'vpos'
p4648
S'tam_2'
p4649
sS'stype'
p4650
S'declarative'
p4651
ssbsg34
I00
sg35
I00
sg36
Nsg37
Nsg38
I3
sg39
I9
sg40
Nsg41
Nsg42
S'VM'
p4652
sg44
g4633
sg45
I00
sba(issf_api
Word
p4653
(dp4654
g6
I00
sg7
V\u091c\u093e\u090f\u0901\u0917\u0947
p4655
sg9
(issf_api
FeatureSet
p4656
(dp4657
g12
(dp4658
S'posn'
p4659
S'110'
p4660
sS'name'
p4661
S'\xe0\xa4\x9c\xe0\xa4\xbe\xe0\xa4\x8f\xe0\xa4\x81\xe0\xa4\x97\xe0\xa5\x87'
p4662
sS'drel'
p4663
S'lwg__vaux:VGF'
p4664
sS'chunktype'
p4665
S'child:VGF'
p4666
sS'af'
p4667
S'\xe0\xa4\x9c\xe0\xa4\xbe,v,m,pl,3,,\xe0\xa4\x97\xe0\xa4\xbe,gA'
p4668
ssbsg34
I00
sg35
I00
sg36
Nsg37
Nsg38
I3
sg39
I9
sg40
Nsg41
Nsg42
S'VAUX'
p4669
sg44
g4656
sg45
I00
sba(issf_api
Word
p4670
(dp4671
g6
I00
sg7
V\u0964
p4672
sg9
(issf_api
FeatureSet
p4673
(dp4674
g12
(dp4675
S'posn'
p4676
S'120'
p4677
sS'name'
p4678
S'\xe0\xa5\xa4'
p4679
sS'af'
p4680
S'\xe0\xa5\xa4,punc,,,,,,'
p4681
sS'chunkid'
p4682
S'BLK'
p4683
sS'drel'
p4684
S'rsym:VGF'
p4685
sS'chunktype'
p4686
S'head:BLK'
p4687
ssbsg34
I00
sg35
I00
sg36
Nsg37
Nsg38
I4
sg39
I9
sg40
Nsg41
Nsg42
S'SYM'
p4688
sg44
g4673
sg45
I00
sba(issf_api
Word
p4689
(dp4690
g6
I00
sg7
V\u0907\u0928\u092e\u0947\u0902
p4691
sg9
(issf_api
FeatureSet
p4692
(dp4693
g12
(dp4694
S'crefhead'
p4695
S'\xe0\xa4\x87\xe0\xa4\xa8\xe0\xa4\xae\xe0\xa5\x87\xe0\xa4\x82:i25'
p4696
sS'posn'
p4697
S'10'
p4698
sS'name'
p4699
S'\xe0\xa4\x87\xe0\xa4\xa8\xe0\xa4\xae\xe0\xa5\x87\xe0\xa4\x82'
p4700
sS'af'
p4701
S'\xe0\xa4\xaf\xe0\xa4\xb9,pn,any,pl,3,o,0_\xe0\xa4\xb8\xe0\xa5\x87,meM'
p4702
sS'chunkid'
p4703
S'NP'
p4704
sS'creftype'
p4705
S'Anaphora-C:i24'
p4706
sS'chunktype'
p4707
S'head:NP'
p4708
sS'vpos'
p4709
S'vib_2'
p4710
sS'cref'
p4711
S'i25%1:t10'
p4712
sS'drel'
p4713
S'k5:VGF'
p4714
ssbsg34
I00
sg35
I00
sg36
Nsg37
Nsg38
I0
sg39
I10
sg40
Nsg41
Nsg42
S'PRP'
p4715
sg44
g4692
sg45
I00
sba(issf_api
Word
p4716
(dp4717
g6
I00
sg7
V\u0938\u0947
p4718
sg9
(issf_api
FeatureSet
p4719
(dp4720
g12
(dp4721
S'posn'
p4722
S'20'
p4723
sS'name'
p4724
S'\xe0\xa4\xb8\xe0\xa5\x87'
p4725
sS'drel'
p4726
S'lwg__psp:NP'
p4727
sS'chunktype'
p4728
S'child:NP'
p4729
sS'af'
p4730
S'\xe0\xa4\xb8\xe0\xa5\x87,psp,,,,,,'
p4731
ssbsg34
I00
sg35
I00
sg36
Nsg37
Nsg38
I0
sg39
I10
sg40
Nsg41
Nsg42
S'PSP'
p4732
sg44
g4719
sg45
I00
sba(issf_api
Word
p4733
(dp4734
g6
I00
sg7
V\u0906\u0927\u0947
p4735
sg9
(issf_api
FeatureSet
p4736
(dp4737
g12
(dp4738
S'posn'
p4739
S'30'
p4740
sS'name'
p4741
S'\xe0\xa4\x86\xe0\xa4\xa7\xe0\xa5\x87'
p4742
sS'drel'
p4743
S'nmod__adj:NP2'
p4744
sS'chunktype'
p4745
S'child:NP2'
p4746
sS'af'
p4747
S'\xe0\xa4\x86\xe0\xa4\xa7\xe0\xa4\xbe,adj,m,pl,,d,,'
p4748
ssbsg34
I00
sg35
I00
sg36
Nsg37
Nsg38
I1
sg39
I10
sg40
Nsg41
Nsg42
S'QF'
p4749
sg44
g4736
sg45
I00
sba(issf_api
Word
p4750
(dp4751
g6
I00
sg7
V\u0915\u094d\u0937\u0947\u0924\u094d\u0930
p4752
sg9
(issf_api
FeatureSet
p4753
(dp4754
g12
(dp4755
S'posn'
p4756
S'40'
p4757
sS'name'
p4758
S'\xe0\xa4\x95\xe0\xa5\x8d\xe0\xa4\xb7\xe0\xa5\x87\xe0\xa4\xa4\xe0\xa5\x8d\xe0\xa4\xb0'
p4759
sS'af'
p4760
S'\xe0\xa4\x95\xe0\xa5\x8d\xe0\xa4\xb7\xe0\xa5\x87\xe0\xa4\xa4\xe0\xa5\x8d\xe0\xa4\xb0,n,m,pl,3,d,0,0'
p4761
sS'chunkid'
p4762
S'NP2'
p4763
sS'drel'
p4764
S'k1:VGF'
p4765
sS'chunktype'
p4766
S'head:NP2'
p4767
ssbsg34
I00
sg35
I00
sg36
Nsg37
Nsg38
I1
sg39
I10
sg40
Nsg41
Nsg42
S'NN'
p4768
sg44
g4753
sg45
I00
sba(issf_api
Word
p4769
(dp4770
g6
I00
sg7
V\u092a\u0942\u0930\u094d\u0935\u0940
p4771
sg9
(issf_api
FeatureSet
p4772
(dp4773
g12
(dp4774
S'posn'
p4775
S'50'
p4776
sS'name'
p4777
S'\xe0\xa4\xaa\xe0\xa5\x82\xe0\xa4\xb0\xe0\xa5\x8d\xe0\xa4\xb5\xe0\xa5\x80'
p4778
sS'af'
p4779
S'\xe0\xa4\xaa\xe0\xa5\x82\xe0\xa4\xb0\xe0\xa5\x8d\xe0\xa4\xb5\xe0\xa5\x80,adj,any,any,,d,,'
p4780
sS'chunkid'
p4781
S'JJP'
p4782
sS'drel'
p4783
S'ccof:CCP'
p4784
sS'chunktype'
p4785
S'head:JJP'
p4786
ssbsg34
I00
sg35
I00
sg36
Nsg37
Nsg38
I2
sg39
I10
sg40
Nsg41
Nsg42
S'JJ'
p4787
sg44
g4772
sg45
I00
sba(issf_api
Word
p4788
(dp4789
g6
I00
sg7
V\u0914\u0930
p4790
sg9
(issf_api
FeatureSet
p4791
(dp4792
g12
(dp4793
S'posn'
p4794
S'60'
p4795
sS'name'
p4796
S'\xe0\xa4\x94\xe0\xa4\xb0'
p4797
sS'af'
p4798
S'\xe0\xa4\x94\xe0\xa4\xb0,avy,,,,,,'
p4799
sS'chunkid'
p4800
S'CCP'
p4801
sS'drel'
p4802
S'nmod:NP3'
p4803
sS'chunktype'
p4804
S'head:CCP'
p4805
ssbsg34
I00
sg35
I00
sg36
Nsg37
Nsg38
I3
sg39
I10
sg40
Nsg41
Nsg42
S'CC'
p4806
sg44
g4791
sg45
I00
sba(issf_api
Word
p4807
(dp4808
g6
I00
sg7
V\u092a\u0936\u094d\u091a\u093f\u092e\u0940
p4809
sg9
(issf_api
FeatureSet
p4810
(dp4811
g12
(dp4812
S'posn'
p4813
S'70'
p4814
sS'name'
p4815
S'\xe0\xa4\xaa\xe0\xa4\xb6\xe0\xa5\x8d\xe0\xa4\x9a\xe0\xa4\xbf\xe0\xa4\xae\xe0\xa5\x80'
p4816
sS'af'
p4817
S'\xe0\xa4\xaa\xe0\xa4\xb6\xe0\xa5\x8d\xe0\xa4\x9a\xe0\xa4\xbf\xe0\xa4\xae\xe0\xa5\x80,adj,any,any,,d,,'
p4818
sS'chunkid'
p4819
S'JJP2'
p4820
sS'drel'
p4821
S'ccof:CCP'
p4822
sS'chunktype'
p4823
S'head:JJP2'
p4824
ssbsg34
I00
sg35
I00
sg36
Nsg37
Nsg38
I4
sg39
I10
sg40
Nsg41
Nsg42
S'JJ'
p4825
sg44
g4810
sg45
I00
sba(issf_api
Word
p4826
(dp4827
g6
I00
sg7
V\u091a\u0902\u092a\u093e\u0930\u0923
p4828
sg9
(issf_api
FeatureSet
p4829
(dp4830
g12
(dp4831
S'posn'
p4832
S'80'
p4833
sS'name'
p4834
S'\xe0\xa4\x9a\xe0\xa4\x82\xe0\xa4\xaa\xe0\xa4\xbe\xe0\xa4\xb0\xe0\xa4\xa3'
p4835
sS'af'
p4836
S'\xe0\xa4\x9a\xe0\xa4\x82\xe0\xa4\xaa\xe0\xa4\xbe\xe0\xa4\xb0\xe0\xa4\xa3,n,m,sg,3,d,0,0'
p4837
sS'chunkid'
p4838
S'NP3'
p4839
sS'drel'
p4840
S'ccof:CCP2'
p4841
sS'chunktype'
p4842
S'head:NP3'
p4843
ssbsg34
I00
sg35
I00
sg36
Nsg37
Nsg38
I5
sg39
I10
sg40
Nsg41
Nsg42
S'NNP'
p4844
sg44
g4829
sg45
I00
sba(issf_api
Word
p4845
(dp4846
g6
I00
sg7
V,
p4847
sg9
(issf_api
FeatureSet
p4848
(dp4849
g12
(dp4850
S'posn'
p4851
S'90'
p4852
sS'name'
p4853
g451
sS'drel'
p4854
S'rsym:NP3'
p4855
sS'chunktype'
p4856
S'child:NP3'
p4857
sS'af'
p4858
S'COMMA,punc,,,,,,'
p4859
ssbsg34
I00
sg35
I00
sg36
Nsg37
Nsg38
I5
sg39
I10
sg40
Nsg41
Nsg42
S'SYM'
p4860
sg44
g4848
sg45
I00
sba(issf_api
Word
p4861
(dp4862
g6
I00
sg7
V\u0938\u0940\u0924\u093e\u092e\u0922\u093c\u0940
p4863
sg9
(issf_api
FeatureSet
p4864
(dp4865
g12
(dp4866
S'posn'
p4867
S'100'
p4868
sS'name'
p4869
S'\xe0\xa4\xb8\xe0\xa5\x80\xe0\xa4\xa4\xe0\xa4\xbe\xe0\xa4\xae\xe0\xa4\xa2\xe0\xa4\xbc\xe0\xa5\x80'
p4870
sS'af'
p4871
S'\xe0\xa4\xb8\xe0\xa5\x80\xe0\xa4\xa4\xe0\xa4\xbe\xe0\xa4\xae\xe0\xa4\xa2\xe0\xa4\xbc\xe0\xa5\x80,n,m,sg,3,d,0,0'
p4872
sS'chunkid'
p4873
S'NP4'
p4874
sS'drel'
p4875
S'ccof:CCP2'
p4876
sS'chunktype'
p4877
S'head:NP4'
p4878
ssbsg34
I00
sg35
I00
sg36
Nsg37
Nsg38
I6
sg39
I10
sg40
Nsg41
Nsg42
S'NNP'
p4879
sg44
g4864
sg45
I00
sba(issf_api
Word
p4880
(dp4881
g6
I00
sg7
V\u0914\u0930
p4882
sg9
(issf_api
FeatureSet
p4883
(dp4884
g12
(dp4885
S'posn'
p4886
S'110'
p4887
sS'name'
p4888
S'\xe0\xa4\x94\xe0\xa4\xb02'
p4889
sS'af'
p4890
S'\xe0\xa4\x94\xe0\xa4\xb0,avy,,,,,,'
p4891
sS'chunkid'
p4892
S'CCP2'
p4893
sS'drel'
p4894
S'nmod:NP6'
p4895
sS'chunktype'
p4896
S'head:CCP2'
p4897
ssbsg34
I00
sg35
I00
sg36
Nsg37
Nsg38
I7
sg39
I10
sg40
Nsg41
Nsg42
S'CC'
p4898
sg44
g4883
sg45
I00
sba(issf_api
Word
p4899
(dp4900
g6
I00
sg7
V\u092e\u0927\u0941\u092c\u0928\u0940
p4901
sg9
(issf_api
FeatureSet
p4902
(dp4903
g12
(dp4904
S'posn'
p4905
S'120'
p4906
sS'name'
p4907
S'\xe0\xa4\xae\xe0\xa4\xa7\xe0\xa5\x81\xe0\xa4\xac\xe0\xa4\xa8\xe0\xa5\x80'
p4908
sS'af'
p4909
S'\xe0\xa4\xae\xe0\xa4\xa7\xe0\xa5\x81\xe0\xa4\xac\xe0\xa4\xa8\xe0\xa5\x80,n,m,sg,3,d,0,0'
p4910
sS'chunkid'
p4911
S'NP5'
p4912
sS'drel'
p4913
S'ccof:CCP2'
p4914
sS'chunktype'
p4915
S'head:NP5'
p4916
ssbsg34
I00
sg35
I00
sg36
Nsg37
Nsg38
I8
sg39
I10
sg40
Nsg41
Nsg42
S'NNP'
p4917
sg44
g4902
sg45
I00
sba(issf_api
Word
p4918
(dp4919
g6
I00
sg7
V\u091c\u093f\u0932\u0947
p4920
sg9
(issf_api
FeatureSet
p4921
(dp4922
g12
(dp4923
S'posn'
p4924
S'130'
p4925
sS'name'
p4926
S'\xe0\xa4\x9c\xe0\xa4\xbf\xe0\xa4\xb2\xe0\xa5\x87'
p4927
sS'af'
p4928
S'\xe0\xa4\x9c\xe0\xa4\xbf\xe0\xa4\xb2\xe0\xa4\xbe,n,m,sg,3,o,0_\xe0\xa4\x95\xe0\xa4\xbe,0'
p4929
sS'chunkid'
p4930
S'NP6'
p4931
sS'drel'
p4932
S'r6:NP7'
p4933
sS'vpos'
p4934
S'vib_2'
p4935
sS'chunktype'
p4936
S'head:NP6'
p4937
ssbsg34
I00
sg35
I00
sg36
Nsg37
Nsg38
I9
sg39
I10
sg40
Nsg41
Nsg42
S'NN'
p4938
sg44
g4921
sg45
I00
sba(issf_api
Word
p4939
(dp4940
g6
I00
sg7
V\u0915\u0947
p4941
sg9
(issf_api
FeatureSet
p4942
(dp4943
g12
(dp4944
S'posn'
p4945
S'140'
p4946
sS'name'
p4947
S'\xe0\xa4\x95\xe0\xa5\x87'
p4948
sS'drel'
p4949
S'lwg__psp:NP6'
p4950
sS'chunktype'
p4951
S'child:NP6'
p4952
sS'af'
p4953
S'\xe0\xa4\x95\xe0\xa4\xbe,psp,m,pl,,d,,'
p4954
ssbsg34
I00
sg35
I00
sg36
Nsg37
Nsg38
I9
sg39
I10
sg40
Nsg41
Nsg42
S'PSP'
p4955
sg44
g4942
sg45
I00
sba(issf_api
Word
p4956
(dp4957
g6
I00
sg7
V\u0938\u0940\u092e\u093e\u0935\u0930\u094d\u0924\u0940
p4958
sg9
(issf_api
FeatureSet
p4959
(dp4960
g12
(dp4961
S'posn'
p4962
S'150'
p4963
sS'name'
p4964
S'\xe0\xa4\xb8\xe0\xa5\x80\xe0\xa4\xae\xe0\xa4\xbe\xe0\xa4\xb5\xe0\xa4\xb0\xe0\xa5\x8d\xe0\xa4\xa4\xe0\xa5\x80'
p4965
sS'drel'
p4966
S'nmod__adj:NP7'
p4967
sS'chunktype'
p4968
S'child:NP7'
p4969
sS'af'
p4970
S'\xe0\xa4\xb8\xe0\xa5\x80\xe0\xa4\xae\xe0\xa4\xbe\xe0\xa4\xb5\xe0\xa4\xb0\xe0\xa5\x8d\xe0\xa4\xa4\xe0\xa5\x80,adj,any,any,,d,,'
p4971
ssbsg34
I00
sg35
I00
sg36
Nsg37
Nsg38
I10
sg39
I10
sg40
Nsg41
Nsg42
S'JJ'
p4972
sg44
g4959
sg45
I00
sba(issf_api
Word
p4973
(dp4974
g6
I00
sg7
V\u0915\u094d\u0937\u0947\u0924\u094d\u0930
p4975
sg9
(issf_api
FeatureSet
p4976
(dp4977
g12
(dp4978
S'posn'
p4979
S'160'
p4980
sS'name'
p4981
S'\xe0\xa4\x95\xe0\xa5\x8d\xe0\xa4\xb7\xe0\xa5\x87\xe0\xa4\xa4\xe0\xa5\x8d\xe0\xa4\xb02'
p4982
sS'af'
p4983
S'\xe0\xa4\x95\xe0\xa5\x8d\xe0\xa4\xb7\xe0\xa5\x87\xe0\xa4\xa4\xe0\xa5\x8d\xe0\xa4\xb0,n,m,pl,3,d,0,0'
p4984
sS'chunkid'
p4985
S'NP7'
p4986
sS'drel'
p4987
S'k1s:VGF'
p4988
sS'chunktype'
p4989
S'head:NP7'
p4990
ssbsg34
I00
sg35
I00
sg36
Nsg37
Nsg38
I10
sg39
I10
sg40
Nsg41
Nsg42
S'NN'
p4991
sg44
g4976
sg45
I00
sba(issf_api
Word
p4992
(dp4993
g6
I00
sg7
V\u0939\u0948\u0902
p4994
sg9
(issf_api
FeatureSet
p4995
(dp4996
g12
(dp4997
S'posn'
p4998
S'170'
p4999
sS'name'
p5000
S'\xe0\xa4\xb9\xe0\xa5\x88\xe0\xa4\x82'
p5001
sS'af'
p5002
S'\xe0\xa4\xb9\xe0\xa5\x88,v,any,pl,3,,\xe0\xa4\xb9\xe0\xa5\x88,hE'
p5003
sS'chunkid'
p5004
S'VGF'
p5005
sS'chunktype'
p5006
S'head:VGF'
p5007
sS'voicetype'
p5008
S'active'
p5009
sS'stype'
p5010
S'declarative'
p5011
ssbsg34
I00
sg35
I00
sg36
Nsg37
Nsg38
I11
sg39
I10
sg40
Nsg41
Nsg42
S'VM'
p5012
sg44
g4995
sg45
I00
sba(issf_api
Word
p5013
(dp5014
g6
I00
sg7
V\u0964
p5015
sg9
(issf_api
FeatureSet
p5016
(dp5017
g12
(dp5018
S'posn'
p5019
S'180'
p5020
sS'name'
p5021
S'\xe0\xa5\xa4'
p5022
sS'af'
p5023
S'\xe0\xa5\xa4,punc,,,,,,'
p5024
sS'chunkid'
p5025
S'BLK'
p5026
sS'drel'
p5027
S'rsym:VGF'
p5028
sS'chunktype'
p5029
S'head:BLK'
p5030
ssbsg34
I00
sg35
I00
sg36
Nsg37
Nsg38
I12
sg39
I10
sg40
Nsg41
Nsg42
S'SYM'
p5031
sg44
g5016
sg45
I00
sba(issf_api
Word
p5032
(dp5033
g6
I00
sg7
V\u0917\u0943\u0939
p5034
sg9
(issf_api
FeatureSet
p5035
(dp5036
g12
(dp5037
S'posn'
p5038
S'10'
p5039
sS'name'
p5040
S'\xe0\xa4\x97\xe0\xa5\x83\xe0\xa4\xb9'
p5041
sS'drel'
p5042
S'pof__cn:NP'
p5043
sS'chunktype'
p5044
S'child:NP'
p5045
sS'af'
p5046
S'\xe0\xa4\x97\xe0\xa5\x83\xe0\xa4\xb9,n,m,sg,3,d,0,0'
p5047
ssbsg34
I00
sg35
I00
sg36
Nsg37
Nsg38
I0
sg39
I11
sg40
Nsg41
Nsg42
S'NNC'
p5048
sg44
g5035
sg45
I00
sba(issf_api
Word
p5049
(dp5050
g6
I00
sg7
V\u0938\u091a\u093f\u0935
p5051
sg9
(issf_api
FeatureSet
p5052
(dp5053
g12
(dp5054
S'posn'
p5055
S'20'
p5056
sS'name'
p5057
S'\xe0\xa4\xb8\xe0\xa4\x9a\xe0\xa4\xbf\xe0\xa4\xb5'
p5058
sS'drel'
p5059
S'nmod:NP'
p5060
sS'chunktype'
p5061
S'child:NP'
p5062
sS'af'
p5063
S'\xe0\xa4\xb8\xe0\xa4\x9a\xe0\xa4\xbf\xe0\xa4\xb5,n,m,sg,3,d,0,0'
p5064
ssbsg34
I00
sg35
I00
sg36
Nsg37
Nsg38
I0
sg39
I11
sg40
Nsg41
Nsg42
S'NN'
p5065
sg44
g5052
sg45
I00
sba(issf_api
Word
p5066
(dp5067
g6
I00
sg7
V\u090f\u091a.
p5068
sg9
(issf_api
FeatureSet
p5069
(dp5070
g12
(dp5071
S'posn'
p5072
S'30'
p5073
sS'name'
p5074
S'\xe0\xa4\x8f\xe0\xa4\x9a.'
p5075
sS'drel'
p5076
S'pof__cn:NP'
p5077
sS'chunktype'
p5078
S'child:NP'
p5079
sS'af'
p5080
S'\xe0\xa4\x8f\xe0\xa4\x9a.,n,m,sg,3,d,0,0'
p5081
ssbsg34
I00
sg35
I00
sg36
Nsg37
Nsg38
I0
sg39
I11
sg40
Nsg41
Nsg42
S'NNPC'
p5082
sg44
g5069
sg45
I00
sba(issf_api
Word
p5083
(dp5084
g6
I00
sg7
V\u0906\u0930.
p5085
sg9
(issf_api
FeatureSet
p5086
(dp5087
g12
(dp5088
S'posn'
p5089
S'40'
p5090
sS'name'
p5091
S'\xe0\xa4\x86\xe0\xa4\xb0.'
p5092
sS'drel'
p5093
S'pof__cn:NP'
p5094
sS'chunktype'
p5095
S'child:NP'
p5096
sS'af'
p5097
S'\xe0\xa4\x86\xe0\xa4\xb0.,n,m,sg,3,d,0,0'
p5098
ssbsg34
I00
sg35
I00
sg36
Nsg37
Nsg38
I0
sg39
I11
sg40
Nsg41
Nsg42
S'NNPC'
p5099
sg44
g5086
sg45
I00
sba(issf_api
Word
p5100
(dp5101
g6
I00
sg7
V\u0938\u093f\u0930\u094b\u0939\u0940
p5102
sg9
(issf_api
FeatureSet
p5103
(dp5104
g12
(dp5105
S'posn'
p5106
S'50'
p5107
sS'name'
p5108
S'\xe0\xa4\xb8\xe0\xa4\xbf\xe0\xa4\xb0\xe0\xa5\x8b\xe0\xa4\xb9\xe0\xa5\x80'
p5109
sS'af'
p5110
S'\xe0\xa4\xb8\xe0\xa4\xbf\xe0\xa4\xb0\xe0\xa5\x8b\xe0\xa4\xb9\xe0\xa5\x80,n,m,sg,3,o,0_\xe0\xa4\xa8\xe0\xa5\x87,0'
p5111
sS'chunkid'
p5112
S'NP'
p5113
sS'drel'
p5114
S'k1:VGF'
p5115
sS'vpos'
p5116
S'vib_vib_6'
p5117
sS'chunktype'
p5118
S'head:NP'
p5119
ssbsg34
I00
sg35
I00
sg36
Nsg37
Nsg38
I0
sg39
I11
sg40
Nsg41
Nsg42
S'NNP'
p5120
sg44
g5103
sg45
I00
sba(issf_api
Word
p5121
(dp5122
g6
I00
sg7
V\u0928\u0947
p5123
sg9
(issf_api
FeatureSet
p5124
(dp5125
g12
(dp5126
S'posn'
p5127
S'60'
p5128
sS'name'
p5129
S'\xe0\xa4\xa8\xe0\xa5\x87'
p5130
sS'drel'
p5131
S'lwg__psp:NP'
p5132
sS'chunktype'
p5133
S'child:NP'
p5134
sS'af'
p5135
S'\xe0\xa4\xa8\xe0\xa5\x87,psp,,,,,,'
p5136
ssbsg34
I00
sg35
I00
sg36
Nsg37
Nsg38
I0
sg39
I11
sg40
Nsg41
Nsg42
S'PSP'
p5137
sg44
g5124
sg45
I00
sba(issf_api
Word
p5138
(dp5139
g6
I00
sg7
V\u0915\u0939\u093e
p5140
sg9
(issf_api
FeatureSet
p5141
(dp5142
g12
(dp5143
S'posn'
p5144
S'70'
p5145
sS'name'
p5146
S'\xe0\xa4\x95\xe0\xa4\xb9\xe0\xa4\xbe'
p5147
sS'af'
p5148
S'\xe0\xa4\x95\xe0\xa4\xb9,v,m,sg,any,,\xe0\xa4\xaf\xe0\xa4\xbe,yA'
p5149
sS'chunkid'
p5150
S'VGF'
p5151
sS'chunktype'
p5152
S'head:VGF'
p5153
sS'voicetype'
p5154
S'active'
p5155
sS'stype'
p5156
S'declarative'
p5157
ssbsg34
I00
sg35
I00
sg36
Nsg37
Nsg38
I1
sg39
I11
sg40
Nsg41
Nsg42
S'VM'
p5158
sg44
g5141
sg45
I00
sba(issf_api
Word
p5159
(dp5160
g6
I00
sg7
V\u0915\u093f
p5161
sg9
(issf_api
FeatureSet
p5162
(dp5163
g12
(dp5164
S'posn'
p5165
S'80'
p5166
sS'name'
p5167
S'\xe0\xa4\x95\xe0\xa4\xbf'
p5168
sS'af'
p5169
S'\xe0\xa4\x95\xe0\xa4\xbf,avy,,,,,,'
p5170
sS'chunkid'
p5171
S'CCP'
p5172
sS'drel'
p5173
S'k2:VGF'
p5174
sS'chunktype'
p5175
S'head:CCP'
p5176
ssbsg34
I00
sg35
I00
sg36
Nsg37
Nsg38
I2
sg39
I11
sg40
Nsg41
Nsg42
S'CC'
p5177
sg44
g5162
sg45
I00
sba(issf_api
Word
p5178
(dp5179
g6
I00
sg7
V\u0905\u0924\u093f
p5180
sg9
(issf_api
FeatureSet
p5181
(dp5182
g12
(dp5183
S'posn'
p5184
S'90'
p5185
sS'name'
p5186
S'\xe0\xa4\x85\xe0\xa4\xa4\xe0\xa4\xbf'
p5187
sS'drel'
p5188
S'jjmod__intf:NP2'
p5189
sS'chunktype'
p5190
S'child:NP2'
p5191
sS'af'
p5192
S'\xe0\xa4\x85\xe0\xa4\xa4\xe0\xa4\xbf,avy,,,,,,'
p5193
ssbsg34
I00
sg35
I00
sg36
Nsg37
Nsg38
I3
sg39
I11
sg40
Nsg41
Nsg42
S'INTF'
p5194
sg44
g5181
sg45
I00
sba(issf_api
Word
p5195
(dp5196
g6
I00
sg7
V\u0938\u0902\u0935\u0947\u0926\u0928\u0936\u0940\u0932
p5197
sg9
(issf_api
FeatureSet
p5198
(dp5199
g12
(dp5200
S'posn'
p5201
S'100'
p5202
sS'name'
p5203
S'\xe0\xa4\xb8\xe0\xa4\x82\xe0\xa4\xb5\xe0\xa5\x87\xe0\xa4\xa6\xe0\xa4\xa8\xe0\xa4\xb6\xe0\xa5\x80\xe0\xa4\xb2'
p5204
sS'drel'
p5205
S'nmod__adj:NP2'
p5206
sS'chunktype'
p5207
S'child:NP2'
p5208
sS'af'
p5209
S'\xe0\xa4\xb8\xe0\xa4\x82\xe0\xa4\xb5\xe0\xa5\x87\xe0\xa4\xa6\xe0\xa4\xa8\xe0\xa4\xb6\xe0\xa5\x80\xe0\xa4\xb2,adj,any,any,,o,,'
p5210
ssbsg34
I00
sg35
I00
sg36
Nsg37
Nsg38
I3
sg39
I11
sg40
Nsg41
Nsg42
S'JJ'
p5211
sg44
g5198
sg45
I00
sba(issf_api
Word
p5212
(dp5213
g6
I00
sg7
V\u0915\u094d\u0937\u0947\u0924\u094d\u0930\u094b\u0902
p5214
sg9
(issf_api
FeatureSet
p5215
(dp5216
g12
(dp5217
S'posn'
p5218
S'110'
p5219
sS'name'
p5220
S'\xe0\xa4\x95\xe0\xa5\x8d\xe0\xa4\xb7\xe0\xa5\x87\xe0\xa4\xa4\xe0\xa5\x8d\xe0\xa4\xb0\xe0\xa5\x8b\xe0\xa4\x82'
p5221
sS'af'
p5222
S'\xe0\xa4\x95\xe0\xa5\x8d\xe0\xa4\xb7\xe0\xa5\x87\xe0\xa4\xa4\xe0\xa5\x8d\xe0\xa4\xb0,n,m,pl,3,o,0_\xe0\xa4\xae\xe0\xa5\x87\xe0\xa4\x82,0'
p5223
sS'chunkid'
p5224
S'NP2'
p5225
sS'drel'
p5226
S'k7p:VGF2'
p5227
sS'vpos'
p5228
S'vib_4'
p5229
sS'chunktype'
p5230
S'head:NP2'
p5231
ssbsg34
I00
sg35
I00
sg36
Nsg37
Nsg38
I3
sg39
I11
sg40
Nsg41
Nsg42
S'NN'
p5232
sg44
g5215
sg45
I00
sba(issf_api
Word
p5233
(dp5234
g6
I00
sg7
V\u092e\u0947\u0902
p5235
sg9
(issf_api
FeatureSet
p5236
(dp5237
g12
(dp5238
S'posn'
p5239
S'120'
p5240
sS'name'
p5241
S'\xe0\xa4\xae\xe0\xa5\x87\xe0\xa4\x82'
p5242
sS'drel'
p5243
S'lwg__psp:NP2'
p5244
sS'chunktype'
p5245
S'child:NP2'
p5246
sS'af'
p5247
S'\xe0\xa4\xae\xe0\xa5\x87\xe0\xa4\x82,psp,,,,,,'
p5248
ssbsg34
I00
sg35
I00
sg36
Nsg37
Nsg38
I3
sg39
I11
sg40
Nsg41
Nsg42
S'PSP'
p5249
sg44
g5236
sg45
I00
sba(issf_api
Word
p5250
(dp5251
g6
I00
sg7
V\u090f\u0928\u090f\u0938\u091c\u0940
p5252
sg9
(issf_api
FeatureSet
p5253
(dp5254
g12
(dp5255
S'posn'
p5256
S'130'
p5257
sS'name'
p5258
S'\xe0\xa4\x8f\xe0\xa4\xa8\xe0\xa4\x8f\xe0\xa4\xb8\xe0\xa4\x9c\xe0\xa5\x80'
p5259
sS'af'
p5260
S'\xe0\xa4\x8f\xe0\xa4\xa8\xe0\xa4\x8f\xe0\xa4\xb8\xe0\xa4\x9c\xe0\xa5\x80,n,m,sg,3,o,0_\xe0\xa4\x95\xe0\xa4\xbe,0'
p5261
sS'chunkid'
p5262
S'NP3'
p5263
sS'drel'
p5264
S'r6:NP4'
p5265
sS'vpos'
p5266
S'vib_2'
p5267
sS'chunktype'
p5268
S'head:NP3'
p5269
ssbsg34
I00
sg35
I00
sg36
Nsg37
Nsg38
I4
sg39
I11
sg40
Nsg41
Nsg42
S'NNP'
p5270
sg44
g5253
sg45
I00
sba(issf_api
Word
p5271
(dp5272
g6
I00
sg7
V\u0915\u0947
p5273
sg9
(issf_api
FeatureSet
p5274
(dp5275
g12
(dp5276
S'posn'
p5277
S'140'
p5278
sS'name'
p5279
S'\xe0\xa4\x95\xe0\xa5\x87'
p5280
sS'drel'
p5281
S'lwg__psp:NP3'
p5282
sS'chunktype'
p5283
S'child:NP3'
p5284
sS'af'
p5285
S'\xe0\xa4\x95\xe0\xa4\xbe,psp,m,pl,,d,,'
p5286
ssbsg34
I00
sg35
I00
sg36
Nsg37
Nsg38
I4
sg39
I11
sg40
Nsg41
Nsg42
S'PSP'
p5287
sg44
g5274
sg45
I00
sba(issf_api
Word
p5288
(dp5289
g6
I00
sg7
V\u091c\u0935\u093e\u0928
p5290
sg9
(issf_api
FeatureSet
p5291
(dp5292
g12
(dp5293
S'posn'
p5294
S'150'
p5295
sS'name'
p5296
S'\xe0\xa4\x9c\xe0\xa4\xb5\xe0\xa4\xbe\xe0\xa4\xa8'
p5297
sS'af'
p5298
S'\xe0\xa4\x9c\xe0\xa4\xb5\xe0\xa4\xbe\xe0\xa4\xa8,n,m,pl,3,d,0,0'
p5299
sS'chunkid'
p5300
S'NP4'
p5301
sS'drel'
p5302
S'k2:VGF2'
p5303
sS'chunktype'
p5304
S'head:NP4'
p5305
ssbsg34
I00
sg35
I00
sg36
Nsg37
Nsg38
I5
sg39
I11
sg40
Nsg41
Nsg42
S'NN'
p5306
sg44
g5291
sg45
I00
sba(issf_api
Word
p5307
(dp5308
g6
I00
sg7
V\u0924\u0948\u0928\u093e\u0924
p5309
sg9
(issf_api
FeatureSet
p5310
(dp5311
g12
(dp5312
S'posn'
p5313
S'160'
p5314
sS'name'
p5315
S'\xe0\xa4\xa4\xe0\xa5\x88\xe0\xa4\xa8\xe0\xa4\xbe\xe0\xa4\xa4'
p5316
sS'af'
p5317
S'\xe0\xa4\xa4\xe0\xa5\x88\xe0\xa4\xa8\xe0\xa4\xbe\xe0\xa4\xa4,adj,any,any,,,,'
p5318
sS'chunkid'
p5319
S'JJP'
p5320
sS'drel'
p5321
S'pof:VGF2'
p5322
sS'chunktype'
p5323
S'head:JJP'
p5324
ssbsg34
I00
sg35
I00
sg36
Nsg37
Nsg38
I6
sg39
I11
sg40
Nsg41
Nsg42
S'JJ'
p5325
sg44
g5310
sg45
I00
sba(issf_api
Word
p5326
(dp5327
g6
I00
sg7
V\u0915\u093f\u090f
p5328
sg9
(issf_api
FeatureSet
p5329
(dp5330
g12
(dp5331
S'posn'
p5332
S'170'
p5333
sS'name'
p5334
S'\xe0\xa4\x95\xe0\xa4\xbf\xe0\xa4\x8f'
p5335
sS'af'
p5336
S'\xe0\xa4\x95\xe0\xa4\xb0,v,m,pl,3,,\xe0\xa4\xaf\xe0\xa4\xbe_\xe0\xa4\x9c\xe0\xa4\xbe+\xe0\xa4\x97\xe0\xa4\xbe,yA'
p5337
sS'chunkid'
p5338
S'VGF2'
p5339
sS'stype'
p5340
S'declarative'
p5341
sS'drel'
p5342
S'ccof:CCP'
p5343
sS'voicetype'
p5344
S'passive'
p5345
sS'vpos'
p5346
S'tam_2'
p5347
sS'chunktype'
p5348
S'head:VGF2'
p5349
ssbsg34
I00
sg35
I00
sg36
Nsg37
Nsg38
I7
sg39
I11
sg40
Nsg41
Nsg42
S'VM'
p5350
sg44
g5329
sg45
I00
sba(issf_api
Word
p5351
(dp5352
g6
I00
sg7
V\u091c\u093e\u090f\u0901\u0917\u0947
p5353
sg9
(issf_api
FeatureSet
p5354
(dp5355
g12
(dp5356
S'posn'
p5357
S'180'
p5358
sS'name'
p5359
S'\xe0\xa4\x9c\xe0\xa4\xbe\xe0\xa4\x8f\xe0\xa4\x81\xe0\xa4\x97\xe0\xa5\x87'
p5360
sS'drel'
p5361
S'lwg__vaux:VGF2'
p5362
sS'chunktype'
p5363
S'child:VGF2'
p5364
sS'af'
p5365
S'\xe0\xa4\x9c\xe0\xa4\xbe,v,m,pl,3,,\xe0\xa4\x97\xe0\xa4\xbe,gA'
p5366
ssbsg34
I00
sg35
I00
sg36
Nsg37
Nsg38
I7
sg39
I11
sg40
Nsg41
Nsg42
S'VAUX'
p5367
sg44
g5354
sg45
I00
sba(issf_api
Word
p5368
(dp5369
g6
I00
sg7
V\u0964
p5370
sg9
(issf_api
FeatureSet
p5371
(dp5372
g12
(dp5373
S'posn'
p5374
S'190'
p5375
sS'name'
p5376
S'\xe0\xa5\xa4'
p5377
sS'af'
p5378
S'\xe0\xa5\xa4,punc,,,,,,'
p5379
sS'chunkid'
p5380
S'BLK'
p5381
sS'drel'
p5382
S'rsym:VGF'
p5383
sS'chunktype'
p5384
S'head:BLK'
p5385
ssbsg34
I00
sg35
I00
sg36
Nsg37
Nsg38
I8
sg39
I11
sg40
Nsg41
Nsg42
S'SYM'
p5386
sg44
g5371
sg45
I00
sbasS'sentenceList'
p5387
(lp5388
(issf_api
Sentence
p5389
(dp5390
S'rootNode'
p5391
(lp5392
sg39
I0
sS'wordNumList'
p5393
(lp5394
I0
aI1
aI2
aI3
aI4
aI5
aI6
aI7
aI8
aI9
aI10
aI11
aI12
aI13
aI14
aI15
aI16
aI17
aI18
aI19
aI20
aI21
aI22
aI23
aI24
aI25
aI26
aI27
aI28
aI29
aI30
aI31
aI32
aI33
aI34
aI35
aI36
aI37
aI38
asS'nodeDict'
p5395
(dp5396
S'VGNF'
p5397
(issf_api
Node
p5398
(dp5399
S'nodeRelation'
p5400
S'vmod'
p5401
sS'nodeName'
p5402
g5397
sS'nodeParent'
p5403
S'VGF'
p5404
sS'nodeLevel'
p5405
I-1
sg38
I7
sS'childList'
p5406
(lp5407
S'NP6'
p5408
asbsS'VGNF2'
p5409
(issf_api
Node
p5410
(dp5411
g5400
S'nmod__k1inv'
p5412
sg5402
g5409
sg5403
S'NP10'
p5413
sg5405
I-1
sg38
I12
sg5406
(lp5414
S'CCP'
p5415
asbsS'NP11'
p5416
(issf_api
Node
p5417
(dp5418
g5400
S'pof'
p5419
sg5402
g5416
sg5403
S'VGNN2'
p5420
sg5405
I-1
sg38
I14
sg5406
(lp5421
sbsS'VGNN'
p5422
(issf_api
Node
p5423
(dp5424
g5400
S'nmod'
p5425
sg5402
g5422
sg5403
S'NP3'
p5426
sg5405
I-1
sg38
I2
sg5406
(lp5427
S'NP'
p5428
aS'NP2'
p5429
asbsS'VGF'
p5430
(issf_api
Node
p5431
(dp5432
g5400
S'None'
p5433
sg5402
g5430
sg5403
g5433
sg5405
I-1
sg38
I17
sg5406
(lp5434
g5397
aS'NP12'
p5435
aS'BLK'
p5436
aS'NP4'
p5437
asbsg5435
(issf_api
Node
p5438
(dp5439
g5400
S'pof'
p5440
sg5402
g5435
sg5403
S'VGF'
p5441
sg5405
I-1
sg38
I16
sg5406
(lp5442
S'VGNN2'
p5443
asbsg5415
(issf_api
Node
p5444
(dp5445
g5400
S'k2'
p5446
sg5402
g5415
sg5403
S'VGNF2'
p5447
sg5405
I-1
sg38
I10
sg5406
(lp5448
S'NP9'
p5449
aS'NP8'
p5450
aS'NP7'
p5451
asbsg5443
(issf_api
Node
p5452
(dp5453
g5400
S'r6-k2'
p5454
sg5402
g5443
sg5403
S'NP12'
p5455
sg5405
I-1
sg38
I15
sg5406
(lp5456
g5416
aS'NP10'
p5457
asbsS'NP5'
p5458
(issf_api
Node
p5459
(dp5460
g5400
S'r6'
p5461
sg5402
g5458
sg5403
S'NP6'
p5462
sg5405
I-1
sg38
I5
sg5406
(lp5463
sbsg5449
(issf_api
Node
p5464
(dp5465
g5400
S'ccof'
p5466
sg5402
g5449
sg5403
S'CCP'
p5467
sg5405
I-1
sg38
I11
sg5406
(lp5468
sbsg5450
(issf_api
Node
p5469
(dp5470
g5400
S'ccof'
p5471
sg5402
g5450
sg5403
S'CCP'
p5472
sg5405
I-1
sg38
I9
sg5406
(lp5473
sbsg5436
(issf_api
Node
p5474
(dp5475
g5400
S'rsym'
p5476
sg5402
g5436
sg5403
S'VGF'
p5477
sg5405
I-1
sg38
I18
sg5406
(lp5478
sbsg5457
(issf_api
Node
p5479
(dp5480
g5400
S'k2'
p5481
sg5402
g5457
sg5403
S'VGNN2'
p5482
sg5405
I-1
sg38
I13
sg5406
(lp5483
g5409
asbsg5428
(issf_api
Node
p5484
(dp5485
g5400
S'k7'
p5486
sg5402
g5428
sg5403
S'VGNN'
p5487
sg5405
I-1
sg38
I0
sg5406
(lp5488
sbsg5437
(issf_api
Node
p5489
(dp5490
g5400
S'k7a'
p5491
sg5402
g5437
sg5403
S'VGF'
p5492
sg5405
I-1
sg38
I4
sg5406
(lp5493
S'NP3'
p5494
asbsg5451
(issf_api
Node
p5495
(dp5496
g5400
S'ccof'
p5497
sg5402
g5451
sg5403
S'CCP'
p5498
sg5405
I-1
sg38
I8
sg5406
(lp5499
sbsg5408
(issf_api
Node
p5500
(dp5501
g5400
S'k2'
p5502
sg5402
g5408
sg5403
S'VGNF'
p5503
sg5405
I-1
sg38
I6
sg5406
(lp5504
g5458
asbsg5494
(issf_api
Node
p5505
(dp5506
g5400
S'r6'
p5507
sg5402
g5494
sg5403
S'NP4'
p5508
sg5405
I-1
sg38
I3
sg5406
(lp5509
g5422
asbsg5429
(issf_api
Node
p5510
(dp5511
g5400
S'k7t'
p5512
sg5402
g5429
sg5403
S'VGNN'
p5513
sg5405
I-1
sg38
I1
sg5406
(lp5514
sbssS'chunkList'
p5515
(lp5516
(issf_api
Chunk
p5517
(dp5518
g5402
g23
sg38
I0
sS'chunkTag'
p5519
g43
sg39
I0
sg5393
(lp5520
I0
aI1
asg44
(issf_api
FeatureSet
p5521
(dp5522
g12
(dp5523
S'name'
p5524
g5428
sS'drel'
p5525
S'k7:VGNN'
p5526
ssbsba(issf_api
Chunk
p5527
(dp5528
g5402
g93
sg38
I1
sg5519
g100
sg39
I0
sg5393
(lp5529
I2
aI3
aI4
asg44
(issf_api
FeatureSet
p5530
(dp5531
g12
(dp5532
S'name'
p5533
g5429
sS'drel'
p5534
S'k7t:VGNN'
p5535
ssbsba(issf_api
Chunk
p5536
(dp5537
g5402
g131
sg38
I2
sg5519
g138
sg39
I0
sg5393
(lp5538
I5
aI6
asg44
(issf_api
FeatureSet
p5539
(dp5540
g12
(dp5541
S'name'
p5542
g5422
sS'drel'
p5543
S'nmod:NP3'
p5544
ssbsba(issf_api
Chunk
p5545
(dp5546
g5402
g190
sg38
I3
sg5519
g199
sg39
I0
sg5393
(lp5547
I7
aI8
aI9
asg44
(issf_api
FeatureSet
p5548
(dp5549
g12
(dp5550
S'name'
p5551
g5494
sS'drel'
p5552
S'r6:NP4'
p5553
ssbsba(issf_api
Chunk
p5554
(dp5555
g5402
g232
sg38
I4
sg5519
g245
sg39
I0
sg5393
(lp5556
I10
aI11
aI12
asg44
(issf_api
FeatureSet
p5557
(dp5558
g12
(dp5559
S'name'
p5560
g5437
sS'drel'
p5561
S'k7a:VGF'
p5562
ssbsba(issf_api
Chunk
p5563
(dp5564
g5402
g314
sg38
I5
sg5519
g323
sg39
I0
sg5393
(lp5565
I13
aI14
aI15
asg44
(issf_api
FeatureSet
p5566
(dp5567
g12
(dp5568
S'name'
p5569
g5458
sS'drel'
p5570
S'r6:NP6'
p5571
ssbsba(issf_api
Chunk
p5572
(dp5573
g5402
g354
sg38
I6
sg5519
g361
sg39
I0
sg5393
(lp5574
I16
aI17
asg44
(issf_api
FeatureSet
p5575
(dp5576
g12
(dp5577
S'name'
p5578
g5408
sS'drel'
p5579
S'k2:VGNF'
p5580
ssbsba(issf_api
Chunk
p5581
(dp5582
g5402
g392
sg38
I7
sg5519
g399
sg39
I0
sg5393
(lp5583
I18
aI19
asg44
(issf_api
FeatureSet
p5584
(dp5585
g12
(dp5586
S'name'
p5587
g5397
sS'drel'
p5588
S'vmod:VGF'
p5589
ssbsba(issf_api
Chunk
p5590
(dp5591
g5402
g432
sg38
I8
sg5519
g441
sg39
I0
sg5393
(lp5592
I20
aI21
asg44
(issf_api
FeatureSet
p5593
(dp5594
g12
(dp5595
S'name'
p5596
g5451
sS'drel'
p5597
S'ccof:CCP'
p5598
ssbsba(issf_api
Chunk
p5599
(dp5600
g5402
g489
sg38
I9
sg5519
g494
sg39
I0
sg5393
(lp5601
I22
aI23
asg44
(issf_api
FeatureSet
p5602
(dp5603
g12
(dp5604
S'name'
p5605
g5450
sS'drel'
p5606
S'ccof:CCP'
p5607
ssbsba(issf_api
Chunk
p5608
(dp5609
g5402
g508
sg38
I10
sg5519
g513
sg39
I0
sg5393
(lp5610
I24
asg44
(issf_api
FeatureSet
p5611
(dp5612
g12
(dp5613
S'name'
p5614
g5415
sS'drel'
p5615
S'k2:VGNF2'
p5616
ssbsba(issf_api
Chunk
p5617
(dp5618
g5402
g544
sg38
I11
sg5519
g551
sg39
I0
sg5393
(lp5619
I25
aI26
aI27
asg44
(issf_api
FeatureSet
p5620
(dp5621
g12
(dp5622
S'name'
p5623
g5449
sS'drel'
p5624
S'ccof:CCP'
p5625
ssbsba(issf_api
Chunk
p5626
(dp5627
g5402
g582
sg38
I12
sg5519
g587
sg39
I0
sg5393
(lp5628
I28
asg44
(issf_api
FeatureSet
p5629
(dp5630
g12
(dp5631
S'name'
p5632
g5409
sS'drel'
p5633
S'nmod__k1inv:NP10'
p5634
ssbsba(issf_api
Chunk
p5635
(dp5636
g5402
g601
sg38
I13
sg5519
g608
sg39
I0
sg5393
(lp5637
I29
aI30
asg44
(issf_api
FeatureSet
p5638
(dp5639
g12
(dp5640
S'name'
p5641
g5457
sS'drel'
p5642
S'k2:VGNN2'
p5643
ssbsba(issf_api
Chunk
p5644
(dp5645
g5402
g639
sg38
I14
sg5519
g644
sg39
I0
sg5393
(lp5646
I31
asg44
(issf_api
FeatureSet
p5647
(dp5648
g12
(dp5649
S'name'
p5650
g5416
sS'drel'
p5651
S'pof:VGNN2'
p5652
ssbsba(issf_api
Chunk
p5653
(dp5654
g5402
g658
sg38
I15
sg5519
g665
sg39
I0
sg5393
(lp5655
I32
aI33
asg44
(issf_api
FeatureSet
p5656
(dp5657
g12
(dp5658
S'name'
p5659
g5443
sS'drel'
p5660
S'r6-k2:NP12'
p5661
ssbsba(issf_api
Chunk
p5662
(dp5663
g5402
g696
sg38
I16
sg5519
g701
sg39
I0
sg5393
(lp5664
I34
asg44
(issf_api
FeatureSet
p5665
(dp5666
g12
(dp5667
S'name'
p5668
g5435
sS'drel'
p5669
S'pof:VGF'
p5670
ssbsba(issf_api
Chunk
p5671
(dp5672
g5402
g715
sg38
I17
sg5519
g724
sg39
I0
sg5393
(lp5673
I35
aI36
aI37
asg44
(issf_api
FeatureSet
p5674
(dp5675
g12
(dp5676
S'name'
p5677
g5430
ssbsba(issf_api
Chunk
p5678
(dp5679
g5402
g772
sg38
I18
sg5519
g777
sg39
I0
sg5393
(lp5680
I38
asg44
(issf_api
FeatureSet
p5681
(dp5682
g12
(dp5683
S'name'
p5684
g5436
sS'drel'
p5685
S'rsym:VGF'
p5686
ssbsbasba(issf_api
Sentence
p5687
(dp5688
g5391
(lp5689
sg39
I1
sg5393
(lp5690
I39
aI40
aI41
aI42
aI43
aI44
aI45
aI46
aI47
aI48
aI49
aI50
aI51
aI52
aI53
aI54
aI55
aI56
aI57
aI58
aI59
aI60
aI61
aI62
aI63
aI64
aI65
aI66
aI67
aI68
aI69
aI70
aI71
aI72
aI73
aI74
asg5395
(dp5691
S'VGF2'
p5692
(issf_api
Node
p5693
(dp5694
g5400
S'ccof'
p5695
sg5402
g5692
sg5403
S'CCP'
p5696
sg5405
I-1
sg38
I16
sg5406
(lp5697
S'NP11'
p5698
aS'NP9'
p5699
aS'NP8'
p5700
asbsg5698
(issf_api
Node
p5701
(dp5702
g5400
S'pof'
p5703
sg5402
g5698
sg5403
S'VGF2'
p5704
sg5405
I-1
sg38
I15
sg5406
(lp5705
S'NP10'
p5706
asbsS'VGNN'
p5707
(issf_api
Node
p5708
(dp5709
g5400
S'jjmod'
p5710
sg5402
g5707
sg5403
S'JJP2'
p5711
sg5405
I-1
sg38
I5
sg5406
(lp5712
S'JJP'
p5713
aS'NP4'
p5714
aS'NP3'
p5715
asbsS'VGF'
p5716
(issf_api
Node
p5717
(dp5718
g5400
g5433
sg5402
g5716
sg5403
g5433
sg5405
I-1
sg38
I9
sg5406
(lp5719
S'CCP'
p5720
aS'BLK'
p5721
aS'NP6'
p5722
asbsg5720
(issf_api
Node
p5723
(dp5724
g5400
S'k2'
p5725
sg5402
g5720
sg5403
S'VGF'
p5726
sg5405
I-1
sg38
I10
sg5406
(lp5727
g5692
asbsg5713
(issf_api
Node
p5728
(dp5729
g5400
S'pof'
p5730
sg5402
g5713
sg5403
S'VGNN'
p5731
sg5405
I-1
sg38
I4
sg5406
(lp5732
sbsS'NP5'
p5733
(issf_api
Node
p5734
(dp5735
g5400
S'nmod'
p5736
sg5402
g5733
sg5403
S'NP6'
p5737
sg5405
I-1
sg38
I7
sg5406
(lp5738
S'JJP2'
p5739
asbsg5739
(issf_api
Node
p5740
(dp5741
g5400
S'nmod'
p5742
sg5402
g5739
sg5403
S'NP5'
p5743
sg5405
I-1
sg38
I6
sg5406
(lp5744
g5707
asbsg5699
(issf_api
Node
p5745
(dp5746
g5400
S'k1'
p5747
sg5402
g5699
sg5403
S'VGF2'
p5748
sg5405
I-1
sg38
I13
sg5406
(lp5749
sbsg5700
(issf_api
Node
p5750
(dp5751
g5400
S'k7t'
p5752
sg5402
g5700
sg5403
S'VGF2'
p5753
sg5405
I-1
sg38
I12
sg5406
(lp5754
S'NP7'
p5755
asbsg5721
(issf_api
Node
p5756
(dp5757
g5400
S'rsym'
p5758
sg5402
g5721
sg5403
S'VGF'
p5759
sg5405
I-1
sg38
I17
sg5406
(lp5760
sbsg5706
(issf_api
Node
p5761
(dp5762
g5400
S'r6-k2'
p5763
sg5402
g5706
sg5403
S'NP11'
p5764
sg5405
I-1
sg38
I14
sg5406
(lp5765
sbsS'NP'
p5766
(issf_api
Node
p5767
(dp5768
g5400
S'r6'
p5769
sg5402
g5766
sg5403
S'NP2'
p5770
sg5405
I-1
sg38
I0
sg5406
(lp5771
sbsg5714
(issf_api
Node
p5772
(dp5773
g5400
S'adv'
p5774
sg5402
g5714
sg5403
S'VGNN'
p5775
sg5405
I-1
sg38
I3
sg5406
(lp5776
sbsg5755
(issf_api
Node
p5777
(dp5778
g5400
S'r6'
p5779
sg5402
g5755
sg5403
S'NP8'
p5780
sg5405
I-1
sg38
I11
sg5406
(lp5781
sbsg5722
(issf_api
Node
p5782
(dp5783
g5400
S'k1'
p5784
sg5402
g5722
sg5403
S'VGF'
p5785
sg5405
I-1
sg38
I8
sg5406
(lp5786
g5733
asbsg5715
(issf_api
Node
p5787
(dp5788
g5400
S'k1'
p5789
sg5402
g5715
sg5403
S'VGNN'
p5790
sg5405
I-1
sg38
I2
sg5406
(lp5791
S'NP2'
p5792
asbsg5792
(issf_api
Node
p5793
(dp5794
g5400
S'r6'
p5795
sg5402
g5792
sg5403
S'NP3'
p5796
sg5405
I-1
sg38
I1
sg5406
(lp5797
g5766
asbssg5515
(lp5798
(issf_api
Chunk
p5799
(dp5800
g5402
g814
sg38
I0
sg5519
g821
sg39
I1
sg5393
(lp5801
I39
aI40
aI41
asg44
(issf_api
FeatureSet
p5802
(dp5803
g12
(dp5804
S'name'
p5805
g5766
sS'drel'
p5806
S'r6:NP2'
p5807
ssbsba(issf_api
Chunk
p5808
(dp5809
g5402
g869
sg38
I1
sg5519
g876
sg39
I1
sg5393
(lp5810
I42
aI43
aI44
asg44
(issf_api
FeatureSet
p5811
(dp5812
g12
(dp5813
S'name'
p5814
g5792
sS'drel'
p5815
S'r6:NP3'
p5816
ssbsba(issf_api
Chunk
p5817
(dp5818
g5402
g907
sg38
I2
sg5519
g912
sg39
I1
sg5393
(lp5819
I45
asg44
(issf_api
FeatureSet
p5820
(dp5821
g12
(dp5822
S'name'
p5823
g5715
sS'drel'
p5824
S'k1:VGNN'
p5825
ssbsba(issf_api
Chunk
p5826
(dp5827
g5402
g943
sg38
I3
sg5519
g950
sg39
I1
sg5393
(lp5828
I46
aI47
aI48
asg44
(issf_api
FeatureSet
p5829
(dp5830
g12
(dp5831
S'name'
p5832
g5714
sS'drel'
p5833
S'adv:VGNN'
p5834
ssbsba(issf_api
Chunk
p5835
(dp5836
g5402
g981
sg38
I4
sg5519
g986
sg39
I1
sg5393
(lp5837
I49
asg44
(issf_api
FeatureSet
p5838
(dp5839
g12
(dp5840
S'name'
p5841
g5713
sS'drel'
p5842
S'pof:VGNN'
p5843
ssbsba(issf_api
Chunk
p5844
(dp5845
g5402
g1000
sg38
I5
sg5519
g1007
sg39
I1
sg5393
(lp5846
I50
aI51
asg44
(issf_api
FeatureSet
p5847
(dp5848
g12
(dp5849
S'name'
p5850
g5707
sS'drel'
p5851
S'jjmod:JJP2'
p5852
ssbsba(issf_api
Chunk
p5853
(dp5854
g5402
g1038
sg38
I6
sg5519
g1043
sg39
I1
sg5393
(lp5855
I52
asg44
(issf_api
FeatureSet
p5856
(dp5857
g12
(dp5858
S'name'
p5859
g5739
sS'drel'
p5860
S'nmod:NP5'
p5861
ssbsba(issf_api
Chunk
p5862
(dp5863
g5402
g1097
sg38
I7
sg5519
g1104
sg39
I1
sg5393
(lp5864
I53
aI54
aI55
asg44
(issf_api
FeatureSet
p5865
(dp5866
g12
(dp5867
S'name'
p5868
g5733
sS'drel'
p5869
S'nmod:NP6'
p5870
ssbsba(issf_api
Chunk
p5871
(dp5872
g5402
g1158
sg38
I8
sg5519
g1171
sg39
I1
sg5393
(lp5873
I56
aI57
aI58
aI59
asg44
(issf_api
FeatureSet
p5874
(dp5875
g12
(dp5876
S'name'
p5877
g5722
sS'drel'
p5878
S'k1:VGF'
p5879
ssbsba(issf_api
Chunk
p5880
(dp5881
g5402
g1202
sg38
I9
sg5519
g1209
sg39
I1
sg5393
(lp5882
I60
asg44
(issf_api
FeatureSet
p5883
(dp5884
g12
(dp5885
S'name'
p5886
g5716
ssbsba(issf_api
Chunk
p5887
(dp5888
g5402
g1223
sg38
I10
sg5519
g1228
sg39
I1
sg5393
(lp5889
I61
asg44
(issf_api
FeatureSet
p5890
(dp5891
g12
(dp5892
S'name'
p5893
g5720
sS'drel'
p5894
S'k2:VGF'
p5895
ssbsba(issf_api
Chunk
p5896
(dp5897
g5402
g1263
sg38
I11
sg5519
g1272
sg39
I1
sg5393
(lp5898
I62
aI63
aI64
asg44
(issf_api
FeatureSet
p5899
(dp5900
g12
(dp5901
S'name'
p5902
g5755
sS'drel'
p5903
S'r6:NP8'
p5904
ssbsba(issf_api
Chunk
p5905
(dp5906
g5402
g1305
sg38
I12
sg5519
g1318
sg39
I1
sg5393
(lp5907
I65
aI66
aI67
asg44
(issf_api
FeatureSet
p5908
(dp5909
g12
(dp5910
S'name'
p5911
g5700
sS'drel'
p5912
S'k7t:VGF2'
p5913
ssbsba(issf_api
Chunk
p5914
(dp5915
g5402
g1368
sg38
I13
sg5519
g1377
sg39
I1
sg5393
(lp5916
I68
asg44
(issf_api
FeatureSet
p5917
(dp5918
g12
(dp5919
S'name'
p5920
g5699
sS'drel'
p5921
S'k1:VGF2'
p5922
ssbsba(issf_api
Chunk
p5923
(dp5924
g5402
g1391
sg38
I14
sg5519
g1398
sg39
I1
sg5393
(lp5925
I69
aI70
asg44
(issf_api
FeatureSet
p5926
(dp5927
g12
(dp5928
S'name'
p5929
g5706
sS'drel'
p5930
S'r6-k2:NP11'
p5931
ssbsba(issf_api
Chunk
p5932
(dp5933
g5402
g1446
sg38
I15
sg5519
g1451
sg39
I1
sg5393
(lp5934
I71
aI72
asg44
(issf_api
FeatureSet
p5935
(dp5936
g12
(dp5937
S'name'
p5938
g5698
sS'drel'
p5939
S'pof:VGF2'
p5940
ssbsba(issf_api
Chunk
p5941
(dp5942
g5402
g1465
sg38
I16
sg5519
g1474
sg39
I1
sg5393
(lp5943
I73
asg44
(issf_api
FeatureSet
p5944
(dp5945
g12
(dp5946
S'name'
p5947
g5692
sS'drel'
p5948
S'ccof:CCP'
p5949
ssbsba(issf_api
Chunk
p5950
(dp5951
g5402
g1488
sg38
I17
sg5519
g1493
sg39
I1
sg5393
(lp5952
I74
asg44
(issf_api
FeatureSet
p5953
(dp5954
g12
(dp5955
S'name'
p5956
g5721
sS'drel'
p5957
S'rsym:VGF'
p5958
ssbsbasba(issf_api
Sentence
p5959
(dp5960
g5391
(lp5961
sg39
I2
sg5393
(lp5962
I75
aI76
aI77
aI78
aI79
aI80
aI81
aI82
aI83
aI84
aI85
aI86
aI87
aI88
aI89
aI90
aI91
aI92
aI93
aI94
aI95
aI96
aI97
asg5395
(dp5963
S'VGNF'
p5964
(issf_api
Node
p5965
(dp5966
g5400
S'nmod__k1inv'
p5967
sg5402
g5964
sg5403
S'NP4'
p5968
sg5405
I-1
sg38
I3
sg5406
(lp5969
S'NP3'
p5970
aS'NP2'
p5971
asbsS'VGF'
p5972
(issf_api
Node
p5973
(dp5974
g5400
g5433
sg5402
g5972
sg5403
g5433
sg5405
I-1
sg38
I8
sg5406
(lp5975
S'NP5'
p5976
aS'BLK'
p5977
aS'NP4'
p5978
aS'NP7'
p5979
asbsg5976
(issf_api
Node
p5980
(dp5981
g5400
S'k7'
p5982
sg5402
g5976
sg5403
S'VGF'
p5983
sg5405
I-1
sg38
I5
sg5406
(lp5984
sbsg5977
(issf_api
Node
p5985
(dp5986
g5400
S'rsym'
p5987
sg5402
g5977
sg5403
S'VGF'
p5988
sg5405
I-1
sg38
I9
sg5406
(lp5989
sbsS'NP'
p5990
(issf_api
Node
p5991
(dp5992
g5400
S'r6'
p5993
sg5402
g5990
sg5403
S'NP2'
p5994
sg5405
I-1
sg38
I0
sg5406
(lp5995
sbsg5978
(issf_api
Node
p5996
(dp5997
g5400
S'k7p'
p5998
sg5402
g5978
sg5403
S'VGF'
p5999
sg5405
I-1
sg38
I4
sg5406
(lp6000
g5964
asbsg5979
(issf_api
Node
p6001
(dp6002
g5400
S'k2'
p6003
sg5402
g5979
sg5403
S'VGF'
p6004
sg5405
I-1
sg38
I7
sg5406
(lp6005
S'NP6'
p6006
asbsg6006
(issf_api
Node
p6007
(dp6008
g5400
S'r6'
p6009
sg5402
g6006
sg5403
S'NP7'
p6010
sg5405
I-1
sg38
I6
sg5406
(lp6011
sbsg5970
(issf_api
Node
p6012
(dp6013
g5400
S'k2'
p6014
sg5402
g5970
sg5403
S'VGNF'
p6015
sg5405
I-1
sg38
I2
sg5406
(lp6016
sbsg5971
(issf_api
Node
p6017
(dp6018
g5400
S'k7t'
p6019
sg5402
g5971
sg5403
S'VGNF'
p6020
sg5405
I-1
sg38
I1
sg5406
(lp6021
g5990
asbssg5515
(lp6022
(issf_api
Chunk
p6023
(dp6024
g5402
g1524
sg38
I0
sg5519
g1531
sg39
I2
sg5393
(lp6025
I75
aI76
aI77
asg44
(issf_api
FeatureSet
p6026
(dp6027
g12
(dp6028
S'name'
p6029
g5990
sS'drel'
p6030
S'r6:NP2'
p6031
ssbsba(issf_api
Chunk
p6032
(dp6033
g5402
g1562
sg38
I1
sg5519
g1569
sg39
I2
sg5393
(lp6034
I78
aI79
aI80
asg44
(issf_api
FeatureSet
p6035
(dp6036
g12
(dp6037
S'name'
p6038
g5971
sS'drel'
p6039
S'k7t:VGNF'
p6040
ssbsba(issf_api
Chunk
p6041
(dp6042
g5402
g1619
sg38
I2
sg5519
g1630
sg39
I2
sg5393
(lp6043
I81
aI82
asg44
(issf_api
FeatureSet
p6044
(dp6045
g12
(dp6046
S'name'
p6047
g5970
sS'drel'
p6048
S'k2:VGNF'
p6049
ssbsba(issf_api
Chunk
p6050
(dp6051
g5402
g1663
sg38
I3
sg5519
g1670
sg39
I2
sg5393
(lp6052
I83
asg44
(issf_api
FeatureSet
p6053
(dp6054
g12
(dp6055
S'name'
p6056
g5964
sS'drel'
p6057
S'nmod__k1inv:NP4'
p6058
ssbsba(issf_api
Chunk
p6059
(dp6060
g5402
g1705
sg38
I4
sg5519
g1716
sg39
I2
sg5393
(lp6061
I84
aI85
aI86
asg44
(issf_api
FeatureSet
p6062
(dp6063
g12
(dp6064
S'name'
p6065
g5978
sS'drel'
p6066
S'k7p:VGF'
p6067
ssbsba(issf_api
Chunk
p6068
(dp6069
g5402
g1764
sg38
I5
sg5519
g1771
sg39
I2
sg5393
(lp6070
I87
aI88
aI89
asg44
(issf_api
FeatureSet
p6071
(dp6072
g12
(dp6073
S'name'
p6074
g5976
sS'drel'
p6075
S'k7:VGF'
p6076
ssbsba(issf_api
Chunk
p6077
(dp6078
g5402
g1802
sg38
I6
sg5519
g1809
sg39
I2
sg5393
(lp6079
I90
aI91
asg44
(issf_api
FeatureSet
p6080
(dp6081
g12
(dp6082
S'name'
p6083
g6006
sS'drel'
p6084
S'r6:NP7'
p6085
ssbsba(issf_api
Chunk
p6086
(dp6087
g5402
g1840
sg38
I7
sg5519
g1845
sg39
I2
sg5393
(lp6088
I92
asg44
(issf_api
FeatureSet
p6089
(dp6090
g12
(dp6091
S'name'
p6092
g5979
sS'drel'
p6093
S'k2:VGF'
p6094
ssbsba(issf_api
Chunk
p6095
(dp6096
g5402
g1859
sg38
I8
sg5519
g1868
sg39
I2
sg5393
(lp6097
I93
aI94
aI95
aI96
asg44
(issf_api
FeatureSet
p6098
(dp6099
g12
(dp6100
S'name'
p6101
g5972
ssbsba(issf_api
Chunk
p6102
(dp6103
g5402
g1933
sg38
I9
sg5519
g1938
sg39
I2
sg5393
(lp6104
I97
asg44
(issf_api
FeatureSet
p6105
(dp6106
g12
(dp6107
S'name'
p6108
g5977
sS'drel'
p6109
S'rsym:VGF'
p6110
ssbsbasba(issf_api
Sentence
p6111
(dp6112
g5391
(lp6113
sg39
I3
sg5393
(lp6114
I98
aI99
aI100
aI101
aI102
aI103
aI104
aI105
aI106
aI107
asg5395
(dp6115
S'VGF'
p6116
(issf_api
Node
p6117
(dp6118
g5400
g5433
sg5402
g6116
sg5403
g5433
sg5405
I-1
sg38
I6
sg5406
(lp6119
S'NP5'
p6120
aS'BLK'
p6121
aS'NP'
p6122
aS'NP4'
p6123
asbsS'CCP'
p6124
(issf_api
Node
p6125
(dp6126
g5400
S'rs'
p6127
sg5402
g6124
sg5403
S'NP4'
p6128
sg5405
I-1
sg38
I2
sg5406
(lp6129
S'NP3'
p6130
aS'NP2'
p6131
asbsg6120
(issf_api
Node
p6132
(dp6133
g5400
S'k1s'
p6134
sg5402
g6120
sg5403
S'VGF'
p6135
sg5405
I-1
sg38
I5
sg5406
(lp6136
sbsg6121
(issf_api
Node
p6137
(dp6138
g5400
S'rsym'
p6139
sg5402
g6121
sg5403
S'VGF'
p6140
sg5405
I-1
sg38
I7
sg5406
(lp6141
sbsg6122
(issf_api
Node
p6142
(dp6143
g5400
S'k1'
p6144
sg5402
g6122
sg5403
S'VGF'
p6145
sg5405
I-1
sg38
I0
sg5406
(lp6146
sbsg6123
(issf_api
Node
p6147
(dp6148
g5400
S'rt'
p6149
sg5402
g6123
sg5403
S'VGF'
p6150
sg5405
I-1
sg38
I4
sg5406
(lp6151
g6124
asbsg6130
(issf_api
Node
p6152
(dp6153
g5400
S'ccof'
p6154
sg5402
g6130
sg5403
S'CCP'
p6155
sg5405
I-1
sg38
I3
sg5406
(lp6156
sbsg6131
(issf_api
Node
p6157
(dp6158
g5400
S'ccof'
p6159
sg5402
g6131
sg5403
S'CCP'
p6160
sg5405
I-1
sg38
I1
sg5406
(lp6161
sbssg5515
(lp6162
(issf_api
Chunk
p6163
(dp6164
g5402
g1954
sg38
I0
sg5519
g1963
sg39
I3
sg5393
(lp6165
I98
asg44
(issf_api
FeatureSet
p6166
(dp6167
g12
(dp6168
S'name'
p6169
g6122
sS'drel'
p6170
S'k1:VGF'
p6171
ssbsba(issf_api
Chunk
p6172
(dp6173
g5402
g1977
sg38
I1
sg5519
g1982
sg39
I3
sg5393
(lp6174
I99
asg44
(issf_api
FeatureSet
p6175
(dp6176
g12
(dp6177
S'name'
p6178
g6131
sS'drel'
p6179
S'ccof:CCP'
p6180
ssbsba(issf_api
Chunk
p6181
(dp6182
g5402
g1996
sg38
I2
sg5519
g2001
sg39
I3
sg5393
(lp6183
I100
asg44
(issf_api
FeatureSet
p6184
(dp6185
g12
(dp6186
S'name'
p6187
g6124
sS'drel'
p6188
S'rs:NP4'
p6189
ssbsba(issf_api
Chunk
p6190
(dp6191
g5402
g2017
sg38
I3
sg5519
g2026
sg39
I3
sg5393
(lp6192
I101
asg44
(issf_api
FeatureSet
p6193
(dp6194
g12
(dp6195
S'name'
p6196
g6130
sS'drel'
p6197
S'ccof:CCP'
p6198
ssbsba(issf_api
Chunk
p6199
(dp6200
g5402
g2040
sg38
I4
sg5519
g2047
sg39
I3
sg5393
(lp6201
I102
aI103
aI104
asg44
(issf_api
FeatureSet
p6202
(dp6203
g12
(dp6204
S'name'
p6205
g6123
sS'drel'
p6206
S'rt:VGF'
p6207
ssbsba(issf_api
Chunk
p6208
(dp6209
g5402
g2095
sg38
I5
sg5519
g2100
sg39
I3
sg5393
(lp6210
I105
asg44
(issf_api
FeatureSet
p6211
(dp6212
g12
(dp6213
S'name'
p6214
g6120
sS'drel'
p6215
S'k1s:VGF'
p6216
ssbsba(issf_api
Chunk
p6217
(dp6218
g5402
g2114
sg38
I6
sg5519
g2121
sg39
I3
sg5393
(lp6219
I106
asg44
(issf_api
FeatureSet
p6220
(dp6221
g12
(dp6222
S'name'
p6223
g6116
ssbsba(issf_api
Chunk
p6224
(dp6225
g5402
g2135
sg38
I7
sg5519
g2140
sg39
I3
sg5393
(lp6226
I107
asg44
(issf_api
FeatureSet
p6227
(dp6228
g12
(dp6229
S'name'
p6230
g6121
sS'drel'
p6231
S'rsym:VGF'
p6232
ssbsbasba(issf_api
Sentence
p6233
(dp6234
g5391
(lp6235
sg39
I4
sg5393
(lp6236
I108
aI109
aI110
aI111
aI112
aI113
aI114
aI115
aI116
aI117
aI118
aI119
aI120
aI121
aI122
aI123
aI124
aI125
aI126
aI127
aI128
aI129
aI130
aI131
aI132
aI133
aI134
aI135
aI136
aI137
aI138
aI139
aI140
aI141
aI142
asg5395
(dp6237
S'NP11'
p6238
(issf_api
Node
p6239
(dp6240
g5400
S'pof'
p6241
sg5402
g6238
sg5403
S'VGF2'
p6242
sg5405
I-1
sg38
I12
sg5406
(lp6243
S'NP10'
p6244
asbsg6244
(issf_api
Node
p6245
(dp6246
g5400
S'r6'
p6247
sg5402
g6244
sg5403
S'NP11'
p6248
sg5405
I-1
sg38
I11
sg5406
(lp6249
sbsS'VGF'
p6250
(issf_api
Node
p6251
(dp6252
g5400
g5433
sg5402
g6250
sg5403
g5433
sg5405
I-1
sg38
I3
sg5406
(lp6253
S'CCP'
p6254
aS'BLK'
p6255
aS'NP3'
p6256
asbsg6254
(issf_api
Node
p6257
(dp6258
g5400
S'k2'
p6259
sg5402
g6254
sg5403
S'VGF'
p6260
sg5405
I-1
sg38
I4
sg5406
(lp6261
S'VGF2'
p6262
asbsg6262
(issf_api
Node
p6263
(dp6264
g5400
S'ccof'
p6265
sg5402
g6262
sg5403
S'CCP'
p6266
sg5405
I-1
sg38
I13
sg5406
(lp6267
g6238
aS'NP9'
p6268
aS'NP4'
p6269
aS'NP7'
p6270
aS'NP6'
p6271
asbsS'NP5'
p6272
(issf_api
Node
p6273
(dp6274
g5400
S'r6'
p6275
sg5402
g6272
sg5403
S'NP6'
p6276
sg5405
I-1
sg38
I6
sg5406
(lp6277
sbsg6268
(issf_api
Node
p6278
(dp6279
g5400
S'k7p'
p6280
sg5402
g6268
sg5403
S'VGF2'
p6281
sg5405
I-1
sg38
I10
sg5406
(lp6282
S'NP8'
p6283
asbsg6283
(issf_api
Node
p6284
(dp6285
g5400
S'r6'
p6286
sg5402
g6283
sg5403
S'NP9'
p6287
sg5405
I-1
sg38
I9
sg5406
(lp6288
sbsg6255
(issf_api
Node
p6289
(dp6290
g5400
S'rsym'
p6291
sg5402
g6255
sg5403
S'VGF'
p6292
sg5405
I-1
sg38
I14
sg5406
(lp6293
sbsS'NP'
p6294
(issf_api
Node
p6295
(dp6296
g5400
S'r6'
p6297
sg5402
g6294
sg5403
S'NP2'
p6298
sg5405
I-1
sg38
I0
sg5406
(lp6299
sbsg6269
(issf_api
Node
p6300
(dp6301
g5400
S'k1'
p6302
sg5402
g6269
sg5403
S'VGF2'
p6303
sg5405
I-1
sg38
I5
sg5406
(lp6304
sbsg6270
(issf_api
Node
p6305
(dp6306
g5400
S'k7'
p6307
sg5402
g6270
sg5403
S'VGF2'
p6308
sg5405
I-1
sg38
I8
sg5406
(lp6309
sbsg6271
(issf_api
Node
p6310
(dp6311
g5400
S'rh'
p6312
sg5402
g6271
sg5403
S'VGF2'
p6313
sg5405
I-1
sg38
I7
sg5406
(lp6314
g6272
asbsg6256
(issf_api
Node
p6315
(dp6316
g5400
S'k1'
p6317
sg5402
g6256
sg5403
S'VGF'
p6318
sg5405
I-1
sg38
I2
sg5406
(lp6319
S'NP2'
p6320
asbsg6320
(issf_api
Node
p6321
(dp6322
g5400
S'r6'
p6323
sg5402
g6320
sg5403
S'NP3'
p6324
sg5405
I-1
sg38
I1
sg5406
(lp6325
g6294
asbssg5515
(lp6326
(issf_api
Chunk
p6327
(dp6328
g5402
g2156
sg38
I0
sg5519
g2167
sg39
I4
sg5393
(lp6329
I108
aI109
asg44
(issf_api
FeatureSet
p6330
(dp6331
g12
(dp6332
S'name'
p6333
g6294
sS'drel'
p6334
S'r6:NP2'
p6335
ssbsba(issf_api
Chunk
p6336
(dp6337
g5402
g2215
sg38
I1
sg5519
g2222
sg39
I4
sg5393
(lp6338
I110
aI111
aI112
asg44
(issf_api
FeatureSet
p6339
(dp6340
g12
(dp6341
S'name'
p6342
g6320
sS'drel'
p6343
S'r6:NP3'
p6344
ssbsba(issf_api
Chunk
p6345
(dp6346
g5402
g2253
sg38
I2
sg5519
g2260
sg39
I4
sg5393
(lp6347
I113
aI114
asg44
(issf_api
FeatureSet
p6348
(dp6349
g12
(dp6350
S'name'
p6351
g6256
sS'drel'
p6352
S'k1:VGF'
p6353
ssbsba(issf_api
Chunk
p6354
(dp6355
g5402
g2291
sg38
I3
sg5519
g2300
sg39
I4
sg5393
(lp6356
I115
aI116
asg44
(issf_api
FeatureSet
p6357
(dp6358
g12
(dp6359
S'name'
p6360
g6250
ssbsba(issf_api
Chunk
p6361
(dp6362
g5402
g2331
sg38
I4
sg5519
g2336
sg39
I4
sg5393
(lp6363
I117
asg44
(issf_api
FeatureSet
p6364
(dp6365
g12
(dp6366
S'name'
p6367
g6254
sS'drel'
p6368
S'k2:VGF'
p6369
ssbsba(issf_api
Chunk
p6370
(dp6371
g5402
g2367
sg38
I5
sg5519
g2374
sg39
I4
sg5393
(lp6372
I118
aI119
aI120
asg44
(issf_api
FeatureSet
p6373
(dp6374
g12
(dp6375
S'name'
p6376
g6269
sS'drel'
p6377
S'k1:VGF2'
p6378
ssbsba(issf_api
Chunk
p6379
(dp6380
g5402
g2445
sg38
I6
sg5519
g2456
sg39
I4
sg5393
(lp6381
I121
aI122
aI123
aI124
asg44
(issf_api
FeatureSet
p6382
(dp6383
g12
(dp6384
S'name'
p6385
g6272
sS'drel'
p6386
S'r6:NP6'
p6387
ssbsba(issf_api
Chunk
p6388
(dp6389
g5402
g2487
sg38
I7
sg5519
g2494
sg39
I4
sg5393
(lp6390
I125
aI126
asg44
(issf_api
FeatureSet
p6391
(dp6392
g12
(dp6393
S'name'
p6394
g6271
sS'drel'
p6395
S'rh:VGF2'
p6396
ssbsba(issf_api
Chunk
p6397
(dp6398
g5402
g2546
sg38
I8
sg5519
g2557
sg39
I4
sg5393
(lp6399
I127
aI128
aI129
asg44
(issf_api
FeatureSet
p6400
(dp6401
g12
(dp6402
S'name'
p6403
g6270
sS'drel'
p6404
S'k7:VGF2'
p6405
ssbsba(issf_api
Chunk
p6406
(dp6407
g5402
g2605
sg38
I9
sg5519
g2612
sg39
I4
sg5393
(lp6408
I130
aI131
aI132
asg44
(issf_api
FeatureSet
p6409
(dp6410
g12
(dp6411
S'name'
p6412
g6283
sS'drel'
p6413
S'r6:NP9'
p6414
ssbsba(issf_api
Chunk
p6415
(dp6416
g5402
g2643
sg38
I10
sg5519
g2650
sg39
I4
sg5393
(lp6417
I133
aI134
aI135
asg44
(issf_api
FeatureSet
p6418
(dp6419
g12
(dp6420
S'name'
p6421
g6268
sS'drel'
p6422
S'k7p:VGF2'
p6423
ssbsba(issf_api
Chunk
p6424
(dp6425
g5402
g2715
sg38
I11
sg5519
g2722
sg39
I4
sg5393
(lp6426
I136
aI137
aI138
asg44
(issf_api
FeatureSet
p6427
(dp6428
g12
(dp6429
S'name'
p6430
g6244
sS'drel'
p6431
S'r6:NP11'
p6432
ssbsba(issf_api
Chunk
p6433
(dp6434
g5402
g2753
sg38
I12
sg5519
g2758
sg39
I4
sg5393
(lp6435
I139
asg44
(issf_api
FeatureSet
p6436
(dp6437
g12
(dp6438
S'name'
p6439
g6238
sS'drel'
p6440
S'pof:VGF2'
p6441
ssbsba(issf_api
Chunk
p6442
(dp6443
g5402
g2772
sg38
I13
sg5519
g2783
sg39
I4
sg5393
(lp6444
I140
aI141
asg44
(issf_api
FeatureSet
p6445
(dp6446
g12
(dp6447
S'name'
p6448
g6262
sS'drel'
p6449
S'ccof:CCP'
p6450
ssbsba(issf_api
Chunk
p6451
(dp6452
g5402
g2814
sg38
I14
sg5519
g2819
sg39
I4
sg5393
(lp6453
I142
asg44
(issf_api
FeatureSet
p6454
(dp6455
g12
(dp6456
S'name'
p6457
g6255
sS'drel'
p6458
S'rsym:VGF'
p6459
ssbsbasba(issf_api
Sentence
p6460
(dp6461
g5391
(lp6462
sg39
I5
sg5393
(lp6463
I143
aI144
aI145
aI146
aI147
aI148
aI149
aI150
aI151
aI152
aI153
aI154
aI155
aI156
aI157
aI158
aI159
aI160
aI161
aI162
aI163
aI164
aI165
aI166
aI167
aI168
aI169
aI170
aI171
aI172
aI173
aI174
asg5395
(dp6464
S'VGNF'
p6465
(issf_api
Node
p6466
(dp6467
g5400
S'nmod__k1inv'
p6468
sg5402
g6465
sg5403
S'NP5'
p6469
sg5405
I-1
sg38
I6
sg5406
(lp6470
S'NP4'
p6471
asbsS'VGNN'
p6472
(issf_api
Node
p6473
(dp6474
g5400
S'nmod'
p6475
sg5402
g6472
sg5403
S'NP6'
p6476
sg5405
I-1
sg38
I8
sg5406
(lp6477
S'NP5'
p6478
asbsS'VGF'
p6479
(issf_api
Node
p6480
(dp6481
g5400
g5433
sg5402
g6479
sg5403
g5433
sg5405
I-1
sg38
I1
sg5406
(lp6482
S'CCP'
p6483
aS'BLK'
p6484
aS'NP'
p6485
asbsg6483
(issf_api
Node
p6486
(dp6487
g5400
S'k2'
p6488
sg5402
g6483
sg5403
S'VGF'
p6489
sg5405
I-1
sg38
I2
sg5406
(lp6490
S'VGF2'
p6491
asbsg6491
(issf_api
Node
p6492
(dp6493
g5400
S'ccof'
p6494
sg5402
g6491
sg5403
S'CCP'
p6495
sg5405
I-1
sg38
I14
sg5406
(lp6496
S'NP9'
p6497
aS'CCP2'
p6498
aS'NP3'
p6499
aS'NP2'
p6500
asbsg6478
(issf_api
Node
p6501
(dp6502
g5400
S'k7a'
p6503
sg5402
g6478
sg5403
S'VGNN'
p6504
sg5405
I-1
sg38
I7
sg5406
(lp6505
g6465
asbsg6497
(issf_api
Node
p6506
(dp6507
g5400
S'pof'
p6508
sg5402
g6497
sg5403
S'VGF2'
p6509
sg5405
I-1
sg38
I13
sg5406
(lp6510
sbsS'NP8'
p6511
(issf_api
Node
p6512
(dp6513
g5400
S'ccof'
p6514
sg5402
g6511
sg5403
S'CCP2'
p6515
sg5405
I-1
sg38
I12
sg5406
(lp6516
sbsg6484
(issf_api
Node
p6517
(dp6518
g5400
S'rsym'
p6519
sg5402
g6484
sg5403
S'VGF'
p6520
sg5405
I-1
sg38
I15
sg5406
(lp6521
sbsg6485
(issf_api
Node
p6522
(dp6523
g5400
S'k1'
p6524
sg5402
g6485
sg5403
S'VGF'
p6525
sg5405
I-1
sg38
I0
sg5406
(lp6526
sbsg6471
(issf_api
Node
p6527
(dp6528
g5400
S'k2'
p6529
sg5402
g6471
sg5403
S'VGNF'
p6530
sg5405
I-1
sg38
I5
sg5406
(lp6531
sbsS'NP7'
p6532
(issf_api
Node
p6533
(dp6534
g5400
S'ccof'
p6535
sg5402
g6532
sg5403
S'CCP2'
p6536
sg5405
I-1
sg38
I10
sg5406
(lp6537
sbsS'NP6'
p6538
(issf_api
Node
p6539
(dp6540
g5400
S'ccof'
p6541
sg5402
g6538
sg5403
S'CCP2'
p6542
sg5405
I-1
sg38
I9
sg5406
(lp6543
g6472
asbsg6498
(issf_api
Node
p6544
(dp6545
g5400
S'k7p'
p6546
sg5402
g6498
sg5403
S'VGF2'
p6547
sg5405
I-1
sg38
I11
sg5406
(lp6548
g6511
ag6532
ag6538
asbsg6499
(issf_api
Node
p6549
(dp6550
g5400
S'k1'
p6551
sg5402
g6499
sg5403
S'VGF2'
p6552
sg5405
I-1
sg38
I4
sg5406
(lp6553
sbsg6500
(issf_api
Node
p6554
(dp6555
g5400
S'k7t'
p6556
sg5402
g6500
sg5403
S'VGF2'
p6557
sg5405
I-1
sg38
I3
sg5406
(lp6558
sbssg5515
(lp6559
(issf_api
Chunk
p6560
(dp6561
g5402
g2833
sg38
I0
sg5519
g2840
sg39
I5
sg5393
(lp6562
I143
aI144
asg44
(issf_api
FeatureSet
p6563
(dp6564
g12
(dp6565
S'name'
p6566
g6485
sS'drel'
p6567
S'k1:VGF'
p6568
ssbsba(issf_api
Chunk
p6569
(dp6570
g5402
g2871
sg38
I1
sg5519
g2878
sg39
I5
sg5393
(lp6571
I145
asg44
(issf_api
FeatureSet
p6572
(dp6573
g12
(dp6574
S'name'
p6575
g6479
ssbsba(issf_api
Chunk
p6576
(dp6577
g5402
g2892
sg38
I2
sg5519
g2897
sg39
I5
sg5393
(lp6578
I146
asg44
(issf_api
FeatureSet
p6579
(dp6580
g12
(dp6581
S'name'
p6582
g6483
sS'drel'
p6583
S'k2:VGF'
p6584
ssbsba(issf_api
Chunk
p6585
(dp6586
g5402
g2945
sg38
I3
sg5519
g2952
sg39
I5
sg5393
(lp6587
I147
aI148
aI149
aI150
asg44
(issf_api
FeatureSet
p6588
(dp6589
g12
(dp6590
S'name'
p6591
g6500
sS'drel'
p6592
S'k7t:VGF2'
p6593
ssbsba(issf_api
Chunk
p6594
(dp6595
g5402
g2983
sg38
I4
sg5519
g2990
sg39
I5
sg5393
(lp6596
I151
aI152
asg44
(issf_api
FeatureSet
p6597
(dp6598
g12
(dp6599
S'name'
p6600
g6499
sS'drel'
p6601
S'k1:VGF2'
p6602
ssbsba(issf_api
Chunk
p6603
(dp6604
g5402
g3044
sg38
I5
sg5519
g3051
sg39
I5
sg5393
(lp6605
I153
aI154
aI155
asg44
(issf_api
FeatureSet
p6606
(dp6607
g12
(dp6608
S'name'
p6609
g6471
sS'drel'
p6610
S'k2:VGNF'
p6611
ssbsba(issf_api
Chunk
p6612
(dp6613
g5402
g3082
sg38
I6
sg5519
g3087
sg39
I5
sg5393
(lp6614
I156
asg44
(issf_api
FeatureSet
p6615
(dp6616
g12
(dp6617
S'name'
p6618
g6465
sS'drel'
p6619
S'nmod__k1inv:NP5'
p6620
ssbsba(issf_api
Chunk
p6621
(dp6622
g5402
g3118
sg38
I7
sg5519
g3125
sg39
I5
sg5393
(lp6623
I157
aI158
aI159
aI160
asg44
(issf_api
FeatureSet
p6624
(dp6625
g12
(dp6626
S'name'
p6627
g6478
sS'drel'
p6628
S'k7a:VGNN'
p6629
ssbsba(issf_api
Chunk
p6630
(dp6631
g5402
g3173
sg38
I8
sg5519
g3180
sg39
I5
sg5393
(lp6632
I161
aI162
asg44
(issf_api
FeatureSet
p6633
(dp6634
g12
(dp6635
S'name'
p6636
g6472
sS'drel'
p6637
S'nmod:NP6'
p6638
ssbsba(issf_api
Chunk
p6639
(dp6640
g5402
g3228
sg38
I9
sg5519
g3233
sg39
I5
sg5393
(lp6641
I163
aI164
aI165
asg44
(issf_api
FeatureSet
p6642
(dp6643
g12
(dp6644
S'name'
p6645
g6538
sS'drel'
p6646
S'ccof:CCP2'
p6647
ssbsba(issf_api
Chunk
p6648
(dp6649
g5402
g3263
sg38
I10
sg5519
g3268
sg39
I5
sg5393
(lp6650
I166
asg44
(issf_api
FeatureSet
p6651
(dp6652
g12
(dp6653
S'name'
p6654
g6532
sS'drel'
p6655
S'ccof:CCP2'
p6656
ssbsba(issf_api
Chunk
p6657
(dp6658
g5402
g3282
sg38
I11
sg5519
g3287
sg39
I5
sg5393
(lp6659
I167
asg44
(issf_api
FeatureSet
p6660
(dp6661
g12
(dp6662
S'name'
p6663
g6498
sS'drel'
p6664
S'k7p:VGF2'
p6665
ssbsba(issf_api
Chunk
p6666
(dp6667
g5402
g3318
sg38
I12
sg5519
g3325
sg39
I5
sg5393
(lp6668
I168
aI169
aI170
asg44
(issf_api
FeatureSet
p6669
(dp6670
g12
(dp6671
S'name'
p6672
g6511
sS'drel'
p6673
S'ccof:CCP2'
p6674
ssbsba(issf_api
Chunk
p6675
(dp6676
g5402
g3356
sg38
I13
sg5519
g3361
sg39
I5
sg5393
(lp6677
I171
asg44
(issf_api
FeatureSet
p6678
(dp6679
g12
(dp6680
S'name'
p6681
g6497
sS'drel'
p6682
S'pof:VGF2'
p6683
ssbsba(issf_api
Chunk
p6684
(dp6685
g5402
g3375
sg38
I14
sg5519
g3386
sg39
I5
sg5393
(lp6686
I172
aI173
asg44
(issf_api
FeatureSet
p6687
(dp6688
g12
(dp6689
S'name'
p6690
g6491
sS'drel'
p6691
S'ccof:CCP'
p6692
ssbsba(issf_api
Chunk
p6693
(dp6694
g5402
g3417
sg38
I15
sg5519
g3422
sg39
I5
sg5393
(lp6695
I174
asg44
(issf_api
FeatureSet
p6696
(dp6697
g12
(dp6698
S'name'
p6699
g6484
sS'drel'
p6700
S'rsym:VGF'
p6701
ssbsbasba(issf_api
Sentence
p6702
(dp6703
g5391
(lp6704
sg39
I6
sg5393
(lp6705
I175
aI176
aI177
aI178
aI179
aI180
aI181
aI182
aI183
aI184
aI185
asg5395
(dp6706
S'NP'
p6707
(issf_api
Node
p6708
(dp6709
g5400
S'k7'
p6710
sg5402
g6707
sg5403
S'VGF'
p6711
sg5405
I-1
sg38
I0
sg5406
(lp6712
sbsS'VGF'
p6713
(issf_api
Node
p6714
(dp6715
g5400
g5433
sg5402
g6713
sg5403
g5433
sg5405
I-1
sg38
I3
sg5406
(lp6716
g6707
aS'BLK'
p6717
aS'NP3'
p6718
asbsg6717
(issf_api
Node
p6719
(dp6720
g5400
S'rsym'
p6721
sg5402
g6717
sg5403
S'VGF'
p6722
sg5405
I-1
sg38
I4
sg5406
(lp6723
sbsg6718
(issf_api
Node
p6724
(dp6725
g5400
S'k2'
p6726
sg5402
g6718
sg5403
S'VGF'
p6727
sg5405
I-1
sg38
I2
sg5406
(lp6728
S'NP2'
p6729
asbsg6729
(issf_api
Node
p6730
(dp6731
g5400
S'r6'
p6732
sg5402
g6729
sg5403
S'NP3'
p6733
sg5405
I-1
sg38
I1
sg5406
(lp6734
sbssg5515
(lp6735
(issf_api
Chunk
p6736
(dp6737
g5402
g3453
sg38
I0
sg5519
g3460
sg39
I6
sg5393
(lp6738
I175
aI176
aI177
asg44
(issf_api
FeatureSet
p6739
(dp6740
g12
(dp6741
S'name'
p6742
g6707
sS'drel'
p6743
S'k7:VGF'
p6744
ssbsba(issf_api
Chunk
p6745
(dp6746
g5402
g3491
sg38
I1
sg5519
g3498
sg39
I6
sg5393
(lp6747
I178
aI179
asg44
(issf_api
FeatureSet
p6748
(dp6749
g12
(dp6750
S'name'
p6751
g6729
sS'drel'
p6752
S'r6:NP3'
p6753
ssbsba(issf_api
Chunk
p6754
(dp6755
g5402
g3546
sg38
I2
sg5519
g3551
sg39
I6
sg5393
(lp6756
I180
aI181
asg44
(issf_api
FeatureSet
p6757
(dp6758
g12
(dp6759
S'name'
p6760
g6718
sS'drel'
p6761
S'k2:VGF'
p6762
ssbsba(issf_api
Chunk
p6763
(dp6764
g5402
g3565
sg38
I3
sg5519
g3574
sg39
I6
sg5393
(lp6765
I182
aI183
aI184
asg44
(issf_api
FeatureSet
p6766
(dp6767
g12
(dp6768
S'name'
p6769
g6713
ssbsba(issf_api
Chunk
p6770
(dp6771
g5402
g3622
sg38
I4
sg5519
g3627
sg39
I6
sg5393
(lp6772
I185
asg44
(issf_api
FeatureSet
p6773
(dp6774
g12
(dp6775
S'name'
p6776
g6717
sS'drel'
p6777
S'rsym:VGF'
p6778
ssbsbasba(issf_api
Sentence
p6779
(dp6780
g5391
(lp6781
sg39
I7
sg5393
(lp6782
I186
aI187
aI188
aI189
aI190
aI191
aI192
aI193
aI194
aI195
aI196
aI197
aI198
aI199
aI200
aI201
aI202
aI203
aI204
asg5395
(dp6783
S'VGNN'
p6784
(issf_api
Node
p6785
(dp6786
g5400
S'r6'
p6787
sg5402
g6784
sg5403
S'NP6'
p6788
sg5405
I-1
sg38
I5
sg5406
(lp6789
S'NP5'
p6790
aS'NP4'
p6791
aS'NP2'
p6792
asbsS'VGF'
p6793
(issf_api
Node
p6794
(dp6795
g5400
g5433
sg5402
g6793
sg5403
g5433
sg5405
I-1
sg38
I7
sg5406
(lp6796
S'BLK'
p6797
aS'NP6'
p6798
asbsg6790
(issf_api
Node
p6799
(dp6800
g5400
S'k1'
p6801
sg5402
g6790
sg5403
S'VGNN'
p6802
sg5405
I-1
sg38
I4
sg5406
(lp6803
sbsg6797
(issf_api
Node
p6804
(dp6805
g5400
S'rsym'
p6806
sg5402
g6797
sg5403
S'VGF'
p6807
sg5405
I-1
sg38
I8
sg5406
(lp6808
sbsS'NP'
p6809
(issf_api
Node
p6810
(dp6811
g5400
S'r6'
p6812
sg5402
g6809
sg5403
S'NP2'
p6813
sg5405
I-1
sg38
I0
sg5406
(lp6814
sbsg6791
(issf_api
Node
p6815
(dp6816
g5400
S'k5'
p6817
sg5402
g6791
sg5403
S'VGNN'
p6818
sg5405
I-1
sg38
I3
sg5406
(lp6819
S'NP3'
p6820
asbsg6798
(issf_api
Node
p6821
(dp6822
g5400
S'k1'
p6823
sg5402
g6798
sg5403
S'VGF'
p6824
sg5405
I-1
sg38
I6
sg5406
(lp6825
g6784
asbsg6820
(issf_api
Node
p6826
(dp6827
g5400
S'r6'
p6828
sg5402
g6820
sg5403
S'NP4'
p6829
sg5405
I-1
sg38
I2
sg5406
(lp6830
sbsg6792
(issf_api
Node
p6831
(dp6832
g5400
S'k4'
p6833
sg5402
g6792
sg5403
S'VGNN'
p6834
sg5405
I-1
sg38
I1
sg5406
(lp6835
g6809
asbssg5515
(lp6836
(issf_api
Chunk
p6837
(dp6838
g5402
g3645
sg38
I0
sg5519
g3658
sg39
I7
sg5393
(lp6839
I186
aI187
asg44
(issf_api
FeatureSet
p6840
(dp6841
g12
(dp6842
S'name'
p6843
g6809
sS'drel'
p6844
S'r6:NP2'
p6845
ssbsba(issf_api
Chunk
p6846
(dp6847
g5402
g3710
sg38
I1
sg5519
g3725
sg39
I7
sg5393
(lp6848
I188
aI189
aI190
asg44
(issf_api
FeatureSet
p6849
(dp6850
g12
(dp6851
S'name'
p6852
g6792
sS'drel'
p6853
S'k4:VGNN'
p6854
ssbsba(issf_api
Chunk
p6855
(dp6856
g5402
g3760
sg38
I2
sg5519
g3773
sg39
I7
sg5393
(lp6857
I191
aI192
asg44
(issf_api
FeatureSet
p6858
(dp6859
g12
(dp6860
S'name'
p6861
g6820
sS'drel'
p6862
S'r6:NP4'
p6863
ssbsba(issf_api
Chunk
p6864
(dp6865
g5402
g3825
sg38
I3
sg5519
g3838
sg39
I7
sg5393
(lp6866
I193
aI194
aI195
asg44
(issf_api
FeatureSet
p6867
(dp6868
g12
(dp6869
S'name'
p6870
g6791
sS'drel'
p6871
S'k5:VGNN'
p6872
ssbsba(issf_api
Chunk
p6873
(dp6874
g5402
g3903
sg38
I4
sg5519
g3908
sg39
I7
sg5393
(lp6875
I196
aI197
aI198
asg44
(issf_api
FeatureSet
p6876
(dp6877
g12
(dp6878
S'name'
p6879
g6790
sS'drel'
p6880
S'k1:VGNN'
p6881
ssbsba(issf_api
Chunk
p6882
(dp6883
g5402
g3922
sg38
I5
sg5519
g3929
sg39
I7
sg5393
(lp6884
I199
aI200
aI201
asg44
(issf_api
FeatureSet
p6885
(dp6886
g12
(dp6887
S'name'
p6888
g6784
sS'drel'
p6889
S'r6:NP6'
p6890
ssbsba(issf_api
Chunk
p6891
(dp6892
g5402
g3977
sg38
I6
sg5519
g3982
sg39
I7
sg5393
(lp6893
I202
asg44
(issf_api
FeatureSet
p6894
(dp6895
g12
(dp6896
S'name'
p6897
g6798
sS'drel'
p6898
S'k1:VGF'
p6899
ssbsba(issf_api
Chunk
p6900
(dp6901
g5402
g3996
sg38
I7
sg5519
g4003
sg39
I7
sg5393
(lp6902
I203
asg44
(issf_api
FeatureSet
p6903
(dp6904
g12
(dp6905
S'name'
p6906
g6793
ssbsba(issf_api
Chunk
p6907
(dp6908
g5402
g4017
sg38
I8
sg5519
g4022
sg39
I7
sg5393
(lp6909
I204
asg44
(issf_api
FeatureSet
p6910
(dp6911
g12
(dp6912
S'name'
p6913
g6797
sS'drel'
p6914
S'rsym:VGF'
p6915
ssbsbasba(issf_api
Sentence
p6916
(dp6917
g5391
(lp6918
sg39
I8
sg5393
(lp6919
I205
aI206
aI207
aI208
aI209
aI210
aI211
aI212
aI213
aI214
aI215
aI216
aI217
aI218
aI219
aI220
aI221
aI222
aI223
aI224
aI225
aI226
asg5395
(dp6920
S'VGNF'
p6921
(issf_api
Node
p6922
(dp6923
g5400
S'vmod'
p6924
sg5402
g6921
sg5403
S'VGF2'
p6925
sg5405
I-1
sg38
I10
sg5406
(lp6926
S'NP7'
p6927
aS'NP6'
p6928
asbsS'VGNN'
p6929
(issf_api
Node
p6930
(dp6931
g5400
S'k7t'
p6932
sg5402
g6929
sg5403
S'VGF2'
p6933
sg5405
I-1
sg38
I6
sg5406
(lp6934
S'NP4'
p6935
aS'NP3'
p6936
asbsS'VGF'
p6937
(issf_api
Node
p6938
(dp6939
g5400
g5433
sg5402
g6937
sg5403
g5433
sg5405
I-1
sg38
I1
sg5406
(lp6940
S'CCP'
p6941
aS'BLK'
p6942
aS'NP'
p6943
asbsg6941
(issf_api
Node
p6944
(dp6945
g5400
S'k2'
p6946
sg5402
g6941
sg5403
S'VGF'
p6947
sg5405
I-1
sg38
I2
sg5406
(lp6948
S'VGF2'
p6949
asbsg6949
(issf_api
Node
p6950
(dp6951
g5400
S'ccof'
p6952
sg5402
g6949
sg5403
S'CCP'
p6953
sg5405
I-1
sg38
I12
sg5406
(lp6954
g6921
ag6929
aS'NP5'
p6955
aS'NP8'
p6956
asbsg6955
(issf_api
Node
p6957
(dp6958
g5400
S'k1'
p6959
sg5402
g6955
sg5403
S'VGF2'
p6960
sg5405
I-1
sg38
I7
sg5406
(lp6961
sbsg6956
(issf_api
Node
p6962
(dp6963
g5400
S'k2p'
p6964
sg5402
g6956
sg5403
S'VGF2'
p6965
sg5405
I-1
sg38
I11
sg5406
(lp6966
sbsg6942
(issf_api
Node
p6967
(dp6968
g5400
S'rsym'
p6969
sg5402
g6942
sg5403
S'VGF'
p6970
sg5405
I-1
sg38
I13
sg5406
(lp6971
sbsg6943
(issf_api
Node
p6972
(dp6973
g5400
S'k1'
p6974
sg5402
g6943
sg5403
S'VGF'
p6975
sg5405
I-1
sg38
I0
sg5406
(lp6976
sbsg6935
(issf_api
Node
p6977
(dp6978
g5400
S'pof'
p6979
sg5402
g6935
sg5403
S'VGNN'
p6980
sg5405
I-1
sg38
I5
sg5406
(lp6981
sbsg6927
(issf_api
Node
p6982
(dp6983
g5400
S'pof'
p6984
sg5402
g6927
sg5403
S'VGNF'
p6985
sg5405
I-1
sg38
I9
sg5406
(lp6986
sbsg6928
(issf_api
Node
p6987
(dp6988
g5400
S'k2'
p6989
sg5402
g6928
sg5403
S'VGNF'
p6990
sg5405
I-1
sg38
I8
sg5406
(lp6991
sbsg6936
(issf_api
Node
p6992
(dp6993
g5400
S'k2'
p6994
sg5402
g6936
sg5403
S'VGNN'
p6995
sg5405
I-1
sg38
I4
sg5406
(lp6996
S'NP2'
p6997
asbsg6997
(issf_api
Node
p6998
(dp6999
g5400
S'r6'
p7000
sg5402
g6997
sg5403
S'NP3'
p7001
sg5405
I-1
sg38
I3
sg5406
(lp7002
sbssg5515
(lp7003
(issf_api
Chunk
p7004
(dp7005
g5402
g4036
sg38
I0
sg5519
g4043
sg39
I8
sg5393
(lp7006
I205
aI206
asg44
(issf_api
FeatureSet
p7007
(dp7008
g12
(dp7009
S'name'
p7010
g6943
sS'drel'
p7011
S'k1:VGF'
p7012
ssbsba(issf_api
Chunk
p7013
(dp7014
g5402
g4074
sg38
I1
sg5519
g4081
sg39
I8
sg5393
(lp7015
I207
asg44
(issf_api
FeatureSet
p7016
(dp7017
g12
(dp7018
S'name'
p7019
g6937
ssbsba(issf_api
Chunk
p7020
(dp7021
g5402
g4095
sg38
I2
sg5519
g4100
sg39
I8
sg5393
(lp7022
I208
asg44
(issf_api
FeatureSet
p7023
(dp7024
g12
(dp7025
S'name'
p7026
g6941
sS'drel'
p7027
S'k2:VGF'
p7028
ssbsba(issf_api
Chunk
p7029
(dp7030
g5402
g4114
sg38
I3
sg5519
g4121
sg39
I8
sg5393
(lp7031
I209
aI210
asg44
(issf_api
FeatureSet
p7032
(dp7033
g12
(dp7034
S'name'
p7035
g6997
sS'drel'
p7036
S'r6:NP3'
p7037
ssbsba(issf_api
Chunk
p7038
(dp7039
g5402
g4152
sg38
I4
sg5519
g4159
sg39
I8
sg5393
(lp7040
I211
aI212
asg44
(issf_api
FeatureSet
p7041
(dp7042
g12
(dp7043
S'name'
p7044
g6936
sS'drel'
p7045
S'k2:VGNN'
p7046
ssbsba(issf_api
Chunk
p7047
(dp7048
g5402
g4190
sg38
I5
sg5519
g4195
sg39
I8
sg5393
(lp7049
I213
asg44
(issf_api
FeatureSet
p7050
(dp7051
g12
(dp7052
S'name'
p7053
g6935
sS'drel'
p7054
S'pof:VGNN'
p7055
ssbsba(issf_api
Chunk
p7056
(dp7057
g5402
g4209
sg38
I6
sg5519
g4216
sg39
I8
sg5393
(lp7058
I214
aI215
aI216
asg44
(issf_api
FeatureSet
p7059
(dp7060
g12
(dp7061
S'name'
p7062
g6929
sS'drel'
p7063
S'k7t:VGF2'
p7064
ssbsba(issf_api
Chunk
p7065
(dp7066
g5402
g4285
sg38
I7
sg5519
g4294
sg39
I8
sg5393
(lp7067
I217
aI218
asg44
(issf_api
FeatureSet
p7068
(dp7069
g12
(dp7070
S'name'
p7071
g6955
sS'drel'
p7072
S'k1:VGF2'
p7073
ssbsba(issf_api
Chunk
p7074
(dp7075
g5402
g4308
sg38
I8
sg5519
g4313
sg39
I8
sg5393
(lp7076
I219
asg44
(issf_api
FeatureSet
p7077
(dp7078
g12
(dp7079
S'name'
p7080
g6928
sS'drel'
p7081
S'k2:VGNF'
p7082
ssbsba(issf_api
Chunk
p7083
(dp7084
g5402
g4327
sg38
I9
sg5519
g4332
sg39
I8
sg5393
(lp7085
I220
asg44
(issf_api
FeatureSet
p7086
(dp7087
g12
(dp7088
S'name'
p7089
g6927
sS'drel'
p7090
S'pof:VGNF'
p7091
ssbsba(issf_api
Chunk
p7092
(dp7093
g5402
g4346
sg38
I10
sg5519
g4351
sg39
I8
sg5393
(lp7094
I221
asg44
(issf_api
FeatureSet
p7095
(dp7096
g12
(dp7097
S'name'
p7098
g6921
sS'drel'
p7099
S'vmod:VGF2'
p7100
ssbsba(issf_api
Chunk
p7101
(dp7102
g5402
g4367
sg38
I11
sg5519
g4376
sg39
I8
sg5393
(lp7103
I222
asg44
(issf_api
FeatureSet
p7104
(dp7105
g12
(dp7106
S'name'
p7107
g6956
sS'drel'
p7108
S'k2p:VGF2'
p7109
ssbsba(issf_api
Chunk
p7110
(dp7111
g5402
g4390
sg38
I12
sg5519
g4401
sg39
I8
sg5393
(lp7112
I223
aI224
aI225
asg44
(issf_api
FeatureSet
p7113
(dp7114
g12
(dp7115
S'name'
p7116
g6949
sS'drel'
p7117
S'ccof:CCP'
p7118
ssbsba(issf_api
Chunk
p7119
(dp7120
g5402
g4449
sg38
I13
sg5519
g4454
sg39
I8
sg5393
(lp7121
I226
asg44
(issf_api
FeatureSet
p7122
(dp7123
g12
(dp7124
S'name'
p7125
g6942
sS'drel'
p7126
S'rsym:VGF'
p7127
ssbsbasba(issf_api
Sentence
p7128
(dp7129
g5391
(lp7130
sg39
I9
sg5393
(lp7131
I227
aI228
aI229
aI230
aI231
aI232
aI233
aI234
aI235
aI236
aI237
aI238
asg5395
(dp7132
S'NP'
p7133
(issf_api
Node
p7134
(dp7135
g5400
S'k7'
p7136
sg5402
g7133
sg5403
S'VGF'
p7137
sg5405
I-1
sg38
I0
sg5406
(lp7138
sbsS'VGF'
p7139
(issf_api
Node
p7140
(dp7141
g5400
g5433
sg5402
g7139
sg5403
g5433
sg5405
I-1
sg38
I3
sg5406
(lp7142
g7133
aS'BLK'
p7143
aS'NP3'
p7144
aS'NP2'
p7145
asbsg7143
(issf_api
Node
p7146
(dp7147
g5400
S'rsym'
p7148
sg5402
g7143
sg5403
S'VGF'
p7149
sg5405
I-1
sg38
I4
sg5406
(lp7150
sbsg7144
(issf_api
Node
p7151
(dp7152
g5400
S'k2'
p7153
sg5402
g7144
sg5403
S'VGF'
p7154
sg5405
I-1
sg38
I2
sg5406
(lp7155
sbsg7145
(issf_api
Node
p7156
(dp7157
g5400
S'k7'
p7158
sg5402
g7145
sg5403
S'VGF'
p7159
sg5405
I-1
sg38
I1
sg5406
(lp7160
sbssg5515
(lp7161
(issf_api
Chunk
p7162
(dp7163
g5402
g4485
sg38
I0
sg5519
g4492
sg39
I9
sg5393
(lp7164
I227
aI228
aI229
asg44
(issf_api
FeatureSet
p7165
(dp7166
g12
(dp7167
S'name'
p7168
g7133
sS'drel'
p7169
S'k7:VGF'
p7170
ssbsba(issf_api
Chunk
p7171
(dp7172
g5402
g4582
sg38
I1
sg5519
g4593
sg39
I9
sg5393
(lp7173
I230
aI231
aI232
aI233
aI234
asg44
(issf_api
FeatureSet
p7174
(dp7175
g12
(dp7176
S'name'
p7177
g7145
sS'drel'
p7178
S'k7:VGF'
p7179
ssbsba(issf_api
Chunk
p7180
(dp7181
g5402
g4624
sg38
I2
sg5519
g4629
sg39
I9
sg5393
(lp7182
I235
asg44
(issf_api
FeatureSet
p7183
(dp7184
g12
(dp7185
S'name'
p7186
g7144
sS'drel'
p7187
S'k2:VGF'
p7188
ssbsba(issf_api
Chunk
p7189
(dp7190
g5402
g4643
sg38
I3
sg5519
g4652
sg39
I9
sg5393
(lp7191
I236
aI237
asg44
(issf_api
FeatureSet
p7192
(dp7193
g12
(dp7194
S'name'
p7195
g7139
ssbsba(issf_api
Chunk
p7196
(dp7197
g5402
g4683
sg38
I4
sg5519
g4688
sg39
I9
sg5393
(lp7198
I238
asg44
(issf_api
FeatureSet
p7199
(dp7200
g12
(dp7201
S'name'
p7202
g7143
sS'drel'
p7203
S'rsym:VGF'
p7204
ssbsbasba(issf_api
Sentence
p7205
(dp7206
g5391
(lp7207
sg39
I10
sg5393
(lp7208
I239
aI240
aI241
aI242
aI243
aI244
aI245
aI246
aI247
aI248
aI249
aI250
aI251
aI252
aI253
aI254
aI255
aI256
asg5395
(dp7209
S'VGF'
p7210
(issf_api
Node
p7211
(dp7212
g5400
g5433
sg5402
g7210
sg5403
g5433
sg5405
I-1
sg38
I11
sg5406
(lp7213
S'BLK'
p7214
aS'NP'
p7215
aS'NP7'
p7216
aS'NP2'
p7217
asbsS'CCP'
p7218
(issf_api
Node
p7219
(dp7220
g5400
S'nmod'
p7221
sg5402
g7218
sg5403
S'NP3'
p7222
sg5405
I-1
sg38
I3
sg5406
(lp7223
S'JJP'
p7224
aS'JJP2'
p7225
asbsg7224
(issf_api
Node
p7226
(dp7227
g5400
S'ccof'
p7228
sg5402
g7224
sg5403
S'CCP'
p7229
sg5405
I-1
sg38
I2
sg5406
(lp7230
sbsS'NP5'
p7231
(issf_api
Node
p7232
(dp7233
g5400
S'ccof'
p7234
sg5402
g7231
sg5403
S'CCP2'
p7235
sg5405
I-1
sg38
I8
sg5406
(lp7236
sbsg7225
(issf_api
Node
p7237
(dp7238
g5400
S'ccof'
p7239
sg5402
g7225
sg5403
S'CCP'
p7240
sg5405
I-1
sg38
I4
sg5406
(lp7241
sbsg7214
(issf_api
Node
p7242
(dp7243
g5400
S'rsym'
p7244
sg5402
g7214
sg5403
S'VGF'
p7245
sg5405
I-1
sg38
I12
sg5406
(lp7246
sbsg7215
(issf_api
Node
p7247
(dp7248
g5400
S'k5'
p7249
sg5402
g7215
sg5403
S'VGF'
p7250
sg5405
I-1
sg38
I0
sg5406
(lp7251
sbsS'NP4'
p7252
(issf_api
Node
p7253
(dp7254
g5400
S'ccof'
p7255
sg5402
g7252
sg5403
S'CCP2'
p7256
sg5405
I-1
sg38
I6
sg5406
(lp7257
sbsg7216
(issf_api
Node
p7258
(dp7259
g5400
S'k1s'
p7260
sg5402
g7216
sg5403
S'VGF'
p7261
sg5405
I-1
sg38
I10
sg5406
(lp7262
S'NP6'
p7263
asbsg7263
(issf_api
Node
p7264
(dp7265
g5400
S'r6'
p7266
sg5402
g7263
sg5403
S'NP7'
p7267
sg5405
I-1
sg38
I9
sg5406
(lp7268
S'CCP2'
p7269
asbsg7269
(issf_api
Node
p7270
(dp7271
g5400
S'nmod'
p7272
sg5402
g7269
sg5403
S'NP6'
p7273
sg5405
I-1
sg38
I7
sg5406
(lp7274
g7231
ag7252
aS'NP3'
p7275
asbsg7275
(issf_api
Node
p7276
(dp7277
g5400
S'ccof'
p7278
sg5402
g7275
sg5403
S'CCP2'
p7279
sg5405
I-1
sg38
I5
sg5406
(lp7280
g7218
asbsg7217
(issf_api
Node
p7281
(dp7282
g5400
S'k1'
p7283
sg5402
g7217
sg5403
S'VGF'
p7284
sg5405
I-1
sg38
I1
sg5406
(lp7285
sbssg5515
(lp7286
(issf_api
Chunk
p7287
(dp7288
g5402
g4704
sg38
I0
sg5519
g4715
sg39
I10
sg5393
(lp7289
I239
aI240
asg44
(issf_api
FeatureSet
p7290
(dp7291
g12
(dp7292
S'name'
p7293
g7215
sS'drel'
p7294
S'k5:VGF'
p7295
ssbsba(issf_api
Chunk
p7296
(dp7297
g5402
g4763
sg38
I1
sg5519
g4768
sg39
I10
sg5393
(lp7298
I241
aI242
asg44
(issf_api
FeatureSet
p7299
(dp7300
g12
(dp7301
S'name'
p7302
g7217
sS'drel'
p7303
S'k1:VGF'
p7304
ssbsba(issf_api
Chunk
p7305
(dp7306
g5402
g4782
sg38
I2
sg5519
g4787
sg39
I10
sg5393
(lp7307
I243
asg44
(issf_api
FeatureSet
p7308
(dp7309
g12
(dp7310
S'name'
p7311
g7224
sS'drel'
p7312
S'ccof:CCP'
p7313
ssbsba(issf_api
Chunk
p7314
(dp7315
g5402
g4801
sg38
I3
sg5519
g4806
sg39
I10
sg5393
(lp7316
I244
asg44
(issf_api
FeatureSet
p7317
(dp7318
g12
(dp7319
S'name'
p7320
g7218
sS'drel'
p7321
S'nmod:NP3'
p7322
ssbsba(issf_api
Chunk
p7323
(dp7324
g5402
g4820
sg38
I4
sg5519
g4825
sg39
I10
sg5393
(lp7325
I245
asg44
(issf_api
FeatureSet
p7326
(dp7327
g12
(dp7328
S'name'
p7329
g7225
sS'drel'
p7330
S'ccof:CCP'
p7331
ssbsba(issf_api
Chunk
p7332
(dp7333
g5402
g4839
sg38
I5
sg5519
g4844
sg39
I10
sg5393
(lp7334
I246
aI247
asg44
(issf_api
FeatureSet
p7335
(dp7336
g12
(dp7337
S'name'
p7338
g7275
sS'drel'
p7339
S'ccof:CCP2'
p7340
ssbsba(issf_api
Chunk
p7341
(dp7342
g5402
g4874
sg38
I6
sg5519
g4879
sg39
I10
sg5393
(lp7343
I248
asg44
(issf_api
FeatureSet
p7344
(dp7345
g12
(dp7346
S'name'
p7347
g7252
sS'drel'
p7348
S'ccof:CCP2'
p7349
ssbsba(issf_api
Chunk
p7350
(dp7351
g5402
g4893
sg38
I7
sg5519
g4898
sg39
I10
sg5393
(lp7352
I249
asg44
(issf_api
FeatureSet
p7353
(dp7354
g12
(dp7355
S'name'
p7356
g7269
sS'drel'
p7357
S'nmod:NP6'
p7358
ssbsba(issf_api
Chunk
p7359
(dp7360
g5402
g4912
sg38
I8
sg5519
g4917
sg39
I10
sg5393
(lp7361
I250
asg44
(issf_api
FeatureSet
p7362
(dp7363
g12
(dp7364
S'name'
p7365
g7231
sS'drel'
p7366
S'ccof:CCP2'
p7367
ssbsba(issf_api
Chunk
p7368
(dp7369
g5402
g4931
sg38
I9
sg5519
g4938
sg39
I10
sg5393
(lp7370
I251
aI252
asg44
(issf_api
FeatureSet
p7371
(dp7372
g12
(dp7373
S'name'
p7374
g7263
sS'drel'
p7375
S'r6:NP7'
p7376
ssbsba(issf_api
Chunk
p7377
(dp7378
g5402
g4986
sg38
I10
sg5519
g4991
sg39
I10
sg5393
(lp7379
I253
aI254
asg44
(issf_api
FeatureSet
p7380
(dp7381
g12
(dp7382
S'name'
p7383
g7216
sS'drel'
p7384
S'k1s:VGF'
p7385
ssbsba(issf_api
Chunk
p7386
(dp7387
g5402
g5005
sg38
I11
sg5519
g5012
sg39
I10
sg5393
(lp7388
I255
asg44
(issf_api
FeatureSet
p7389
(dp7390
g12
(dp7391
S'name'
p7392
g7210
ssbsba(issf_api
Chunk
p7393
(dp7394
g5402
g5026
sg38
I12
sg5519
g5031
sg39
I10
sg5393
(lp7395
I256
asg44
(issf_api
FeatureSet
p7396
(dp7397
g12
(dp7398
S'name'
p7399
g7214
sS'drel'
p7400
S'rsym:VGF'
p7401
ssbsbasba(issf_api
Sentence
p7402
(dp7403
g5391
(lp7404
sg39
I11
sg5393
(lp7405
I257
aI258
aI259
aI260
aI261
aI262
aI263
aI264
aI265
aI266
aI267
aI268
aI269
aI270
aI271
aI272
aI273
aI274
aI275
asg5395
(dp7406
S'VGF2'
p7407
(issf_api
Node
p7408
(dp7409
g5400
S'ccof'
p7410
sg5402
g7407
sg5403
S'CCP'
p7411
sg5405
I-1
sg38
I7
sg5406
(lp7412
S'JJP'
p7413
aS'NP4'
p7414
aS'NP2'
p7415
asbsS'VGF'
p7416
(issf_api
Node
p7417
(dp7418
g5400
g5433
sg5402
g7416
sg5403
g5433
sg5405
I-1
sg38
I1
sg5406
(lp7419
S'CCP'
p7420
aS'BLK'
p7421
aS'NP'
p7422
asbsg7420
(issf_api
Node
p7423
(dp7424
g5400
S'k2'
p7425
sg5402
g7420
sg5403
S'VGF'
p7426
sg5405
I-1
sg38
I2
sg5406
(lp7427
g7407
asbsg7413
(issf_api
Node
p7428
(dp7429
g5400
S'pof'
p7430
sg5402
g7413
sg5403
S'VGF2'
p7431
sg5405
I-1
sg38
I6
sg5406
(lp7432
sbsg7421
(issf_api
Node
p7433
(dp7434
g5400
S'rsym'
p7435
sg5402
g7421
sg5403
S'VGF'
p7436
sg5405
I-1
sg38
I8
sg5406
(lp7437
sbsg7422
(issf_api
Node
p7438
(dp7439
g5400
S'k1'
p7440
sg5402
g7422
sg5403
S'VGF'
p7441
sg5405
I-1
sg38
I0
sg5406
(lp7442
sbsg7414
(issf_api
Node
p7443
(dp7444
g5400
S'k2'
p7445
sg5402
g7414
sg5403
S'VGF2'
p7446
sg5405
I-1
sg38
I5
sg5406
(lp7447
S'NP3'
p7448
asbsg7448
(issf_api
Node
p7449
(dp7450
g5400
S'r6'
p7451
sg5402
g7448
sg5403
S'NP4'
p7452
sg5405
I-1
sg38
I4
sg5406
(lp7453
sbsg7415
(issf_api
Node
p7454
(dp7455
g5400
S'k7p'
p7456
sg5402
g7415
sg5403
S'VGF2'
p7457
sg5405
I-1
sg38
I3
sg5406
(lp7458
sbssg5515
(lp7459
(issf_api
Chunk
p7460
(dp7461
g5402
g5113
sg38
I0
sg5519
g5120
sg39
I11
sg5393
(lp7462
I257
aI258
aI259
aI260
aI261
aI262
asg44
(issf_api
FeatureSet
p7463
(dp7464
g12
(dp7465
S'name'
p7466
g7422
sS'drel'
p7467
S'k1:VGF'
p7468
ssbsba(issf_api
Chunk
p7469
(dp7470
g5402
g5151
sg38
I1
sg5519
g5158
sg39
I11
sg5393
(lp7471
I263
asg44
(issf_api
FeatureSet
p7472
(dp7473
g12
(dp7474
S'name'
p7475
g7416
ssbsba(issf_api
Chunk
p7476
(dp7477
g5402
g5172
sg38
I2
sg5519
g5177
sg39
I11
sg5393
(lp7478
I264
asg44
(issf_api
FeatureSet
p7479
(dp7480
g12
(dp7481
S'name'
p7482
g7420
sS'drel'
p7483
S'k2:VGF'
p7484
ssbsba(issf_api
Chunk
p7485
(dp7486
g5402
g5225
sg38
I3
sg5519
g5232
sg39
I11
sg5393
(lp7487
I265
aI266
aI267
aI268
asg44
(issf_api
FeatureSet
p7488
(dp7489
g12
(dp7490
S'name'
p7491
g7415
sS'drel'
p7492
S'k7p:VGF2'
p7493
ssbsba(issf_api
Chunk
p7494
(dp7495
g5402
g5263
sg38
I4
sg5519
g5270
sg39
I11
sg5393
(lp7496
I269
aI270
asg44
(issf_api
FeatureSet
p7497
(dp7498
g12
(dp7499
S'name'
p7500
g7448
sS'drel'
p7501
S'r6:NP4'
p7502
ssbsba(issf_api
Chunk
p7503
(dp7504
g5402
g5301
sg38
I5
sg5519
g5306
sg39
I11
sg5393
(lp7505
I271
asg44
(issf_api
FeatureSet
p7506
(dp7507
g12
(dp7508
S'name'
p7509
g7414
sS'drel'
p7510
S'k2:VGF2'
p7511
ssbsba(issf_api
Chunk
p7512
(dp7513
g5402
g5320
sg38
I6
sg5519
g5325
sg39
I11
sg5393
(lp7514
I272
asg44
(issf_api
FeatureSet
p7515
(dp7516
g12
(dp7517
S'name'
p7518
g7413
sS'drel'
p7519
S'pof:VGF2'
p7520
ssbsba(issf_api
Chunk
p7521
(dp7522
g5402
g5339
sg38
I7
sg5519
g5350
sg39
I11
sg5393
(lp7523
I273
aI274
asg44
(issf_api
FeatureSet
p7524
(dp7525
g12
(dp7526
S'name'
p7527
g7407
sS'drel'
p7528
S'ccof:CCP'
p7529
ssbsba(issf_api
Chunk
p7530
(dp7531
g5402
g5381
sg38
I8
sg5519
g5386
sg39
I11
sg5393
(lp7532
I275
asg44
(issf_api
FeatureSet
p7533
(dp7534
g12
(dp7535
S'name'
p7536
g7421
sS'drel'
p7537
S'rsym:VGF'
p7538
ssbsbasbasb.