(issf_api
SSFInfo
p0
(dp1
S'globalWordList'
p2
(lp3
(issf_api
Word
p4
(dp5
S'splitConn'
p6
I00
sS'word'
p7
V\u0928\u0947\u0936\u0928\u0932
p8
sS'extraFeatureSet'
p9
(issf_api
FeatureSet
p10
(dp11
S'featureDict'
p12
(dp13
S'posn'
p14
S'50'
p15
sS'name'
p16
S'\xe0\xa4\xa8\xe0\xa5\x87\xe0\xa4\xb6\xe0\xa4\xa8\xe0\xa4\xb2'
p17
sS'af'
p18
S'\xe0\xa4\xa8\xe0\xa5\x87\xe0\xa4\xb6\xe0\xa4\xa8\xe0\xa4\xb2,adj,any,any,,o,,'
p19
sS'drel'
p20
S'pof__cn:NP'
p21
sS'chunktype'
p22
S'child:NP'
p23
sS'cref'
p24
S'i1%0:t1,i2%0:t2'
p25
ssbsS'arg1'
p26
I00
sS'arg2'
p27
I00
sS'sense'
p28
NsS'arg1Span'
p29
NsS'chunkNum'
p30
I0
sS'sentenceNum'
p31
I0
sS'relationNum'
p32
NsS'arg2Span'
p33
NsS'wordTag'
p34
S'NNPC'
p35
sS'featureSet'
p36
g10
sS'conn'
p37
I00
sba(issf_api
Word
p38
(dp39
g6
I00
sg7
V\u0915\u093e\u0902\u092b\u094d\u0930\u0947\u0902\u0938
p40
sg9
(issf_api
FeatureSet
p41
(dp42
g12
(dp43
S'crefhead'
p44
S'\xe0\xa4\x95\xe0\xa4\xbe\xe0\xa4\x82\xe0\xa4\xab\xe0\xa5\x8d\xe0\xa4\xb0\xe0\xa5\x87\xe0\xa4\x82\xe0\xa4\xb8:i2'
p45
sS'posn'
p46
S'20'
p47
sS'name'
p48
S'\xe0\xa4\x95\xe0\xa4\xbe\xe0\xa4\x82\xe0\xa4\xab\xe0\xa5\x8d\xe0\xa4\xb0\xe0\xa5\x87\xe0\xa4\x82\xe0\xa4\xb8'
p49
sS'af'
p50
S'\xe0\xa4\x95\xe0\xa4\xbe\xe0\xa4\x82\xe0\xa4\xab\xe0\xa5\x8d\xe0\xa4\xb0\xe0\xa5\x87\xe0\xa4\x82\xe0\xa4\xb8,n,f,sg,3,d,0,0'
p51
sS'drel'
p52
S'nmod__adj:NP'
p53
sS'crefchainhead'
p54
S'i2:t2'
p55
sS'chunktype'
p56
S'child:NP'
p57
sS'cref'
p58
S'i1%0:t1,i2%1:t2'
p59
ssbsg26
I00
sg27
I00
sg28
Nsg29
Nsg30
I0
sg31
I0
sg32
Nsg33
Nsg34
S'NNP'
p60
sg36
g41
sg37
I00
sba(issf_api
Word
p61
(dp62
g6
I00
sg7
V\u0928\u0947\u0924\u093e
p63
sg9
(issf_api
FeatureSet
p64
(dp65
g12
(dp66
S'crefhead'
p67
S'\xe0\xa4\xa8\xe0\xa5\x87\xe0\xa4\xa4\xe0\xa4\xbe:i1'
p68
sS'posn'
p69
S'30'
p70
sS'name'
p71
S'\xe0\xa4\xa8\xe0\xa5\x87\xe0\xa4\xa4\xe0\xa4\xbe'
p72
sS'af'
p73
S'\xe0\xa4\xa8\xe0\xa5\x87\xe0\xa4\xa4\xe0\xa4\xbe,n,m,sg,3,o,0,0'
p74
sS'chunkid'
p75
S'NP'
p76
sS'drel'
p77
S'ccof:CCP'
p78
sS'chunktype'
p79
S'head:NP'
p80
sS'cref'
p81
S'i1%1:t1'
p82
ssbsg26
I00
sg27
I00
sg28
Nsg29
Nsg30
I0
sg31
I0
sg32
Nsg33
Nsg34
S'NN'
p83
sg36
g64
sg37
I00
sba(issf_api
Word
p84
(dp85
g6
I00
sg7
V\u0914\u0930
p86
sg9
(issf_api
FeatureSet
p87
(dp88
g12
(dp89
S'posn'
p90
S'40'
p91
sS'name'
p92
S'\xe0\xa4\x94\xe0\xa4\xb0'
p93
sS'af'
p94
S'\xe0\xa4\x94\xe0\xa4\xb0,avy,,,,,,'
p95
sS'chunkid'
p96
S'CCP'
p97
sS'drel'
p98
S'nmod:NP3'
p99
sS'chunktype'
p100
S'head:CCP'
p101
ssbsg26
I00
sg27
I00
sg28
Nsg29
Nsg30
I1
sg31
I0
sg32
Nsg33
Nsg34
S'CC'
p102
sg36
g87
sg37
I00
sba(issf_api
Word
p103
(dp104
g6
I00
sg7
V\u092a\u0942\u0930\u094d\u0935
p105
sg9
(issf_api
FeatureSet
p106
(dp107
g12
(dp108
S'posn'
p109
S'50'
p110
sS'name'
p111
S'\xe0\xa4\xaa\xe0\xa5\x82\xe0\xa4\xb0\xe0\xa5\x8d\xe0\xa4\xb5'
p112
sS'af'
p113
S'\xe0\xa4\xaa\xe0\xa5\x82\xe0\xa4\xb0\xe0\xa5\x8d\xe0\xa4\xb5,adj,any,any,,o,,'
p114
sS'drel'
p115
S'nmod__adj:NP2'
p116
sS'chunktype'
p117
S'child:NP2'
p118
sS'cref'
p119
S'i3%0:t1'
p120
ssbsg26
I00
sg27
I00
sg28
Nsg29
Nsg30
I2
sg31
I0
sg32
Nsg33
Nsg34
S'JJ'
p121
sg36
g106
sg37
I00
sba(issf_api
Word
p122
(dp123
g6
I00
sg7
V\u0915\u0947\u0902\u0926\u094d\u0930\u0940\u092f
p124
sg9
(issf_api
FeatureSet
p125
(dp126
g12
(dp127
S'posn'
p128
S'50'
p129
sS'name'
p130
S'\xe0\xa4\x95\xe0\xa5\x87\xe0\xa4\x82\xe0\xa4\xa6\xe0\xa5\x8d\xe0\xa4\xb0\xe0\xa5\x80\xe0\xa4\xaf'
p131
sS'af'
p132
S'\xe0\xa4\x95\xe0\xa5\x87\xe0\xa4\x82\xe0\xa4\xa6\xe0\xa5\x8d\xe0\xa4\xb0\xe0\xa5\x80\xe0\xa4\xaf,adj,any,any,,o,,'
p133
sS'drel'
p134
S'pof__cn:NP2'
p135
sS'chunktype'
p136
S'child:NP2'
p137
sS'cref'
p138
S'i3%0:t1'
p139
ssbsg26
I00
sg27
I00
sg28
Nsg29
Nsg30
I2
sg31
I0
sg32
Nsg33
Nsg34
S'NNPC'
p140
sg36
g125
sg37
I00
sba(issf_api
Word
p141
(dp142
g6
I00
sg7
V\u092e\u0902\u0924\u094d\u0930\u0940
p143
sg9
(issf_api
FeatureSet
p144
(dp145
g12
(dp146
S'crefhead'
p147
S'\xe0\xa4\xae\xe0\xa4\x82\xe0\xa4\xa4\xe0\xa5\x8d\xe0\xa4\xb0\xe0\xa5\x80:i3'
p148
sS'posn'
p149
S'70'
p150
sS'name'
p151
S'\xe0\xa4\xae\xe0\xa4\x82\xe0\xa4\xa4\xe0\xa5\x8d\xe0\xa4\xb0\xe0\xa5\x80'
p152
sS'af'
p153
S'\xe0\xa4\xae\xe0\xa4\x82\xe0\xa4\xa4\xe0\xa5\x8d\xe0\xa4\xb0\xe0\xa5\x80,n,m,sg,3,o,0,0'
p154
sS'chunkid'
p155
S'NP2'
p156
sS'creftype'
p157
S'Coreference-Noun-Noun:i1'
p158
sS'chunktype'
p159
S'head:NP2'
p160
sS'cref'
p161
S'i3%1:t1'
p162
sS'drel'
p163
S'ccof:CCP'
p164
ssbsg26
I00
sg27
I00
sg28
Nsg29
Nsg30
I2
sg31
I0
sg32
Nsg33
Nsg34
S'NNP'
p165
sg36
g144
sg37
I00
sba(issf_api
Word
p166
(dp167
g6
I00
sg7
V\u0909\u092e\u0930
p168
sg9
(issf_api
FeatureSet
p169
(dp170
g12
(dp171
S'posn'
p172
S'80'
p173
sS'name'
p174
S'\xe0\xa4\x89\xe0\xa4\xae\xe0\xa4\xb0'
p175
sS'af'
p176
S'\xe0\xa4\x89\xe0\xa4\xae\xe0\xa4\xb0,n,m,sg,3,d,0,0'
p177
sS'drel'
p178
S'pof__cn:NP3'
p179
sS'chunktype'
p180
S'child:NP3'
p181
sS'cref'
p182
S'i4%0:t1'
p183
ssbsg26
I00
sg27
I00
sg28
Nsg29
Nsg30
I3
sg31
I0
sg32
Nsg33
Nsg34
S'NNPC'
p184
sg36
g169
sg37
I00
sba(issf_api
Word
p185
(dp186
g6
I00
sg7
V\u0905\u092c\u094d\u0926\u0941\u0932\u094d\u0932\u093e
p187
sg9
(issf_api
FeatureSet
p188
(dp189
g12
(dp190
S'crefhead'
p191
S'\xe0\xa4\x85\xe0\xa4\xac\xe0\xa5\x8d\xe0\xa4\xa6\xe0\xa5\x81\xe0\xa4\xb2\xe0\xa5\x8d\xe0\xa4\xb2\xe0\xa4\xbe:i4'
p192
sS'posn'
p193
S'90'
p194
sS'name'
p195
S'\xe0\xa4\x85\xe0\xa4\xac\xe0\xa5\x8d\xe0\xa4\xa6\xe0\xa5\x81\xe0\xa4\xb2\xe0\xa5\x8d\xe0\xa4\xb2\xe0\xa4\xbe'
p196
sS'af'
p197
S'\xe0\xa4\x85\xe0\xa4\xac\xe0\xa5\x8d\xe0\xa4\xa6\xe0\xa5\x81\xe0\xa4\xb2\xe0\xa5\x8d\xe0\xa4\xb2\xe0\xa4\xbe,n,m,sg,3,o,0_\xe0\xa4\xa8\xe0\xa5\x87,0'
p198
sS'chunkid'
p199
S'NP3'
p200
sS'creftype'
p201
S'Coreference-NounComplement:i3'
p202
sS'chunktype'
p203
S'head:NP3'
p204
sS'crefchainhead'
p205
S'i4:t1'
p206
sS'vpos'
p207
S'vib_3'
p208
sS'cref'
p209
S'i4%1:t1'
p210
sS'drel'
p211
S'k1:VGF'
p212
ssbsg26
I00
sg27
I00
sg28
Nsg29
Nsg30
I3
sg31
I0
sg32
Nsg33
Nsg34
S'NNP'
p213
sg36
g188
sg37
I00
sba(issf_api
Word
p214
(dp215
g6
I00
sg7
V\u0928\u0947
p216
sg9
(issf_api
FeatureSet
p217
(dp218
g12
(dp219
S'posn'
p220
S'100'
p221
sS'name'
p222
S'\xe0\xa4\xa8\xe0\xa5\x87'
p223
sS'drel'
p224
S'lwg__psp:NP3'
p225
sS'chunktype'
p226
S'child:NP3'
p227
sS'af'
p228
S'\xe0\xa4\xa8\xe0\xa5\x87,psp,,,,,,'
p229
ssbsg26
I00
sg27
I00
sg28
Nsg29
Nsg30
I3
sg31
I0
sg32
Nsg33
Nsg34
S'PSP'
p230
sg36
g217
sg37
I00
sba(issf_api
Word
p231
(dp232
g6
I00
sg7
V\u092c\u0941\u0927\u0935\u093e\u0930
p233
sg9
(issf_api
FeatureSet
p234
(dp235
g12
(dp236
S'posn'
p237
S'110'
p238
sS'name'
p239
S'\xe0\xa4\xac\xe0\xa5\x81\xe0\xa4\xa7\xe0\xa4\xb5\xe0\xa4\xbe\xe0\xa4\xb0'
p240
sS'af'
p241
S'\xe0\xa4\xac\xe0\xa5\x81\xe0\xa4\xa7\xe0\xa4\xb5\xe0\xa4\xbe\xe0\xa4\xb0,n,m,sg,3,o,0_\xe0\xa4\x95\xe0\xa5\x8b,0'
p242
sS'chunkid'
p243
S'NP4'
p244
sS'drel'
p245
S'k7t:VGF'
p246
sS'vpos'
p247
S'vib_2'
p248
sS'chunktype'
p249
S'head:NP4'
p250
ssbsg26
I00
sg27
I00
sg28
Nsg29
Nsg30
I4
sg31
I0
sg32
Nsg33
Nsg34
S'NNP'
p251
sg36
g234
sg37
I00
sba(issf_api
Word
p252
(dp253
g6
I00
sg7
V\u0915\u094b
p254
sg9
(issf_api
FeatureSet
p255
(dp256
g12
(dp257
S'posn'
p258
S'120'
p259
sS'name'
p260
S'\xe0\xa4\x95\xe0\xa5\x8b'
p261
sS'drel'
p262
S'lwg__psp:NP4'
p263
sS'chunktype'
p264
S'child:NP4'
p265
sS'af'
p266
S'\xe0\xa4\x95\xe0\xa5\x8b,psp,,,,,,'
p267
ssbsg26
I00
sg27
I00
sg28
Nsg29
Nsg30
I4
sg31
I0
sg32
Nsg33
Nsg34
S'PSP'
p268
sg36
g255
sg37
I00
sba(issf_api
Word
p269
(dp270
g6
I00
sg7
V\u0915\u0939\u093e
p271
sg9
(issf_api
FeatureSet
p272
(dp273
g12
(dp274
S'posn'
p275
S'130'
p276
sS'name'
p277
S'\xe0\xa4\x95\xe0\xa4\xb9\xe0\xa4\xbe'
p278
sS'af'
p279
S'\xe0\xa4\x95\xe0\xa4\xb9,v,m,sg,any,,\xe0\xa4\xaf\xe0\xa4\xbe,yA'
p280
sS'chunkid'
p281
S'VGF'
p282
sS'chunktype'
p283
S'head:VGF'
p284
sS'voicetype'
p285
S'active'
p286
sS'stype'
p287
S'declarative'
p288
ssbsg26
I00
sg27
I00
sg28
Nsg29
Nsg30
I5
sg31
I0
sg32
Nsg33
Nsg34
S'VM'
p289
sg36
g272
sg37
I00
sba(issf_api
Word
p290
(dp291
g6
I00
sg7
V\u0915\u093f
p292
sg9
(issf_api
FeatureSet
p293
(dp294
g12
(dp295
S'posn'
p296
S'140'
p297
sS'name'
p298
S'\xe0\xa4\x95\xe0\xa4\xbf'
p299
sS'af'
p300
S'\xe0\xa4\x95\xe0\xa4\xbf,avy,,,,,,'
p301
sS'chunkid'
p302
S'CCP2'
p303
sS'drel'
p304
S'k2:VGF'
p305
sS'chunktype'
p306
S'head:CCP2'
p307
ssbsg26
I00
sg27
I00
sg28
Nsg29
Nsg30
I6
sg31
I0
sg32
Nsg33
Nsg34
S'CC'
p308
sg36
g293
sg37
I00
sba(issf_api
Word
p309
(dp310
g6
I00
sg7
V\u0935\u0939
p311
sg9
(issf_api
FeatureSet
p312
(dp313
g12
(dp314
S'crefhead'
p315
S'\xe0\xa4\xb5\xe0\xa4\xb9:i5'
p316
sS'posn'
p317
S'150'
p318
sS'name'
p319
S'\xe0\xa4\xb5\xe0\xa4\xb9'
p320
sS'af'
p321
S'\xe0\xa4\xb5\xe0\xa4\xb9,pn,any,sg,3,d,0,0'
p322
sS'chunkid'
p323
S'NP5'
p324
sS'creftype'
p325
S'Anaphora-C:i4'
p326
sS'chunktype'
p327
S'head:NP5'
p328
sS'cref'
p329
S'i5%1:t1'
p330
sS'drel'
p331
S'k1:VGF2'
p332
ssbsg26
I00
sg27
I00
sg28
Nsg29
Nsg30
I7
sg31
I0
sg32
Nsg33
Nsg34
S'PRP'
p333
sg36
g312
sg37
I00
sba(issf_api
Word
p334
(dp335
g6
I00
sg7
V\u0915\u0936\u094d\u092e\u0940\u0930
p336
sg9
(issf_api
FeatureSet
p337
(dp338
g12
(dp339
S'crefhead'
p340
S'\xe0\xa4\x95\xe0\xa4\xb6\xe0\xa5\x8d\xe0\xa4\xae\xe0\xa5\x80\xe0\xa4\xb0:i6'
p341
sS'posn'
p342
S'160'
p343
sS'name'
p344
S'\xe0\xa4\x95\xe0\xa4\xb6\xe0\xa5\x8d\xe0\xa4\xae\xe0\xa5\x80\xe0\xa4\xb0'
p345
sS'af'
p346
S'\xe0\xa4\x95\xe0\xa4\xb6\xe0\xa5\x8d\xe0\xa4\xae\xe0\xa5\x80\xe0\xa4\xb0,n,m,sg,3,o,0_\xe0\xa4\x95\xe0\xa4\xbe,0'
p347
sS'chunkid'
p348
S'NP6'
p349
sS'drel'
p350
S'r6:NP7'
p351
sS'chunktype'
p352
S'head:NP6'
p353
sS'vpos'
p354
S'vib_2'
p355
sS'cref'
p356
S'i6%1:t3'
p357
ssbsg26
I00
sg27
I00
sg28
Nsg29
Nsg30
I8
sg31
I0
sg32
Nsg33
Nsg34
S'NNP'
p358
sg36
g337
sg37
I00
sba(issf_api
Word
p359
(dp360
g6
I00
sg7
V\u0915\u0940
p361
sg9
(issf_api
FeatureSet
p362
(dp363
g12
(dp364
S'posn'
p365
S'170'
p366
sS'name'
p367
S'\xe0\xa4\x95\xe0\xa5\x80'
p368
sS'drel'
p369
S'lwg__psp:NP6'
p370
sS'chunktype'
p371
S'child:NP6'
p372
sS'af'
p373
S'\xe0\xa4\x95\xe0\xa4\xbe,psp,f,sg,,o,,'
p374
ssbsg26
I00
sg27
I00
sg28
Nsg29
Nsg30
I8
sg31
I0
sg32
Nsg33
Nsg34
S'PSP'
p375
sg36
g362
sg37
I00
sba(issf_api
Word
p376
(dp377
g6
I00
sg7
V\u0938\u094d\u0935\u093e\u092f\u0924\u094d\u0924\u0924\u093e
p378
sg9
(issf_api
FeatureSet
p379
(dp380
g12
(dp381
S'posn'
p382
S'180'
p383
sS'name'
p384
S'\xe0\xa4\xb8\xe0\xa5\x8d\xe0\xa4\xb5\xe0\xa4\xbe\xe0\xa4\xaf\xe0\xa4\xa4\xe0\xa5\x8d\xe0\xa4\xa4\xe0\xa4\xa4\xe0\xa4\xbe'
p385
sS'af'
p386
S'\xe0\xa4\xb8\xe0\xa5\x8d\xe0\xa4\xb5\xe0\xa4\xbe\xe0\xa4\xaf\xe0\xa4\xa4\xe0\xa5\x8d\xe0\xa4\xa4\xe0\xa4\xa4\xe0\xa4\xbe,n,f,sg,3,o,0_\xe0\xa4\x95\xe0\xa4\xbe,0'
p387
sS'chunkid'
p388
S'NP7'
p389
sS'drel'
p390
S'r6:NP8'
p391
sS'vpos'
p392
S'vib_2'
p393
sS'chunktype'
p394
S'head:NP7'
p395
ssbsg26
I00
sg27
I00
sg28
Nsg29
Nsg30
I9
sg31
I0
sg32
Nsg33
Nsg34
S'NN'
p396
sg36
g379
sg37
I00
sba(issf_api
Word
p397
(dp398
g6
I00
sg7
V\u0915\u0947
p399
sg9
(issf_api
FeatureSet
p400
(dp401
g12
(dp402
S'posn'
p403
S'190'
p404
sS'name'
p405
S'\xe0\xa4\x95\xe0\xa5\x87'
p406
sS'drel'
p407
S'lwg__psp:NP7'
p408
sS'chunktype'
p409
S'child:NP7'
p410
sS'af'
p411
S'\xe0\xa4\x95\xe0\xa4\xbe,psp,m,sg,,o,,'
p412
ssbsg26
I00
sg27
I00
sg28
Nsg29
Nsg30
I9
sg31
I0
sg32
Nsg33
Nsg34
S'PSP'
p413
sg36
g400
sg37
I00
sba(issf_api
Word
p414
(dp415
g6
I00
sg7
V\u092e\u0938\u0932\u0947
p416
sg9
(issf_api
FeatureSet
p417
(dp418
g12
(dp419
S'posn'
p420
S'200'
p421
sS'name'
p422
S'\xe0\xa4\xae\xe0\xa4\xb8\xe0\xa4\xb2\xe0\xa5\x87'
p423
sS'af'
p424
S'\xe0\xa4\xae\xe0\xa4\xb8\xe0\xa4\xb2\xe0\xa4\xbe,n,m,sg,3,o,0_\xe0\xa4\xaa\xe0\xa4\xb0,0'
p425
sS'chunkid'
p426
S'NP8'
p427
sS'drel'
p428
S'k7:VGF2'
p429
sS'vpos'
p430
S'vib_2'
p431
sS'chunktype'
p432
S'head:NP8'
p433
ssbsg26
I00
sg27
I00
sg28
Nsg29
Nsg30
I10
sg31
I0
sg32
Nsg33
Nsg34
S'NN'
p434
sg36
g417
sg37
I00
sba(issf_api
Word
p435
(dp436
g6
I00
sg7
V\u092a\u0930
p437
sg9
(issf_api
FeatureSet
p438
(dp439
g12
(dp440
S'posn'
p441
S'210'
p442
sS'name'
p443
S'\xe0\xa4\xaa\xe0\xa4\xb0'
p444
sS'drel'
p445
S'lwg__psp:NP8'
p446
sS'chunktype'
p447
S'child:NP8'
p448
sS'af'
p449
S'\xe0\xa4\xaa\xe0\xa4\xb0,psp,,,,,,'
p450
ssbsg26
I00
sg27
I00
sg28
Nsg29
Nsg30
I10
sg31
I0
sg32
Nsg33
Nsg34
S'PSP'
p451
sg36
g438
sg37
I00
sba(issf_api
Word
p452
(dp453
g6
I00
sg7
V\u091c\u0932\u094d\u0926
p454
sg9
(issf_api
FeatureSet
p455
(dp456
g12
(dp457
S'posn'
p458
S'220'
p459
sS'name'
p460
S'\xe0\xa4\x9c\xe0\xa4\xb2\xe0\xa5\x8d\xe0\xa4\xa6'
p461
sS'af'
p462
S'\xe0\xa4\x9c\xe0\xa4\xb2\xe0\xa5\x8d\xe0\xa4\xa6,adv,,,,,,'
p463
sS'chunkid'
p464
S'RBP'
p465
sS'drel'
p466
S'adv:VGF2'
p467
sS'chunktype'
p468
S'head:RBP'
p469
ssbsg26
I00
sg27
I00
sg28
Nsg29
Nsg30
I11
sg31
I0
sg32
Nsg33
Nsg34
S'RB'
p470
sg36
g455
sg37
I00
sba(issf_api
Word
p471
(dp472
g6
I00
sg7
V\u0939\u0940
p473
sg9
(issf_api
FeatureSet
p474
(dp475
g12
(dp476
S'posn'
p477
S'230'
p478
sS'name'
p479
S'\xe0\xa4\xb9\xe0\xa5\x80'
p480
sS'drel'
p481
S'lwg__rp:RBP'
p482
sS'chunktype'
p483
S'child:RBP'
p484
sS'af'
p485
S'\xe0\xa4\xb9\xe0\xa5\x80,avy,,,,,,'
p486
ssbsg26
I00
sg27
I00
sg28
Nsg29
Nsg30
I11
sg31
I0
sg32
Nsg33
Nsg34
S'RP'
p487
sg36
g474
sg37
I00
sba(issf_api
Word
p488
(dp489
g6
I00
sg7
V\u090f\u0915
p490
sg9
(issf_api
FeatureSet
p491
(dp492
g12
(dp493
S'posn'
p494
S'240'
p495
sS'name'
p496
S'\xe0\xa4\x8f\xe0\xa4\x95'
p497
sS'af'
p498
S'\xe0\xa4\x8f\xe0\xa4\x95,num,any,any,,any,,'
p499
sS'drel'
p500
S'nmod__adj:NP9'
p501
sS'chunktype'
p502
S'child:NP9'
p503
sS'cref'
p504
S'i7%0:t4'
p505
ssbsg26
I00
sg27
I00
sg28
Nsg29
Nsg30
I12
sg31
I0
sg32
Nsg33
Nsg34
S'QC'
p506
sg36
g491
sg37
I00
sba(issf_api
Word
p507
(dp508
g6
I00
sg7
V\u092a\u094d\u0930\u0924\u093f\u0928\u093f\u0927\u093f\u092e\u0902\u0921\u0932
p509
sg9
(issf_api
FeatureSet
p510
(dp511
g12
(dp512
S'crefhead'
p513
S'\xe0\xa4\xaa\xe0\xa5\x8d\xe0\xa4\xb0\xe0\xa4\xa4\xe0\xa4\xbf\xe0\xa4\xa8\xe0\xa4\xbf\xe0\xa4\xa7\xe0\xa4\xbf\xe0\xa4\xae\xe0\xa4\x82\xe0\xa4\xa1\xe0\xa4\xb2:i7'
p514
sS'posn'
p515
S'250'
p516
sS'name'
p517
S'\xe0\xa4\xaa\xe0\xa5\x8d\xe0\xa4\xb0\xe0\xa4\xa4\xe0\xa4\xbf\xe0\xa4\xa8\xe0\xa4\xbf\xe0\xa4\xa7\xe0\xa4\xbf\xe0\xa4\xae\xe0\xa4\x82\xe0\xa4\xa1\xe0\xa4\xb2'
p518
sS'af'
p519
S'\xe0\xa4\xaa\xe0\xa5\x8d\xe0\xa4\xb0\xe0\xa4\xa4\xe0\xa4\xbf\xe0\xa4\xa8\xe0\xa4\xbf\xe0\xa4\xa7\xe0\xa4\xbf\xe0\xa4\xae\xe0\xa4\x82\xe0\xa4\xa1\xe0\xa4\xb2,n,m,sg,3,o,0_\xe0\xa4\x95\xe0\xa5\x87_\xe0\xa4\xb8\xe0\xa4\xbe\xe0\xa4\xa5,0'
p520
sS'chunkid'
p521
S'NP9'
p522
sS'chunktype'
p523
S'head:NP9'
p524
sS'crefchainhead'
p525
S'i7:t4'
p526
sS'vpos'
p527
S'vib_3_4'
p528
sS'cref'
p529
S'i7%1:t4'
p530
sS'drel'
p531
S'ras-k1:VGF2'
p532
ssbsg26
I00
sg27
I00
sg28
Nsg29
Nsg30
I12
sg31
I0
sg32
Nsg33
Nsg34
S'NN'
p533
sg36
g510
sg37
I00
sba(issf_api
Word
p534
(dp535
g6
I00
sg7
V\u0915\u0947
p536
sg9
(issf_api
FeatureSet
p537
(dp538
g12
(dp539
S'posn'
p540
S'260'
p541
sS'name'
p542
S'\xe0\xa4\x95\xe0\xa5\x872'
p543
sS'drel'
p544
S'lwg__psp:NP9'
p545
sS'chunktype'
p546
S'child:NP9'
p547
sS'af'
p548
S'\xe0\xa4\x95\xe0\xa5\x87,psp,,,,,,'
p549
ssbsg26
I00
sg27
I00
sg28
Nsg29
Nsg30
I12
sg31
I0
sg32
Nsg33
Nsg34
S'PSP'
p550
sg36
g537
sg37
I00
sba(issf_api
Word
p551
(dp552
g6
I00
sg7
V\u0938\u093e\u0925
p553
sg9
(issf_api
FeatureSet
p554
(dp555
g12
(dp556
S'posn'
p557
S'270'
p558
sS'name'
p559
S'\xe0\xa4\xb8\xe0\xa4\xbe\xe0\xa4\xa5'
p560
sS'drel'
p561
S'lwg__psp:NP9'
p562
sS'chunktype'
p563
S'child:NP9'
p564
sS'af'
p565
S'\xe0\xa4\xb8\xe0\xa4\xbe\xe0\xa4\xa5,nst,m,sg,3,d,,'
p566
ssbsg26
I00
sg27
I00
sg28
Nsg29
Nsg30
I12
sg31
I0
sg32
Nsg33
Nsg34
S'NST'
p567
sg36
g554
sg37
I00
sba(issf_api
Word
p568
(dp569
g6
I00
sg7
V\u092a\u094d\u0930\u0927\u093e\u0928\u092e\u0902\u0924\u094d\u0930\u0940
p570
sg9
(issf_api
FeatureSet
p571
(dp572
g12
(dp573
S'crefhead'
p574
S'\xe0\xa4\xaa\xe0\xa5\x8d\xe0\xa4\xb0\xe0\xa4\xa7\xe0\xa4\xbe\xe0\xa4\xa8\xe0\xa4\xae\xe0\xa4\x82\xe0\xa4\xa4\xe0\xa5\x8d\xe0\xa4\xb0\xe0\xa5\x80:i8'
p575
sS'posn'
p576
S'280'
p577
sS'name'
p578
S'\xe0\xa4\xaa\xe0\xa5\x8d\xe0\xa4\xb0\xe0\xa4\xa7\xe0\xa4\xbe\xe0\xa4\xa8\xe0\xa4\xae\xe0\xa4\x82\xe0\xa4\xa4\xe0\xa5\x8d\xe0\xa4\xb0\xe0\xa5\x80'
p579
sS'af'
p580
S'\xe0\xa4\xaa\xe0\xa5\x8d\xe0\xa4\xb0\xe0\xa4\xa7\xe0\xa4\xbe\xe0\xa4\xa8\xe0\xa4\xae\xe0\xa4\x82\xe0\xa4\xa4\xe0\xa5\x8d\xe0\xa4\xb0\xe0\xa5\x80,n,m,sg,3,o,0,0'
p581
sS'chunkid'
p582
S'NP10'
p583
sS'drel'
p584
S'ccof:CCP3'
p585
sS'chunktype'
p586
S'head:NP10'
p587
sS'cref'
p588
S'i8%1:t5'
p589
ssbsg26
I00
sg27
I00
sg28
Nsg29
Nsg30
I13
sg31
I0
sg32
Nsg33
Nsg34
S'NNP'
p590
sg36
g571
sg37
I00
sba(issf_api
Word
p591
(dp592
g6
I00
sg7
V,
p593
sg9
(issf_api
FeatureSet
p594
(dp595
g12
(dp596
S'posn'
p597
S'290'
p598
sS'name'
p599
S','
p600
sS'drel'
p601
S'rsym:NP10'
p602
sS'chunktype'
p603
S'child:NP10'
p604
sS'af'
p605
S'COMMA,punc,,,,,,'
p606
ssbsg26
I00
sg27
I00
sg28
Nsg29
Nsg30
I13
sg31
I0
sg32
Nsg33
Nsg34
S'SYM'
p607
sg36
g594
sg37
I00
sba(issf_api
Word
p608
(dp609
g6
I00
sg7
V\u092f\u0942\u092a\u0940\u090f
p610
sg9
(issf_api
FeatureSet
p611
(dp612
g12
(dp613
S'crefhead'
p614
S'\xe0\xa4\xaf\xe0\xa5\x82\xe0\xa4\xaa\xe0\xa5\x80\xe0\xa4\x8f:i10'
p615
sS'posn'
p616
S'300'
p617
sS'name'
p618
S'\xe0\xa4\xaf\xe0\xa5\x82\xe0\xa4\xaa\xe0\xa5\x80\xe0\xa4\x8f'
p619
sS'af'
p620
S'\xe0\xa4\xaf\xe0\xa5\x82\xe0\xa4\xaa\xe0\xa5\x80\xe0\xa4\x8f,n,m,sg,3,d,0,0'
p621
sS'drel'
p622
S'nmod__adj:NP11'
p623
sS'crefchainhead'
p624
S'i10:t7'
p625
sS'chunktype'
p626
S'child:NP11'
p627
sS'cref'
p628
S'i9%0:t6,i10%1:t7'
p629
ssbsg26
I00
sg27
I00
sg28
Nsg29
Nsg30
I14
sg31
I0
sg32
Nsg33
Nsg34
S'NNP'
p630
sg36
g611
sg37
I00
sba(issf_api
Word
p631
(dp632
g6
I00
sg7
V\u0905\u0927\u094d\u092f\u0915\u094d\u0937
p633
sg9
(issf_api
FeatureSet
p634
(dp635
g12
(dp636
S'crefhead'
p637
S'\xe0\xa4\x85\xe0\xa4\xa7\xe0\xa5\x8d\xe0\xa4\xaf\xe0\xa4\x95\xe0\xa5\x8d\xe0\xa4\xb7:i9'
p638
sS'posn'
p639
S'310'
p640
sS'name'
p641
S'\xe0\xa4\x85\xe0\xa4\xa7\xe0\xa5\x8d\xe0\xa4\xaf\xe0\xa4\x95\xe0\xa5\x8d\xe0\xa4\xb7'
p642
sS'af'
p643
S'\xe0\xa4\x85\xe0\xa4\xa7\xe0\xa5\x8d\xe0\xa4\xaf\xe0\xa4\x95\xe0\xa5\x8d\xe0\xa4\xb7,n,m,sg,3,o,0,0'
p644
sS'chunkid'
p645
S'NP11'
p646
sS'drel'
p647
S'ccof:CCP3'
p648
sS'chunktype'
p649
S'head:NP11'
p650
sS'cref'
p651
S'i9%1:t6'
p652
ssbsg26
I00
sg27
I00
sg28
Nsg29
Nsg30
I14
sg31
I0
sg32
Nsg33
Nsg34
S'NN'
p653
sg36
g634
sg37
I00
sba(issf_api
Word
p654
(dp655
g6
I00
sg7
V\u0914\u0930
p656
sg9
(issf_api
FeatureSet
p657
(dp658
g12
(dp659
S'posn'
p660
S'320'
p661
sS'name'
p662
S'\xe0\xa4\x94\xe0\xa4\xb02'
p663
sS'af'
p664
S'\xe0\xa4\x94\xe0\xa4\xb0,avy,,,,,,'
p665
sS'chunkid'
p666
S'CCP3'
p667
sS'drel'
p668
S'k2:VGF2'
p669
sS'chunktype'
p670
S'head:CCP3'
p671
ssbsg26
I00
sg27
I00
sg28
Nsg29
Nsg30
I15
sg31
I0
sg32
Nsg33
Nsg34
S'CC'
p672
sg36
g657
sg37
I00
sba(issf_api
Word
p673
(dp674
g6
I00
sg7
V\u0935\u093e\u092e
p675
sg9
(issf_api
FeatureSet
p676
(dp677
g12
(dp678
S'posn'
p679
S'330'
p680
sS'name'
p681
S'\xe0\xa4\xb5\xe0\xa4\xbe\xe0\xa4\xae'
p682
sS'drel'
p683
S'pof__cn:NP12'
p684
sS'chunktype'
p685
S'child:NP12'
p686
sS'af'
p687
S'\xe0\xa4\xb5\xe0\xa4\xbe\xe0\xa4\xae,n,m,sg,3,d,0,0'
p688
ssbsg26
I00
sg27
I00
sg28
Nsg29
Nsg30
I16
sg31
I0
sg32
Nsg33
Nsg34
S'NNC'
p689
sg36
g676
sg37
I00
sba(issf_api
Word
p690
(dp691
g6
I00
sg7
V\u0926\u0932\u094b\u0902
p692
sg9
(issf_api
FeatureSet
p693
(dp694
g12
(dp695
S'posn'
p696
S'340'
p697
sS'name'
p698
S'\xe0\xa4\xa6\xe0\xa4\xb2\xe0\xa5\x8b\xe0\xa4\x82'
p699
sS'af'
p700
S'\xe0\xa4\xa6\xe0\xa4\xb2,n,m,pl,3,o,0_\xe0\xa4\x95\xe0\xa4\xbe,0'
p701
sS'chunkid'
p702
S'NP12'
p703
sS'drel'
p704
S'r6:NP13'
p705
sS'vpos'
p706
S'vib_3'
p707
sS'chunktype'
p708
S'head:NP12'
p709
ssbsg26
I00
sg27
I00
sg28
Nsg29
Nsg30
I16
sg31
I0
sg32
Nsg33
Nsg34
S'NN'
p710
sg36
g693
sg37
I00
sba(issf_api
Word
p711
(dp712
g6
I00
sg7
V\u0915\u0947
p713
sg9
(issf_api
FeatureSet
p714
(dp715
g12
(dp716
S'posn'
p717
S'350'
p718
sS'name'
p719
S'\xe0\xa4\x95\xe0\xa5\x873'
p720
sS'drel'
p721
S'lwg__psp:NP12'
p722
sS'chunktype'
p723
S'child:NP12'
p724
sS'af'
p725
S'\xe0\xa4\x95\xe0\xa4\xbe,psp,m,pl,,o,,'
p726
ssbsg26
I00
sg27
I00
sg28
Nsg29
Nsg30
I16
sg31
I0
sg32
Nsg33
Nsg34
S'PSP'
p727
sg36
g714
sg37
I00
sba(issf_api
Word
p728
(dp729
g6
I00
sg7
V\u0928\u0947\u0924\u093e\u0913\u0902
p730
sg9
(issf_api
FeatureSet
p731
(dp732
g12
(dp733
S'posn'
p734
S'360'
p735
sS'name'
p736
S'\xe0\xa4\xa8\xe0\xa5\x87\xe0\xa4\xa4\xe0\xa4\xbe\xe0\xa4\x93\xe0\xa4\x82'
p737
sS'af'
p738
S'\xe0\xa4\xa8\xe0\xa5\x87\xe0\xa4\xa4\xe0\xa4\xbe,n,m,pl,3,o,0_\xe0\xa4\xb8\xe0\xa5\x87,0'
p739
sS'chunkid'
p740
S'NP13'
p741
sS'drel'
p742
S'ccof:CCP3'
p743
sS'vpos'
p744
S'vib_2'
p745
sS'chunktype'
p746
S'head:NP13'
p747
ssbsg26
I00
sg27
I00
sg28
Nsg29
Nsg30
I17
sg31
I0
sg32
Nsg33
Nsg34
S'NN'
p748
sg36
g731
sg37
I00
sba(issf_api
Word
p749
(dp750
g6
I00
sg7
V\u0938\u0947
p751
sg9
(issf_api
FeatureSet
p752
(dp753
g12
(dp754
S'posn'
p755
S'370'
p756
sS'name'
p757
S'\xe0\xa4\xb8\xe0\xa5\x87'
p758
sS'drel'
p759
S'lwg__psp:NP13'
p760
sS'chunktype'
p761
S'child:NP13'
p762
sS'af'
p763
S'\xe0\xa4\xb8\xe0\xa5\x87,psp,,,,,,'
p764
ssbsg26
I00
sg27
I00
sg28
Nsg29
Nsg30
I17
sg31
I0
sg32
Nsg33
Nsg34
S'PSP'
p765
sg36
g752
sg37
I00
sba(issf_api
Word
p766
(dp767
g6
I00
sg7
V\u092e\u0941\u0932\u093e\u0915\u093e\u0924
p768
sg9
(issf_api
FeatureSet
p769
(dp770
g12
(dp771
S'posn'
p772
S'380'
p773
sS'name'
p774
S'\xe0\xa4\xae\xe0\xa5\x81\xe0\xa4\xb2\xe0\xa4\xbe\xe0\xa4\x95\xe0\xa4\xbe\xe0\xa4\xa4'
p775
sS'af'
p776
S'\xe0\xa4\xae\xe0\xa5\x81\xe0\xa4\xb2\xe0\xa4\xbe\xe0\xa4\x95\xe0\xa4\xbe\xe0\xa4\xa4,n,f,sg,3,d,0,0'
p777
sS'chunkid'
p778
S'NP14'
p779
sS'drel'
p780
S'pof:VGF2'
p781
sS'chunktype'
p782
S'head:NP14'
p783
ssbsg26
I00
sg27
I00
sg28
Nsg29
Nsg30
I18
sg31
I0
sg32
Nsg33
Nsg34
S'NN'
p784
sg36
g769
sg37
I00
sba(issf_api
Word
p785
(dp786
g6
I00
sg7
V\u0915\u0930\u0947\u0902\u0917\u0947
p787
sg9
(issf_api
FeatureSet
p788
(dp789
g12
(dp790
S'posn'
p791
S'390'
p792
sS'name'
p793
S'\xe0\xa4\x95\xe0\xa4\xb0\xe0\xa5\x87\xe0\xa4\x82\xe0\xa4\x97\xe0\xa5\x87'
p794
sS'af'
p795
S'\xe0\xa4\x95\xe0\xa4\xb0,v,m,sg,3h,,\xe0\xa4\x97\xe0\xa4\xbe,gA'
p796
sS'chunkid'
p797
S'VGF2'
p798
sS'stype'
p799
S'declarative'
p800
sS'drel'
p801
S'ccof:CCP2'
p802
sS'voicetype'
p803
S'active'
p804
sS'chunktype'
p805
S'head:VGF2'
p806
ssbsg26
I00
sg27
I00
sg28
Nsg29
Nsg30
I19
sg31
I0
sg32
Nsg33
Nsg34
S'VM'
p807
sg36
g788
sg37
I00
sba(issf_api
Word
p808
(dp809
g6
I00
sg7
V\u0964
p810
sg9
(issf_api
FeatureSet
p811
(dp812
g12
(dp813
S'posn'
p814
S'400'
p815
sS'name'
p816
S'\xe0\xa5\xa4'
p817
sS'af'
p818
S'\xe0\xa5\xa4,punc,,,,,,'
p819
sS'chunkid'
p820
S'BLK'
p821
sS'drel'
p822
S'rsym:VGF'
p823
sS'chunktype'
p824
S'head:BLK'
p825
ssbsg26
I00
sg27
I00
sg28
Nsg29
Nsg30
I20
sg31
I0
sg32
Nsg33
Nsg34
S'SYM'
p826
sg36
g811
sg37
I00
sba(issf_api
Word
p827
(dp828
g6
I00
sg7
V\u0909\u092e\u0930
p829
sg9
(issf_api
FeatureSet
p830
(dp831
g12
(dp832
S'crefhead'
p833
S'\xe0\xa4\x89\xe0\xa4\xae\xe0\xa4\xb0:i11'
p834
sS'posn'
p835
S'10'
p836
sS'name'
p837
S'\xe0\xa4\x89\xe0\xa4\xae\xe0\xa4\xb0'
p838
sS'af'
p839
S'\xe0\xa4\x89\xe0\xa4\xae\xe0\xa4\xb0,n,m,sg,3,o,0_\xe0\xa4\xa8\xe0\xa5\x87,0'
p840
sS'chunkid'
p841
S'NP'
p842
sS'creftype'
p843
S'Coreference-Identity:i5'
p844
sS'chunktype'
p845
S'head:NP'
p846
sS'vpos'
p847
S'vib_2'
p848
sS'cref'
p849
S'i11%1:t1'
p850
sS'drel'
p851
S'k1:VGF'
p852
ssbsg26
I00
sg27
I00
sg28
Nsg29
Nsg30
I0
sg31
I1
sg32
Nsg33
Nsg34
S'NNP'
p853
sg36
g830
sg37
I00
sba(issf_api
Word
p854
(dp855
g6
I00
sg7
V\u0928\u0947
p856
sg9
(issf_api
FeatureSet
p857
(dp858
g12
(dp859
S'posn'
p860
S'20'
p861
sS'name'
p862
S'\xe0\xa4\xa8\xe0\xa5\x87'
p863
sS'drel'
p864
S'lwg__psp:NP'
p865
sS'chunktype'
p866
S'child:NP'
p867
sS'af'
p868
S'\xe0\xa4\xa8\xe0\xa5\x87,psp,,,,,,'
p869
ssbsg26
I00
sg27
I00
sg28
Nsg29
Nsg30
I0
sg31
I1
sg32
Nsg33
Nsg34
S'PSP'
p870
sg36
g857
sg37
I00
sba(issf_api
Word
p871
(dp872
g6
I00
sg7
V\u0915\u0939\u093e
p873
sg9
(issf_api
FeatureSet
p874
(dp875
g12
(dp876
S'posn'
p877
S'30'
p878
sS'name'
p879
S'\xe0\xa4\x95\xe0\xa4\xb9\xe0\xa4\xbe'
p880
sS'af'
p881
S'\xe0\xa4\x95\xe0\xa4\xb9,v,m,sg,any,,\xe0\xa4\xaf\xe0\xa4\xbe,yA'
p882
sS'chunkid'
p883
S'VGF'
p884
sS'chunktype'
p885
S'head:VGF'
p886
sS'voicetype'
p887
S'active'
p888
sS'stype'
p889
S'declarative'
p890
ssbsg26
I00
sg27
I00
sg28
Nsg29
Nsg30
I1
sg31
I1
sg32
Nsg33
Nsg34
S'VM'
p891
sg36
g874
sg37
I00
sba(issf_api
Word
p892
(dp893
g6
I00
sg7
V\u0915\u093f
p894
sg9
(issf_api
FeatureSet
p895
(dp896
g12
(dp897
S'posn'
p898
S'40'
p899
sS'name'
p900
S'\xe0\xa4\x95\xe0\xa4\xbf'
p901
sS'af'
p902
S'\xe0\xa4\x95\xe0\xa4\xbf,avy,,,,,,'
p903
sS'chunkid'
p904
S'CCP'
p905
sS'drel'
p906
S'k2:VGF'
p907
sS'chunktype'
p908
S'head:CCP'
p909
ssbsg26
I00
sg27
I00
sg28
Nsg29
Nsg30
I2
sg31
I1
sg32
Nsg33
Nsg34
S'CC'
p910
sg36
g895
sg37
I00
sba(issf_api
Word
p911
(dp912
g6
I00
sg7
V\u091c\u092e\u094d\u092e\u0942
p913
sg9
(issf_api
FeatureSet
p914
(dp915
g12
(dp916
S'posn'
p917
S'50'
p918
sS'name'
p919
S'\xe0\xa4\x9c\xe0\xa4\xae\xe0\xa5\x8d\xe0\xa4\xae\xe0\xa5\x82'
p920
sS'af'
p921
S'\xe0\xa4\x9c\xe0\xa4\xae\xe0\xa5\x8d\xe0\xa4\xae\xe0\xa5\x82,n,m,sg,3,d,0,0'
p922
sS'drel'
p923
S'nmod__adj:NP2'
p924
sS'chunktype'
p925
S'child:NP2'
p926
sS'cref'
p927
S'i12%0:t3'
p928
ssbsg26
I00
sg27
I00
sg28
Nsg29
Nsg30
I3
sg31
I1
sg32
Nsg33
Nsg34
S'NNP'
p929
sg36
g914
sg37
I00
sba(issf_api
Word
p930
(dp931
g6
I00
sg7
V\u0915\u0936\u094d\u092e\u0940\u0930
p932
sg9
(issf_api
FeatureSet
p933
(dp934
g12
(dp935
S'crefhead'
p936
S'\xe0\xa4\x95\xe0\xa4\xb6\xe0\xa5\x8d\xe0\xa4\xae\xe0\xa5\x80\xe0\xa4\xb0:i12'
p937
sS'posn'
p938
S'60'
p939
sS'name'
p940
S'\xe0\xa4\x95\xe0\xa4\xb6\xe0\xa5\x8d\xe0\xa4\xae\xe0\xa5\x80\xe0\xa4\xb0'
p941
sS'af'
p942
S'\xe0\xa4\x95\xe0\xa4\xb6\xe0\xa5\x8d\xe0\xa4\xae\xe0\xa5\x80\xe0\xa4\xb0,n,m,sg,3,o,0_\xe0\xa4\x95\xe0\xa5\x8b,0'
p943
sS'chunkid'
p944
S'NP2'
p945
sS'creftype'
p946
S'Coreference-Identity:i6'
p947
sS'chunktype'
p948
S'head:NP2'
p949
sS'crefchainhead'
p950
S'i12:t3'
p951
sS'vpos'
p952
S'vib_vib_3'
p953
sS'cref'
p954
S'i12%1:t3'
p955
sS'drel'
p956
S'k4:VGNN'
p957
ssbsg26
I00
sg27
I00
sg28
Nsg29
Nsg30
I3
sg31
I1
sg32
Nsg33
Nsg34
S'NNP'
p958
sg36
g933
sg37
I00
sba(issf_api
Word
p959
(dp960
g6
I00
sg7
V\u0915\u094b
p961
sg9
(issf_api
FeatureSet
p962
(dp963
g12
(dp964
S'posn'
p965
S'70'
p966
sS'name'
p967
S'\xe0\xa4\x95\xe0\xa5\x8b'
p968
sS'drel'
p969
S'lwg__psp:NP2'
p970
sS'chunktype'
p971
S'child:NP2'
p972
sS'af'
p973
S'\xe0\xa4\x95\xe0\xa5\x8b,psp,,,,,,'
p974
ssbsg26
I00
sg27
I00
sg28
Nsg29
Nsg30
I3
sg31
I1
sg32
Nsg33
Nsg34
S'PSP'
p975
sg36
g962
sg37
I00
sba(issf_api
Word
p976
(dp977
g6
I00
sg7
V\u0905\u0927\u093f\u0915
p978
sg9
(issf_api
FeatureSet
p979
(dp980
g12
(dp981
S'posn'
p982
S'80'
p983
sS'name'
p984
S'\xe0\xa4\x85\xe0\xa4\xa7\xe0\xa4\xbf\xe0\xa4\x95'
p985
sS'drel'
p986
S'nmod__adj:NP3'
p987
sS'chunktype'
p988
S'child:NP3'
p989
sS'af'
p990
S'\xe0\xa4\x85\xe0\xa4\xa7\xe0\xa4\xbf\xe0\xa4\x95,avy,,,,,,'
p991
ssbsg26
I00
sg27
I00
sg28
Nsg29
Nsg30
I4
sg31
I1
sg32
Nsg33
Nsg34
S'QF'
p992
sg36
g979
sg37
I00
sba(issf_api
Word
p993
(dp994
g6
I00
sg7
V\u0938\u094d\u0935\u093e\u092f\u0924\u094d\u0924\u0924\u093e
p995
sg9
(issf_api
FeatureSet
p996
(dp997
g12
(dp998
S'posn'
p999
S'90'
p1000
sS'name'
p1001
S'\xe0\xa4\xb8\xe0\xa5\x8d\xe0\xa4\xb5\xe0\xa4\xbe\xe0\xa4\xaf\xe0\xa4\xa4\xe0\xa5\x8d\xe0\xa4\xa4\xe0\xa4\xa4\xe0\xa4\xbe'
p1002
sS'af'
p1003
S'\xe0\xa4\xb8\xe0\xa5\x8d\xe0\xa4\xb5\xe0\xa4\xbe\xe0\xa4\xaf\xe0\xa4\xa4\xe0\xa5\x8d\xe0\xa4\xa4\xe0\xa4\xa4\xe0\xa4\xbe,n,f,sg,3,d,0,0'
p1004
sS'chunkid'
p1005
S'NP3'
p1006
sS'drel'
p1007
S'k2:VGNN'
p1008
sS'chunktype'
p1009
S'head:NP3'
p1010
ssbsg26
I00
sg27
I00
sg28
Nsg29
Nsg30
I4
sg31
I1
sg32
Nsg33
Nsg34
S'NN'
p1011
sg36
g996
sg37
I00
sba(issf_api
Word
p1012
(dp1013
g6
I00
sg7
V\u0926\u0947\u0928\u0947
p1014
sg9
(issf_api
FeatureSet
p1015
(dp1016
g12
(dp1017
S'posn'
p1018
S'100'
p1019
sS'name'
p1020
S'\xe0\xa4\xa6\xe0\xa5\x87\xe0\xa4\xa8\xe0\xa5\x87'
p1021
sS'af'
p1022
S'\xe0\xa4\xa6\xe0\xa5\x87,v,any,sg,any,o,\xe0\xa4\xa8\xe0\xa4\xbe_\xe0\xa4\x95\xe0\xa4\xbe,nA'
p1023
sS'chunkid'
p1024
S'VGNN'
p1025
sS'drel'
p1026
S'r6:NP4'
p1027
sS'vpos'
p1028
S'tam_2'
p1029
sS'chunktype'
p1030
S'head:VGNN'
p1031
ssbsg26
I00
sg27
I00
sg28
Nsg29
Nsg30
I5
sg31
I1
sg32
Nsg33
Nsg34
S'VM'
p1032
sg36
g1015
sg37
I00
sba(issf_api
Word
p1033
(dp1034
g6
I00
sg7
V\u0915\u0947
p1035
sg9
(issf_api
FeatureSet
p1036
(dp1037
g12
(dp1038
S'posn'
p1039
S'110'
p1040
sS'name'
p1041
S'\xe0\xa4\x95\xe0\xa5\x87'
p1042
sS'drel'
p1043
S'lwg__psp:VGNN'
p1044
sS'chunktype'
p1045
S'child:VGNN'
p1046
sS'af'
p1047
S'\xe0\xa4\x95\xe0\xa4\xbe,psp,m,sg,,o,,'
p1048
ssbsg26
I00
sg27
I00
sg28
Nsg29
Nsg30
I5
sg31
I1
sg32
Nsg33
Nsg34
S'PSP'
p1049
sg36
g1036
sg37
I00
sba(issf_api
Word
p1050
(dp1051
g6
I00
sg7
V\u092e\u0938\u0932\u0947
p1052
sg9
(issf_api
FeatureSet
p1053
(dp1054
g12
(dp1055
S'posn'
p1056
S'120'
p1057
sS'name'
p1058
S'\xe0\xa4\xae\xe0\xa4\xb8\xe0\xa4\xb2\xe0\xa5\x87'
p1059
sS'af'
p1060
S'\xe0\xa4\xae\xe0\xa4\xb8\xe0\xa4\xb2\xe0\xa4\xbe,n,m,sg,3,o,0_\xe0\xa4\xaa\xe0\xa4\xb0,0'
p1061
sS'chunkid'
p1062
S'NP4'
p1063
sS'drel'
p1064
S'k7:VGF2'
p1065
sS'vpos'
p1066
S'vib_2'
p1067
sS'chunktype'
p1068
S'head:NP4'
p1069
ssbsg26
I00
sg27
I00
sg28
Nsg29
Nsg30
I6
sg31
I1
sg32
Nsg33
Nsg34
S'NN'
p1070
sg36
g1053
sg37
I00
sba(issf_api
Word
p1071
(dp1072
g6
I00
sg7
V\u092a\u0930
p1073
sg9
(issf_api
FeatureSet
p1074
(dp1075
g12
(dp1076
S'posn'
p1077
S'130'
p1078
sS'name'
p1079
S'\xe0\xa4\xaa\xe0\xa4\xb0'
p1080
sS'drel'
p1081
S'lwg__psp:NP4'
p1082
sS'chunktype'
p1083
S'child:NP4'
p1084
sS'af'
p1085
S'\xe0\xa4\xaa\xe0\xa4\xb0,psp,,,,,,'
p1086
ssbsg26
I00
sg27
I00
sg28
Nsg29
Nsg30
I6
sg31
I1
sg32
Nsg33
Nsg34
S'PSP'
p1087
sg36
g1074
sg37
I00
sba(issf_api
Word
p1088
(dp1089
g6
I00
sg7
V\u0935\u0939
p1090
sg9
(issf_api
FeatureSet
p1091
(dp1092
g12
(dp1093
S'crefhead'
p1094
S'\xe0\xa4\xb5\xe0\xa4\xb9:i13'
p1095
sS'posn'
p1096
S'140'
p1097
sS'name'
p1098
S'\xe0\xa4\xb5\xe0\xa4\xb9'
p1099
sS'af'
p1100
S'\xe0\xa4\xb5\xe0\xa4\xb9,pn,any,sg,3,d,0,0'
p1101
sS'chunkid'
p1102
S'NP5'
p1103
sS'creftype'
p1104
S'Anaphora-C:i11'
p1105
sS'chunktype'
p1106
S'head:NP5'
p1107
sS'cref'
p1108
S'i13%1:t1'
p1109
sS'drel'
p1110
S'k1:VGF2'
p1111
ssbsg26
I00
sg27
I00
sg28
Nsg29
Nsg30
I7
sg31
I1
sg32
Nsg33
Nsg34
S'PRP'
p1112
sg36
g1091
sg37
I00
sba(issf_api
Word
p1113
(dp1114
g6
I00
sg7
V\u090f\u0915
p1115
sg9
(issf_api
FeatureSet
p1116
(dp1117
g12
(dp1118
S'posn'
p1119
S'150'
p1120
sS'name'
p1121
S'\xe0\xa4\x8f\xe0\xa4\x95'
p1122
sS'af'
p1123
S'\xe0\xa4\x8f\xe0\xa4\x95,num,any,any,,any,,'
p1124
sS'drel'
p1125
S'nmod__adj:NP6'
p1126
sS'chunktype'
p1127
S'child:NP6'
p1128
sS'cref'
p1129
S'i14%0:t4'
p1130
ssbsg26
I00
sg27
I00
sg28
Nsg29
Nsg30
I8
sg31
I1
sg32
Nsg33
Nsg34
S'QC'
p1131
sg36
g1116
sg37
I00
sba(issf_api
Word
p1132
(dp1133
g6
I00
sg7
V\u092a\u094d\u0930\u0924\u093f\u0928\u093f\u0927\u093f\u092e\u0902\u0921\u0932
p1134
sg9
(issf_api
FeatureSet
p1135
(dp1136
g12
(dp1137
S'crefhead'
p1138
S'\xe0\xa4\xaa\xe0\xa5\x8d\xe0\xa4\xb0\xe0\xa4\xa4\xe0\xa4\xbf\xe0\xa4\xa8\xe0\xa4\xbf\xe0\xa4\xa7\xe0\xa4\xbf\xe0\xa4\xae\xe0\xa4\x82\xe0\xa4\xa1\xe0\xa4\xb2:i14'
p1139
sS'posn'
p1140
S'160'
p1141
sS'name'
p1142
S'\xe0\xa4\xaa\xe0\xa5\x8d\xe0\xa4\xb0\xe0\xa4\xa4\xe0\xa4\xbf\xe0\xa4\xa8\xe0\xa4\xbf\xe0\xa4\xa7\xe0\xa4\xbf\xe0\xa4\xae\xe0\xa4\x82\xe0\xa4\xa1\xe0\xa4\xb2'
p1143
sS'af'
p1144
S'\xe0\xa4\xaa\xe0\xa5\x8d\xe0\xa4\xb0\xe0\xa4\xa4\xe0\xa4\xbf\xe0\xa4\xa8\xe0\xa4\xbf\xe0\xa4\xa7\xe0\xa4\xbf\xe0\xa4\xae\xe0\xa4\x82\xe0\xa4\xa1\xe0\xa4\xb2,n,m,sg,3,o,0_\xe0\xa4\x95\xe0\xa5\x87_\xe0\xa4\xb8\xe0\xa4\xbe\xe0\xa4\xa5,0'
p1145
sS'chunkid'
p1146
S'NP6'
p1147
sS'creftype'
p1148
S'Coreference-Identity:i7'
p1149
sS'chunktype'
p1150
S'head:NP6'
p1151
sS'vpos'
p1152
S'vib_3_4'
p1153
sS'cref'
p1154
S'i14%1:t4'
p1155
sS'drel'
p1156
S'ras-k1:VGF2'
p1157
ssbsg26
I00
sg27
I00
sg28
Nsg29
Nsg30
I8
sg31
I1
sg32
Nsg33
Nsg34
S'NN'
p1158
sg36
g1135
sg37
I00
sba(issf_api
Word
p1159
(dp1160
g6
I00
sg7
V\u0915\u0947
p1161
sg9
(issf_api
FeatureSet
p1162
(dp1163
g12
(dp1164
S'posn'
p1165
S'170'
p1166
sS'name'
p1167
S'\xe0\xa4\x95\xe0\xa5\x872'
p1168
sS'drel'
p1169
S'lwg__psp:NP6'
p1170
sS'chunktype'
p1171
S'child:NP6'
p1172
sS'af'
p1173
S'\xe0\xa4\x95\xe0\xa5\x87,psp,,,,,,'
p1174
ssbsg26
I00
sg27
I00
sg28
Nsg29
Nsg30
I8
sg31
I1
sg32
Nsg33
Nsg34
S'PSP'
p1175
sg36
g1162
sg37
I00
sba(issf_api
Word
p1176
(dp1177
g6
I00
sg7
V\u0938\u093e\u0925
p1178
sg9
(issf_api
FeatureSet
p1179
(dp1180
g12
(dp1181
S'posn'
p1182
S'180'
p1183
sS'name'
p1184
S'\xe0\xa4\xb8\xe0\xa4\xbe\xe0\xa4\xa5'
p1185
sS'drel'
p1186
S'lwg__psp:NP6'
p1187
sS'chunktype'
p1188
S'child:NP6'
p1189
sS'af'
p1190
S'\xe0\xa4\xb8\xe0\xa4\xbe\xe0\xa4\xa5,nst,m,sg,3,d,,'
p1191
ssbsg26
I00
sg27
I00
sg28
Nsg29
Nsg30
I8
sg31
I1
sg32
Nsg33
Nsg34
S'NST'
p1192
sg36
g1179
sg37
I00
sba(issf_api
Word
p1193
(dp1194
g6
I00
sg7
V\u092a\u094d\u0930\u0927\u093e\u0928\u092e\u0902\u0924\u094d\u0930\u0940
p1195
sg9
(issf_api
FeatureSet
p1196
(dp1197
g12
(dp1198
S'crefhead'
p1199
S'\xe0\xa4\xaa\xe0\xa5\x8d\xe0\xa4\xb0\xe0\xa4\xa7\xe0\xa4\xbe\xe0\xa4\xa8\xe0\xa4\xae\xe0\xa4\x82\xe0\xa4\xa4\xe0\xa5\x8d\xe0\xa4\xb0\xe0\xa5\x80:i15'
p1200
sS'posn'
p1201
S'190'
p1202
sS'name'
p1203
S'\xe0\xa4\xaa\xe0\xa5\x8d\xe0\xa4\xb0\xe0\xa4\xa7\xe0\xa4\xbe\xe0\xa4\xa8\xe0\xa4\xae\xe0\xa4\x82\xe0\xa4\xa4\xe0\xa5\x8d\xe0\xa4\xb0\xe0\xa5\x80'
p1204
sS'af'
p1205
S'\xe0\xa4\xaa\xe0\xa5\x8d\xe0\xa4\xb0\xe0\xa4\xa7\xe0\xa4\xbe\xe0\xa4\xa8\xe0\xa4\xae\xe0\xa4\x82\xe0\xa4\xa4\xe0\xa5\x8d\xe0\xa4\xb0\xe0\xa5\x80,n,m,sg,3,d,0,0'
p1206
sS'creftype'
p1207
S'Coreference-Identity:i8'
p1208
sS'drel'
p1209
S'nmod__adj:NP7'
p1210
sS'chunktype'
p1211
S'child:NP7'
p1212
sS'cref'
p1213
S'i15%1:t5'
p1214
ssbsg26
I00
sg27
I00
sg28
Nsg29
Nsg30
I9
sg31
I1
sg32
Nsg33
Nsg34
S'NNP'
p1215
sg36
g1196
sg37
I00
sba(issf_api
Word
p1216
(dp1217
g6
I00
sg7
V\u092e\u0928\u092e\u094b\u0939\u0928
p1218
sg9
(issf_api
FeatureSet
p1219
(dp1220
g12
(dp1221
S'posn'
p1222
S'200'
p1223
sS'name'
p1224
S'\xe0\xa4\xae\xe0\xa4\xa8\xe0\xa4\xae\xe0\xa5\x8b\xe0\xa4\xb9\xe0\xa4\xa8'
p1225
sS'af'
p1226
S'\xe0\xa4\xae\xe0\xa4\xa8\xe0\xa4\xae\xe0\xa5\x8b\xe0\xa4\xb9\xe0\xa4\xa8,n,m,sg,3,d,0,0'
p1227
sS'drel'
p1228
S'pof__cn:NP7'
p1229
sS'chunktype'
p1230
S'child:NP7'
p1231
sS'cref'
p1232
S'i16%0:t5'
p1233
ssbsg26
I00
sg27
I00
sg28
Nsg29
Nsg30
I9
sg31
I1
sg32
Nsg33
Nsg34
S'NNPC'
p1234
sg36
g1219
sg37
I00
sba(issf_api
Word
p1235
(dp1236
g6
I00
sg7
V\u0938\u093f\u0902\u0939
p1237
sg9
(issf_api
FeatureSet
p1238
(dp1239
g12
(dp1240
S'crefhead'
p1241
S'\xe0\xa4\xb8\xe0\xa4\xbf\xe0\xa4\x82\xe0\xa4\xb9:i16'
p1242
sS'posn'
p1243
S'210'
p1244
sS'name'
p1245
S'\xe0\xa4\xb8\xe0\xa4\xbf\xe0\xa4\x82\xe0\xa4\xb9'
p1246
sS'af'
p1247
S'\xe0\xa4\xb8\xe0\xa4\xbf\xe0\xa4\x82\xe0\xa4\xb9,n,m,sg,3,o,0,0'
p1248
sS'chunkid'
p1249
S'NP7'
p1250
sS'creftype'
p1251
S'Coreference-NounComplement:i15'
p1252
sS'chunktype'
p1253
S'head:NP7'
p1254
sS'crefchainhead'
p1255
S'i16:t5'
p1256
sS'cref'
p1257
S'i16%1:t5'
p1258
sS'drel'
p1259
S'ccof:CCP2'
p1260
ssbsg26
I00
sg27
I00
sg28
Nsg29
Nsg30
I9
sg31
I1
sg32
Nsg33
Nsg34
S'NNP'
p1261
sg36
g1238
sg37
I00
sba(issf_api
Word
p1262
(dp1263
g6
I00
sg7
V\u0935
p1264
sg9
(issf_api
FeatureSet
p1265
(dp1266
g12
(dp1267
S'posn'
p1268
S'220'
p1269
sS'name'
p1270
S'\xe0\xa4\xb5'
p1271
sS'af'
p1272
S'\xe0\xa4\xb5,avy,,,,,,'
p1273
sS'chunkid'
p1274
S'CCP2'
p1275
sS'drel'
p1276
S'k2:VGF2'
p1277
sS'chunktype'
p1278
S'head:CCP2'
p1279
ssbsg26
I00
sg27
I00
sg28
Nsg29
Nsg30
I10
sg31
I1
sg32
Nsg33
Nsg34
S'CC'
p1280
sg36
g1265
sg37
I00
sba(issf_api
Word
p1281
(dp1282
g6
I00
sg7
V\u092f\u0942\u092a\u0940\u090f
p1283
sg9
(issf_api
FeatureSet
p1284
(dp1285
g12
(dp1286
S'crefhead'
p1287
S'\xe0\xa4\xaf\xe0\xa5\x82\xe0\xa4\xaa\xe0\xa5\x80\xe0\xa4\x8f:i18'
p1288
sS'posn'
p1289
S'230'
p1290
sS'name'
p1291
S'\xe0\xa4\xaf\xe0\xa5\x82\xe0\xa4\xaa\xe0\xa5\x80\xe0\xa4\x8f'
p1292
sS'af'
p1293
S'\xe0\xa4\xaf\xe0\xa5\x82\xe0\xa4\xaa\xe0\xa5\x80\xe0\xa4\x8f,n,m,sg,3,d,0,0'
p1294
sS'creftype'
p1295
S'Coreference-Identity:i10'
p1296
sS'drel'
p1297
S'nmod__adj:NP8'
p1298
sS'chunktype'
p1299
S'child:NP8'
p1300
sS'cref'
p1301
S'i17%0:t6,i18%1:t7'
p1302
ssbsg26
I00
sg27
I00
sg28
Nsg29
Nsg30
I11
sg31
I1
sg32
Nsg33
Nsg34
S'NNP'
p1303
sg36
g1284
sg37
I00
sba(issf_api
Word
p1304
(dp1305
g6
I00
sg7
V\u0905\u0927\u094d\u092f\u0915\u094d\u0937
p1306
sg9
(issf_api
FeatureSet
p1307
(dp1308
g12
(dp1309
S'crefhead'
p1310
S'\xe0\xa4\x85\xe0\xa4\xa7\xe0\xa5\x8d\xe0\xa4\xaf\xe0\xa4\x95\xe0\xa5\x8d\xe0\xa4\xb7:i17'
p1311
sS'posn'
p1312
S'240'
p1313
sS'name'
p1314
S'\xe0\xa4\x85\xe0\xa4\xa7\xe0\xa5\x8d\xe0\xa4\xaf\xe0\xa4\x95\xe0\xa5\x8d\xe0\xa4\xb7'
p1315
sS'af'
p1316
S'\xe0\xa4\x85\xe0\xa4\xa7\xe0\xa5\x8d\xe0\xa4\xaf\xe0\xa4\x95\xe0\xa5\x8d\xe0\xa4\xb7,n,any,sg,3,d,0,0'
p1317
sS'creftype'
p1318
S'Coreference-Identity:i9'
p1319
sS'drel'
p1320
S'nmod:NP8'
p1321
sS'chunktype'
p1322
S'child:NP8'
p1323
sS'cref'
p1324
S'i17%1:t6'
p1325
ssbsg26
I00
sg27
I00
sg28
Nsg29
Nsg30
I11
sg31
I1
sg32
Nsg33
Nsg34
S'NN'
p1326
sg36
g1307
sg37
I00
sba(issf_api
Word
p1327
(dp1328
g6
I00
sg7
V\u0938\u094b\u0928\u093f\u092f\u093e
p1329
sg9
(issf_api
FeatureSet
p1330
(dp1331
g12
(dp1332
S'posn'
p1333
S'250'
p1334
sS'name'
p1335
S'\xe0\xa4\xb8\xe0\xa5\x8b\xe0\xa4\xa8\xe0\xa4\xbf\xe0\xa4\xaf\xe0\xa4\xbe'
p1336
sS'af'
p1337
S'\xe0\xa4\xb8\xe0\xa5\x8b\xe0\xa4\xa8\xe0\xa4\xbf\xe0\xa4\xaf\xe0\xa4\xbe,n,f,sg,3,d,0,0'
p1338
sS'drel'
p1339
S'pof__cn:NP8'
p1340
sS'chunktype'
p1341
S'child:NP8'
p1342
sS'cref'
p1343
S'i19%0:t6'
p1344
ssbsg26
I00
sg27
I00
sg28
Nsg29
Nsg30
I11
sg31
I1
sg32
Nsg33
Nsg34
S'NNPC'
p1345
sg36
g1330
sg37
I00
sba(issf_api
Word
p1346
(dp1347
g6
I00
sg7
V\u0917\u093e\u0902\u0927\u0940
p1348
sg9
(issf_api
FeatureSet
p1349
(dp1350
g12
(dp1351
S'crefhead'
p1352
S'\xe0\xa4\x97\xe0\xa4\xbe\xe0\xa4\x82\xe0\xa4\xa7\xe0\xa5\x80:i19'
p1353
sS'posn'
p1354
S'260'
p1355
sS'name'
p1356
S'\xe0\xa4\x97\xe0\xa4\xbe\xe0\xa4\x82\xe0\xa4\xa7\xe0\xa5\x80'
p1357
sS'af'
p1358
S'\xe0\xa4\x97\xe0\xa4\xbe\xe0\xa4\x82\xe0\xa4\xa7\xe0\xa5\x80,n,any,sg,3,o,0_\xe0\xa4\xb8\xe0\xa5\x87,0'
p1359
sS'chunkid'
p1360
S'NP8'
p1361
sS'creftype'
p1362
S'Coreference-NounComplement:i17'
p1363
sS'chunktype'
p1364
S'head:NP8'
p1365
sS'crefchainhead'
p1366
S'i19:t6'
p1367
sS'vpos'
p1368
S'vib_vib_vib_5'
p1369
sS'cref'
p1370
S'i19%1:t6'
p1371
sS'drel'
p1372
S'ccof:CCP2'
p1373
ssbsg26
I00
sg27
I00
sg28
Nsg29
Nsg30
I11
sg31
I1
sg32
Nsg33
Nsg34
S'NNP'
p1374
sg36
g1349
sg37
I00
sba(issf_api
Word
p1375
(dp1376
g6
I00
sg7
V\u0938\u0947
p1377
sg9
(issf_api
FeatureSet
p1378
(dp1379
g12
(dp1380
S'posn'
p1381
S'270'
p1382
sS'name'
p1383
S'\xe0\xa4\xb8\xe0\xa5\x87'
p1384
sS'drel'
p1385
S'lwg__psp:NP8'
p1386
sS'chunktype'
p1387
S'child:NP8'
p1388
sS'af'
p1389
S'\xe0\xa4\xb8\xe0\xa5\x87,psp,,,,,,'
p1390
ssbsg26
I00
sg27
I00
sg28
Nsg29
Nsg30
I11
sg31
I1
sg32
Nsg33
Nsg34
S'PSP'
p1391
sg36
g1378
sg37
I00
sba(issf_api
Word
p1392
(dp1393
g6
I00
sg7
V\u092e\u093f\u0932\u0947\u0902\u0917\u0947
p1394
sg9
(issf_api
FeatureSet
p1395
(dp1396
g12
(dp1397
S'posn'
p1398
S'280'
p1399
sS'name'
p1400
S'\xe0\xa4\xae\xe0\xa4\xbf\xe0\xa4\xb2\xe0\xa5\x87\xe0\xa4\x82\xe0\xa4\x97\xe0\xa5\x87'
p1401
sS'af'
p1402
S'\xe0\xa4\xae\xe0\xa4\xbf\xe0\xa4\xb2,v,m,sg,3h,,\xe0\xa4\x97\xe0\xa4\xbe,gA'
p1403
sS'chunkid'
p1404
S'VGF2'
p1405
sS'stype'
p1406
S'declarative'
p1407
sS'drel'
p1408
S'ccof:CCP'
p1409
sS'voicetype'
p1410
S'active'
p1411
sS'chunktype'
p1412
S'head:VGF2'
p1413
ssbsg26
I00
sg27
I00
sg28
Nsg29
Nsg30
I12
sg31
I1
sg32
Nsg33
Nsg34
S'VM'
p1414
sg36
g1395
sg37
I00
sba(issf_api
Word
p1415
(dp1416
g6
I00
sg7
V\u0964
p1417
sg9
(issf_api
FeatureSet
p1418
(dp1419
g12
(dp1420
S'posn'
p1421
S'290'
p1422
sS'name'
p1423
S'\xe0\xa5\xa4'
p1424
sS'af'
p1425
S'\xe0\xa5\xa4,punc,,,,,,'
p1426
sS'chunkid'
p1427
S'BLK'
p1428
sS'drel'
p1429
S'rsym:VGF'
p1430
sS'chunktype'
p1431
S'head:BLK'
p1432
ssbsg26
I00
sg27
I00
sg28
Nsg29
Nsg30
I13
sg31
I1
sg32
Nsg33
Nsg34
S'SYM'
p1433
sg36
g1418
sg37
I00
sba(issf_api
Word
p1434
(dp1435
g6
I00
sg7
V\u0909\u092e\u0930
p1436
sg9
(issf_api
FeatureSet
p1437
(dp1438
g12
(dp1439
S'crefhead'
p1440
S'\xe0\xa4\x89\xe0\xa4\xae\xe0\xa4\xb0:i20'
p1441
sS'posn'
p1442
S'10'
p1443
sS'name'
p1444
S'\xe0\xa4\x89\xe0\xa4\xae\xe0\xa4\xb0'
p1445
sS'af'
p1446
S'\xe0\xa4\x89\xe0\xa4\xae\xe0\xa4\xb0,n,m,sg,3,d,0,0'
p1447
sS'chunkid'
p1448
S'NP'
p1449
sS'creftype'
p1450
S'Coreference-Identity:i13'
p1451
sS'chunktype'
p1452
S'head:NP'
p1453
sS'cref'
p1454
S'i20%1:t1'
p1455
sS'drel'
p1456
S'k1:VGF'
p1457
ssbsg26
I00
sg27
I00
sg28
Nsg29
Nsg30
I0
sg31
I2
sg32
Nsg33
Nsg34
S'NNP'
p1458
sg36
g1437
sg37
I00
sba(issf_api
Word
p1459
(dp1460
g6
I00
sg7
V\u092a\u093e\u0915\u093f\u0938\u094d\u0924\u093e\u0928\u0940
p1461
sg9
(issf_api
FeatureSet
p1462
(dp1463
g12
(dp1464
S'posn'
p1465
S'20'
p1466
sS'name'
p1467
S'\xe0\xa4\xaa\xe0\xa4\xbe\xe0\xa4\x95\xe0\xa4\xbf\xe0\xa4\xb8\xe0\xa5\x8d\xe0\xa4\xa4\xe0\xa4\xbe\xe0\xa4\xa8\xe0\xa5\x80'
p1468
sS'af'
p1469
S'\xe0\xa4\xaa\xe0\xa4\xbe\xe0\xa4\x95\xe0\xa4\xbf\xe0\xa4\xb8\xe0\xa5\x8d\xe0\xa4\xa4\xe0\xa4\xbe\xe0\xa4\xa8\xe0\xa5\x80,adj,any,any,,o,,'
p1470
sS'drel'
p1471
S'nmod__adj:NP2'
p1472
sS'chunktype'
p1473
S'child:NP2'
p1474
sS'cref'
p1475
S'i21%0:t8'
p1476
ssbsg26
I00
sg27
I00
sg28
Nsg29
Nsg30
I1
sg31
I2
sg32
Nsg33
Nsg34
S'JJ'
p1477
sg36
g1462
sg37
I00
sba(issf_api
Word
p1478
(dp1479
g6
I00
sg7
V\u092a\u094d\u0930\u0927\u093e\u0928\u092e\u0902\u0924\u094d\u0930\u0940
p1480
sg9
(issf_api
FeatureSet
p1481
(dp1482
g12
(dp1483
S'crefhead'
p1484
S'\xe0\xa4\xaa\xe0\xa5\x8d\xe0\xa4\xb0\xe0\xa4\xa7\xe0\xa4\xbe\xe0\xa4\xa8\xe0\xa4\xae\xe0\xa4\x82\xe0\xa4\xa4\xe0\xa5\x8d\xe0\xa4\xb0\xe0\xa5\x80:i21'
p1485
sS'posn'
p1486
S'30'
p1487
sS'name'
p1488
S'\xe0\xa4\xaa\xe0\xa5\x8d\xe0\xa4\xb0\xe0\xa4\xa7\xe0\xa4\xbe\xe0\xa4\xa8\xe0\xa4\xae\xe0\xa4\x82\xe0\xa4\xa4\xe0\xa5\x8d\xe0\xa4\xb0\xe0\xa5\x80'
p1489
sS'af'
p1490
S'\xe0\xa4\xaa\xe0\xa5\x8d\xe0\xa4\xb0\xe0\xa4\xa7\xe0\xa4\xbe\xe0\xa4\xa8\xe0\xa4\xae\xe0\xa4\x82\xe0\xa4\xa4\xe0\xa5\x8d\xe0\xa4\xb0\xe0\xa5\x80,n,m,sg,3,d,0,0'
p1491
sS'drel'
p1492
S'nmod__adj:NP2'
p1493
sS'chunktype'
p1494
S'child:NP2'
p1495
sS'cref'
p1496
S'i21%1:t8'
p1497
ssbsg26
I00
sg27
I00
sg28
Nsg29
Nsg30
I1
sg31
I2
sg32
Nsg33
Nsg34
S'NNP'
p1498
sg36
g1481
sg37
I00
sba(issf_api
Word
p1499
(dp1500
g6
I00
sg7
V\u0936\u094c\u0915\u0924
p1501
sg9
(issf_api
FeatureSet
p1502
(dp1503
g12
(dp1504
S'posn'
p1505
S'40'
p1506
sS'name'
p1507
S'\xe0\xa4\xb6\xe0\xa5\x8c\xe0\xa4\x95\xe0\xa4\xa4'
p1508
sS'af'
p1509
S'\xe0\xa4\xb6\xe0\xa5\x8c\xe0\xa4\x95\xe0\xa4\xa4,n,m,sg,3,d,0,0'
p1510
sS'drel'
p1511
S'pof__cn:NP2'
p1512
sS'chunktype'
p1513
S'child:NP2'
p1514
sS'cref'
p1515
S'i22%0:t8'
p1516
ssbsg26
I00
sg27
I00
sg28
Nsg29
Nsg30
I1
sg31
I2
sg32
Nsg33
Nsg34
S'NNPC'
p1517
sg36
g1502
sg37
I00
sba(issf_api
Word
p1518
(dp1519
g6
I00
sg7
V\u0905\u091c\u0940\u091c
p1520
sg9
(issf_api
FeatureSet
p1521
(dp1522
g12
(dp1523
S'crefhead'
p1524
S'\xe0\xa4\x85\xe0\xa4\x9c\xe0\xa5\x80\xe0\xa4\x9c:i22'
p1525
sS'posn'
p1526
S'50'
p1527
sS'name'
p1528
S'\xe0\xa4\x85\xe0\xa4\x9c\xe0\xa5\x80\xe0\xa4\x9c'
p1529
sS'af'
p1530
S'\xe0\xa4\x85\xe0\xa4\x9c\xe0\xa5\x80\xe0\xa4\x9c,n,m,sg,3,o,0_\xe0\xa4\x95\xe0\xa5\x87_\xe0\xa4\xb2\xe0\xa4\xbf\xe0\xa4\x8f,0'
p1531
sS'chunkid'
p1532
S'NP2'
p1533
sS'creftype'
p1534
S'Coreference-NounComplement:i21'
p1535
sS'chunktype'
p1536
S'head:NP2'
p1537
sS'crefchainhead'
p1538
S'i22:t8'
p1539
sS'vpos'
p1540
S'vib_vib_5_6'
p1541
sS'cref'
p1542
S'i22%1:t8'
p1543
sS'drel'
p1544
S'rt:VGF'
p1545
ssbsg26
I00
sg27
I00
sg28
Nsg29
Nsg30
I1
sg31
I2
sg32
Nsg33
Nsg34
S'NNP'
p1546
sg36
g1521
sg37
I00
sba(issf_api
Word
p1547
(dp1548
g6
I00
sg7
V\u0915\u0947
p1549
sg9
(issf_api
FeatureSet
p1550
(dp1551
g12
(dp1552
S'posn'
p1553
S'60'
p1554
sS'name'
p1555
S'\xe0\xa4\x95\xe0\xa5\x87'
p1556
sS'drel'
p1557
S'lwg__psp:NP2'
p1558
sS'chunktype'
p1559
S'child:NP2'
p1560
sS'af'
p1561
S'\xe0\xa4\x95\xe0\xa5\x87,psp,,,,,,'
p1562
ssbsg26
I00
sg27
I00
sg28
Nsg29
Nsg30
I1
sg31
I2
sg32
Nsg33
Nsg34
S'PSP'
p1563
sg36
g1550
sg37
I00
sba(issf_api
Word
p1564
(dp1565
g6
I00
sg7
V\u0932\u093f\u090f
p1566
sg9
(issf_api
FeatureSet
p1567
(dp1568
g12
(dp1569
S'posn'
p1570
S'70'
p1571
sS'name'
p1572
S'\xe0\xa4\xb2\xe0\xa4\xbf\xe0\xa4\x8f'
p1573
sS'drel'
p1574
S'lwg__psp:NP2'
p1575
sS'chunktype'
p1576
S'child:NP2'
p1577
sS'af'
p1578
S'\xe0\xa4\xb2\xe0\xa4\xbf\xe0\xa4\x8f,psp,,,,,,'
p1579
ssbsg26
I00
sg27
I00
sg28
Nsg29
Nsg30
I1
sg31
I2
sg32
Nsg33
Nsg34
S'PSP'
p1580
sg36
g1567
sg37
I00
sba(issf_api
Word
p1581
(dp1582
g6
I00
sg7
V\u0906\u092f\u094b\u091c\u093f\u0924
p1583
sg9
(issf_api
FeatureSet
p1584
(dp1585
g12
(dp1586
S'posn'
p1587
S'80'
p1588
sS'name'
p1589
S'\xe0\xa4\x86\xe0\xa4\xaf\xe0\xa5\x8b\xe0\xa4\x9c\xe0\xa4\xbf\xe0\xa4\xa4'
p1590
sS'drel'
p1591
S'nmod__adj:NP3'
p1592
sS'chunktype'
p1593
S'child:NP3'
p1594
sS'af'
p1595
S'\xe0\xa4\x86\xe0\xa4\xaf\xe0\xa5\x8b\xe0\xa4\x9c\xe0\xa4\xbf\xe0\xa4\xa4,adj,any,any,,o,,'
p1596
ssbsg26
I00
sg27
I00
sg28
Nsg29
Nsg30
I2
sg31
I2
sg32
Nsg33
Nsg34
S'JJ'
p1597
sg36
g1584
sg37
I00
sba(issf_api
Word
p1598
(dp1599
g6
I00
sg7
V\u0932\u0902\u091a
p1600
sg9
(issf_api
FeatureSet
p1601
(dp1602
g12
(dp1603
S'posn'
p1604
S'90'
p1605
sS'name'
p1606
S'\xe0\xa4\xb2\xe0\xa4\x82\xe0\xa4\x9a'
p1607
sS'af'
p1608
S'\xe0\xa4\xb2\xe0\xa4\x82\xe0\xa4\x9a,n,m,sg,3,o,0_\xe0\xa4\xae\xe0\xa5\x87\xe0\xa4\x82,0'
p1609
sS'chunkid'
p1610
S'NP3'
p1611
sS'drel'
p1612
S'k7:VGF'
p1613
sS'vpos'
p1614
S'vib_3'
p1615
sS'chunktype'
p1616
S'head:NP3'
p1617
ssbsg26
I00
sg27
I00
sg28
Nsg29
Nsg30
I2
sg31
I2
sg32
Nsg33
Nsg34
S'NN'
p1618
sg36
g1601
sg37
I00
sba(issf_api
Word
p1619
(dp1620
g6
I00
sg7
V\u092e\u0947\u0902
p1621
sg9
(issf_api
FeatureSet
p1622
(dp1623
g12
(dp1624
S'posn'
p1625
S'100'
p1626
sS'name'
p1627
S'\xe0\xa4\xae\xe0\xa5\x87\xe0\xa4\x82'
p1628
sS'drel'
p1629
S'lwg__psp:NP3'
p1630
sS'chunktype'
p1631
S'child:NP3'
p1632
sS'af'
p1633
S'\xe0\xa4\xae\xe0\xa5\x87\xe0\xa4\x82,psp,,,,,,'
p1634
ssbsg26
I00
sg27
I00
sg28
Nsg29
Nsg30
I2
sg31
I2
sg32
Nsg33
Nsg34
S'PSP'
p1635
sg36
g1622
sg37
I00
sba(issf_api
Word
p1636
(dp1637
g6
I00
sg7
V\u0936\u093f\u0930\u0915\u0924
p1638
sg9
(issf_api
FeatureSet
p1639
(dp1640
g12
(dp1641
S'posn'
p1642
S'110'
p1643
sS'name'
p1644
S'\xe0\xa4\xb6\xe0\xa4\xbf\xe0\xa4\xb0\xe0\xa4\x95\xe0\xa4\xa4'
p1645
sS'af'
p1646
S'\xe0\xa4\xb6\xe0\xa4\xbf\xe0\xa4\xb0\xe0\xa4\x95\xe0\xa4\xa4,n,f,sg,3,d,0,0'
p1647
sS'chunkid'
p1648
S'NP4'
p1649
sS'drel'
p1650
S'pof:VGNN'
p1651
sS'chunktype'
p1652
S'head:NP4'
p1653
ssbsg26
I00
sg27
I00
sg28
Nsg29
Nsg30
I3
sg31
I2
sg32
Nsg33
Nsg34
S'NN'
p1654
sg36
g1639
sg37
I00
sba(issf_api
Word
p1655
(dp1656
g6
I00
sg7
V\u0915\u0930\u0928\u0947
p1657
sg9
(issf_api
FeatureSet
p1658
(dp1659
g12
(dp1660
S'posn'
p1661
S'120'
p1662
sS'name'
p1663
S'\xe0\xa4\x95\xe0\xa4\xb0\xe0\xa4\xa8\xe0\xa5\x87'
p1664
sS'af'
p1665
S'\xe0\xa4\x95\xe0\xa4\xb0,v,any,sg,3,o,\xe0\xa4\xa8\xe0\xa4\xbe_\xe0\xa4\x95\xe0\xa5\x87_\xe0\xa4\xac\xe0\xa4\xbe\xe0\xa4\xa6,nA'
p1666
sS'chunkid'
p1667
S'VGNN'
p1668
sS'drel'
p1669
S'k7t:VGF'
p1670
sS'vpos'
p1671
S'tam_2_3'
p1672
sS'chunktype'
p1673
S'head:VGNN'
p1674
ssbsg26
I00
sg27
I00
sg28
Nsg29
Nsg30
I4
sg31
I2
sg32
Nsg33
Nsg34
S'VM'
p1675
sg36
g1658
sg37
I00
sba(issf_api
Word
p1676
(dp1677
g6
I00
sg7
V\u0915\u0947
p1678
sg9
(issf_api
FeatureSet
p1679
(dp1680
g12
(dp1681
S'posn'
p1682
S'130'
p1683
sS'name'
p1684
S'\xe0\xa4\x95\xe0\xa5\x872'
p1685
sS'drel'
p1686
S'lwg__psp:VGNN'
p1687
sS'chunktype'
p1688
S'child:VGNN'
p1689
sS'af'
p1690
S'\xe0\xa4\x95\xe0\xa5\x87,psp,,,,,,'
p1691
ssbsg26
I00
sg27
I00
sg28
Nsg29
Nsg30
I4
sg31
I2
sg32
Nsg33
Nsg34
S'PSP'
p1692
sg36
g1679
sg37
I00
sba(issf_api
Word
p1693
(dp1694
g6
I00
sg7
V\u092c\u093e\u0926
p1695
sg9
(issf_api
FeatureSet
p1696
(dp1697
g12
(dp1698
S'posn'
p1699
S'140'
p1700
sS'name'
p1701
S'\xe0\xa4\xac\xe0\xa4\xbe\xe0\xa4\xa6'
p1702
sS'drel'
p1703
S'lwg__nst:VGNN'
p1704
sS'chunktype'
p1705
S'child:VGNN'
p1706
sS'af'
p1707
S'\xe0\xa4\xac\xe0\xa4\xbe\xe0\xa4\xa6,nst,m,sg,3,d,,'
p1708
ssbsg26
I00
sg27
I00
sg28
Nsg29
Nsg30
I4
sg31
I2
sg32
Nsg33
Nsg34
S'NST'
p1709
sg36
g1696
sg37
I00
sba(issf_api
Word
p1710
(dp1711
g6
I00
sg7
V\u092a\u0924\u094d\u0930\u0915\u093e\u0930\u094b\u0902
p1712
sg9
(issf_api
FeatureSet
p1713
(dp1714
g12
(dp1715
S'posn'
p1716
S'150'
p1717
sS'name'
p1718
S'\xe0\xa4\xaa\xe0\xa4\xa4\xe0\xa5\x8d\xe0\xa4\xb0\xe0\xa4\x95\xe0\xa4\xbe\xe0\xa4\xb0\xe0\xa5\x8b\xe0\xa4\x82'
p1719
sS'af'
p1720
S'\xe0\xa4\xaa\xe0\xa4\xa4\xe0\xa5\x8d\xe0\xa4\xb0\xe0\xa4\x95\xe0\xa4\xbe\xe0\xa4\xb0,n,m,pl,3,o,0_\xe0\xa4\xb8\xe0\xa5\x87,0'
p1721
sS'chunkid'
p1722
S'NP5'
p1723
sS'drel'
p1724
S'k2:VGF'
p1725
sS'vpos'
p1726
S'vib_2'
p1727
sS'chunktype'
p1728
S'head:NP5'
p1729
ssbsg26
I00
sg27
I00
sg28
Nsg29
Nsg30
I5
sg31
I2
sg32
Nsg33
Nsg34
S'NN'
p1730
sg36
g1713
sg37
I00
sba(issf_api
Word
p1731
(dp1732
g6
I00
sg7
V\u0938\u0947
p1733
sg9
(issf_api
FeatureSet
p1734
(dp1735
g12
(dp1736
S'posn'
p1737
S'160'
p1738
sS'name'
p1739
S'\xe0\xa4\xb8\xe0\xa5\x87'
p1740
sS'drel'
p1741
S'lwg__psp:NP5'
p1742
sS'chunktype'
p1743
S'child:NP5'
p1744
sS'af'
p1745
S'\xe0\xa4\xb8\xe0\xa5\x87,psp,,,,,,'
p1746
ssbsg26
I00
sg27
I00
sg28
Nsg29
Nsg30
I5
sg31
I2
sg32
Nsg33
Nsg34
S'PSP'
p1747
sg36
g1734
sg37
I00
sba(issf_api
Word
p1748
(dp1749
g6
I00
sg7
V\u092c\u093e\u0924\u091a\u0940\u0924
p1750
sg9
(issf_api
FeatureSet
p1751
(dp1752
g12
(dp1753
S'posn'
p1754
S'170'
p1755
sS'name'
p1756
S'\xe0\xa4\xac\xe0\xa4\xbe\xe0\xa4\xa4\xe0\xa4\x9a\xe0\xa5\x80\xe0\xa4\xa4'
p1757
sS'af'
p1758
S'\xe0\xa4\xac\xe0\xa4\xbe\xe0\xa4\xa4\xe0\xa4\x9a\xe0\xa5\x80\xe0\xa4\xa4,n,f,sg,3,d,0,0'
p1759
sS'chunkid'
p1760
S'NP6'
p1761
sS'drel'
p1762
S'pof:VGF'
p1763
sS'chunktype'
p1764
S'head:NP6'
p1765
ssbsg26
I00
sg27
I00
sg28
Nsg29
Nsg30
I6
sg31
I2
sg32
Nsg33
Nsg34
S'NN'
p1766
sg36
g1751
sg37
I00
sba(issf_api
Word
p1767
(dp1768
g6
I00
sg7
V\u0915\u0930
p1769
sg9
(issf_api
FeatureSet
p1770
(dp1771
g12
(dp1772
S'posn'
p1773
S'180'
p1774
sS'name'
p1775
S'\xe0\xa4\x95\xe0\xa4\xb0'
p1776
sS'af'
p1777
S'\xe0\xa4\x95\xe0\xa4\xb0,v,m,sg,3h,,0_\xe0\xa4\xb0\xe0\xa4\xb9+\xe0\xa4\xaf\xe0\xa4\xbe_\xe0\xa4\xa5\xe0\xa4\xbe,0'
p1778
sS'chunkid'
p1779
S'VGF'
p1780
sS'chunktype'
p1781
S'head:VGF'
p1782
sS'voicetype'
p1783
S'active'
p1784
sS'vpos'
p1785
S'tam_2_3'
p1786
sS'stype'
p1787
S'declarative'
p1788
ssbsg26
I00
sg27
I00
sg28
Nsg29
Nsg30
I7
sg31
I2
sg32
Nsg33
Nsg34
S'VM'
p1789
sg36
g1770
sg37
I00
sba(issf_api
Word
p1790
(dp1791
g6
I00
sg7
V\u0930\u0939\u0947
p1792
sg9
(issf_api
FeatureSet
p1793
(dp1794
g12
(dp1795
S'posn'
p1796
S'190'
p1797
sS'name'
p1798
S'\xe0\xa4\xb0\xe0\xa4\xb9\xe0\xa5\x87'
p1799
sS'drel'
p1800
S'lwg__vaux:VGF'
p1801
sS'chunktype'
p1802
S'child:VGF'
p1803
sS'af'
p1804
S'\xe0\xa4\xb0\xe0\xa4\xb9,v,m,sg,3h,,\xe0\xa4\xaf\xe0\xa4\xbe,yA'
p1805
ssbsg26
I00
sg27
I00
sg28
Nsg29
Nsg30
I7
sg31
I2
sg32
Nsg33
Nsg34
S'VAUX'
p1806
sg36
g1793
sg37
I00
sba(issf_api
Word
p1807
(dp1808
g6
I00
sg7
V\u0925\u0947
p1809
sg9
(issf_api
FeatureSet
p1810
(dp1811
g12
(dp1812
S'posn'
p1813
S'200'
p1814
sS'name'
p1815
S'\xe0\xa4\xa5\xe0\xa5\x87'
p1816
sS'drel'
p1817
S'lwg__vaux:VGF'
p1818
sS'chunktype'
p1819
S'child:VGF'
p1820
sS'af'
p1821
S'\xe0\xa4\xa5\xe0\xa4\xbe,v,m,sg,3h,,\xe0\xa4\xa5\xe0\xa4\xbe,WA'
p1822
ssbsg26
I00
sg27
I00
sg28
Nsg29
Nsg30
I7
sg31
I2
sg32
Nsg33
Nsg34
S'VAUX'
p1823
sg36
g1810
sg37
I00
sba(issf_api
Word
p1824
(dp1825
g6
I00
sg7
V\u0964
p1826
sg9
(issf_api
FeatureSet
p1827
(dp1828
g12
(dp1829
S'posn'
p1830
S'210'
p1831
sS'name'
p1832
S'\xe0\xa5\xa4'
p1833
sS'af'
p1834
S'\xe0\xa5\xa4,punc,,,,,,'
p1835
sS'chunkid'
p1836
S'BLK'
p1837
sS'drel'
p1838
S'rsym:VGF'
p1839
sS'chunktype'
p1840
S'head:BLK'
p1841
ssbsg26
I00
sg27
I00
sg28
Nsg29
Nsg30
I8
sg31
I2
sg32
Nsg33
Nsg34
S'SYM'
p1842
sg36
g1827
sg37
I00
sba(issf_api
Word
p1843
(dp1844
g6
I00
sg7
V\u0917\u0943\u0939
p1845
sg9
(issf_api
FeatureSet
p1846
(dp1847
g12
(dp1848
S'posn'
p1849
S'10'
p1850
sS'name'
p1851
S'\xe0\xa4\x97\xe0\xa5\x83\xe0\xa4\xb9'
p1852
sS'af'
p1853
S'\xe0\xa4\x97\xe0\xa5\x83\xe0\xa4\xb9,n,m,sg,3,d,0,0'
p1854
sS'drel'
p1855
S'pof__cn:NP'
p1856
sS'chunktype'
p1857
S'child:NP'
p1858
sS'cref'
p1859
S'i23%0:t9'
p1860
ssbsg26
I00
sg27
I00
sg28
Nsg29
Nsg30
I0
sg31
I3
sg32
Nsg33
Nsg34
S'NNPC'
p1861
sg36
g1846
sg37
I00
sba(issf_api
Word
p1862
(dp1863
g6
I00
sg7
V\u092e\u0902\u0924\u094d\u0930\u0940
p1864
sg9
(issf_api
FeatureSet
p1865
(dp1866
g12
(dp1867
S'crefhead'
p1868
S'\xe0\xa4\xae\xe0\xa4\x82\xe0\xa4\xa4\xe0\xa5\x8d\xe0\xa4\xb0\xe0\xa5\x80:i23'
p1869
sS'posn'
p1870
S'20'
p1871
sS'name'
p1872
S'\xe0\xa4\xae\xe0\xa4\x82\xe0\xa4\xa4\xe0\xa5\x8d\xe0\xa4\xb0\xe0\xa5\x80'
p1873
sS'af'
p1874
S'\xe0\xa4\xae\xe0\xa4\x82\xe0\xa4\xa4\xe0\xa5\x8d\xe0\xa4\xb0\xe0\xa5\x80,n,m,sg,3,d,0,0'
p1875
sS'drel'
p1876
S'nmod__adj:NP'
p1877
sS'chunktype'
p1878
S'child:NP'
p1879
sS'cref'
p1880
S'i23%1:t9'
p1881
ssbsg26
I00
sg27
I00
sg28
Nsg29
Nsg30
I0
sg31
I3
sg32
Nsg33
Nsg34
S'NNP'
p1882
sg36
g1865
sg37
I00
sba(issf_api
Word
p1883
(dp1884
g6
I00
sg7
V\u0936\u093f\u0935\u0930\u093e\u091c
p1885
sg9
(issf_api
FeatureSet
p1886
(dp1887
g12
(dp1888
S'posn'
p1889
S'30'
p1890
sS'name'
p1891
S'\xe0\xa4\xb6\xe0\xa4\xbf\xe0\xa4\xb5\xe0\xa4\xb0\xe0\xa4\xbe\xe0\xa4\x9c'
p1892
sS'af'
p1893
S'\xe0\xa4\xb6\xe0\xa4\xbf\xe0\xa4\xb5\xe0\xa4\xb0\xe0\xa4\xbe\xe0\xa4\x9c,n,m,sg,3,d,0,0'
p1894
sS'drel'
p1895
S'pof__cn:NP'
p1896
sS'chunktype'
p1897
S'child:NP'
p1898
sS'cref'
p1899
S'i24%0:t9'
p1900
ssbsg26
I00
sg27
I00
sg28
Nsg29
Nsg30
I0
sg31
I3
sg32
Nsg33
Nsg34
S'NNPC'
p1901
sg36
g1886
sg37
I00
sba(issf_api
Word
p1902
(dp1903
g6
I00
sg7
V\u092a\u093e\u091f\u093f\u0932
p1904
sg9
(issf_api
FeatureSet
p1905
(dp1906
g12
(dp1907
S'crefhead'
p1908
S'\xe0\xa4\xaa\xe0\xa4\xbe\xe0\xa4\x9f\xe0\xa4\xbf\xe0\xa4\xb2:i24'
p1909
sS'posn'
p1910
S'40'
p1911
sS'name'
p1912
S'\xe0\xa4\xaa\xe0\xa4\xbe\xe0\xa4\x9f\xe0\xa4\xbf\xe0\xa4\xb2'
p1913
sS'af'
p1914
S'\xe0\xa4\xaa\xe0\xa4\xbe\xe0\xa4\x9f\xe0\xa4\xbf\xe0\xa4\xb2,n,any,sg,3,o,0_\xe0\xa4\xa6\xe0\xa5\x8d\xe0\xa4\xb5\xe0\xa4\xbe\xe0\xa4\xb0\xe0\xa4\xbe,0'
p1915
sS'chunkid'
p1916
S'NP'
p1917
sS'creftype'
p1918
S'Coreference-NounComplement:i23'
p1919
sS'chunktype'
p1920
S'head:NP'
p1921
sS'crefchainhead'
p1922
S'i24:t9'
p1923
sS'vpos'
p1924
S'vib_vib_5'
p1925
sS'cref'
p1926
S'i24%1:t9'
p1927
sS'drel'
p1928
S'k1:VGNF'
p1929
ssbsg26
I00
sg27
I00
sg28
Nsg29
Nsg30
I0
sg31
I3
sg32
Nsg33
Nsg34
S'NNP'
p1930
sg36
g1905
sg37
I00
sba(issf_api
Word
p1931
(dp1932
g6
I00
sg7
V\u0926\u094d\u0935\u093e\u0930\u093e
p1933
sg9
(issf_api
FeatureSet
p1934
(dp1935
g12
(dp1936
S'posn'
p1937
S'50'
p1938
sS'name'
p1939
S'\xe0\xa4\xa6\xe0\xa5\x8d\xe0\xa4\xb5\xe0\xa4\xbe\xe0\xa4\xb0\xe0\xa4\xbe'
p1940
sS'drel'
p1941
S'lwg__psp:NP'
p1942
sS'chunktype'
p1943
S'child:NP'
p1944
sS'af'
p1945
S'\xe0\xa4\xa6\xe0\xa5\x8d\xe0\xa4\xb5\xe0\xa4\xbe\xe0\xa4\xb0\xe0\xa4\xbe,psp,,,,,,'
p1946
ssbsg26
I00
sg27
I00
sg28
Nsg29
Nsg30
I0
sg31
I3
sg32
Nsg33
Nsg34
S'PSP'
p1947
sg36
g1934
sg37
I00
sba(issf_api
Word
p1948
(dp1949
g6
I00
sg7
V\u0939\u093e\u0932
p1950
sg9
(issf_api
FeatureSet
p1951
(dp1952
g12
(dp1953
S'posn'
p1954
S'60'
p1955
sS'name'
p1956
S'\xe0\xa4\xb9\xe0\xa4\xbe\xe0\xa4\xb2'
p1957
sS'af'
p1958
S'\xe0\xa4\xb9\xe0\xa4\xbe\xe0\xa4\xb2,n,m,sg,3,o,0_\xe0\xa4\xae\xe0\xa5\x87\xe0\xa4\x82,0'
p1959
sS'chunkid'
p1960
S'NP2'
p1961
sS'drel'
p1962
S'k7t:VGNF'
p1963
sS'vpos'
p1964
S'vib_2_RP'
p1965
sS'chunktype'
p1966
S'head:NP2'
p1967
ssbsg26
I00
sg27
I00
sg28
Nsg29
Nsg30
I1
sg31
I3
sg32
Nsg33
Nsg34
S'NN'
p1968
sg36
g1951
sg37
I00
sba(issf_api
Word
p1969
(dp1970
g6
I00
sg7
V\u092e\u0947\u0902
p1971
sg9
(issf_api
FeatureSet
p1972
(dp1973
g12
(dp1974
S'posn'
p1975
S'70'
p1976
sS'name'
p1977
S'\xe0\xa4\xae\xe0\xa5\x87\xe0\xa4\x82'
p1978
sS'drel'
p1979
S'lwg__psp:NP2'
p1980
sS'chunktype'
p1981
S'child:NP2'
p1982
sS'af'
p1983
S'\xe0\xa4\xae\xe0\xa5\x87\xe0\xa4\x82,psp,,,,,,'
p1984
ssbsg26
I00
sg27
I00
sg28
Nsg29
Nsg30
I1
sg31
I3
sg32
Nsg33
Nsg34
S'PSP'
p1985
sg36
g1972
sg37
I00
sba(issf_api
Word
p1986
(dp1987
g6
I00
sg7
V\u0939\u0940
p1988
sg9
(issf_api
FeatureSet
p1989
(dp1990
g12
(dp1991
S'posn'
p1992
S'80'
p1993
sS'name'
p1994
S'\xe0\xa4\xb9\xe0\xa5\x80'
p1995
sS'drel'
p1996
S'lwg__rp:NP2'
p1997
sS'chunktype'
p1998
S'child:NP2'
p1999
sS'af'
p2000
S'\xe0\xa4\xb9\xe0\xa5\x80,avy,,,,,,'
p2001
ssbsg26
I00
sg27
I00
sg28
Nsg29
Nsg30
I1
sg31
I3
sg32
Nsg33
Nsg34
S'RP'
p2002
sg36
g1989
sg37
I00
sba(issf_api
Word
p2003
(dp2004
g6
I00
sg7
V\u092a\u094d\u0930\u0927\u093e\u0928\u092e\u0902\u0924\u094d\u0930\u0940
p2005
sg9
(issf_api
FeatureSet
p2006
(dp2007
g12
(dp2008
S'crefhead'
p2009
S'\xe0\xa4\xaa\xe0\xa5\x8d\xe0\xa4\xb0\xe0\xa4\xa7\xe0\xa4\xbe\xe0\xa4\xa8\xe0\xa4\xae\xe0\xa4\x82\xe0\xa4\xa4\xe0\xa5\x8d\xe0\xa4\xb0\xe0\xa5\x80:i25'
p2010
sS'posn'
p2011
S'90'
p2012
sS'name'
p2013
S'\xe0\xa4\xaa\xe0\xa5\x8d\xe0\xa4\xb0\xe0\xa4\xa7\xe0\xa4\xbe\xe0\xa4\xa8\xe0\xa4\xae\xe0\xa4\x82\xe0\xa4\xa4\xe0\xa5\x8d\xe0\xa4\xb0\xe0\xa5\x80'
p2014
sS'af'
p2015
S'\xe0\xa4\xaa\xe0\xa5\x8d\xe0\xa4\xb0\xe0\xa4\xa7\xe0\xa4\xbe\xe0\xa4\xa8\xe0\xa4\xae\xe0\xa4\x82\xe0\xa4\xa4\xe0\xa5\x8d\xe0\xa4\xb0\xe0\xa5\x80,n,m,sg,3,o,0_\xe0\xa4\x95\xe0\xa5\x8b,0'
p2016
sS'chunkid'
p2017
S'NP3'
p2018
sS'creftype'
p2019
S'Coreference-Noun-Noun:i16'
p2020
sS'chunktype'
p2021
S'head:NP3'
p2022
sS'vpos'
p2023
S'vib_2'
p2024
sS'cref'
p2025
S'i25%1:t5'
p2026
sS'drel'
p2027
S'k4:VGNF'
p2028
ssbsg26
I00
sg27
I00
sg28
Nsg29
Nsg30
I2
sg31
I3
sg32
Nsg33
Nsg34
S'NNP'
p2029
sg36
g2006
sg37
I00
sba(issf_api
Word
p2030
(dp2031
g6
I00
sg7
V\u0915\u094b
p2032
sg9
(issf_api
FeatureSet
p2033
(dp2034
g12
(dp2035
S'posn'
p2036
S'100'
p2037
sS'name'
p2038
S'\xe0\xa4\x95\xe0\xa5\x8b'
p2039
sS'drel'
p2040
S'lwg__psp:NP3'
p2041
sS'chunktype'
p2042
S'child:NP3'
p2043
sS'af'
p2044
S'\xe0\xa4\x95\xe0\xa5\x8b,psp,,,,,,'
p2045
ssbsg26
I00
sg27
I00
sg28
Nsg29
Nsg30
I2
sg31
I3
sg32
Nsg33
Nsg34
S'PSP'
p2046
sg36
g2033
sg37
I00
sba(issf_api
Word
p2047
(dp2048
g6
I00
sg7
V\u0938\u094c\u0902\u092a\u0940
p2049
sg9
(issf_api
FeatureSet
p2050
(dp2051
g12
(dp2052
S'posn'
p2053
S'110'
p2054
sS'name'
p2055
S'\xe0\xa4\xb8\xe0\xa5\x8c\xe0\xa4\x82\xe0\xa4\xaa\xe0\xa5\x80'
p2056
sS'af'
p2057
S'\xe0\xa4\xb8\xe0\xa5\x8c\xe0\xa4\x82\xe0\xa4\xaa,v,f,sg,any,,\xe0\xa4\xaf\xe0\xa4\xbe,yA'
p2058
sS'chunkid'
p2059
S'VGNF'
p2060
sS'drel'
p2061
S'nmod__k2inv:NP4'
p2062
sS'chunktype'
p2063
S'head:VGNF'
p2064
ssbsg26
I00
sg27
I00
sg28
Nsg29
Nsg30
I3
sg31
I3
sg32
Nsg33
Nsg34
S'VM'
p2065
sg36
g2050
sg37
I00
sba(issf_api
Word
p2066
(dp2067
g6
I00
sg7
V\u0930\u093f\u092a\u094b\u0930\u094d\u091f
p2068
sg9
(issf_api
FeatureSet
p2069
(dp2070
g12
(dp2071
S'crefhead'
p2072
S'\xe0\xa4\xb0\xe0\xa4\xbf\xe0\xa4\xaa\xe0\xa5\x8b\xe0\xa4\xb0\xe0\xa5\x8d\xe0\xa4\x9f:i26'
p2073
sS'posn'
p2074
S'120'
p2075
sS'name'
p2076
S'\xe0\xa4\xb0\xe0\xa4\xbf\xe0\xa4\xaa\xe0\xa5\x8b\xe0\xa4\xb0\xe0\xa5\x8d\xe0\xa4\x9f'
p2077
sS'af'
p2078
S'\xe0\xa4\xb0\xe0\xa4\xbf\xe0\xa4\xaa\xe0\xa5\x8b\xe0\xa4\xb0\xe0\xa5\x8d\xe0\xa4\x9f,n,f,sg,3,o,0_\xe0\xa4\xaa\xe0\xa4\xb0,0'
p2079
sS'chunkid'
p2080
S'NP4'
p2081
sS'chunktype'
p2082
S'head:NP4'
p2083
sS'crefchainhead'
p2084
S'i26:t10'
p2085
sS'vpos'
p2086
S'vib_2'
p2087
sS'cref'
p2088
S'i26%1:t10'
p2089
sS'drel'
p2090
S'k7:VGF'
p2091
ssbsg26
I00
sg27
I00
sg28
Nsg29
Nsg30
I4
sg31
I3
sg32
Nsg33
Nsg34
S'NN'
p2092
sg36
g2069
sg37
I00
sba(issf_api
Word
p2093
(dp2094
g6
I00
sg7
V\u092a\u0930
p2095
sg9
(issf_api
FeatureSet
p2096
(dp2097
g12
(dp2098
S'posn'
p2099
S'130'
p2100
sS'name'
p2101
S'\xe0\xa4\xaa\xe0\xa4\xb0'
p2102
sS'drel'
p2103
S'lwg__psp:NP4'
p2104
sS'chunktype'
p2105
S'child:NP4'
p2106
sS'af'
p2107
S'\xe0\xa4\xaa\xe0\xa4\xb0,psp,,,,,,'
p2108
ssbsg26
I00
sg27
I00
sg28
Nsg29
Nsg30
I4
sg31
I3
sg32
Nsg33
Nsg34
S'PSP'
p2109
sg36
g2096
sg37
I00
sba(issf_api
Word
p2110
(dp2111
g6
I00
sg7
V\u0909\u0928\u094d\u0939\u094b\u0902\u0928\u0947
p2112
sg9
(issf_api
FeatureSet
p2113
(dp2114
g12
(dp2115
S'crefhead'
p2116
S'\xe0\xa4\x89\xe0\xa4\xa8\xe0\xa5\x8d\xe0\xa4\xb9\xe0\xa5\x8b\xe0\xa4\x82\xe0\xa4\xa8\xe0\xa5\x87:i27'
p2117
sS'posn'
p2118
S'140'
p2119
sS'name'
p2120
S'\xe0\xa4\x89\xe0\xa4\xa8\xe0\xa5\x8d\xe0\xa4\xb9\xe0\xa5\x8b\xe0\xa4\x82\xe0\xa4\xa8\xe0\xa5\x87'
p2121
sS'af'
p2122
S'\xe0\xa4\xb5\xe0\xa4\xb9,pn,any,sg,3h,o,\xe0\xa4\xa8\xe0\xa5\x87,ne'
p2123
sS'chunkid'
p2124
S'NP5'
p2125
sS'creftype'
p2126
S'Anaphora-C:i20'
p2127
sS'chunktype'
p2128
S'head:NP5'
p2129
sS'cref'
p2130
S'i27%1:t1'
p2131
sS'drel'
p2132
S'k1:VGF'
p2133
ssbsg26
I00
sg27
I00
sg28
Nsg29
Nsg30
I5
sg31
I3
sg32
Nsg33
Nsg34
S'PRP'
p2134
sg36
g2113
sg37
I00
sba(issf_api
Word
p2135
(dp2136
g6
I00
sg7
V\u0915\u0939\u093e
p2137
sg9
(issf_api
FeatureSet
p2138
(dp2139
g12
(dp2140
S'posn'
p2141
S'150'
p2142
sS'name'
p2143
S'\xe0\xa4\x95\xe0\xa4\xb9\xe0\xa4\xbe'
p2144
sS'af'
p2145
S'\xe0\xa4\x95\xe0\xa4\xb9,v,m,sg,any,,\xe0\xa4\xaf\xe0\xa4\xbe,yA'
p2146
sS'chunkid'
p2147
S'VGF'
p2148
sS'chunktype'
p2149
S'head:VGF'
p2150
sS'voicetype'
p2151
S'active'
p2152
sS'stype'
p2153
S'declarative'
p2154
ssbsg26
I00
sg27
I00
sg28
Nsg29
Nsg30
I6
sg31
I3
sg32
Nsg33
Nsg34
S'VM'
p2155
sg36
g2138
sg37
I00
sba(issf_api
Word
p2156
(dp2157
g6
I00
sg7
V\u0915\u093f
p2158
sg9
(issf_api
FeatureSet
p2159
(dp2160
g12
(dp2161
S'posn'
p2162
S'160'
p2163
sS'name'
p2164
S'\xe0\xa4\x95\xe0\xa4\xbf'
p2165
sS'af'
p2166
S'\xe0\xa4\x95\xe0\xa4\xbf,avy,,,,,,'
p2167
sS'chunkid'
p2168
S'CCP'
p2169
sS'drel'
p2170
S'k2:VGF'
p2171
sS'chunktype'
p2172
S'head:CCP'
p2173
ssbsg26
I00
sg27
I00
sg28
Nsg29
Nsg30
I7
sg31
I3
sg32
Nsg33
Nsg34
S'CC'
p2174
sg36
g2159
sg37
I00
sba(issf_api
Word
p2175
(dp2176
g6
I00
sg7
V\u0935\u0939
p2177
sg9
(issf_api
FeatureSet
p2178
(dp2179
g12
(dp2180
S'crefhead'
p2181
S'\xe0\xa4\xb5\xe0\xa4\xb9:i28'
p2182
sS'posn'
p2183
S'170'
p2184
sS'name'
p2185
S'\xe0\xa4\xb5\xe0\xa4\xb9'
p2186
sS'af'
p2187
S'\xe0\xa4\xb5\xe0\xa4\xb9,pn,any,sg,3,d,0,0'
p2188
sS'chunkid'
p2189
S'NP6'
p2190
sS'creftype'
p2191
S'Anaphora-C:i27'
p2192
sS'chunktype'
p2193
S'head:NP6'
p2194
sS'cref'
p2195
S'i28%1:t1,i29%0:t11'
p2196
sS'drel'
p2197
S'k1:VGF2'
p2198
ssbsg26
I00
sg27
I00
sg28
Nsg29
Nsg30
I8
sg31
I3
sg32
Nsg33
Nsg34
S'PRP'
p2199
sg36
g2178
sg37
I00
sba(issf_api
Word
p2200
(dp2201
g6
I00
sg7
V\u0907\u0938\u0915\u0947
p2202
sg9
(issf_api
FeatureSet
p2203
(dp2204
g12
(dp2205
S'crefhead'
p2206
S'\xe0\xa4\x87\xe0\xa4\xb8\xe0\xa4\x95\xe0\xa5\x87:i30'
p2207
sS'posn'
p2208
S'180'
p2209
sS'name'
p2210
S'\xe0\xa4\x87\xe0\xa4\xb8\xe0\xa4\x95\xe0\xa5\x87'
p2211
sS'af'
p2212
S'\xe0\xa4\xaf\xe0\xa4\xb9,pn,any,sg,3,o,0_\xe0\xa4\xb2\xe0\xa4\xbf\xe0\xa4\x8f,ke'
p2213
sS'chunkid'
p2214
S'NP7'
p2215
sS'creftype'
p2216
S'Anaphora-C:i26'
p2217
sS'chunktype'
p2218
S'head:NP7'
p2219
sS'vpos'
p2220
S'vib_2'
p2221
sS'cref'
p2222
S'i30%1:t10,i29%0:t11'
p2223
sS'drel'
p2224
S'rt:VGF2'
p2225
ssbsg26
I00
sg27
I00
sg28
Nsg29
Nsg30
I9
sg31
I3
sg32
Nsg33
Nsg34
S'PRP'
p2226
sg36
g2203
sg37
I00
sba(issf_api
Word
p2227
(dp2228
g6
I00
sg7
V\u0932\u093f\u090f
p2229
sg9
(issf_api
FeatureSet
p2230
(dp2231
g12
(dp2232
S'posn'
p2233
S'190'
p2234
sS'name'
p2235
S'\xe0\xa4\xb2\xe0\xa4\xbf\xe0\xa4\x8f'
p2236
sS'af'
p2237
S'\xe0\xa4\xb2\xe0\xa4\xbf\xe0\xa4\x8f,psp,,,,,,'
p2238
sS'drel'
p2239
S'lwg__psp:NP7'
p2240
sS'chunktype'
p2241
S'child:NP7'
p2242
sS'cref'
p2243
S'i29%0:t11'
p2244
ssbsg26
I00
sg27
I00
sg28
Nsg29
Nsg30
I9
sg31
I3
sg32
Nsg33
Nsg34
S'PSP'
p2245
sg36
g2230
sg37
I00
sba(issf_api
Word
p2246
(dp2247
g6
I00
sg7
V\u092c\u094d\u0932\u0942
p2248
sg9
(issf_api
FeatureSet
p2249
(dp2250
g12
(dp2251
S'posn'
p2252
S'200'
p2253
sS'name'
p2254
S'\xe0\xa4\xac\xe0\xa5\x8d\xe0\xa4\xb2\xe0\xa5\x82'
p2255
sS'af'
p2256
S'\xe0\xa4\xac\xe0\xa5\x8d\xe0\xa4\xb2\xe0\xa5\x82,n,m,sg,3,d,0,0'
p2257
sS'drel'
p2258
S'pof__cn:NP8'
p2259
sS'chunktype'
p2260
S'child:NP8'
p2261
sS'cref'
p2262
S'i29%0:t11'
p2263
ssbsg26
I00
sg27
I00
sg28
Nsg29
Nsg30
I10
sg31
I3
sg32
Nsg33
Nsg34
S'NNC'
p2264
sg36
g2249
sg37
I00
sba(issf_api
Word
p2265
(dp2266
g6
I00
sg7
V\u092a\u094d\u0930\u093f\u0902\u091f
p2267
sg9
(issf_api
FeatureSet
p2268
(dp2269
g12
(dp2270
S'posn'
p2271
S'210'
p2272
sS'name'
p2273
S'\xe0\xa4\xaa\xe0\xa5\x8d\xe0\xa4\xb0\xe0\xa4\xbf\xe0\xa4\x82\xe0\xa4\x9f'
p2274
sS'af'
p2275
S'\xe0\xa4\xaa\xe0\xa5\x8d\xe0\xa4\xb0\xe0\xa4\xbf\xe0\xa4\x82\xe0\xa4\x9f,n,m,sg,3,d,0,0'
p2276
sS'chunkid'
p2277
S'NP8'
p2278
sS'drel'
p2279
S'k2:VGF2'
p2280
sS'chunktype'
p2281
S'head:NP8'
p2282
sS'cref'
p2283
S'i29%0:t11'
p2284
ssbsg26
I00
sg27
I00
sg28
Nsg29
Nsg30
I10
sg31
I3
sg32
Nsg33
Nsg34
S'NN'
p2285
sg36
g2268
sg37
I00
sba(issf_api
Word
p2286
(dp2287
g6
I00
sg7
V\u0924\u0948\u092f\u093e\u0930
p2288
sg9
(issf_api
FeatureSet
p2289
(dp2290
g12
(dp2291
S'posn'
p2292
S'220'
p2293
sS'name'
p2294
S'\xe0\xa4\xa4\xe0\xa5\x88\xe0\xa4\xaf\xe0\xa4\xbe\xe0\xa4\xb0'
p2295
sS'af'
p2296
S'\xe0\xa4\xa4\xe0\xa5\x88\xe0\xa4\xaf\xe0\xa4\xbe\xe0\xa4\xb0,adj,any,any,,,,'
p2297
sS'chunkid'
p2298
S'JJP'
p2299
sS'drel'
p2300
S'pof:VGF2'
p2301
sS'chunktype'
p2302
S'head:JJP'
p2303
sS'cref'
p2304
S'i29%0:t11'
p2305
ssbsg26
I00
sg27
I00
sg28
Nsg29
Nsg30
I11
sg31
I3
sg32
Nsg33
Nsg34
S'JJ'
p2306
sg36
g2289
sg37
I00
sba(issf_api
Word
p2307
(dp2308
g6
I00
sg7
V\u0915\u0930
p2309
sg9
(issf_api
FeatureSet
p2310
(dp2311
g12
(dp2312
S'crefhead'
p2313
S'\xe0\xa4\x95\xe0\xa4\xb0:i29'
p2314
sS'posn'
p2315
S'230'
p2316
sS'name'
p2317
S'\xe0\xa4\x95\xe0\xa4\xb0'
p2318
sS'af'
p2319
S'\xe0\xa4\x95\xe0\xa4\xb0,v,m,sg,3h,,0_\xe0\xa4\x9a\xe0\xa5\x81\xe0\xa4\x95+\xe0\xa4\xaf\xe0\xa4\xbe_\xe0\xa4\xb9\xe0\xa5\x88,0'
p2320
sS'chunkid'
p2321
S'VGF2'
p2322
sS'stype'
p2323
S'declarative'
p2324
sS'chunktype'
p2325
S'head:VGF2'
p2326
sS'crefchainhead'
p2327
S'i29:t11'
p2328
sS'voicetype'
p2329
S'active'
p2330
sS'vpos'
p2331
S'tam_2_3'
p2332
sS'cref'
p2333
S'i29%0:t11'
p2334
sS'drel'
p2335
S'ccof:CCP'
p2336
ssbsg26
I00
sg27
I00
sg28
Nsg29
Nsg30
I12
sg31
I3
sg32
Nsg33
Nsg34
S'VM'
p2337
sg36
g2310
sg37
I00
sba(issf_api
Word
p2338
(dp2339
g6
I00
sg7
V\u091a\u0941\u0915\u0947
p2340
sg9
(issf_api
FeatureSet
p2341
(dp2342
g12
(dp2343
S'posn'
p2344
S'240'
p2345
sS'name'
p2346
S'\xe0\xa4\x9a\xe0\xa5\x81\xe0\xa4\x95\xe0\xa5\x87'
p2347
sS'af'
p2348
S'\xe0\xa4\x9a\xe0\xa5\x81\xe0\xa4\x95,v,m,sg,any,,\xe0\xa4\xaf\xe0\xa4\xbe,yA'
p2349
sS'drel'
p2350
S'lwg__vaux:VGF2'
p2351
sS'chunktype'
p2352
S'child:VGF2'
p2353
sS'cref'
p2354
S'i29%0:t11'
p2355
ssbsg26
I00
sg27
I00
sg28
Nsg29
Nsg30
I12
sg31
I3
sg32
Nsg33
Nsg34
S'VAUX'
p2356
sg36
g2341
sg37
I00
sba(issf_api
Word
p2357
(dp2358
g6
I00
sg7
V\u0939\u0948\u0902
p2359
sg9
(issf_api
FeatureSet
p2360
(dp2361
g12
(dp2362
S'posn'
p2363
S'250'
p2364
sS'name'
p2365
S'\xe0\xa4\xb9\xe0\xa5\x88\xe0\xa4\x82'
p2366
sS'af'
p2367
S'\xe0\xa4\xb9\xe0\xa5\x88,v,any,sg,3h,,\xe0\xa4\xb9\xe0\xa5\x88,hE'
p2368
sS'drel'
p2369
S'lwg__vaux:VGF2'
p2370
sS'chunktype'
p2371
S'child:VGF2'
p2372
sS'cref'
p2373
S'i29%1:t11'
p2374
ssbsg26
I00
sg27
I00
sg28
Nsg29
Nsg30
I12
sg31
I3
sg32
Nsg33
Nsg34
S'VAUX'
p2375
sg36
g2360
sg37
I00
sba(issf_api
Word
p2376
(dp2377
g6
I00
sg7
V\u0964
p2378
sg9
(issf_api
FeatureSet
p2379
(dp2380
g12
(dp2381
S'posn'
p2382
S'260'
p2383
sS'name'
p2384
S'\xe0\xa5\xa4'
p2385
sS'af'
p2386
S'\xe0\xa5\xa4,punc,,,,,,'
p2387
sS'chunkid'
p2388
S'BLK'
p2389
sS'drel'
p2390
S'rsym:VGF'
p2391
sS'chunktype'
p2392
S'head:BLK'
p2393
ssbsg26
I00
sg27
I00
sg28
Nsg29
Nsg30
I13
sg31
I3
sg32
Nsg33
Nsg34
S'SYM'
p2394
sg36
g2379
sg37
I00
sba(issf_api
Word
p2395
(dp2396
g6
I00
sg7
V\u0917\u094c\u0930\u0924\u0932\u092c
p2397
sg9
(issf_api
FeatureSet
p2398
(dp2399
g12
(dp2400
S'posn'
p2401
S'10'
p2402
sS'name'
p2403
S'\xe0\xa4\x97\xe0\xa5\x8c\xe0\xa4\xb0\xe0\xa4\xa4\xe0\xa4\xb2\xe0\xa4\xac'
p2404
sS'af'
p2405
S'\xe0\xa4\x97\xe0\xa5\x8c\xe0\xa4\xb0\xe0\xa4\xa4\xe0\xa4\xb2\xe0\xa4\xac,adj,any,any,,,,'
p2406
sS'chunkid'
p2407
S'JJP'
p2408
sS'drel'
p2409
S'k1s:VGF'
p2410
sS'chunktype'
p2411
S'head:JJP'
p2412
ssbsg26
I00
sg27
I00
sg28
Nsg29
Nsg30
I0
sg31
I4
sg32
Nsg33
Nsg34
S'JJ'
p2413
sg36
g2398
sg37
I00
sba(issf_api
Word
p2414
(dp2415
g6
I00
sg7
V\u0939\u0948
p2416
sg9
(issf_api
FeatureSet
p2417
(dp2418
g12
(dp2419
S'posn'
p2420
S'20'
p2421
sS'name'
p2422
S'\xe0\xa4\xb9\xe0\xa5\x88'
p2423
sS'af'
p2424
S'\xe0\xa4\xb9\xe0\xa5\x88,v,any,sg,3,,\xe0\xa4\xb9\xe0\xa5\x88,hE'
p2425
sS'chunkid'
p2426
S'VGF'
p2427
sS'chunktype'
p2428
S'head:VGF'
p2429
sS'voicetype'
p2430
S'active'
p2431
sS'stype'
p2432
S'declarative'
p2433
ssbsg26
I00
sg27
I00
sg28
Nsg29
Nsg30
I1
sg31
I4
sg32
Nsg33
Nsg34
S'VM'
p2434
sg36
g2417
sg37
I00
sba(issf_api
Word
p2435
(dp2436
g6
I00
sg7
V\u0915\u093f
p2437
sg9
(issf_api
FeatureSet
p2438
(dp2439
g12
(dp2440
S'posn'
p2441
S'30'
p2442
sS'name'
p2443
S'\xe0\xa4\x95\xe0\xa4\xbf'
p2444
sS'af'
p2445
S'\xe0\xa4\x95\xe0\xa4\xbf,avy,,,,,,'
p2446
sS'chunkid'
p2447
S'CCP'
p2448
sS'drel'
p2449
S'rs:NULL__NP'
p2450
sS'chunktype'
p2451
S'head:CCP'
p2452
ssbsg26
I00
sg27
I00
sg28
Nsg29
Nsg30
I2
sg31
I4
sg32
Nsg33
Nsg34
S'CC'
p2453
sg36
g2438
sg37
I00
sba(issf_api
Word
p2454
(dp2455
g6
I00
sg7
V\u092a\u093e\u091f\u093f\u0932
p2456
sg9
(issf_api
FeatureSet
p2457
(dp2458
g12
(dp2459
S'crefhead'
p2460
S'\xe0\xa4\xaa\xe0\xa4\xbe\xe0\xa4\x9f\xe0\xa4\xbf\xe0\xa4\xb2:i31'
p2461
sS'posn'
p2462
S'40'
p2463
sS'name'
p2464
S'\xe0\xa4\xaa\xe0\xa4\xbe\xe0\xa4\x9f\xe0\xa4\xbf\xe0\xa4\xb2'
p2465
sS'af'
p2466
S'\xe0\xa4\xaa\xe0\xa4\xbe\xe0\xa4\x9f\xe0\xa4\xbf\xe0\xa4\xb2,n,any,sg,3,o,0_\xe0\xa4\xa8\xe0\xa5\x87,0'
p2467
sS'chunkid'
p2468
S'NP'
p2469
sS'creftype'
p2470
S'Coreference-Identity:i24'
p2471
sS'chunktype'
p2472
S'head:NP'
p2473
sS'vpos'
p2474
S'vib_2'
p2475
sS'cref'
p2476
S'i31%1:t9'
p2477
sS'drel'
p2478
S'k1:VGF2'
p2479
ssbsg26
I00
sg27
I00
sg28
Nsg29
Nsg30
I3
sg31
I4
sg32
Nsg33
Nsg34
S'NNP'
p2480
sg36
g2457
sg37
I00
sba(issf_api
Word
p2481
(dp2482
g6
I00
sg7
V\u0928\u0947
p2483
sg9
(issf_api
FeatureSet
p2484
(dp2485
g12
(dp2486
S'posn'
p2487
S'50'
p2488
sS'name'
p2489
S'\xe0\xa4\xa8\xe0\xa5\x87'
p2490
sS'drel'
p2491
S'lwg__psp:NP'
p2492
sS'chunktype'
p2493
S'child:NP'
p2494
sS'af'
p2495
S'\xe0\xa4\xa8\xe0\xa5\x87,psp,,,,,,'
p2496
ssbsg26
I00
sg27
I00
sg28
Nsg29
Nsg30
I3
sg31
I4
sg32
Nsg33
Nsg34
S'PSP'
p2497
sg36
g2484
sg37
I00
sba(issf_api
Word
p2498
(dp2499
g6
I00
sg7
V\u0905\u092a\u0928\u0940
p2500
sg9
(issf_api
FeatureSet
p2501
(dp2502
g12
(dp2503
S'crefhead'
p2504
S'\xe0\xa4\x85\xe0\xa4\xaa\xe0\xa4\xa8\xe0\xa5\x80:i32'
p2505
sS'posn'
p2506
S'60'
p2507
sS'name'
p2508
S'\xe0\xa4\x85\xe0\xa4\xaa\xe0\xa4\xa8\xe0\xa5\x80'
p2509
sS'af'
p2510
S'\xe0\xa4\x85\xe0\xa4\xaa\xe0\xa4\xa8\xe0\xa4\xbe,pn,f,any,any,o,0,0'
p2511
sS'acrefmodhead'
p2512
S'\xe0\xa4\x85\xe0\xa4\xaa\xe0\xa4\xa8\xe0\xa5\x80:m1'
p2513
sS'chunkid'
p2514
S'NP2'
p2515
sS'acrefmod'
p2516
S'm1%1:i33'
p2517
sS'creftype'
p2518
S'Anaphora-C:i31'
p2519
sS'chunktype'
p2520
S'head:NP2'
p2521
sS'cref'
p2522
S'i32%1:t9'
p2523
sS'drel'
p2524
S'r6:NP3'
p2525
ssbsg26
I00
sg27
I00
sg28
Nsg29
Nsg30
I4
sg31
I4
sg32
Nsg33
Nsg34
S'PRP'
p2526
sg36
g2501
sg37
I00
sba(issf_api
Word
p2527
(dp2528
g6
I00
sg7
V\u0930\u093f\u092a\u094b\u0930\u094d\u091f
p2529
sg9
(issf_api
FeatureSet
p2530
(dp2531
g12
(dp2532
S'crefhead'
p2533
S'\xe0\xa4\xb0\xe0\xa4\xbf\xe0\xa4\xaa\xe0\xa5\x8b\xe0\xa4\xb0\xe0\xa5\x8d\xe0\xa4\x9f:i33'
p2534
sS'posn'
p2535
S'70'
p2536
sS'name'
p2537
S'\xe0\xa4\xb0\xe0\xa4\xbf\xe0\xa4\xaa\xe0\xa5\x8b\xe0\xa4\xb0\xe0\xa5\x8d\xe0\xa4\x9f'
p2538
sS'af'
p2539
S'\xe0\xa4\xb0\xe0\xa4\xbf\xe0\xa4\xaa\xe0\xa5\x8b\xe0\xa4\xb0\xe0\xa5\x8d\xe0\xa4\x9f,n,f,sg,3,o,0_\xe0\xa4\xae\xe0\xa5\x87\xe0\xa4\x82,0'
p2540
sS'chunkid'
p2541
S'NP3'
p2542
sS'crefmod'
p2543
S'm1:i33'
p2544
sS'creftype'
p2545
S'Coreference-Identity:i30'
p2546
sS'chunktype'
p2547
S'head:NP3'
p2548
sS'vpos'
p2549
S'vib_2'
p2550
sS'cref'
p2551
S'i33%1:t10'
p2552
sS'drel'
p2553
S'k7:VGF2'
p2554
ssbsg26
I00
sg27
I00
sg28
Nsg29
Nsg30
I5
sg31
I4
sg32
Nsg33
Nsg34
S'NN'
p2555
sg36
g2530
sg37
I00
sba(issf_api
Word
p2556
(dp2557
g6
I00
sg7
V\u092e\u0947\u0902
p2558
sg9
(issf_api
FeatureSet
p2559
(dp2560
g12
(dp2561
S'posn'
p2562
S'80'
p2563
sS'name'
p2564
S'\xe0\xa4\xae\xe0\xa5\x87\xe0\xa4\x82'
p2565
sS'drel'
p2566
S'lwg__psp:NP3'
p2567
sS'chunktype'
p2568
S'child:NP3'
p2569
sS'af'
p2570
S'\xe0\xa4\xae\xe0\xa5\x87\xe0\xa4\x82,psp,,,,,,'
p2571
ssbsg26
I00
sg27
I00
sg28
Nsg29
Nsg30
I5
sg31
I4
sg32
Nsg33
Nsg34
S'PSP'
p2572
sg36
g2559
sg37
I00
sba(issf_api
Word
p2573
(dp2574
g6
I00
sg7
V\u0915\u0939\u093e
p2575
sg9
(issf_api
FeatureSet
p2576
(dp2577
g12
(dp2578
S'posn'
p2579
S'90'
p2580
sS'name'
p2581
S'\xe0\xa4\x95\xe0\xa4\xb9\xe0\xa4\xbe'
p2582
sS'af'
p2583
S'\xe0\xa4\x95\xe0\xa4\xb9,v,m,sg,any,,\xe0\xa4\xaf\xe0\xa4\xbe_\xe0\xa4\xa5\xe0\xa4\xbe,yA'
p2584
sS'chunkid'
p2585
S'VGF2'
p2586
sS'stype'
p2587
S'declarative'
p2588
sS'drel'
p2589
S'ccof:CCP'
p2590
sS'voicetype'
p2591
S'active'
p2592
sS'vpos'
p2593
S'tam_2'
p2594
sS'chunktype'
p2595
S'head:VGF2'
p2596
ssbsg26
I00
sg27
I00
sg28
Nsg29
Nsg30
I6
sg31
I4
sg32
Nsg33
Nsg34
S'VM'
p2597
sg36
g2576
sg37
I00
sba(issf_api
Word
p2598
(dp2599
g6
I00
sg7
V\u0925\u093e
p2600
sg9
(issf_api
FeatureSet
p2601
(dp2602
g12
(dp2603
S'posn'
p2604
S'100'
p2605
sS'name'
p2606
S'\xe0\xa4\xa5\xe0\xa4\xbe'
p2607
sS'drel'
p2608
S'lwg__vaux:VGF2'
p2609
sS'chunktype'
p2610
S'child:VGF2'
p2611
sS'af'
p2612
S'\xe0\xa4\xa5\xe0\xa4\xbe,v,m,sg,any,,\xe0\xa4\xa5\xe0\xa4\xbe,WA'
p2613
ssbsg26
I00
sg27
I00
sg28
Nsg29
Nsg30
I6
sg31
I4
sg32
Nsg33
Nsg34
S'VAUX'
p2614
sg36
g2601
sg37
I00
sba(issf_api
Word
p2615
(dp2616
g6
I00
sg7
V\u0915\u093f
p2617
sg9
(issf_api
FeatureSet
p2618
(dp2619
g12
(dp2620
S'posn'
p2621
S'110'
p2622
sS'name'
p2623
S'\xe0\xa4\x95\xe0\xa4\xbf2'
p2624
sS'af'
p2625
S'\xe0\xa4\x95\xe0\xa4\xbf,avy,,,,,,'
p2626
sS'chunkid'
p2627
S'CCP2'
p2628
sS'drel'
p2629
S'k2:VGF2'
p2630
sS'chunktype'
p2631
S'head:CCP2'
p2632
ssbsg26
I00
sg27
I00
sg28
Nsg29
Nsg30
I7
sg31
I4
sg32
Nsg33
Nsg34
S'CC'
p2633
sg36
g2618
sg37
I00
sba(issf_api
Word
p2634
(dp2635
g6
I00
sg7
V\u091c\u092e\u094d\u092e\u0942
p2636
sg9
(issf_api
FeatureSet
p2637
(dp2638
g12
(dp2639
S'posn'
p2640
S'120'
p2641
sS'name'
p2642
S'\xe0\xa4\x9c\xe0\xa4\xae\xe0\xa5\x8d\xe0\xa4\xae\xe0\xa5\x82'
p2643
sS'af'
p2644
S'\xe0\xa4\x9c\xe0\xa4\xae\xe0\xa5\x8d\xe0\xa4\xae\xe0\xa5\x82,n,m,sg,3,d,0,0'
p2645
sS'drel'
p2646
S'nmod__adj:NP4'
p2647
sS'chunktype'
p2648
S'child:NP4'
p2649
sS'cref'
p2650
S'i34%0:t3'
p2651
ssbsg26
I00
sg27
I00
sg28
Nsg29
Nsg30
I8
sg31
I4
sg32
Nsg33
Nsg34
S'NNP'
p2652
sg36
g2637
sg37
I00
sba(issf_api
Word
p2653
(dp2654
g6
I00
sg7
V\u0915\u0936\u094d\u092e\u0940\u0930
p2655
sg9
(issf_api
FeatureSet
p2656
(dp2657
g12
(dp2658
S'crefhead'
p2659
S'\xe0\xa4\x95\xe0\xa4\xb6\xe0\xa5\x8d\xe0\xa4\xae\xe0\xa5\x80\xe0\xa4\xb0:i34'
p2660
sS'posn'
p2661
S'130'
p2662
sS'name'
p2663
S'\xe0\xa4\x95\xe0\xa4\xb6\xe0\xa5\x8d\xe0\xa4\xae\xe0\xa5\x80\xe0\xa4\xb0'
p2664
sS'af'
p2665
S'\xe0\xa4\x95\xe0\xa4\xb6\xe0\xa5\x8d\xe0\xa4\xae\xe0\xa5\x80\xe0\xa4\xb0,n,m,sg,3,o,0_\xe0\xa4\x95\xe0\xa5\x8b,0'
p2666
sS'chunkid'
p2667
S'NP4'
p2668
sS'creftype'
p2669
S'Coreference-Identity:i12'
p2670
sS'chunktype'
p2671
S'head:NP4'
p2672
sS'vpos'
p2673
S'vib_vib_3'
p2674
sS'cref'
p2675
S'i34%1:t3'
p2676
sS'drel'
p2677
S'k4:VGNN'
p2678
ssbsg26
I00
sg27
I00
sg28
Nsg29
Nsg30
I8
sg31
I4
sg32
Nsg33
Nsg34
S'NNP'
p2679
sg36
g2656
sg37
I00
sba(issf_api
Word
p2680
(dp2681
g6
I00
sg7
V\u0915\u094b
p2682
sg9
(issf_api
FeatureSet
p2683
(dp2684
g12
(dp2685
S'posn'
p2686
S'140'
p2687
sS'name'
p2688
S'\xe0\xa4\x95\xe0\xa5\x8b'
p2689
sS'drel'
p2690
S'lwg__psp:NP4'
p2691
sS'chunktype'
p2692
S'child:NP4'
p2693
sS'af'
p2694
S'\xe0\xa4\x95\xe0\xa5\x8b,psp,,,,,,'
p2695
ssbsg26
I00
sg27
I00
sg28
Nsg29
Nsg30
I8
sg31
I4
sg32
Nsg33
Nsg34
S'PSP'
p2696
sg36
g2683
sg37
I00
sba(issf_api
Word
p2697
(dp2698
g6
I00
sg7
V\u0905\u0927\u093f\u0915
p2699
sg9
(issf_api
FeatureSet
p2700
(dp2701
g12
(dp2702
S'posn'
p2703
S'150'
p2704
sS'name'
p2705
S'\xe0\xa4\x85\xe0\xa4\xa7\xe0\xa4\xbf\xe0\xa4\x95'
p2706
sS'drel'
p2707
S'nmod__adj:NP5'
p2708
sS'chunktype'
p2709
S'child:NP5'
p2710
sS'af'
p2711
S'\xe0\xa4\x85\xe0\xa4\xa7\xe0\xa4\xbf\xe0\xa4\x95,avy,,,,,,'
p2712
ssbsg26
I00
sg27
I00
sg28
Nsg29
Nsg30
I9
sg31
I4
sg32
Nsg33
Nsg34
S'QF'
p2713
sg36
g2700
sg37
I00
sba(issf_api
Word
p2714
(dp2715
g6
I00
sg7
V\u0938\u094d\u0935\u093e\u092f\u0924\u094d\u0924\u0924\u093e
p2716
sg9
(issf_api
FeatureSet
p2717
(dp2718
g12
(dp2719
S'posn'
p2720
S'160'
p2721
sS'name'
p2722
S'\xe0\xa4\xb8\xe0\xa5\x8d\xe0\xa4\xb5\xe0\xa4\xbe\xe0\xa4\xaf\xe0\xa4\xa4\xe0\xa5\x8d\xe0\xa4\xa4\xe0\xa4\xa4\xe0\xa4\xbe'
p2723
sS'af'
p2724
S'\xe0\xa4\xb8\xe0\xa5\x8d\xe0\xa4\xb5\xe0\xa4\xbe\xe0\xa4\xaf\xe0\xa4\xa4\xe0\xa5\x8d\xe0\xa4\xa4\xe0\xa4\xa4\xe0\xa4\xbe,n,f,sg,3,d,0,0'
p2725
sS'chunkid'
p2726
S'NP5'
p2727
sS'drel'
p2728
S'k2:VGNN'
p2729
sS'chunktype'
p2730
S'head:NP5'
p2731
ssbsg26
I00
sg27
I00
sg28
Nsg29
Nsg30
I9
sg31
I4
sg32
Nsg33
Nsg34
S'NN'
p2732
sg36
g2717
sg37
I00
sba(issf_api
Word
p2733
(dp2734
g6
I00
sg7
V\u0926\u0947\u0928\u0947
p2735
sg9
(issf_api
FeatureSet
p2736
(dp2737
g12
(dp2738
S'posn'
p2739
S'170'
p2740
sS'name'
p2741
S'\xe0\xa4\xa6\xe0\xa5\x87\xe0\xa4\xa8\xe0\xa5\x87'
p2742
sS'af'
p2743
S'\xe0\xa4\xa6\xe0\xa5\x87,v,any,sg,any,o,\xe0\xa4\xa8\xe0\xa4\xbe_\xe0\xa4\x95\xe0\xa4\xbe,nA'
p2744
sS'chunkid'
p2745
S'VGNN'
p2746
sS'drel'
p2747
S'r6:NP6'
p2748
sS'vpos'
p2749
S'tam_2'
p2750
sS'chunktype'
p2751
S'head:VGNN'
p2752
ssbsg26
I00
sg27
I00
sg28
Nsg29
Nsg30
I10
sg31
I4
sg32
Nsg33
Nsg34
S'VM'
p2753
sg36
g2736
sg37
I00
sba(issf_api
Word
p2754
(dp2755
g6
I00
sg7
V\u0915\u0947
p2756
sg9
(issf_api
FeatureSet
p2757
(dp2758
g12
(dp2759
S'posn'
p2760
S'180'
p2761
sS'name'
p2762
S'\xe0\xa4\x95\xe0\xa5\x87'
p2763
sS'drel'
p2764
S'lwg__psp:VGNN'
p2765
sS'chunktype'
p2766
S'child:VGNN'
p2767
sS'af'
p2768
S'\xe0\xa4\x95\xe0\xa4\xbe,psp,m,sg,,o,,'
p2769
ssbsg26
I00
sg27
I00
sg28
Nsg29
Nsg30
I10
sg31
I4
sg32
Nsg33
Nsg34
S'PSP'
p2770
sg36
g2757
sg37
I00
sba(issf_api
Word
p2771
(dp2772
g6
I00
sg7
V\u092e\u0938\u0932\u0947
p2773
sg9
(issf_api
FeatureSet
p2774
(dp2775
g12
(dp2776
S'posn'
p2777
S'190'
p2778
sS'name'
p2779
S'\xe0\xa4\xae\xe0\xa4\xb8\xe0\xa4\xb2\xe0\xa5\x87'
p2780
sS'af'
p2781
S'\xe0\xa4\xae\xe0\xa4\xb8\xe0\xa4\xb2\xe0\xa4\xbe,n,m,sg,3,o,0_\xe0\xa4\xaa\xe0\xa4\xb0,0'
p2782
sS'chunkid'
p2783
S'NP6'
p2784
sS'drel'
p2785
S'k7:VGF3'
p2786
sS'vpos'
p2787
S'vib_2'
p2788
sS'chunktype'
p2789
S'head:NP6'
p2790
ssbsg26
I00
sg27
I00
sg28
Nsg29
Nsg30
I11
sg31
I4
sg32
Nsg33
Nsg34
S'NN'
p2791
sg36
g2774
sg37
I00
sba(issf_api
Word
p2792
(dp2793
g6
I00
sg7
V\u092a\u0930
p2794
sg9
(issf_api
FeatureSet
p2795
(dp2796
g12
(dp2797
S'posn'
p2798
S'200'
p2799
sS'name'
p2800
S'\xe0\xa4\xaa\xe0\xa4\xb0'
p2801
sS'drel'
p2802
S'lwg__psp:NP6'
p2803
sS'chunktype'
p2804
S'child:NP6'
p2805
sS'af'
p2806
S'\xe0\xa4\xaa\xe0\xa4\xb0,psp,,,,,,'
p2807
ssbsg26
I00
sg27
I00
sg28
Nsg29
Nsg30
I11
sg31
I4
sg32
Nsg33
Nsg34
S'PSP'
p2808
sg36
g2795
sg37
I00
sba(issf_api
Word
p2809
(dp2810
g6
I00
sg7
V\u0938\u092e\u0940\u0915\u094d\u0937\u093e
p2811
sg9
(issf_api
FeatureSet
p2812
(dp2813
g12
(dp2814
S'posn'
p2815
S'210'
p2816
sS'name'
p2817
S'\xe0\xa4\xb8\xe0\xa4\xae\xe0\xa5\x80\xe0\xa4\x95\xe0\xa5\x8d\xe0\xa4\xb7\xe0\xa4\xbe'
p2818
sS'af'
p2819
S'\xe0\xa4\xb8\xe0\xa4\xae\xe0\xa5\x80\xe0\xa4\x95\xe0\xa5\x8d\xe0\xa4\xb7\xe0\xa4\xbe,n,f,sg,3,o,0,0'
p2820
sS'chunkid'
p2821
S'NP7'
p2822
sS'drel'
p2823
S'ccof:CCP3'
p2824
sS'chunktype'
p2825
S'head:NP7'
p2826
ssbsg26
I00
sg27
I00
sg28
Nsg29
Nsg30
I12
sg31
I4
sg32
Nsg33
Nsg34
S'NN'
p2827
sg36
g2812
sg37
I00
sba(issf_api
Word
p2828
(dp2829
g6
I00
sg7
V\u0914\u0930
p2830
sg9
(issf_api
FeatureSet
p2831
(dp2832
g12
(dp2833
S'posn'
p2834
S'220'
p2835
sS'name'
p2836
S'\xe0\xa4\x94\xe0\xa4\xb0'
p2837
sS'af'
p2838
S'\xe0\xa4\x94\xe0\xa4\xb0,avy,,,,,,'
p2839
sS'chunkid'
p2840
S'CCP3'
p2841
sS'drel'
p2842
S'r6:NP9'
p2843
sS'chunktype'
p2844
S'head:CCP3'
p2845
ssbsg26
I00
sg27
I00
sg28
Nsg29
Nsg30
I13
sg31
I4
sg32
Nsg33
Nsg34
S'CC'
p2846
sg36
g2831
sg37
I00
sba(issf_api
Word
p2847
(dp2848
g6
I00
sg7
V\u092c\u0939\u0938
p2849
sg9
(issf_api
FeatureSet
p2850
(dp2851
g12
(dp2852
S'posn'
p2853
S'230'
p2854
sS'name'
p2855
S'\xe0\xa4\xac\xe0\xa4\xb9\xe0\xa4\xb8'
p2856
sS'af'
p2857
S'\xe0\xa4\xac\xe0\xa4\xb9\xe0\xa4\xb8,n,f,sg,3,o,0_\xe0\xa4\x95\xe0\xa4\xbe,0'
p2858
sS'chunkid'
p2859
S'NP8'
p2860
sS'drel'
p2861
S'ccof:CCP3'
p2862
sS'vpos'
p2863
S'vib_2'
p2864
sS'chunktype'
p2865
S'head:NP8'
p2866
ssbsg26
I00
sg27
I00
sg28
Nsg29
Nsg30
I14
sg31
I4
sg32
Nsg33
Nsg34
S'NN'
p2867
sg36
g2850
sg37
I00
sba(issf_api
Word
p2868
(dp2869
g6
I00
sg7
V\u0915\u0940
p2870
sg9
(issf_api
FeatureSet
p2871
(dp2872
g12
(dp2873
S'posn'
p2874
S'240'
p2875
sS'name'
p2876
S'\xe0\xa4\x95\xe0\xa5\x80'
p2877
sS'drel'
p2878
S'lwg__psp:NP8'
p2879
sS'chunktype'
p2880
S'child:NP8'
p2881
sS'af'
p2882
S'\xe0\xa4\x95\xe0\xa4\xbe,psp,f,sg,,d,,'
p2883
ssbsg26
I00
sg27
I00
sg28
Nsg29
Nsg30
I14
sg31
I4
sg32
Nsg33
Nsg34
S'PSP'
p2884
sg36
g2871
sg37
I00
sba(issf_api
Word
p2885
(dp2886
g6
I00
sg7
V\u091c\u0930\u0942\u0930\u0924
p2887
sg9
(issf_api
FeatureSet
p2888
(dp2889
g12
(dp2890
S'posn'
p2891
S'250'
p2892
sS'name'
p2893
S'\xe0\xa4\x9c\xe0\xa4\xb0\xe0\xa5\x82\xe0\xa4\xb0\xe0\xa4\xa4'
p2894
sS'af'
p2895
S'\xe0\xa4\x9c\xe0\xa4\xb0\xe0\xa5\x82\xe0\xa4\xb0\xe0\xa4\xa4,n,f,sg,3,d,0,0'
p2896
sS'chunkid'
p2897
S'NP9'
p2898
sS'drel'
p2899
S'k1:VGF3'
p2900
sS'chunktype'
p2901
S'head:NP9'
p2902
ssbsg26
I00
sg27
I00
sg28
Nsg29
Nsg30
I15
sg31
I4
sg32
Nsg33
Nsg34
S'NN'
p2903
sg36
g2888
sg37
I00
sba(issf_api
Word
p2904
(dp2905
g6
I00
sg7
V\u0939\u0948
p2906
sg9
(issf_api
FeatureSet
p2907
(dp2908
g12
(dp2909
S'posn'
p2910
S'260'
p2911
sS'name'
p2912
S'\xe0\xa4\xb9\xe0\xa5\x882'
p2913
sS'af'
p2914
S'\xe0\xa4\xb9\xe0\xa5\x88,v,any,sg,3,,\xe0\xa4\xb9\xe0\xa5\x88,hE'
p2915
sS'chunkid'
p2916
S'VGF3'
p2917
sS'stype'
p2918
S'declarative'
p2919
sS'drel'
p2920
S'ccof:CCP2'
p2921
sS'voicetype'
p2922
S'active'
p2923
sS'chunktype'
p2924
S'head:VGF3'
p2925
ssbsg26
I00
sg27
I00
sg28
Nsg29
Nsg30
I16
sg31
I4
sg32
Nsg33
Nsg34
S'VM'
p2926
sg36
g2907
sg37
I00
sba(issf_api
Word
p2927
(dp2928
g6
I00
sg7
V\u0964
p2929
sg9
(issf_api
FeatureSet
p2930
(dp2931
g12
(dp2932
S'posn'
p2933
S'270'
p2934
sS'name'
p2935
S'\xe0\xa5\xa4'
p2936
sS'af'
p2937
S'\xe0\xa5\xa4,punc,,,,,,'
p2938
sS'chunkid'
p2939
S'BLK'
p2940
sS'drel'
p2941
S'rsym:VGF'
p2942
sS'chunktype'
p2943
S'head:BLK'
p2944
ssbsg26
I00
sg27
I00
sg28
Nsg29
Nsg30
I17
sg31
I4
sg32
Nsg33
Nsg34
S'SYM'
p2945
sg36
g2930
sg37
I00
sba(issf_api
Word
p2946
(dp2947
g6
I00
sg7
V\u0907\u0938\u0915\u0947
p2948
sg9
(issf_api
FeatureSet
p2949
(dp2950
g12
(dp2951
S'crefhead'
p2952
S'\xe0\xa4\x87\xe0\xa4\xb8\xe0\xa4\x95\xe0\xa5\x87:i35'
p2953
sS'posn'
p2954
S'10'
p2955
sS'name'
p2956
S'\xe0\xa4\x87\xe0\xa4\xb8\xe0\xa4\x95\xe0\xa5\x87'
p2957
sS'af'
p2958
S'\xe0\xa4\xaf\xe0\xa4\xb9,pn,any,sg,3,o,0_\xe0\xa4\x85\xe0\xa4\xb2\xe0\xa4\xbe\xe0\xa4\xb5\xe0\xa4\xbe,ke'
p2959
sS'chunkid'
p2960
S'NP'
p2961
sS'creftype'
p2962
S'Anaphora-C:i29'
p2963
sS'chunktype'
p2964
S'head:NP'
p2965
sS'vpos'
p2966
S'vib_2'
p2967
sS'cref'
p2968
S'i35%1:t11'
p2969
sS'drel'
p2970
S'vmod:VGF'
p2971
ssbsg26
I00
sg27
I00
sg28
Nsg29
Nsg30
I0
sg31
I5
sg32
Nsg33
Nsg34
S'PRP'
p2972
sg36
g2949
sg37
I00
sba(issf_api
Word
p2973
(dp2974
g6
I00
sg7
V\u0905\u0932\u093e\u0935\u093e
p2975
sg9
(issf_api
FeatureSet
p2976
(dp2977
g12
(dp2978
S'posn'
p2979
S'20'
p2980
sS'name'
p2981
S'\xe0\xa4\x85\xe0\xa4\xb2\xe0\xa4\xbe\xe0\xa4\xb5\xe0\xa4\xbe'
p2982
sS'drel'
p2983
S'lwg__psp:NP'
p2984
sS'chunktype'
p2985
S'child:NP'
p2986
sS'af'
p2987
S'\xe0\xa4\x85\xe0\xa4\xb2\xe0\xa4\xbe\xe0\xa4\xb5\xe0\xa4\xbe,psp,,,,,,'
p2988
ssbsg26
I00
sg27
I00
sg28
Nsg29
Nsg30
I0
sg31
I5
sg32
Nsg33
Nsg34
S'PSP'
p2989
sg36
g2976
sg37
I00
sba(issf_api
Word
p2990
(dp2991
g6
I00
sg7
V\u0909\u092e\u0930
p2992
sg9
(issf_api
FeatureSet
p2993
(dp2994
g12
(dp2995
S'crefhead'
p2996
S'\xe0\xa4\x89\xe0\xa4\xae\xe0\xa4\xb0:i36'
p2997
sS'posn'
p2998
S'30'
p2999
sS'name'
p3000
S'\xe0\xa4\x89\xe0\xa4\xae\xe0\xa4\xb0'
p3001
sS'af'
p3002
S'\xe0\xa4\x89\xe0\xa4\xae\xe0\xa4\xb0,n,m,sg,3,o,0_\xe0\xa4\xa8\xe0\xa5\x87,0'
p3003
sS'chunkid'
p3004
S'NP2'
p3005
sS'creftype'
p3006
S'Coreference-Identity:i28'
p3007
sS'chunktype'
p3008
S'head:NP2'
p3009
sS'vpos'
p3010
S'vib_2'
p3011
sS'cref'
p3012
S'i36%1:t1'
p3013
sS'drel'
p3014
S'k1:VGF'
p3015
ssbsg26
I00
sg27
I00
sg28
Nsg29
Nsg30
I1
sg31
I5
sg32
Nsg33
Nsg34
S'NNP'
p3016
sg36
g2993
sg37
I00
sba(issf_api
Word
p3017
(dp3018
g6
I00
sg7
V\u0928\u0947
p3019
sg9
(issf_api
FeatureSet
p3020
(dp3021
g12
(dp3022
S'posn'
p3023
S'40'
p3024
sS'name'
p3025
S'\xe0\xa4\xa8\xe0\xa5\x87'
p3026
sS'drel'
p3027
S'lwg__psp:NP2'
p3028
sS'chunktype'
p3029
S'child:NP2'
p3030
sS'af'
p3031
S'\xe0\xa4\xa8\xe0\xa5\x87,psp,,,,,,'
p3032
ssbsg26
I00
sg27
I00
sg28
Nsg29
Nsg30
I1
sg31
I5
sg32
Nsg33
Nsg34
S'PSP'
p3033
sg36
g3020
sg37
I00
sba(issf_api
Word
p3034
(dp3035
g6
I00
sg7
V\u0915\u0939\u093e
p3036
sg9
(issf_api
FeatureSet
p3037
(dp3038
g12
(dp3039
S'posn'
p3040
S'50'
p3041
sS'name'
p3042
S'\xe0\xa4\x95\xe0\xa4\xb9\xe0\xa4\xbe'
p3043
sS'af'
p3044
S'\xe0\xa4\x95\xe0\xa4\xb9,v,m,sg,any,,\xe0\xa4\xaf\xe0\xa4\xbe,yA'
p3045
sS'chunkid'
p3046
S'VGF'
p3047
sS'chunktype'
p3048
S'head:VGF'
p3049
sS'voicetype'
p3050
S'active'
p3051
sS'stype'
p3052
S'declarative'
p3053
ssbsg26
I00
sg27
I00
sg28
Nsg29
Nsg30
I2
sg31
I5
sg32
Nsg33
Nsg34
S'VM'
p3054
sg36
g3037
sg37
I00
sba(issf_api
Word
p3055
(dp3056
g6
I00
sg7
V\u0915\u093f
p3057
sg9
(issf_api
FeatureSet
p3058
(dp3059
g12
(dp3060
S'posn'
p3061
S'60'
p3062
sS'name'
p3063
S'\xe0\xa4\x95\xe0\xa4\xbf'
p3064
sS'af'
p3065
S'\xe0\xa4\x95\xe0\xa4\xbf,avy,,,,,,'
p3066
sS'chunkid'
p3067
S'CCP'
p3068
sS'drel'
p3069
S'k2:VGF'
p3070
sS'chunktype'
p3071
S'head:CCP'
p3072
ssbsg26
I00
sg27
I00
sg28
Nsg29
Nsg30
I3
sg31
I5
sg32
Nsg33
Nsg34
S'CC'
p3073
sg36
g3058
sg37
I00
sba(issf_api
Word
p3074
(dp3075
g6
I00
sg7
V\u0928\u0947\u0936\u0928\u0932
p3076
sg9
(issf_api
FeatureSet
p3077
(dp3078
g12
(dp3079
S'posn'
p3080
S'50'
p3081
sS'name'
p3082
S'\xe0\xa4\xa8\xe0\xa5\x87\xe0\xa4\xb6\xe0\xa4\xa8\xe0\xa4\xb2'
p3083
sS'af'
p3084
S'\xe0\xa4\xa8\xe0\xa5\x87\xe0\xa4\xb6\xe0\xa4\xa8\xe0\xa4\xb2,adj,any,any,,o,,'
p3085
sS'drel'
p3086
S'pof__cn:NP3'
p3087
sS'chunktype'
p3088
S'child:NP3'
p3089
sS'cref'
p3090
S'i37%0:t2'
p3091
ssbsg26
I00
sg27
I00
sg28
Nsg29
Nsg30
I4
sg31
I5
sg32
Nsg33
Nsg34
S'NNPC'
p3092
sg36
g3077
sg37
I00
sba(issf_api
Word
p3093
(dp3094
g6
I00
sg7
V\u0915\u093e\u0902\u092b\u094d\u0930\u0947\u0902\u0938
p3095
sg9
(issf_api
FeatureSet
p3096
(dp3097
g12
(dp3098
S'crefhead'
p3099
S'\xe0\xa4\x95\xe0\xa4\xbe\xe0\xa4\x82\xe0\xa4\xab\xe0\xa5\x8d\xe0\xa4\xb0\xe0\xa5\x87\xe0\xa4\x82\xe0\xa4\xb8:i37'
p3100
sS'posn'
p3101
S'80'
p3102
sS'name'
p3103
S'\xe0\xa4\x95\xe0\xa4\xbe\xe0\xa4\x82\xe0\xa4\xab\xe0\xa5\x8d\xe0\xa4\xb0\xe0\xa5\x87\xe0\xa4\x82\xe0\xa4\xb8'
p3104
sS'af'
p3105
S'\xe0\xa4\x95\xe0\xa4\xbe\xe0\xa4\x82\xe0\xa4\xab\xe0\xa5\x8d\xe0\xa4\xb0\xe0\xa5\x87\xe0\xa4\x82\xe0\xa4\xb8,n,f,sg,3,d,0,0'
p3106
sS'chunkid'
p3107
S'NP3'
p3108
sS'creftype'
p3109
S'Coreference-Identity:i2'
p3110
sS'chunktype'
p3111
S'head:NP3'
p3112
sS'cref'
p3113
S'i37%1:t2'
p3114
sS'drel'
p3115
S'k1:VGF2'
p3116
ssbsg26
I00
sg27
I00
sg28
Nsg29
Nsg30
I4
sg31
I5
sg32
Nsg33
Nsg34
S'NNP'
p3117
sg36
g3096
sg37
I00
sba(issf_api
Word
p3118
(dp3119
g6
I00
sg7
V\u0938\u0902\u0938\u0926
p3120
sg9
(issf_api
FeatureSet
p3121
(dp3122
g12
(dp3123
S'posn'
p3124
S'90'
p3125
sS'name'
p3126
S'\xe0\xa4\xb8\xe0\xa4\x82\xe0\xa4\xb8\xe0\xa4\xa6'
p3127
sS'af'
p3128
S'\xe0\xa4\xb8\xe0\xa4\x82\xe0\xa4\xb8\xe0\xa4\xa6,n,f,sg,3,o,0_\xe0\xa4\x95\xe0\xa4\xbe,0'
p3129
sS'chunkid'
p3130
S'NP4'
p3131
sS'drel'
p3132
S'r6:NP5'
p3133
sS'vpos'
p3134
S'vib_2'
p3135
sS'chunktype'
p3136
S'head:NP4'
p3137
ssbsg26
I00
sg27
I00
sg28
Nsg29
Nsg30
I5
sg31
I5
sg32
Nsg33
Nsg34
S'NN'
p3138
sg36
g3121
sg37
I00
sba(issf_api
Word
p3139
(dp3140
g6
I00
sg7
V\u0915\u0947
p3141
sg9
(issf_api
FeatureSet
p3142
(dp3143
g12
(dp3144
S'posn'
p3145
S'100'
p3146
sS'name'
p3147
S'\xe0\xa4\x95\xe0\xa5\x87'
p3148
sS'drel'
p3149
S'lwg__psp:NP4'
p3150
sS'chunktype'
p3151
S'child:NP4'
p3152
sS'af'
p3153
S'\xe0\xa4\x95\xe0\xa4\xbe,psp,m,sg,,o,,'
p3154
ssbsg26
I00
sg27
I00
sg28
Nsg29
Nsg30
I5
sg31
I5
sg32
Nsg33
Nsg34
S'PSP'
p3155
sg36
g3142
sg37
I00
sba(issf_api
Word
p3156
(dp3157
g6
I00
sg7
V\u0905\u0917\u0932\u0947
p3158
sg9
(issf_api
FeatureSet
p3159
(dp3160
g12
(dp3161
S'posn'
p3162
S'110'
p3163
sS'name'
p3164
S'\xe0\xa4\x85\xe0\xa4\x97\xe0\xa4\xb2\xe0\xa5\x87'
p3165
sS'drel'
p3166
S'nmod__adj:NP5'
p3167
sS'chunktype'
p3168
S'child:NP5'
p3169
sS'af'
p3170
S'\xe0\xa4\x85\xe0\xa4\x97\xe0\xa4\xb2\xe0\xa4\xbe,adj,m,sg,,o,,'
p3171
ssbsg26
I00
sg27
I00
sg28
Nsg29
Nsg30
I6
sg31
I5
sg32
Nsg33
Nsg34
S'JJ'
p3172
sg36
g3159
sg37
I00
sba(issf_api
Word
p3173
(dp3174
g6
I00
sg7
V\u0938\u0924\u094d\u0930
p3175
sg9
(issf_api
FeatureSet
p3176
(dp3177
g12
(dp3178
S'posn'
p3179
S'120'
p3180
sS'name'
p3181
S'\xe0\xa4\xb8\xe0\xa4\xa4\xe0\xa5\x8d\xe0\xa4\xb0'
p3182
sS'af'
p3183
S'\xe0\xa4\xb8\xe0\xa4\xa4\xe0\xa5\x8d\xe0\xa4\xb0,n,m,sg,3,o,0_\xe0\xa4\xae\xe0\xa5\x87\xe0\xa4\x82,0'
p3184
sS'chunkid'
p3185
S'NP5'
p3186
sS'drel'
p3187
S'k7:VGF2'
p3188
sS'vpos'
p3189
S'vib_3'
p3190
sS'chunktype'
p3191
S'head:NP5'
p3192
ssbsg26
I00
sg27
I00
sg28
Nsg29
Nsg30
I6
sg31
I5
sg32
Nsg33
Nsg34
S'NN'
p3193
sg36
g3176
sg37
I00
sba(issf_api
Word
p3194
(dp3195
g6
I00
sg7
V\u092e\u0947\u0902
p3196
sg9
(issf_api
FeatureSet
p3197
(dp3198
g12
(dp3199
S'posn'
p3200
S'130'
p3201
sS'name'
p3202
S'\xe0\xa4\xae\xe0\xa5\x87\xe0\xa4\x82'
p3203
sS'drel'
p3204
S'lwg__psp:NP5'
p3205
sS'chunktype'
p3206
S'child:NP5'
p3207
sS'af'
p3208
S'\xe0\xa4\xae\xe0\xa5\x87\xe0\xa4\x82,psp,,,,,,'
p3209
ssbsg26
I00
sg27
I00
sg28
Nsg29
Nsg30
I6
sg31
I5
sg32
Nsg33
Nsg34
S'PSP'
p3210
sg36
g3197
sg37
I00
sba(issf_api
Word
p3211
(dp3212
g6
I00
sg7
V\u092a\u094d\u0930\u093e\u0907\u0935\u0947\u091f
p3213
sg9
(issf_api
FeatureSet
p3214
(dp3215
g12
(dp3216
S'posn'
p3217
S'140'
p3218
sS'name'
p3219
S'\xe0\xa4\xaa\xe0\xa5\x8d\xe0\xa4\xb0\xe0\xa4\xbe\xe0\xa4\x87\xe0\xa4\xb5\xe0\xa5\x87\xe0\xa4\x9f'
p3220
sS'af'
p3221
S'\xe0\xa4\xaa\xe0\xa5\x8d\xe0\xa4\xb0\xe0\xa4\xbe\xe0\xa4\x87\xe0\xa4\xb5\xe0\xa5\x87\xe0\xa4\x9f,adj,any,any,,d,,'
p3222
sS'drel'
p3223
S'pof__cn:NP6'
p3224
sS'chunktype'
p3225
S'child:NP6'
p3226
sS'cref'
p3227
S'i38%0:t12'
p3228
ssbsg26
I00
sg27
I00
sg28
Nsg29
Nsg30
I7
sg31
I5
sg32
Nsg33
Nsg34
S'NNC'
p3229
sg36
g3214
sg37
I00
sba(issf_api
Word
p3230
(dp3231
g6
I00
sg7
V\u092e\u0947\u092e\u094d\u092c\u0930
p3232
sg9
(issf_api
FeatureSet
p3233
(dp3234
g12
(dp3235
S'posn'
p3236
S'150'
p3237
sS'name'
p3238
S'\xe0\xa4\xae\xe0\xa5\x87\xe0\xa4\xae\xe0\xa5\x8d\xe0\xa4\xac\xe0\xa4\xb0'
p3239
sS'af'
p3240
S'\xe0\xa4\xae\xe0\xa5\x87\xe0\xa4\x82\xe0\xa4\xac\xe0\xa4\xb0,n,m,sg,3,d,0,0'
p3241
sS'drel'
p3242
S'pof__cn:NP6'
p3243
sS'chunktype'
p3244
S'child:NP6'
p3245
sS'cref'
p3246
S'i38%0:t12'
p3247
ssbsg26
I00
sg27
I00
sg28
Nsg29
Nsg30
I7
sg31
I5
sg32
Nsg33
Nsg34
S'NNC'
p3248
sg36
g3233
sg37
I00
sba(issf_api
Word
p3249
(dp3250
g6
I00
sg7
V\u092c\u093f\u0932
p3251
sg9
(issf_api
FeatureSet
p3252
(dp3253
g12
(dp3254
S'crefhead'
p3255
S'\xe0\xa4\xac\xe0\xa4\xbf\xe0\xa4\xb2:i38'
p3256
sS'posn'
p3257
S'160'
p3258
sS'name'
p3259
S'\xe0\xa4\xac\xe0\xa4\xbf\xe0\xa4\xb2'
p3260
sS'af'
p3261
S'\xe0\xa4\xac\xe0\xa4\xbf\xe0\xa4\xb2,n,m,sg,3,d,0,0'
p3262
sS'chunkid'
p3263
S'NP6'
p3264
sS'chunktype'
p3265
S'head:NP6'
p3266
sS'crefchainhead'
p3267
S'i38:t12'
p3268
sS'cref'
p3269
S'i38%1:t12'
p3270
sS'drel'
p3271
S'k2:VGNN'
p3272
ssbsg26
I00
sg27
I00
sg28
Nsg29
Nsg30
I7
sg31
I5
sg32
Nsg33
Nsg34
S'NN'
p3273
sg36
g3252
sg37
I00
sba(issf_api
Word
p3274
(dp3275
g6
I00
sg7
V\u0932\u093e\u0928\u0947
p3276
sg9
(issf_api
FeatureSet
p3277
(dp3278
g12
(dp3279
S'posn'
p3280
S'170'
p3281
sS'name'
p3282
S'\xe0\xa4\xb2\xe0\xa4\xbe\xe0\xa4\xa8\xe0\xa5\x87'
p3283
sS'af'
p3284
S'\xe0\xa4\xb2\xe0\xa4\xbe,v,any,any,any,o,\xe0\xa4\xa8\xe0\xa4\xbe_\xe0\xa4\xaa\xe0\xa4\xb0,nA'
p3285
sS'chunkid'
p3286
S'VGNN'
p3287
sS'drel'
p3288
S'k7:VGF2'
p3289
sS'vpos'
p3290
S'tam_2'
p3291
sS'chunktype'
p3292
S'head:VGNN'
p3293
ssbsg26
I00
sg27
I00
sg28
Nsg29
Nsg30
I8
sg31
I5
sg32
Nsg33
Nsg34
S'VM'
p3294
sg36
g3277
sg37
I00
sba(issf_api
Word
p3295
(dp3296
g6
I00
sg7
V\u092a\u0930
p3297
sg9
(issf_api
FeatureSet
p3298
(dp3299
g12
(dp3300
S'posn'
p3301
S'180'
p3302
sS'name'
p3303
S'\xe0\xa4\xaa\xe0\xa4\xb0'
p3304
sS'drel'
p3305
S'lwg__psp:VGNN'
p3306
sS'chunktype'
p3307
S'child:VGNN'
p3308
sS'af'
p3309
S'\xe0\xa4\xaa\xe0\xa4\xb0,psp,,,,,,'
p3310
ssbsg26
I00
sg27
I00
sg28
Nsg29
Nsg30
I8
sg31
I5
sg32
Nsg33
Nsg34
S'PSP'
p3311
sg36
g3298
sg37
I00
sba(issf_api
Word
p3312
(dp3313
g6
I00
sg7
V\u0935\u093f\u091a\u093e\u0930
p3314
sg9
(issf_api
FeatureSet
p3315
(dp3316
g12
(dp3317
S'posn'
p3318
S'190'
p3319
sS'name'
p3320
S'\xe0\xa4\xb5\xe0\xa4\xbf\xe0\xa4\x9a\xe0\xa4\xbe\xe0\xa4\xb0'
p3321
sS'af'
p3322
S'\xe0\xa4\xb5\xe0\xa4\xbf\xe0\xa4\x9a\xe0\xa4\xbe\xe0\xa4\xb0,n,m,sg,3,d,0,0'
p3323
sS'chunkid'
p3324
S'NP7'
p3325
sS'drel'
p3326
S'pof:VGF2'
p3327
sS'chunktype'
p3328
S'head:NP7'
p3329
ssbsg26
I00
sg27
I00
sg28
Nsg29
Nsg30
I9
sg31
I5
sg32
Nsg33
Nsg34
S'NN'
p3330
sg36
g3315
sg37
I00
sba(issf_api
Word
p3331
(dp3332
g6
I00
sg7
V\u0915\u0930
p3333
sg9
(issf_api
FeatureSet
p3334
(dp3335
g12
(dp3336
S'posn'
p3337
S'200'
p3338
sS'name'
p3339
S'\xe0\xa4\x95\xe0\xa4\xb0'
p3340
sS'af'
p3341
S'\xe0\xa4\x95\xe0\xa4\xb0,v,f,sg,3,,0_\xe0\xa4\xb0\xe0\xa4\xb9+\xe0\xa4\xaf\xe0\xa4\xbe_\xe0\xa4\xb9\xe0\xa5\x88,0'
p3342
sS'chunkid'
p3343
S'VGF2'
p3344
sS'stype'
p3345
S'declarative'
p3346
sS'drel'
p3347
S'ccof:CCP'
p3348
sS'voicetype'
p3349
S'active'
p3350
sS'vpos'
p3351
S'tam_2_3'
p3352
sS'chunktype'
p3353
S'head:VGF2'
p3354
ssbsg26
I00
sg27
I00
sg28
Nsg29
Nsg30
I10
sg31
I5
sg32
Nsg33
Nsg34
S'VM'
p3355
sg36
g3334
sg37
I00
sba(issf_api
Word
p3356
(dp3357
g6
I00
sg7
V\u0930\u0939\u0940
p3358
sg9
(issf_api
FeatureSet
p3359
(dp3360
g12
(dp3361
S'posn'
p3362
S'210'
p3363
sS'name'
p3364
S'\xe0\xa4\xb0\xe0\xa4\xb9\xe0\xa5\x80'
p3365
sS'drel'
p3366
S'lwg__vaux:VGF2'
p3367
sS'chunktype'
p3368
S'child:VGF2'
p3369
sS'af'
p3370
S'\xe0\xa4\xb0\xe0\xa4\xb9,v,f,sg,any,,\xe0\xa4\xaf\xe0\xa4\xbe,yA'
p3371
ssbsg26
I00
sg27
I00
sg28
Nsg29
Nsg30
I10
sg31
I5
sg32
Nsg33
Nsg34
S'VAUX'
p3372
sg36
g3359
sg37
I00
sba(issf_api
Word
p3373
(dp3374
g6
I00
sg7
V\u0939\u0948
p3375
sg9
(issf_api
FeatureSet
p3376
(dp3377
g12
(dp3378
S'posn'
p3379
S'220'
p3380
sS'name'
p3381
S'\xe0\xa4\xb9\xe0\xa5\x88'
p3382
sS'drel'
p3383
S'lwg__vaux:VGF2'
p3384
sS'chunktype'
p3385
S'child:VGF2'
p3386
sS'af'
p3387
S'\xe0\xa4\xb9\xe0\xa5\x88,v,any,sg,3,,\xe0\xa4\xb9\xe0\xa5\x88,hE'
p3388
ssbsg26
I00
sg27
I00
sg28
Nsg29
Nsg30
I10
sg31
I5
sg32
Nsg33
Nsg34
S'VAUX'
p3389
sg36
g3376
sg37
I00
sba(issf_api
Word
p3390
(dp3391
g6
I00
sg7
V\u0964
p3392
sg9
(issf_api
FeatureSet
p3393
(dp3394
g12
(dp3395
S'posn'
p3396
S'230'
p3397
sS'name'
p3398
S'\xe0\xa5\xa4'
p3399
sS'af'
p3400
S'\xe0\xa5\xa4,punc,,,,,,'
p3401
sS'chunkid'
p3402
S'BLK'
p3403
sS'drel'
p3404
S'rsym:VGF'
p3405
sS'chunktype'
p3406
S'head:BLK'
p3407
ssbsg26
I00
sg27
I00
sg28
Nsg29
Nsg30
I11
sg31
I5
sg32
Nsg33
Nsg34
S'SYM'
p3408
sg36
g3393
sg37
I00
sba(issf_api
Word
p3409
(dp3410
g6
I00
sg7
V\u0909\u0928\u094d\u0939\u094b\u0902\u0928\u0947
p3411
sg9
(issf_api
FeatureSet
p3412
(dp3413
g12
(dp3414
S'crefhead'
p3415
S'\xe0\xa4\x89\xe0\xa4\xa8\xe0\xa5\x8d\xe0\xa4\xb9\xe0\xa5\x8b\xe0\xa4\x82\xe0\xa4\xa8\xe0\xa5\x87:i39'
p3416
sS'posn'
p3417
S'10'
p3418
sS'name'
p3419
S'\xe0\xa4\x89\xe0\xa4\xa8\xe0\xa5\x8d\xe0\xa4\xb9\xe0\xa5\x8b\xe0\xa4\x82\xe0\xa4\xa8\xe0\xa5\x87'
p3420
sS'af'
p3421
S'\xe0\xa4\xb5\xe0\xa4\xb9,pn,any,sg,3h,o,\xe0\xa4\xa8\xe0\xa5\x87,ne'
p3422
sS'chunkid'
p3423
S'NP'
p3424
sS'creftype'
p3425
S'Anaphora-C:i36'
p3426
sS'chunktype'
p3427
S'head:NP'
p3428
sS'cref'
p3429
S'i39%1:t1'
p3430
sS'drel'
p3431
S'k1:VGF'
p3432
ssbsg26
I00
sg27
I00
sg28
Nsg29
Nsg30
I0
sg31
I6
sg32
Nsg33
Nsg34
S'PRP'
p3433
sg36
g3412
sg37
I00
sba(issf_api
Word
p3434
(dp3435
g6
I00
sg7
V\u0915\u0939\u093e
p3436
sg9
(issf_api
FeatureSet
p3437
(dp3438
g12
(dp3439
S'posn'
p3440
S'20'
p3441
sS'name'
p3442
S'\xe0\xa4\x95\xe0\xa4\xb9\xe0\xa4\xbe'
p3443
sS'af'
p3444
S'\xe0\xa4\x95\xe0\xa4\xb9,v,m,sg,any,,\xe0\xa4\xaf\xe0\xa4\xbe,yA'
p3445
sS'chunkid'
p3446
S'VGF'
p3447
sS'chunktype'
p3448
S'head:VGF'
p3449
sS'voicetype'
p3450
S'active'
p3451
sS'stype'
p3452
S'declarative'
p3453
ssbsg26
I00
sg27
I00
sg28
Nsg29
Nsg30
I1
sg31
I6
sg32
Nsg33
Nsg34
S'VM'
p3454
sg36
g3437
sg37
I00
sba(issf_api
Word
p3455
(dp3456
g6
I00
sg7
V\u0915\u093f
p3457
sg9
(issf_api
FeatureSet
p3458
(dp3459
g12
(dp3460
S'posn'
p3461
S'30'
p3462
sS'name'
p3463
S'\xe0\xa4\x95\xe0\xa4\xbf'
p3464
sS'af'
p3465
S'\xe0\xa4\x95\xe0\xa4\xbf,avy,,,,,,'
p3466
sS'chunkid'
p3467
S'CCP'
p3468
sS'drel'
p3469
S'k2:VGF'
p3470
sS'chunktype'
p3471
S'head:CCP'
p3472
ssbsg26
I00
sg27
I00
sg28
Nsg29
Nsg30
I2
sg31
I6
sg32
Nsg33
Nsg34
S'CC'
p3473
sg36
g3458
sg37
I00
sba(issf_api
Word
p3474
(dp3475
g6
I00
sg7
V\u0907\u0938
p3476
sg9
(issf_api
FeatureSet
p3477
(dp3478
g12
(dp3479
S'crefhead'
p3480
S'\xe0\xa4\x87\xe0\xa4\xb8:i40'
p3481
sS'posn'
p3482
S'40'
p3483
sS'name'
p3484
S'\xe0\xa4\x87\xe0\xa4\xb8'
p3485
sS'af'
p3486
S'\xe0\xa4\xaf\xe0\xa4\xb9,pn,any,sg,3,o,0_\xe0\xa4\xac\xe0\xa4\xbe\xe0\xa4\xb0\xe0\xa5\x87_\xe0\xa4\xae\xe0\xa5\x87\xe0\xa4\x82,0'
p3487
sS'chunkid'
p3488
S'NP2'
p3489
sS'creftype'
p3490
S'Anaphora-C:i38'
p3491
sS'chunktype'
p3492
S'head:NP2'
p3493
sS'vpos'
p3494
S'vib_2_3'
p3495
sS'cref'
p3496
S'i40%1:t12'
p3497
sS'drel'
p3498
S'k7:VGF2'
p3499
ssbsg26
I00
sg27
I00
sg28
Nsg29
Nsg30
I3
sg31
I6
sg32
Nsg33
Nsg34
S'PRP'
p3500
sg36
g3477
sg37
I00
sba(issf_api
Word
p3501
(dp3502
g6
I00
sg7
V\u092c\u093e\u0930\u0947
p3503
sg9
(issf_api
FeatureSet
p3504
(dp3505
g12
(dp3506
S'posn'
p3507
S'50'
p3508
sS'name'
p3509
S'\xe0\xa4\xac\xe0\xa4\xbe\xe0\xa4\xb0\xe0\xa5\x87'
p3510
sS'drel'
p3511
S'lwg__psp:NP2'
p3512
sS'chunktype'
p3513
S'child:NP2'
p3514
sS'af'
p3515
S'\xe0\xa4\xac\xe0\xa4\xbe\xe0\xa4\xb0\xe0\xa5\x87,psp,,,,,,'
p3516
ssbsg26
I00
sg27
I00
sg28
Nsg29
Nsg30
I3
sg31
I6
sg32
Nsg33
Nsg34
S'PSP'
p3517
sg36
g3504
sg37
I00
sba(issf_api
Word
p3518
(dp3519
g6
I00
sg7
V\u092e\u0947\u0902
p3520
sg9
(issf_api
FeatureSet
p3521
(dp3522
g12
(dp3523
S'posn'
p3524
S'60'
p3525
sS'name'
p3526
S'\xe0\xa4\xae\xe0\xa5\x87\xe0\xa4\x82'
p3527
sS'drel'
p3528
S'lwg__psp:NP2'
p3529
sS'chunktype'
p3530
S'child:NP2'
p3531
sS'af'
p3532
S'\xe0\xa4\xae\xe0\xa5\x87\xe0\xa4\x82,psp,,,,,,'
p3533
ssbsg26
I00
sg27
I00
sg28
Nsg29
Nsg30
I3
sg31
I6
sg32
Nsg33
Nsg34
S'PSP'
p3534
sg36
g3521
sg37
I00
sba(issf_api
Word
p3535
(dp3536
g6
I00
sg7
V\u092a\u093e\u0930\u094d\u091f\u0940
p3537
sg9
(issf_api
FeatureSet
p3538
(dp3539
g12
(dp3540
S'posn'
p3541
S'70'
p3542
sS'name'
p3543
S'\xe0\xa4\xaa\xe0\xa4\xbe\xe0\xa4\xb0\xe0\xa5\x8d\xe0\xa4\x9f\xe0\xa5\x80'
p3544
sS'drel'
p3545
S'pof__cn:NP3'
p3546
sS'chunktype'
p3547
S'child:NP3'
p3548
sS'af'
p3549
S'\xe0\xa4\xaa\xe0\xa4\xbe\xe0\xa4\xb0\xe0\xa5\x8d\xe0\xa4\x9f\xe0\xa5\x80,n,f,sg,3,d,0,0'
p3550
ssbsg26
I00
sg27
I00
sg28
Nsg29
Nsg30
I4
sg31
I6
sg32
Nsg33
Nsg34
S'NNC'
p3551
sg36
g3538
sg37
I00
sba(issf_api
Word
p3552
(dp3553
g6
I00
sg7
V\u0928\u0947\u0924\u093e\u0913\u0902
p3554
sg9
(issf_api
FeatureSet
p3555
(dp3556
g12
(dp3557
S'posn'
p3558
S'80'
p3559
sS'name'
p3560
S'\xe0\xa4\xa8\xe0\xa5\x87\xe0\xa4\xa4\xe0\xa4\xbe\xe0\xa4\x93\xe0\xa4\x82'
p3561
sS'af'
p3562
S'\xe0\xa4\xa8\xe0\xa5\x87\xe0\xa4\xa4\xe0\xa4\xbe,n,m,pl,3,o,0_\xe0\xa4\xb8\xe0\xa5\x87,0'
p3563
sS'chunkid'
p3564
S'NP3'
p3565
sS'drel'
p3566
S'k4:VGF2'
p3567
sS'vpos'
p3568
S'vib_3'
p3569
sS'chunktype'
p3570
S'head:NP3'
p3571
ssbsg26
I00
sg27
I00
sg28
Nsg29
Nsg30
I4
sg31
I6
sg32
Nsg33
Nsg34
S'NN'
p3572
sg36
g3555
sg37
I00
sba(issf_api
Word
p3573
(dp3574
g6
I00
sg7
V\u0938\u0947
p3575
sg9
(issf_api
FeatureSet
p3576
(dp3577
g12
(dp3578
S'posn'
p3579
S'90'
p3580
sS'name'
p3581
S'\xe0\xa4\xb8\xe0\xa5\x87'
p3582
sS'drel'
p3583
S'lwg__psp:NP3'
p3584
sS'chunktype'
p3585
S'child:NP3'
p3586
sS'af'
p3587
S'\xe0\xa4\xb8\xe0\xa5\x87,psp,,,,,,'
p3588
ssbsg26
I00
sg27
I00
sg28
Nsg29
Nsg30
I4
sg31
I6
sg32
Nsg33
Nsg34
S'PSP'
p3589
sg36
g3576
sg37
I00
sba(issf_api
Word
p3590
(dp3591
g6
I00
sg7
V\u092c\u093e\u0924\u091a\u0940\u0924
p3592
sg9
(issf_api
FeatureSet
p3593
(dp3594
g12
(dp3595
S'posn'
p3596
S'100'
p3597
sS'name'
p3598
S'\xe0\xa4\xac\xe0\xa4\xbe\xe0\xa4\xa4\xe0\xa4\x9a\xe0\xa5\x80\xe0\xa4\xa4'
p3599
sS'af'
p3600
S'\xe0\xa4\xac\xe0\xa4\xbe\xe0\xa4\xa4\xe0\xa4\x9a\xe0\xa5\x80\xe0\xa4\xa4,n,f,sg,3,d,0,0'
p3601
sS'chunkid'
p3602
S'NP4'
p3603
sS'drel'
p3604
S'pof:VGF2'
p3605
sS'chunktype'
p3606
S'head:NP4'
p3607
ssbsg26
I00
sg27
I00
sg28
Nsg29
Nsg30
I5
sg31
I6
sg32
Nsg33
Nsg34
S'NN'
p3608
sg36
g3593
sg37
I00
sba(issf_api
Word
p3609
(dp3610
g6
I00
sg7
V\u0915\u0940
p3611
sg9
(issf_api
FeatureSet
p3612
(dp3613
g12
(dp3614
S'posn'
p3615
S'110'
p3616
sS'name'
p3617
S'\xe0\xa4\x95\xe0\xa5\x80'
p3618
sS'af'
p3619
S'\xe0\xa4\x95\xe0\xa4\xb0,v,f,sg,3,,\xe0\xa4\xaf\xe0\xa4\xbe_\xe0\xa4\x9c\xe0\xa4\xbe_\xe0\xa4\xb0\xe0\xa4\xb9+\xe0\xa4\xaf\xe0\xa4\xbe_\xe0\xa4\xb9\xe0\xa5\x88,yA'
p3620
sS'chunkid'
p3621
S'VGF2'
p3622
sS'stype'
p3623
S'declarative'
p3624
sS'drel'
p3625
S'ccof:CCP'
p3626
sS'voicetype'
p3627
S'passive'
p3628
sS'vpos'
p3629
S'tam_2_3_4'
p3630
sS'chunktype'
p3631
S'head:VGF2'
p3632
ssbsg26
I00
sg27
I00
sg28
Nsg29
Nsg30
I6
sg31
I6
sg32
Nsg33
Nsg34
S'VM'
p3633
sg36
g3612
sg37
I00
sba(issf_api
Word
p3634
(dp3635
g6
I00
sg7
V\u091c\u093e
p3636
sg9
(issf_api
FeatureSet
p3637
(dp3638
g12
(dp3639
S'posn'
p3640
S'120'
p3641
sS'name'
p3642
S'\xe0\xa4\x9c\xe0\xa4\xbe'
p3643
sS'drel'
p3644
S'lwg__vaux:VGF2'
p3645
sS'chunktype'
p3646
S'child:VGF2'
p3647
sS'af'
p3648
S'\xe0\xa4\x9c\xe0\xa4\xbe,v,any,any,any,,0,0'
p3649
ssbsg26
I00
sg27
I00
sg28
Nsg29
Nsg30
I6
sg31
I6
sg32
Nsg33
Nsg34
S'VAUX'
p3650
sg36
g3637
sg37
I00
sba(issf_api
Word
p3651
(dp3652
g6
I00
sg7
V\u0930\u0939\u0940
p3653
sg9
(issf_api
FeatureSet
p3654
(dp3655
g12
(dp3656
S'posn'
p3657
S'130'
p3658
sS'name'
p3659
S'\xe0\xa4\xb0\xe0\xa4\xb9\xe0\xa5\x80'
p3660
sS'drel'
p3661
S'lwg__vaux:VGF2'
p3662
sS'chunktype'
p3663
S'child:VGF2'
p3664
sS'af'
p3665
S'\xe0\xa4\xb0\xe0\xa4\xb9,v,f,sg,any,,\xe0\xa4\xaf\xe0\xa4\xbe,yA'
p3666
ssbsg26
I00
sg27
I00
sg28
Nsg29
Nsg30
I6
sg31
I6
sg32
Nsg33
Nsg34
S'VAUX'
p3667
sg36
g3654
sg37
I00
sba(issf_api
Word
p3668
(dp3669
g6
I00
sg7
V\u0939\u0948
p3670
sg9
(issf_api
FeatureSet
p3671
(dp3672
g12
(dp3673
S'posn'
p3674
S'140'
p3675
sS'name'
p3676
S'\xe0\xa4\xb9\xe0\xa5\x88'
p3677
sS'drel'
p3678
S'lwg__vaux:VGF2'
p3679
sS'chunktype'
p3680
S'child:VGF2'
p3681
sS'af'
p3682
S'\xe0\xa4\xb9\xe0\xa5\x88,v,any,sg,3,,\xe0\xa4\xb9\xe0\xa5\x88,hE'
p3683
ssbsg26
I00
sg27
I00
sg28
Nsg29
Nsg30
I6
sg31
I6
sg32
Nsg33
Nsg34
S'VAUX'
p3684
sg36
g3671
sg37
I00
sba(issf_api
Word
p3685
(dp3686
g6
I00
sg7
V\u0964
p3687
sg9
(issf_api
FeatureSet
p3688
(dp3689
g12
(dp3690
S'posn'
p3691
S'150'
p3692
sS'name'
p3693
S'\xe0\xa5\xa4'
p3694
sS'af'
p3695
S'\xe0\xa5\xa4,punc,,,,,,'
p3696
sS'chunkid'
p3697
S'BLK'
p3698
sS'drel'
p3699
S'rsym:VGF'
p3700
sS'chunktype'
p3701
S'head:BLK'
p3702
ssbsg26
I00
sg27
I00
sg28
Nsg29
Nsg30
I7
sg31
I6
sg32
Nsg33
Nsg34
S'SYM'
p3703
sg36
g3688
sg37
I00
sbasS'sentenceList'
p3704
(lp3705
(issf_api
Sentence
p3706
(dp3707
S'rootNode'
p3708
(lp3709
sg31
I0
sS'wordNumList'
p3710
(lp3711
I0
aI1
aI2
aI3
aI4
aI5
aI6
aI7
aI8
aI9
aI10
aI11
aI12
aI13
aI14
aI15
aI16
aI17
aI18
aI19
aI20
aI21
aI22
aI23
aI24
aI25
aI26
aI27
aI28
aI29
aI30
aI31
aI32
aI33
aI34
aI35
aI36
aI37
aI38
aI39
asS'nodeDict'
p3712
(dp3713
S'VGF2'
p3714
(issf_api
Node
p3715
(dp3716
S'nodeRelation'
p3717
S'ccof'
p3718
sS'nodeName'
p3719
g3714
sS'nodeParent'
p3720
S'CCP2'
p3721
sS'nodeLevel'
p3722
I-1
sg30
I19
sS'childList'
p3723
(lp3724
S'NP14'
p3725
aS'RBP'
p3726
aS'NP5'
p3727
aS'NP9'
p3728
aS'NP8'
p3729
aS'CCP3'
p3730
asbsS'NP13'
p3731
(issf_api
Node
p3732
(dp3733
g3717
S'ccof'
p3734
sg3719
g3731
sg3720
S'CCP3'
p3735
sg3722
I-1
sg30
I17
sg3723
(lp3736
S'NP12'
p3737
asbsg3725
(issf_api
Node
p3738
(dp3739
g3717
S'pof'
p3740
sg3719
g3725
sg3720
S'VGF2'
p3741
sg3722
I-1
sg30
I18
sg3723
(lp3742
sbsS'NP11'
p3743
(issf_api
Node
p3744
(dp3745
g3717
S'ccof'
p3746
sg3719
g3743
sg3720
S'CCP3'
p3747
sg3722
I-1
sg30
I14
sg3723
(lp3748
sbsS'NP10'
p3749
(issf_api
Node
p3750
(dp3751
g3717
S'ccof'
p3752
sg3719
g3749
sg3720
S'CCP3'
p3753
sg3722
I-1
sg30
I13
sg3723
(lp3754
sbsS'VGF'
p3755
(issf_api
Node
p3756
(dp3757
g3717
S'None'
p3758
sg3719
g3755
sg3720
g3758
sg3722
I-1
sg30
I5
sg3723
(lp3759
S'BLK'
p3760
aS'NP4'
p3761
aS'CCP2'
p3762
aS'NP3'
p3763
asbsg3737
(issf_api
Node
p3764
(dp3765
g3717
S'r6'
p3766
sg3719
g3737
sg3720
S'NP13'
p3767
sg3722
I-1
sg30
I16
sg3723
(lp3768
sbsS'CCP'
p3769
(issf_api
Node
p3770
(dp3771
g3717
S'nmod'
p3772
sg3719
g3769
sg3720
S'NP3'
p3773
sg3722
I-1
sg30
I1
sg3723
(lp3774
S'NP'
p3775
aS'NP2'
p3776
asbsg3726
(issf_api
Node
p3777
(dp3778
g3717
S'adv'
p3779
sg3719
g3726
sg3720
S'VGF2'
p3780
sg3722
I-1
sg30
I11
sg3723
(lp3781
sbsg3727
(issf_api
Node
p3782
(dp3783
g3717
S'k1'
p3784
sg3719
g3727
sg3720
S'VGF2'
p3785
sg3722
I-1
sg30
I7
sg3723
(lp3786
sbsg3728
(issf_api
Node
p3787
(dp3788
g3717
S'ras-k1'
p3789
sg3719
g3728
sg3720
S'VGF2'
p3790
sg3722
I-1
sg30
I12
sg3723
(lp3791
sbsg3729
(issf_api
Node
p3792
(dp3793
g3717
S'k7'
p3794
sg3719
g3729
sg3720
S'VGF2'
p3795
sg3722
I-1
sg30
I10
sg3723
(lp3796
S'NP7'
p3797
asbsg3760
(issf_api
Node
p3798
(dp3799
g3717
S'rsym'
p3800
sg3719
g3760
sg3720
S'VGF'
p3801
sg3722
I-1
sg30
I20
sg3723
(lp3802
sbsg3775
(issf_api
Node
p3803
(dp3804
g3717
S'ccof'
p3805
sg3719
g3775
sg3720
S'CCP'
p3806
sg3722
I-1
sg30
I0
sg3723
(lp3807
sbsg3761
(issf_api
Node
p3808
(dp3809
g3717
S'k7t'
p3810
sg3719
g3761
sg3720
S'VGF'
p3811
sg3722
I-1
sg30
I4
sg3723
(lp3812
sbsg3797
(issf_api
Node
p3813
(dp3814
g3717
S'r6'
p3815
sg3719
g3797
sg3720
S'NP8'
p3816
sg3722
I-1
sg30
I9
sg3723
(lp3817
S'NP6'
p3818
asbsg3818
(issf_api
Node
p3819
(dp3820
g3717
S'r6'
p3821
sg3719
g3818
sg3720
S'NP7'
p3822
sg3722
I-1
sg30
I8
sg3723
(lp3823
sbsg3762
(issf_api
Node
p3824
(dp3825
g3717
S'k2'
p3826
sg3719
g3762
sg3720
S'VGF'
p3827
sg3722
I-1
sg30
I6
sg3723
(lp3828
g3714
asbsg3730
(issf_api
Node
p3829
(dp3830
g3717
S'k2'
p3831
sg3719
g3730
sg3720
S'VGF2'
p3832
sg3722
I-1
sg30
I15
sg3723
(lp3833
g3731
ag3743
ag3749
asbsg3763
(issf_api
Node
p3834
(dp3835
g3717
S'k1'
p3836
sg3719
g3763
sg3720
S'VGF'
p3837
sg3722
I-1
sg30
I3
sg3723
(lp3838
g3769
asbsg3776
(issf_api
Node
p3839
(dp3840
g3717
S'ccof'
p3841
sg3719
g3776
sg3720
S'CCP'
p3842
sg3722
I-1
sg30
I2
sg3723
(lp3843
sbssS'chunkList'
p3844
(lp3845
(issf_api
Chunk
p3846
(dp3847
g3719
g76
sg30
I0
sS'chunkTag'
p3848
g83
sg31
I0
sg3710
(lp3849
I0
aI1
aI2
asg36
(issf_api
FeatureSet
p3850
(dp3851
g12
(dp3852
S'name'
p3853
g3775
sS'drel'
p3854
S'ccof:CCP'
p3855
ssbsba(issf_api
Chunk
p3856
(dp3857
g3719
g97
sg30
I1
sg3848
g102
sg31
I0
sg3710
(lp3858
I3
asg36
(issf_api
FeatureSet
p3859
(dp3860
g12
(dp3861
S'name'
p3862
g3769
sS'drel'
p3863
S'nmod:NP3'
p3864
ssbsba(issf_api
Chunk
p3865
(dp3866
g3719
g156
sg30
I2
sg3848
g165
sg31
I0
sg3710
(lp3867
I4
aI5
aI6
asg36
(issf_api
FeatureSet
p3868
(dp3869
g12
(dp3870
S'name'
p3871
g3776
sS'drel'
p3872
S'ccof:CCP'
p3873
ssbsba(issf_api
Chunk
p3874
(dp3875
g3719
g200
sg30
I3
sg3848
g213
sg31
I0
sg3710
(lp3876
I7
aI8
aI9
asg36
(issf_api
FeatureSet
p3877
(dp3878
g12
(dp3879
S'name'
p3880
g3763
sS'drel'
p3881
S'k1:VGF'
p3882
ssbsba(issf_api
Chunk
p3883
(dp3884
g3719
g244
sg30
I4
sg3848
g251
sg31
I0
sg3710
(lp3885
I10
aI11
asg36
(issf_api
FeatureSet
p3886
(dp3887
g12
(dp3888
S'name'
p3889
g3761
sS'drel'
p3890
S'k7t:VGF'
p3891
ssbsba(issf_api
Chunk
p3892
(dp3893
g3719
g282
sg30
I5
sg3848
g289
sg31
I0
sg3710
(lp3894
I12
asg36
(issf_api
FeatureSet
p3895
(dp3896
g12
(dp3897
S'name'
p3898
g3755
ssbsba(issf_api
Chunk
p3899
(dp3900
g3719
g303
sg30
I6
sg3848
g308
sg31
I0
sg3710
(lp3901
I13
asg36
(issf_api
FeatureSet
p3902
(dp3903
g12
(dp3904
S'name'
p3905
g3762
sS'drel'
p3906
S'k2:VGF'
p3907
ssbsba(issf_api
Chunk
p3908
(dp3909
g3719
g324
sg30
I7
sg3848
g333
sg31
I0
sg3710
(lp3910
I14
asg36
(issf_api
FeatureSet
p3911
(dp3912
g12
(dp3913
S'name'
p3914
g3727
sS'drel'
p3915
S'k1:VGF2'
p3916
ssbsba(issf_api
Chunk
p3917
(dp3918
g3719
g349
sg30
I8
sg3848
g358
sg31
I0
sg3710
(lp3919
I15
aI16
asg36
(issf_api
FeatureSet
p3920
(dp3921
g12
(dp3922
S'name'
p3923
g3818
sS'drel'
p3924
S'r6:NP7'
p3925
ssbsba(issf_api
Chunk
p3926
(dp3927
g3719
g389
sg30
I9
sg3848
g396
sg31
I0
sg3710
(lp3928
I17
aI18
asg36
(issf_api
FeatureSet
p3929
(dp3930
g12
(dp3931
S'name'
p3932
g3797
sS'drel'
p3933
S'r6:NP8'
p3934
ssbsba(issf_api
Chunk
p3935
(dp3936
g3719
g427
sg30
I10
sg3848
g434
sg31
I0
sg3710
(lp3937
I19
aI20
asg36
(issf_api
FeatureSet
p3938
(dp3939
g12
(dp3940
S'name'
p3941
g3729
sS'drel'
p3942
S'k7:VGF2'
p3943
ssbsba(issf_api
Chunk
p3944
(dp3945
g3719
g465
sg30
I11
sg3848
g470
sg31
I0
sg3710
(lp3946
I21
aI22
asg36
(issf_api
FeatureSet
p3947
(dp3948
g12
(dp3949
S'name'
p3950
g3726
sS'drel'
p3951
S'adv:VGF2'
p3952
ssbsba(issf_api
Chunk
p3953
(dp3954
g3719
g522
sg30
I12
sg3848
g533
sg31
I0
sg3710
(lp3955
I23
aI24
aI25
aI26
asg36
(issf_api
FeatureSet
p3956
(dp3957
g12
(dp3958
S'name'
p3959
g3728
sS'drel'
p3960
S'ras-k1:VGF2'
p3961
ssbsba(issf_api
Chunk
p3962
(dp3963
g3719
g583
sg30
I13
sg3848
g590
sg31
I0
sg3710
(lp3964
I27
aI28
asg36
(issf_api
FeatureSet
p3965
(dp3966
g12
(dp3967
S'name'
p3968
g3749
sS'drel'
p3969
S'ccof:CCP3'
p3970
ssbsba(issf_api
Chunk
p3971
(dp3972
g3719
g646
sg30
I14
sg3848
g653
sg31
I0
sg3710
(lp3973
I29
aI30
asg36
(issf_api
FeatureSet
p3974
(dp3975
g12
(dp3976
S'name'
p3977
g3743
sS'drel'
p3978
S'ccof:CCP3'
p3979
ssbsba(issf_api
Chunk
p3980
(dp3981
g3719
g667
sg30
I15
sg3848
g672
sg31
I0
sg3710
(lp3982
I31
asg36
(issf_api
FeatureSet
p3983
(dp3984
g12
(dp3985
S'name'
p3986
g3730
sS'drel'
p3987
S'k2:VGF2'
p3988
ssbsba(issf_api
Chunk
p3989
(dp3990
g3719
g703
sg30
I16
sg3848
g710
sg31
I0
sg3710
(lp3991
I32
aI33
aI34
asg36
(issf_api
FeatureSet
p3992
(dp3993
g12
(dp3994
S'name'
p3995
g3737
sS'drel'
p3996
S'r6:NP13'
p3997
ssbsba(issf_api
Chunk
p3998
(dp3999
g3719
g741
sg30
I17
sg3848
g748
sg31
I0
sg3710
(lp4000
I35
aI36
asg36
(issf_api
FeatureSet
p4001
(dp4002
g12
(dp4003
S'name'
p4004
g3731
sS'drel'
p4005
S'ccof:CCP3'
p4006
ssbsba(issf_api
Chunk
p4007
(dp4008
g3719
g779
sg30
I18
sg3848
g784
sg31
I0
sg3710
(lp4009
I37
asg36
(issf_api
FeatureSet
p4010
(dp4011
g12
(dp4012
S'name'
p4013
g3725
sS'drel'
p4014
S'pof:VGF2'
p4015
ssbsba(issf_api
Chunk
p4016
(dp4017
g3719
g798
sg30
I19
sg3848
g807
sg31
I0
sg3710
(lp4018
I38
asg36
(issf_api
FeatureSet
p4019
(dp4020
g12
(dp4021
S'name'
p4022
g3714
sS'drel'
p4023
S'ccof:CCP2'
p4024
ssbsba(issf_api
Chunk
p4025
(dp4026
g3719
g821
sg30
I20
sg3848
g826
sg31
I0
sg3710
(lp4027
I39
asg36
(issf_api
FeatureSet
p4028
(dp4029
g12
(dp4030
S'name'
p4031
g3760
sS'drel'
p4032
S'rsym:VGF'
p4033
ssbsbasba(issf_api
Sentence
p4034
(dp4035
g3708
(lp4036
sg31
I1
sg3710
(lp4037
I40
aI41
aI42
aI43
aI44
aI45
aI46
aI47
aI48
aI49
aI50
aI51
aI52
aI53
aI54
aI55
aI56
aI57
aI58
aI59
aI60
aI61
aI62
aI63
aI64
aI65
aI66
aI67
aI68
asg3712
(dp4038
S'VGNN'
p4039
(issf_api
Node
p4040
(dp4041
g3717
S'r6'
p4042
sg3719
g4039
sg3720
S'NP4'
p4043
sg3722
I-1
sg30
I5
sg3723
(lp4044
S'NP3'
p4045
aS'NP2'
p4046
asbsS'VGF'
p4047
(issf_api
Node
p4048
(dp4049
g3717
g3758
sg3719
g4047
sg3720
g3758
sg3722
I-1
sg30
I1
sg3723
(lp4050
S'CCP'
p4051
aS'BLK'
p4052
aS'NP'
p4053
asbsg4051
(issf_api
Node
p4054
(dp4055
g3717
S'k2'
p4056
sg3719
g4051
sg3720
S'VGF'
p4057
sg3722
I-1
sg30
I2
sg3723
(lp4058
S'VGF2'
p4059
asbsg4059
(issf_api
Node
p4060
(dp4061
g3717
S'ccof'
p4062
sg3719
g4059
sg3720
S'CCP'
p4063
sg3722
I-1
sg30
I12
sg3723
(lp4064
S'NP5'
p4065
aS'NP4'
p4066
aS'NP6'
p4067
aS'CCP2'
p4068
asbsg4065
(issf_api
Node
p4069
(dp4070
g3717
S'k1'
p4071
sg3719
g4065
sg3720
S'VGF2'
p4072
sg3722
I-1
sg30
I7
sg3723
(lp4073
sbsS'NP8'
p4074
(issf_api
Node
p4075
(dp4076
g3717
S'ccof'
p4077
sg3719
g4074
sg3720
S'CCP2'
p4078
sg3722
I-1
sg30
I11
sg3723
(lp4079
sbsg4052
(issf_api
Node
p4080
(dp4081
g3717
S'rsym'
p4082
sg3719
g4052
sg3720
S'VGF'
p4083
sg3722
I-1
sg30
I13
sg3723
(lp4084
sbsg4053
(issf_api
Node
p4085
(dp4086
g3717
S'k1'
p4087
sg3719
g4053
sg3720
S'VGF'
p4088
sg3722
I-1
sg30
I0
sg3723
(lp4089
sbsg4066
(issf_api
Node
p4090
(dp4091
g3717
S'k7'
p4092
sg3719
g4066
sg3720
S'VGF2'
p4093
sg3722
I-1
sg30
I6
sg3723
(lp4094
g4039
asbsS'NP7'
p4095
(issf_api
Node
p4096
(dp4097
g3717
S'ccof'
p4098
sg3719
g4095
sg3720
S'CCP2'
p4099
sg3722
I-1
sg30
I9
sg3723
(lp4100
sbsg4067
(issf_api
Node
p4101
(dp4102
g3717
S'ras-k1'
p4103
sg3719
g4067
sg3720
S'VGF2'
p4104
sg3722
I-1
sg30
I8
sg3723
(lp4105
sbsg4068
(issf_api
Node
p4106
(dp4107
g3717
S'k2'
p4108
sg3719
g4068
sg3720
S'VGF2'
p4109
sg3722
I-1
sg30
I10
sg3723
(lp4110
g4074
ag4095
asbsg4045
(issf_api
Node
p4111
(dp4112
g3717
S'k2'
p4113
sg3719
g4045
sg3720
S'VGNN'
p4114
sg3722
I-1
sg30
I4
sg3723
(lp4115
sbsg4046
(issf_api
Node
p4116
(dp4117
g3717
S'k4'
p4118
sg3719
g4046
sg3720
S'VGNN'
p4119
sg3722
I-1
sg30
I3
sg3723
(lp4120
sbssg3844
(lp4121
(issf_api
Chunk
p4122
(dp4123
g3719
g842
sg30
I0
sg3848
g853
sg31
I1
sg3710
(lp4124
I40
aI41
asg36
(issf_api
FeatureSet
p4125
(dp4126
g12
(dp4127
S'name'
p4128
g4053
sS'drel'
p4129
S'k1:VGF'
p4130
ssbsba(issf_api
Chunk
p4131
(dp4132
g3719
g884
sg30
I1
sg3848
g891
sg31
I1
sg3710
(lp4133
I42
asg36
(issf_api
FeatureSet
p4134
(dp4135
g12
(dp4136
S'name'
p4137
g4047
ssbsba(issf_api
Chunk
p4138
(dp4139
g3719
g905
sg30
I2
sg3848
g910
sg31
I1
sg3710
(lp4140
I43
asg36
(issf_api
FeatureSet
p4141
(dp4142
g12
(dp4143
S'name'
p4144
g4051
sS'drel'
p4145
S'k2:VGF'
p4146
ssbsba(issf_api
Chunk
p4147
(dp4148
g3719
g945
sg30
I3
sg3848
g958
sg31
I1
sg3710
(lp4149
I44
aI45
aI46
asg36
(issf_api
FeatureSet
p4150
(dp4151
g12
(dp4152
S'name'
p4153
g4046
sS'drel'
p4154
S'k4:VGNN'
p4155
ssbsba(issf_api
Chunk
p4156
(dp4157
g3719
g1006
sg30
I4
sg3848
g1011
sg31
I1
sg3710
(lp4158
I47
aI48
asg36
(issf_api
FeatureSet
p4159
(dp4160
g12
(dp4161
S'name'
p4162
g4045
sS'drel'
p4163
S'k2:VGNN'
p4164
ssbsba(issf_api
Chunk
p4165
(dp4166
g3719
g1025
sg30
I5
sg3848
g1032
sg31
I1
sg3710
(lp4167
I49
aI50
asg36
(issf_api
FeatureSet
p4168
(dp4169
g12
(dp4170
S'name'
p4171
g4039
sS'drel'
p4172
S'r6:NP4'
p4173
ssbsba(issf_api
Chunk
p4174
(dp4175
g3719
g1063
sg30
I6
sg3848
g1070
sg31
I1
sg3710
(lp4176
I51
aI52
asg36
(issf_api
FeatureSet
p4177
(dp4178
g12
(dp4179
S'name'
p4180
g4066
sS'drel'
p4181
S'k7:VGF2'
p4182
ssbsba(issf_api
Chunk
p4183
(dp4184
g3719
g1103
sg30
I7
sg3848
g1112
sg31
I1
sg3710
(lp4185
I53
asg36
(issf_api
FeatureSet
p4186
(dp4187
g12
(dp4188
S'name'
p4189
g4065
sS'drel'
p4190
S'k1:VGF2'
p4191
ssbsba(issf_api
Chunk
p4192
(dp4193
g3719
g1147
sg30
I8
sg3848
g1158
sg31
I1
sg3710
(lp4194
I54
aI55
aI56
aI57
asg36
(issf_api
FeatureSet
p4195
(dp4196
g12
(dp4197
S'name'
p4198
g4067
sS'drel'
p4199
S'ras-k1:VGF2'
p4200
ssbsba(issf_api
Chunk
p4201
(dp4202
g3719
g1250
sg30
I9
sg3848
g1261
sg31
I1
sg3710
(lp4203
I58
aI59
aI60
asg36
(issf_api
FeatureSet
p4204
(dp4205
g12
(dp4206
S'name'
p4207
g4095
sS'drel'
p4208
S'ccof:CCP2'
p4209
ssbsba(issf_api
Chunk
p4210
(dp4211
g3719
g1275
sg30
I10
sg3848
g1280
sg31
I1
sg3710
(lp4212
I61
asg36
(issf_api
FeatureSet
p4213
(dp4214
g12
(dp4215
S'name'
p4216
g4068
sS'drel'
p4217
S'k2:VGF2'
p4218
ssbsba(issf_api
Chunk
p4219
(dp4220
g3719
g1361
sg30
I11
sg3848
g1374
sg31
I1
sg3710
(lp4221
I62
aI63
aI64
aI65
aI66
asg36
(issf_api
FeatureSet
p4222
(dp4223
g12
(dp4224
S'name'
p4225
g4074
sS'drel'
p4226
S'ccof:CCP2'
p4227
ssbsba(issf_api
Chunk
p4228
(dp4229
g3719
g1405
sg30
I12
sg3848
g1414
sg31
I1
sg3710
(lp4230
I67
asg36
(issf_api
FeatureSet
p4231
(dp4232
g12
(dp4233
S'name'
p4234
g4059
sS'drel'
p4235
S'ccof:CCP'
p4236
ssbsba(issf_api
Chunk
p4237
(dp4238
g3719
g1428
sg30
I13
sg3848
g1433
sg31
I1
sg3710
(lp4239
I68
asg36
(issf_api
FeatureSet
p4240
(dp4241
g12
(dp4242
S'name'
p4243
g4052
sS'drel'
p4244
S'rsym:VGF'
p4245
ssbsbasba(issf_api
Sentence
p4246
(dp4247
g3708
(lp4248
sg31
I2
sg3710
(lp4249
I69
aI70
aI71
aI72
aI73
aI74
aI75
aI76
aI77
aI78
aI79
aI80
aI81
aI82
aI83
aI84
aI85
aI86
aI87
aI88
aI89
asg3712
(dp4250
S'VGNN'
p4251
(issf_api
Node
p4252
(dp4253
g3717
S'k7t'
p4254
sg3719
g4251
sg3720
S'VGF'
p4255
sg3722
I-1
sg30
I4
sg3723
(lp4256
S'NP4'
p4257
asbsS'VGF'
p4258
(issf_api
Node
p4259
(dp4260
g3717
g3758
sg3719
g4258
sg3720
g3758
sg3722
I-1
sg30
I7
sg3723
(lp4261
g4251
aS'NP5'
p4262
aS'BLK'
p4263
aS'NP'
p4264
aS'NP6'
p4265
aS'NP3'
p4266
aS'NP2'
p4267
asbsg4262
(issf_api
Node
p4268
(dp4269
g3717
S'k2'
p4270
sg3719
g4262
sg3720
S'VGF'
p4271
sg3722
I-1
sg30
I5
sg3723
(lp4272
sbsg4263
(issf_api
Node
p4273
(dp4274
g3717
S'rsym'
p4275
sg3719
g4263
sg3720
S'VGF'
p4276
sg3722
I-1
sg30
I8
sg3723
(lp4277
sbsg4264
(issf_api
Node
p4278
(dp4279
g3717
S'k1'
p4280
sg3719
g4264
sg3720
S'VGF'
p4281
sg3722
I-1
sg30
I0
sg3723
(lp4282
sbsg4257
(issf_api
Node
p4283
(dp4284
g3717
S'pof'
p4285
sg3719
g4257
sg3720
S'VGNN'
p4286
sg3722
I-1
sg30
I3
sg3723
(lp4287
sbsg4265
(issf_api
Node
p4288
(dp4289
g3717
S'pof'
p4290
sg3719
g4265
sg3720
S'VGF'
p4291
sg3722
I-1
sg30
I6
sg3723
(lp4292
sbsg4266
(issf_api
Node
p4293
(dp4294
g3717
S'k7'
p4295
sg3719
g4266
sg3720
S'VGF'
p4296
sg3722
I-1
sg30
I2
sg3723
(lp4297
sbsg4267
(issf_api
Node
p4298
(dp4299
g3717
S'rt'
p4300
sg3719
g4267
sg3720
S'VGF'
p4301
sg3722
I-1
sg30
I1
sg3723
(lp4302
sbssg3844
(lp4303
(issf_api
Chunk
p4304
(dp4305
g3719
g1449
sg30
I0
sg3848
g1458
sg31
I2
sg3710
(lp4306
I69
asg36
(issf_api
FeatureSet
p4307
(dp4308
g12
(dp4309
S'name'
p4310
g4264
sS'drel'
p4311
S'k1:VGF'
p4312
ssbsba(issf_api
Chunk
p4313
(dp4314
g3719
g1533
sg30
I1
sg3848
g1546
sg31
I2
sg3710
(lp4315
I70
aI71
aI72
aI73
aI74
aI75
asg36
(issf_api
FeatureSet
p4316
(dp4317
g12
(dp4318
S'name'
p4319
g4267
sS'drel'
p4320
S'rt:VGF'
p4321
ssbsba(issf_api
Chunk
p4322
(dp4323
g3719
g1611
sg30
I2
sg3848
g1618
sg31
I2
sg3710
(lp4324
I76
aI77
aI78
asg36
(issf_api
FeatureSet
p4325
(dp4326
g12
(dp4327
S'name'
p4328
g4266
sS'drel'
p4329
S'k7:VGF'
p4330
ssbsba(issf_api
Chunk
p4331
(dp4332
g3719
g1649
sg30
I3
sg3848
g1654
sg31
I2
sg3710
(lp4333
I79
asg36
(issf_api
FeatureSet
p4334
(dp4335
g12
(dp4336
S'name'
p4337
g4257
sS'drel'
p4338
S'pof:VGNN'
p4339
ssbsba(issf_api
Chunk
p4340
(dp4341
g3719
g1668
sg30
I4
sg3848
g1675
sg31
I2
sg3710
(lp4342
I80
aI81
aI82
asg36
(issf_api
FeatureSet
p4343
(dp4344
g12
(dp4345
S'name'
p4346
g4251
sS'drel'
p4347
S'k7t:VGF'
p4348
ssbsba(issf_api
Chunk
p4349
(dp4350
g3719
g1723
sg30
I5
sg3848
g1730
sg31
I2
sg3710
(lp4351
I83
aI84
asg36
(issf_api
FeatureSet
p4352
(dp4353
g12
(dp4354
S'name'
p4355
g4262
sS'drel'
p4356
S'k2:VGF'
p4357
ssbsba(issf_api
Chunk
p4358
(dp4359
g3719
g1761
sg30
I6
sg3848
g1766
sg31
I2
sg3710
(lp4360
I85
asg36
(issf_api
FeatureSet
p4361
(dp4362
g12
(dp4363
S'name'
p4364
g4265
sS'drel'
p4365
S'pof:VGF'
p4366
ssbsba(issf_api
Chunk
p4367
(dp4368
g3719
g1780
sg30
I7
sg3848
g1789
sg31
I2
sg3710
(lp4369
I86
aI87
aI88
asg36
(issf_api
FeatureSet
p4370
(dp4371
g12
(dp4372
S'name'
p4373
g4258
ssbsba(issf_api
Chunk
p4374
(dp4375
g3719
g1837
sg30
I8
sg3848
g1842
sg31
I2
sg3710
(lp4376
I89
asg36
(issf_api
FeatureSet
p4377
(dp4378
g12
(dp4379
S'name'
p4380
g4263
sS'drel'
p4381
S'rsym:VGF'
p4382
ssbsbasba(issf_api
Sentence
p4383
(dp4384
g3708
(lp4385
sg31
I3
sg3710
(lp4386
I90
aI91
aI92
aI93
aI94
aI95
aI96
aI97
aI98
aI99
aI100
aI101
aI102
aI103
aI104
aI105
aI106
aI107
aI108
aI109
aI110
aI111
aI112
aI113
aI114
aI115
asg3712
(dp4387
S'VGNF'
p4388
(issf_api
Node
p4389
(dp4390
g3717
S'nmod__k2inv'
p4391
sg3719
g4388
sg3720
S'NP4'
p4392
sg3722
I-1
sg30
I3
sg3723
(lp4393
S'NP'
p4394
aS'NP3'
p4395
aS'NP2'
p4396
asbsS'VGF'
p4397
(issf_api
Node
p4398
(dp4399
g3717
g3758
sg3719
g4397
sg3720
g3758
sg3722
I-1
sg30
I6
sg3723
(lp4400
S'CCP'
p4401
aS'NP5'
p4402
aS'BLK'
p4403
aS'NP4'
p4404
asbsg4401
(issf_api
Node
p4405
(dp4406
g3717
S'k2'
p4407
sg3719
g4401
sg3720
S'VGF'
p4408
sg3722
I-1
sg30
I7
sg3723
(lp4409
S'VGF2'
p4410
asbsS'JJP'
p4411
(issf_api
Node
p4412
(dp4413
g3717
S'pof'
p4414
sg3719
g4411
sg3720
S'VGF2'
p4415
sg3722
I-1
sg30
I11
sg3723
(lp4416
sbsg4410
(issf_api
Node
p4417
(dp4418
g3717
S'ccof'
p4419
sg3719
g4410
sg3720
S'CCP'
p4420
sg3722
I-1
sg30
I12
sg3723
(lp4421
g4411
aS'NP8'
p4422
aS'NP7'
p4423
aS'NP6'
p4424
asbsg4402
(issf_api
Node
p4425
(dp4426
g3717
S'k1'
p4427
sg3719
g4402
sg3720
S'VGF'
p4428
sg3722
I-1
sg30
I5
sg3723
(lp4429
sbsg4422
(issf_api
Node
p4430
(dp4431
g3717
S'k2'
p4432
sg3719
g4422
sg3720
S'VGF2'
p4433
sg3722
I-1
sg30
I10
sg3723
(lp4434
sbsg4403
(issf_api
Node
p4435
(dp4436
g3717
S'rsym'
p4437
sg3719
g4403
sg3720
S'VGF'
p4438
sg3722
I-1
sg30
I13
sg3723
(lp4439
sbsg4394
(issf_api
Node
p4440
(dp4441
g3717
S'k1'
p4442
sg3719
g4394
sg3720
S'VGNF'
p4443
sg3722
I-1
sg30
I0
sg3723
(lp4444
sbsg4404
(issf_api
Node
p4445
(dp4446
g3717
S'k7'
p4447
sg3719
g4404
sg3720
S'VGF'
p4448
sg3722
I-1
sg30
I4
sg3723
(lp4449
g4388
asbsg4423
(issf_api
Node
p4450
(dp4451
g3717
S'rt'
p4452
sg3719
g4423
sg3720
S'VGF2'
p4453
sg3722
I-1
sg30
I9
sg3723
(lp4454
sbsg4424
(issf_api
Node
p4455
(dp4456
g3717
S'k1'
p4457
sg3719
g4424
sg3720
S'VGF2'
p4458
sg3722
I-1
sg30
I8
sg3723
(lp4459
sbsg4395
(issf_api
Node
p4460
(dp4461
g3717
S'k4'
p4462
sg3719
g4395
sg3720
S'VGNF'
p4463
sg3722
I-1
sg30
I2
sg3723
(lp4464
sbsg4396
(issf_api
Node
p4465
(dp4466
g3717
S'k7t'
p4467
sg3719
g4396
sg3720
S'VGNF'
p4468
sg3722
I-1
sg30
I1
sg3723
(lp4469
sbssg3844
(lp4470
(issf_api
Chunk
p4471
(dp4472
g3719
g1917
sg30
I0
sg3848
g1930
sg31
I3
sg3710
(lp4473
I90
aI91
aI92
aI93
aI94
asg36
(issf_api
FeatureSet
p4474
(dp4475
g12
(dp4476
S'name'
p4477
g4394
sS'drel'
p4478
S'k1:VGNF'
p4479
ssbsba(issf_api
Chunk
p4480
(dp4481
g3719
g1961
sg30
I1
sg3848
g1968
sg31
I3
sg3710
(lp4482
I95
aI96
aI97
asg36
(issf_api
FeatureSet
p4483
(dp4484
g12
(dp4485
S'name'
p4486
g4396
sS'drel'
p4487
S'k7t:VGNF'
p4488
ssbsba(issf_api
Chunk
p4489
(dp4490
g3719
g2018
sg30
I2
sg3848
g2029
sg31
I3
sg3710
(lp4491
I98
aI99
asg36
(issf_api
FeatureSet
p4492
(dp4493
g12
(dp4494
S'name'
p4495
g4395
sS'drel'
p4496
S'k4:VGNF'
p4497
ssbsba(issf_api
Chunk
p4498
(dp4499
g3719
g2060
sg30
I3
sg3848
g2065
sg31
I3
sg3710
(lp4500
I100
asg36
(issf_api
FeatureSet
p4501
(dp4502
g12
(dp4503
S'name'
p4504
g4388
sS'drel'
p4505
S'nmod__k2inv:NP4'
p4506
ssbsba(issf_api
Chunk
p4507
(dp4508
g3719
g2081
sg30
I4
sg3848
g2092
sg31
I3
sg3710
(lp4509
I101
aI102
asg36
(issf_api
FeatureSet
p4510
(dp4511
g12
(dp4512
S'name'
p4513
g4404
sS'drel'
p4514
S'k7:VGF'
p4515
ssbsba(issf_api
Chunk
p4516
(dp4517
g3719
g2125
sg30
I5
sg3848
g2134
sg31
I3
sg3710
(lp4518
I103
asg36
(issf_api
FeatureSet
p4519
(dp4520
g12
(dp4521
S'name'
p4522
g4402
sS'drel'
p4523
S'k1:VGF'
p4524
ssbsba(issf_api
Chunk
p4525
(dp4526
g3719
g2148
sg30
I6
sg3848
g2155
sg31
I3
sg3710
(lp4527
I104
asg36
(issf_api
FeatureSet
p4528
(dp4529
g12
(dp4530
S'name'
p4531
g4397
ssbsba(issf_api
Chunk
p4532
(dp4533
g3719
g2169
sg30
I7
sg3848
g2174
sg31
I3
sg3710
(lp4534
I105
asg36
(issf_api
FeatureSet
p4535
(dp4536
g12
(dp4537
S'name'
p4538
g4401
sS'drel'
p4539
S'k2:VGF'
p4540
ssbsba(issf_api
Chunk
p4541
(dp4542
g3719
g2190
sg30
I8
sg3848
g2199
sg31
I3
sg3710
(lp4543
I106
asg36
(issf_api
FeatureSet
p4544
(dp4545
g12
(dp4546
S'name'
p4547
g4424
sS'drel'
p4548
S'k1:VGF2'
p4549
ssbsba(issf_api
Chunk
p4550
(dp4551
g3719
g2215
sg30
I9
sg3848
g2226
sg31
I3
sg3710
(lp4552
I107
aI108
asg36
(issf_api
FeatureSet
p4553
(dp4554
g12
(dp4555
S'name'
p4556
g4423
sS'drel'
p4557
S'rt:VGF2'
p4558
ssbsba(issf_api
Chunk
p4559
(dp4560
g3719
g2278
sg30
I10
sg3848
g2285
sg31
I3
sg3710
(lp4561
I109
aI110
asg36
(issf_api
FeatureSet
p4562
(dp4563
g12
(dp4564
S'name'
p4565
g4422
sS'drel'
p4566
S'k2:VGF2'
p4567
ssbsba(issf_api
Chunk
p4568
(dp4569
g3719
g2299
sg30
I11
sg3848
g2306
sg31
I3
sg3710
(lp4570
I111
asg36
(issf_api
FeatureSet
p4571
(dp4572
g12
(dp4573
S'name'
p4574
g4411
sS'drel'
p4575
S'pof:VGF2'
p4576
ssbsba(issf_api
Chunk
p4577
(dp4578
g3719
g2322
sg30
I12
sg3848
g2337
sg31
I3
sg3710
(lp4579
I112
aI113
aI114
asg36
(issf_api
FeatureSet
p4580
(dp4581
g12
(dp4582
S'name'
p4583
g4410
sS'drel'
p4584
S'ccof:CCP'
p4585
ssbsba(issf_api
Chunk
p4586
(dp4587
g3719
g2389
sg30
I13
sg3848
g2394
sg31
I3
sg3710
(lp4588
I115
asg36
(issf_api
FeatureSet
p4589
(dp4590
g12
(dp4591
S'name'
p4592
g4403
sS'drel'
p4593
S'rsym:VGF'
p4594
ssbsbasba(issf_api
Sentence
p4595
(dp4596
g3708
(lp4597
sg31
I4
sg3710
(lp4598
I116
aI117
aI118
aI119
aI120
aI121
aI122
aI123
aI124
aI125
aI126
aI127
aI128
aI129
aI130
aI131
aI132
aI133
aI134
aI135
aI136
aI137
aI138
aI139
aI140
aI141
aI142
asg3712
(dp4599
S'VGF2'
p4600
(issf_api
Node
p4601
(dp4602
g3717
S'ccof'
p4603
sg3719
g4600
sg3720
S'CCP'
p4604
sg3722
I-1
sg30
I6
sg3723
(lp4605
S'NP'
p4606
aS'CCP2'
p4607
aS'NP3'
p4608
asbsS'VGNN'
p4609
(issf_api
Node
p4610
(dp4611
g3717
S'r6'
p4612
sg3719
g4609
sg3720
S'NP6'
p4613
sg3722
I-1
sg30
I10
sg3723
(lp4614
S'NP5'
p4615
aS'NP4'
p4616
asbsS'VGF'
p4617
(issf_api
Node
p4618
(dp4619
g3717
g3758
sg3719
g4617
sg3720
g3758
sg3722
I-1
sg30
I1
sg3723
(lp4620
S'JJP'
p4621
aS'BLK'
p4622
asbsS'VGF3'
p4623
(issf_api
Node
p4624
(dp4625
g3717
S'ccof'
p4626
sg3719
g4623
sg3720
S'CCP2'
p4627
sg3722
I-1
sg30
I16
sg3723
(lp4628
S'NP9'
p4629
aS'NP6'
p4630
asbsS'CCP'
p4631
(issf_api
Node
p4632
(dp4633
g3717
S'rs'
p4634
sg3719
g4631
sg3720
S'NULL__NP'
p4635
sg3722
I-1
sg30
I2
sg3723
(lp4636
g4600
asbsg4621
(issf_api
Node
p4637
(dp4638
g3717
S'k1s'
p4639
sg3719
g4621
sg3720
S'VGF'
p4640
sg3722
I-1
sg30
I0
sg3723
(lp4641
sbsg4615
(issf_api
Node
p4642
(dp4643
g3717
S'k2'
p4644
sg3719
g4615
sg3720
S'VGNN'
p4645
sg3722
I-1
sg30
I9
sg3723
(lp4646
sbsg4629
(issf_api
Node
p4647
(dp4648
g3717
S'k1'
p4649
sg3719
g4629
sg3720
S'VGF3'
p4650
sg3722
I-1
sg30
I15
sg3723
(lp4651
S'CCP3'
p4652
asbsS'NP8'
p4653
(issf_api
Node
p4654
(dp4655
g3717
S'ccof'
p4656
sg3719
g4653
sg3720
S'CCP3'
p4657
sg3722
I-1
sg30
I14
sg3723
(lp4658
sbsg4622
(issf_api
Node
p4659
(dp4660
g3717
S'rsym'
p4661
sg3719
g4622
sg3720
S'VGF'
p4662
sg3722
I-1
sg30
I17
sg3723
(lp4663
sbsS'NULL__NP'
p4664
(issf_api
Node
p4665
(dp4666
g3717
g3758
sg3719
g4664
sg3720
g3758
sg3722
I-1
sg30
I-1
sg3723
(lp4667
g4631
asbsg4606
(issf_api
Node
p4668
(dp4669
g3717
S'k1'
p4670
sg3719
g4606
sg3720
S'VGF2'
p4671
sg3722
I-1
sg30
I3
sg3723
(lp4672
sbsg4616
(issf_api
Node
p4673
(dp4674
g3717
S'k4'
p4675
sg3719
g4616
sg3720
S'VGNN'
p4676
sg3722
I-1
sg30
I8
sg3723
(lp4677
sbsS'NP7'
p4678
(issf_api
Node
p4679
(dp4680
g3717
S'ccof'
p4681
sg3719
g4678
sg3720
S'CCP3'
p4682
sg3722
I-1
sg30
I12
sg3723
(lp4683
sbsg4630
(issf_api
Node
p4684
(dp4685
g3717
S'k7'
p4686
sg3719
g4630
sg3720
S'VGF3'
p4687
sg3722
I-1
sg30
I11
sg3723
(lp4688
g4609
asbsg4607
(issf_api
Node
p4689
(dp4690
g3717
S'k2'
p4691
sg3719
g4607
sg3720
S'VGF2'
p4692
sg3722
I-1
sg30
I7
sg3723
(lp4693
g4623
asbsg4652
(issf_api
Node
p4694
(dp4695
g3717
S'r6'
p4696
sg3719
g4652
sg3720
S'NP9'
p4697
sg3722
I-1
sg30
I13
sg3723
(lp4698
g4653
ag4678
asbsg4608
(issf_api
Node
p4699
(dp4700
g3717
S'k7'
p4701
sg3719
g4608
sg3720
S'VGF2'
p4702
sg3722
I-1
sg30
I5
sg3723
(lp4703
S'NP2'
p4704
asbsg4704
(issf_api
Node
p4705
(dp4706
g3717
S'r6'
p4707
sg3719
g4704
sg3720
S'NP3'
p4708
sg3722
I-1
sg30
I4
sg3723
(lp4709
sbssg3844
(lp4710
(issf_api
Chunk
p4711
(dp4712
g3719
g2408
sg30
I0
sg3848
g2413
sg31
I4
sg3710
(lp4713
I116
asg36
(issf_api
FeatureSet
p4714
(dp4715
g12
(dp4716
S'name'
p4717
g4621
sS'drel'
p4718
S'k1s:VGF'
p4719
ssbsba(issf_api
Chunk
p4720
(dp4721
g3719
g2427
sg30
I1
sg3848
g2434
sg31
I4
sg3710
(lp4722
I117
asg36
(issf_api
FeatureSet
p4723
(dp4724
g12
(dp4725
S'name'
p4726
g4617
ssbsba(issf_api
Chunk
p4727
(dp4728
g3719
g2448
sg30
I2
sg3848
g2453
sg31
I4
sg3710
(lp4729
I118
asg36
(issf_api
FeatureSet
p4730
(dp4731
g12
(dp4732
S'name'
p4733
g4631
sS'drel'
p4734
S'rs:NULL__NP'
p4735
ssbsba(issf_api
Chunk
p4736
(dp4737
g3719
g2469
sg30
I3
sg3848
g2480
sg31
I4
sg3710
(lp4738
I119
aI120
asg36
(issf_api
FeatureSet
p4739
(dp4740
g12
(dp4741
S'name'
p4742
g4606
sS'drel'
p4743
S'k1:VGF2'
p4744
ssbsba(issf_api
Chunk
p4745
(dp4746
g3719
g2515
sg30
I4
sg3848
g2526
sg31
I4
sg3710
(lp4747
I121
asg36
(issf_api
FeatureSet
p4748
(dp4749
g12
(dp4750
S'name'
p4751
g4704
sS'drel'
p4752
S'r6:NP3'
p4753
ssbsba(issf_api
Chunk
p4754
(dp4755
g3719
g2542
sg30
I5
sg3848
g2555
sg31
I4
sg3710
(lp4756
I122
aI123
asg36
(issf_api
FeatureSet
p4757
(dp4758
g12
(dp4759
S'name'
p4760
g4608
sS'drel'
p4761
S'k7:VGF2'
p4762
ssbsba(issf_api
Chunk
p4763
(dp4764
g3719
g2586
sg30
I6
sg3848
g2597
sg31
I4
sg3710
(lp4765
I124
aI125
asg36
(issf_api
FeatureSet
p4766
(dp4767
g12
(dp4768
S'name'
p4769
g4600
sS'drel'
p4770
S'ccof:CCP'
p4771
ssbsba(issf_api
Chunk
p4772
(dp4773
g3719
g2628
sg30
I7
sg3848
g2633
sg31
I4
sg3710
(lp4774
I126
asg36
(issf_api
FeatureSet
p4775
(dp4776
g12
(dp4777
S'name'
p4778
g4607
sS'drel'
p4779
S'k2:VGF2'
p4780
ssbsba(issf_api
Chunk
p4781
(dp4782
g3719
g2668
sg30
I8
sg3848
g2679
sg31
I4
sg3710
(lp4783
I127
aI128
aI129
asg36
(issf_api
FeatureSet
p4784
(dp4785
g12
(dp4786
S'name'
p4787
g4616
sS'drel'
p4788
S'k4:VGNN'
p4789
ssbsba(issf_api
Chunk
p4790
(dp4791
g3719
g2727
sg30
I9
sg3848
g2732
sg31
I4
sg3710
(lp4792
I130
aI131
asg36
(issf_api
FeatureSet
p4793
(dp4794
g12
(dp4795
S'name'
p4796
g4615
sS'drel'
p4797
S'k2:VGNN'
p4798
ssbsba(issf_api
Chunk
p4799
(dp4800
g3719
g2746
sg30
I10
sg3848
g2753
sg31
I4
sg3710
(lp4801
I132
aI133
asg36
(issf_api
FeatureSet
p4802
(dp4803
g12
(dp4804
S'name'
p4805
g4609
sS'drel'
p4806
S'r6:NP6'
p4807
ssbsba(issf_api
Chunk
p4808
(dp4809
g3719
g2784
sg30
I11
sg3848
g2791
sg31
I4
sg3710
(lp4810
I134
aI135
asg36
(issf_api
FeatureSet
p4811
(dp4812
g12
(dp4813
S'name'
p4814
g4630
sS'drel'
p4815
S'k7:VGF3'
p4816
ssbsba(issf_api
Chunk
p4817
(dp4818
g3719
g2822
sg30
I12
sg3848
g2827
sg31
I4
sg3710
(lp4819
I136
asg36
(issf_api
FeatureSet
p4820
(dp4821
g12
(dp4822
S'name'
p4823
g4678
sS'drel'
p4824
S'ccof:CCP3'
p4825
ssbsba(issf_api
Chunk
p4826
(dp4827
g3719
g2841
sg30
I13
sg3848
g2846
sg31
I4
sg3710
(lp4828
I137
asg36
(issf_api
FeatureSet
p4829
(dp4830
g12
(dp4831
S'name'
p4832
g4652
sS'drel'
p4833
S'r6:NP9'
p4834
ssbsba(issf_api
Chunk
p4835
(dp4836
g3719
g2860
sg30
I14
sg3848
g2867
sg31
I4
sg3710
(lp4837
I138
aI139
asg36
(issf_api
FeatureSet
p4838
(dp4839
g12
(dp4840
S'name'
p4841
g4653
sS'drel'
p4842
S'ccof:CCP3'
p4843
ssbsba(issf_api
Chunk
p4844
(dp4845
g3719
g2898
sg30
I15
sg3848
g2903
sg31
I4
sg3710
(lp4846
I140
asg36
(issf_api
FeatureSet
p4847
(dp4848
g12
(dp4849
S'name'
p4850
g4629
sS'drel'
p4851
S'k1:VGF3'
p4852
ssbsba(issf_api
Chunk
p4853
(dp4854
g3719
g2917
sg30
I16
sg3848
g2926
sg31
I4
sg3710
(lp4855
I141
asg36
(issf_api
FeatureSet
p4856
(dp4857
g12
(dp4858
S'name'
p4859
g4623
sS'drel'
p4860
S'ccof:CCP2'
p4861
ssbsba(issf_api
Chunk
p4862
(dp4863
g3719
g2940
sg30
I17
sg3848
g2945
sg31
I4
sg3710
(lp4864
I142
asg36
(issf_api
FeatureSet
p4865
(dp4866
g12
(dp4867
S'name'
p4868
g4622
sS'drel'
p4869
S'rsym:VGF'
p4870
ssbsbasba(issf_api
Sentence
p4871
(dp4872
g3708
(lp4873
sg31
I5
sg3710
(lp4874
I143
aI144
aI145
aI146
aI147
aI148
aI149
aI150
aI151
aI152
aI153
aI154
aI155
aI156
aI157
aI158
aI159
aI160
aI161
aI162
aI163
aI164
aI165
asg3712
(dp4875
S'VGNN'
p4876
(issf_api
Node
p4877
(dp4878
g3717
S'k7'
p4879
sg3719
g4876
sg3720
S'VGF2'
p4880
sg3722
I-1
sg30
I8
sg3723
(lp4881
S'NP6'
p4882
asbsS'VGF'
p4883
(issf_api
Node
p4884
(dp4885
g3717
g3758
sg3719
g4883
sg3720
g3758
sg3722
I-1
sg30
I2
sg3723
(lp4886
S'CCP'
p4887
aS'BLK'
p4888
aS'NP'
p4889
aS'NP2'
p4890
asbsg4887
(issf_api
Node
p4891
(dp4892
g3717
S'k2'
p4893
sg3719
g4887
sg3720
S'VGF'
p4894
sg3722
I-1
sg30
I3
sg3723
(lp4895
S'VGF2'
p4896
asbsg4896
(issf_api
Node
p4897
(dp4898
g3717
S'ccof'
p4899
sg3719
g4896
sg3720
S'CCP'
p4900
sg3722
I-1
sg30
I10
sg3723
(lp4901
g4876
aS'NP5'
p4902
aS'NP7'
p4903
aS'NP3'
p4904
asbsg4902
(issf_api
Node
p4905
(dp4906
g3717
S'k7'
p4907
sg3719
g4902
sg3720
S'VGF2'
p4908
sg3722
I-1
sg30
I6
sg3723
(lp4909
S'NP4'
p4910
asbsg4888
(issf_api
Node
p4911
(dp4912
g3717
S'rsym'
p4913
sg3719
g4888
sg3720
S'VGF'
p4914
sg3722
I-1
sg30
I11
sg3723
(lp4915
sbsg4889
(issf_api
Node
p4916
(dp4917
g3717
S'vmod'
p4918
sg3719
g4889
sg3720
S'VGF'
p4919
sg3722
I-1
sg30
I0
sg3723
(lp4920
sbsg4910
(issf_api
Node
p4921
(dp4922
g3717
S'r6'
p4923
sg3719
g4910
sg3720
S'NP5'
p4924
sg3722
I-1
sg30
I5
sg3723
(lp4925
sbsg4903
(issf_api
Node
p4926
(dp4927
g3717
S'pof'
p4928
sg3719
g4903
sg3720
S'VGF2'
p4929
sg3722
I-1
sg30
I9
sg3723
(lp4930
sbsg4882
(issf_api
Node
p4931
(dp4932
g3717
S'k2'
p4933
sg3719
g4882
sg3720
S'VGNN'
p4934
sg3722
I-1
sg30
I7
sg3723
(lp4935
sbsg4904
(issf_api
Node
p4936
(dp4937
g3717
S'k1'
p4938
sg3719
g4904
sg3720
S'VGF2'
p4939
sg3722
I-1
sg30
I4
sg3723
(lp4940
sbsg4890
(issf_api
Node
p4941
(dp4942
g3717
S'k1'
p4943
sg3719
g4890
sg3720
S'VGF'
p4944
sg3722
I-1
sg30
I1
sg3723
(lp4945
sbssg3844
(lp4946
(issf_api
Chunk
p4947
(dp4948
g3719
g2961
sg30
I0
sg3848
g2972
sg31
I5
sg3710
(lp4949
I143
aI144
asg36
(issf_api
FeatureSet
p4950
(dp4951
g12
(dp4952
S'name'
p4953
g4889
sS'drel'
p4954
S'vmod:VGF'
p4955
ssbsba(issf_api
Chunk
p4956
(dp4957
g3719
g3005
sg30
I1
sg3848
g3016
sg31
I5
sg3710
(lp4958
I145
aI146
asg36
(issf_api
FeatureSet
p4959
(dp4960
g12
(dp4961
S'name'
p4962
g4890
sS'drel'
p4963
S'k1:VGF'
p4964
ssbsba(issf_api
Chunk
p4965
(dp4966
g3719
g3047
sg30
I2
sg3848
g3054
sg31
I5
sg3710
(lp4967
I147
asg36
(issf_api
FeatureSet
p4968
(dp4969
g12
(dp4970
S'name'
p4971
g4883
ssbsba(issf_api
Chunk
p4972
(dp4973
g3719
g3068
sg30
I3
sg3848
g3073
sg31
I5
sg3710
(lp4974
I148
asg36
(issf_api
FeatureSet
p4975
(dp4976
g12
(dp4977
S'name'
p4978
g4887
sS'drel'
p4979
S'k2:VGF'
p4980
ssbsba(issf_api
Chunk
p4981
(dp4982
g3719
g3108
sg30
I4
sg3848
g3117
sg31
I5
sg3710
(lp4983
I149
aI150
asg36
(issf_api
FeatureSet
p4984
(dp4985
g12
(dp4986
S'name'
p4987
g4904
sS'drel'
p4988
S'k1:VGF2'
p4989
ssbsba(issf_api
Chunk
p4990
(dp4991
g3719
g3131
sg30
I5
sg3848
g3138
sg31
I5
sg3710
(lp4992
I151
aI152
asg36
(issf_api
FeatureSet
p4993
(dp4994
g12
(dp4995
S'name'
p4996
g4910
sS'drel'
p4997
S'r6:NP5'
p4998
ssbsba(issf_api
Chunk
p4999
(dp5000
g3719
g3186
sg30
I6
sg3848
g3193
sg31
I5
sg3710
(lp5001
I153
aI154
aI155
asg36
(issf_api
FeatureSet
p5002
(dp5003
g12
(dp5004
S'name'
p5005
g4902
sS'drel'
p5006
S'k7:VGF2'
p5007
ssbsba(issf_api
Chunk
p5008
(dp5009
g3719
g3264
sg30
I7
sg3848
g3273
sg31
I5
sg3710
(lp5010
I156
aI157
aI158
asg36
(issf_api
FeatureSet
p5011
(dp5012
g12
(dp5013
S'name'
p5014
g4882
sS'drel'
p5015
S'k2:VGNN'
p5016
ssbsba(issf_api
Chunk
p5017
(dp5018
g3719
g3287
sg30
I8
sg3848
g3294
sg31
I5
sg3710
(lp5019
I159
aI160
asg36
(issf_api
FeatureSet
p5020
(dp5021
g12
(dp5022
S'name'
p5023
g4876
sS'drel'
p5024
S'k7:VGF2'
p5025
ssbsba(issf_api
Chunk
p5026
(dp5027
g3719
g3325
sg30
I9
sg3848
g3330
sg31
I5
sg3710
(lp5028
I161
asg36
(issf_api
FeatureSet
p5029
(dp5030
g12
(dp5031
S'name'
p5032
g4903
sS'drel'
p5033
S'pof:VGF2'
p5034
ssbsba(issf_api
Chunk
p5035
(dp5036
g3719
g3344
sg30
I10
sg3848
g3355
sg31
I5
sg3710
(lp5037
I162
aI163
aI164
asg36
(issf_api
FeatureSet
p5038
(dp5039
g12
(dp5040
S'name'
p5041
g4896
sS'drel'
p5042
S'ccof:CCP'
p5043
ssbsba(issf_api
Chunk
p5044
(dp5045
g3719
g3403
sg30
I11
sg3848
g3408
sg31
I5
sg3710
(lp5046
I165
asg36
(issf_api
FeatureSet
p5047
(dp5048
g12
(dp5049
S'name'
p5050
g4888
sS'drel'
p5051
S'rsym:VGF'
p5052
ssbsbasba(issf_api
Sentence
p5053
(dp5054
g3708
(lp5055
sg31
I6
sg3710
(lp5056
I166
aI167
aI168
aI169
aI170
aI171
aI172
aI173
aI174
aI175
aI176
aI177
aI178
aI179
aI180
asg3712
(dp5057
S'VGF'
p5058
(issf_api
Node
p5059
(dp5060
g3717
g3758
sg3719
g5058
sg3720
g3758
sg3722
I-1
sg30
I1
sg3723
(lp5061
S'CCP'
p5062
aS'BLK'
p5063
aS'NP'
p5064
asbsg5062
(issf_api
Node
p5065
(dp5066
g3717
S'k2'
p5067
sg3719
g5062
sg3720
S'VGF'
p5068
sg3722
I-1
sg30
I2
sg3723
(lp5069
S'VGF2'
p5070
asbsg5070
(issf_api
Node
p5071
(dp5072
g3717
S'ccof'
p5073
sg3719
g5070
sg3720
S'CCP'
p5074
sg3722
I-1
sg30
I6
sg3723
(lp5075
S'NP4'
p5076
aS'NP3'
p5077
aS'NP2'
p5078
asbsg5063
(issf_api
Node
p5079
(dp5080
g3717
S'rsym'
p5081
sg3719
g5063
sg3720
S'VGF'
p5082
sg3722
I-1
sg30
I7
sg3723
(lp5083
sbsg5064
(issf_api
Node
p5084
(dp5085
g3717
S'k1'
p5086
sg3719
g5064
sg3720
S'VGF'
p5087
sg3722
I-1
sg30
I0
sg3723
(lp5088
sbsg5076
(issf_api
Node
p5089
(dp5090
g3717
S'pof'
p5091
sg3719
g5076
sg3720
S'VGF2'
p5092
sg3722
I-1
sg30
I5
sg3723
(lp5093
sbsg5077
(issf_api
Node
p5094
(dp5095
g3717
S'k4'
p5096
sg3719
g5077
sg3720
S'VGF2'
p5097
sg3722
I-1
sg30
I4
sg3723
(lp5098
sbsg5078
(issf_api
Node
p5099
(dp5100
g3717
S'k7'
p5101
sg3719
g5078
sg3720
S'VGF2'
p5102
sg3722
I-1
sg30
I3
sg3723
(lp5103
sbssg3844
(lp5104
(issf_api
Chunk
p5105
(dp5106
g3719
g3424
sg30
I0
sg3848
g3433
sg31
I6
sg3710
(lp5107
I166
asg36
(issf_api
FeatureSet
p5108
(dp5109
g12
(dp5110
S'name'
p5111
g5064
sS'drel'
p5112
S'k1:VGF'
p5113
ssbsba(issf_api
Chunk
p5114
(dp5115
g3719
g3447
sg30
I1
sg3848
g3454
sg31
I6
sg3710
(lp5116
I167
asg36
(issf_api
FeatureSet
p5117
(dp5118
g12
(dp5119
S'name'
p5120
g5058
ssbsba(issf_api
Chunk
p5121
(dp5122
g3719
g3468
sg30
I2
sg3848
g3473
sg31
I6
sg3710
(lp5123
I168
asg36
(issf_api
FeatureSet
p5124
(dp5125
g12
(dp5126
S'name'
p5127
g5062
sS'drel'
p5128
S'k2:VGF'
p5129
ssbsba(issf_api
Chunk
p5130
(dp5131
g3719
g3489
sg30
I3
sg3848
g3500
sg31
I6
sg3710
(lp5132
I169
aI170
aI171
asg36
(issf_api
FeatureSet
p5133
(dp5134
g12
(dp5135
S'name'
p5136
g5078
sS'drel'
p5137
S'k7:VGF2'
p5138
ssbsba(issf_api
Chunk
p5139
(dp5140
g3719
g3565
sg30
I4
sg3848
g3572
sg31
I6
sg3710
(lp5141
I172
aI173
aI174
asg36
(issf_api
FeatureSet
p5142
(dp5143
g12
(dp5144
S'name'
p5145
g5077
sS'drel'
p5146
S'k4:VGF2'
p5147
ssbsba(issf_api
Chunk
p5148
(dp5149
g3719
g3603
sg30
I5
sg3848
g3608
sg31
I6
sg3710
(lp5150
I175
asg36
(issf_api
FeatureSet
p5151
(dp5152
g12
(dp5153
S'name'
p5154
g5076
sS'drel'
p5155
S'pof:VGF2'
p5156
ssbsba(issf_api
Chunk
p5157
(dp5158
g3719
g3622
sg30
I6
sg3848
g3633
sg31
I6
sg3710
(lp5159
I176
aI177
aI178
aI179
asg36
(issf_api
FeatureSet
p5160
(dp5161
g12
(dp5162
S'name'
p5163
g5070
sS'drel'
p5164
S'ccof:CCP'
p5165
ssbsba(issf_api
Chunk
p5166
(dp5167
g3719
g3698
sg30
I7
sg3848
g3703
sg31
I6
sg3710
(lp5168
I180
asg36
(issf_api
FeatureSet
p5169
(dp5170
g12
(dp5171
S'name'
p5172
g5063
sS'drel'
p5173
S'rsym:VGF'
p5174
ssbsbasbasb.