(issf_api
SSFInfo
p0
(dp1
S'globalWordList'
p2
(lp3
(issf_api
Word
p4
(dp5
S'splitConn'
p6
I00
sS'word'
p7
V\u0907\u0930\u093e\u0915
p8
sS'extraFeatureSet'
p9
(issf_api
FeatureSet
p10
(dp11
S'featureDict'
p12
(dp13
S'posn'
p14
S'10'
p15
sS'name'
p16
S'\xe0\xa4\x87\xe0\xa4\xb0\xe0\xa4\xbe\xe0\xa4\x95'
p17
sS'af'
p18
S'\xe0\xa4\x87\xe0\xa4\xb0\xe0\xa4\xbe\xe0\xa4\x95,n,m,sg,3,o,0_\xe0\xa4\xae\xe0\xa5\x87\xe0\xa4\x82,0'
p19
sS'chunkid'
p20
S'NP'
p21
sS'drel'
p22
S'k7:VGF'
p23
sS'vpos'
p24
S'vib_2'
p25
sS'chunktype'
p26
S'head:NP'
p27
ssbsS'arg1'
p28
I00
sS'arg2'
p29
I00
sS'sense'
p30
NsS'arg1Span'
p31
NsS'chunkNum'
p32
I0
sS'sentenceNum'
p33
I0
sS'relationNum'
p34
NsS'arg2Span'
p35
NsS'wordTag'
p36
S'NNP'
p37
sS'featureSet'
p38
g10
sS'conn'
p39
I00
sba(issf_api
Word
p40
(dp41
g6
I00
sg7
V\u092e\u0947\u0902
p42
sg9
(issf_api
FeatureSet
p43
(dp44
g12
(dp45
S'posn'
p46
S'20'
p47
sS'name'
p48
S'\xe0\xa4\xae\xe0\xa5\x87\xe0\xa4\x82'
p49
sS'drel'
p50
S'lwg__psp:NP'
p51
sS'chunktype'
p52
S'child:NP'
p53
sS'af'
p54
S'\xe0\xa4\xae\xe0\xa5\x87\xe0\xa4\x82,psp,,,,,,'
p55
ssbsg28
I00
sg29
I00
sg30
Nsg31
Nsg32
I0
sg33
I0
sg34
Nsg35
Nsg36
S'PSP'
p56
sg38
g43
sg39
I00
sba(issf_api
Word
p57
(dp58
g6
I00
sg7
V\u092e\u0902\u0917\u0932\u0935\u093e\u0930
p59
sg9
(issf_api
FeatureSet
p60
(dp61
g12
(dp62
S'posn'
p63
S'30'
p64
sS'name'
p65
S'\xe0\xa4\xae\xe0\xa4\x82\xe0\xa4\x97\xe0\xa4\xb2\xe0\xa4\xb5\xe0\xa4\xbe\xe0\xa4\xb0'
p66
sS'af'
p67
S'\xe0\xa4\xae\xe0\xa4\x82\xe0\xa4\x97\xe0\xa4\xb2\xe0\xa4\xb5\xe0\xa4\xbe\xe0\xa4\xb0,n,m,sg,3,o,0_\xe0\xa4\x95\xe0\xa5\x8b,0'
p68
sS'chunkid'
p69
S'NP2'
p70
sS'drel'
p71
S'k7t:VGF'
p72
sS'vpos'
p73
S'vib_2'
p74
sS'chunktype'
p75
S'head:NP2'
p76
ssbsg28
I00
sg29
I00
sg30
Nsg31
Nsg32
I1
sg33
I0
sg34
Nsg35
Nsg36
S'NNP'
p77
sg38
g60
sg39
I00
sba(issf_api
Word
p78
(dp79
g6
I00
sg7
V\u0915\u094b
p80
sg9
(issf_api
FeatureSet
p81
(dp82
g12
(dp83
S'posn'
p84
S'40'
p85
sS'name'
p86
S'\xe0\xa4\x95\xe0\xa5\x8b'
p87
sS'drel'
p88
S'lwg__psp:NP2'
p89
sS'chunktype'
p90
S'child:NP2'
p91
sS'af'
p92
S'\xe0\xa4\x95\xe0\xa5\x8b,psp,,,,,,'
p93
ssbsg28
I00
sg29
I00
sg30
Nsg31
Nsg32
I1
sg33
I0
sg34
Nsg35
Nsg36
S'PSP'
p94
sg38
g81
sg39
I00
sba(issf_api
Word
p95
(dp96
g6
I00
sg7
V\u090f\u0915
p97
sg9
(issf_api
FeatureSet
p98
(dp99
g12
(dp100
S'posn'
p101
S'50'
p102
sS'name'
p103
S'\xe0\xa4\x8f\xe0\xa4\x95'
p104
sS'af'
p105
S'\xe0\xa4\x8f\xe0\xa4\x95,num,any,any,,any,,'
p106
sS'drel'
p107
S'nmod__adj:NP3'
p108
sS'chunktype'
p109
S'child:NP3'
p110
sS'cref'
p111
S'i1%0:t1'
p112
ssbsg28
I00
sg29
I00
sg30
Nsg31
Nsg32
I2
sg33
I0
sg34
Nsg35
Nsg36
S'QC'
p113
sg38
g98
sg39
I00
sba(issf_api
Word
p114
(dp115
g6
I00
sg7
V\u0915\u093e\u0930
p116
sg9
(issf_api
FeatureSet
p117
(dp118
g12
(dp119
S'posn'
p120
S'60'
p121
sS'name'
p122
S'\xe0\xa4\x95\xe0\xa4\xbe\xe0\xa4\xb0'
p123
sS'af'
p124
S'\xe0\xa4\x95\xe0\xa4\xbe\xe0\xa4\xb0,n,f,sg,3,d,0,0'
p125
sS'drel'
p126
S'pof__cn:NP3'
p127
sS'chunktype'
p128
S'child:NP3'
p129
sS'cref'
p130
S'i1%0:t1'
p131
ssbsg28
I00
sg29
I00
sg30
Nsg31
Nsg32
I2
sg33
I0
sg34
Nsg35
Nsg36
S'NNC'
p132
sg38
g117
sg39
I00
sba(issf_api
Word
p133
(dp134
g6
I00
sg7
V\u092c\u092e
p135
sg9
(issf_api
FeatureSet
p136
(dp137
g12
(dp138
S'posn'
p139
S'70'
p140
sS'name'
p141
S'\xe0\xa4\xac\xe0\xa4\xae'
p142
sS'af'
p143
S'\xe0\xa4\xac\xe0\xa4\xae,n,m,sg,3,d,0,0'
p144
sS'drel'
p145
S'pof__cn:NP3'
p146
sS'chunktype'
p147
S'child:NP3'
p148
sS'cref'
p149
S'i1%0:t1'
p150
ssbsg28
I00
sg29
I00
sg30
Nsg31
Nsg32
I2
sg33
I0
sg34
Nsg35
Nsg36
S'NNC'
p151
sg38
g136
sg39
I00
sba(issf_api
Word
p152
(dp153
g6
I00
sg7
V\u0927\u092e\u093e\u0915\u0947
p154
sg9
(issf_api
FeatureSet
p155
(dp156
g12
(dp157
S'crefhead'
p158
S'\xe0\xa4\xa7\xe0\xa4\xae\xe0\xa4\xbe\xe0\xa4\x95\xe0\xa5\x87:i1'
p159
sS'posn'
p160
S'80'
p161
sS'name'
p162
S'\xe0\xa4\xa7\xe0\xa4\xae\xe0\xa4\xbe\xe0\xa4\x95\xe0\xa5\x87'
p163
sS'af'
p164
S'\xe0\xa4\xa7\xe0\xa4\xae\xe0\xa4\xbe\xe0\xa4\x95\xe0\xa4\xbe,n,m,sg,3,o,0_\xe0\xa4\xae\xe0\xa5\x87\xe0\xa4\x82,0'
p165
sS'chunkid'
p166
S'NP3'
p167
sS'drel'
p168
S'k7:VGF'
p169
sS'chunktype'
p170
S'head:NP3'
p171
sS'vpos'
p172
S'vib_5'
p173
sS'cref'
p174
S'i1%1:t1'
p175
ssbsg28
I00
sg29
I00
sg30
Nsg31
Nsg32
I2
sg33
I0
sg34
Nsg35
Nsg36
S'NN'
p176
sg38
g155
sg39
I00
sba(issf_api
Word
p177
(dp178
g6
I00
sg7
V\u092e\u0947\u0902
p179
sg9
(issf_api
FeatureSet
p180
(dp181
g12
(dp182
S'posn'
p183
S'90'
p184
sS'name'
p185
S'\xe0\xa4\xae\xe0\xa5\x87\xe0\xa4\x822'
p186
sS'drel'
p187
S'lwg__psp:NP3'
p188
sS'chunktype'
p189
S'child:NP3'
p190
sS'af'
p191
S'\xe0\xa4\xae\xe0\xa5\x87\xe0\xa4\x82,psp,,,,,,'
p192
ssbsg28
I00
sg29
I00
sg30
Nsg31
Nsg32
I2
sg33
I0
sg34
Nsg35
Nsg36
S'PSP'
p193
sg38
g180
sg39
I00
sba(issf_api
Word
p194
(dp195
g6
I00
sg7
V\u0915\u092e
p196
sg9
(issf_api
FeatureSet
p197
(dp198
g12
(dp199
S'posn'
p200
S'100'
p201
sS'name'
p202
S'\xe0\xa4\x95\xe0\xa4\xae'
p203
sS'af'
p204
S'\xe0\xa4\x95\xe0\xa4\xae,avy,,,,,,'
p205
sS'chunkid'
p206
S'NP4'
p207
sS'drel'
p208
S'nmod:NP5'
p209
sS'chunktype'
p210
S'head:NP4'
p211
ssbsg28
I00
sg29
I00
sg30
Nsg31
Nsg32
I3
sg33
I0
sg34
Nsg35
Nsg36
S'QF'
p212
sg38
g197
sg39
I00
sba(issf_api
Word
p213
(dp214
g6
I00
sg7
V\u0938\u0947
p215
sg9
(issf_api
FeatureSet
p216
(dp217
g12
(dp218
S'posn'
p219
S'110'
p220
sS'name'
p221
S'\xe0\xa4\xb8\xe0\xa5\x87'
p222
sS'drel'
p223
S'lwg__rp:NP4'
p224
sS'chunktype'
p225
S'child:NP4'
p226
sS'af'
p227
S'\xe0\xa4\xb8\xe0\xa5\x87,avy,,,,,,'
p228
ssbsg28
I00
sg29
I00
sg30
Nsg31
Nsg32
I3
sg33
I0
sg34
Nsg35
Nsg36
S'RP'
p229
sg38
g216
sg39
I00
sba(issf_api
Word
p230
(dp231
g6
I00
sg7
V\u0915\u092e
p232
sg9
(issf_api
FeatureSet
p233
(dp234
g12
(dp235
S'posn'
p236
S'120'
p237
sS'name'
p238
S'\xe0\xa4\x95\xe0\xa4\xae2'
p239
sS'drel'
p240
S'nmod__adj:NP4'
p241
sS'chunktype'
p242
S'child:NP4'
p243
sS'af'
p244
S'\xe0\xa4\x95\xe0\xa4\xae,avy,,,,,,'
p245
ssbsg28
I00
sg29
I00
sg30
Nsg31
Nsg32
I3
sg33
I0
sg34
Nsg35
Nsg36
S'QF'
p246
sg38
g233
sg39
I00
sba(issf_api
Word
p247
(dp248
g6
I00
sg7
V\u0967\u0968
p249
sg9
(issf_api
FeatureSet
p250
(dp251
g12
(dp252
S'posn'
p253
S'130'
p254
sS'name'
p255
S'\xe0\xa5\xa7\xe0\xa5\xa8'
p256
sS'drel'
p257
S'nmod__adj:NP5'
p258
sS'chunktype'
p259
S'child:NP5'
p260
sS'af'
p261
S'\xe0\xa5\xa7\xe0\xa5\xa8,num,any,any,,any,,'
p262
ssbsg28
I00
sg29
I00
sg30
Nsg31
Nsg32
I4
sg33
I0
sg34
Nsg35
Nsg36
S'QC'
p263
sg38
g250
sg39
I00
sba(issf_api
Word
p264
(dp265
g6
I00
sg7
V\u0932\u094b\u0917
p266
sg9
(issf_api
FeatureSet
p267
(dp268
g12
(dp269
S'posn'
p270
S'140'
p271
sS'name'
p272
S'\xe0\xa4\xb2\xe0\xa5\x8b\xe0\xa4\x97'
p273
sS'af'
p274
S'\xe0\xa4\xb2\xe0\xa5\x8b\xe0\xa4\x97,n,m,pl,3,d,0,0'
p275
sS'chunkid'
p276
S'NP5'
p277
sS'drel'
p278
S'k1:VGF'
p279
sS'chunktype'
p280
S'head:NP5'
p281
ssbsg28
I00
sg29
I00
sg30
Nsg31
Nsg32
I4
sg33
I0
sg34
Nsg35
Nsg36
S'NN'
p282
sg38
g267
sg39
I00
sba(issf_api
Word
p283
(dp284
g6
I00
sg7
V\u092e\u093e\u0930\u0947
p285
sg9
(issf_api
FeatureSet
p286
(dp287
g12
(dp288
S'posn'
p289
S'150'
p290
sS'name'
p291
S'\xe0\xa4\xae\xe0\xa4\xbe\xe0\xa4\xb0\xe0\xa5\x87'
p292
sS'af'
p293
S'\xe0\xa4\xae\xe0\xa4\xbe\xe0\xa4\xb0,v,m,pl,any,,\xe0\xa4\xaf\xe0\xa4\xbe_\xe0\xa4\x9c\xe0\xa4\xbe+\xe0\xa4\xaf\xe0\xa4\xbe\xe0\xa5\xa7,yA'
p294
sS'chunkid'
p295
S'VGF'
p296
sS'chunktype'
p297
S'head:VGF'
p298
sS'voicetype'
p299
S'passive'
p300
sS'vpos'
p301
S'tam_2'
p302
sS'stype'
p303
S'declarative'
p304
ssbsg28
I00
sg29
I00
sg30
Nsg31
Nsg32
I5
sg33
I0
sg34
Nsg35
Nsg36
S'VM'
p305
sg38
g286
sg39
I00
sba(issf_api
Word
p306
(dp307
g6
I00
sg7
V\u0917\u090f
p308
sg9
(issf_api
FeatureSet
p309
(dp310
g12
(dp311
S'posn'
p312
S'160'
p313
sS'name'
p314
S'\xe0\xa4\x97\xe0\xa4\x8f'
p315
sS'drel'
p316
S'lwg__vaux:VGF'
p317
sS'chunktype'
p318
S'child:VGF'
p319
sS'af'
p320
S'\xe0\xa4\x9c\xe0\xa4\xbe,v,m,pl,any,,\xe0\xa4\xaf\xe0\xa4\xbe\xe0\xa5\xa7,yA1'
p321
ssbsg28
I00
sg29
I00
sg30
Nsg31
Nsg32
I5
sg33
I0
sg34
Nsg35
Nsg36
S'VAUX'
p322
sg38
g309
sg39
I00
sba(issf_api
Word
p323
(dp324
g6
I00
sg7
V\u0964
p325
sg9
(issf_api
FeatureSet
p326
(dp327
g12
(dp328
S'posn'
p329
S'170'
p330
sS'name'
p331
S'\xe0\xa5\xa4'
p332
sS'af'
p333
S'\xe0\xa5\xa4,punc,,,,,,'
p334
sS'chunkid'
p335
S'BLK'
p336
sS'drel'
p337
S'rsym:VGF'
p338
sS'chunktype'
p339
S'head:BLK'
p340
ssbsg28
I00
sg29
I00
sg30
Nsg31
Nsg32
I6
sg33
I0
sg34
Nsg35
Nsg36
S'SYM'
p341
sg38
g326
sg39
I00
sba(issf_api
Word
p342
(dp343
g6
I00
sg7
V\u0930\u093e\u091c\u0927\u093e\u0928\u0940
p344
sg9
(issf_api
FeatureSet
p345
(dp346
g12
(dp347
S'crefhead'
p348
S'\xe0\xa4\xb0\xe0\xa4\xbe\xe0\xa4\x9c\xe0\xa4\xa7\xe0\xa4\xbe\xe0\xa4\xa8\xe0\xa5\x80:i2'
p349
sS'posn'
p350
S'10'
p351
sS'name'
p352
S'\xe0\xa4\xb0\xe0\xa4\xbe\xe0\xa4\x9c\xe0\xa4\xa7\xe0\xa4\xbe\xe0\xa4\xa8\xe0\xa5\x80'
p353
sS'af'
p354
S'\xe0\xa4\xb0\xe0\xa4\xbe\xe0\xa4\x9c\xe0\xa4\xa7\xe0\xa4\xbe\xe0\xa4\xa8\xe0\xa5\x80,n,f,sg,3,d,0,0'
p355
sS'drel'
p356
S'nmod:NP'
p357
sS'chunktype'
p358
S'child:NP'
p359
sS'cref'
p360
S'i2%1:t2'
p361
ssbsg28
I00
sg29
I00
sg30
Nsg31
Nsg32
I0
sg33
I1
sg34
Nsg35
Nsg36
S'NN'
p362
sg38
g345
sg39
I00
sba(issf_api
Word
p363
(dp364
g6
I00
sg7
V\u092c\u0917\u0926\u093e\u0926
p365
sg9
(issf_api
FeatureSet
p366
(dp367
g12
(dp368
S'crefhead'
p369
S'\xe0\xa4\xac\xe0\xa4\x97\xe0\xa4\xa6\xe0\xa4\xbe\xe0\xa4\xa6:i3'
p370
sS'posn'
p371
S'20'
p372
sS'name'
p373
S'\xe0\xa4\xac\xe0\xa4\x97\xe0\xa4\xa6\xe0\xa4\xbe\xe0\xa4\xa6'
p374
sS'af'
p375
S'\xe0\xa4\xac\xe0\xa4\x97\xe0\xa4\xa6\xe0\xa4\xbe\xe0\xa4\xa6,n,m,sg,3,o,0_\xe0\xa4\xae\xe0\xa5\x87\xe0\xa4\x82,0'
p376
sS'chunkid'
p377
S'NP'
p378
sS'creftype'
p379
S'Coreference-NounComplement:i2'
p380
sS'chunktype'
p381
S'head:NP'
p382
sS'crefchainhead'
p383
S'i3:t2'
p384
sS'vpos'
p385
S'vib_vib_3'
p386
sS'cref'
p387
S'i3%1:t2'
p388
sS'drel'
p389
S'k7p:VGF'
p390
ssbsg28
I00
sg29
I00
sg30
Nsg31
Nsg32
I0
sg33
I1
sg34
Nsg35
Nsg36
S'NNP'
p391
sg38
g366
sg39
I00
sba(issf_api
Word
p392
(dp393
g6
I00
sg7
V\u092e\u0947\u0902
p394
sg9
(issf_api
FeatureSet
p395
(dp396
g12
(dp397
S'posn'
p398
S'30'
p399
sS'name'
p400
S'\xe0\xa4\xae\xe0\xa5\x87\xe0\xa4\x82'
p401
sS'drel'
p402
S'lwg__psp:NP'
p403
sS'chunktype'
p404
S'child:NP'
p405
sS'af'
p406
S'\xe0\xa4\xae\xe0\xa5\x87\xe0\xa4\x82,psp,,,,,,'
p407
ssbsg28
I00
sg29
I00
sg30
Nsg31
Nsg32
I0
sg33
I1
sg34
Nsg35
Nsg36
S'PSP'
p408
sg38
g395
sg39
I00
sba(issf_api
Word
p409
(dp410
g6
I00
sg7
V\u0935\u093f\u0926\u094d\u0930\u094b\u0939\u093f\u092f\u094b\u0902
p411
sg9
(issf_api
FeatureSet
p412
(dp413
g12
(dp414
S'posn'
p415
S'40'
p416
sS'name'
p417
S'\xe0\xa4\xb5\xe0\xa4\xbf\xe0\xa4\xa6\xe0\xa5\x8d\xe0\xa4\xb0\xe0\xa5\x8b\xe0\xa4\xb9\xe0\xa4\xbf\xe0\xa4\xaf\xe0\xa5\x8b\xe0\xa4\x82'
p418
sS'af'
p419
S'\xe0\xa4\xb5\xe0\xa4\xbf\xe0\xa4\xa6\xe0\xa5\x8d\xe0\xa4\xb0\xe0\xa5\x8b\xe0\xa4\xb9\xe0\xa5\x80,n,m,pl,3,o,0_\xe0\xa4\xa8\xe0\xa5\x87,0'
p420
sS'chunkid'
p421
S'NP2'
p422
sS'drel'
p423
S'k1:VGF'
p424
sS'vpos'
p425
S'vib_2'
p426
sS'chunktype'
p427
S'head:NP2'
p428
ssbsg28
I00
sg29
I00
sg30
Nsg31
Nsg32
I1
sg33
I1
sg34
Nsg35
Nsg36
S'NN'
p429
sg38
g412
sg39
I00
sba(issf_api
Word
p430
(dp431
g6
I00
sg7
V\u0928\u0947
p432
sg9
(issf_api
FeatureSet
p433
(dp434
g12
(dp435
S'posn'
p436
S'50'
p437
sS'name'
p438
S'\xe0\xa4\xa8\xe0\xa5\x87'
p439
sS'drel'
p440
S'lwg__psp:NP2'
p441
sS'chunktype'
p442
S'child:NP2'
p443
sS'af'
p444
S'\xe0\xa4\xa8\xe0\xa5\x87,psp,,,,,,'
p445
ssbsg28
I00
sg29
I00
sg30
Nsg31
Nsg32
I1
sg33
I1
sg34
Nsg35
Nsg36
S'PSP'
p446
sg38
g433
sg39
I00
sba(issf_api
Word
p447
(dp448
g6
I00
sg7
V\u0924\u0947\u0932
p449
sg9
(issf_api
FeatureSet
p450
(dp451
g12
(dp452
S'posn'
p453
S'60'
p454
sS'name'
p455
S'\xe0\xa4\xa4\xe0\xa5\x87\xe0\xa4\xb2'
p456
sS'af'
p457
S'\xe0\xa4\xa4\xe0\xa5\x87\xe0\xa4\xb2,n,m,sg,3,d,0,0'
p458
sS'acrefmod'
p459
S'm1%0:i4'
p460
sS'drel'
p461
S'pof__cn:NP3'
p462
sS'chunktype'
p463
S'child:NP3'
p464
ssbsg28
I00
sg29
I00
sg30
Nsg31
Nsg32
I2
sg33
I1
sg34
Nsg35
Nsg36
S'NNPC'
p465
sg38
g450
sg39
I00
sba(issf_api
Word
p466
(dp467
g6
I00
sg7
V\u092e\u0902\u0924\u094d\u0930\u093e\u0932\u092f
p468
sg9
(issf_api
FeatureSet
p469
(dp470
g12
(dp471
S'posn'
p472
S'70'
p473
sS'name'
p474
S'\xe0\xa4\xae\xe0\xa4\x82\xe0\xa4\xa4\xe0\xa5\x8d\xe0\xa4\xb0\xe0\xa4\xbe\xe0\xa4\xb2\xe0\xa4\xaf'
p475
sS'af'
p476
S'\xe0\xa4\xae\xe0\xa4\x82\xe0\xa4\xa4\xe0\xa5\x8d\xe0\xa4\xb0\xe0\xa4\xbe\xe0\xa4\xb2\xe0\xa4\xaf,n,m,sg,3,o,0_\xe0\xa4\x95\xe0\xa4\xbe,0'
p477
sS'acrefmodhead'
p478
S'\xe0\xa4\xae\xe0\xa4\x82\xe0\xa4\xa4\xe0\xa5\x8d\xe0\xa4\xb0\xe0\xa4\xbe\xe0\xa4\xb2\xe0\xa4\xaf:m1'
p479
sS'chunkid'
p480
S'NP3'
p481
sS'acrefmod'
p482
S'm1%1:i4'
p483
sS'drel'
p484
S'r6:NP4'
p485
sS'vpos'
p486
S'vib_3'
p487
sS'chunktype'
p488
S'head:NP3'
p489
ssbsg28
I00
sg29
I00
sg30
Nsg31
Nsg32
I2
sg33
I1
sg34
Nsg35
Nsg36
S'NNP'
p490
sg38
g469
sg39
I00
sba(issf_api
Word
p491
(dp492
g6
I00
sg7
V\u0915\u0947
p493
sg9
(issf_api
FeatureSet
p494
(dp495
g12
(dp496
S'posn'
p497
S'80'
p498
sS'name'
p499
S'\xe0\xa4\x95\xe0\xa5\x87'
p500
sS'drel'
p501
S'lwg__psp:NP3'
p502
sS'chunktype'
p503
S'child:NP3'
p504
sS'af'
p505
S'\xe0\xa4\x95\xe0\xa4\xbe,psp,m,sg,,o,,'
p506
ssbsg28
I00
sg29
I00
sg30
Nsg31
Nsg32
I2
sg33
I1
sg34
Nsg35
Nsg36
S'PSP'
p507
sg38
g494
sg39
I00
sba(issf_api
Word
p508
(dp509
g6
I00
sg7
V\u090f\u0915
p510
sg9
(issf_api
FeatureSet
p511
(dp512
g12
(dp513
S'posn'
p514
S'90'
p515
sS'name'
p516
S'\xe0\xa4\x8f\xe0\xa4\x95'
p517
sS'af'
p518
S'\xe0\xa4\x8f\xe0\xa4\x95,num,any,any,,any,,'
p519
sS'drel'
p520
S'nmod__adj:NP4'
p521
sS'chunktype'
p522
S'child:NP4'
p523
sS'cref'
p524
S'i4%0:t3'
p525
ssbsg28
I00
sg29
I00
sg30
Nsg31
Nsg32
I3
sg33
I1
sg34
Nsg35
Nsg36
S'QC'
p526
sg38
g511
sg39
I00
sba(issf_api
Word
p527
(dp528
g6
I00
sg7
V\u0935\u0930\u093f\u0937\u094d\u0920
p529
sg9
(issf_api
FeatureSet
p530
(dp531
g12
(dp532
S'posn'
p533
S'100'
p534
sS'name'
p535
S'\xe0\xa4\xb5\xe0\xa4\xb0\xe0\xa4\xbf\xe0\xa4\xb7\xe0\xa5\x8d\xe0\xa4\xa0'
p536
sS'af'
p537
S'\xe0\xa4\xb5\xe0\xa4\xb0\xe0\xa4\xbf\xe0\xa4\xb7\xe0\xa5\x8d\xe0\xa4\xa0,adj,any,any,,o,,'
p538
sS'drel'
p539
S'nmod__adj:NP4'
p540
sS'chunktype'
p541
S'child:NP4'
p542
sS'cref'
p543
S'i4%0:t3'
p544
ssbsg28
I00
sg29
I00
sg30
Nsg31
Nsg32
I3
sg33
I1
sg34
Nsg35
Nsg36
S'JJ'
p545
sg38
g530
sg39
I00
sba(issf_api
Word
p546
(dp547
g6
I00
sg7
V\u0905\u0927\u093f\u0915\u093e\u0930\u0940
p548
sg9
(issf_api
FeatureSet
p549
(dp550
g12
(dp551
S'crefhead'
p552
S'\xe0\xa4\x85\xe0\xa4\xa7\xe0\xa4\xbf\xe0\xa4\x95\xe0\xa4\xbe\xe0\xa4\xb0\xe0\xa5\x80:i4'
p553
sS'posn'
p554
S'110'
p555
sS'name'
p556
S'\xe0\xa4\x85\xe0\xa4\xa7\xe0\xa4\xbf\xe0\xa4\x95\xe0\xa4\xbe\xe0\xa4\xb0\xe0\xa5\x80'
p557
sS'af'
p558
S'\xe0\xa4\x85\xe0\xa4\xa7\xe0\xa4\xbf\xe0\xa4\x95\xe0\xa4\xbe\xe0\xa4\xb0\xe0\xa5\x80,n,m,sg,3,o,0_\xe0\xa4\x95\xe0\xa5\x8b,0'
p559
sS'chunkid'
p560
S'NP4'
p561
sS'crefmod'
p562
S'm1:i4'
p563
sS'chunktype'
p564
S'head:NP4'
p565
sS'crefchainhead'
p566
S'i4:t3'
p567
sS'vpos'
p568
S'vib_4'
p569
sS'cref'
p570
S'i4%1:t3'
p571
sS'drel'
p572
S'k2:VGF'
p573
ssbsg28
I00
sg29
I00
sg30
Nsg31
Nsg32
I3
sg33
I1
sg34
Nsg35
Nsg36
S'NN'
p574
sg38
g549
sg39
I00
sba(issf_api
Word
p575
(dp576
g6
I00
sg7
V\u0915\u094b
p577
sg9
(issf_api
FeatureSet
p578
(dp579
g12
(dp580
S'posn'
p581
S'120'
p582
sS'name'
p583
S'\xe0\xa4\x95\xe0\xa5\x8b'
p584
sS'drel'
p585
S'lwg__psp:NP4'
p586
sS'chunktype'
p587
S'child:NP4'
p588
sS'af'
p589
S'\xe0\xa4\x95\xe0\xa5\x8b,psp,,,,,,'
p590
ssbsg28
I00
sg29
I00
sg30
Nsg31
Nsg32
I3
sg33
I1
sg34
Nsg35
Nsg36
S'PSP'
p591
sg38
g578
sg39
I00
sba(issf_api
Word
p592
(dp593
g6
I00
sg7
V\u0909\u0921\u093c\u093e
p594
sg9
(issf_api
FeatureSet
p595
(dp596
g12
(dp597
S'posn'
p598
S'130'
p599
sS'name'
p600
S'\xe0\xa4\x89\xe0\xa4\xa1\xe0\xa4\xbc\xe0\xa4\xbe'
p601
sS'af'
p602
S'\xe0\xa4\x89\xe0\xa4\xa1\xe0\xa4\xbc\xe0\xa4\xbe,v,any,sg,any,,0_\xe0\xa4\xa6\xe0\xa5\x87+\xe0\xa4\xaf\xe0\xa4\xbe,0'
p603
sS'chunkid'
p604
S'VGF'
p605
sS'chunktype'
p606
S'head:VGF'
p607
sS'voicetype'
p608
S'active'
p609
sS'vpos'
p610
S'tam_2'
p611
sS'stype'
p612
S'declarative'
p613
ssbsg28
I00
sg29
I00
sg30
Nsg31
Nsg32
I4
sg33
I1
sg34
Nsg35
Nsg36
S'VM'
p614
sg38
g595
sg39
I00
sba(issf_api
Word
p615
(dp616
g6
I00
sg7
V\u0926\u093f\u092f\u093e
p617
sg9
(issf_api
FeatureSet
p618
(dp619
g12
(dp620
S'posn'
p621
S'140'
p622
sS'name'
p623
S'\xe0\xa4\xa6\xe0\xa4\xbf\xe0\xa4\xaf\xe0\xa4\xbe'
p624
sS'drel'
p625
S'lwg__vaux:VGF'
p626
sS'chunktype'
p627
S'child:VGF'
p628
sS'af'
p629
S'\xe0\xa4\xa6\xe0\xa5\x87,v,m,sg,any,,\xe0\xa4\xaf\xe0\xa4\xbe,yA'
p630
ssbsg28
I00
sg29
I00
sg30
Nsg31
Nsg32
I4
sg33
I1
sg34
Nsg35
Nsg36
S'VAUX'
p631
sg38
g618
sg39
I00
sba(issf_api
Word
p632
(dp633
g6
I00
sg7
V\u0964
p634
sg9
(issf_api
FeatureSet
p635
(dp636
g12
(dp637
S'posn'
p638
S'150'
p639
sS'name'
p640
S'\xe0\xa5\xa4'
p641
sS'af'
p642
S'\xe0\xa5\xa4,punc,,,,,,'
p643
sS'chunkid'
p644
S'BLK'
p645
sS'drel'
p646
S'rsym:VGF'
p647
sS'chunktype'
p648
S'head:BLK'
p649
ssbsg28
I00
sg29
I00
sg30
Nsg31
Nsg32
I5
sg33
I1
sg34
Nsg35
Nsg36
S'SYM'
p650
sg38
g635
sg39
I00
sba(issf_api
Word
p651
(dp652
g6
I00
sg7
V\u0939\u092e\u0932\u0947
p653
sg9
(issf_api
FeatureSet
p654
(dp655
g12
(dp656
S'name'
p657
S'\xe0\xa4\xb9\xe0\xa4\xae\xe0\xa4\xb2\xe0\xa5\x87'
p658
sS'af'
p659
S'\xe0\xa4\xb9\xe0\xa4\xae\xe0\xa4\xb2\xe0\xa4\xbe,n,m,sg,3,o,0_\xe0\xa4\x95\xe0\xa5\x87_\xe0\xa4\xb5\xe0\xa4\x95\xe0\xa5\x8d\xe0\xa4\xa4,0'
p660
sS'chunkid'
p661
S'NP'
p662
sS'drel'
p663
S'k7t:VGF'
p664
sS'vpos'
p665
S'vib_2_3'
p666
sS'chunktype'
p667
S'head:NP'
p668
ssbsg28
I00
sg29
I00
sg30
Nsg31
Nsg32
I0
sg33
I2
sg34
Nsg35
Nsg36
S'NN'
p669
sg38
g654
sg39
I00
sba(issf_api
Word
p670
(dp671
g6
I00
sg7
V\u0915\u0947
p672
sg9
(issf_api
FeatureSet
p673
(dp674
g12
(dp675
S'name'
p676
S'\xe0\xa4\x95\xe0\xa5\x87'
p677
sS'drel'
p678
S'lwg__psp:NP'
p679
sS'chunktype'
p680
S'child:NP'
p681
sS'af'
p682
S'\xe0\xa4\x95\xe0\xa5\x87,psp,m,,,o,,'
p683
ssbsg28
I00
sg29
I00
sg30
Nsg31
Nsg32
I0
sg33
I2
sg34
Nsg35
Nsg36
S'PSP'
p684
sg38
g673
sg39
I00
sba(issf_api
Word
p685
(dp686
g6
I00
sg7
V\u0935\u0915\u094d\u0924
p687
sg9
(issf_api
FeatureSet
p688
(dp689
g12
(dp690
S'name'
p691
S'\xe0\xa4\xb5\xe0\xa4\x95\xe0\xa5\x8d\xe0\xa4\xa4'
p692
sS'drel'
p693
S'lwg__psp:NP'
p694
sS'chunktype'
p695
S'child:NP'
p696
sS'af'
p697
S'\xe0\xa4\xb5\xe0\xa4\x95\xe0\xa5\x8d\xe0\xa4\xa4,n,m,,,o,,'
p698
ssbsg28
I00
sg29
I00
sg30
Nsg31
Nsg32
I0
sg33
I2
sg34
Nsg35
Nsg36
S'PSP'
p699
sg38
g688
sg39
I00
sba(issf_api
Word
p700
(dp701
g6
I00
sg7
V\u0935\u0939
p702
sg9
(issf_api
FeatureSet
p703
(dp704
g12
(dp705
S'crefhead'
p706
S'\xe0\xa4\xb5\xe0\xa4\xb9:i5'
p707
sS'posn'
p708
S'10'
p709
sS'name'
p710
S'\xe0\xa4\xb5\xe0\xa4\xb9'
p711
sS'af'
p712
S'\xe0\xa4\xb5\xe0\xa4\xb9,pn,any,sg,3,d,0,0'
p713
sS'chunkid'
p714
S'NP2'
p715
sS'creftype'
p716
S'Anaphora-C:i4'
p717
sS'chunktype'
p718
S'head:NP2'
p719
sS'cref'
p720
S'i5%1:t3'
p721
sS'drel'
p722
S'k1:VGF'
p723
ssbsg28
I00
sg29
I00
sg30
Nsg31
Nsg32
I1
sg33
I2
sg34
Nsg35
Nsg36
S'PRP'
p724
sg38
g703
sg39
I00
sba(issf_api
Word
p725
(dp726
g6
I00
sg7
V\u0905\u092a\u0928\u0947
p727
sg9
(issf_api
FeatureSet
p728
(dp729
g12
(dp730
S'crefhead'
p731
S'\xe0\xa4\x85\xe0\xa4\xaa\xe0\xa4\xa8\xe0\xa5\x87:i6'
p732
sS'posn'
p733
S'20'
p734
sS'name'
p735
S'\xe0\xa4\x85\xe0\xa4\xaa\xe0\xa4\xa8\xe0\xa5\x87'
p736
sS'af'
p737
S'\xe0\xa4\x85\xe0\xa4\xaa\xe0\xa4\xa8\xe0\xa4\xbe,pn,m,any,any,d,0,0'
p738
sS'chunkid'
p739
S'NP3'
p740
sS'creftype'
p741
S'Anaphora-C:i5'
p742
sS'chunktype'
p743
S'head:NP3'
p744
sS'cref'
p745
S'i6%1:t3'
p746
sS'drel'
p747
S'r6:NP4'
p748
ssbsg28
I00
sg29
I00
sg30
Nsg31
Nsg32
I2
sg33
I2
sg34
Nsg35
Nsg36
S'PRP'
p749
sg38
g728
sg39
I00
sba(issf_api
Word
p750
(dp751
g6
I00
sg7
V\u0915\u093e\u0930\u094d\u092f\u093e\u0932\u092f
p752
sg9
(issf_api
FeatureSet
p753
(dp754
g12
(dp755
S'posn'
p756
S'30'
p757
sS'name'
p758
S'\xe0\xa4\x95\xe0\xa4\xbe\xe0\xa4\xb0\xe0\xa5\x8d\xe0\xa4\xaf\xe0\xa4\xbe\xe0\xa4\xb2\xe0\xa4\xaf'
p759
sS'af'
p760
S'\xe0\xa4\x95\xe0\xa4\xbe\xe0\xa4\xb0\xe0\xa5\x8d\xe0\xa4\xaf\xe0\xa4\xbe\xe0\xa4\xb2\xe0\xa4\xaf,n,m,sg,3,d,0,0'
p761
sS'chunkid'
p762
S'NP4'
p763
sS'drel'
p764
S'k2p:VGF'
p765
sS'chunktype'
p766
S'head:NP4'
p767
ssbsg28
I00
sg29
I00
sg30
Nsg31
Nsg32
I3
sg33
I2
sg34
Nsg35
Nsg36
S'NN'
p768
sg38
g753
sg39
I00
sba(issf_api
Word
p769
(dp770
g6
I00
sg7
V\u091c\u093e
p771
sg9
(issf_api
FeatureSet
p772
(dp773
g12
(dp774
S'posn'
p775
S'40'
p776
sS'name'
p777
S'\xe0\xa4\x9c\xe0\xa4\xbe'
p778
sS'af'
p779
S'\xe0\xa4\x9c\xe0\xa4\xbe,v,m,sg,3h,,0_\xe0\xa4\xb0\xe0\xa4\xb9+\xe0\xa4\xaf\xe0\xa4\xbe_\xe0\xa4\xa5\xe0\xa4\xbe,0'
p780
sS'chunkid'
p781
S'VGF'
p782
sS'chunktype'
p783
S'head:VGF'
p784
sS'voicetype'
p785
S'active'
p786
sS'vpos'
p787
S'tam_2_3'
p788
sS'stype'
p789
S'declarative'
p790
ssbsg28
I00
sg29
I00
sg30
Nsg31
Nsg32
I4
sg33
I2
sg34
Nsg35
Nsg36
S'VM'
p791
sg38
g772
sg39
I00
sba(issf_api
Word
p792
(dp793
g6
I00
sg7
V\u0930\u0939\u0947
p794
sg9
(issf_api
FeatureSet
p795
(dp796
g12
(dp797
S'posn'
p798
S'50'
p799
sS'name'
p800
S'\xe0\xa4\xb0\xe0\xa4\xb9\xe0\xa5\x87'
p801
sS'drel'
p802
S'lwg__vaux:VGF'
p803
sS'chunktype'
p804
S'child:VGF'
p805
sS'af'
p806
S'\xe0\xa4\xb0\xe0\xa4\xb9,v,m,sg,3h,,\xe0\xa4\xaf\xe0\xa4\xbe,yA'
p807
ssbsg28
I00
sg29
I00
sg30
Nsg31
Nsg32
I4
sg33
I2
sg34
Nsg35
Nsg36
S'VAUX'
p808
sg38
g795
sg39
I00
sba(issf_api
Word
p809
(dp810
g6
I00
sg7
V\u0925\u0947
p811
sg9
(issf_api
FeatureSet
p812
(dp813
g12
(dp814
S'posn'
p815
S'60'
p816
sS'name'
p817
S'\xe0\xa4\xa5\xe0\xa5\x87'
p818
sS'drel'
p819
S'lwg__vaux:VGF'
p820
sS'chunktype'
p821
S'child:VGF'
p822
sS'af'
p823
S'\xe0\xa4\xa5\xe0\xa4\xbe,v,m,sg,3h,,\xe0\xa4\xa5\xe0\xa4\xbe,WA'
p824
ssbsg28
I00
sg29
I00
sg30
Nsg31
Nsg32
I4
sg33
I2
sg34
Nsg35
Nsg36
S'VAUX'
p825
sg38
g812
sg39
I00
sba(issf_api
Word
p826
(dp827
g6
I00
sg7
V\u0964
p828
sg9
(issf_api
FeatureSet
p829
(dp830
g12
(dp831
S'posn'
p832
S'70'
p833
sS'name'
p834
S'\xe0\xa5\xa4'
p835
sS'af'
p836
S'\xe0\xa5\xa4,punc,,,,,,'
p837
sS'chunkid'
p838
S'BLK'
p839
sS'drel'
p840
S'rsym:VGF'
p841
sS'chunktype'
p842
S'head:BLK'
p843
ssbsg28
I00
sg29
I00
sg30
Nsg31
Nsg32
I5
sg33
I2
sg34
Nsg35
Nsg36
S'SYM'
p844
sg38
g829
sg39
I00
sba(issf_api
Word
p845
(dp846
g6
I00
sg7
V\u0924\u0947\u0932
p847
sg9
(issf_api
FeatureSet
p848
(dp849
g12
(dp850
S'posn'
p851
S'10'
p852
sS'name'
p853
S'\xe0\xa4\xa4\xe0\xa5\x87\xe0\xa4\xb2'
p854
sS'af'
p855
S'\xe0\xa4\xa4\xe0\xa5\x87\xe0\xa4\xb2,n,m,sg,3,d,0,0'
p856
sS'acrefmod'
p857
S'm2%0:i7'
p858
sS'drel'
p859
S'pof__cn:NP'
p860
sS'chunktype'
p861
S'child:NP'
p862
ssbsg28
I00
sg29
I00
sg30
Nsg31
Nsg32
I0
sg33
I3
sg34
Nsg35
Nsg36
S'NNPC'
p863
sg38
g848
sg39
I00
sba(issf_api
Word
p864
(dp865
g6
I00
sg7
V\u0938\u0939
p866
sg9
(issf_api
FeatureSet
p867
(dp868
g12
(dp869
S'posn'
p870
S'20'
p871
sS'name'
p872
S'\xe0\xa4\xb8\xe0\xa4\xb9'
p873
sS'af'
p874
S'\xe0\xa4\xb8\xe0\xa4\xb9,n,m,sg,3,d,0,0'
p875
sS'acrefmod'
p876
S'm2%0:i7'
p877
sS'drel'
p878
S'pof__cn:NP'
p879
sS'chunktype'
p880
S'child:NP'
p881
ssbsg28
I00
sg29
I00
sg30
Nsg31
Nsg32
I0
sg33
I3
sg34
Nsg35
Nsg36
S'NNPC'
p882
sg38
g867
sg39
I00
sba(issf_api
Word
p883
(dp884
g6
I00
sg7
V-
p885
sg9
(issf_api
FeatureSet
p886
(dp887
g12
(dp888
S'posn'
p889
S'30'
p890
sS'name'
p891
S'-'
p892
sS'af'
p893
S'-,punc,,,,,,'
p894
sS'acrefmod'
p895
S'm2%0:i7'
p896
sS'drel'
p897
S'rsym:NP'
p898
sS'chunktype'
p899
S'child:NP'
p900
ssbsg28
I00
sg29
I00
sg30
Nsg31
Nsg32
I0
sg33
I3
sg34
Nsg35
Nsg36
S'SYM'
p901
sg38
g886
sg39
I00
sba(issf_api
Word
p902
(dp903
g6
I00
sg7
V\u0909\u0924\u094d\u092a\u093e\u0926
p904
sg9
(issf_api
FeatureSet
p905
(dp906
g12
(dp907
S'posn'
p908
S'40'
p909
sS'name'
p910
S'\xe0\xa4\x89\xe0\xa4\xa4\xe0\xa5\x8d\xe0\xa4\xaa\xe0\xa4\xbe\xe0\xa4\xa6'
p911
sS'af'
p912
S'\xe0\xa4\x89\xe0\xa4\xa4\xe0\xa5\x8d\xe0\xa4\xaa\xe0\xa4\xbe\xe0\xa4\xa6,n,m,sg,3,d,0,0'
p913
sS'acrefmod'
p914
S'm2%0:i7'
p915
sS'drel'
p916
S'nmod__adj:NP'
p917
sS'chunktype'
p918
S'child:NP'
p919
ssbsg28
I00
sg29
I00
sg30
Nsg31
Nsg32
I0
sg33
I3
sg34
Nsg35
Nsg36
S'NNPC'
p920
sg38
g905
sg39
I00
sba(issf_api
Word
p921
(dp922
g6
I00
sg7
V\u0935\u093f\u0924\u0930\u0923
p923
sg9
(issf_api
FeatureSet
p924
(dp925
g12
(dp926
S'posn'
p927
S'50'
p928
sS'name'
p929
S'\xe0\xa4\xb5\xe0\xa4\xbf\xe0\xa4\xa4\xe0\xa4\xb0\xe0\xa4\xa3'
p930
sS'af'
p931
S'\xe0\xa4\xb5\xe0\xa4\xbf\xe0\xa4\xa4\xe0\xa4\xb0\xe0\xa4\xa3,n,m,sg,3,d,0,0'
p932
sS'acrefmod'
p933
S'm2%0:i7'
p934
sS'drel'
p935
S'nmod__adj:NP'
p936
sS'chunktype'
p937
S'child:NP'
p938
ssbsg28
I00
sg29
I00
sg30
Nsg31
Nsg32
I0
sg33
I3
sg34
Nsg35
Nsg36
S'NNPC'
p939
sg38
g924
sg39
I00
sba(issf_api
Word
p940
(dp941
g6
I00
sg7
V\u0915\u0902\u092a\u0928\u0940
p942
sg9
(issf_api
FeatureSet
p943
(dp944
g12
(dp945
S'posn'
p946
S'60'
p947
sS'name'
p948
S'\xe0\xa4\x95\xe0\xa4\x82\xe0\xa4\xaa\xe0\xa4\xa8\xe0\xa5\x80'
p949
sS'af'
p950
S'\xe0\xa4\x95\xe0\xa4\x82\xe0\xa4\xaa\xe0\xa4\xa8\xe0\xa5\x80,n,f,sg,3,o,0_\xe0\xa4\x95\xe0\xa4\xbe,0'
p951
sS'acrefmodhead'
p952
S'\xe0\xa4\x95\xe0\xa4\x82\xe0\xa4\xaa\xe0\xa4\xa8\xe0\xa5\x80:m2'
p953
sS'chunkid'
p954
S'NP'
p955
sS'acrefmod'
p956
S'm2%1:i7'
p957
sS'drel'
p958
S'r6:NP2'
p959
sS'vpos'
p960
S'vib_7'
p961
sS'chunktype'
p962
S'head:NP'
p963
ssbsg28
I00
sg29
I00
sg30
Nsg31
Nsg32
I0
sg33
I3
sg34
Nsg35
Nsg36
S'NNP'
p964
sg38
g943
sg39
I00
sba(issf_api
Word
p965
(dp966
g6
I00
sg7
V\u0915\u0947
p967
sg9
(issf_api
FeatureSet
p968
(dp969
g12
(dp970
S'posn'
p971
S'70'
p972
sS'name'
p973
S'\xe0\xa4\x95\xe0\xa5\x87'
p974
sS'drel'
p975
S'lwg__psp:NP'
p976
sS'chunktype'
p977
S'child:NP'
p978
sS'af'
p979
S'\xe0\xa4\x95\xe0\xa4\xbe,psp,m,sg,,o,,'
p980
ssbsg28
I00
sg29
I00
sg30
Nsg31
Nsg32
I0
sg33
I3
sg34
Nsg35
Nsg36
S'PSP'
p981
sg38
g968
sg39
I00
sba(issf_api
Word
p982
(dp983
g6
I00
sg7
V\u092e\u0939\u093e\u0928\u093f\u0926\u0947\u0936\u0915
p984
sg9
(issf_api
FeatureSet
p985
(dp986
g12
(dp987
S'crefhead'
p988
S'\xe0\xa4\xae\xe0\xa4\xb9\xe0\xa4\xbe\xe0\xa4\xa8\xe0\xa4\xbf\xe0\xa4\xa6\xe0\xa5\x87\xe0\xa4\xb6\xe0\xa4\x95:i7'
p989
sS'posn'
p990
S'80'
p991
sS'name'
p992
S'\xe0\xa4\xae\xe0\xa4\xb9\xe0\xa4\xbe\xe0\xa4\xa8\xe0\xa4\xbf\xe0\xa4\xa6\xe0\xa5\x87\xe0\xa4\xb6\xe0\xa4\x95'
p993
sS'af'
p994
S'\xe0\xa4\xae\xe0\xa4\xb9\xe0\xa4\xbe\xe0\xa4\xa8\xe0\xa4\xbf\xe0\xa4\xa6\xe0\xa5\x87\xe0\xa4\xb6\xe0\xa4\x95,n,m,sg,3,o,0,0'
p995
sS'chunkid'
p996
S'NP2'
p997
sS'crefmod'
p998
S'm2:i7'
p999
sS'chunktype'
p1000
S'head:NP2'
p1001
sS'cref'
p1002
S'i7%1:t4'
p1003
sS'drel'
p1004
S'nmod:NP3'
p1005
ssbsg28
I00
sg29
I00
sg30
Nsg31
Nsg32
I1
sg33
I3
sg34
Nsg35
Nsg36
S'NN'
p1006
sg38
g985
sg39
I00
sba(issf_api
Word
p1007
(dp1008
g6
I00
sg7
V\u0939\u0941\u0938\u0948\u0928
p1009
sg9
(issf_api
FeatureSet
p1010
(dp1011
g12
(dp1012
S'posn'
p1013
S'90'
p1014
sS'name'
p1015
S'\xe0\xa4\xb9\xe0\xa5\x81\xe0\xa4\xb8\xe0\xa5\x88\xe0\xa4\xa8'
p1016
sS'af'
p1017
S'\xe0\xa4\xb9\xe0\xa5\x81\xe0\xa4\xb8\xe0\xa5\x88\xe0\xa4\xa8,n,m,sg,3,d,0,0'
p1018
sS'drel'
p1019
S'pof__cn:NP3'
p1020
sS'chunktype'
p1021
S'child:NP3'
p1022
sS'cref'
p1023
S'i8%0:t4'
p1024
ssbsg28
I00
sg29
I00
sg30
Nsg31
Nsg32
I2
sg33
I3
sg34
Nsg35
Nsg36
S'NNPC'
p1025
sg38
g1010
sg39
I00
sba(issf_api
Word
p1026
(dp1027
g6
I00
sg7
V\u0905\u0932\u0940
p1028
sg9
(issf_api
FeatureSet
p1029
(dp1030
g12
(dp1031
S'posn'
p1032
S'100'
p1033
sS'name'
p1034
S'\xe0\xa4\x85\xe0\xa4\xb2\xe0\xa5\x80'
p1035
sS'af'
p1036
S'\xe0\xa4\x85\xe0\xa4\xb2\xe0\xa5\x80,n,m,sg,3,d,0,0'
p1037
sS'drel'
p1038
S'pof__cn:NP3'
p1039
sS'chunktype'
p1040
S'child:NP3'
p1041
sS'cref'
p1042
S'i8%0:t4'
p1043
ssbsg28
I00
sg29
I00
sg30
Nsg31
Nsg32
I2
sg33
I3
sg34
Nsg35
Nsg36
S'NNPC'
p1044
sg38
g1029
sg39
I00
sba(issf_api
Word
p1045
(dp1046
g6
I00
sg7
V\u0905\u0932
p1047
sg9
(issf_api
FeatureSet
p1048
(dp1049
g12
(dp1050
S'posn'
p1051
S'110'
p1052
sS'name'
p1053
S'\xe0\xa4\x85\xe0\xa4\xb2'
p1054
sS'af'
p1055
S'\xe0\xa4\x85\xe0\xa4\xb2,n,m,sg,3,d,0,0'
p1056
sS'drel'
p1057
S'pof__cn:NP3'
p1058
sS'chunktype'
p1059
S'child:NP3'
p1060
sS'cref'
p1061
S'i8%0:t4'
p1062
ssbsg28
I00
sg29
I00
sg30
Nsg31
Nsg32
I2
sg33
I3
sg34
Nsg35
Nsg36
S'NNPC'
p1063
sg38
g1048
sg39
I00
sba(issf_api
Word
p1064
(dp1065
g6
I00
sg7
V\u092b\u0924\u0932
p1066
sg9
(issf_api
FeatureSet
p1067
(dp1068
g12
(dp1069
S'crefhead'
p1070
S'\xe0\xa4\xab\xe0\xa4\xa4\xe0\xa4\xb2:i8'
p1071
sS'posn'
p1072
S'120'
p1073
sS'name'
p1074
S'\xe0\xa4\xab\xe0\xa4\xa4\xe0\xa4\xb2'
p1075
sS'af'
p1076
S'\xe0\xa4\xab\xe0\xa4\xa4\xe0\xa4\xb2,n,m,sg,3,o,0_\xe0\xa4\x95\xe0\xa5\x8b,0'
p1077
sS'chunkid'
p1078
S'NP3'
p1079
sS'creftype'
p1080
S'Coreference-NounComplement:i7'
p1081
sS'chunktype'
p1082
S'head:NP3'
p1083
sS'crefchainhead'
p1084
S'i8:t4'
p1085
sS'vpos'
p1086
S'vib_5'
p1087
sS'cref'
p1088
S'i8%1:t4'
p1089
sS'drel'
p1090
S'k4:VGF'
p1091
ssbsg28
I00
sg29
I00
sg30
Nsg31
Nsg32
I2
sg33
I3
sg34
Nsg35
Nsg36
S'NNP'
p1092
sg38
g1067
sg39
I00
sba(issf_api
Word
p1093
(dp1094
g6
I00
sg7
V\u0915\u094b
p1095
sg9
(issf_api
FeatureSet
p1096
(dp1097
g12
(dp1098
S'posn'
p1099
S'130'
p1100
sS'name'
p1101
S'\xe0\xa4\x95\xe0\xa5\x8b'
p1102
sS'drel'
p1103
S'lwg__psp:NP3'
p1104
sS'chunktype'
p1105
S'child:NP3'
p1106
sS'af'
p1107
S'\xe0\xa4\x95\xe0\xa5\x8b,psp,,,,,,'
p1108
ssbsg28
I00
sg29
I00
sg30
Nsg31
Nsg32
I2
sg33
I3
sg34
Nsg35
Nsg36
S'PSP'
p1109
sg38
g1096
sg39
I00
sba(issf_api
Word
p1110
(dp1111
g6
I00
sg7
V\u092a\u0936\u094d\u091a\u093f\u092e
p1112
sg9
(issf_api
FeatureSet
p1113
(dp1114
g12
(dp1115
S'posn'
p1116
S'140'
p1117
sS'name'
p1118
S'\xe0\xa4\xaa\xe0\xa4\xb6\xe0\xa5\x8d\xe0\xa4\x9a\xe0\xa4\xbf\xe0\xa4\xae'
p1119
sS'af'
p1120
S'\xe0\xa4\xaa\xe0\xa4\xb6\xe0\xa5\x8d\xe0\xa4\x9a\xe0\xa4\xbf\xe0\xa4\xae,n,m,sg,3,d,0,0'
p1121
sS'drel'
p1122
S'pof__cn:NP4'
p1123
sS'chunktype'
p1124
S'child:NP4'
p1125
sS'cref'
p1126
S'i9%0:t2'
p1127
ssbsg28
I00
sg29
I00
sg30
Nsg31
Nsg32
I3
sg33
I3
sg34
Nsg35
Nsg36
S'NNPC'
p1128
sg38
g1113
sg39
I00
sba(issf_api
Word
p1129
(dp1130
g6
I00
sg7
V\u092c\u0917\u0926\u093e\u0926
p1131
sg9
(issf_api
FeatureSet
p1132
(dp1133
g12
(dp1134
S'crefhead'
p1135
S'\xe0\xa4\xac\xe0\xa4\x97\xe0\xa4\xa6\xe0\xa4\xbe\xe0\xa4\xa6:i9'
p1136
sS'posn'
p1137
S'150'
p1138
sS'name'
p1139
S'\xe0\xa4\xac\xe0\xa4\x97\xe0\xa4\xa6\xe0\xa4\xbe\xe0\xa4\xa6'
p1140
sS'af'
p1141
S'\xe0\xa4\xac\xe0\xa4\x97\xe0\xa4\xa6\xe0\xa4\xbe\xe0\xa4\xa6,n,m,sg,3,o,0_\xe0\xa4\x95\xe0\xa4\xbe,0'
p1142
sS'chunkid'
p1143
S'NP4'
p1144
sS'creftype'
p1145
S'Coreference-PartOf:i3'
p1146
sS'chunktype'
p1147
S'head:NP4'
p1148
sS'vpos'
p1149
S'vib_3'
p1150
sS'cref'
p1151
S'i9%1:t2'
p1152
sS'drel'
p1153
S'r6:NP5'
p1154
ssbsg28
I00
sg29
I00
sg30
Nsg31
Nsg32
I3
sg33
I3
sg34
Nsg35
Nsg36
S'NNP'
p1155
sg38
g1132
sg39
I00
sba(issf_api
Word
p1156
(dp1157
g6
I00
sg7
V\u0915\u0947
p1158
sg9
(issf_api
FeatureSet
p1159
(dp1160
g12
(dp1161
S'posn'
p1162
S'160'
p1163
sS'name'
p1164
S'\xe0\xa4\x95\xe0\xa5\x872'
p1165
sS'drel'
p1166
S'lwg__psp:NP4'
p1167
sS'chunktype'
p1168
S'child:NP4'
p1169
sS'af'
p1170
S'\xe0\xa4\x95\xe0\xa4\xbe,psp,m,sg,,o,,'
p1171
ssbsg28
I00
sg29
I00
sg30
Nsg31
Nsg32
I3
sg33
I3
sg34
Nsg35
Nsg36
S'PSP'
p1172
sg38
g1159
sg39
I00
sba(issf_api
Word
p1173
(dp1174
g6
I00
sg7
V\u090f\u0915
p1175
sg9
(issf_api
FeatureSet
p1176
(dp1177
g12
(dp1178
S'posn'
p1179
S'170'
p1180
sS'name'
p1181
S'\xe0\xa4\x8f\xe0\xa4\x95'
p1182
sS'drel'
p1183
S'nmod__adj:NP5'
p1184
sS'chunktype'
p1185
S'child:NP5'
p1186
sS'af'
p1187
S'\xe0\xa4\x8f\xe0\xa4\x95,num,any,any,,any,,'
p1188
ssbsg28
I00
sg29
I00
sg30
Nsg31
Nsg32
I4
sg33
I3
sg34
Nsg35
Nsg36
S'QC'
p1189
sg38
g1176
sg39
I00
sba(issf_api
Word
p1190
(dp1191
g6
I00
sg7
V\u0907\u0932\u093e\u0915\u0947
p1192
sg9
(issf_api
FeatureSet
p1193
(dp1194
g12
(dp1195
S'posn'
p1196
S'180'
p1197
sS'name'
p1198
S'\xe0\xa4\x87\xe0\xa4\xb2\xe0\xa4\xbe\xe0\xa4\x95\xe0\xa5\x87'
p1199
sS'af'
p1200
S'\xe0\xa4\x87\xe0\xa4\xb2\xe0\xa4\xbe\xe0\xa4\x95\xe0\xa4\xbe,n,m,sg,3,o,0_\xe0\xa4\xae\xe0\xa5\x87\xe0\xa4\x82,0'
p1201
sS'chunkid'
p1202
S'NP5'
p1203
sS'drel'
p1204
S'k7p:VGF'
p1205
sS'vpos'
p1206
S'vib_3'
p1207
sS'chunktype'
p1208
S'head:NP5'
p1209
ssbsg28
I00
sg29
I00
sg30
Nsg31
Nsg32
I4
sg33
I3
sg34
Nsg35
Nsg36
S'NN'
p1210
sg38
g1193
sg39
I00
sba(issf_api
Word
p1211
(dp1212
g6
I00
sg7
V\u092e\u0947\u0902
p1213
sg9
(issf_api
FeatureSet
p1214
(dp1215
g12
(dp1216
S'posn'
p1217
S'190'
p1218
sS'name'
p1219
S'\xe0\xa4\xae\xe0\xa5\x87\xe0\xa4\x82'
p1220
sS'drel'
p1221
S'lwg__psp:NP5'
p1222
sS'chunktype'
p1223
S'child:NP5'
p1224
sS'af'
p1225
S'\xe0\xa4\xae\xe0\xa5\x87\xe0\xa4\x82,psp,,,,,,'
p1226
ssbsg28
I00
sg29
I00
sg30
Nsg31
Nsg32
I4
sg33
I3
sg34
Nsg35
Nsg36
S'PSP'
p1227
sg38
g1214
sg39
I00
sba(issf_api
Word
p1228
(dp1229
g6
I00
sg7
V\u092c\u0941\u0927\u0935\u093e\u0930
p1230
sg9
(issf_api
FeatureSet
p1231
(dp1232
g12
(dp1233
S'posn'
p1234
S'200'
p1235
sS'name'
p1236
S'\xe0\xa4\xac\xe0\xa5\x81\xe0\xa4\xa7\xe0\xa4\xb5\xe0\xa4\xbe\xe0\xa4\xb0'
p1237
sS'af'
p1238
S'\xe0\xa4\xac\xe0\xa5\x81\xe0\xa4\xa7\xe0\xa4\xb5\xe0\xa4\xbe\xe0\xa4\xb0,n,m,sg,3,o,0_\xe0\xa4\x95\xe0\xa5\x8b,0'
p1239
sS'chunkid'
p1240
S'NP6'
p1241
sS'drel'
p1242
S'k7t:VGF'
p1243
sS'vpos'
p1244
S'vib_2'
p1245
sS'chunktype'
p1246
S'head:NP6'
p1247
ssbsg28
I00
sg29
I00
sg30
Nsg31
Nsg32
I5
sg33
I3
sg34
Nsg35
Nsg36
S'NNP'
p1248
sg38
g1231
sg39
I00
sba(issf_api
Word
p1249
(dp1250
g6
I00
sg7
V\u0915\u094b
p1251
sg9
(issf_api
FeatureSet
p1252
(dp1253
g12
(dp1254
S'posn'
p1255
S'210'
p1256
sS'name'
p1257
S'\xe0\xa4\x95\xe0\xa5\x8b2'
p1258
sS'drel'
p1259
S'lwg__psp:NP6'
p1260
sS'chunktype'
p1261
S'child:NP6'
p1262
sS'af'
p1263
S'\xe0\xa4\x95\xe0\xa5\x8b,psp,,,,,,'
p1264
ssbsg28
I00
sg29
I00
sg30
Nsg31
Nsg32
I5
sg33
I3
sg34
Nsg35
Nsg36
S'PSP'
p1265
sg38
g1252
sg39
I00
sba(issf_api
Word
p1266
(dp1267
g6
I00
sg7
V\u0917\u094b\u0932\u0940
p1268
sg9
(issf_api
FeatureSet
p1269
(dp1270
g12
(dp1271
S'posn'
p1272
S'220'
p1273
sS'name'
p1274
S'\xe0\xa4\x97\xe0\xa5\x8b\xe0\xa4\xb2\xe0\xa5\x80'
p1275
sS'af'
p1276
S'\xe0\xa4\x97\xe0\xa5\x8b\xe0\xa4\xb2\xe0\xa5\x80,n,f,sg,3,d,0,0'
p1277
sS'chunkid'
p1278
S'NP7'
p1279
sS'drel'
p1280
S'k2:VGF'
p1281
sS'chunktype'
p1282
S'head:NP7'
p1283
ssbsg28
I00
sg29
I00
sg30
Nsg31
Nsg32
I6
sg33
I3
sg34
Nsg35
Nsg36
S'NN'
p1284
sg38
g1269
sg39
I00
sba(issf_api
Word
p1285
(dp1286
g6
I00
sg7
V\u092e\u093e\u0930
p1287
sg9
(issf_api
FeatureSet
p1288
(dp1289
g12
(dp1290
S'posn'
p1291
S'230'
p1292
sS'name'
p1293
S'\xe0\xa4\xae\xe0\xa4\xbe\xe0\xa4\xb0'
p1294
sS'af'
p1295
S'\xe0\xa4\xae\xe0\xa4\xbe\xe0\xa4\xb0,v,f,sg,any,,0_\xe0\xa4\xa6\xe0\xa5\x87+\xe0\xa4\xaf\xe0\xa4\xbe_\xe0\xa4\x9c\xe0\xa4\xbe+\xe0\xa4\xaf\xe0\xa4\xbe\xe0\xa5\xa7,0'
p1296
sS'chunkid'
p1297
S'VGF'
p1298
sS'chunktype'
p1299
S'head:VGF'
p1300
sS'voicetype'
p1301
S'passive'
p1302
sS'vpos'
p1303
S'tam_2_3'
p1304
sS'stype'
p1305
S'declarative'
p1306
ssbsg28
I00
sg29
I00
sg30
Nsg31
Nsg32
I7
sg33
I3
sg34
Nsg35
Nsg36
S'VM'
p1307
sg38
g1288
sg39
I00
sba(issf_api
Word
p1308
(dp1309
g6
I00
sg7
V\u0926\u0940
p1310
sg9
(issf_api
FeatureSet
p1311
(dp1312
g12
(dp1313
S'posn'
p1314
S'240'
p1315
sS'name'
p1316
S'\xe0\xa4\xa6\xe0\xa5\x80'
p1317
sS'drel'
p1318
S'lwg__vaux:VGF'
p1319
sS'chunktype'
p1320
S'child:VGF'
p1321
sS'af'
p1322
S'\xe0\xa4\xa6\xe0\xa5\x87,v,f,sg,any,,\xe0\xa4\xaf\xe0\xa4\xbe,yA'
p1323
ssbsg28
I00
sg29
I00
sg30
Nsg31
Nsg32
I7
sg33
I3
sg34
Nsg35
Nsg36
S'VAUX'
p1324
sg38
g1311
sg39
I00
sba(issf_api
Word
p1325
(dp1326
g6
I00
sg7
V\u0917\u0908
p1327
sg9
(issf_api
FeatureSet
p1328
(dp1329
g12
(dp1330
S'posn'
p1331
S'250'
p1332
sS'name'
p1333
S'\xe0\xa4\x97\xe0\xa4\x88'
p1334
sS'drel'
p1335
S'lwg__vaux:VGF'
p1336
sS'chunktype'
p1337
S'child:VGF'
p1338
sS'af'
p1339
S'\xe0\xa4\x9c\xe0\xa4\xbe,v,f,sg,any,,\xe0\xa4\xaf\xe0\xa4\xbe\xe0\xa5\xa7,yA1'
p1340
ssbsg28
I00
sg29
I00
sg30
Nsg31
Nsg32
I7
sg33
I3
sg34
Nsg35
Nsg36
S'VAUX'
p1341
sg38
g1328
sg39
I00
sba(issf_api
Word
p1342
(dp1343
g6
I00
sg7
V\u0964
p1344
sg9
(issf_api
FeatureSet
p1345
(dp1346
g12
(dp1347
S'posn'
p1348
S'260'
p1349
sS'name'
p1350
S'\xe0\xa5\xa4'
p1351
sS'af'
p1352
S'\xe0\xa5\xa4,punc,,,,,,'
p1353
sS'chunkid'
p1354
S'BLK'
p1355
sS'drel'
p1356
S'rsym:VGF'
p1357
sS'chunktype'
p1358
S'head:BLK'
p1359
ssbsg28
I00
sg29
I00
sg30
Nsg31
Nsg32
I8
sg33
I3
sg34
Nsg35
Nsg36
S'SYM'
p1360
sg38
g1345
sg39
I00
sba(issf_api
Word
p1361
(dp1362
g6
I00
sg7
V\u0938\u0942\u0924\u094d\u0930\u094b\u0902
p1363
sg9
(issf_api
FeatureSet
p1364
(dp1365
g12
(dp1366
S'posn'
p1367
S'10'
p1368
sS'name'
p1369
S'\xe0\xa4\xb8\xe0\xa5\x82\xe0\xa4\xa4\xe0\xa5\x8d\xe0\xa4\xb0\xe0\xa5\x8b\xe0\xa4\x82'
p1370
sS'af'
p1371
S'\xe0\xa4\xb8\xe0\xa5\x82\xe0\xa4\xa4\xe0\xa5\x8d\xe0\xa4\xb0,n,m,pl,3,o,0_\xe0\xa4\x95\xe0\xa5\x87_\xe0\xa4\x85\xe0\xa4\xa8\xe0\xa5\x81\xe0\xa4\xb8\xe0\xa4\xbe\xe0\xa4\xb0,0'
p1372
sS'chunkid'
p1373
S'NP'
p1374
sS'drel'
p1375
S'k7a:VGF'
p1376
sS'vpos'
p1377
S'vib_2_3'
p1378
sS'chunktype'
p1379
S'head:NP'
p1380
ssbsg28
I00
sg29
I00
sg30
Nsg31
Nsg32
I0
sg33
I4
sg34
Nsg35
Nsg36
S'NN'
p1381
sg38
g1364
sg39
I00
sba(issf_api
Word
p1382
(dp1383
g6
I00
sg7
V\u0915\u0947
p1384
sg9
(issf_api
FeatureSet
p1385
(dp1386
g12
(dp1387
S'posn'
p1388
S'20'
p1389
sS'name'
p1390
S'\xe0\xa4\x95\xe0\xa5\x87'
p1391
sS'drel'
p1392
S'lwg__psp:NP'
p1393
sS'chunktype'
p1394
S'child:NP'
p1395
sS'af'
p1396
S'\xe0\xa4\x95\xe0\xa5\x87,psp,,,,,,'
p1397
ssbsg28
I00
sg29
I00
sg30
Nsg31
Nsg32
I0
sg33
I4
sg34
Nsg35
Nsg36
S'PSP'
p1398
sg38
g1385
sg39
I00
sba(issf_api
Word
p1399
(dp1400
g6
I00
sg7
V\u0905\u0928\u0941\u0938\u093e\u0930
p1401
sg9
(issf_api
FeatureSet
p1402
(dp1403
g12
(dp1404
S'posn'
p1405
S'30'
p1406
sS'name'
p1407
S'\xe0\xa4\x85\xe0\xa4\xa8\xe0\xa5\x81\xe0\xa4\xb8\xe0\xa4\xbe\xe0\xa4\xb0'
p1408
sS'drel'
p1409
S'lwg__psp:NP'
p1410
sS'chunktype'
p1411
S'child:NP'
p1412
sS'af'
p1413
S'\xe0\xa4\x85\xe0\xa4\xa8\xe0\xa5\x81\xe0\xa4\xb8\xe0\xa4\xbe\xe0\xa4\xb0,psp,,,,,,'
p1414
ssbsg28
I00
sg29
I00
sg30
Nsg31
Nsg32
I0
sg33
I4
sg34
Nsg35
Nsg36
S'PSP'
p1415
sg38
g1402
sg39
I00
sba(issf_api
Word
p1416
(dp1417
g6
I00
sg7
V,
p1418
sg9
(issf_api
FeatureSet
p1419
(dp1420
g12
(dp1421
S'posn'
p1422
S'40'
p1423
sS'name'
p1424
S','
p1425
sS'drel'
p1426
S'rsym:NP'
p1427
sS'chunktype'
p1428
S'child:NP'
p1429
sS'af'
p1430
S'COMMA,punc,,,,,,'
p1431
ssbsg28
I00
sg29
I00
sg30
Nsg31
Nsg32
I0
sg33
I4
sg34
Nsg35
Nsg36
S'SYM'
p1432
sg38
g1419
sg39
I00
sba(issf_api
Word
p1433
(dp1434
g6
I00
sg7
V\u0909\u0928\u094d\u0939\u0947\u0902
p1435
sg9
(issf_api
FeatureSet
p1436
(dp1437
g12
(dp1438
S'crefhead'
p1439
S'\xe0\xa4\x89\xe0\xa4\xa8\xe0\xa5\x8d\xe0\xa4\xb9\xe0\xa5\x87\xe0\xa4\x82:i10'
p1440
sS'posn'
p1441
S'50'
p1442
sS'name'
p1443
S'\xe0\xa4\x89\xe0\xa4\xa8\xe0\xa5\x8d\xe0\xa4\xb9\xe0\xa5\x87\xe0\xa4\x82'
p1444
sS'af'
p1445
S'\xe0\xa4\xb5\xe0\xa4\xb9,pn,any,sg,3h,o,\xe0\xa4\x95\xe0\xa5\x8b,ko'
p1446
sS'chunkid'
p1447
S'NP2'
p1448
sS'creftype'
p1449
S'Anaphora-C:i8'
p1450
sS'chunktype'
p1451
S'head:NP2'
p1452
sS'cref'
p1453
S'i10%1:t4'
p1454
sS'drel'
p1455
S'k4:VGF'
p1456
ssbsg28
I00
sg29
I00
sg30
Nsg31
Nsg32
I1
sg33
I4
sg34
Nsg35
Nsg36
S'PRP'
p1457
sg38
g1436
sg39
I00
sba(issf_api
Word
p1458
(dp1459
g6
I00
sg7
V\u0915\u093e\u092b\u0940
p1460
sg9
(issf_api
FeatureSet
p1461
(dp1462
g12
(dp1463
S'posn'
p1464
S'60'
p1465
sS'name'
p1466
S'\xe0\xa4\x95\xe0\xa4\xbe\xe0\xa4\xab\xe0\xa5\x80'
p1467
sS'drel'
p1468
S'nmod__adj:NP3'
p1469
sS'chunktype'
p1470
S'child:NP3'
p1471
sS'af'
p1472
S'\xe0\xa4\x95\xe0\xa4\xbe\xe0\xa4\xab\xe0\xa5\x80,avy,,,,,,'
p1473
ssbsg28
I00
sg29
I00
sg30
Nsg31
Nsg32
I2
sg33
I4
sg34
Nsg35
Nsg36
S'QF'
p1474
sg38
g1461
sg39
I00
sba(issf_api
Word
p1475
(dp1476
g6
I00
sg7
V\u0938\u092e\u092f
p1477
sg9
(issf_api
FeatureSet
p1478
(dp1479
g12
(dp1480
S'posn'
p1481
S'70'
p1482
sS'name'
p1483
S'\xe0\xa4\xb8\xe0\xa4\xae\xe0\xa4\xaf'
p1484
sS'af'
p1485
S'\xe0\xa4\xb8\xe0\xa4\xae\xe0\xa4\xaf,n,m,sg,3,o,0_\xe0\xa4\xb8\xe0\xa5\x87,0'
p1486
sS'chunkid'
p1487
S'NP3'
p1488
sS'drel'
p1489
S'k7t:VGF'
p1490
sS'vpos'
p1491
S'vib_3'
p1492
sS'chunktype'
p1493
S'head:NP3'
p1494
ssbsg28
I00
sg29
I00
sg30
Nsg31
Nsg32
I2
sg33
I4
sg34
Nsg35
Nsg36
S'NN'
p1495
sg38
g1478
sg39
I00
sba(issf_api
Word
p1496
(dp1497
g6
I00
sg7
V\u0938\u0947
p1498
sg9
(issf_api
FeatureSet
p1499
(dp1500
g12
(dp1501
S'posn'
p1502
S'80'
p1503
sS'name'
p1504
S'\xe0\xa4\xb8\xe0\xa5\x87'
p1505
sS'drel'
p1506
S'lwg__psp:NP3'
p1507
sS'chunktype'
p1508
S'child:NP3'
p1509
sS'af'
p1510
S'\xe0\xa4\xb8\xe0\xa5\x87,psp,,,,,,'
p1511
ssbsg28
I00
sg29
I00
sg30
Nsg31
Nsg32
I2
sg33
I4
sg34
Nsg35
Nsg36
S'PSP'
p1512
sg38
g1499
sg39
I00
sba(issf_api
Word
p1513
(dp1514
g6
I00
sg7
V\u0927\u092e\u0915\u093f\u092f\u093e\u0902
p1515
sg9
(issf_api
FeatureSet
p1516
(dp1517
g12
(dp1518
S'posn'
p1519
S'90'
p1520
sS'name'
p1521
S'\xe0\xa4\xa7\xe0\xa4\xae\xe0\xa4\x95\xe0\xa4\xbf\xe0\xa4\xaf\xe0\xa4\xbe\xe0\xa4\x82'
p1522
sS'af'
p1523
S'\xe0\xa4\xa7\xe0\xa4\xae\xe0\xa4\x95\xe0\xa5\x80,n,f,pl,3,d,0,0'
p1524
sS'chunkid'
p1525
S'NP4'
p1526
sS'drel'
p1527
S'k1:VGF'
p1528
sS'chunktype'
p1529
S'head:NP4'
p1530
ssbsg28
I00
sg29
I00
sg30
Nsg31
Nsg32
I3
sg33
I4
sg34
Nsg35
Nsg36
S'NN'
p1531
sg38
g1516
sg39
I00
sba(issf_api
Word
p1532
(dp1533
g6
I00
sg7
V\u092e\u093f\u0932
p1534
sg9
(issf_api
FeatureSet
p1535
(dp1536
g12
(dp1537
S'posn'
p1538
S'100'
p1539
sS'name'
p1540
S'\xe0\xa4\xae\xe0\xa4\xbf\xe0\xa4\xb2'
p1541
sS'af'
p1542
S'\xe0\xa4\xae\xe0\xa4\xbf\xe0\xa4\xb2,v,f,pl,any,,0_\xe0\xa4\xb0\xe0\xa4\xb9+\xe0\xa4\xaf\xe0\xa4\xbe_\xe0\xa4\xa5\xe0\xa4\xbe,0'
p1543
sS'chunkid'
p1544
S'VGF'
p1545
sS'chunktype'
p1546
S'head:VGF'
p1547
sS'voicetype'
p1548
S'active'
p1549
sS'vpos'
p1550
S'tam_2_3'
p1551
sS'stype'
p1552
S'declarative'
p1553
ssbsg28
I00
sg29
I00
sg30
Nsg31
Nsg32
I4
sg33
I4
sg34
Nsg35
Nsg36
S'VM'
p1554
sg38
g1535
sg39
I00
sba(issf_api
Word
p1555
(dp1556
g6
I00
sg7
V\u0930\u0939\u0940
p1557
sg9
(issf_api
FeatureSet
p1558
(dp1559
g12
(dp1560
S'posn'
p1561
S'110'
p1562
sS'name'
p1563
S'\xe0\xa4\xb0\xe0\xa4\xb9\xe0\xa5\x80'
p1564
sS'drel'
p1565
S'lwg__vaux:VGF'
p1566
sS'chunktype'
p1567
S'child:VGF'
p1568
sS'af'
p1569
S'\xe0\xa4\xb0\xe0\xa4\xb9,v,f,pl,any,,\xe0\xa4\xaf\xe0\xa4\xbe,yA'
p1570
ssbsg28
I00
sg29
I00
sg30
Nsg31
Nsg32
I4
sg33
I4
sg34
Nsg35
Nsg36
S'VAUX'
p1571
sg38
g1558
sg39
I00
sba(issf_api
Word
p1572
(dp1573
g6
I00
sg7
V\u0925\u0940\u0902
p1574
sg9
(issf_api
FeatureSet
p1575
(dp1576
g12
(dp1577
S'posn'
p1578
S'120'
p1579
sS'name'
p1580
S'\xe0\xa4\xa5\xe0\xa5\x80\xe0\xa4\x82'
p1581
sS'drel'
p1582
S'lwg__vaux:VGF'
p1583
sS'chunktype'
p1584
S'child:VGF'
p1585
sS'af'
p1586
S'\xe0\xa4\xa5\xe0\xa4\xbe,v,f,pl,any,,\xe0\xa4\xa5\xe0\xa4\xbe,WA'
p1587
ssbsg28
I00
sg29
I00
sg30
Nsg31
Nsg32
I4
sg33
I4
sg34
Nsg35
Nsg36
S'VAUX'
p1588
sg38
g1575
sg39
I00
sba(issf_api
Word
p1589
(dp1590
g6
I00
sg7
V\u0964
p1591
sg9
(issf_api
FeatureSet
p1592
(dp1593
g12
(dp1594
S'posn'
p1595
S'130'
p1596
sS'name'
p1597
S'\xe0\xa5\xa4'
p1598
sS'af'
p1599
S'\xe0\xa5\xa4,punc,,,,,,'
p1600
sS'chunkid'
p1601
S'BLK'
p1602
sS'drel'
p1603
S'rsym:VGF'
p1604
sS'chunktype'
p1605
S'head:BLK'
p1606
ssbsg28
I00
sg29
I00
sg30
Nsg31
Nsg32
I5
sg33
I4
sg34
Nsg35
Nsg36
S'SYM'
p1607
sg38
g1592
sg39
I00
sba(issf_api
Word
p1608
(dp1609
g6
I00
sg7
V\u0938\u094b\u092e\u0935\u093e\u0930
p1610
sg9
(issf_api
FeatureSet
p1611
(dp1612
g12
(dp1613
S'posn'
p1614
S'10'
p1615
sS'name'
p1616
S'\xe0\xa4\xb8\xe0\xa5\x8b\xe0\xa4\xae\xe0\xa4\xb5\xe0\xa4\xbe\xe0\xa4\xb0'
p1617
sS'af'
p1618
S'\xe0\xa4\xb8\xe0\xa5\x8b\xe0\xa4\xae\xe0\xa4\xb5\xe0\xa4\xbe\xe0\xa4\xb0,n,m,sg,3,o,0_\xe0\xa4\x95\xe0\xa5\x8b,0'
p1619
sS'chunkid'
p1620
S'NP'
p1621
sS'drel'
p1622
S'k7t:VGF'
p1623
sS'vpos'
p1624
S'vib_2'
p1625
sS'chunktype'
p1626
S'head:NP'
p1627
ssbsg28
I00
sg29
I00
sg30
Nsg31
Nsg32
I0
sg33
I5
sg34
Nsg35
Nsg36
S'NNP'
p1628
sg38
g1611
sg39
I00
sba(issf_api
Word
p1629
(dp1630
g6
I00
sg7
V\u0915\u094b
p1631
sg9
(issf_api
FeatureSet
p1632
(dp1633
g12
(dp1634
S'posn'
p1635
S'20'
p1636
sS'name'
p1637
S'\xe0\xa4\x95\xe0\xa5\x8b'
p1638
sS'drel'
p1639
S'lwg__psp:NP'
p1640
sS'chunktype'
p1641
S'child:NP'
p1642
sS'af'
p1643
S'\xe0\xa4\x95\xe0\xa5\x8b,psp,,,,,,'
p1644
ssbsg28
I00
sg29
I00
sg30
Nsg31
Nsg32
I0
sg33
I5
sg34
Nsg35
Nsg36
S'PSP'
p1645
sg38
g1632
sg39
I00
sba(issf_api
Word
p1646
(dp1647
g6
I00
sg7
V\u092c\u0917\u0926\u093e\u0926
p1648
sg9
(issf_api
FeatureSet
p1649
(dp1650
g12
(dp1651
S'crefhead'
p1652
S'\xe0\xa4\xac\xe0\xa4\x97\xe0\xa4\xa6\xe0\xa4\xbe\xe0\xa4\xa6:i11'
p1653
sS'posn'
p1654
S'30'
p1655
sS'name'
p1656
S'\xe0\xa4\xac\xe0\xa4\x97\xe0\xa4\xa6\xe0\xa4\xbe\xe0\xa4\xa6'
p1657
sS'af'
p1658
S'\xe0\xa4\xac\xe0\xa4\x97\xe0\xa4\xa6\xe0\xa4\xbe\xe0\xa4\xa6,n,m,sg,3,o,0_\xe0\xa4\xb8\xe0\xa5\x87,0'
p1659
sS'chunkid'
p1660
S'NP2'
p1661
sS'creftype'
p1662
S'Coreference-RPartOf:i9'
p1663
sS'chunktype'
p1664
S'head:NP2'
p1665
sS'vpos'
p1666
S'vib_2'
p1667
sS'cref'
p1668
S'i11%1:t2'
p1669
sS'drel'
p1670
S'k5:VGF'
p1671
ssbsg28
I00
sg29
I00
sg30
Nsg31
Nsg32
I1
sg33
I5
sg34
Nsg35
Nsg36
S'NNP'
p1672
sg38
g1649
sg39
I00
sba(issf_api
Word
p1673
(dp1674
g6
I00
sg7
V\u0938\u0947
p1675
sg9
(issf_api
FeatureSet
p1676
(dp1677
g12
(dp1678
S'posn'
p1679
S'40'
p1680
sS'name'
p1681
S'\xe0\xa4\xb8\xe0\xa5\x87'
p1682
sS'drel'
p1683
S'lwg__psp:NP2'
p1684
sS'chunktype'
p1685
S'child:NP2'
p1686
sS'af'
p1687
S'\xe0\xa4\xb8\xe0\xa5\x87,psp,,,,,,'
p1688
ssbsg28
I00
sg29
I00
sg30
Nsg31
Nsg32
I1
sg33
I5
sg34
Nsg35
Nsg36
S'PSP'
p1689
sg38
g1676
sg39
I00
sba(issf_api
Word
p1690
(dp1691
g6
I00
sg7
V\u090f\u0915
p1692
sg9
(issf_api
FeatureSet
p1693
(dp1694
g12
(dp1695
S'posn'
p1696
S'50'
p1697
sS'name'
p1698
S'\xe0\xa4\x8f\xe0\xa4\x95'
p1699
sS'af'
p1700
S'\xe0\xa4\x8f\xe0\xa4\x95,num,any,any,,any,,'
p1701
sS'acrefmod'
p1702
S'm3%0:i13'
p1703
sS'drel'
p1704
S'mod:JJP'
p1705
sS'chunktype'
p1706
S'child:JJP'
p1707
sS'cref'
p1708
S'i12%0:t5'
p1709
ssbsg28
I00
sg29
I00
sg30
Nsg31
Nsg32
I2
sg33
I5
sg34
Nsg35
Nsg36
S'QC'
p1710
sg38
g1693
sg39
I00
sba(issf_api
Word
p1711
(dp1712
g6
I00
sg7
V\u0905\u092e\u0947\u0930\u093f\u0915\u0940
p1713
sg9
(issf_api
FeatureSet
p1714
(dp1715
g12
(dp1716
S'crefhead'
p1717
S'\xe0\xa4\x85\xe0\xa4\xae\xe0\xa5\x87\xe0\xa4\xb0\xe0\xa4\xbf\xe0\xa4\x95\xe0\xa5\x80:i12'
p1718
sS'posn'
p1719
S'60'
p1720
sS'name'
p1721
S'\xe0\xa4\x85\xe0\xa4\xae\xe0\xa5\x87\xe0\xa4\xb0\xe0\xa4\xbf\xe0\xa4\x95\xe0\xa5\x80'
p1722
sS'af'
p1723
S'\xe0\xa4\x85\xe0\xa4\xae\xe0\xa5\x87\xe0\xa4\xb0\xe0\xa4\xbf\xe0\xa4\x95\xe0\xa5\x80,adj,any,any,,o,,'
p1724
sS'chunkid'
p1725
S'JJP'
p1726
sS'acrefmod'
p1727
S'm3%0:i13'
p1728
sS'chunktype'
p1729
S'head:JJP'
p1730
sS'crefchainhead'
p1731
S'i12:t5'
p1732
sS'cref'
p1733
S'i12%1:t5'
p1734
sS'drel'
p1735
S'ccof:CCP'
p1736
ssbsg28
I00
sg29
I00
sg30
Nsg31
Nsg32
I2
sg33
I5
sg34
Nsg35
Nsg36
S'JJ'
p1737
sg38
g1714
sg39
I00
sba(issf_api
Word
p1738
(dp1739
g6
I00
sg7
V\u0914\u0930
p1740
sg9
(issf_api
FeatureSet
p1741
(dp1742
g12
(dp1743
S'posn'
p1744
S'70'
p1745
sS'name'
p1746
S'\xe0\xa4\x94\xe0\xa4\xb0'
p1747
sS'af'
p1748
S'\xe0\xa4\x94\xe0\xa4\xb0,avy,,,,,,'
p1749
sS'acrefmodhead'
p1750
S'\xe0\xa4\x94\xe0\xa4\xb0:m3'
p1751
sS'chunkid'
p1752
S'CCP'
p1753
sS'acrefmod'
p1754
S'm3%0:i13'
p1755
sS'drel'
p1756
S'nmod:NP3'
p1757
sS'chunktype'
p1758
S'head:CCP'
p1759
ssbsg28
I00
sg29
I00
sg30
Nsg31
Nsg32
I3
sg33
I5
sg34
Nsg35
Nsg36
S'CC'
p1760
sg38
g1741
sg39
I00
sba(issf_api
Word
p1761
(dp1762
g6
I00
sg7
V\u0926\u094b
p1763
sg9
(issf_api
FeatureSet
p1764
(dp1765
g12
(dp1766
S'posn'
p1767
S'80'
p1768
sS'name'
p1769
S'\xe0\xa4\xa6\xe0\xa5\x8b'
p1770
sS'af'
p1771
S'\xe0\xa4\xa6\xe0\xa5\x8b,num,any,any,,any,,'
p1772
sS'acrefmod'
p1773
S'm3%0:i13'
p1774
sS'drel'
p1775
S'mod:JJP2'
p1776
sS'chunktype'
p1777
S'child:JJP2'
p1778
sS'cref'
p1779
S'i14%0:t6'
p1780
ssbsg28
I00
sg29
I00
sg30
Nsg31
Nsg32
I4
sg33
I5
sg34
Nsg35
Nsg36
S'QC'
p1781
sg38
g1764
sg39
I00
sba(issf_api
Word
p1782
(dp1783
g6
I00
sg7
V\u0905\u0928\u094d\u092f
p1784
sg9
(issf_api
FeatureSet
p1785
(dp1786
g12
(dp1787
S'posn'
p1788
S'90'
p1789
sS'name'
p1790
S'\xe0\xa4\x85\xe0\xa4\xa8\xe0\xa5\x8d\xe0\xa4\xaf'
p1791
sS'af'
p1792
S'\xe0\xa4\x85\xe0\xa4\xa8\xe0\xa5\x8d\xe0\xa4\xaf,adj,any,any,,o,,'
p1793
sS'acrefmod'
p1794
S'm3%0:i13'
p1795
sS'drel'
p1796
S'nmod__adj:JJP2'
p1797
sS'chunktype'
p1798
S'child:JJP2'
p1799
sS'cref'
p1800
S'i14%0:t6'
p1801
ssbsg28
I00
sg29
I00
sg30
Nsg31
Nsg32
I4
sg33
I5
sg34
Nsg35
Nsg36
S'JJ'
p1802
sg38
g1785
sg39
I00
sba(issf_api
Word
p1803
(dp1804
g6
I00
sg7
V\u0935\u093f\u0926\u0947\u0936\u0940
p1805
sg9
(issf_api
FeatureSet
p1806
(dp1807
g12
(dp1808
S'posn'
p1809
S'100'
p1810
sS'name'
p1811
S'\xe0\xa4\xb5\xe0\xa4\xbf\xe0\xa4\xa6\xe0\xa5\x87\xe0\xa4\xb6\xe0\xa5\x80'
p1812
sS'af'
p1813
S'\xe0\xa4\xb5\xe0\xa4\xbf\xe0\xa4\xa6\xe0\xa5\x87\xe0\xa4\xb6\xe0\xa5\x80,adj,any,any,,o,,'
p1814
sS'chunkid'
p1815
S'JJP2'
p1816
sS'acrefmod'
p1817
S'm3%0:i13'
p1818
sS'drel'
p1819
S'ccof:CCP'
p1820
sS'chunktype'
p1821
S'head:JJP2'
p1822
sS'cref'
p1823
S'i14%0:t6'
p1824
ssbsg28
I00
sg29
I00
sg30
Nsg31
Nsg32
I4
sg33
I5
sg34
Nsg35
Nsg36
S'JJ'
p1825
sg38
g1806
sg39
I00
sba(issf_api
Word
p1826
(dp1827
g6
I00
sg7
V\u0928\u093e\u0917\u0930\u093f\u0915\u094b\u0902
p1828
sg9
(issf_api
FeatureSet
p1829
(dp1830
g12
(dp1831
S'crefhead'
p1832
S'\xe0\xa4\xa8\xe0\xa4\xbe\xe0\xa4\x97\xe0\xa4\xb0\xe0\xa4\xbf\xe0\xa4\x95\xe0\xa5\x8b\xe0\xa4\x82:i14'
p1833
sS'posn'
p1834
S'110'
p1835
sS'name'
p1836
S'\xe0\xa4\xa8\xe0\xa4\xbe\xe0\xa4\x97\xe0\xa4\xb0\xe0\xa4\xbf\xe0\xa4\x95\xe0\xa5\x8b\xe0\xa4\x82'
p1837
sS'af'
p1838
S'\xe0\xa4\xa8\xe0\xa4\xbe\xe0\xa4\x97\xe0\xa4\xb0\xe0\xa4\xbf\xe0\xa4\x95,n,m,pl,3,o,0_\xe0\xa4\x95\xe0\xa4\xbe,0'
p1839
sS'chunkid'
p1840
S'NP3'
p1841
sS'acrefmod'
p1842
S'm3%1:i13'
p1843
sS'chunktype'
p1844
S'head:NP3'
p1845
sS'crefchainhead'
p1846
S'i14:t6'
p1847
sS'vpos'
p1848
S'vib_2'
p1849
sS'cref'
p1850
S'i14%1:t6'
p1851
sS'drel'
p1852
S'r6:NP4'
p1853
ssbsg28
I00
sg29
I00
sg30
Nsg31
Nsg32
I5
sg33
I5
sg34
Nsg35
Nsg36
S'NN'
p1854
sg38
g1829
sg39
I00
sba(issf_api
Word
p1855
(dp1856
g6
I00
sg7
V\u0915\u0947
p1857
sg9
(issf_api
FeatureSet
p1858
(dp1859
g12
(dp1860
S'posn'
p1861
S'120'
p1862
sS'name'
p1863
S'\xe0\xa4\x95\xe0\xa5\x87'
p1864
sS'drel'
p1865
S'lwg__psp:NP3'
p1866
sS'chunktype'
p1867
S'child:NP3'
p1868
sS'af'
p1869
S'\xe0\xa4\x95\xe0\xa4\xbe,psp,m,sg,,o,,'
p1870
ssbsg28
I00
sg29
I00
sg30
Nsg31
Nsg32
I5
sg33
I5
sg34
Nsg35
Nsg36
S'PSP'
p1871
sg38
g1858
sg39
I00
sba(issf_api
Word
p1872
(dp1873
g6
I00
sg7
V\u0905\u092a\u0939\u0930\u0923
p1874
sg9
(issf_api
FeatureSet
p1875
(dp1876
g12
(dp1877
S'crefhead'
p1878
S'\xe0\xa4\x85\xe0\xa4\xaa\xe0\xa4\xb9\xe0\xa4\xb0\xe0\xa4\xa3:i13'
p1879
sS'posn'
p1880
S'130'
p1881
sS'name'
p1882
S'\xe0\xa4\x85\xe0\xa4\xaa\xe0\xa4\xb9\xe0\xa4\xb0\xe0\xa4\xa3'
p1883
sS'af'
p1884
S'\xe0\xa4\x85\xe0\xa4\xaa\xe0\xa4\xb9\xe0\xa4\xb0\xe0\xa4\xa3,n,m,sg,3,o,0_\xe0\xa4\x95\xe0\xa5\x87_\xe0\xa4\xac\xe0\xa4\xbe\xe0\xa4\xb0\xe0\xa5\x87_\xe0\xa4\xae\xe0\xa5\x87\xe0\xa4\x82,0'
p1885
sS'chunkid'
p1886
S'NP4'
p1887
sS'crefmod'
p1888
S'm3:i13'
p1889
sS'chunktype'
p1890
S'head:NP4'
p1891
sS'crefchainhead'
p1892
S'i13:t7'
p1893
sS'vpos'
p1894
S'vib_2_3_4'
p1895
sS'cref'
p1896
S'i13%1:t7'
p1897
sS'drel'
p1898
S'k7:VGF'
p1899
ssbsg28
I00
sg29
I00
sg30
Nsg31
Nsg32
I6
sg33
I5
sg34
Nsg35
Nsg36
S'NN'
p1900
sg38
g1875
sg39
I00
sba(issf_api
Word
p1901
(dp1902
g6
I00
sg7
V\u0915\u0947
p1903
sg9
(issf_api
FeatureSet
p1904
(dp1905
g12
(dp1906
S'posn'
p1907
S'140'
p1908
sS'name'
p1909
S'\xe0\xa4\x95\xe0\xa5\x872'
p1910
sS'drel'
p1911
S'lwg__psp:NP4'
p1912
sS'chunktype'
p1913
S'child:NP4'
p1914
sS'af'
p1915
S'\xe0\xa4\x95\xe0\xa5\x87,psp,,,,,,'
p1916
ssbsg28
I00
sg29
I00
sg30
Nsg31
Nsg32
I6
sg33
I5
sg34
Nsg35
Nsg36
S'PSP'
p1917
sg38
g1904
sg39
I00
sba(issf_api
Word
p1918
(dp1919
g6
I00
sg7
V\u092c\u093e\u0930\u0947
p1920
sg9
(issf_api
FeatureSet
p1921
(dp1922
g12
(dp1923
S'posn'
p1924
S'150'
p1925
sS'name'
p1926
S'\xe0\xa4\xac\xe0\xa4\xbe\xe0\xa4\xb0\xe0\xa5\x87'
p1927
sS'drel'
p1928
S'lwg__psp:NP4'
p1929
sS'chunktype'
p1930
S'child:NP4'
p1931
sS'af'
p1932
S'\xe0\xa4\xac\xe0\xa4\xbe\xe0\xa4\xb0\xe0\xa5\x87,psp,,,,,,'
p1933
ssbsg28
I00
sg29
I00
sg30
Nsg31
Nsg32
I6
sg33
I5
sg34
Nsg35
Nsg36
S'PSP'
p1934
sg38
g1921
sg39
I00
sba(issf_api
Word
p1935
(dp1936
g6
I00
sg7
V\u092e\u0947\u0902
p1937
sg9
(issf_api
FeatureSet
p1938
(dp1939
g12
(dp1940
S'posn'
p1941
S'160'
p1942
sS'name'
p1943
S'\xe0\xa4\xae\xe0\xa5\x87\xe0\xa4\x82'
p1944
sS'drel'
p1945
S'lwg__psp:NP4'
p1946
sS'chunktype'
p1947
S'child:NP4'
p1948
sS'af'
p1949
S'\xe0\xa4\xae\xe0\xa5\x87\xe0\xa4\x82,psp,,,,,,'
p1950
ssbsg28
I00
sg29
I00
sg30
Nsg31
Nsg32
I6
sg33
I5
sg34
Nsg35
Nsg36
S'PSP'
p1951
sg38
g1938
sg39
I00
sba(issf_api
Word
p1952
(dp1953
g6
I00
sg7
V\u0905\u092c
p1954
sg9
(issf_api
FeatureSet
p1955
(dp1956
g12
(dp1957
S'crefhead'
p1958
S'\xe0\xa4\x85\xe0\xa4\xac:i15'
p1959
sS'posn'
p1960
S'170'
p1961
sS'name'
p1962
S'\xe0\xa4\x85\xe0\xa4\xac'
p1963
sS'af'
p1964
S'\xe0\xa4\x85\xe0\xa4\xac,pn,,,,o,0_\xe0\xa4\xa4\xe0\xa4\x95,'
p1965
sS'chunkid'
p1966
S'NP5'
p1967
sS'creftype'
p1968
S'anaphora-?:i15'
p1969
sS'chunktype'
p1970
S'head:NP5'
p1971
sS'crefchainhead'
p1972
S'i15:t8'
p1973
sS'vpos'
p1974
S'vib_2'
p1975
sS'cref'
p1976
S'i15%1:t8'
p1977
sS'drel'
p1978
S'k7t:VGF'
p1979
ssbsg28
I00
sg29
I00
sg30
Nsg31
Nsg32
I7
sg33
I5
sg34
Nsg35
Nsg36
S'PRP'
p1980
sg38
g1955
sg39
I00
sba(issf_api
Word
p1981
(dp1982
g6
I00
sg7
V\u0924\u0915
p1983
sg9
(issf_api
FeatureSet
p1984
(dp1985
g12
(dp1986
S'posn'
p1987
S'180'
p1988
sS'name'
p1989
S'\xe0\xa4\xa4\xe0\xa4\x95'
p1990
sS'drel'
p1991
S'lwg__psp:NP5'
p1992
sS'chunktype'
p1993
S'child:NP5'
p1994
sS'af'
p1995
S'\xe0\xa4\xa4\xe0\xa4\x95,psp,,,,,,'
p1996
ssbsg28
I00
sg29
I00
sg30
Nsg31
Nsg32
I7
sg33
I5
sg34
Nsg35
Nsg36
S'PSP'
p1997
sg38
g1984
sg39
I00
sba(issf_api
Word
p1998
(dp1999
g6
I00
sg7
V\u0915\u094b\u0908
p2000
sg9
(issf_api
FeatureSet
p2001
(dp2002
g12
(dp2003
S'crefhead'
p2004
S'\xe0\xa4\x95\xe0\xa5\x8b\xe0\xa4\x88:i16'
p2005
sS'posn'
p2006
S'190'
p2007
sS'name'
p2008
S'\xe0\xa4\x95\xe0\xa5\x8b\xe0\xa4\x88'
p2009
sS'af'
p2010
S'\xe0\xa4\x95\xe0\xa5\x8b\xe0\xa4\x88,pn,any,sg,3,d,0,0'
p2011
sS'creftype'
p2012
S'anaphora-?:i16'
p2013
sS'chunktype'
p2014
S'child:NP6'
p2015
sS'crefchainhead'
p2016
S'i16:t9'
p2017
sS'cref'
p2018
S'i16%1:t9'
p2019
sS'drel'
p2020
S'nmod__adj:NP6'
p2021
ssbsg28
I00
sg29
I00
sg30
Nsg31
Nsg32
I8
sg33
I5
sg34
Nsg35
Nsg36
S'PRP'
p2022
sg38
g2001
sg39
I00
sba(issf_api
Word
p2023
(dp2024
g6
I00
sg7
V\u091c\u093e\u0928\u0915\u093e\u0930\u0940
p2025
sg9
(issf_api
FeatureSet
p2026
(dp2027
g12
(dp2028
S'posn'
p2029
S'200'
p2030
sS'name'
p2031
S'\xe0\xa4\x9c\xe0\xa4\xbe\xe0\xa4\xa8\xe0\xa4\x95\xe0\xa4\xbe\xe0\xa4\xb0\xe0\xa5\x80'
p2032
sS'af'
p2033
S'\xe0\xa4\x9c\xe0\xa4\xbe\xe0\xa4\xa8\xe0\xa4\x95\xe0\xa4\xbe\xe0\xa4\xb0\xe0\xa5\x80,n,f,sg,3,d,0,0'
p2034
sS'chunkid'
p2035
S'NP6'
p2036
sS'drel'
p2037
S'k1:VGF'
p2038
sS'chunktype'
p2039
S'head:NP6'
p2040
ssbsg28
I00
sg29
I00
sg30
Nsg31
Nsg32
I8
sg33
I5
sg34
Nsg35
Nsg36
S'NN'
p2041
sg38
g2026
sg39
I00
sba(issf_api
Word
p2042
(dp2043
g6
I00
sg7
V\u0928\u0939\u0940\u0902
p2044
sg9
(issf_api
FeatureSet
p2045
(dp2046
g12
(dp2047
S'posn'
p2048
S'210'
p2049
sS'name'
p2050
S'\xe0\xa4\xa8\xe0\xa4\xb9\xe0\xa5\x80\xe0\xa4\x82'
p2051
sS'drel'
p2052
S'lwg__neg:VGF'
p2053
sS'chunktype'
p2054
S'child:VGF'
p2055
sS'af'
p2056
S'\xe0\xa4\xa8\xe0\xa4\xb9\xe0\xa5\x80\xe0\xa4\x82,avy,,,,,,'
p2057
ssbsg28
I00
sg29
I00
sg30
Nsg31
Nsg32
I9
sg33
I5
sg34
Nsg35
Nsg36
S'NEG'
p2058
sg38
g2045
sg39
I00
sba(issf_api
Word
p2059
(dp2060
g6
I00
sg7
V\u092e\u093f\u0932
p2061
sg9
(issf_api
FeatureSet
p2062
(dp2063
g12
(dp2064
S'posn'
p2065
S'220'
p2066
sS'name'
p2067
S'\xe0\xa4\xae\xe0\xa4\xbf\xe0\xa4\xb2'
p2068
sS'af'
p2069
S'\xe0\xa4\xae\xe0\xa4\xbf\xe0\xa4\xb2,v,f,sg,3,,0_\xe0\xa4\xaa\xe0\xa4\xbe+\xe0\xa4\xaf\xe0\xa4\xbe_\xe0\xa4\xb9\xe0\xa5\x88,0'
p2070
sS'chunkid'
p2071
S'VGF'
p2072
sS'chunktype'
p2073
S'head:VGF'
p2074
sS'voicetype'
p2075
S'active'
p2076
sS'vpos'
p2077
S'tam_3_4'
p2078
sS'stype'
p2079
S'declarative'
p2080
ssbsg28
I00
sg29
I00
sg30
Nsg31
Nsg32
I9
sg33
I5
sg34
Nsg35
Nsg36
S'VM'
p2081
sg38
g2062
sg39
I00
sba(issf_api
Word
p2082
(dp2083
g6
I00
sg7
V\u092a\u093e\u0908
p2084
sg9
(issf_api
FeatureSet
p2085
(dp2086
g12
(dp2087
S'posn'
p2088
S'230'
p2089
sS'name'
p2090
S'\xe0\xa4\xaa\xe0\xa4\xbe\xe0\xa4\x88'
p2091
sS'drel'
p2092
S'lwg__vaux:VGF'
p2093
sS'chunktype'
p2094
S'child:VGF'
p2095
sS'af'
p2096
S'\xe0\xa4\xaa\xe0\xa4\xbe,v,f,sg,3,,\xe0\xa4\xaf\xe0\xa4\xbe,yA'
p2097
ssbsg28
I00
sg29
I00
sg30
Nsg31
Nsg32
I9
sg33
I5
sg34
Nsg35
Nsg36
S'VAUX'
p2098
sg38
g2085
sg39
I00
sba(issf_api
Word
p2099
(dp2100
g6
I00
sg7
V\u0939\u0948
p2101
sg9
(issf_api
FeatureSet
p2102
(dp2103
g12
(dp2104
S'posn'
p2105
S'240'
p2106
sS'name'
p2107
S'\xe0\xa4\xb9\xe0\xa5\x88'
p2108
sS'drel'
p2109
S'lwg__vaux:VGF'
p2110
sS'chunktype'
p2111
S'child:VGF'
p2112
sS'af'
p2113
S'\xe0\xa4\xb9\xe0\xa5\x88,v,any,sg,3,,\xe0\xa4\xb9\xe0\xa5\x88,hE'
p2114
ssbsg28
I00
sg29
I00
sg30
Nsg31
Nsg32
I9
sg33
I5
sg34
Nsg35
Nsg36
S'VAUX'
p2115
sg38
g2102
sg39
I00
sba(issf_api
Word
p2116
(dp2117
g6
I00
sg7
V\u0964
p2118
sg9
(issf_api
FeatureSet
p2119
(dp2120
g12
(dp2121
S'posn'
p2122
S'250'
p2123
sS'name'
p2124
S'\xe0\xa5\xa4'
p2125
sS'af'
p2126
S'\xe0\xa5\xa4,punc,,,,,,'
p2127
sS'chunkid'
p2128
S'BLK'
p2129
sS'drel'
p2130
S'rsym:VGF'
p2131
sS'chunktype'
p2132
S'head:BLK'
p2133
ssbsg28
I00
sg29
I00
sg30
Nsg31
Nsg32
I10
sg33
I5
sg34
Nsg35
Nsg36
S'SYM'
p2134
sg38
g2119
sg39
I00
sba(issf_api
Word
p2135
(dp2136
g6
I00
sg7
V\u0939\u093e\u0932\u093e\u0902\u0915\u093f
p2137
sg9
(issf_api
FeatureSet
p2138
(dp2139
g12
(dp2140
S'posn'
p2141
S'10'
p2142
sS'chunkid'
p2143
S'CCP'
p2144
sS'name'
p2145
S'\xe0\xa4\xb9\xe0\xa4\xbe\xe0\xa4\xb2\xe0\xa4\xbe\xe0\xa4\x82\xe0\xa4\x95\xe0\xa4\xbf'
p2146
sS'chunktype'
p2147
S'head:CCP'
p2148
sS'af'
p2149
S'\xe0\xa4\xb9\xe0\xa4\xbe\xe0\xa4\xb2\xe0\xa4\xbe\xe0\xa4\x82\xe0\xa4\x95\xe0\xa4\xbf,avy,,,,,,'
p2150
ssbsg28
I00
sg29
I00
sg30
Nsg31
Nsg32
I0
sg33
I6
sg34
Nsg35
Nsg36
S'CC'
p2151
sg38
g2138
sg39
I00
sba(issf_api
Word
p2152
(dp2153
g6
I00
sg7
V\u0905\u092a\u0939\u0930\u094d\u0924\u093e\u0913\u0902
p2154
sg9
(issf_api
FeatureSet
p2155
(dp2156
g12
(dp2157
S'posn'
p2158
S'20'
p2159
sS'name'
p2160
S'\xe0\xa4\x85\xe0\xa4\xaa\xe0\xa4\xb9\xe0\xa4\xb0\xe0\xa5\x8d\xe0\xa4\xa4\xe0\xa4\xbe\xe0\xa4\x93\xe0\xa4\x82'
p2161
sS'af'
p2162
S'\xe0\xa4\x85\xe0\xa4\xaa\xe0\xa4\xb9\xe0\xa4\xb0\xe0\xa5\x8d\xe0\xa4\xa4\xe0\xa4\xbe,n,m,pl,3,o,0_\xe0\xa4\xa8\xe0\xa5\x87,0'
p2163
sS'chunkid'
p2164
S'NP'
p2165
sS'drel'
p2166
S'k1:VGF'
p2167
sS'vpos'
p2168
S'vib_2'
p2169
sS'chunktype'
p2170
S'head:NP'
p2171
ssbsg28
I00
sg29
I00
sg30
Nsg31
Nsg32
I1
sg33
I6
sg34
Nsg35
Nsg36
S'NN'
p2172
sg38
g2155
sg39
I00
sba(issf_api
Word
p2173
(dp2174
g6
I00
sg7
V\u0928\u0947
p2175
sg9
(issf_api
FeatureSet
p2176
(dp2177
g12
(dp2178
S'posn'
p2179
S'30'
p2180
sS'name'
p2181
S'\xe0\xa4\xa8\xe0\xa5\x87'
p2182
sS'drel'
p2183
S'lwg__psp:NP'
p2184
sS'chunktype'
p2185
S'child:NP'
p2186
sS'af'
p2187
S'\xe0\xa4\xa8\xe0\xa5\x87,psp,,,,,,'
p2188
ssbsg28
I00
sg29
I00
sg30
Nsg31
Nsg32
I1
sg33
I6
sg34
Nsg35
Nsg36
S'PSP'
p2189
sg38
g2176
sg39
I00
sba(issf_api
Word
p2190
(dp2191
g6
I00
sg7
V\u0909\u0928\u0915\u0947
p2192
sg9
(issf_api
FeatureSet
p2193
(dp2194
g12
(dp2195
S'crefhead'
p2196
S'\xe0\xa4\x89\xe0\xa4\xa8\xe0\xa4\x95\xe0\xa5\x87:i17,\xe0\xa4\x89\xe0\xa4\xa8\xe0\xa4\x95\xe0\xa5\x87:i18'
p2197
sS'posn'
p2198
S'40'
p2199
sS'name'
p2200
S'\xe0\xa4\x89\xe0\xa4\xa8\xe0\xa4\x95\xe0\xa5\x87'
p2201
sS'af'
p2202
S'\xe0\xa4\xb5\xe0\xa4\xb9,pn,m,sg,3h,o,0_\xe0\xa4\xb8\xe0\xa4\xbe\xe0\xa4\xa5,ke'
p2203
sS'chunkid'
p2204
S'NP2'
p2205
sS'creftype'
p2206
S'Anaphora-C:i14,Anaphora-C:i12'
p2207
sS'chunktype'
p2208
S'head:NP2'
p2209
sS'vpos'
p2210
S'vib_2'
p2211
sS'cref'
p2212
S'i17%1:t5,i18%1:t6'
p2213
sS'drel'
p2214
S'ras-k1:VGNF'
p2215
ssbsg28
I00
sg29
I00
sg30
Nsg31
Nsg32
I2
sg33
I6
sg34
Nsg35
Nsg36
S'PRP'
p2216
sg38
g2193
sg39
I00
sba(issf_api
Word
p2217
(dp2218
g6
I00
sg7
V\u0938\u093e\u0925
p2219
sg9
(issf_api
FeatureSet
p2220
(dp2221
g12
(dp2222
S'posn'
p2223
S'50'
p2224
sS'name'
p2225
S'\xe0\xa4\xb8\xe0\xa4\xbe\xe0\xa4\xa5'
p2226
sS'drel'
p2227
S'lwg__psp:NP2'
p2228
sS'chunktype'
p2229
S'child:NP2'
p2230
sS'af'
p2231
S'\xe0\xa4\xb8\xe0\xa4\xbe\xe0\xa4\xa5,nst,m,sg,3,d,,'
p2232
ssbsg28
I00
sg29
I00
sg30
Nsg31
Nsg32
I2
sg33
I6
sg34
Nsg35
Nsg36
S'NST'
p2233
sg38
g2220
sg39
I00
sba(issf_api
Word
p2234
(dp2235
g6
I00
sg7
V\u092a\u0915\u0921\u093c\u0947
p2236
sg9
(issf_api
FeatureSet
p2237
(dp2238
g12
(dp2239
S'posn'
p2240
S'60'
p2241
sS'name'
p2242
S'\xe0\xa4\xaa\xe0\xa4\x95\xe0\xa4\xa1\xe0\xa4\xbc\xe0\xa5\x87'
p2243
sS'af'
p2244
S'\xe0\xa4\xaa\xe0\xa4\x95\xe0\xa4\xa1,v,m,pl,any,,\xe0\xa4\xaf\xe0\xa4\xbe,yA'
p2245
sS'chunkid'
p2246
S'VGNF'
p2247
sS'drel'
p2248
S'nmod__k2inv:NP3'
p2249
sS'chunktype'
p2250
S'head:VGNF'
p2251
ssbsg28
I00
sg29
I00
sg30
Nsg31
Nsg32
I3
sg33
I6
sg34
Nsg35
Nsg36
S'VM'
p2252
sg38
g2237
sg39
I00
sba(issf_api
Word
p2253
(dp2254
g6
I00
sg7
V\u0926\u094b
p2255
sg9
(issf_api
FeatureSet
p2256
(dp2257
g12
(dp2258
S'posn'
p2259
S'70'
p2260
sS'name'
p2261
S'\xe0\xa4\xa6\xe0\xa5\x8b'
p2262
sS'drel'
p2263
S'nmod__adj:NP3'
p2264
sS'chunktype'
p2265
S'child:NP3'
p2266
sS'af'
p2267
S'\xe0\xa4\xa6\xe0\xa5\x8b,num,any,any,,any,,'
p2268
ssbsg28
I00
sg29
I00
sg30
Nsg31
Nsg32
I4
sg33
I6
sg34
Nsg35
Nsg36
S'QC'
p2269
sg38
g2256
sg39
I00
sba(issf_api
Word
p2270
(dp2271
g6
I00
sg7
V\u0907\u0930\u093e\u0915\u0940
p2272
sg9
(issf_api
FeatureSet
p2273
(dp2274
g12
(dp2275
S'posn'
p2276
S'80'
p2277
sS'name'
p2278
S'\xe0\xa4\x87\xe0\xa4\xb0\xe0\xa4\xbe\xe0\xa4\x95\xe0\xa5\x80'
p2279
sS'drel'
p2280
S'nmod__adj:NP3'
p2281
sS'chunktype'
p2282
S'child:NP3'
p2283
sS'af'
p2284
S'\xe0\xa4\x87\xe0\xa4\xb0\xe0\xa4\xbe\xe0\xa4\x95\xe0\xa5\x80,adj,any,any,,o,,'
p2285
ssbsg28
I00
sg29
I00
sg30
Nsg31
Nsg32
I4
sg33
I6
sg34
Nsg35
Nsg36
S'JJ'
p2286
sg38
g2273
sg39
I00
sba(issf_api
Word
p2287
(dp2288
g6
I00
sg7
V\u0917\u093e\u0930\u094d\u0921
p2289
sg9
(issf_api
FeatureSet
p2290
(dp2291
g12
(dp2292
S'posn'
p2293
S'90'
p2294
sS'name'
p2295
S'\xe0\xa4\x97\xe0\xa4\xbe\xe0\xa4\xb0\xe0\xa5\x8d\xe0\xa4\xa1'
p2296
sS'af'
p2297
S'\xe0\xa4\x97\xe0\xa4\xbe\xe0\xa4\xb0\xe0\xa5\x8d\xe0\xa4\xa1,n,m,sg,3,o,0_\xe0\xa4\x95\xe0\xa5\x8b,0'
p2298
sS'chunkid'
p2299
S'NP3'
p2300
sS'drel'
p2301
S'k2:VGF'
p2302
sS'vpos'
p2303
S'vib_4'
p2304
sS'chunktype'
p2305
S'head:NP3'
p2306
ssbsg28
I00
sg29
I00
sg30
Nsg31
Nsg32
I4
sg33
I6
sg34
Nsg35
Nsg36
S'NN'
p2307
sg38
g2290
sg39
I00
sba(issf_api
Word
p2308
(dp2309
g6
I00
sg7
V\u0915\u094b
p2310
sg9
(issf_api
FeatureSet
p2311
(dp2312
g12
(dp2313
S'posn'
p2314
S'100'
p2315
sS'name'
p2316
S'\xe0\xa4\x95\xe0\xa5\x8b'
p2317
sS'drel'
p2318
S'lwg__psp:NP3'
p2319
sS'chunktype'
p2320
S'child:NP3'
p2321
sS'af'
p2322
S'\xe0\xa4\x95\xe0\xa5\x8b,psp,,,,,,'
p2323
ssbsg28
I00
sg29
I00
sg30
Nsg31
Nsg32
I4
sg33
I6
sg34
Nsg35
Nsg36
S'PSP'
p2324
sg38
g2311
sg39
I00
sba(issf_api
Word
p2325
(dp2326
g6
I00
sg7
V\u092e\u0941\u0915\u094d\u0924
p2327
sg9
(issf_api
FeatureSet
p2328
(dp2329
g12
(dp2330
S'posn'
p2331
S'110'
p2332
sS'name'
p2333
S'\xe0\xa4\xae\xe0\xa5\x81\xe0\xa4\x95\xe0\xa5\x8d\xe0\xa4\xa4'
p2334
sS'af'
p2335
S'\xe0\xa4\xae\xe0\xa5\x81\xe0\xa4\x95\xe0\xa5\x8d\xe0\xa4\xa4,adj,any,any,,,,'
p2336
sS'chunkid'
p2337
S'JJP'
p2338
sS'drel'
p2339
S'pof:VGF'
p2340
sS'chunktype'
p2341
S'head:JJP'
p2342
ssbsg28
I00
sg29
I00
sg30
Nsg31
Nsg32
I5
sg33
I6
sg34
Nsg35
Nsg36
S'JJ'
p2343
sg38
g2328
sg39
I00
sba(issf_api
Word
p2344
(dp2345
g6
I00
sg7
V\u0915\u0930
p2346
sg9
(issf_api
FeatureSet
p2347
(dp2348
g12
(dp2349
S'posn'
p2350
S'120'
p2351
sS'name'
p2352
S'\xe0\xa4\x95\xe0\xa4\xb0'
p2353
sS'af'
p2354
S'\xe0\xa4\x95\xe0\xa4\xb0,v,m,sg,3,,0_\xe0\xa4\xa6\xe0\xa5\x87+\xe0\xa4\xaf\xe0\xa4\xbe_\xe0\xa4\xb9\xe0\xa5\x88,0'
p2355
sS'chunkid'
p2356
S'VGF'
p2357
sS'stype'
p2358
S'declarative'
p2359
sS'drel'
p2360
S'ccof:CCP'
p2361
sS'voicetype'
p2362
S'active'
p2363
sS'vpos'
p2364
S'tam_2_3'
p2365
sS'chunktype'
p2366
S'head:VGF'
p2367
ssbsg28
I00
sg29
I00
sg30
Nsg31
Nsg32
I6
sg33
I6
sg34
Nsg35
Nsg36
S'VM'
p2368
sg38
g2347
sg39
I00
sba(issf_api
Word
p2369
(dp2370
g6
I00
sg7
V\u0926\u093f\u092f\u093e
p2371
sg9
(issf_api
FeatureSet
p2372
(dp2373
g12
(dp2374
S'posn'
p2375
S'130'
p2376
sS'name'
p2377
S'\xe0\xa4\xa6\xe0\xa4\xbf\xe0\xa4\xaf\xe0\xa4\xbe'
p2378
sS'drel'
p2379
S'lwg__vaux:VGF'
p2380
sS'chunktype'
p2381
S'child:VGF'
p2382
sS'af'
p2383
S'\xe0\xa4\xa6\xe0\xa5\x87,v,m,sg,any,,\xe0\xa4\xaf\xe0\xa4\xbe,yA'
p2384
ssbsg28
I00
sg29
I00
sg30
Nsg31
Nsg32
I6
sg33
I6
sg34
Nsg35
Nsg36
S'VAUX'
p2385
sg38
g2372
sg39
I00
sba(issf_api
Word
p2386
(dp2387
g6
I00
sg7
V\u0939\u0948
p2388
sg9
(issf_api
FeatureSet
p2389
(dp2390
g12
(dp2391
S'posn'
p2392
S'140'
p2393
sS'name'
p2394
S'\xe0\xa4\xb9\xe0\xa5\x88'
p2395
sS'drel'
p2396
S'lwg__vaux:VGF'
p2397
sS'chunktype'
p2398
S'child:VGF'
p2399
sS'af'
p2400
S'\xe0\xa4\xb9\xe0\xa5\x88,v,any,sg,3,,\xe0\xa4\xb9\xe0\xa5\x88,hE'
p2401
ssbsg28
I00
sg29
I00
sg30
Nsg31
Nsg32
I6
sg33
I6
sg34
Nsg35
Nsg36
S'VAUX'
p2402
sg38
g2389
sg39
I00
sba(issf_api
Word
p2403
(dp2404
g6
I00
sg7
V\u0964
p2405
sg9
(issf_api
FeatureSet
p2406
(dp2407
g12
(dp2408
S'posn'
p2409
S'150'
p2410
sS'name'
p2411
S'\xe0\xa5\xa4'
p2412
sS'af'
p2413
S'\xe0\xa5\xa4,punc,,,,,,'
p2414
sS'chunkid'
p2415
S'BLK'
p2416
sS'drel'
p2417
S'rsym:CCP'
p2418
sS'chunktype'
p2419
S'head:BLK'
p2420
ssbsg28
I00
sg29
I00
sg30
Nsg31
Nsg32
I7
sg33
I6
sg34
Nsg35
Nsg36
S'SYM'
p2421
sg38
g2406
sg39
I00
sba(issf_api
Word
p2422
(dp2423
g6
I00
sg7
V\u0907\u0930\u093e\u0915\u0940
p2424
sg9
(issf_api
FeatureSet
p2425
(dp2426
g12
(dp2427
S'posn'
p2428
S'10'
p2429
sS'name'
p2430
S'\xe0\xa4\x87\xe0\xa4\xb0\xe0\xa4\xbe\xe0\xa4\x95\xe0\xa5\x80'
p2431
sS'af'
p2432
S'\xe0\xa4\x87\xe0\xa4\xb0\xe0\xa4\xbe\xe0\xa4\x95\xe0\xa5\x80,adj,any,any,,o,,'
p2433
sS'acrefmod'
p2434
S'm4%0:i19'
p2435
sS'drel'
p2436
S'nmod__adj:NP'
p2437
sS'chunktype'
p2438
S'child:NP'
p2439
ssbsg28
I00
sg29
I00
sg30
Nsg31
Nsg32
I0
sg33
I7
sg34
Nsg35
Nsg36
S'JJ'
p2440
sg38
g2425
sg39
I00
sba(issf_api
Word
p2441
(dp2442
g6
I00
sg7
V\u0935\u093f\u0926\u094d\u0930\u094b\u0939\u093f\u092f\u094b\u0902
p2443
sg9
(issf_api
FeatureSet
p2444
(dp2445
g12
(dp2446
S'posn'
p2447
S'20'
p2448
sS'name'
p2449
S'\xe0\xa4\xb5\xe0\xa4\xbf\xe0\xa4\xa6\xe0\xa5\x8d\xe0\xa4\xb0\xe0\xa5\x8b\xe0\xa4\xb9\xe0\xa4\xbf\xe0\xa4\xaf\xe0\xa5\x8b\xe0\xa4\x82'
p2450
sS'af'
p2451
S'\xe0\xa4\xb5\xe0\xa4\xbf\xe0\xa4\xa6\xe0\xa5\x8d\xe0\xa4\xb0\xe0\xa5\x8b\xe0\xa4\xb9\xe0\xa5\x80,n,m,pl,3,o,0_\xe0\xa4\x95\xe0\xa4\xbe,0'
p2452
sS'acrefmodhead'
p2453
S'\xe0\xa4\xb5\xe0\xa4\xbf\xe0\xa4\xa6\xe0\xa5\x8d\xe0\xa4\xb0\xe0\xa5\x8b\xe0\xa4\xb9\xe0\xa4\xbf\xe0\xa4\xaf\xe0\xa5\x8b\xe0\xa4\x82:m4'
p2454
sS'chunkid'
p2455
S'NP'
p2456
sS'acrefmod'
p2457
S'm4%1:i19'
p2458
sS'drel'
p2459
S'r6:NP2'
p2460
sS'vpos'
p2461
S'vib_3'
p2462
sS'chunktype'
p2463
S'head:NP'
p2464
ssbsg28
I00
sg29
I00
sg30
Nsg31
Nsg32
I0
sg33
I7
sg34
Nsg35
Nsg36
S'NN'
p2465
sg38
g2444
sg39
I00
sba(issf_api
Word
p2466
(dp2467
g6
I00
sg7
V\u0915\u0940
p2468
sg9
(issf_api
FeatureSet
p2469
(dp2470
g12
(dp2471
S'posn'
p2472
S'30'
p2473
sS'name'
p2474
S'\xe0\xa4\x95\xe0\xa5\x80'
p2475
sS'drel'
p2476
S'lwg__psp:NP'
p2477
sS'chunktype'
p2478
S'child:NP'
p2479
sS'af'
p2480
S'\xe0\xa4\x95\xe0\xa4\xbe,psp,f,sg,,o,,'
p2481
ssbsg28
I00
sg29
I00
sg30
Nsg31
Nsg32
I0
sg33
I7
sg34
Nsg35
Nsg36
S'PSP'
p2482
sg38
g2469
sg39
I00
sba(issf_api
Word
p2483
(dp2484
g6
I00
sg7
V\u0936\u0930\u0923\u0938\u094d\u0925\u0932\u0940
p2485
sg9
(issf_api
FeatureSet
p2486
(dp2487
g12
(dp2488
S'crefhead'
p2489
S'\xe0\xa4\xb6\xe0\xa4\xb0\xe0\xa4\xa3\xe0\xa4\xb8\xe0\xa5\x8d\xe0\xa4\xa5\xe0\xa4\xb2\xe0\xa5\x80:i19'
p2490
sS'posn'
p2491
S'40'
p2492
sS'name'
p2493
S'\xe0\xa4\xb6\xe0\xa4\xb0\xe0\xa4\xa3\xe0\xa4\xb8\xe0\xa5\x8d\xe0\xa4\xa5\xe0\xa4\xb2\xe0\xa5\x80'
p2494
sS'af'
p2495
S'\xe0\xa4\xb6\xe0\xa4\xb0\xe0\xa4\xa3\xe0\xa4\xb8\xe0\xa5\x8d\xe0\xa4\xa5\xe0\xa4\xb2\xe0\xa5\x80,n,f,sg,3,o,0,0'
p2496
sS'chunkid'
p2497
S'NP2'
p2498
sS'crefmod'
p2499
S'm4:i19'
p2500
sS'chunktype'
p2501
S'head:NP2'
p2502
sS'cref'
p2503
S'i19%1:t10'
p2504
sS'drel'
p2505
S'nmod:NP3'
p2506
ssbsg28
I00
sg29
I00
sg30
Nsg31
Nsg32
I1
sg33
I7
sg34
Nsg35
Nsg36
S'NN'
p2507
sg38
g2486
sg39
I00
sba(issf_api
Word
p2508
(dp2509
g6
I00
sg7
V\u092b\u093e\u0932\u0941\u091c\u093e
p2510
sg9
(issf_api
FeatureSet
p2511
(dp2512
g12
(dp2513
S'crefhead'
p2514
S'\xe0\xa4\xab\xe0\xa4\xbe\xe0\xa4\xb2\xe0\xa5\x81\xe0\xa4\x9c\xe0\xa4\xbe:i20'
p2515
sS'posn'
p2516
S'50'
p2517
sS'name'
p2518
S'\xe0\xa4\xab\xe0\xa4\xbe\xe0\xa4\xb2\xe0\xa5\x81\xe0\xa4\x9c\xe0\xa4\xbe'
p2519
sS'af'
p2520
S'\xe0\xa4\xab\xe0\xa4\xbe\xe0\xa4\xb2\xe0\xa5\x81\xe0\xa4\x9c\xe0\xa4\xbe,n,m,sg,3,o,0_\xe0\xa4\xae\xe0\xa5\x87\xe0\xa4\x82,0'
p2521
sS'chunkid'
p2522
S'NP3'
p2523
sS'creftype'
p2524
S'Coreference-NounComplement:i19'
p2525
sS'chunktype'
p2526
S'head:NP3'
p2527
sS'crefchainhead'
p2528
S'i20:t10'
p2529
sS'vpos'
p2530
S'vib_2'
p2531
sS'cref'
p2532
S'i20%1:t10'
p2533
sS'drel'
p2534
S'k7p:VGNF'
p2535
ssbsg28
I00
sg29
I00
sg30
Nsg31
Nsg32
I2
sg33
I7
sg34
Nsg35
Nsg36
S'NNP'
p2536
sg38
g2511
sg39
I00
sba(issf_api
Word
p2537
(dp2538
g6
I00
sg7
V\u092e\u0947\u0902
p2539
sg9
(issf_api
FeatureSet
p2540
(dp2541
g12
(dp2542
S'posn'
p2543
S'60'
p2544
sS'name'
p2545
S'\xe0\xa4\xae\xe0\xa5\x87\xe0\xa4\x82'
p2546
sS'drel'
p2547
S'lwg__psp:NP3'
p2548
sS'chunktype'
p2549
S'child:NP3'
p2550
sS'af'
p2551
S'\xe0\xa4\xae\xe0\xa5\x87\xe0\xa4\x82,psp,,,,,,'
p2552
ssbsg28
I00
sg29
I00
sg30
Nsg31
Nsg32
I2
sg33
I7
sg34
Nsg35
Nsg36
S'PSP'
p2553
sg38
g2540
sg39
I00
sba(issf_api
Word
p2554
(dp2555
g6
I00
sg7
V\u0924\u0947\u091c
p2556
sg9
(issf_api
FeatureSet
p2557
(dp2558
g12
(dp2559
S'posn'
p2560
S'70'
p2561
sS'name'
p2562
S'\xe0\xa4\xa4\xe0\xa5\x87\xe0\xa4\x9c'
p2563
sS'af'
p2564
S'\xe0\xa4\xa4\xe0\xa5\x87\xe0\xa4\x9c,adj,any,any,,o,,'
p2565
sS'drel'
p2566
S'nmod__adj:NP4'
p2567
sS'chunktype'
p2568
S'child:NP4'
p2569
sS'cref'
p2570
S'i21%0:t11'
p2571
ssbsg28
I00
sg29
I00
sg30
Nsg31
Nsg32
I3
sg33
I7
sg34
Nsg35
Nsg36
S'JJ'
p2572
sg38
g2557
sg39
I00
sba(issf_api
Word
p2573
(dp2574
g6
I00
sg7
V\u0905\u092e\u0947\u0930\u093f\u0915\u0940
p2575
sg9
(issf_api
FeatureSet
p2576
(dp2577
g12
(dp2578
S'posn'
p2579
S'80'
p2580
sS'name'
p2581
S'\xe0\xa4\x85\xe0\xa4\xae\xe0\xa5\x87\xe0\xa4\xb0\xe0\xa4\xbf\xe0\xa4\x95\xe0\xa5\x80'
p2582
sS'af'
p2583
S'\xe0\xa4\x85\xe0\xa4\xae\xe0\xa5\x87\xe0\xa4\xb0\xe0\xa4\xbf\xe0\xa4\x95\xe0\xa5\x80,adj,any,any,,o,,'
p2584
sS'drel'
p2585
S'nmod__adj:NP4'
p2586
sS'chunktype'
p2587
S'child:NP4'
p2588
sS'cref'
p2589
S'i21%0:t11'
p2590
ssbsg28
I00
sg29
I00
sg30
Nsg31
Nsg32
I3
sg33
I7
sg34
Nsg35
Nsg36
S'JJ'
p2591
sg38
g2576
sg39
I00
sba(issf_api
Word
p2592
(dp2593
g6
I00
sg7
V\u0939\u092e\u0932\u0947
p2594
sg9
(issf_api
FeatureSet
p2595
(dp2596
g12
(dp2597
S'crefhead'
p2598
S'\xe0\xa4\xb9\xe0\xa4\xae\xe0\xa4\xb2\xe0\xa5\x87:i21'
p2599
sS'posn'
p2600
S'90'
p2601
sS'name'
p2602
S'\xe0\xa4\xb9\xe0\xa4\xae\xe0\xa4\xb2\xe0\xa5\x87'
p2603
sS'af'
p2604
S'\xe0\xa4\xb9\xe0\xa4\xae\xe0\xa4\xb2\xe0\xa4\xbe,n,m,sg,3,o,0_\xe0\xa4\x95\xe0\xa4\xbe,0'
p2605
sS'chunkid'
p2606
S'NP4'
p2607
sS'chunktype'
p2608
S'head:NP4'
p2609
sS'crefchainhead'
p2610
S'i21:t11'
p2611
sS'vpos'
p2612
S'vib_4'
p2613
sS'cref'
p2614
S'i21%1:t11'
p2615
sS'drel'
p2616
S'r6-k2:NP5'
p2617
ssbsg28
I00
sg29
I00
sg30
Nsg31
Nsg32
I3
sg33
I7
sg34
Nsg35
Nsg36
S'NN'
p2618
sg38
g2595
sg39
I00
sba(issf_api
Word
p2619
(dp2620
g6
I00
sg7
V\u0915\u0940
p2621
sg9
(issf_api
FeatureSet
p2622
(dp2623
g12
(dp2624
S'posn'
p2625
S'100'
p2626
sS'name'
p2627
S'\xe0\xa4\x95\xe0\xa5\x802'
p2628
sS'drel'
p2629
S'lwg__psp:NP4'
p2630
sS'chunktype'
p2631
S'child:NP4'
p2632
sS'af'
p2633
S'\xe0\xa4\x95\xe0\xa4\xbe,psp,f,sg,,d,,'
p2634
ssbsg28
I00
sg29
I00
sg30
Nsg31
Nsg32
I3
sg33
I7
sg34
Nsg35
Nsg36
S'PSP'
p2635
sg38
g2622
sg39
I00
sba(issf_api
Word
p2636
(dp2637
g6
I00
sg7
V\u0928\u093f\u0902\u0926\u093e
p2638
sg9
(issf_api
FeatureSet
p2639
(dp2640
g12
(dp2641
S'posn'
p2642
S'110'
p2643
sS'name'
p2644
S'\xe0\xa4\xa8\xe0\xa4\xbf\xe0\xa4\x82\xe0\xa4\xa6\xe0\xa4\xbe'
p2645
sS'af'
p2646
S'\xe0\xa4\xa8\xe0\xa4\xbf\xe0\xa4\x82\xe0\xa4\xa6\xe0\xa4\xbe,n,f,sg,3,d,0,0'
p2647
sS'chunkid'
p2648
S'NP5'
p2649
sS'drel'
p2650
S'pof:VGNF'
p2651
sS'chunktype'
p2652
S'head:NP5'
p2653
ssbsg28
I00
sg29
I00
sg30
Nsg31
Nsg32
I4
sg33
I7
sg34
Nsg35
Nsg36
S'NN'
p2654
sg38
g2639
sg39
I00
sba(issf_api
Word
p2655
(dp2656
g6
I00
sg7
V\u0915\u0930\u0924\u0947
p2657
sg9
(issf_api
FeatureSet
p2658
(dp2659
g12
(dp2660
S'posn'
p2661
S'120'
p2662
sS'name'
p2663
S'\xe0\xa4\x95\xe0\xa4\xb0\xe0\xa4\xa4\xe0\xa5\x87'
p2664
sS'af'
p2665
S'\xe0\xa4\x95\xe0\xa4\xb0,v,m,sg,any,,\xe0\xa4\xa4\xe0\xa4\xbe_\xe0\xa4\xb9\xe0\xa5\x8b+\xe0\xa4\xaf\xe0\xa4\xbe,wA'
p2666
sS'chunkid'
p2667
S'VGNF'
p2668
sS'drel'
p2669
S'vmod:VGF'
p2670
sS'vpos'
p2671
S'tam_2'
p2672
sS'chunktype'
p2673
S'head:VGNF'
p2674
ssbsg28
I00
sg29
I00
sg30
Nsg31
Nsg32
I5
sg33
I7
sg34
Nsg35
Nsg36
S'VM'
p2675
sg38
g2658
sg39
I00
sba(issf_api
Word
p2676
(dp2677
g6
I00
sg7
V\u0939\u0941\u090f
p2678
sg9
(issf_api
FeatureSet
p2679
(dp2680
g12
(dp2681
S'posn'
p2682
S'130'
p2683
sS'name'
p2684
S'\xe0\xa4\xb9\xe0\xa5\x81\xe0\xa4\x8f'
p2685
sS'drel'
p2686
S'lwg__vaux:VGNF'
p2687
sS'chunktype'
p2688
S'child:VGNF'
p2689
sS'af'
p2690
S'\xe0\xa4\xb9\xe0\xa5\x8b,v,m,sg,any,,\xe0\xa4\xaf\xe0\xa4\xbe,yA'
p2691
ssbsg28
I00
sg29
I00
sg30
Nsg31
Nsg32
I5
sg33
I7
sg34
Nsg35
Nsg36
S'VAUX'
p2692
sg38
g2679
sg39
I00
sba(issf_api
Word
p2693
(dp2694
g6
I00
sg7
V\u092c\u0917\u0926\u093e\u0926
p2695
sg9
(issf_api
FeatureSet
p2696
(dp2697
g12
(dp2698
S'crefhead'
p2699
S'\xe0\xa4\xac\xe0\xa4\x97\xe0\xa4\xa6\xe0\xa4\xbe\xe0\xa4\xa6:i22'
p2700
sS'posn'
p2701
S'140'
p2702
sS'name'
p2703
S'\xe0\xa4\xac\xe0\xa4\x97\xe0\xa4\xa6\xe0\xa4\xbe\xe0\xa4\xa6'
p2704
sS'af'
p2705
S'\xe0\xa4\xac\xe0\xa4\x97\xe0\xa4\xa6\xe0\xa4\xbe\xe0\xa4\xa6,n,m,sg,3,d,0,0'
p2706
sS'creftype'
p2707
S'Coreference-Identity:i11'
p2708
sS'drel'
p2709
S'pof__cn:NP6'
p2710
sS'chunktype'
p2711
S'child:NP6'
p2712
sS'cref'
p2713
S'i22%1:t2'
p2714
ssbsg28
I00
sg29
I00
sg30
Nsg31
Nsg32
I6
sg33
I7
sg34
Nsg35
Nsg36
S'NNPC'
p2715
sg38
g2696
sg39
I00
sba(issf_api
Word
p2716
(dp2717
g6
I00
sg7
V\u092f\u0942\u0928\u093f\u0935\u0930\u094d\u0938\u093f\u091f\u0940
p2718
sg9
(issf_api
FeatureSet
p2719
(dp2720
g12
(dp2721
S'posn'
p2722
S'150'
p2723
sS'name'
p2724
S'\xe0\xa4\xaf\xe0\xa5\x82\xe0\xa4\xa8\xe0\xa4\xbf\xe0\xa4\xb5\xe0\xa4\xb0\xe0\xa5\x8d\xe0\xa4\xb8\xe0\xa4\xbf\xe0\xa4\x9f\xe0\xa5\x80'
p2725
sS'af'
p2726
S'\xe0\xa4\xaf\xe0\xa5\x82\xe0\xa4\xa8\xe0\xa4\xbf\xe0\xa4\xb5\xe0\xa4\xb0\xe0\xa5\x8d\xe0\xa4\xb8\xe0\xa4\xbf\xe0\xa4\x9f\xe0\xa5\x80,n,f,sg,3,o,0_\xe0\xa4\xae\xe0\xa5\x87\xe0\xa4\x82,0'
p2727
sS'chunkid'
p2728
S'NP6'
p2729
sS'drel'
p2730
S'k7p:VGF'
p2731
sS'vpos'
p2732
S'vib_3'
p2733
sS'chunktype'
p2734
S'head:NP6'
p2735
ssbsg28
I00
sg29
I00
sg30
Nsg31
Nsg32
I6
sg33
I7
sg34
Nsg35
Nsg36
S'NNP'
p2736
sg38
g2719
sg39
I00
sba(issf_api
Word
p2737
(dp2738
g6
I00
sg7
V\u092e\u0947\u0902
p2739
sg9
(issf_api
FeatureSet
p2740
(dp2741
g12
(dp2742
S'posn'
p2743
S'160'
p2744
sS'name'
p2745
S'\xe0\xa4\xae\xe0\xa5\x87\xe0\xa4\x822'
p2746
sS'drel'
p2747
S'lwg__psp:NP6'
p2748
sS'chunktype'
p2749
S'child:NP6'
p2750
sS'af'
p2751
S'\xe0\xa4\xae\xe0\xa5\x87\xe0\xa4\x82,psp,,,,,,'
p2752
ssbsg28
I00
sg29
I00
sg30
Nsg31
Nsg32
I6
sg33
I7
sg34
Nsg35
Nsg36
S'PSP'
p2753
sg38
g2740
sg39
I00
sba(issf_api
Word
p2754
(dp2755
g6
I00
sg7
V\u0907\u0902\u091f\u0930\u0928\u0947\u0936\u0928\u0932
p2756
sg9
(issf_api
FeatureSet
p2757
(dp2758
g12
(dp2759
S'posn'
p2760
S'130'
p2761
sS'name'
p2762
S'\xe0\xa4\x87\xe0\xa4\x82\xe0\xa4\x9f\xe0\xa4\xb0\xe0\xa4\xa8\xe0\xa5\x87\xe0\xa4\xb6\xe0\xa4\xa8\xe0\xa4\xb2'
p2763
sS'af'
p2764
S'\xe0\xa4\x87\xe0\xa4\x82\xe0\xa4\x9f\xe0\xa4\xb0\xe0\xa4\xa8\xe0\xa5\x87\xe0\xa4\xb6\xe0\xa4\xa8\xe0\xa4\xb2,adj,any,any,,o,,'
p2765
sS'acrefmod'
p2766
S'm5%0:i23'
p2767
sS'drel'
p2768
S'pof__cn:NP7'
p2769
sS'chunktype'
p2770
S'child:NP7'
p2771
ssbsg28
I00
sg29
I00
sg30
Nsg31
Nsg32
I7
sg33
I7
sg34
Nsg35
Nsg36
S'NNPC'
p2772
sg38
g2757
sg39
I00
sba(issf_api
Word
p2773
(dp2774
g6
I00
sg7
V\u0938\u094d\u091f\u0921\u0940\u091c
p2775
sg9
(issf_api
FeatureSet
p2776
(dp2777
g12
(dp2778
S'posn'
p2779
S'180'
p2780
sS'name'
p2781
S'\xe0\xa4\xb8\xe0\xa5\x8d\xe0\xa4\x9f\xe0\xa4\xa1\xe0\xa5\x80\xe0\xa4\x9c'
p2782
sS'af'
p2783
S'\xe0\xa4\xb8\xe0\xa5\x8d\xe0\xa4\x9f\xe0\xa4\xa1\xe0\xa5\x80,n,f,pl,3,o,0_\xe0\xa4\x95\xe0\xa4\xbe,0'
p2784
sS'acrefmodhead'
p2785
S'\xe0\xa4\xb8\xe0\xa5\x8d\xe0\xa4\x9f\xe0\xa4\xa1\xe0\xa5\x80\xe0\xa4\x9c:m5'
p2786
sS'chunkid'
p2787
S'NP7'
p2788
sS'acrefmod'
p2789
S'm5%1:i23'
p2790
sS'drel'
p2791
S'r6:NP8'
p2792
sS'vpos'
p2793
S'vib_3'
p2794
sS'chunktype'
p2795
S'head:NP7'
p2796
ssbsg28
I00
sg29
I00
sg30
Nsg31
Nsg32
I7
sg33
I7
sg34
Nsg35
Nsg36
S'NNP'
p2797
sg38
g2776
sg39
I00
sba(issf_api
Word
p2798
(dp2799
g6
I00
sg7
V\u0915\u0947
p2800
sg9
(issf_api
FeatureSet
p2801
(dp2802
g12
(dp2803
S'posn'
p2804
S'190'
p2805
sS'name'
p2806
S'\xe0\xa4\x95\xe0\xa5\x87'
p2807
sS'drel'
p2808
S'lwg__psp:NP7'
p2809
sS'chunktype'
p2810
S'child:NP7'
p2811
sS'af'
p2812
S'\xe0\xa4\x95\xe0\xa4\xbe,psp,m,sg,,o,,'
p2813
ssbsg28
I00
sg29
I00
sg30
Nsg31
Nsg32
I7
sg33
I7
sg34
Nsg35
Nsg36
S'PSP'
p2814
sg38
g2801
sg39
I00
sba(issf_api
Word
p2815
(dp2816
g6
I00
sg7
V\u092a\u094d\u0930\u094b\u092b\u0947\u0938\u0930
p2817
sg9
(issf_api
FeatureSet
p2818
(dp2819
g12
(dp2820
S'crefhead'
p2821
S'\xe0\xa4\xaa\xe0\xa5\x8d\xe0\xa4\xb0\xe0\xa5\x8b\xe0\xa4\xab\xe0\xa5\x87\xe0\xa4\xb8\xe0\xa4\xb0:i23'
p2822
sS'posn'
p2823
S'200'
p2824
sS'name'
p2825
S'\xe0\xa4\xaa\xe0\xa5\x8d\xe0\xa4\xb0\xe0\xa5\x8b\xe0\xa4\xab\xe0\xa5\x87\xe0\xa4\xb8\xe0\xa4\xb0'
p2826
sS'af'
p2827
S'\xe0\xa4\xaa\xe0\xa5\x8d\xe0\xa4\xb0\xe0\xa5\x8b\xe0\xa4\xab\xe0\xa5\x87\xe0\xa4\xb8\xe0\xa4\xb0,n,m,sg,3,o,0,0'
p2828
sS'chunkid'
p2829
S'NP8'
p2830
sS'crefmod'
p2831
S'm5:i23'
p2832
sS'chunktype'
p2833
S'head:NP8'
p2834
sS'cref'
p2835
S'i23%1:t12'
p2836
sS'drel'
p2837
S'nmod:NP9'
p2838
ssbsg28
I00
sg29
I00
sg30
Nsg31
Nsg32
I8
sg33
I7
sg34
Nsg35
Nsg36
S'NN'
p2839
sg38
g2818
sg39
I00
sba(issf_api
Word
p2840
(dp2841
g6
I00
sg7
V\u0928\u092c\u0940\u0932
p2842
sg9
(issf_api
FeatureSet
p2843
(dp2844
g12
(dp2845
S'posn'
p2846
S'210'
p2847
sS'name'
p2848
S'\xe0\xa4\xa8\xe0\xa4\xac\xe0\xa5\x80\xe0\xa4\xb2'
p2849
sS'af'
p2850
S'\xe0\xa4\xa8\xe0\xa4\xac\xe0\xa5\x80\xe0\xa4\xb2,n,m,sg,3,d,0,0'
p2851
sS'drel'
p2852
S'pof__cn:NP9'
p2853
sS'chunktype'
p2854
S'child:NP9'
p2855
sS'cref'
p2856
S'i24%0:t12'
p2857
ssbsg28
I00
sg29
I00
sg30
Nsg31
Nsg32
I9
sg33
I7
sg34
Nsg35
Nsg36
S'NNPC'
p2858
sg38
g2843
sg39
I00
sba(issf_api
Word
p2859
(dp2860
g6
I00
sg7
V\u092e\u094b\u0939\u092e\u094d\u092e\u0926
p2861
sg9
(issf_api
FeatureSet
p2862
(dp2863
g12
(dp2864
S'crefhead'
p2865
S'\xe0\xa4\xae\xe0\xa5\x8b\xe0\xa4\xb9\xe0\xa4\xae\xe0\xa5\x8d\xe0\xa4\xae\xe0\xa4\xa6:i24'
p2866
sS'posn'
p2867
S'220'
p2868
sS'name'
p2869
S'\xe0\xa4\xae\xe0\xa5\x8b\xe0\xa4\xb9\xe0\xa4\xae\xe0\xa5\x8d\xe0\xa4\xae\xe0\xa4\xa6'
p2870
sS'af'
p2871
S'\xe0\xa4\xae\xe0\xa5\x8b\xe0\xa4\xb9\xe0\xa4\xae\xe0\xa5\x8d\xe0\xa4\xae\xe0\xa4\xa6,n,m,sg,3,o,0_\xe0\xa4\xa8\xe0\xa5\x87,0'
p2872
sS'chunkid'
p2873
S'NP9'
p2874
sS'creftype'
p2875
S'Coreference-NounComplement:i23'
p2876
sS'chunktype'
p2877
S'head:NP9'
p2878
sS'crefchainhead'
p2879
S'i24:t12'
p2880
sS'vpos'
p2881
S'vib_3'
p2882
sS'cref'
p2883
S'i24%1:t12'
p2884
sS'drel'
p2885
S'k1:VGF'
p2886
ssbsg28
I00
sg29
I00
sg30
Nsg31
Nsg32
I9
sg33
I7
sg34
Nsg35
Nsg36
S'NNP'
p2887
sg38
g2862
sg39
I00
sba(issf_api
Word
p2888
(dp2889
g6
I00
sg7
V\u0928\u0947
p2890
sg9
(issf_api
FeatureSet
p2891
(dp2892
g12
(dp2893
S'posn'
p2894
S'230'
p2895
sS'name'
p2896
S'\xe0\xa4\xa8\xe0\xa5\x87'
p2897
sS'drel'
p2898
S'lwg__psp:NP9'
p2899
sS'chunktype'
p2900
S'child:NP9'
p2901
sS'af'
p2902
S'\xe0\xa4\xa8\xe0\xa5\x87,psp,,,,,,'
p2903
ssbsg28
I00
sg29
I00
sg30
Nsg31
Nsg32
I9
sg33
I7
sg34
Nsg35
Nsg36
S'PSP'
p2904
sg38
g2891
sg39
I00
sba(issf_api
Word
p2905
(dp2906
g6
I00
sg7
V\u0915\u0939\u093e
p2907
sg9
(issf_api
FeatureSet
p2908
(dp2909
g12
(dp2910
S'posn'
p2911
S'240'
p2912
sS'name'
p2913
S'\xe0\xa4\x95\xe0\xa4\xb9\xe0\xa4\xbe'
p2914
sS'af'
p2915
S'\xe0\xa4\x95\xe0\xa4\xb9,v,m,sg,any,,\xe0\xa4\xaf\xe0\xa4\xbe,yA'
p2916
sS'chunkid'
p2917
S'VGF'
p2918
sS'chunktype'
p2919
S'head:VGF'
p2920
sS'voicetype'
p2921
S'active'
p2922
sS'stype'
p2923
S'declarative'
p2924
ssbsg28
I00
sg29
I00
sg30
Nsg31
Nsg32
I10
sg33
I7
sg34
Nsg35
Nsg36
S'VM'
p2925
sg38
g2908
sg39
I00
sba(issf_api
Word
p2926
(dp2927
g6
I00
sg7
V\u0915\u093f
p2928
sg9
(issf_api
FeatureSet
p2929
(dp2930
g12
(dp2931
S'posn'
p2932
S'250'
p2933
sS'name'
p2934
S'\xe0\xa4\x95\xe0\xa4\xbf'
p2935
sS'af'
p2936
S'\xe0\xa4\x95\xe0\xa4\xbf,avy,,,,,,'
p2937
sS'chunkid'
p2938
S'CCP'
p2939
sS'drel'
p2940
S'k2:VGF'
p2941
sS'chunktype'
p2942
S'head:CCP'
p2943
ssbsg28
I00
sg29
I00
sg30
Nsg31
Nsg32
I11
sg33
I7
sg34
Nsg35
Nsg36
S'CC'
p2944
sg38
g2929
sg39
I00
sba(issf_api
Word
p2945
(dp2946
g6
I00
sg7
V\u092f\u0939
p2947
sg9
(issf_api
FeatureSet
p2948
(dp2949
g12
(dp2950
S'crefhead'
p2951
S'\xe0\xa4\xaf\xe0\xa4\xb9:i25'
p2952
sS'posn'
p2953
S'260'
p2954
sS'name'
p2955
S'\xe0\xa4\xaf\xe0\xa4\xb9'
p2956
sS'af'
p2957
S'\xe0\xa4\xaf\xe0\xa4\xb9,pn,any,sg,3,d,0,0'
p2958
sS'chunkid'
p2959
S'NP10'
p2960
sS'creftype'
p2961
S'anaphora-?:i25'
p2962
sS'chunktype'
p2963
S'head:NP10'
p2964
sS'cref'
p2965
S'i25%1:t13'
p2966
sS'drel'
p2967
S'k1:VGF2'
p2968
ssbsg28
I00
sg29
I00
sg30
Nsg31
Nsg32
I12
sg33
I7
sg34
Nsg35
Nsg36
S'PRP'
p2969
sg38
g2948
sg39
I00
sba(issf_api
Word
p2970
(dp2971
g6
I00
sg7
V\u0909\u091a\u093f\u0924
p2972
sg9
(issf_api
FeatureSet
p2973
(dp2974
g12
(dp2975
S'posn'
p2976
S'270'
p2977
sS'name'
p2978
S'\xe0\xa4\x89\xe0\xa4\x9a\xe0\xa4\xbf\xe0\xa4\xa4'
p2979
sS'af'
p2980
S'\xe0\xa4\x89\xe0\xa4\x9a\xe0\xa4\xbf\xe0\xa4\xa4,adj,any,any,,,,'
p2981
sS'chunkid'
p2982
S'JJP'
p2983
sS'drel'
p2984
S'k1s:VGF2'
p2985
sS'chunktype'
p2986
S'head:JJP'
p2987
ssbsg28
I00
sg29
I00
sg30
Nsg31
Nsg32
I13
sg33
I7
sg34
Nsg35
Nsg36
S'JJ'
p2988
sg38
g2973
sg39
I00
sba(issf_api
Word
p2989
(dp2990
g6
I00
sg7
V\u0928\u0939\u0940\u0902
p2991
sg9
(issf_api
FeatureSet
p2992
(dp2993
g12
(dp2994
S'posn'
p2995
S'280'
p2996
sS'name'
p2997
S'\xe0\xa4\xa8\xe0\xa4\xb9\xe0\xa5\x80\xe0\xa4\x82'
p2998
sS'drel'
p2999
S'lwg__neg:VGF2'
p3000
sS'chunktype'
p3001
S'child:VGF2'
p3002
sS'af'
p3003
S'\xe0\xa4\xa8\xe0\xa4\xb9\xe0\xa5\x80\xe0\xa4\x82,avy,,,,,,'
p3004
ssbsg28
I00
sg29
I00
sg30
Nsg31
Nsg32
I14
sg33
I7
sg34
Nsg35
Nsg36
S'NEG'
p3005
sg38
g2992
sg39
I00
sba(issf_api
Word
p3006
(dp3007
g6
I00
sg7
V\u0939\u0948
p3008
sg9
(issf_api
FeatureSet
p3009
(dp3010
g12
(dp3011
S'posn'
p3012
S'290'
p3013
sS'name'
p3014
S'\xe0\xa4\xb9\xe0\xa5\x88'
p3015
sS'af'
p3016
S'\xe0\xa4\xb9\xe0\xa5\x88,v,any,sg,3,,\xe0\xa4\xb9\xe0\xa5\x88,hE'
p3017
sS'chunkid'
p3018
S'VGF2'
p3019
sS'stype'
p3020
S'declarative'
p3021
sS'drel'
p3022
S'ccof:CCP'
p3023
sS'voicetype'
p3024
S'active'
p3025
sS'chunktype'
p3026
S'head:VGF2'
p3027
ssbsg28
I00
sg29
I00
sg30
Nsg31
Nsg32
I14
sg33
I7
sg34
Nsg35
Nsg36
S'VM'
p3028
sg38
g3009
sg39
I00
sba(issf_api
Word
p3029
(dp3030
g6
I00
sg7
V\u0915\u093f
p3031
sg9
(issf_api
FeatureSet
p3032
(dp3033
g12
(dp3034
S'posn'
p3035
S'300'
p3036
sS'name'
p3037
S'\xe0\xa4\x95\xe0\xa4\xbf2'
p3038
sS'af'
p3039
S'\xe0\xa4\x95\xe0\xa4\xbf,avy,,,,,,'
p3040
sS'chunkid'
p3041
S'CCP2'
p3042
sS'drel'
p3043
S'rs:NP10'
p3044
sS'chunktype'
p3045
S'head:CCP2'
p3046
ssbsg28
I00
sg29
I00
sg30
Nsg31
Nsg32
I15
sg33
I7
sg34
Nsg35
Nsg36
S'CC'
p3047
sg38
g3032
sg39
I00
sba(issf_api
Word
p3048
(dp3049
g6
I00
sg7
V\u0939\u094b\u0928\u0947
p3050
sg9
(issf_api
FeatureSet
p3051
(dp3052
g12
(dp3053
S'posn'
p3054
S'310'
p3055
sS'name'
p3056
S'\xe0\xa4\xb9\xe0\xa5\x8b\xe0\xa4\xa8\xe0\xa5\x87'
p3057
sS'af'
p3058
S'\xe0\xa4\xb9\xe0\xa5\x8b,v,any,sg,any,o,\xe0\xa4\xa8\xe0\xa4\xbe_\xe0\xa4\xb5\xe0\xa4\xbe\xe0\xa4\xb2\xe0\xa4\xbe,nA'
p3059
sS'chunkid'
p3060
S'VGNN'
p3061
sS'drel'
p3062
S'nmod:NP11'
p3063
sS'chunktype'
p3064
S'head:VGNN'
p3065
sS'vpos'
p3066
S'tam_2'
p3067
sS'cref'
p3068
S'i26%0:t13'
p3069
ssbsg28
I00
sg29
I00
sg30
Nsg31
Nsg32
I16
sg33
I7
sg34
Nsg35
Nsg36
S'VM'
p3070
sg38
g3051
sg39
I00
sba(issf_api
Word
p3071
(dp3072
g6
I00
sg7
V\u0935\u093e\u0932\u0947
p3073
sg9
(issf_api
FeatureSet
p3074
(dp3075
g12
(dp3076
S'posn'
p3077
S'320'
p3078
sS'name'
p3079
S'\xe0\xa4\xb5\xe0\xa4\xbe\xe0\xa4\xb2\xe0\xa5\x87'
p3080
sS'af'
p3081
S'\xe0\xa4\xb5\xe0\xa4\xbe\xe0\xa4\xb2\xe0\xa4\xbe,psp,m,sg,,o,,'
p3082
sS'drel'
p3083
S'lwg__psp:VGNN'
p3084
sS'chunktype'
p3085
S'child:VGNN'
p3086
sS'cref'
p3087
S'i26%0:t13'
p3088
ssbsg28
I00
sg29
I00
sg30
Nsg31
Nsg32
I16
sg33
I7
sg34
Nsg35
Nsg36
S'PSP'
p3089
sg38
g3074
sg39
I00
sba(issf_api
Word
p3090
(dp3091
g6
I00
sg7
V\u091a\u0941\u0928\u093e\u0935
p3092
sg9
(issf_api
FeatureSet
p3093
(dp3094
g12
(dp3095
S'crefhead'
p3096
S'\xe0\xa4\x9a\xe0\xa5\x81\xe0\xa4\xa8\xe0\xa4\xbe\xe0\xa4\xb5:i27'
p3097
sS'posn'
p3098
S'330'
p3099
sS'name'
p3100
S'\xe0\xa4\x9a\xe0\xa5\x81\xe0\xa4\xa8\xe0\xa4\xbe\xe0\xa4\xb5'
p3101
sS'af'
p3102
S'\xe0\xa4\x9a\xe0\xa5\x81\xe0\xa4\xa8\xe0\xa4\xbe\xe0\xa4\xb5,n,m,sg,3,o,0_\xe0\xa4\x95\xe0\xa5\x8b,0'
p3103
sS'chunkid'
p3104
S'NP11'
p3105
sS'chunktype'
p3106
S'head:NP11'
p3107
sS'crefchainhead'
p3108
S'i27:t14'
p3109
sS'vpos'
p3110
S'vib_2'
p3111
sS'cref'
p3112
S'i26%0:t13,i27%1:t14'
p3113
sS'drel'
p3114
S'k4:VGF3'
p3115
ssbsg28
I00
sg29
I00
sg30
Nsg31
Nsg32
I17
sg33
I7
sg34
Nsg35
Nsg36
S'NN'
p3116
sg38
g3093
sg39
I00
sba(issf_api
Word
p3117
(dp3118
g6
I00
sg7
V\u0915\u094b
p3119
sg9
(issf_api
FeatureSet
p3120
(dp3121
g12
(dp3122
S'posn'
p3123
S'340'
p3124
sS'name'
p3125
S'\xe0\xa4\x95\xe0\xa5\x8b'
p3126
sS'af'
p3127
S'\xe0\xa4\x95\xe0\xa5\x8b,psp,,,,,,'
p3128
sS'drel'
p3129
S'lwg__psp:NP11'
p3130
sS'chunktype'
p3131
S'child:NP11'
p3132
sS'cref'
p3133
S'i26%0:t13'
p3134
ssbsg28
I00
sg29
I00
sg30
Nsg31
Nsg32
I17
sg33
I7
sg34
Nsg35
Nsg36
S'PSP'
p3135
sg38
g3120
sg39
I00
sba(issf_api
Word
p3136
(dp3137
g6
I00
sg7
V\u0932\u094b\u0915\u0924\u093e\u0902\u0924\u094d\u0930\u093f\u0915
p3138
sg9
(issf_api
FeatureSet
p3139
(dp3140
g12
(dp3141
S'posn'
p3142
S'350'
p3143
sS'name'
p3144
S'\xe0\xa4\xb2\xe0\xa5\x8b\xe0\xa4\x95\xe0\xa4\xa4\xe0\xa4\xbe\xe0\xa4\x82\xe0\xa4\xa4\xe0\xa5\x8d\xe0\xa4\xb0\xe0\xa4\xbf\xe0\xa4\x95'
p3145
sS'af'
p3146
S'\xe0\xa4\xb2\xe0\xa5\x8b\xe0\xa4\x95\xe0\xa4\xa4\xe0\xa4\xbe\xe0\xa4\x82\xe0\xa4\xa4\xe0\xa5\x8d\xe0\xa4\xb0\xe0\xa4\xbf\xe0\xa4\x95,adj,any,any,,d,,'
p3147
sS'drel'
p3148
S'nmod__adj:NP12'
p3149
sS'chunktype'
p3150
S'child:NP12'
p3151
sS'cref'
p3152
S'i26%0:t13'
p3153
ssbsg28
I00
sg29
I00
sg30
Nsg31
Nsg32
I18
sg33
I7
sg34
Nsg35
Nsg36
S'JJ'
p3154
sg38
g3139
sg39
I00
sba(issf_api
Word
p3155
(dp3156
g6
I00
sg7
V\u0915\u0930\u093e\u0930
p3157
sg9
(issf_api
FeatureSet
p3158
(dp3159
g12
(dp3160
S'posn'
p3161
S'360'
p3162
sS'name'
p3163
S'\xe0\xa4\x95\xe0\xa4\xb0\xe0\xa4\xbe\xe0\xa4\xb0'
p3164
sS'af'
p3165
S'\xe0\xa4\x95\xe0\xa4\xb0\xe0\xa4\xbe\xe0\xa4\xb0,n,m,sg,3,d,0,0'
p3166
sS'chunkid'
p3167
S'NP12'
p3168
sS'drel'
p3169
S'k2:VGF3'
p3170
sS'chunktype'
p3171
S'head:NP12'
p3172
sS'cref'
p3173
S'i26%0:t13'
p3174
ssbsg28
I00
sg29
I00
sg30
Nsg31
Nsg32
I18
sg33
I7
sg34
Nsg35
Nsg36
S'NN'
p3175
sg38
g3158
sg39
I00
sba(issf_api
Word
p3176
(dp3177
g6
I00
sg7
V\u0926\u093f\u092f\u093e
p3178
sg9
(issf_api
FeatureSet
p3179
(dp3180
g12
(dp3181
S'crefhead'
p3182
S'\xe0\xa4\xa6\xe0\xa4\xbf\xe0\xa4\xaf\xe0\xa4\xbe:i26'
p3183
sS'posn'
p3184
S'370'
p3185
sS'name'
p3186
S'\xe0\xa4\xa6\xe0\xa4\xbf\xe0\xa4\xaf\xe0\xa4\xbe'
p3187
sS'af'
p3188
S'\xe0\xa4\xa6\xe0\xa5\x87,v,m,sg,any,,\xe0\xa4\xaf\xe0\xa4\xbe_\xe0\xa4\x9c\xe0\xa4\xbe+\xe0\xa4\x8f\xe0\xa4\x82,yA'
p3189
sS'chunkid'
p3190
S'VGF3'
p3191
sS'stype'
p3192
S'declarative'
p3193
sS'creftype'
p3194
S'Anaphora-RE:i25'
p3195
sS'chunktype'
p3196
S'head:VGF3'
p3197
sS'crefchainhead'
p3198
S'i26:t13'
p3199
sS'voicetype'
p3200
S'active'
p3201
sS'vpos'
p3202
S'tam_2'
p3203
sS'cref'
p3204
S'i26%0:t13'
p3205
sS'drel'
p3206
S'ccof:CCP2'
p3207
ssbsg28
I00
sg29
I00
sg30
Nsg31
Nsg32
I19
sg33
I7
sg34
Nsg35
Nsg36
S'VM'
p3208
sg38
g3179
sg39
I00
sba(issf_api
Word
p3209
(dp3210
g6
I00
sg7
V\u091c\u093e\u090f
p3211
sg9
(issf_api
FeatureSet
p3212
(dp3213
g12
(dp3214
S'posn'
p3215
S'380'
p3216
sS'name'
p3217
S'\xe0\xa4\x9c\xe0\xa4\xbe\xe0\xa4\x8f'
p3218
sS'af'
p3219
S'\xe0\xa4\x9c\xe0\xa4\xbe,v,m,sg,any,,\xe0\xa4\x8f\xe0\xa4\x82,eM'
p3220
sS'drel'
p3221
S'lwg__vaux:VGF3'
p3222
sS'chunktype'
p3223
S'child:VGF3'
p3224
sS'cref'
p3225
S'i26%1:t13'
p3226
ssbsg28
I00
sg29
I00
sg30
Nsg31
Nsg32
I19
sg33
I7
sg34
Nsg35
Nsg36
S'VAUX'
p3227
sg38
g3212
sg39
I00
sba(issf_api
Word
p3228
(dp3229
g6
I00
sg7
V\u0964
p3230
sg9
(issf_api
FeatureSet
p3231
(dp3232
g12
(dp3233
S'posn'
p3234
S'390'
p3235
sS'name'
p3236
S'\xe0\xa5\xa4'
p3237
sS'af'
p3238
S'\xe0\xa5\xa4,punc,,,,,,'
p3239
sS'chunkid'
p3240
S'BLK'
p3241
sS'drel'
p3242
S'rsym:VGF'
p3243
sS'chunktype'
p3244
S'head:BLK'
p3245
ssbsg28
I00
sg29
I00
sg30
Nsg31
Nsg32
I20
sg33
I7
sg34
Nsg35
Nsg36
S'SYM'
p3246
sg38
g3231
sg39
I00
sba(issf_api
Word
p3247
(dp3248
g6
I00
sg7
V\u0909\u0928\u094d\u0939\u094b\u0902\u0928\u0947
p3249
sg9
(issf_api
FeatureSet
p3250
(dp3251
g12
(dp3252
S'crefhead'
p3253
S'\xe0\xa4\x89\xe0\xa4\xa8\xe0\xa5\x8d\xe0\xa4\xb9\xe0\xa5\x8b\xe0\xa4\x82\xe0\xa4\xa8\xe0\xa5\x87:i28'
p3254
sS'posn'
p3255
S'10'
p3256
sS'name'
p3257
S'\xe0\xa4\x89\xe0\xa4\xa8\xe0\xa5\x8d\xe0\xa4\xb9\xe0\xa5\x8b\xe0\xa4\x82\xe0\xa4\xa8\xe0\xa5\x87'
p3258
sS'af'
p3259
S'\xe0\xa4\xb5\xe0\xa4\xb9,pn,any,sg,3h,o,\xe0\xa4\xa8\xe0\xa5\x87,ne'
p3260
sS'chunkid'
p3261
S'NP'
p3262
sS'creftype'
p3263
S'Anaphora-C:i24'
p3264
sS'chunktype'
p3265
S'head:NP'
p3266
sS'cref'
p3267
S'i28%1:t12'
p3268
sS'drel'
p3269
S'k1:VGF'
p3270
ssbsg28
I00
sg29
I00
sg30
Nsg31
Nsg32
I0
sg33
I8
sg34
Nsg35
Nsg36
S'PRP'
p3271
sg38
g3250
sg39
I00
sba(issf_api
Word
p3272
(dp3273
g6
I00
sg7
V\u0915\u0939\u093e
p3274
sg9
(issf_api
FeatureSet
p3275
(dp3276
g12
(dp3277
S'posn'
p3278
S'20'
p3279
sS'name'
p3280
S'\xe0\xa4\x95\xe0\xa4\xb9\xe0\xa4\xbe'
p3281
sS'af'
p3282
S'\xe0\xa4\x95\xe0\xa4\xb9,v,m,sg,any,,\xe0\xa4\xaf\xe0\xa4\xbe,yA'
p3283
sS'chunkid'
p3284
S'VGF'
p3285
sS'chunktype'
p3286
S'head:VGF'
p3287
sS'voicetype'
p3288
S'active'
p3289
sS'stype'
p3290
S'declarative'
p3291
ssbsg28
I00
sg29
I00
sg30
Nsg31
Nsg32
I1
sg33
I8
sg34
Nsg35
Nsg36
S'VM'
p3292
sg38
g3275
sg39
I00
sba(issf_api
Word
p3293
(dp3294
g6
I00
sg7
V\u0915\u093f
p3295
sg9
(issf_api
FeatureSet
p3296
(dp3297
g12
(dp3298
S'posn'
p3299
S'30'
p3300
sS'name'
p3301
S'\xe0\xa4\x95\xe0\xa4\xbf'
p3302
sS'af'
p3303
S'\xe0\xa4\x95\xe0\xa4\xbf,avy,,,,,,'
p3304
sS'chunkid'
p3305
S'CCP'
p3306
sS'drel'
p3307
S'k2:VGF'
p3308
sS'chunktype'
p3309
S'head:CCP'
p3310
ssbsg28
I00
sg29
I00
sg30
Nsg31
Nsg32
I2
sg33
I8
sg34
Nsg35
Nsg36
S'CC'
p3311
sg38
g3296
sg39
I00
sba(issf_api
Word
p3312
(dp3313
g6
I00
sg7
V\u090f\u0915
p3314
sg9
(issf_api
FeatureSet
p3315
(dp3316
g12
(dp3317
S'posn'
p3318
S'40'
p3319
sS'name'
p3320
S'\xe0\xa4\x8f\xe0\xa4\x95'
p3321
sS'af'
p3322
S'\xe0\xa4\x8f\xe0\xa4\x95,num,any,any,,any,,'
p3323
sS'chunkid'
p3324
S'NP2'
p3325
sS'drel'
p3326
S'rd:VGF2'
p3327
sS'chunktype'
p3328
S'head:NP2'
p3329
ssbsg28
I00
sg29
I00
sg30
Nsg31
Nsg32
I3
sg33
I8
sg34
Nsg35
Nsg36
S'QC'
p3330
sg38
g3315
sg39
I00
sba(issf_api
Word
p3331
(dp3332
g6
I00
sg7
V\u0924\u0930\u092b
p3333
sg9
(issf_api
FeatureSet
p3334
(dp3335
g12
(dp3336
S'posn'
p3337
S'50'
p3338
sS'name'
p3339
S'\xe0\xa4\xa4\xe0\xa4\xb0\xe0\xa4\xab'
p3340
sS'drel'
p3341
S'lwg__psp:NP2'
p3342
sS'chunktype'
p3343
S'child:NP2'
p3344
sS'af'
p3345
S'\xe0\xa4\xa4\xe0\xa4\xb0\xe0\xa4\xab,nst,f,sg,3,d,,'
p3346
ssbsg28
I00
sg29
I00
sg30
Nsg31
Nsg32
I3
sg33
I8
sg34
Nsg35
Nsg36
S'NST'
p3347
sg38
g3334
sg39
I00
sba(issf_api
Word
p3348
(dp3349
g6
I00
sg7
V\u091a\u0941\u0928\u093e\u0935
p3350
sg9
(issf_api
FeatureSet
p3351
(dp3352
g12
(dp3353
S'crefhead'
p3354
S'\xe0\xa4\x9a\xe0\xa5\x81\xe0\xa4\xa8\xe0\xa4\xbe\xe0\xa4\xb5:i29'
p3355
sS'posn'
p3356
S'60'
p3357
sS'name'
p3358
S'\xe0\xa4\x9a\xe0\xa5\x81\xe0\xa4\xa8\xe0\xa4\xbe\xe0\xa4\xb5'
p3359
sS'af'
p3360
S'\xe0\xa4\x9a\xe0\xa5\x81\xe0\xa4\xa8\xe0\xa4\xbe\xe0\xa4\xb5,n,m,sg,3,d,0,0'
p3361
sS'chunkid'
p3362
S'NP3'
p3363
sS'creftype'
p3364
S'Coreference-Identity:i27'
p3365
sS'chunktype'
p3366
S'head:NP3'
p3367
sS'cref'
p3368
S'i29%1:t14'
p3369
sS'drel'
p3370
S'k2:VGNN'
p3371
ssbsg28
I00
sg29
I00
sg30
Nsg31
Nsg32
I4
sg33
I8
sg34
Nsg35
Nsg36
S'NN'
p3372
sg38
g3351
sg39
I00
sba(issf_api
Word
p3373
(dp3374
g6
I00
sg7
V\u0906\u092f\u094b\u091c\u093f\u0924
p3375
sg9
(issf_api
FeatureSet
p3376
(dp3377
g12
(dp3378
S'posn'
p3379
S'70'
p3380
sS'name'
p3381
S'\xe0\xa4\x86\xe0\xa4\xaf\xe0\xa5\x8b\xe0\xa4\x9c\xe0\xa4\xbf\xe0\xa4\xa4'
p3382
sS'af'
p3383
S'\xe0\xa4\x86\xe0\xa4\xaf\xe0\xa5\x8b\xe0\xa4\x9c\xe0\xa4\xbf\xe0\xa4\xa4,adj,any,any,,,,'
p3384
sS'chunkid'
p3385
S'JJP'
p3386
sS'drel'
p3387
S'pof:VGNN'
p3388
sS'chunktype'
p3389
S'head:JJP'
p3390
ssbsg28
I00
sg29
I00
sg30
Nsg31
Nsg32
I5
sg33
I8
sg34
Nsg35
Nsg36
S'JJ'
p3391
sg38
g3376
sg39
I00
sba(issf_api
Word
p3392
(dp3393
g6
I00
sg7
V\u0915\u0930\u0928\u0947
p3394
sg9
(issf_api
FeatureSet
p3395
(dp3396
g12
(dp3397
S'posn'
p3398
S'80'
p3399
sS'name'
p3400
S'\xe0\xa4\x95\xe0\xa4\xb0\xe0\xa4\xa8\xe0\xa5\x87'
p3401
sS'af'
p3402
S'\xe0\xa4\x95\xe0\xa4\xb0,v,any,sg,any,o,\xe0\xa4\xa8\xe0\xa4\xbe_\xe0\xa4\x95\xe0\xa4\xbe,nA'
p3403
sS'chunkid'
p3404
S'VGNN'
p3405
sS'drel'
p3406
S'r6:NP4'
p3407
sS'vpos'
p3408
S'tam_2'
p3409
sS'chunktype'
p3410
S'head:VGNN'
p3411
ssbsg28
I00
sg29
I00
sg30
Nsg31
Nsg32
I6
sg33
I8
sg34
Nsg35
Nsg36
S'VM'
p3412
sg38
g3395
sg39
I00
sba(issf_api
Word
p3413
(dp3414
g6
I00
sg7
V\u0915\u0940
p3415
sg9
(issf_api
FeatureSet
p3416
(dp3417
g12
(dp3418
S'posn'
p3419
S'90'
p3420
sS'name'
p3421
S'\xe0\xa4\x95\xe0\xa5\x80'
p3422
sS'drel'
p3423
S'lwg__psp:VGNN'
p3424
sS'chunktype'
p3425
S'child:VGNN'
p3426
sS'af'
p3427
S'\xe0\xa4\x95\xe0\xa4\xbe,psp,f,sg,,d,,'
p3428
ssbsg28
I00
sg29
I00
sg30
Nsg31
Nsg32
I6
sg33
I8
sg34
Nsg35
Nsg36
S'PSP'
p3429
sg38
g3416
sg39
I00
sba(issf_api
Word
p3430
(dp3431
g6
I00
sg7
V\u0924\u0948\u092f\u093e\u0930\u0940
p3432
sg9
(issf_api
FeatureSet
p3433
(dp3434
g12
(dp3435
S'posn'
p3436
S'100'
p3437
sS'name'
p3438
S'\xe0\xa4\xa4\xe0\xa5\x88\xe0\xa4\xaf\xe0\xa4\xbe\xe0\xa4\xb0\xe0\xa5\x80'
p3439
sS'af'
p3440
S'\xe0\xa4\xa4\xe0\xa5\x88\xe0\xa4\xaf\xe0\xa4\xbe\xe0\xa4\xb0\xe0\xa5\x80,n,f,sg,3,d,0,0'
p3441
sS'chunkid'
p3442
S'NP4'
p3443
sS'drel'
p3444
S'k1:VGF2'
p3445
sS'chunktype'
p3446
S'head:NP4'
p3447
ssbsg28
I00
sg29
I00
sg30
Nsg31
Nsg32
I7
sg33
I8
sg34
Nsg35
Nsg36
S'NN'
p3448
sg38
g3433
sg39
I00
sba(issf_api
Word
p3449
(dp3450
g6
I00
sg7
V\u091a\u0932
p3451
sg9
(issf_api
FeatureSet
p3452
(dp3453
g12
(dp3454
S'posn'
p3455
S'110'
p3456
sS'name'
p3457
S'\xe0\xa4\x9a\xe0\xa4\xb2'
p3458
sS'af'
p3459
S'\xe0\xa4\x9a\xe0\xa4\xb2,v,f,sg,3,,0_\xe0\xa4\xb0\xe0\xa4\xb9+\xe0\xa4\xaf\xe0\xa4\xbe_\xe0\xa4\xb9\xe0\xa5\x88,0'
p3460
sS'chunkid'
p3461
S'VGF2'
p3462
sS'stype'
p3463
S'declarative'
p3464
sS'drel'
p3465
S'ccof:CCP2'
p3466
sS'voicetype'
p3467
S'active'
p3468
sS'vpos'
p3469
S'tam_2_3'
p3470
sS'chunktype'
p3471
S'head:VGF2'
p3472
ssbsg28
I00
sg29
I00
sg30
Nsg31
Nsg32
I8
sg33
I8
sg34
Nsg35
Nsg36
S'VM'
p3473
sg38
g3452
sg39
I00
sba(issf_api
Word
p3474
(dp3475
g6
I00
sg7
V\u0930\u0939\u0940
p3476
sg9
(issf_api
FeatureSet
p3477
(dp3478
g12
(dp3479
S'posn'
p3480
S'120'
p3481
sS'name'
p3482
S'\xe0\xa4\xb0\xe0\xa4\xb9\xe0\xa5\x80'
p3483
sS'drel'
p3484
S'lwg__vaux:VGF2'
p3485
sS'chunktype'
p3486
S'child:VGF2'
p3487
sS'af'
p3488
S'\xe0\xa4\xb0\xe0\xa4\xb9,v,f,sg,any,,\xe0\xa4\xaf\xe0\xa4\xbe,yA'
p3489
ssbsg28
I00
sg29
I00
sg30
Nsg31
Nsg32
I8
sg33
I8
sg34
Nsg35
Nsg36
S'VAUX'
p3490
sg38
g3477
sg39
I00
sba(issf_api
Word
p3491
(dp3492
g6
I00
sg7
V\u0939\u0948
p3493
sg9
(issf_api
FeatureSet
p3494
(dp3495
g12
(dp3496
S'posn'
p3497
S'130'
p3498
sS'name'
p3499
S'\xe0\xa4\xb9\xe0\xa5\x88'
p3500
sS'drel'
p3501
S'lwg__vaux:VGF2'
p3502
sS'chunktype'
p3503
S'child:VGF2'
p3504
sS'af'
p3505
S'\xe0\xa4\xb9\xe0\xa5\x88,v,any,sg,3,,\xe0\xa4\xb9\xe0\xa5\x88,hE'
p3506
ssbsg28
I00
sg29
I00
sg30
Nsg31
Nsg32
I8
sg33
I8
sg34
Nsg35
Nsg36
S'VAUX'
p3507
sg38
g3494
sg39
I00
sba(issf_api
Word
p3508
(dp3509
g6
I00
sg7
V\u0914\u0930
p3510
sg9
(issf_api
FeatureSet
p3511
(dp3512
g12
(dp3513
S'posn'
p3514
S'140'
p3515
sS'name'
p3516
S'\xe0\xa4\x94\xe0\xa4\xb0'
p3517
sS'af'
p3518
S'\xe0\xa4\x94\xe0\xa4\xb0,avy,,,,,,'
p3519
sS'chunkid'
p3520
S'CCP2'
p3521
sS'drel'
p3522
S'ccof:CCP'
p3523
sS'chunktype'
p3524
S'head:CCP2'
p3525
ssbsg28
I00
sg29
I00
sg30
Nsg31
Nsg32
I9
sg33
I8
sg34
Nsg35
Nsg36
S'CC'
p3526
sg38
g3511
sg39
I00
sba(issf_api
Word
p3527
(dp3528
g6
I00
sg7
V\u0926\u0942\u0938\u0930\u0940
p3529
sg9
(issf_api
FeatureSet
p3530
(dp3531
g12
(dp3532
S'posn'
p3533
S'150'
p3534
sS'name'
p3535
S'\xe0\xa4\xa6\xe0\xa5\x82\xe0\xa4\xb8\xe0\xa4\xb0\xe0\xa5\x80'
p3536
sS'af'
p3537
S'\xe0\xa4\xa6\xe0\xa5\x82\xe0\xa4\xb8\xe0\xa4\xb0\xe0\xa4\xbe,num,f,sg,,d,,'
p3538
sS'chunkid'
p3539
S'NP5'
p3540
sS'drel'
p3541
S'rd:VGF3'
p3542
sS'chunktype'
p3543
S'head:NP5'
p3544
ssbsg28
I00
sg29
I00
sg30
Nsg31
Nsg32
I10
sg33
I8
sg34
Nsg35
Nsg36
S'QO'
p3545
sg38
g3530
sg39
I00
sba(issf_api
Word
p3546
(dp3547
g6
I00
sg7
V\u0924\u0930\u092b
p3548
sg9
(issf_api
FeatureSet
p3549
(dp3550
g12
(dp3551
S'posn'
p3552
S'160'
p3553
sS'name'
p3554
S'\xe0\xa4\xa4\xe0\xa4\xb0\xe0\xa4\xab2'
p3555
sS'drel'
p3556
S'lwg__psp:NP5'
p3557
sS'chunktype'
p3558
S'child:NP5'
p3559
sS'af'
p3560
S'\xe0\xa4\xa4\xe0\xa4\xb0\xe0\xa4\xab,nst,f,sg,3,d,,'
p3561
ssbsg28
I00
sg29
I00
sg30
Nsg31
Nsg32
I10
sg33
I8
sg34
Nsg35
Nsg36
S'NST'
p3562
sg38
g3549
sg39
I00
sba(issf_api
Word
p3563
(dp3564
g6
I00
sg7
V\u090f\u0915
p3565
sg9
(issf_api
FeatureSet
p3566
(dp3567
g12
(dp3568
S'posn'
p3569
S'170'
p3570
sS'name'
p3571
S'\xe0\xa4\x8f\xe0\xa4\x952'
p3572
sS'drel'
p3573
S'nmod__adj:NP6'
p3574
sS'chunktype'
p3575
S'child:NP6'
p3576
sS'af'
p3577
S'\xe0\xa4\x8f\xe0\xa4\x95,num,any,any,,any,,'
p3578
ssbsg28
I00
sg29
I00
sg30
Nsg31
Nsg32
I11
sg33
I8
sg34
Nsg35
Nsg36
S'QC'
p3579
sg38
g3566
sg39
I00
sba(issf_api
Word
p3580
(dp3581
g6
I00
sg7
V\u0936\u093e\u0902\u0924
p3582
sg9
(issf_api
FeatureSet
p3583
(dp3584
g12
(dp3585
S'posn'
p3586
S'180'
p3587
sS'name'
p3588
S'\xe0\xa4\xb6\xe0\xa4\xbe\xe0\xa4\x82\xe0\xa4\xa4'
p3589
sS'drel'
p3590
S'nmod__adj:NP6'
p3591
sS'chunktype'
p3592
S'child:NP6'
p3593
sS'af'
p3594
S'\xe0\xa4\xb6\xe0\xa4\xbe\xe0\xa4\x82\xe0\xa4\xa4,adj,any,any,,o,,'
p3595
ssbsg28
I00
sg29
I00
sg30
Nsg31
Nsg32
I11
sg33
I8
sg34
Nsg35
Nsg36
S'JJ'
p3596
sg38
g3583
sg39
I00
sba(issf_api
Word
p3597
(dp3598
g6
I00
sg7
V\u0936\u0939\u0930
p3599
sg9
(issf_api
FeatureSet
p3600
(dp3601
g12
(dp3602
S'posn'
p3603
S'190'
p3604
sS'name'
p3605
S'\xe0\xa4\xb6\xe0\xa4\xb9\xe0\xa4\xb0'
p3606
sS'af'
p3607
S'\xe0\xa4\xb6\xe0\xa4\xb9\xe0\xa4\xb0,n,m,sg,3,o,0_\xe0\xa4\xaa\xe0\xa4\xb0,0'
p3608
sS'chunkid'
p3609
S'NP6'
p3610
sS'drel'
p3611
S'k7p:VGF3'
p3612
sS'vpos'
p3613
S'vib_4'
p3614
sS'chunktype'
p3615
S'head:NP6'
p3616
ssbsg28
I00
sg29
I00
sg30
Nsg31
Nsg32
I11
sg33
I8
sg34
Nsg35
Nsg36
S'NN'
p3617
sg38
g3600
sg39
I00
sba(issf_api
Word
p3618
(dp3619
g6
I00
sg7
V\u092a\u0930
p3620
sg9
(issf_api
FeatureSet
p3621
(dp3622
g12
(dp3623
S'posn'
p3624
S'200'
p3625
sS'name'
p3626
S'\xe0\xa4\xaa\xe0\xa4\xb0'
p3627
sS'drel'
p3628
S'lwg__psp:NP6'
p3629
sS'chunktype'
p3630
S'child:NP6'
p3631
sS'af'
p3632
S'\xe0\xa4\xaa\xe0\xa4\xb0,psp,,,,,,'
p3633
ssbsg28
I00
sg29
I00
sg30
Nsg31
Nsg32
I11
sg33
I8
sg34
Nsg35
Nsg36
S'PSP'
p3634
sg38
g3621
sg39
I00
sba(issf_api
Word
p3635
(dp3636
g6
I00
sg7
V\u092e\u093f\u0938\u093e\u0907\u0932
p3637
sg9
(issf_api
FeatureSet
p3638
(dp3639
g12
(dp3640
S'posn'
p3641
S'210'
p3642
sS'name'
p3643
S'\xe0\xa4\xae\xe0\xa4\xbf\xe0\xa4\xb8\xe0\xa4\xbe\xe0\xa4\x87\xe0\xa4\xb2'
p3644
sS'af'
p3645
S'\xe0\xa4\xae\xe0\xa4\xbf\xe0\xa4\xb8\xe0\xa4\xbe\xe0\xa4\x87\xe0\xa4\xb2,n,f,sg,3,d,0,0'
p3646
sS'chunkid'
p3647
S'NP7'
p3648
sS'drel'
p3649
S'ccof:CCP3'
p3650
sS'chunktype'
p3651
S'head:NP7'
p3652
ssbsg28
I00
sg29
I00
sg30
Nsg31
Nsg32
I12
sg33
I8
sg34
Nsg35
Nsg36
S'NN'
p3653
sg38
g3638
sg39
I00
sba(issf_api
Word
p3654
(dp3655
g6
I00
sg7
V,
p3656
sg9
(issf_api
FeatureSet
p3657
(dp3658
g12
(dp3659
S'posn'
p3660
S'220'
p3661
sS'name'
p3662
g1425
sS'drel'
p3663
S'rsym:NP7'
p3664
sS'chunktype'
p3665
S'child:NP7'
p3666
sS'af'
p3667
S'COMMA,punc,,,,,,'
p3668
ssbsg28
I00
sg29
I00
sg30
Nsg31
Nsg32
I12
sg33
I8
sg34
Nsg35
Nsg36
S'SYM'
p3669
sg38
g3657
sg39
I00
sba(issf_api
Word
p3670
(dp3671
g6
I00
sg7
V\u092c\u092e
p3672
sg9
(issf_api
FeatureSet
p3673
(dp3674
g12
(dp3675
S'posn'
p3676
S'230'
p3677
sS'name'
p3678
S'\xe0\xa4\xac\xe0\xa4\xae'
p3679
sS'af'
p3680
S'\xe0\xa4\xac\xe0\xa4\xae,n,m,sg,3,o,0,0'
p3681
sS'chunkid'
p3682
S'NP8'
p3683
sS'drel'
p3684
S'ccof:CCP3'
p3685
sS'chunktype'
p3686
S'head:NP8'
p3687
ssbsg28
I00
sg29
I00
sg30
Nsg31
Nsg32
I13
sg33
I8
sg34
Nsg35
Nsg36
S'NN'
p3688
sg38
g3673
sg39
I00
sba(issf_api
Word
p3689
(dp3690
g6
I00
sg7
V\u0935
p3691
sg9
(issf_api
FeatureSet
p3692
(dp3693
g12
(dp3694
S'posn'
p3695
S'240'
p3696
sS'name'
p3697
S'\xe0\xa4\xb5'
p3698
sS'af'
p3699
S'\xe0\xa4\xb5,avy,,,,,,'
p3700
sS'chunkid'
p3701
S'CCP3'
p3702
sS'drel'
p3703
S'k3:VGF3'
p3704
sS'chunktype'
p3705
S'head:CCP3'
p3706
ssbsg28
I00
sg29
I00
sg30
Nsg31
Nsg32
I14
sg33
I8
sg34
Nsg35
Nsg36
S'CC'
p3707
sg38
g3692
sg39
I00
sba(issf_api
Word
p3708
(dp3709
g6
I00
sg7
V\u0935\u093f\u092e\u093e\u0928\u094b\u0902
p3710
sg9
(issf_api
FeatureSet
p3711
(dp3712
g12
(dp3713
S'posn'
p3714
S'250'
p3715
sS'name'
p3716
S'\xe0\xa4\xb5\xe0\xa4\xbf\xe0\xa4\xae\xe0\xa4\xbe\xe0\xa4\xa8\xe0\xa5\x8b\xe0\xa4\x82'
p3717
sS'af'
p3718
S'\xe0\xa4\xb5\xe0\xa4\xbf\xe0\xa4\xae\xe0\xa4\xbe\xe0\xa4\xa8,n,m,pl,3,o,0_\xe0\xa4\xb8\xe0\xa5\x87,0'
p3719
sS'chunkid'
p3720
S'NP9'
p3721
sS'drel'
p3722
S'ccof:CCP3'
p3723
sS'vpos'
p3724
S'vib_2'
p3725
sS'chunktype'
p3726
S'head:NP9'
p3727
ssbsg28
I00
sg29
I00
sg30
Nsg31
Nsg32
I15
sg33
I8
sg34
Nsg35
Nsg36
S'NN'
p3728
sg38
g3711
sg39
I00
sba(issf_api
Word
p3729
(dp3730
g6
I00
sg7
V\u0938\u0947
p3731
sg9
(issf_api
FeatureSet
p3732
(dp3733
g12
(dp3734
S'posn'
p3735
S'260'
p3736
sS'name'
p3737
S'\xe0\xa4\xb8\xe0\xa5\x87'
p3738
sS'drel'
p3739
S'lwg__psp:NP9'
p3740
sS'chunktype'
p3741
S'child:NP9'
p3742
sS'af'
p3743
S'\xe0\xa4\xb8\xe0\xa5\x87,psp,,,,,,'
p3744
ssbsg28
I00
sg29
I00
sg30
Nsg31
Nsg32
I15
sg33
I8
sg34
Nsg35
Nsg36
S'PSP'
p3745
sg38
g3732
sg39
I00
sba(issf_api
Word
p3746
(dp3747
g6
I00
sg7
V\u0939\u092e\u0932\u0947
p3748
sg9
(issf_api
FeatureSet
p3749
(dp3750
g12
(dp3751
S'crefhead'
p3752
S'\xe0\xa4\xb9\xe0\xa4\xae\xe0\xa4\xb2\xe0\xa5\x87:i30'
p3753
sS'posn'
p3754
S'270'
p3755
sS'name'
p3756
S'\xe0\xa4\xb9\xe0\xa4\xae\xe0\xa4\xb2\xe0\xa5\x87'
p3757
sS'af'
p3758
S'\xe0\xa4\xb9\xe0\xa4\xae\xe0\xa4\xb2\xe0\xa4\xbe,n,m,pl,3,d,0,0'
p3759
sS'chunkid'
p3760
S'NP10'
p3761
sS'creftype'
p3762
S'Coreference-Identity:i21'
p3763
sS'chunktype'
p3764
S'head:NP10'
p3765
sS'cref'
p3766
S'i30%1:t11'
p3767
sS'drel'
p3768
S'pof:VGF3'
p3769
ssbsg28
I00
sg29
I00
sg30
Nsg31
Nsg32
I16
sg33
I8
sg34
Nsg35
Nsg36
S'NN'
p3770
sg38
g3749
sg39
I00
sba(issf_api
Word
p3771
(dp3772
g6
I00
sg7
V\u0915\u093f\u090f
p3773
sg9
(issf_api
FeatureSet
p3774
(dp3775
g12
(dp3776
S'posn'
p3777
S'280'
p3778
sS'name'
p3779
S'\xe0\xa4\x95\xe0\xa4\xbf\xe0\xa4\x8f'
p3780
sS'af'
p3781
S'\xe0\xa4\x95\xe0\xa4\xb0,v,m,pl,3,,\xe0\xa4\xaf\xe0\xa4\xbe_\xe0\xa4\x9c\xe0\xa4\xbe_\xe0\xa4\xb0\xe0\xa4\xb9+\xe0\xa4\xaf\xe0\xa4\xbe_\xe0\xa4\xb9\xe0\xa5\x88,yA'
p3782
sS'chunkid'
p3783
S'VGF3'
p3784
sS'stype'
p3785
S'declarative'
p3786
sS'drel'
p3787
S'ccof:CCP2'
p3788
sS'voicetype'
p3789
S'passive'
p3790
sS'vpos'
p3791
S'tam_2_3_4'
p3792
sS'chunktype'
p3793
S'head:VGF3'
p3794
ssbsg28
I00
sg29
I00
sg30
Nsg31
Nsg32
I17
sg33
I8
sg34
Nsg35
Nsg36
S'VM'
p3795
sg38
g3774
sg39
I00
sba(issf_api
Word
p3796
(dp3797
g6
I00
sg7
V\u091c\u093e
p3798
sg9
(issf_api
FeatureSet
p3799
(dp3800
g12
(dp3801
S'posn'
p3802
S'290'
p3803
sS'name'
p3804
S'\xe0\xa4\x9c\xe0\xa4\xbe'
p3805
sS'drel'
p3806
S'lwg__vaux:VGF3'
p3807
sS'chunktype'
p3808
S'child:VGF3'
p3809
sS'af'
p3810
S'\xe0\xa4\x9c\xe0\xa4\xbe,v,any,any,any,,0,0'
p3811
ssbsg28
I00
sg29
I00
sg30
Nsg31
Nsg32
I17
sg33
I8
sg34
Nsg35
Nsg36
S'VAUX'
p3812
sg38
g3799
sg39
I00
sba(issf_api
Word
p3813
(dp3814
g6
I00
sg7
V\u0930\u0939\u0947
p3815
sg9
(issf_api
FeatureSet
p3816
(dp3817
g12
(dp3818
S'posn'
p3819
S'300'
p3820
sS'name'
p3821
S'\xe0\xa4\xb0\xe0\xa4\xb9\xe0\xa5\x87'
p3822
sS'drel'
p3823
S'lwg__vaux:VGF3'
p3824
sS'chunktype'
p3825
S'child:VGF3'
p3826
sS'af'
p3827
S'\xe0\xa4\xb0\xe0\xa4\xb9,v,m,pl,any,,\xe0\xa4\xaf\xe0\xa4\xbe,yA'
p3828
ssbsg28
I00
sg29
I00
sg30
Nsg31
Nsg32
I17
sg33
I8
sg34
Nsg35
Nsg36
S'VAUX'
p3829
sg38
g3816
sg39
I00
sba(issf_api
Word
p3830
(dp3831
g6
I00
sg7
V\u0939\u0948\u0902
p3832
sg9
(issf_api
FeatureSet
p3833
(dp3834
g12
(dp3835
S'posn'
p3836
S'310'
p3837
sS'name'
p3838
S'\xe0\xa4\xb9\xe0\xa5\x88\xe0\xa4\x82'
p3839
sS'drel'
p3840
S'lwg__vaux:VGF3'
p3841
sS'chunktype'
p3842
S'child:VGF3'
p3843
sS'af'
p3844
S'\xe0\xa4\xb9\xe0\xa5\x88,v,any,pl,3,,\xe0\xa4\xb9\xe0\xa5\x88,hE'
p3845
ssbsg28
I00
sg29
I00
sg30
Nsg31
Nsg32
I17
sg33
I8
sg34
Nsg35
Nsg36
S'VAUX'
p3846
sg38
g3833
sg39
I00
sba(issf_api
Word
p3847
(dp3848
g6
I00
sg7
V\u0964
p3849
sg9
(issf_api
FeatureSet
p3850
(dp3851
g12
(dp3852
S'posn'
p3853
S'320'
p3854
sS'name'
p3855
S'\xe0\xa5\xa4'
p3856
sS'af'
p3857
S'\xe0\xa5\xa4,punc,,,,,,'
p3858
sS'chunkid'
p3859
S'BLK'
p3860
sS'drel'
p3861
S'rsym:VGF'
p3862
sS'chunktype'
p3863
S'head:BLK'
p3864
ssbsg28
I00
sg29
I00
sg30
Nsg31
Nsg32
I18
sg33
I8
sg34
Nsg35
Nsg36
S'SYM'
p3865
sg38
g3850
sg39
I00
sba(issf_api
Word
p3866
(dp3867
g6
I00
sg7
V\u0905\u092e\u0947\u0930\u093f\u0915\u0940
p3868
sg9
(issf_api
FeatureSet
p3869
(dp3870
g12
(dp3871
S'posn'
p3872
S'10'
p3873
sS'name'
p3874
S'\xe0\xa4\x85\xe0\xa4\xae\xe0\xa5\x87\xe0\xa4\xb0\xe0\xa4\xbf\xe0\xa4\x95\xe0\xa5\x80'
p3875
sS'drel'
p3876
S'nmod__adj:NP'
p3877
sS'chunktype'
p3878
S'child:NP'
p3879
sS'af'
p3880
S'\xe0\xa4\x85\xe0\xa4\xae\xe0\xa5\x87\xe0\xa4\xb0\xe0\xa4\xbf\xe0\xa4\x95\xe0\xa5\x80,adj,any,any,,o,,'
p3881
ssbsg28
I00
sg29
I00
sg30
Nsg31
Nsg32
I0
sg33
I9
sg34
Nsg35
Nsg36
S'JJ'
p3882
sg38
g3869
sg39
I00
sba(issf_api
Word
p3883
(dp3884
g6
I00
sg7
V\u0905\u0927\u093f\u0915\u093e\u0930\u093f\u092f\u094b\u0902
p3885
sg9
(issf_api
FeatureSet
p3886
(dp3887
g12
(dp3888
S'posn'
p3889
S'20'
p3890
sS'name'
p3891
S'\xe0\xa4\x85\xe0\xa4\xa7\xe0\xa4\xbf\xe0\xa4\x95\xe0\xa4\xbe\xe0\xa4\xb0\xe0\xa4\xbf\xe0\xa4\xaf\xe0\xa5\x8b\xe0\xa4\x82'
p3892
sS'af'
p3893
S'\xe0\xa4\x85\xe0\xa4\xa7\xe0\xa4\xbf\xe0\xa4\x95\xe0\xa4\xbe\xe0\xa4\xb0\xe0\xa5\x80,n,m,pl,3,o,0_\xe0\xa4\x95\xe0\xa5\x87_\xe0\xa4\x85\xe0\xa4\xa8\xe0\xa5\x81\xe0\xa4\xb8\xe0\xa4\xbe\xe0\xa4\xb0,0'
p3894
sS'chunkid'
p3895
S'NP'
p3896
sS'drel'
p3897
S'k7a:VGF'
p3898
sS'vpos'
p3899
S'vib_3_4'
p3900
sS'chunktype'
p3901
S'head:NP'
p3902
ssbsg28
I00
sg29
I00
sg30
Nsg31
Nsg32
I0
sg33
I9
sg34
Nsg35
Nsg36
S'NN'
p3903
sg38
g3886
sg39
I00
sba(issf_api
Word
p3904
(dp3905
g6
I00
sg7
V\u0915\u0947
p3906
sg9
(issf_api
FeatureSet
p3907
(dp3908
g12
(dp3909
S'posn'
p3910
S'30'
p3911
sS'name'
p3912
S'\xe0\xa4\x95\xe0\xa5\x87'
p3913
sS'drel'
p3914
S'lwg__psp:NP'
p3915
sS'chunktype'
p3916
S'child:NP'
p3917
sS'af'
p3918
S'\xe0\xa4\x95\xe0\xa5\x87,psp,,,,,,'
p3919
ssbsg28
I00
sg29
I00
sg30
Nsg31
Nsg32
I0
sg33
I9
sg34
Nsg35
Nsg36
S'PSP'
p3920
sg38
g3907
sg39
I00
sba(issf_api
Word
p3921
(dp3922
g6
I00
sg7
V\u0905\u0928\u0941\u0938\u093e\u0930
p3923
sg9
(issf_api
FeatureSet
p3924
(dp3925
g12
(dp3926
S'posn'
p3927
S'40'
p3928
sS'name'
p3929
S'\xe0\xa4\x85\xe0\xa4\xa8\xe0\xa5\x81\xe0\xa4\xb8\xe0\xa4\xbe\xe0\xa4\xb0'
p3930
sS'drel'
p3931
S'lwg__psp:NP'
p3932
sS'chunktype'
p3933
S'child:NP'
p3934
sS'af'
p3935
S'\xe0\xa4\x85\xe0\xa4\xa8\xe0\xa5\x81\xe0\xa4\xb8\xe0\xa4\xbe\xe0\xa4\xb0,psp,,,,,,'
p3936
ssbsg28
I00
sg29
I00
sg30
Nsg31
Nsg32
I0
sg33
I9
sg34
Nsg35
Nsg36
S'PSP'
p3937
sg38
g3924
sg39
I00
sba(issf_api
Word
p3938
(dp3939
g6
I00
sg7
V,
p3940
sg9
(issf_api
FeatureSet
p3941
(dp3942
g12
(dp3943
S'posn'
p3944
S'50'
p3945
sS'name'
p3946
g1425
sS'drel'
p3947
S'rsym:NP'
p3948
sS'chunktype'
p3949
S'child:NP'
p3950
sS'af'
p3951
S'COMMA,punc,,,,,,'
p3952
ssbsg28
I00
sg29
I00
sg30
Nsg31
Nsg32
I0
sg33
I9
sg34
Nsg35
Nsg36
S'SYM'
p3953
sg38
g3941
sg39
I00
sba(issf_api
Word
p3954
(dp3955
g6
I00
sg7
V\u092b\u093e\u0932\u0941\u091c\u093e
p3956
sg9
(issf_api
FeatureSet
p3957
(dp3958
g12
(dp3959
S'crefhead'
p3960
S'\xe0\xa4\xab\xe0\xa4\xbe\xe0\xa4\xb2\xe0\xa5\x81\xe0\xa4\x9c\xe0\xa4\xbe:i31'
p3961
sS'posn'
p3962
S'60'
p3963
sS'name'
p3964
S'\xe0\xa4\xab\xe0\xa4\xbe\xe0\xa4\xb2\xe0\xa5\x81\xe0\xa4\x9c\xe0\xa4\xbe'
p3965
sS'af'
p3966
S'\xe0\xa4\xab\xe0\xa4\xbe\xe0\xa4\xb2\xe0\xa5\x81\xe0\xa4\x9c\xe0\xa4\xbe,n,m,sg,3,o,0_\xe0\xa4\xaa\xe0\xa4\xb0,0'
p3967
sS'chunkid'
p3968
S'NP2'
p3969
sS'creftype'
p3970
S'Coreference-Identity:i20'
p3971
sS'chunktype'
p3972
S'head:NP2'
p3973
sS'vpos'
p3974
S'vib_2'
p3975
sS'cref'
p3976
S'i31%1:t10'
p3977
sS'drel'
p3978
S'k7p:VGF'
p3979
ssbsg28
I00
sg29
I00
sg30
Nsg31
Nsg32
I1
sg33
I9
sg34
Nsg35
Nsg36
S'NNP'
p3980
sg38
g3957
sg39
I00
sba(issf_api
Word
p3981
(dp3982
g6
I00
sg7
V\u092a\u0930
p3983
sg9
(issf_api
FeatureSet
p3984
(dp3985
g12
(dp3986
S'posn'
p3987
S'70'
p3988
sS'name'
p3989
S'\xe0\xa4\xaa\xe0\xa4\xb0'
p3990
sS'drel'
p3991
S'lwg__psp:NP2'
p3992
sS'chunktype'
p3993
S'child:NP2'
p3994
sS'af'
p3995
S'\xe0\xa4\xaa\xe0\xa4\xb0,psp,,,,,,'
p3996
ssbsg28
I00
sg29
I00
sg30
Nsg31
Nsg32
I1
sg33
I9
sg34
Nsg35
Nsg36
S'PSP'
p3997
sg38
g3984
sg39
I00
sba(issf_api
Word
p3998
(dp3999
g6
I00
sg7
V\u0905\u0932
p4000
sg9
(issf_api
FeatureSet
p4001
(dp4002
g12
(dp4003
S'posn'
p4004
S'80'
p4005
sS'name'
p4006
S'\xe0\xa4\x85\xe0\xa4\xb2'
p4007
sS'drel'
p4008
S'pof__cn:NP3'
p4009
sS'chunktype'
p4010
S'child:NP3'
p4011
sS'af'
p4012
S'\xe0\xa4\x85\xe0\xa4\xb2,n,m,sg,3,d,0,0'
p4013
ssbsg28
I00
sg29
I00
sg30
Nsg31
Nsg32
I2
sg33
I9
sg34
Nsg35
Nsg36
S'NNPC'
p4014
sg38
g4001
sg39
I00
sba(issf_api
Word
p4015
(dp4016
g6
I00
sg7
V\u0915\u093e\u092f\u0926\u093e
p4017
sg9
(issf_api
FeatureSet
p4018
(dp4019
g12
(dp4020
S'posn'
p4021
S'90'
p4022
sS'name'
p4023
S'\xe0\xa4\x95\xe0\xa4\xbe\xe0\xa4\xaf\xe0\xa4\xa6\xe0\xa4\xbe'
p4024
sS'af'
p4025
S'\xe0\xa4\x95\xe0\xa4\xbe\xe0\xa4\xaf\xe0\xa4\xa6\xe0\xa4\xbe,n,m,sg,3,o,0_\xe0\xa4\xb8\xe0\xa5\x87,0'
p4026
sS'chunkid'
p4027
S'NP3'
p4028
sS'drel'
p4029
S'ras-k1:VGNF'
p4030
sS'vpos'
p4031
S'vib_3'
p4032
sS'chunktype'
p4033
S'head:NP3'
p4034
ssbsg28
I00
sg29
I00
sg30
Nsg31
Nsg32
I2
sg33
I9
sg34
Nsg35
Nsg36
S'NNP'
p4035
sg38
g4018
sg39
I00
sba(issf_api
Word
p4036
(dp4037
g6
I00
sg7
V\u0938\u0947
p4038
sg9
(issf_api
FeatureSet
p4039
(dp4040
g12
(dp4041
S'posn'
p4042
S'100'
p4043
sS'name'
p4044
S'\xe0\xa4\xb8\xe0\xa5\x87'
p4045
sS'drel'
p4046
S'lwg__psp:NP3'
p4047
sS'chunktype'
p4048
S'child:NP3'
p4049
sS'af'
p4050
S'\xe0\xa4\xb8\xe0\xa5\x87,psp,,,,,,'
p4051
ssbsg28
I00
sg29
I00
sg30
Nsg31
Nsg32
I2
sg33
I9
sg34
Nsg35
Nsg36
S'PSP'
p4052
sg38
g4039
sg39
I00
sba(issf_api
Word
p4053
(dp4054
g6
I00
sg7
V\u091c\u0941\u0921\u093c\u0947
p4055
sg9
(issf_api
FeatureSet
p4056
(dp4057
g12
(dp4058
S'posn'
p4059
S'110'
p4060
sS'name'
p4061
S'\xe0\xa4\x9c\xe0\xa5\x81\xe0\xa4\xa1\xe0\xa4\xbc\xe0\xa5\x87'
p4062
sS'af'
p4063
S'\xe0\xa4\x9c\xe0\xa5\x81\xe0\xa4\xa1\xe0\xa4\xbc,v,any,sg,3,,\xe0\xa4\xaf\xe0\xa4\xbe,yA'
p4064
sS'chunkid'
p4065
S'VGNF'
p4066
sS'drel'
p4067
S'nmod__k1inv:NP4'
p4068
sS'chunktype'
p4069
S'head:VGNF'
p4070
ssbsg28
I00
sg29
I00
sg30
Nsg31
Nsg32
I3
sg33
I9
sg34
Nsg35
Nsg36
S'VM'
p4071
sg38
g4056
sg39
I00
sba(issf_api
Word
p4072
(dp4073
g6
I00
sg7
V\u0935\u093f\u0926\u094d\u0930\u094b\u0939\u0940
p4074
sg9
(issf_api
FeatureSet
p4075
(dp4076
g12
(dp4077
S'posn'
p4078
S'120'
p4079
sS'name'
p4080
S'\xe0\xa4\xb5\xe0\xa4\xbf\xe0\xa4\xa6\xe0\xa5\x8d\xe0\xa4\xb0\xe0\xa5\x8b\xe0\xa4\xb9\xe0\xa5\x80'
p4081
sS'af'
p4082
S'\xe0\xa4\xb5\xe0\xa4\xbf\xe0\xa4\xa6\xe0\xa5\x8d\xe0\xa4\xb0\xe0\xa5\x8b\xe0\xa4\xb9\xe0\xa5\x80,adj,any,any,,o,,'
p4083
sS'drel'
p4084
S'nmod__adj:NP4'
p4085
sS'chunktype'
p4086
S'child:NP4'
p4087
sS'cref'
p4088
S'i32%0:t15'
p4089
ssbsg28
I00
sg29
I00
sg30
Nsg31
Nsg32
I4
sg33
I9
sg34
Nsg35
Nsg36
S'JJ'
p4090
sg38
g4075
sg39
I00
sba(issf_api
Word
p4091
(dp4092
g6
I00
sg7
V\u0928\u0947\u0924\u093e
p4093
sg9
(issf_api
FeatureSet
p4094
(dp4095
g12
(dp4096
S'crefhead'
p4097
S'\xe0\xa4\xa8\xe0\xa5\x87\xe0\xa4\xa4\xe0\xa4\xbe:i32'
p4098
sS'posn'
p4099
S'130'
p4100
sS'name'
p4101
S'\xe0\xa4\xa8\xe0\xa5\x87\xe0\xa4\xa4\xe0\xa4\xbe'
p4102
sS'af'
p4103
S'\xe0\xa4\xa8\xe0\xa5\x87\xe0\xa4\xa4\xe0\xa4\xbe,n,m,sg,3,o,0,0'
p4104
sS'chunkid'
p4105
S'NP4'
p4106
sS'drel'
p4107
S'nmod:NP5'
p4108
sS'chunktype'
p4109
S'head:NP4'
p4110
sS'cref'
p4111
S'i32%1:t15'
p4112
ssbsg28
I00
sg29
I00
sg30
Nsg31
Nsg32
I4
sg33
I9
sg34
Nsg35
Nsg36
S'NN'
p4113
sg38
g4094
sg39
I00
sba(issf_api
Word
p4114
(dp4115
g6
I00
sg7
V\u0905\u092c\u0941
p4116
sg9
(issf_api
FeatureSet
p4117
(dp4118
g12
(dp4119
S'posn'
p4120
S'140'
p4121
sS'name'
p4122
S'\xe0\xa4\x85\xe0\xa4\xac\xe0\xa5\x81'
p4123
sS'af'
p4124
S'\xe0\xa4\x85\xe0\xa4\xac\xe0\xa5\x81,n,m,sg,3,d,0,0'
p4125
sS'drel'
p4126
S'pof__cn:NP5'
p4127
sS'chunktype'
p4128
S'child:NP5'
p4129
sS'cref'
p4130
S'i33%0:t15'
p4131
ssbsg28
I00
sg29
I00
sg30
Nsg31
Nsg32
I5
sg33
I9
sg34
Nsg35
Nsg36
S'NNPC'
p4132
sg38
g4117
sg39
I00
sba(issf_api
Word
p4133
(dp4134
g6
I00
sg7
V\u092e\u0941\u0938\u093e\u092c
p4135
sg9
(issf_api
FeatureSet
p4136
(dp4137
g12
(dp4138
S'posn'
p4139
S'150'
p4140
sS'name'
p4141
S'\xe0\xa4\xae\xe0\xa5\x81\xe0\xa4\xb8\xe0\xa4\xbe\xe0\xa4\xac'
p4142
sS'af'
p4143
S'\xe0\xa4\xae\xe0\xa5\x81\xe0\xa4\xb8\xe0\xa4\xbe\xe0\xa4\xac,n,m,sg,3,d,0,0'
p4144
sS'drel'
p4145
S'pof__cn:NP5'
p4146
sS'chunktype'
p4147
S'child:NP5'
p4148
sS'cref'
p4149
S'i33%0:t15'
p4150
ssbsg28
I00
sg29
I00
sg30
Nsg31
Nsg32
I5
sg33
I9
sg34
Nsg35
Nsg36
S'NNPC'
p4151
sg38
g4136
sg39
I00
sba(issf_api
Word
p4152
(dp4153
g6
I00
sg7
V\u0905\u0932
p4154
sg9
(issf_api
FeatureSet
p4155
(dp4156
g12
(dp4157
S'posn'
p4158
S'160'
p4159
sS'name'
p4160
S'\xe0\xa4\x85\xe0\xa4\xb22'
p4161
sS'af'
p4162
S'\xe0\xa4\x85\xe0\xa4\xb2,n,m,sg,3,d,0,0'
p4163
sS'drel'
p4164
S'pof__cn:NP5'
p4165
sS'chunktype'
p4166
S'child:NP5'
p4167
sS'cref'
p4168
S'i33%0:t15'
p4169
ssbsg28
I00
sg29
I00
sg30
Nsg31
Nsg32
I5
sg33
I9
sg34
Nsg35
Nsg36
S'NNPC'
p4170
sg38
g4155
sg39
I00
sba(issf_api
Word
p4171
(dp4172
g6
I00
sg7
V\u091c\u0930\u0915\u093e\u0935\u0940
p4173
sg9
(issf_api
FeatureSet
p4174
(dp4175
g12
(dp4176
S'crefhead'
p4177
S'\xe0\xa4\x9c\xe0\xa4\xb0\xe0\xa4\x95\xe0\xa4\xbe\xe0\xa4\xb5\xe0\xa5\x80:i33'
p4178
sS'posn'
p4179
S'170'
p4180
sS'name'
p4181
S'\xe0\xa4\x9c\xe0\xa4\xb0\xe0\xa4\x95\xe0\xa4\xbe\xe0\xa4\xb5\xe0\xa5\x80'
p4182
sS'af'
p4183
S'\xe0\xa4\x9c\xe0\xa4\xb0\xe0\xa4\x95\xe0\xa4\xbe\xe0\xa4\xb5\xe0\xa5\x80,n,m,sg,3,o,0_\xe0\xa4\x95\xe0\xa4\xbe,0'
p4184
sS'chunkid'
p4185
S'NP5'
p4186
sS'creftype'
p4187
S'Coreference-NounComplement:i32'
p4188
sS'chunktype'
p4189
S'head:NP5'
p4190
sS'crefchainhead'
p4191
S'i33:t15'
p4192
sS'vpos'
p4193
S'vib_5'
p4194
sS'cref'
p4195
S'i33%1:t15'
p4196
sS'drel'
p4197
S'r6:NP6'
p4198
ssbsg28
I00
sg29
I00
sg30
Nsg31
Nsg32
I5
sg33
I9
sg34
Nsg35
Nsg36
S'NNP'
p4199
sg38
g4174
sg39
I00
sba(issf_api
Word
p4200
(dp4201
g6
I00
sg7
V\u0915\u0940
p4202
sg9
(issf_api
FeatureSet
p4203
(dp4204
g12
(dp4205
S'posn'
p4206
S'180'
p4207
sS'name'
p4208
S'\xe0\xa4\x95\xe0\xa5\x80'
p4209
sS'drel'
p4210
S'lwg__psp:NP5'
p4211
sS'chunktype'
p4212
S'child:NP5'
p4213
sS'af'
p4214
S'\xe0\xa4\x95\xe0\xa4\xbe,psp,f,sg,,d,,'
p4215
ssbsg28
I00
sg29
I00
sg30
Nsg31
Nsg32
I5
sg33
I9
sg34
Nsg35
Nsg36
S'PSP'
p4216
sg38
g4203
sg39
I00
sba(issf_api
Word
p4217
(dp4218
g6
I00
sg7
V\u092e\u091c\u092c\u0942\u0924
p4219
sg9
(issf_api
FeatureSet
p4220
(dp4221
g12
(dp4222
S'posn'
p4223
S'190'
p4224
sS'name'
p4225
S'\xe0\xa4\xae\xe0\xa4\x9c\xe0\xa4\xac\xe0\xa5\x82\xe0\xa4\xa4'
p4226
sS'drel'
p4227
S'nmod__adj:NP6'
p4228
sS'chunktype'
p4229
S'child:NP6'
p4230
sS'af'
p4231
S'\xe0\xa4\xae\xe0\xa4\x9c\xe0\xa4\xac\xe0\xa5\x82\xe0\xa4\xa4,adj,any,any,,d,,'
p4232
ssbsg28
I00
sg29
I00
sg30
Nsg31
Nsg32
I6
sg33
I9
sg34
Nsg35
Nsg36
S'JJ'
p4233
sg38
g4220
sg39
I00
sba(issf_api
Word
p4234
(dp4235
g6
I00
sg7
V\u092a\u0915\u0921\u093c
p4236
sg9
(issf_api
FeatureSet
p4237
(dp4238
g12
(dp4239
S'posn'
p4240
S'200'
p4241
sS'name'
p4242
S'\xe0\xa4\xaa\xe0\xa4\x95\xe0\xa4\xa1\xe0\xa4\xbc'
p4243
sS'af'
p4244
S'\xe0\xa4\xaa\xe0\xa4\x95\xe0\xa4\xa1,n,f,sg,3,d,0,0'
p4245
sS'chunkid'
p4246
S'NP6'
p4247
sS'drel'
p4248
S'k1:VGF'
p4249
sS'chunktype'
p4250
S'head:NP6'
p4251
ssbsg28
I00
sg29
I00
sg30
Nsg31
Nsg32
I6
sg33
I9
sg34
Nsg35
Nsg36
S'NN'
p4252
sg38
g4237
sg39
I00
sba(issf_api
Word
p4253
(dp4254
g6
I00
sg7
V\u0939\u0948
p4255
sg9
(issf_api
FeatureSet
p4256
(dp4257
g12
(dp4258
S'posn'
p4259
S'210'
p4260
sS'name'
p4261
S'\xe0\xa4\xb9\xe0\xa5\x88'
p4262
sS'af'
p4263
S'\xe0\xa4\xb9\xe0\xa5\x88,v,any,sg,3,,\xe0\xa4\xb9\xe0\xa5\x88,hE'
p4264
sS'chunkid'
p4265
S'VGF'
p4266
sS'stype'
p4267
S'declarative'
p4268
sS'drel'
p4269
S'ccof:CCP'
p4270
sS'voicetype'
p4271
S'active'
p4272
sS'chunktype'
p4273
S'head:VGF'
p4274
ssbsg28
I00
sg29
I00
sg30
Nsg31
Nsg32
I7
sg33
I9
sg34
Nsg35
Nsg36
S'VM'
p4275
sg38
g4256
sg39
I00
sba(issf_api
Word
p4276
(dp4277
g6
I00
sg7
V\u0914\u0930
p4278
sg9
(issf_api
FeatureSet
p4279
(dp4280
g12
(dp4281
S'posn'
p4282
S'220'
p4283
sS'chunkid'
p4284
S'CCP'
p4285
sS'name'
p4286
S'\xe0\xa4\x94\xe0\xa4\xb0'
p4287
sS'chunktype'
p4288
S'head:CCP'
p4289
sS'af'
p4290
S'\xe0\xa4\x94\xe0\xa4\xb0,avy,,,,,,'
p4291
ssbsg28
I00
sg29
I00
sg30
Nsg31
Nsg32
I8
sg33
I9
sg34
Nsg35
Nsg36
S'CC'
p4292
sg38
g4279
sg39
I00
sba(issf_api
Word
p4293
(dp4294
g6
I00
sg7
V\u0915\u093e\u0930
p4295
sg9
(issf_api
FeatureSet
p4296
(dp4297
g12
(dp4298
S'posn'
p4299
S'230'
p4300
sS'name'
p4301
S'\xe0\xa4\x95\xe0\xa4\xbe\xe0\xa4\xb0'
p4302
sS'af'
p4303
S'\xe0\xa4\x95\xe0\xa4\xbe\xe0\xa4\xb0,n,f,sg,3,d,0,0'
p4304
sS'drel'
p4305
S'pof__cn:NP7'
p4306
sS'chunktype'
p4307
S'child:NP7'
p4308
sS'cref'
p4309
S'i34%0:t1'
p4310
ssbsg28
I00
sg29
I00
sg30
Nsg31
Nsg32
I9
sg33
I9
sg34
Nsg35
Nsg36
S'NNC'
p4311
sg38
g4296
sg39
I00
sba(issf_api
Word
p4312
(dp4313
g6
I00
sg7
V\u092c\u092e
p4314
sg9
(issf_api
FeatureSet
p4315
(dp4316
g12
(dp4317
S'posn'
p4318
S'240'
p4319
sS'name'
p4320
S'\xe0\xa4\xac\xe0\xa4\xae'
p4321
sS'af'
p4322
S'\xe0\xa4\xac\xe0\xa4\xae,n,m,sg,3,d,0,0'
p4323
sS'drel'
p4324
S'pof__cn:NP7'
p4325
sS'chunktype'
p4326
S'child:NP7'
p4327
sS'cref'
p4328
S'i34%0:t1'
p4329
ssbsg28
I00
sg29
I00
sg30
Nsg31
Nsg32
I9
sg33
I9
sg34
Nsg35
Nsg36
S'NNC'
p4330
sg38
g4315
sg39
I00
sba(issf_api
Word
p4331
(dp4332
g6
I00
sg7
V\u0927\u092e\u093e\u0915\u0947
p4333
sg9
(issf_api
FeatureSet
p4334
(dp4335
g12
(dp4336
S'crefhead'
p4337
S'\xe0\xa4\xa7\xe0\xa4\xae\xe0\xa4\xbe\xe0\xa4\x95\xe0\xa5\x87:i34'
p4338
sS'posn'
p4339
S'250'
p4340
sS'name'
p4341
S'\xe0\xa4\xa7\xe0\xa4\xae\xe0\xa4\xbe\xe0\xa4\x95\xe0\xa5\x87'
p4342
sS'af'
p4343
S'\xe0\xa4\xa7\xe0\xa4\xae\xe0\xa4\xbe\xe0\xa4\x95\xe0\xa4\xbe,n,m,sg,3,o,0,0'
p4344
sS'chunkid'
p4345
S'NP7'
p4346
sS'creftype'
p4347
S'Coreference-RPartOf:i1'
p4348
sS'chunktype'
p4349
S'head:NP7'
p4350
sS'crefchainhead'
p4351
S'i34:t1'
p4352
sS'cref'
p4353
S'i34%1:t1'
p4354
sS'drel'
p4355
S'ccof:CCP2'
p4356
ssbsg28
I00
sg29
I00
sg30
Nsg31
Nsg32
I9
sg33
I9
sg34
Nsg35
Nsg36
S'NN'
p4357
sg38
g4334
sg39
I00
sba(issf_api
Word
p4358
(dp4359
g6
I00
sg7
V\u0935
p4360
sg9
(issf_api
FeatureSet
p4361
(dp4362
g12
(dp4363
S'posn'
p4364
S'260'
p4365
sS'name'
p4366
S'\xe0\xa4\xb5'
p4367
sS'af'
p4368
S'\xe0\xa4\xb5,avy,,,,,,'
p4369
sS'chunkid'
p4370
S'CCP2'
p4371
sS'drel'
p4372
S'k7:VGF2'
p4373
sS'chunktype'
p4374
S'head:CCP2'
p4375
ssbsg28
I00
sg29
I00
sg30
Nsg31
Nsg32
I10
sg33
I9
sg34
Nsg35
Nsg36
S'CC'
p4376
sg38
g4361
sg39
I00
sba(issf_api
Word
p4377
(dp4378
g6
I00
sg7
V\u0935\u093f\u0926\u0947\u0936\u0940
p4379
sg9
(issf_api
FeatureSet
p4380
(dp4381
g12
(dp4382
S'posn'
p4383
S'270'
p4384
sS'name'
p4385
S'\xe0\xa4\xb5\xe0\xa4\xbf\xe0\xa4\xa6\xe0\xa5\x87\xe0\xa4\xb6\xe0\xa5\x80'
p4386
sS'af'
p4387
S'\xe0\xa4\xb5\xe0\xa4\xbf\xe0\xa4\xa6\xe0\xa5\x87\xe0\xa4\xb6\xe0\xa5\x80,adj,any,any,,o,,'
p4388
sS'acrefmod'
p4389
S'm6%0:i37'
p4390
sS'drel'
p4391
S'nmod__adj:NP8'
p4392
sS'chunktype'
p4393
S'child:NP8'
p4394
sS'cref'
p4395
S'i35%0:t6,i36%0:t5'
p4396
ssbsg28
I00
sg29
I00
sg30
Nsg31
Nsg32
I11
sg33
I9
sg34
Nsg35
Nsg36
S'JJ'
p4397
sg38
g4380
sg39
I00
sba(issf_api
Word
p4398
(dp4399
g6
I00
sg7
V\u0928\u093e\u0917\u0930\u093f\u0915\u094b\u0902
p4400
sg9
(issf_api
FeatureSet
p4401
(dp4402
g12
(dp4403
S'crefhead'
p4404
S'\xe0\xa4\xa8\xe0\xa4\xbe\xe0\xa4\x97\xe0\xa4\xb0\xe0\xa4\xbf\xe0\xa4\x95\xe0\xa5\x8b\xe0\xa4\x82:i35,\xe0\xa4\xa8\xe0\xa4\xbe\xe0\xa4\x97\xe0\xa4\xb0\xe0\xa4\xbf\xe0\xa4\x95\xe0\xa5\x8b\xe0\xa4\x82:i36'
p4405
sS'posn'
p4406
S'280'
p4407
sS'name'
p4408
S'\xe0\xa4\xa8\xe0\xa4\xbe\xe0\xa4\x97\xe0\xa4\xb0\xe0\xa4\xbf\xe0\xa4\x95\xe0\xa5\x8b\xe0\xa4\x82'
p4409
sS'af'
p4410
S'\xe0\xa4\xa8\xe0\xa4\xbe\xe0\xa4\x97\xe0\xa4\xb0\xe0\xa4\xbf\xe0\xa4\x95,n,m,pl,3,o,0_\xe0\xa4\x95\xe0\xa4\xbe,0'
p4411
sS'acrefmodhead'
p4412
S'\xe0\xa4\xa8\xe0\xa4\xbe\xe0\xa4\x97\xe0\xa4\xb0\xe0\xa4\xbf\xe0\xa4\x95\xe0\xa5\x8b\xe0\xa4\x82:m6'
p4413
sS'chunkid'
p4414
S'NP8'
p4415
sS'acrefmod'
p4416
S'm6%1:i37'
p4417
sS'creftype'
p4418
S'Coreference-RPartOf:i18,Coreference-RPartOf:i17'
p4419
sS'chunktype'
p4420
S'head:NP8'
p4421
sS'vpos'
p4422
S'vib_3'
p4423
sS'cref'
p4424
S'i35%1:t6,i36%1:t5'
p4425
sS'drel'
p4426
S'r6:NP9'
p4427
ssbsg28
I00
sg29
I00
sg30
Nsg31
Nsg32
I11
sg33
I9
sg34
Nsg35
Nsg36
S'NN'
p4428
sg38
g4401
sg39
I00
sba(issf_api
Word
p4429
(dp4430
g6
I00
sg7
V\u0915\u0947
p4431
sg9
(issf_api
FeatureSet
p4432
(dp4433
g12
(dp4434
S'posn'
p4435
S'290'
p4436
sS'name'
p4437
S'\xe0\xa4\x95\xe0\xa5\x872'
p4438
sS'drel'
p4439
S'lwg__psp:NP8'
p4440
sS'chunktype'
p4441
S'child:NP8'
p4442
sS'af'
p4443
S'\xe0\xa4\x95\xe0\xa4\xbe,psp,m,sg,,o,,'
p4444
ssbsg28
I00
sg29
I00
sg30
Nsg31
Nsg32
I11
sg33
I9
sg34
Nsg35
Nsg36
S'PSP'
p4445
sg38
g4432
sg39
I00
sba(issf_api
Word
p4446
(dp4447
g6
I00
sg7
V\u0905\u092a\u0939\u0930\u0923
p4448
sg9
(issf_api
FeatureSet
p4449
(dp4450
g12
(dp4451
S'crefhead'
p4452
S'\xe0\xa4\x85\xe0\xa4\xaa\xe0\xa4\xb9\xe0\xa4\xb0\xe0\xa4\xa3:i37'
p4453
sS'posn'
p4454
S'300'
p4455
sS'name'
p4456
S'\xe0\xa4\x85\xe0\xa4\xaa\xe0\xa4\xb9\xe0\xa4\xb0\xe0\xa4\xa3'
p4457
sS'af'
p4458
S'\xe0\xa4\x85\xe0\xa4\xaa\xe0\xa4\xb9\xe0\xa4\xb0\xe0\xa4\xa3,n,m,sg,3,o,0_\xe0\xa4\xae\xe0\xa5\x87\xe0\xa4\x82,0'
p4459
sS'chunkid'
p4460
S'NP9'
p4461
sS'crefmod'
p4462
S'm6:i37'
p4463
sS'creftype'
p4464
S'Coreference-RPartOf:i13'
p4465
sS'chunktype'
p4466
S'head:NP9'
p4467
sS'vpos'
p4468
S'vib_2'
p4469
sS'cref'
p4470
S'i37%1:t7'
p4471
sS'drel'
p4472
S'ccof:CCP2'
p4473
ssbsg28
I00
sg29
I00
sg30
Nsg31
Nsg32
I12
sg33
I9
sg34
Nsg35
Nsg36
S'NN'
p4474
sg38
g4449
sg39
I00
sba(issf_api
Word
p4475
(dp4476
g6
I00
sg7
V\u092e\u0947\u0902
p4477
sg9
(issf_api
FeatureSet
p4478
(dp4479
g12
(dp4480
S'posn'
p4481
S'310'
p4482
sS'name'
p4483
S'\xe0\xa4\xae\xe0\xa5\x87\xe0\xa4\x82'
p4484
sS'drel'
p4485
S'lwg__psp:NP9'
p4486
sS'chunktype'
p4487
S'child:NP9'
p4488
sS'af'
p4489
S'\xe0\xa4\xae\xe0\xa5\x87\xe0\xa4\x82,psp,,,,,,'
p4490
ssbsg28
I00
sg29
I00
sg30
Nsg31
Nsg32
I12
sg33
I9
sg34
Nsg35
Nsg36
S'PSP'
p4491
sg38
g4478
sg39
I00
sba(issf_api
Word
p4492
(dp4493
g6
I00
sg7
V\u0909\u0928\u0915\u0940
p4494
sg9
(issf_api
FeatureSet
p4495
(dp4496
g12
(dp4497
S'crefhead'
p4498
S'\xe0\xa4\x89\xe0\xa4\xa8\xe0\xa4\x95\xe0\xa5\x80:i38'
p4499
sS'posn'
p4500
S'320'
p4501
sS'name'
p4502
S'\xe0\xa4\x89\xe0\xa4\xa8\xe0\xa4\x95\xe0\xa5\x80'
p4503
sS'af'
p4504
S'\xe0\xa4\xb5\xe0\xa4\xb9,pn,f,sg,3h,o,\xe0\xa4\x95\xe0\xa4\xbe,kA'
p4505
sS'chunkid'
p4506
S'NP10'
p4507
sS'creftype'
p4508
S'Anaphora-C:i33'
p4509
sS'chunktype'
p4510
S'head:NP10'
p4511
sS'cref'
p4512
S'i38%1:t15'
p4513
sS'drel'
p4514
S'r6-k1:NP11'
p4515
ssbsg28
I00
sg29
I00
sg30
Nsg31
Nsg32
I13
sg33
I9
sg34
Nsg35
Nsg36
S'PRP'
p4516
sg38
g4495
sg39
I00
sba(issf_api
Word
p4517
(dp4518
g6
I00
sg7
V\u0939\u0940
p4519
sg9
(issf_api
FeatureSet
p4520
(dp4521
g12
(dp4522
S'posn'
p4523
S'330'
p4524
sS'name'
p4525
S'\xe0\xa4\xb9\xe0\xa5\x80'
p4526
sS'drel'
p4527
S'lwg__rp:NP10'
p4528
sS'chunktype'
p4529
S'child:NP10'
p4530
sS'af'
p4531
S'\xe0\xa4\xb9\xe0\xa5\x80,avy,,,,,,'
p4532
ssbsg28
I00
sg29
I00
sg30
Nsg31
Nsg32
I13
sg33
I9
sg34
Nsg35
Nsg36
S'RP'
p4533
sg38
g4520
sg39
I00
sba(issf_api
Word
p4534
(dp4535
g6
I00
sg7
V\u092d\u0942\u092e\u093f\u0915\u093e
p4536
sg9
(issf_api
FeatureSet
p4537
(dp4538
g12
(dp4539
S'posn'
p4540
S'340'
p4541
sS'name'
p4542
S'\xe0\xa4\xad\xe0\xa5\x82\xe0\xa4\xae\xe0\xa4\xbf\xe0\xa4\x95\xe0\xa4\xbe'
p4543
sS'af'
p4544
S'\xe0\xa4\xad\xe0\xa5\x82\xe0\xa4\xae\xe0\xa4\xbf\xe0\xa4\x95\xe0\xa4\xbe,n,f,sg,3,d,0,0'
p4545
sS'chunkid'
p4546
S'NP11'
p4547
sS'drel'
p4548
S'pof:VGF2'
p4549
sS'chunktype'
p4550
S'head:NP11'
p4551
ssbsg28
I00
sg29
I00
sg30
Nsg31
Nsg32
I14
sg33
I9
sg34
Nsg35
Nsg36
S'NN'
p4552
sg38
g4537
sg39
I00
sba(issf_api
Word
p4553
(dp4554
g6
I00
sg7
V\u0939\u094b\u0924\u0940
p4555
sg9
(issf_api
FeatureSet
p4556
(dp4557
g12
(dp4558
S'posn'
p4559
S'350'
p4560
sS'name'
p4561
S'\xe0\xa4\xb9\xe0\xa5\x8b\xe0\xa4\xa4\xe0\xa5\x80'
p4562
sS'af'
p4563
S'\xe0\xa4\xb9\xe0\xa5\x8b,v,f,sg,3,,\xe0\xa4\xa4\xe0\xa4\xbe_\xe0\xa4\xb9\xe0\xa5\x88,wA'
p4564
sS'chunkid'
p4565
S'VGF2'
p4566
sS'stype'
p4567
S'declarative'
p4568
sS'drel'
p4569
S'ccof:CCP'
p4570
sS'voicetype'
p4571
S'active'
p4572
sS'vpos'
p4573
S'tam_2'
p4574
sS'chunktype'
p4575
S'head:VGF2'
p4576
ssbsg28
I00
sg29
I00
sg30
Nsg31
Nsg32
I15
sg33
I9
sg34
Nsg35
Nsg36
S'VM'
p4577
sg38
g4556
sg39
I00
sba(issf_api
Word
p4578
(dp4579
g6
I00
sg7
V\u0939\u0948
p4580
sg9
(issf_api
FeatureSet
p4581
(dp4582
g12
(dp4583
S'posn'
p4584
S'360'
p4585
sS'name'
p4586
S'\xe0\xa4\xb9\xe0\xa5\x882'
p4587
sS'drel'
p4588
S'lwg__vaux:VGF2'
p4589
sS'chunktype'
p4590
S'child:VGF2'
p4591
sS'af'
p4592
S'\xe0\xa4\xb9\xe0\xa5\x88,v,any,sg,3,,\xe0\xa4\xb9\xe0\xa5\x88,hE'
p4593
ssbsg28
I00
sg29
I00
sg30
Nsg31
Nsg32
I15
sg33
I9
sg34
Nsg35
Nsg36
S'VAUX'
p4594
sg38
g4581
sg39
I00
sba(issf_api
Word
p4595
(dp4596
g6
I00
sg7
V\u0964
p4597
sg9
(issf_api
FeatureSet
p4598
(dp4599
g12
(dp4600
S'posn'
p4601
S'370'
p4602
sS'name'
p4603
S'\xe0\xa5\xa4'
p4604
sS'af'
p4605
S'\xe0\xa5\xa4,punc,,,,,,'
p4606
sS'chunkid'
p4607
S'BLK'
p4608
sS'drel'
p4609
S'rsym:CCP'
p4610
sS'chunktype'
p4611
S'head:BLK'
p4612
ssbsg28
I00
sg29
I00
sg30
Nsg31
Nsg32
I16
sg33
I9
sg34
Nsg35
Nsg36
S'SYM'
p4613
sg38
g4598
sg39
I00
sbasS'sentenceList'
p4614
(lp4615
(issf_api
Sentence
p4616
(dp4617
S'rootNode'
p4618
(lp4619
sg33
I0
sS'wordNumList'
p4620
(lp4621
I0
aI1
aI2
aI3
aI4
aI5
aI6
aI7
aI8
aI9
aI10
aI11
aI12
aI13
aI14
aI15
aI16
asS'nodeDict'
p4622
(dp4623
S'VGF'
p4624
(issf_api
Node
p4625
(dp4626
S'nodeRelation'
p4627
S'None'
p4628
sS'nodeName'
p4629
g4624
sS'nodeParent'
p4630
g4628
sS'nodeLevel'
p4631
I-1
sg32
I5
sS'childList'
p4632
(lp4633
S'NP5'
p4634
aS'BLK'
p4635
aS'NP'
p4636
aS'NP3'
p4637
aS'NP2'
p4638
asbsg4634
(issf_api
Node
p4639
(dp4640
g4627
S'k1'
p4641
sg4629
g4634
sg4630
S'VGF'
p4642
sg4631
I-1
sg32
I4
sg4632
(lp4643
S'NP4'
p4644
asbsg4635
(issf_api
Node
p4645
(dp4646
g4627
S'rsym'
p4647
sg4629
g4635
sg4630
S'VGF'
p4648
sg4631
I-1
sg32
I6
sg4632
(lp4649
sbsg4636
(issf_api
Node
p4650
(dp4651
g4627
S'k7'
p4652
sg4629
g4636
sg4630
S'VGF'
p4653
sg4631
I-1
sg32
I0
sg4632
(lp4654
sbsg4644
(issf_api
Node
p4655
(dp4656
g4627
S'nmod'
p4657
sg4629
g4644
sg4630
S'NP5'
p4658
sg4631
I-1
sg32
I3
sg4632
(lp4659
sbsg4637
(issf_api
Node
p4660
(dp4661
g4627
S'k7'
p4662
sg4629
g4637
sg4630
S'VGF'
p4663
sg4631
I-1
sg32
I2
sg4632
(lp4664
sbsg4638
(issf_api
Node
p4665
(dp4666
g4627
S'k7t'
p4667
sg4629
g4638
sg4630
S'VGF'
p4668
sg4631
I-1
sg32
I1
sg4632
(lp4669
sbssS'chunkList'
p4670
(lp4671
(issf_api
Chunk
p4672
(dp4673
g4629
g21
sg32
I0
sS'chunkTag'
p4674
g37
sg33
I0
sg4620
(lp4675
I0
aI1
asg38
(issf_api
FeatureSet
p4676
(dp4677
g12
(dp4678
S'name'
p4679
g4636
sS'drel'
p4680
S'k7:VGF'
p4681
ssbsba(issf_api
Chunk
p4682
(dp4683
g4629
g70
sg32
I1
sg4674
g77
sg33
I0
sg4620
(lp4684
I2
aI3
asg38
(issf_api
FeatureSet
p4685
(dp4686
g12
(dp4687
S'name'
p4688
g4638
sS'drel'
p4689
S'k7t:VGF'
p4690
ssbsba(issf_api
Chunk
p4691
(dp4692
g4629
g167
sg32
I2
sg4674
g176
sg33
I0
sg4620
(lp4693
I4
aI5
aI6
aI7
aI8
asg38
(issf_api
FeatureSet
p4694
(dp4695
g12
(dp4696
S'name'
p4697
g4637
sS'drel'
p4698
S'k7:VGF'
p4699
ssbsba(issf_api
Chunk
p4700
(dp4701
g4629
g207
sg32
I3
sg4674
g212
sg33
I0
sg4620
(lp4702
I9
aI10
aI11
asg38
(issf_api
FeatureSet
p4703
(dp4704
g12
(dp4705
S'name'
p4706
g4644
sS'drel'
p4707
S'nmod:NP5'
p4708
ssbsba(issf_api
Chunk
p4709
(dp4710
g4629
g277
sg32
I4
sg4674
g282
sg33
I0
sg4620
(lp4711
I12
aI13
asg38
(issf_api
FeatureSet
p4712
(dp4713
g12
(dp4714
S'name'
p4715
g4634
sS'drel'
p4716
S'k1:VGF'
p4717
ssbsba(issf_api
Chunk
p4718
(dp4719
g4629
g296
sg32
I5
sg4674
g305
sg33
I0
sg4620
(lp4720
I14
aI15
asg38
(issf_api
FeatureSet
p4721
(dp4722
g12
(dp4723
S'name'
p4724
g4624
ssbsba(issf_api
Chunk
p4725
(dp4726
g4629
g336
sg32
I6
sg4674
g341
sg33
I0
sg4620
(lp4727
I16
asg38
(issf_api
FeatureSet
p4728
(dp4729
g12
(dp4730
S'name'
p4731
g4635
sS'drel'
p4732
S'rsym:VGF'
p4733
ssbsbasba(issf_api
Sentence
p4734
(dp4735
g4618
(lp4736
sg33
I1
sg4620
(lp4737
I17
aI18
aI19
aI20
aI21
aI22
aI23
aI24
aI25
aI26
aI27
aI28
aI29
aI30
aI31
asg4622
(dp4738
S'VGF'
p4739
(issf_api
Node
p4740
(dp4741
g4627
g4628
sg4629
g4739
sg4630
g4628
sg4631
I-1
sg32
I4
sg4632
(lp4742
S'BLK'
p4743
aS'NP'
p4744
aS'NP4'
p4745
aS'NP2'
p4746
asbsg4743
(issf_api
Node
p4747
(dp4748
g4627
S'rsym'
p4749
sg4629
g4743
sg4630
S'VGF'
p4750
sg4631
I-1
sg32
I5
sg4632
(lp4751
sbsg4744
(issf_api
Node
p4752
(dp4753
g4627
S'k7p'
p4754
sg4629
g4744
sg4630
S'VGF'
p4755
sg4631
I-1
sg32
I0
sg4632
(lp4756
sbsg4745
(issf_api
Node
p4757
(dp4758
g4627
S'k2'
p4759
sg4629
g4745
sg4630
S'VGF'
p4760
sg4631
I-1
sg32
I3
sg4632
(lp4761
S'NP3'
p4762
asbsg4762
(issf_api
Node
p4763
(dp4764
g4627
S'r6'
p4765
sg4629
g4762
sg4630
S'NP4'
p4766
sg4631
I-1
sg32
I2
sg4632
(lp4767
sbsg4746
(issf_api
Node
p4768
(dp4769
g4627
S'k1'
p4770
sg4629
g4746
sg4630
S'VGF'
p4771
sg4631
I-1
sg32
I1
sg4632
(lp4772
sbssg4670
(lp4773
(issf_api
Chunk
p4774
(dp4775
g4629
g378
sg32
I0
sg4674
g391
sg33
I1
sg4620
(lp4776
I17
aI18
aI19
asg38
(issf_api
FeatureSet
p4777
(dp4778
g12
(dp4779
S'name'
p4780
g4744
sS'drel'
p4781
S'k7p:VGF'
p4782
ssbsba(issf_api
Chunk
p4783
(dp4784
g4629
g422
sg32
I1
sg4674
g429
sg33
I1
sg4620
(lp4785
I20
aI21
asg38
(issf_api
FeatureSet
p4786
(dp4787
g12
(dp4788
S'name'
p4789
g4746
sS'drel'
p4790
S'k1:VGF'
p4791
ssbsba(issf_api
Chunk
p4792
(dp4793
g4629
g481
sg32
I2
sg4674
g490
sg33
I1
sg4620
(lp4794
I22
aI23
aI24
asg38
(issf_api
FeatureSet
p4795
(dp4796
g12
(dp4797
S'name'
p4798
g4762
sS'drel'
p4799
S'r6:NP4'
p4800
ssbsba(issf_api
Chunk
p4801
(dp4802
g4629
g561
sg32
I3
sg4674
g574
sg33
I1
sg4620
(lp4803
I25
aI26
aI27
aI28
asg38
(issf_api
FeatureSet
p4804
(dp4805
g12
(dp4806
S'name'
p4807
g4745
sS'drel'
p4808
S'k2:VGF'
p4809
ssbsba(issf_api
Chunk
p4810
(dp4811
g4629
g605
sg32
I4
sg4674
g614
sg33
I1
sg4620
(lp4812
I29
aI30
asg38
(issf_api
FeatureSet
p4813
(dp4814
g12
(dp4815
S'name'
p4816
g4739
ssbsba(issf_api
Chunk
p4817
(dp4818
g4629
g645
sg32
I5
sg4674
g650
sg33
I1
sg4620
(lp4819
I31
asg38
(issf_api
FeatureSet
p4820
(dp4821
g12
(dp4822
S'name'
p4823
g4743
sS'drel'
p4824
S'rsym:VGF'
p4825
ssbsbasba(issf_api
Sentence
p4826
(dp4827
g4618
(lp4828
sg33
I2
sg4620
(lp4829
I32
aI33
aI34
aI35
aI36
aI37
aI38
aI39
aI40
aI41
asg4622
(dp4830
S'VGF'
p4831
(issf_api
Node
p4832
(dp4833
g4627
g4628
sg4629
g4831
sg4630
g4628
sg4631
I-1
sg32
I4
sg4632
(lp4834
S'BLK'
p4835
aS'NP'
p4836
aS'NP4'
p4837
aS'NP2'
p4838
asbsg4835
(issf_api
Node
p4839
(dp4840
g4627
S'rsym'
p4841
sg4629
g4835
sg4630
S'VGF'
p4842
sg4631
I-1
sg32
I5
sg4632
(lp4843
sbsg4836
(issf_api
Node
p4844
(dp4845
g4627
S'k7t'
p4846
sg4629
g4836
sg4630
S'VGF'
p4847
sg4631
I-1
sg32
I0
sg4632
(lp4848
sbsg4837
(issf_api
Node
p4849
(dp4850
g4627
S'k2p'
p4851
sg4629
g4837
sg4630
S'VGF'
p4852
sg4631
I-1
sg32
I3
sg4632
(lp4853
S'NP3'
p4854
asbsg4854
(issf_api
Node
p4855
(dp4856
g4627
S'r6'
p4857
sg4629
g4854
sg4630
S'NP4'
p4858
sg4631
I-1
sg32
I2
sg4632
(lp4859
sbsg4838
(issf_api
Node
p4860
(dp4861
g4627
S'k1'
p4862
sg4629
g4838
sg4630
S'VGF'
p4863
sg4631
I-1
sg32
I1
sg4632
(lp4864
sbssg4670
(lp4865
(issf_api
Chunk
p4866
(dp4867
g4629
g662
sg32
I0
sg4674
g669
sg33
I2
sg4620
(lp4868
I32
aI33
aI34
asg38
(issf_api
FeatureSet
p4869
(dp4870
g12
(dp4871
S'name'
p4872
g4836
sS'drel'
p4873
S'k7t:VGF'
p4874
ssbsba(issf_api
Chunk
p4875
(dp4876
g4629
g715
sg32
I1
sg4674
g724
sg33
I2
sg4620
(lp4877
I35
asg38
(issf_api
FeatureSet
p4878
(dp4879
g12
(dp4880
S'name'
p4881
g4838
sS'drel'
p4882
S'k1:VGF'
p4883
ssbsba(issf_api
Chunk
p4884
(dp4885
g4629
g740
sg32
I2
sg4674
g749
sg33
I2
sg4620
(lp4886
I36
asg38
(issf_api
FeatureSet
p4887
(dp4888
g12
(dp4889
S'name'
p4890
g4854
sS'drel'
p4891
S'r6:NP4'
p4892
ssbsba(issf_api
Chunk
p4893
(dp4894
g4629
g763
sg32
I3
sg4674
g768
sg33
I2
sg4620
(lp4895
I37
asg38
(issf_api
FeatureSet
p4896
(dp4897
g12
(dp4898
S'name'
p4899
g4837
sS'drel'
p4900
S'k2p:VGF'
p4901
ssbsba(issf_api
Chunk
p4902
(dp4903
g4629
g782
sg32
I4
sg4674
g791
sg33
I2
sg4620
(lp4904
I38
aI39
aI40
asg38
(issf_api
FeatureSet
p4905
(dp4906
g12
(dp4907
S'name'
p4908
g4831
ssbsba(issf_api
Chunk
p4909
(dp4910
g4629
g839
sg32
I5
sg4674
g844
sg33
I2
sg4620
(lp4911
I41
asg38
(issf_api
FeatureSet
p4912
(dp4913
g12
(dp4914
S'name'
p4915
g4835
sS'drel'
p4916
S'rsym:VGF'
p4917
ssbsbasba(issf_api
Sentence
p4918
(dp4919
g4618
(lp4920
sg33
I3
sg4620
(lp4921
I42
aI43
aI44
aI45
aI46
aI47
aI48
aI49
aI50
aI51
aI52
aI53
aI54
aI55
aI56
aI57
aI58
aI59
aI60
aI61
aI62
aI63
aI64
aI65
aI66
aI67
asg4622
(dp4922
S'VGF'
p4923
(issf_api
Node
p4924
(dp4925
g4627
g4628
sg4629
g4923
sg4630
g4628
sg4631
I-1
sg32
I7
sg4632
(lp4926
S'NP5'
p4927
aS'BLK'
p4928
aS'NP7'
p4929
aS'NP6'
p4930
aS'NP3'
p4931
asbsg4927
(issf_api
Node
p4932
(dp4933
g4627
S'k7p'
p4934
sg4629
g4927
sg4630
S'VGF'
p4935
sg4631
I-1
sg32
I4
sg4632
(lp4936
S'NP4'
p4937
asbsg4928
(issf_api
Node
p4938
(dp4939
g4627
S'rsym'
p4940
sg4629
g4928
sg4630
S'VGF'
p4941
sg4631
I-1
sg32
I8
sg4632
(lp4942
sbsS'NP'
p4943
(issf_api
Node
p4944
(dp4945
g4627
S'r6'
p4946
sg4629
g4943
sg4630
S'NP2'
p4947
sg4631
I-1
sg32
I0
sg4632
(lp4948
sbsg4937
(issf_api
Node
p4949
(dp4950
g4627
S'r6'
p4951
sg4629
g4937
sg4630
S'NP5'
p4952
sg4631
I-1
sg32
I3
sg4632
(lp4953
sbsg4929
(issf_api
Node
p4954
(dp4955
g4627
S'k2'
p4956
sg4629
g4929
sg4630
S'VGF'
p4957
sg4631
I-1
sg32
I6
sg4632
(lp4958
sbsg4930
(issf_api
Node
p4959
(dp4960
g4627
S'k7t'
p4961
sg4629
g4930
sg4630
S'VGF'
p4962
sg4631
I-1
sg32
I5
sg4632
(lp4963
sbsg4931
(issf_api
Node
p4964
(dp4965
g4627
S'k4'
p4966
sg4629
g4931
sg4630
S'VGF'
p4967
sg4631
I-1
sg32
I2
sg4632
(lp4968
S'NP2'
p4969
asbsg4969
(issf_api
Node
p4970
(dp4971
g4627
S'nmod'
p4972
sg4629
g4969
sg4630
S'NP3'
p4973
sg4631
I-1
sg32
I1
sg4632
(lp4974
g4943
asbssg4670
(lp4975
(issf_api
Chunk
p4976
(dp4977
g4629
g955
sg32
I0
sg4674
g964
sg33
I3
sg4620
(lp4978
I42
aI43
aI44
aI45
aI46
aI47
aI48
asg38
(issf_api
FeatureSet
p4979
(dp4980
g12
(dp4981
S'name'
p4982
g4943
sS'drel'
p4983
S'r6:NP2'
p4984
ssbsba(issf_api
Chunk
p4985
(dp4986
g4629
g997
sg32
I1
sg4674
g1006
sg33
I3
sg4620
(lp4987
I49
asg38
(issf_api
FeatureSet
p4988
(dp4989
g12
(dp4990
S'name'
p4991
g4969
sS'drel'
p4992
S'nmod:NP3'
p4993
ssbsba(issf_api
Chunk
p4994
(dp4995
g4629
g1079
sg32
I2
sg4674
g1092
sg33
I3
sg4620
(lp4996
I50
aI51
aI52
aI53
aI54
asg38
(issf_api
FeatureSet
p4997
(dp4998
g12
(dp4999
S'name'
p5000
g4931
sS'drel'
p5001
S'k4:VGF'
p5002
ssbsba(issf_api
Chunk
p5003
(dp5004
g4629
g1144
sg32
I3
sg4674
g1155
sg33
I3
sg4620
(lp5005
I55
aI56
aI57
asg38
(issf_api
FeatureSet
p5006
(dp5007
g12
(dp5008
S'name'
p5009
g4937
sS'drel'
p5010
S'r6:NP5'
p5011
ssbsba(issf_api
Chunk
p5012
(dp5013
g4629
g1203
sg32
I4
sg4674
g1210
sg33
I3
sg4620
(lp5014
I58
aI59
aI60
asg38
(issf_api
FeatureSet
p5015
(dp5016
g12
(dp5017
S'name'
p5018
g4927
sS'drel'
p5019
S'k7p:VGF'
p5020
ssbsba(issf_api
Chunk
p5021
(dp5022
g4629
g1241
sg32
I5
sg4674
g1248
sg33
I3
sg4620
(lp5023
I61
aI62
asg38
(issf_api
FeatureSet
p5024
(dp5025
g12
(dp5026
S'name'
p5027
g4930
sS'drel'
p5028
S'k7t:VGF'
p5029
ssbsba(issf_api
Chunk
p5030
(dp5031
g4629
g1279
sg32
I6
sg4674
g1284
sg33
I3
sg4620
(lp5032
I63
asg38
(issf_api
FeatureSet
p5033
(dp5034
g12
(dp5035
S'name'
p5036
g4929
sS'drel'
p5037
S'k2:VGF'
p5038
ssbsba(issf_api
Chunk
p5039
(dp5040
g4629
g1298
sg32
I7
sg4674
g1307
sg33
I3
sg4620
(lp5041
I64
aI65
aI66
asg38
(issf_api
FeatureSet
p5042
(dp5043
g12
(dp5044
S'name'
p5045
g4923
ssbsba(issf_api
Chunk
p5046
(dp5047
g4629
g1355
sg32
I8
sg4674
g1360
sg33
I3
sg4620
(lp5048
I67
asg38
(issf_api
FeatureSet
p5049
(dp5050
g12
(dp5051
S'name'
p5052
g4928
sS'drel'
p5053
S'rsym:VGF'
p5054
ssbsbasba(issf_api
Sentence
p5055
(dp5056
g4618
(lp5057
sg33
I4
sg4620
(lp5058
I68
aI69
aI70
aI71
aI72
aI73
aI74
aI75
aI76
aI77
aI78
aI79
aI80
asg4622
(dp5059
S'VGF'
p5060
(issf_api
Node
p5061
(dp5062
g4627
g4628
sg4629
g5060
sg4630
g4628
sg4631
I-1
sg32
I4
sg4632
(lp5063
S'BLK'
p5064
aS'NP'
p5065
aS'NP4'
p5066
aS'NP3'
p5067
aS'NP2'
p5068
asbsg5064
(issf_api
Node
p5069
(dp5070
g4627
S'rsym'
p5071
sg4629
g5064
sg4630
S'VGF'
p5072
sg4631
I-1
sg32
I5
sg4632
(lp5073
sbsg5065
(issf_api
Node
p5074
(dp5075
g4627
S'k7a'
p5076
sg4629
g5065
sg4630
S'VGF'
p5077
sg4631
I-1
sg32
I0
sg4632
(lp5078
sbsg5066
(issf_api
Node
p5079
(dp5080
g4627
S'k1'
p5081
sg4629
g5066
sg4630
S'VGF'
p5082
sg4631
I-1
sg32
I3
sg4632
(lp5083
sbsg5067
(issf_api
Node
p5084
(dp5085
g4627
S'k7t'
p5086
sg4629
g5067
sg4630
S'VGF'
p5087
sg4631
I-1
sg32
I2
sg4632
(lp5088
sbsg5068
(issf_api
Node
p5089
(dp5090
g4627
S'k4'
p5091
sg4629
g5068
sg4630
S'VGF'
p5092
sg4631
I-1
sg32
I1
sg4632
(lp5093
sbssg4670
(lp5094
(issf_api
Chunk
p5095
(dp5096
g4629
g1374
sg32
I0
sg4674
g1381
sg33
I4
sg4620
(lp5097
I68
aI69
aI70
aI71
asg38
(issf_api
FeatureSet
p5098
(dp5099
g12
(dp5100
S'name'
p5101
g5065
sS'drel'
p5102
S'k7a:VGF'
p5103
ssbsba(issf_api
Chunk
p5104
(dp5105
g4629
g1448
sg32
I1
sg4674
g1457
sg33
I4
sg4620
(lp5106
I72
asg38
(issf_api
FeatureSet
p5107
(dp5108
g12
(dp5109
S'name'
p5110
g5068
sS'drel'
p5111
S'k4:VGF'
p5112
ssbsba(issf_api
Chunk
p5113
(dp5114
g4629
g1488
sg32
I2
sg4674
g1495
sg33
I4
sg4620
(lp5115
I73
aI74
aI75
asg38
(issf_api
FeatureSet
p5116
(dp5117
g12
(dp5118
S'name'
p5119
g5067
sS'drel'
p5120
S'k7t:VGF'
p5121
ssbsba(issf_api
Chunk
p5122
(dp5123
g4629
g1526
sg32
I3
sg4674
g1531
sg33
I4
sg4620
(lp5124
I76
asg38
(issf_api
FeatureSet
p5125
(dp5126
g12
(dp5127
S'name'
p5128
g5066
sS'drel'
p5129
S'k1:VGF'
p5130
ssbsba(issf_api
Chunk
p5131
(dp5132
g4629
g1545
sg32
I4
sg4674
g1554
sg33
I4
sg4620
(lp5133
I77
aI78
aI79
asg38
(issf_api
FeatureSet
p5134
(dp5135
g12
(dp5136
S'name'
p5137
g5060
ssbsba(issf_api
Chunk
p5138
(dp5139
g4629
g1602
sg32
I5
sg4674
g1607
sg33
I4
sg4620
(lp5140
I80
asg38
(issf_api
FeatureSet
p5141
(dp5142
g12
(dp5143
S'name'
p5144
g5064
sS'drel'
p5145
S'rsym:VGF'
p5146
ssbsbasba(issf_api
Sentence
p5147
(dp5148
g4618
(lp5149
sg33
I5
sg4620
(lp5150
I81
aI82
aI83
aI84
aI85
aI86
aI87
aI88
aI89
aI90
aI91
aI92
aI93
aI94
aI95
aI96
aI97
aI98
aI99
aI100
aI101
aI102
aI103
aI104
aI105
asg4622
(dp5151
S'VGF'
p5152
(issf_api
Node
p5153
(dp5154
g4627
g4628
sg4629
g5152
sg4630
g4628
sg4631
I-1
sg32
I9
sg4632
(lp5155
S'NP5'
p5156
aS'BLK'
p5157
aS'NP'
p5158
aS'NP4'
p5159
aS'NP6'
p5160
aS'NP2'
p5161
asbsS'CCP'
p5162
(issf_api
Node
p5163
(dp5164
g4627
S'nmod'
p5165
sg4629
g5162
sg4630
S'NP3'
p5166
sg4631
I-1
sg32
I3
sg4632
(lp5167
S'JJP'
p5168
aS'JJP2'
p5169
asbsg5168
(issf_api
Node
p5170
(dp5171
g4627
S'ccof'
p5172
sg4629
g5168
sg4630
S'CCP'
p5173
sg4631
I-1
sg32
I2
sg4632
(lp5174
sbsg5156
(issf_api
Node
p5175
(dp5176
g4627
S'k7t'
p5177
sg4629
g5156
sg4630
S'VGF'
p5178
sg4631
I-1
sg32
I7
sg4632
(lp5179
sbsg5169
(issf_api
Node
p5180
(dp5181
g4627
S'ccof'
p5182
sg4629
g5169
sg4630
S'CCP'
p5183
sg4631
I-1
sg32
I4
sg4632
(lp5184
sbsg5157
(issf_api
Node
p5185
(dp5186
g4627
S'rsym'
p5187
sg4629
g5157
sg4630
S'VGF'
p5188
sg4631
I-1
sg32
I10
sg4632
(lp5189
sbsg5158
(issf_api
Node
p5190
(dp5191
g4627
S'k7t'
p5192
sg4629
g5158
sg4630
S'VGF'
p5193
sg4631
I-1
sg32
I0
sg4632
(lp5194
sbsg5159
(issf_api
Node
p5195
(dp5196
g4627
S'k7'
p5197
sg4629
g5159
sg4630
S'VGF'
p5198
sg4631
I-1
sg32
I6
sg4632
(lp5199
S'NP3'
p5200
asbsg5160
(issf_api
Node
p5201
(dp5202
g4627
S'k1'
p5203
sg4629
g5160
sg4630
S'VGF'
p5204
sg4631
I-1
sg32
I8
sg4632
(lp5205
sbsg5200
(issf_api
Node
p5206
(dp5207
g4627
S'r6'
p5208
sg4629
g5200
sg4630
S'NP4'
p5209
sg4631
I-1
sg32
I5
sg4632
(lp5210
g5162
asbsg5161
(issf_api
Node
p5211
(dp5212
g4627
S'k5'
p5213
sg4629
g5161
sg4630
S'VGF'
p5214
sg4631
I-1
sg32
I1
sg4632
(lp5215
sbssg4670
(lp5216
(issf_api
Chunk
p5217
(dp5218
g4629
g1621
sg32
I0
sg4674
g1628
sg33
I5
sg4620
(lp5219
I81
aI82
asg38
(issf_api
FeatureSet
p5220
(dp5221
g12
(dp5222
S'name'
p5223
g5158
sS'drel'
p5224
S'k7t:VGF'
p5225
ssbsba(issf_api
Chunk
p5226
(dp5227
g4629
g1661
sg32
I1
sg4674
g1672
sg33
I5
sg4620
(lp5228
I83
aI84
asg38
(issf_api
FeatureSet
p5229
(dp5230
g12
(dp5231
S'name'
p5232
g5161
sS'drel'
p5233
S'k5:VGF'
p5234
ssbsba(issf_api
Chunk
p5235
(dp5236
g4629
g1726
sg32
I2
sg4674
g1737
sg33
I5
sg4620
(lp5237
I85
aI86
asg38
(issf_api
FeatureSet
p5238
(dp5239
g12
(dp5240
S'name'
p5241
g5168
sS'drel'
p5242
S'ccof:CCP'
p5243
ssbsba(issf_api
Chunk
p5244
(dp5245
g4629
g1753
sg32
I3
sg4674
g1760
sg33
I5
sg4620
(lp5246
I87
asg38
(issf_api
FeatureSet
p5247
(dp5248
g12
(dp5249
S'name'
p5250
g5162
sS'drel'
p5251
S'nmod:NP3'
p5252
ssbsba(issf_api
Chunk
p5253
(dp5254
g4629
g1816
sg32
I4
sg4674
g1825
sg33
I5
sg4620
(lp5255
I88
aI89
aI90
asg38
(issf_api
FeatureSet
p5256
(dp5257
g12
(dp5258
S'name'
p5259
g5169
sS'drel'
p5260
S'ccof:CCP'
p5261
ssbsba(issf_api
Chunk
p5262
(dp5263
g4629
g1841
sg32
I5
sg4674
g1854
sg33
I5
sg4620
(lp5264
I91
aI92
asg38
(issf_api
FeatureSet
p5265
(dp5266
g12
(dp5267
S'name'
p5268
g5200
sS'drel'
p5269
S'r6:NP4'
p5270
ssbsba(issf_api
Chunk
p5271
(dp5272
g4629
g1887
sg32
I6
sg4674
g1900
sg33
I5
sg4620
(lp5273
I93
aI94
aI95
aI96
asg38
(issf_api
FeatureSet
p5274
(dp5275
g12
(dp5276
S'name'
p5277
g5159
sS'drel'
p5278
S'k7:VGF'
p5279
ssbsba(issf_api
Chunk
p5280
(dp5281
g4629
g1967
sg32
I7
sg4674
g1980
sg33
I5
sg4620
(lp5282
I97
aI98
asg38
(issf_api
FeatureSet
p5283
(dp5284
g12
(dp5285
S'name'
p5286
g5156
sS'drel'
p5287
S'k7t:VGF'
p5288
ssbsba(issf_api
Chunk
p5289
(dp5290
g4629
g2036
sg32
I8
sg4674
g2041
sg33
I5
sg4620
(lp5291
I99
aI100
asg38
(issf_api
FeatureSet
p5292
(dp5293
g12
(dp5294
S'name'
p5295
g5160
sS'drel'
p5296
S'k1:VGF'
p5297
ssbsba(issf_api
Chunk
p5298
(dp5299
g4629
g2072
sg32
I9
sg4674
g2081
sg33
I5
sg4620
(lp5300
I101
aI102
aI103
aI104
asg38
(issf_api
FeatureSet
p5301
(dp5302
g12
(dp5303
S'name'
p5304
g5152
ssbsba(issf_api
Chunk
p5305
(dp5306
g4629
g2129
sg32
I10
sg4674
g2134
sg33
I5
sg4620
(lp5307
I105
asg38
(issf_api
FeatureSet
p5308
(dp5309
g12
(dp5310
S'name'
p5311
g5157
sS'drel'
p5312
S'rsym:VGF'
p5313
ssbsbasba(issf_api
Sentence
p5314
(dp5315
g4618
(lp5316
sg33
I6
sg4620
(lp5317
I106
aI107
aI108
aI109
aI110
aI111
aI112
aI113
aI114
aI115
aI116
aI117
aI118
aI119
aI120
asg4622
(dp5318
S'VGNF'
p5319
(issf_api
Node
p5320
(dp5321
g4627
S'nmod__k2inv'
p5322
sg4629
g5319
sg4630
S'NP3'
p5323
sg4631
I-1
sg32
I3
sg4632
(lp5324
S'NP2'
p5325
asbsS'VGF'
p5326
(issf_api
Node
p5327
(dp5328
g4627
S'ccof'
p5329
sg4629
g5326
sg4630
S'CCP'
p5330
sg4631
I-1
sg32
I6
sg4632
(lp5331
S'JJP'
p5332
aS'NP'
p5333
aS'NP3'
p5334
asbsS'CCP'
p5335
(issf_api
Node
p5336
(dp5337
g4627
g4628
sg4629
g5335
sg4630
g4628
sg4631
I-1
sg32
I0
sg4632
(lp5338
g5326
aS'BLK'
p5339
asbsg5332
(issf_api
Node
p5340
(dp5341
g4627
S'pof'
p5342
sg4629
g5332
sg4630
S'VGF'
p5343
sg4631
I-1
sg32
I5
sg4632
(lp5344
sbsg5339
(issf_api
Node
p5345
(dp5346
g4627
S'rsym'
p5347
sg4629
g5339
sg4630
S'CCP'
p5348
sg4631
I-1
sg32
I7
sg4632
(lp5349
sbsg5333
(issf_api
Node
p5350
(dp5351
g4627
S'k1'
p5352
sg4629
g5333
sg4630
S'VGF'
p5353
sg4631
I-1
sg32
I1
sg4632
(lp5354
sbsg5334
(issf_api
Node
p5355
(dp5356
g4627
S'k2'
p5357
sg4629
g5334
sg4630
S'VGF'
p5358
sg4631
I-1
sg32
I4
sg4632
(lp5359
g5319
asbsg5325
(issf_api
Node
p5360
(dp5361
g4627
S'ras-k1'
p5362
sg4629
g5325
sg4630
S'VGNF'
p5363
sg4631
I-1
sg32
I2
sg4632
(lp5364
sbssg4670
(lp5365
(issf_api
Chunk
p5366
(dp5367
g4629
g2144
sg32
I0
sg4674
g2151
sg33
I6
sg4620
(lp5368
I106
asg38
(issf_api
FeatureSet
p5369
(dp5370
g12
(dp5371
S'name'
p5372
g5335
ssbsba(issf_api
Chunk
p5373
(dp5374
g4629
g2165
sg32
I1
sg4674
g2172
sg33
I6
sg4620
(lp5375
I107
aI108
asg38
(issf_api
FeatureSet
p5376
(dp5377
g12
(dp5378
S'name'
p5379
g5333
sS'drel'
p5380
S'k1:VGF'
p5381
ssbsba(issf_api
Chunk
p5382
(dp5383
g4629
g2205
sg32
I2
sg4674
g2216
sg33
I6
sg4620
(lp5384
I109
aI110
asg38
(issf_api
FeatureSet
p5385
(dp5386
g12
(dp5387
S'name'
p5388
g5325
sS'drel'
p5389
S'ras-k1:VGNF'
p5390
ssbsba(issf_api
Chunk
p5391
(dp5392
g4629
g2247
sg32
I3
sg4674
g2252
sg33
I6
sg4620
(lp5393
I111
asg38
(issf_api
FeatureSet
p5394
(dp5395
g12
(dp5396
S'name'
p5397
g5319
sS'drel'
p5398
S'nmod__k2inv:NP3'
p5399
ssbsba(issf_api
Chunk
p5400
(dp5401
g4629
g2300
sg32
I4
sg4674
g2307
sg33
I6
sg4620
(lp5402
I112
aI113
aI114
aI115
asg38
(issf_api
FeatureSet
p5403
(dp5404
g12
(dp5405
S'name'
p5406
g5334
sS'drel'
p5407
S'k2:VGF'
p5408
ssbsba(issf_api
Chunk
p5409
(dp5410
g4629
g2338
sg32
I5
sg4674
g2343
sg33
I6
sg4620
(lp5411
I116
asg38
(issf_api
FeatureSet
p5412
(dp5413
g12
(dp5414
S'name'
p5415
g5332
sS'drel'
p5416
S'pof:VGF'
p5417
ssbsba(issf_api
Chunk
p5418
(dp5419
g4629
g2357
sg32
I6
sg4674
g2368
sg33
I6
sg4620
(lp5420
I117
aI118
aI119
asg38
(issf_api
FeatureSet
p5421
(dp5422
g12
(dp5423
S'name'
p5424
g5326
sS'drel'
p5425
S'ccof:CCP'
p5426
ssbsba(issf_api
Chunk
p5427
(dp5428
g4629
g2416
sg32
I7
sg4674
g2421
sg33
I6
sg4620
(lp5429
I120
asg38
(issf_api
FeatureSet
p5430
(dp5431
g12
(dp5432
S'name'
p5433
g5339
sS'drel'
p5434
S'rsym:CCP'
p5435
ssbsbasba(issf_api
Sentence
p5436
(dp5437
g4618
(lp5438
sg33
I7
sg4620
(lp5439
I121
aI122
aI123
aI124
aI125
aI126
aI127
aI128
aI129
aI130
aI131
aI132
aI133
aI134
aI135
aI136
aI137
aI138
aI139
aI140
aI141
aI142
aI143
aI144
aI145
aI146
aI147
aI148
aI149
aI150
aI151
aI152
aI153
aI154
aI155
aI156
aI157
aI158
aI159
asg4622
(dp5440
S'VGNF'
p5441
(issf_api
Node
p5442
(dp5443
g4627
S'vmod'
p5444
sg4629
g5441
sg4630
S'VGF'
p5445
sg4631
I-1
sg32
I5
sg4632
(lp5446
S'NP5'
p5447
aS'NP3'
p5448
asbsS'NP11'
p5449
(issf_api
Node
p5450
(dp5451
g4627
S'k4'
p5452
sg4629
g5449
sg4630
S'VGF3'
p5453
sg4631
I-1
sg32
I17
sg4632
(lp5454
S'VGNN'
p5455
asbsS'NP10'
p5456
(issf_api
Node
p5457
(dp5458
g4627
S'k1'
p5459
sg4629
g5456
sg4630
S'VGF2'
p5460
sg4631
I-1
sg32
I12
sg4632
(lp5461
S'CCP2'
p5462
asbsS'VGF'
p5463
(issf_api
Node
p5464
(dp5465
g4627
g4628
sg4629
g5463
sg4630
g4628
sg4631
I-1
sg32
I10
sg4632
(lp5466
g5441
aS'CCP'
p5467
aS'NP9'
p5468
aS'BLK'
p5469
aS'NP6'
p5470
asbsS'NP12'
p5471
(issf_api
Node
p5472
(dp5473
g4627
S'k2'
p5474
sg4629
g5471
sg4630
S'VGF3'
p5475
sg4631
I-1
sg32
I18
sg4632
(lp5476
sbsS'VGF3'
p5477
(issf_api
Node
p5478
(dp5479
g4627
S'ccof'
p5480
sg4629
g5477
sg4630
S'CCP2'
p5481
sg4631
I-1
sg32
I19
sg4632
(lp5482
g5449
ag5471
asbsg5467
(issf_api
Node
p5483
(dp5484
g4627
S'k2'
p5485
sg4629
g5467
sg4630
S'VGF'
p5486
sg4631
I-1
sg32
I11
sg4632
(lp5487
S'VGF2'
p5488
asbsS'JJP'
p5489
(issf_api
Node
p5490
(dp5491
g4627
S'k1s'
p5492
sg4629
g5489
sg4630
S'VGF2'
p5493
sg4631
I-1
sg32
I13
sg4632
(lp5494
sbsg5488
(issf_api
Node
p5495
(dp5496
g4627
S'ccof'
p5497
sg4629
g5488
sg4630
S'CCP'
p5498
sg4631
I-1
sg32
I14
sg4632
(lp5499
g5456
ag5489
asbsg5447
(issf_api
Node
p5500
(dp5501
g4627
S'pof'
p5502
sg4629
g5447
sg4630
S'VGNF'
p5503
sg4631
I-1
sg32
I4
sg4632
(lp5504
S'NP4'
p5505
asbsg5468
(issf_api
Node
p5506
(dp5507
g4627
S'k1'
p5508
sg4629
g5468
sg4630
S'VGF'
p5509
sg4631
I-1
sg32
I9
sg4632
(lp5510
S'NP8'
p5511
asbsg5511
(issf_api
Node
p5512
(dp5513
g4627
S'nmod'
p5514
sg4629
g5511
sg4630
S'NP9'
p5515
sg4631
I-1
sg32
I8
sg4632
(lp5516
S'NP7'
p5517
asbsg5469
(issf_api
Node
p5518
(dp5519
g4627
S'rsym'
p5520
sg4629
g5469
sg4630
S'VGF'
p5521
sg4631
I-1
sg32
I20
sg4632
(lp5522
sbsg5455
(issf_api
Node
p5523
(dp5524
g4627
S'nmod'
p5525
sg4629
g5455
sg4630
S'NP11'
p5526
sg4631
I-1
sg32
I16
sg4632
(lp5527
sbsS'NP'
p5528
(issf_api
Node
p5529
(dp5530
g4627
S'r6'
p5531
sg4629
g5528
sg4630
S'NP2'
p5532
sg4631
I-1
sg32
I0
sg4632
(lp5533
sbsg5505
(issf_api
Node
p5534
(dp5535
g4627
S'r6-k2'
p5536
sg4629
g5505
sg4630
S'NP5'
p5537
sg4631
I-1
sg32
I3
sg4632
(lp5538
sbsg5517
(issf_api
Node
p5539
(dp5540
g4627
S'r6'
p5541
sg4629
g5517
sg4630
S'NP8'
p5542
sg4631
I-1
sg32
I7
sg4632
(lp5543
sbsg5470
(issf_api
Node
p5544
(dp5545
g4627
S'k7p'
p5546
sg4629
g5470
sg4630
S'VGF'
p5547
sg4631
I-1
sg32
I6
sg4632
(lp5548
sbsg5462
(issf_api
Node
p5549
(dp5550
g4627
S'rs'
p5551
sg4629
g5462
sg4630
S'NP10'
p5552
sg4631
I-1
sg32
I15
sg4632
(lp5553
g5477
asbsg5448
(issf_api
Node
p5554
(dp5555
g4627
S'k7p'
p5556
sg4629
g5448
sg4630
S'VGNF'
p5557
sg4631
I-1
sg32
I2
sg4632
(lp5558
S'NP2'
p5559
asbsg5559
(issf_api
Node
p5560
(dp5561
g4627
S'nmod'
p5562
sg4629
g5559
sg4630
S'NP3'
p5563
sg4631
I-1
sg32
I1
sg4632
(lp5564
g5528
asbssg4670
(lp5565
(issf_api
Chunk
p5566
(dp5567
g4629
g2456
sg32
I0
sg4674
g2465
sg33
I7
sg4620
(lp5568
I121
aI122
aI123
asg38
(issf_api
FeatureSet
p5569
(dp5570
g12
(dp5571
S'name'
p5572
g5528
sS'drel'
p5573
S'r6:NP2'
p5574
ssbsba(issf_api
Chunk
p5575
(dp5576
g4629
g2498
sg32
I1
sg4674
g2507
sg33
I7
sg4620
(lp5577
I124
asg38
(issf_api
FeatureSet
p5578
(dp5579
g12
(dp5580
S'name'
p5581
g5559
sS'drel'
p5582
S'nmod:NP3'
p5583
ssbsba(issf_api
Chunk
p5584
(dp5585
g4629
g2523
sg32
I2
sg4674
g2536
sg33
I7
sg4620
(lp5586
I125
aI126
asg38
(issf_api
FeatureSet
p5587
(dp5588
g12
(dp5589
S'name'
p5590
g5448
sS'drel'
p5591
S'k7p:VGNF'
p5592
ssbsba(issf_api
Chunk
p5593
(dp5594
g4629
g2607
sg32
I3
sg4674
g2618
sg33
I7
sg4620
(lp5595
I127
aI128
aI129
aI130
asg38
(issf_api
FeatureSet
p5596
(dp5597
g12
(dp5598
S'name'
p5599
g5505
sS'drel'
p5600
S'r6-k2:NP5'
p5601
ssbsba(issf_api
Chunk
p5602
(dp5603
g4629
g2649
sg32
I4
sg4674
g2654
sg33
I7
sg4620
(lp5604
I131
asg38
(issf_api
FeatureSet
p5605
(dp5606
g12
(dp5607
S'name'
p5608
g5447
sS'drel'
p5609
S'pof:VGNF'
p5610
ssbsba(issf_api
Chunk
p5611
(dp5612
g4629
g2668
sg32
I5
sg4674
g2675
sg33
I7
sg4620
(lp5613
I132
aI133
asg38
(issf_api
FeatureSet
p5614
(dp5615
g12
(dp5616
S'name'
p5617
g5441
sS'drel'
p5618
S'vmod:VGF'
p5619
ssbsba(issf_api
Chunk
p5620
(dp5621
g4629
g2729
sg32
I6
sg4674
g2736
sg33
I7
sg4620
(lp5622
I134
aI135
aI136
asg38
(issf_api
FeatureSet
p5623
(dp5624
g12
(dp5625
S'name'
p5626
g5470
sS'drel'
p5627
S'k7p:VGF'
p5628
ssbsba(issf_api
Chunk
p5629
(dp5630
g4629
g2788
sg32
I7
sg4674
g2797
sg33
I7
sg4620
(lp5631
I137
aI138
aI139
asg38
(issf_api
FeatureSet
p5632
(dp5633
g12
(dp5634
S'name'
p5635
g5517
sS'drel'
p5636
S'r6:NP8'
p5637
ssbsba(issf_api
Chunk
p5638
(dp5639
g4629
g2830
sg32
I8
sg4674
g2839
sg33
I7
sg4620
(lp5640
I140
asg38
(issf_api
FeatureSet
p5641
(dp5642
g12
(dp5643
S'name'
p5644
g5511
sS'drel'
p5645
S'nmod:NP9'
p5646
ssbsba(issf_api
Chunk
p5647
(dp5648
g4629
g2874
sg32
I9
sg4674
g2887
sg33
I7
sg4620
(lp5649
I141
aI142
aI143
asg38
(issf_api
FeatureSet
p5650
(dp5651
g12
(dp5652
S'name'
p5653
g5468
sS'drel'
p5654
S'k1:VGF'
p5655
ssbsba(issf_api
Chunk
p5656
(dp5657
g4629
g2918
sg32
I10
sg4674
g2925
sg33
I7
sg4620
(lp5658
I144
asg38
(issf_api
FeatureSet
p5659
(dp5660
g12
(dp5661
S'name'
p5662
g5463
ssbsba(issf_api
Chunk
p5663
(dp5664
g4629
g2939
sg32
I11
sg4674
g2944
sg33
I7
sg4620
(lp5665
I145
asg38
(issf_api
FeatureSet
p5666
(dp5667
g12
(dp5668
S'name'
p5669
g5467
sS'drel'
p5670
S'k2:VGF'
p5671
ssbsba(issf_api
Chunk
p5672
(dp5673
g4629
g2960
sg32
I12
sg4674
g2969
sg33
I7
sg4620
(lp5674
I146
asg38
(issf_api
FeatureSet
p5675
(dp5676
g12
(dp5677
S'name'
p5678
g5456
sS'drel'
p5679
S'k1:VGF2'
p5680
ssbsba(issf_api
Chunk
p5681
(dp5682
g4629
g2983
sg32
I13
sg4674
g2988
sg33
I7
sg4620
(lp5683
I147
asg38
(issf_api
FeatureSet
p5684
(dp5685
g12
(dp5686
S'name'
p5687
g5489
sS'drel'
p5688
S'k1s:VGF2'
p5689
ssbsba(issf_api
Chunk
p5690
(dp5691
g4629
g3019
sg32
I14
sg4674
g3028
sg33
I7
sg4620
(lp5692
I148
aI149
asg38
(issf_api
FeatureSet
p5693
(dp5694
g12
(dp5695
S'name'
p5696
g5488
sS'drel'
p5697
S'ccof:CCP'
p5698
ssbsba(issf_api
Chunk
p5699
(dp5700
g4629
g3042
sg32
I15
sg4674
g3047
sg33
I7
sg4620
(lp5701
I150
asg38
(issf_api
FeatureSet
p5702
(dp5703
g12
(dp5704
S'name'
p5705
g5462
sS'drel'
p5706
S'rs:NP10'
p5707
ssbsba(issf_api
Chunk
p5708
(dp5709
g4629
g3061
sg32
I16
sg4674
g3070
sg33
I7
sg4620
(lp5710
I151
aI152
asg38
(issf_api
FeatureSet
p5711
(dp5712
g12
(dp5713
S'name'
p5714
g5455
sS'drel'
p5715
S'nmod:NP11'
p5716
ssbsba(issf_api
Chunk
p5717
(dp5718
g4629
g3105
sg32
I17
sg4674
g3116
sg33
I7
sg4620
(lp5719
I153
aI154
asg38
(issf_api
FeatureSet
p5720
(dp5721
g12
(dp5722
S'name'
p5723
g5449
sS'drel'
p5724
S'k4:VGF3'
p5725
ssbsba(issf_api
Chunk
p5726
(dp5727
g4629
g3168
sg32
I18
sg4674
g3175
sg33
I7
sg4620
(lp5728
I155
aI156
asg38
(issf_api
FeatureSet
p5729
(dp5730
g12
(dp5731
S'name'
p5732
g5471
sS'drel'
p5733
S'k2:VGF3'
p5734
ssbsba(issf_api
Chunk
p5735
(dp5736
g4629
g3191
sg32
I19
sg4674
g3208
sg33
I7
sg4620
(lp5737
I157
aI158
asg38
(issf_api
FeatureSet
p5738
(dp5739
g12
(dp5740
S'name'
p5741
g5477
sS'drel'
p5742
S'ccof:CCP2'
p5743
ssbsba(issf_api
Chunk
p5744
(dp5745
g4629
g3241
sg32
I20
sg4674
g3246
sg33
I7
sg4620
(lp5746
I159
asg38
(issf_api
FeatureSet
p5747
(dp5748
g12
(dp5749
S'name'
p5750
g5469
sS'drel'
p5751
S'rsym:VGF'
p5752
ssbsbasba(issf_api
Sentence
p5753
(dp5754
g4618
(lp5755
sg33
I8
sg4620
(lp5756
I160
aI161
aI162
aI163
aI164
aI165
aI166
aI167
aI168
aI169
aI170
aI171
aI172
aI173
aI174
aI175
aI176
aI177
aI178
aI179
aI180
aI181
aI182
aI183
aI184
aI185
aI186
aI187
aI188
aI189
aI190
aI191
asg4622
(dp5757
S'VGF2'
p5758
(issf_api
Node
p5759
(dp5760
g4627
S'ccof'
p5761
sg4629
g5758
sg4630
S'CCP2'
p5762
sg4631
I-1
sg32
I8
sg4632
(lp5763
S'NP4'
p5764
aS'NP2'
p5765
asbsS'VGNN'
p5766
(issf_api
Node
p5767
(dp5768
g4627
S'r6'
p5769
sg4629
g5766
sg4630
S'NP4'
p5770
sg4631
I-1
sg32
I6
sg4632
(lp5771
S'JJP'
p5772
aS'NP3'
p5773
asbsS'VGF'
p5774
(issf_api
Node
p5775
(dp5776
g4627
g4628
sg4629
g5774
sg4630
g4628
sg4631
I-1
sg32
I1
sg4632
(lp5777
S'CCP'
p5778
aS'BLK'
p5779
aS'NP'
p5780
asbsS'VGF3'
p5781
(issf_api
Node
p5782
(dp5783
g4627
S'ccof'
p5784
sg4629
g5781
sg4630
S'CCP2'
p5785
sg4631
I-1
sg32
I17
sg4632
(lp5786
S'NP5'
p5787
aS'NP10'
p5788
aS'NP6'
p5789
aS'CCP3'
p5790
asbsg5778
(issf_api
Node
p5791
(dp5792
g4627
S'k2'
p5793
sg4629
g5778
sg4630
S'VGF'
p5794
sg4631
I-1
sg32
I2
sg4632
(lp5795
S'CCP2'
p5796
asbsg5772
(issf_api
Node
p5797
(dp5798
g4627
S'pof'
p5799
sg4629
g5772
sg4630
S'VGNN'
p5800
sg4631
I-1
sg32
I5
sg4632
(lp5801
sbsg5787
(issf_api
Node
p5802
(dp5803
g4627
S'rd'
p5804
sg4629
g5787
sg4630
S'VGF3'
p5805
sg4631
I-1
sg32
I10
sg4632
(lp5806
sbsS'NP9'
p5807
(issf_api
Node
p5808
(dp5809
g4627
S'ccof'
p5810
sg4629
g5807
sg4630
S'CCP3'
p5811
sg4631
I-1
sg32
I15
sg4632
(lp5812
sbsS'NP8'
p5813
(issf_api
Node
p5814
(dp5815
g4627
S'ccof'
p5816
sg4629
g5813
sg4630
S'CCP3'
p5817
sg4631
I-1
sg32
I13
sg4632
(lp5818
sbsg5779
(issf_api
Node
p5819
(dp5820
g4627
S'rsym'
p5821
sg4629
g5779
sg4630
S'VGF'
p5822
sg4631
I-1
sg32
I18
sg4632
(lp5823
sbsg5788
(issf_api
Node
p5824
(dp5825
g4627
S'pof'
p5826
sg4629
g5788
sg4630
S'VGF3'
p5827
sg4631
I-1
sg32
I16
sg4632
(lp5828
sbsg5780
(issf_api
Node
p5829
(dp5830
g4627
S'k1'
p5831
sg4629
g5780
sg4630
S'VGF'
p5832
sg4631
I-1
sg32
I0
sg4632
(lp5833
sbsg5764
(issf_api
Node
p5834
(dp5835
g4627
S'k1'
p5836
sg4629
g5764
sg4630
S'VGF2'
p5837
sg4631
I-1
sg32
I7
sg4632
(lp5838
g5766
asbsS'NP7'
p5839
(issf_api
Node
p5840
(dp5841
g4627
S'ccof'
p5842
sg4629
g5839
sg4630
S'CCP3'
p5843
sg4631
I-1
sg32
I12
sg4632
(lp5844
sbsg5789
(issf_api
Node
p5845
(dp5846
g4627
S'k7p'
p5847
sg4629
g5789
sg4630
S'VGF3'
p5848
sg4631
I-1
sg32
I11
sg4632
(lp5849
sbsg5796
(issf_api
Node
p5850
(dp5851
g4627
S'ccof'
p5852
sg4629
g5796
sg4630
S'CCP'
p5853
sg4631
I-1
sg32
I9
sg4632
(lp5854
g5758
ag5781
asbsg5790
(issf_api
Node
p5855
(dp5856
g4627
S'k3'
p5857
sg4629
g5790
sg4630
S'VGF3'
p5858
sg4631
I-1
sg32
I14
sg4632
(lp5859
g5807
ag5813
ag5839
asbsg5773
(issf_api
Node
p5860
(dp5861
g4627
S'k2'
p5862
sg4629
g5773
sg4630
S'VGNN'
p5863
sg4631
I-1
sg32
I4
sg4632
(lp5864
sbsg5765
(issf_api
Node
p5865
(dp5866
g4627
S'rd'
p5867
sg4629
g5765
sg4630
S'VGF2'
p5868
sg4631
I-1
sg32
I3
sg4632
(lp5869
sbssg4670
(lp5870
(issf_api
Chunk
p5871
(dp5872
g4629
g3262
sg32
I0
sg4674
g3271
sg33
I8
sg4620
(lp5873
I160
asg38
(issf_api
FeatureSet
p5874
(dp5875
g12
(dp5876
S'name'
p5877
g5780
sS'drel'
p5878
S'k1:VGF'
p5879
ssbsba(issf_api
Chunk
p5880
(dp5881
g4629
g3285
sg32
I1
sg4674
g3292
sg33
I8
sg4620
(lp5882
I161
asg38
(issf_api
FeatureSet
p5883
(dp5884
g12
(dp5885
S'name'
p5886
g5774
ssbsba(issf_api
Chunk
p5887
(dp5888
g4629
g3306
sg32
I2
sg4674
g3311
sg33
I8
sg4620
(lp5889
I162
asg38
(issf_api
FeatureSet
p5890
(dp5891
g12
(dp5892
S'name'
p5893
g5778
sS'drel'
p5894
S'k2:VGF'
p5895
ssbsba(issf_api
Chunk
p5896
(dp5897
g4629
g3325
sg32
I3
sg4674
g3330
sg33
I8
sg4620
(lp5898
I163
aI164
asg38
(issf_api
FeatureSet
p5899
(dp5900
g12
(dp5901
S'name'
p5902
g5765
sS'drel'
p5903
S'rd:VGF2'
p5904
ssbsba(issf_api
Chunk
p5905
(dp5906
g4629
g3363
sg32
I4
sg4674
g3372
sg33
I8
sg4620
(lp5907
I165
asg38
(issf_api
FeatureSet
p5908
(dp5909
g12
(dp5910
S'name'
p5911
g5773
sS'drel'
p5912
S'k2:VGNN'
p5913
ssbsba(issf_api
Chunk
p5914
(dp5915
g4629
g3386
sg32
I5
sg4674
g3391
sg33
I8
sg4620
(lp5916
I166
asg38
(issf_api
FeatureSet
p5917
(dp5918
g12
(dp5919
S'name'
p5920
g5772
sS'drel'
p5921
S'pof:VGNN'
p5922
ssbsba(issf_api
Chunk
p5923
(dp5924
g4629
g3405
sg32
I6
sg4674
g3412
sg33
I8
sg4620
(lp5925
I167
aI168
asg38
(issf_api
FeatureSet
p5926
(dp5927
g12
(dp5928
S'name'
p5929
g5766
sS'drel'
p5930
S'r6:NP4'
p5931
ssbsba(issf_api
Chunk
p5932
(dp5933
g4629
g3443
sg32
I7
sg4674
g3448
sg33
I8
sg4620
(lp5934
I169
asg38
(issf_api
FeatureSet
p5935
(dp5936
g12
(dp5937
S'name'
p5938
g5764
sS'drel'
p5939
S'k1:VGF2'
p5940
ssbsba(issf_api
Chunk
p5941
(dp5942
g4629
g3462
sg32
I8
sg4674
g3473
sg33
I8
sg4620
(lp5943
I170
aI171
aI172
asg38
(issf_api
FeatureSet
p5944
(dp5945
g12
(dp5946
S'name'
p5947
g5758
sS'drel'
p5948
S'ccof:CCP2'
p5949
ssbsba(issf_api
Chunk
p5950
(dp5951
g4629
g3521
sg32
I9
sg4674
g3526
sg33
I8
sg4620
(lp5952
I173
asg38
(issf_api
FeatureSet
p5953
(dp5954
g12
(dp5955
S'name'
p5956
g5796
sS'drel'
p5957
S'ccof:CCP'
p5958
ssbsba(issf_api
Chunk
p5959
(dp5960
g4629
g3540
sg32
I10
sg4674
g3545
sg33
I8
sg4620
(lp5961
I174
aI175
asg38
(issf_api
FeatureSet
p5962
(dp5963
g12
(dp5964
S'name'
p5965
g5787
sS'drel'
p5966
S'rd:VGF3'
p5967
ssbsba(issf_api
Chunk
p5968
(dp5969
g4629
g3610
sg32
I11
sg4674
g3617
sg33
I8
sg4620
(lp5970
I176
aI177
aI178
aI179
asg38
(issf_api
FeatureSet
p5971
(dp5972
g12
(dp5973
S'name'
p5974
g5789
sS'drel'
p5975
S'k7p:VGF3'
p5976
ssbsba(issf_api
Chunk
p5977
(dp5978
g4629
g3648
sg32
I12
sg4674
g3653
sg33
I8
sg4620
(lp5979
I180
aI181
asg38
(issf_api
FeatureSet
p5980
(dp5981
g12
(dp5982
S'name'
p5983
g5839
sS'drel'
p5984
S'ccof:CCP3'
p5985
ssbsba(issf_api
Chunk
p5986
(dp5987
g4629
g3683
sg32
I13
sg4674
g3688
sg33
I8
sg4620
(lp5988
I182
asg38
(issf_api
FeatureSet
p5989
(dp5990
g12
(dp5991
S'name'
p5992
g5813
sS'drel'
p5993
S'ccof:CCP3'
p5994
ssbsba(issf_api
Chunk
p5995
(dp5996
g4629
g3702
sg32
I14
sg4674
g3707
sg33
I8
sg4620
(lp5997
I183
asg38
(issf_api
FeatureSet
p5998
(dp5999
g12
(dp6000
S'name'
p6001
g5790
sS'drel'
p6002
S'k3:VGF3'
p6003
ssbsba(issf_api
Chunk
p6004
(dp6005
g4629
g3721
sg32
I15
sg4674
g3728
sg33
I8
sg4620
(lp6006
I184
aI185
asg38
(issf_api
FeatureSet
p6007
(dp6008
g12
(dp6009
S'name'
p6010
g5807
sS'drel'
p6011
S'ccof:CCP3'
p6012
ssbsba(issf_api
Chunk
p6013
(dp6014
g4629
g3761
sg32
I16
sg4674
g3770
sg33
I8
sg4620
(lp6015
I186
asg38
(issf_api
FeatureSet
p6016
(dp6017
g12
(dp6018
S'name'
p6019
g5788
sS'drel'
p6020
S'pof:VGF3'
p6021
ssbsba(issf_api
Chunk
p6022
(dp6023
g4629
g3784
sg32
I17
sg4674
g3795
sg33
I8
sg4620
(lp6024
I187
aI188
aI189
aI190
asg38
(issf_api
FeatureSet
p6025
(dp6026
g12
(dp6027
S'name'
p6028
g5781
sS'drel'
p6029
S'ccof:CCP2'
p6030
ssbsba(issf_api
Chunk
p6031
(dp6032
g4629
g3860
sg32
I18
sg4674
g3865
sg33
I8
sg4620
(lp6033
I191
asg38
(issf_api
FeatureSet
p6034
(dp6035
g12
(dp6036
S'name'
p6037
g5779
sS'drel'
p6038
S'rsym:VGF'
p6039
ssbsbasba(issf_api
Sentence
p6040
(dp6041
g4618
(lp6042
sg33
I9
sg4620
(lp6043
I192
aI193
aI194
aI195
aI196
aI197
aI198
aI199
aI200
aI201
aI202
aI203
aI204
aI205
aI206
aI207
aI208
aI209
aI210
aI211
aI212
aI213
aI214
aI215
aI216
aI217
aI218
aI219
aI220
aI221
aI222
aI223
aI224
aI225
aI226
aI227
aI228
asg4622
(dp6044
S'VGNF'
p6045
(issf_api
Node
p6046
(dp6047
g4627
S'nmod__k1inv'
p6048
sg4629
g6045
sg4630
S'NP4'
p6049
sg4631
I-1
sg32
I3
sg4632
(lp6050
S'NP3'
p6051
asbsS'NP11'
p6052
(issf_api
Node
p6053
(dp6054
g4627
S'pof'
p6055
sg4629
g6052
sg4630
S'VGF2'
p6056
sg4631
I-1
sg32
I14
sg4632
(lp6057
S'NP10'
p6058
asbsg6058
(issf_api
Node
p6059
(dp6060
g4627
S'r6-k1'
p6061
sg4629
g6058
sg4630
S'NP11'
p6062
sg4631
I-1
sg32
I13
sg4632
(lp6063
sbsS'VGF'
p6064
(issf_api
Node
p6065
(dp6066
g4627
S'ccof'
p6067
sg4629
g6064
sg4630
S'CCP'
p6068
sg4631
I-1
sg32
I7
sg4632
(lp6069
S'NP'
p6070
aS'NP6'
p6071
aS'NP2'
p6072
asbsS'CCP'
p6073
(issf_api
Node
p6074
(dp6075
g4627
g4628
sg4629
g6073
sg4630
g4628
sg4631
I-1
sg32
I8
sg4632
(lp6076
g6064
aS'VGF2'
p6077
aS'BLK'
p6078
asbsg6077
(issf_api
Node
p6079
(dp6080
g4627
S'ccof'
p6081
sg4629
g6077
sg4630
S'CCP'
p6082
sg4631
I-1
sg32
I15
sg4632
(lp6083
g6052
aS'CCP2'
p6084
asbsS'NP5'
p6085
(issf_api
Node
p6086
(dp6087
g4627
S'r6'
p6088
sg4629
g6085
sg4630
S'NP6'
p6089
sg4631
I-1
sg32
I5
sg4632
(lp6090
S'NP4'
p6091
asbsS'NP9'
p6092
(issf_api
Node
p6093
(dp6094
g4627
S'ccof'
p6095
sg4629
g6092
sg4630
S'CCP2'
p6096
sg4631
I-1
sg32
I12
sg4632
(lp6097
S'NP8'
p6098
asbsg6098
(issf_api
Node
p6099
(dp6100
g4627
S'r6'
p6101
sg4629
g6098
sg4630
S'NP9'
p6102
sg4631
I-1
sg32
I11
sg4632
(lp6103
sbsg6078
(issf_api
Node
p6104
(dp6105
g4627
S'rsym'
p6106
sg4629
g6078
sg4630
S'CCP'
p6107
sg4631
I-1
sg32
I16
sg4632
(lp6108
sbsg6070
(issf_api
Node
p6109
(dp6110
g4627
S'k7a'
p6111
sg4629
g6070
sg4630
S'VGF'
p6112
sg4631
I-1
sg32
I0
sg4632
(lp6113
sbsg6091
(issf_api
Node
p6114
(dp6115
g4627
S'nmod'
p6116
sg4629
g6091
sg4630
S'NP5'
p6117
sg4631
I-1
sg32
I4
sg4632
(lp6118
g6045
asbsS'NP7'
p6119
(issf_api
Node
p6120
(dp6121
g4627
S'ccof'
p6122
sg4629
g6119
sg4630
S'CCP2'
p6123
sg4631
I-1
sg32
I9
sg4632
(lp6124
sbsg6071
(issf_api
Node
p6125
(dp6126
g4627
S'k1'
p6127
sg4629
g6071
sg4630
S'VGF'
p6128
sg4631
I-1
sg32
I6
sg4632
(lp6129
g6085
asbsg6084
(issf_api
Node
p6130
(dp6131
g4627
S'k7'
p6132
sg4629
g6084
sg4630
S'VGF2'
p6133
sg4631
I-1
sg32
I10
sg4632
(lp6134
g6092
ag6119
asbsg6051
(issf_api
Node
p6135
(dp6136
g4627
S'ras-k1'
p6137
sg4629
g6051
sg4630
S'VGNF'
p6138
sg4631
I-1
sg32
I2
sg4632
(lp6139
sbsg6072
(issf_api
Node
p6140
(dp6141
g4627
S'k7p'
p6142
sg4629
g6072
sg4630
S'VGF'
p6143
sg4631
I-1
sg32
I1
sg4632
(lp6144
sbssg4670
(lp6145
(issf_api
Chunk
p6146
(dp6147
g4629
g3896
sg32
I0
sg4674
g3903
sg33
I9
sg4620
(lp6148
I192
aI193
aI194
aI195
aI196
asg38
(issf_api
FeatureSet
p6149
(dp6150
g12
(dp6151
S'name'
p6152
g6070
sS'drel'
p6153
S'k7a:VGF'
p6154
ssbsba(issf_api
Chunk
p6155
(dp6156
g4629
g3969
sg32
I1
sg4674
g3980
sg33
I9
sg4620
(lp6157
I197
aI198
asg38
(issf_api
FeatureSet
p6158
(dp6159
g12
(dp6160
S'name'
p6161
g6072
sS'drel'
p6162
S'k7p:VGF'
p6163
ssbsba(issf_api
Chunk
p6164
(dp6165
g4629
g4028
sg32
I2
sg4674
g4035
sg33
I9
sg4620
(lp6166
I199
aI200
aI201
asg38
(issf_api
FeatureSet
p6167
(dp6168
g12
(dp6169
S'name'
p6170
g6051
sS'drel'
p6171
S'ras-k1:VGNF'
p6172
ssbsba(issf_api
Chunk
p6173
(dp6174
g4629
g4066
sg32
I3
sg4674
g4071
sg33
I9
sg4620
(lp6175
I202
asg38
(issf_api
FeatureSet
p6176
(dp6177
g12
(dp6178
S'name'
p6179
g6045
sS'drel'
p6180
S'nmod__k1inv:NP4'
p6181
ssbsba(issf_api
Chunk
p6182
(dp6183
g4629
g4106
sg32
I4
sg4674
g4113
sg33
I9
sg4620
(lp6184
I203
aI204
asg38
(issf_api
FeatureSet
p6185
(dp6186
g12
(dp6187
S'name'
p6188
g6091
sS'drel'
p6189
S'nmod:NP5'
p6190
ssbsba(issf_api
Chunk
p6191
(dp6192
g4629
g4186
sg32
I5
sg4674
g4199
sg33
I9
sg4620
(lp6193
I205
aI206
aI207
aI208
aI209
asg38
(issf_api
FeatureSet
p6194
(dp6195
g12
(dp6196
S'name'
p6197
g6085
sS'drel'
p6198
S'r6:NP6'
p6199
ssbsba(issf_api
Chunk
p6200
(dp6201
g4629
g4247
sg32
I6
sg4674
g4252
sg33
I9
sg4620
(lp6202
I210
aI211
asg38
(issf_api
FeatureSet
p6203
(dp6204
g12
(dp6205
S'name'
p6206
g6071
sS'drel'
p6207
S'k1:VGF'
p6208
ssbsba(issf_api
Chunk
p6209
(dp6210
g4629
g4266
sg32
I7
sg4674
g4275
sg33
I9
sg4620
(lp6211
I212
asg38
(issf_api
FeatureSet
p6212
(dp6213
g12
(dp6214
S'name'
p6215
g6064
sS'drel'
p6216
S'ccof:CCP'
p6217
ssbsba(issf_api
Chunk
p6218
(dp6219
g4629
g4285
sg32
I8
sg4674
g4292
sg33
I9
sg4620
(lp6220
I213
asg38
(issf_api
FeatureSet
p6221
(dp6222
g12
(dp6223
S'name'
p6224
g6073
ssbsba(issf_api
Chunk
p6225
(dp6226
g4629
g4346
sg32
I9
sg4674
g4357
sg33
I9
sg4620
(lp6227
I214
aI215
aI216
asg38
(issf_api
FeatureSet
p6228
(dp6229
g12
(dp6230
S'name'
p6231
g6119
sS'drel'
p6232
S'ccof:CCP2'
p6233
ssbsba(issf_api
Chunk
p6234
(dp6235
g4629
g4371
sg32
I10
sg4674
g4376
sg33
I9
sg4620
(lp6236
I217
asg38
(issf_api
FeatureSet
p6237
(dp6238
g12
(dp6239
S'name'
p6240
g6084
sS'drel'
p6241
S'k7:VGF2'
p6242
ssbsba(issf_api
Chunk
p6243
(dp6244
g4629
g4415
sg32
I11
sg4674
g4428
sg33
I9
sg4620
(lp6245
I218
aI219
aI220
asg38
(issf_api
FeatureSet
p6246
(dp6247
g12
(dp6248
S'name'
p6249
g6098
sS'drel'
p6250
S'r6:NP9'
p6251
ssbsba(issf_api
Chunk
p6252
(dp6253
g4629
g4461
sg32
I12
sg4674
g4474
sg33
I9
sg4620
(lp6254
I221
aI222
asg38
(issf_api
FeatureSet
p6255
(dp6256
g12
(dp6257
S'name'
p6258
g6092
sS'drel'
p6259
S'ccof:CCP2'
p6260
ssbsba(issf_api
Chunk
p6261
(dp6262
g4629
g4507
sg32
I13
sg4674
g4516
sg33
I9
sg4620
(lp6263
I223
aI224
asg38
(issf_api
FeatureSet
p6264
(dp6265
g12
(dp6266
S'name'
p6267
g6058
sS'drel'
p6268
S'r6-k1:NP11'
p6269
ssbsba(issf_api
Chunk
p6270
(dp6271
g4629
g4547
sg32
I14
sg4674
g4552
sg33
I9
sg4620
(lp6272
I225
asg38
(issf_api
FeatureSet
p6273
(dp6274
g12
(dp6275
S'name'
p6276
g6052
sS'drel'
p6277
S'pof:VGF2'
p6278
ssbsba(issf_api
Chunk
p6279
(dp6280
g4629
g4566
sg32
I15
sg4674
g4577
sg33
I9
sg4620
(lp6281
I226
aI227
asg38
(issf_api
FeatureSet
p6282
(dp6283
g12
(dp6284
S'name'
p6285
g6077
sS'drel'
p6286
S'ccof:CCP'
p6287
ssbsba(issf_api
Chunk
p6288
(dp6289
g4629
g4608
sg32
I16
sg4674
g4613
sg33
I9
sg4620
(lp6290
I228
asg38
(issf_api
FeatureSet
p6291
(dp6292
g12
(dp6293
S'name'
p6294
g6078
sS'drel'
p6295
S'rsym:CCP'
p6296
ssbsbasbasb.