(issf_api
SSFInfo
p0
(dp1
S'globalWordList'
p2
(lp3
(issf_api
Word
p4
(dp5
S'splitConn'
p6
I00
sS'word'
p7
V\u0915\u0941\u0916\u094d\u092f\u093e\u0924
p8
sS'extraFeatureSet'
p9
(issf_api
FeatureSet
p10
(dp11
S'featureDict'
p12
(dp13
S'posn'
p14
S'10'
p15
sS'name'
p16
S'\xe0\xa4\x95\xe0\xa5\x81\xe0\xa4\x96\xe0\xa5\x8d\xe0\xa4\xaf\xe0\xa4\xbe\xe0\xa4\xa4'
p17
sS'af'
p18
S'\xe0\xa4\x95\xe0\xa5\x81\xe0\xa4\x96\xe0\xa5\x8d\xe0\xa4\xaf\xe0\xa4\xbe\xe0\xa4\xa4,adj,any,any,,o,,'
p19
sS'drel'
p20
S'nmod__adj:NP'
p21
sS'chunktype'
p22
S'child:NP'
p23
sS'cref'
p24
S'i1%0:t1'
p25
ssbsS'arg1'
p26
I00
sS'arg2'
p27
I00
sS'sense'
p28
NsS'arg1Span'
p29
NsS'chunkNum'
p30
I0
sS'sentenceNum'
p31
I0
sS'relationNum'
p32
NsS'arg2Span'
p33
NsS'wordTag'
p34
S'JJ'
p35
sS'featureSet'
p36
g10
sS'conn'
p37
I00
sba(issf_api
Word
p38
(dp39
g6
I00
sg7
V\u0938\u0930\u0917\u0928\u093e
p40
sg9
(issf_api
FeatureSet
p41
(dp42
g12
(dp43
S'crefhead'
p44
S'\xe0\xa4\xb8\xe0\xa4\xb0\xe0\xa4\x97\xe0\xa4\xa8\xe0\xa4\xbe:i1'
p45
sS'posn'
p46
S'20'
p47
sS'name'
p48
S'\xe0\xa4\xb8\xe0\xa4\xb0\xe0\xa4\x97\xe0\xa4\xa8\xe0\xa4\xbe'
p49
sS'af'
p50
S'\xe0\xa4\xb8\xe0\xa4\xb0\xe0\xa4\x97\xe0\xa4\xa8\xe0\xa4\xbe,n,m,sg,3,o,0,0'
p51
sS'chunkid'
p52
S'NP'
p53
sS'drel'
p54
S'nmod:NP2'
p55
sS'chunktype'
p56
S'head:NP'
p57
sS'cref'
p58
S'i1%1:t1'
p59
ssbsg26
I00
sg27
I00
sg28
Nsg29
Nsg30
I0
sg31
I0
sg32
Nsg33
Nsg34
S'NN'
p60
sg36
g41
sg37
I00
sba(issf_api
Word
p61
(dp62
g6
I00
sg7
V\u091b\u094b\u091f\u093e
p63
sg9
(issf_api
FeatureSet
p64
(dp65
g12
(dp66
S'posn'
p67
S'30'
p68
sS'name'
p69
S'\xe0\xa4\x9b\xe0\xa5\x8b\xe0\xa4\x9f\xe0\xa4\xbe'
p70
sS'af'
p71
S'\xe0\xa4\x9b\xe0\xa5\x8b\xe0\xa4\x9f\xe0\xa4\xbe,n,m,sg,3,d,0,0'
p72
sS'acrefmod'
p73
S'm1%0:i3,m2%0:i4,m3%0:i5,m4%0:i6'
p74
sS'drel'
p75
S'pof__cn:NP2'
p76
sS'chunktype'
p77
S'child:NP2'
p78
sS'cref'
p79
S'i2%0:t1'
p80
ssbsg26
I00
sg27
I00
sg28
Nsg29
Nsg30
I1
sg31
I0
sg32
Nsg33
Nsg34
S'NNPC'
p81
sg36
g64
sg37
I00
sba(issf_api
Word
p82
(dp83
g6
I00
sg7
V\u0930\u093e\u091c\u0928
p84
sg9
(issf_api
FeatureSet
p85
(dp86
g12
(dp87
S'posn'
p88
S'40'
p89
sS'name'
p90
S'\xe0\xa4\xb0\xe0\xa4\xbe\xe0\xa4\x9c\xe0\xa4\xa8'
p91
sS'af'
p92
S'\xe0\xa4\xb0\xe0\xa4\xbe\xe0\xa4\x9c\xe0\xa4\xa8,n,m,sg,3,d,0,0'
p93
sS'acrefmod'
p94
S'm1%0:i3,m2%0:i4,m3%0:i5,m4%0:i6'
p95
sS'drel'
p96
S'pof__cn:NP2'
p97
sS'chunktype'
p98
S'child:NP2'
p99
sS'cref'
p100
S'i2%0:t1'
p101
ssbsg26
I00
sg27
I00
sg28
Nsg29
Nsg30
I1
sg31
I0
sg32
Nsg33
Nsg34
S'NNPC'
p102
sg36
g85
sg37
I00
sba(issf_api
Word
p103
(dp104
g6
I00
sg7
V\u0917\u093f\u0930\u094b\u0939
p105
sg9
(issf_api
FeatureSet
p106
(dp107
g12
(dp108
S'crefhead'
p109
S'\xe0\xa4\x97\xe0\xa4\xbf\xe0\xa4\xb0\xe0\xa5\x8b\xe0\xa4\xb9:i2'
p110
sS'posn'
p111
S'50'
p112
sS'name'
p113
S'\xe0\xa4\x97\xe0\xa4\xbf\xe0\xa4\xb0\xe0\xa5\x8b\xe0\xa4\xb9'
p114
sS'af'
p115
S'\xe0\xa4\x97\xe0\xa4\xbf\xe0\xa4\xb0\xe0\xa5\x8b\xe0\xa4\xb9,n,m,sg,3,o,0_\xe0\xa4\x95\xe0\xa4\xbe,0'
p116
sS'acrefmodhead'
p117
S'\xe0\xa4\x97\xe0\xa4\xbf\xe0\xa4\xb0\xe0\xa5\x8b\xe0\xa4\xb9:m1,\xe0\xa4\x97\xe0\xa4\xbf\xe0\xa4\xb0\xe0\xa5\x8b\xe0\xa4\xb9:m2,\xe0\xa4\x97\xe0\xa4\xbf\xe0\xa4\xb0\xe0\xa5\x8b\xe0\xa4\xb9:m3,\xe0\xa4\x97\xe0\xa4\xbf\xe0\xa4\xb0\xe0\xa5\x8b\xe0\xa4\xb9:m4'
p118
sS'chunkid'
p119
S'NP2'
p120
sS'acrefmod'
p121
S'm1%1:i3,m2%1:i4,m3%1:i5,m4%1:i6'
p122
sS'creftype'
p123
S'Coreference-NounComplement:i1'
p124
sS'chunktype'
p125
S'head:NP2'
p126
sS'crefchainhead'
p127
S'i2:t1'
p128
sS'vpos'
p129
S'vib_4'
p130
sS'cref'
p131
S'i2%1:t1'
p132
sS'drel'
p133
S'r6:NP3'
p134
ssbsg26
I00
sg27
I00
sg28
Nsg29
Nsg30
I1
sg31
I0
sg32
Nsg33
Nsg34
S'NNP'
p135
sg36
g106
sg37
I00
sba(issf_api
Word
p136
(dp137
g6
I00
sg7
V\u0915\u0947
p138
sg9
(issf_api
FeatureSet
p139
(dp140
g12
(dp141
S'posn'
p142
S'60'
p143
sS'name'
p144
S'\xe0\xa4\x95\xe0\xa5\x87'
p145
sS'drel'
p146
S'lwg__psp:NP2'
p147
sS'chunktype'
p148
S'child:NP2'
p149
sS'af'
p150
S'\xe0\xa4\x95\xe0\xa4\xbe,psp,m,pl,,o,,'
p151
ssbsg26
I00
sg27
I00
sg28
Nsg29
Nsg30
I1
sg31
I0
sg32
Nsg33
Nsg34
S'PSP'
p152
sg36
g139
sg37
I00
sba(issf_api
Word
p153
(dp154
g6
I00
sg7
V\u091a\u093e\u0930
p155
sg9
(issf_api
FeatureSet
p156
(dp157
g12
(dp158
S'posn'
p159
S'70'
p160
sS'name'
p161
S'\xe0\xa4\x9a\xe0\xa4\xbe\xe0\xa4\xb0'
p162
sS'af'
p163
S'\xe0\xa4\x9a\xe0\xa4\xbe\xe0\xa4\xb0,num,any,any,,any,,'
p164
sS'drel'
p165
S'nmod__adj:NP3'
p166
sS'chunktype'
p167
S'child:NP3'
p168
sS'cref'
p169
S'i3%0:t2,i4%0:t3,i5%0:t4,i6%0:t5'
p170
ssbsg26
I00
sg27
I00
sg28
Nsg29
Nsg30
I2
sg31
I0
sg32
Nsg33
Nsg34
S'QC'
p171
sg36
g156
sg37
I00
sba(issf_api
Word
p172
(dp173
g6
I00
sg7
V\u0917\u0941\u0902\u0921\u094b\u0902
p174
sg9
(issf_api
FeatureSet
p175
(dp176
g12
(dp177
S'crefhead'
p178
S'\xe0\xa4\x97\xe0\xa5\x81\xe0\xa4\x82\xe0\xa4\xa1\xe0\xa5\x8b\xe0\xa4\x82:i3,\xe0\xa4\x97\xe0\xa5\x81\xe0\xa4\x82\xe0\xa4\xa1\xe0\xa5\x8b\xe0\xa4\x82:i4,\xe0\xa4\x97\xe0\xa5\x81\xe0\xa4\x82\xe0\xa4\xa1\xe0\xa5\x8b\xe0\xa4\x82:i5,\xe0\xa4\x97\xe0\xa5\x81\xe0\xa4\x82\xe0\xa4\xa1\xe0\xa5\x8b\xe0\xa4\x82:i6'
p179
sS'posn'
p180
S'80'
p181
sS'name'
p182
S'\xe0\xa4\x97\xe0\xa5\x81\xe0\xa4\x82\xe0\xa4\xa1\xe0\xa5\x8b\xe0\xa4\x82'
p183
sS'af'
p184
S'\xe0\xa4\x97\xe0\xa5\x81\xe0\xa4\x82\xe0\xa4\xa1\xe0\xa4\xbe,n,m,pl,3,o,0_\xe0\xa4\x95\xe0\xa5\x8b,0'
p185
sS'chunkid'
p186
S'NP3'
p187
sS'crefmod'
p188
S'm1:i3,m2:i4,m3:i5,m4:i6'
p189
sS'chunktype'
p190
S'head:NP3'
p191
sS'vpos'
p192
S'vib_3'
p193
sS'cref'
p194
S'i3%1:t2,i4%1:t3,i5%1:t4,i6%1:t5'
p195
sS'drel'
p196
S'k2:VGF'
p197
ssbsg26
I00
sg27
I00
sg28
Nsg29
Nsg30
I2
sg31
I0
sg32
Nsg33
Nsg34
S'NN'
p198
sg36
g175
sg37
I00
sba(issf_api
Word
p199
(dp200
g6
I00
sg7
V\u0915\u094b
p201
sg9
(issf_api
FeatureSet
p202
(dp203
g12
(dp204
S'posn'
p205
S'90'
p206
sS'name'
p207
S'\xe0\xa4\x95\xe0\xa5\x8b'
p208
sS'drel'
p209
S'lwg__psp:NP3'
p210
sS'chunktype'
p211
S'child:NP3'
p212
sS'af'
p213
S'\xe0\xa4\x95\xe0\xa5\x8b,psp,,,,,,'
p214
ssbsg26
I00
sg27
I00
sg28
Nsg29
Nsg30
I2
sg31
I0
sg32
Nsg33
Nsg34
S'PSP'
p215
sg36
g202
sg37
I00
sba(issf_api
Word
p216
(dp217
g6
I00
sg7
V\u0939\u0925\u093f\u092f\u093e\u0930
p218
sg9
(issf_api
FeatureSet
p219
(dp220
g12
(dp221
S'posn'
p222
S'100'
p223
sS'name'
p224
S'\xe0\xa4\xb9\xe0\xa4\xa5\xe0\xa4\xbf\xe0\xa4\xaf\xe0\xa4\xbe\xe0\xa4\xb0'
p225
sS'af'
p226
S'\xe0\xa4\xb9\xe0\xa4\xa5\xe0\xa4\xbf\xe0\xa4\xaf\xe0\xa4\xbe\xe0\xa4\xb0,n,m,sg,3,o,0_\xe0\xa4\xb8\xe0\xa4\xb9\xe0\xa4\xbf\xe0\xa4\xa4,0'
p227
sS'chunkid'
p228
S'NP4'
p229
sS'drel'
p230
S'ras-k2:VGF'
p231
sS'vpos'
p232
S'vib_2'
p233
sS'chunktype'
p234
S'head:NP4'
p235
ssbsg26
I00
sg27
I00
sg28
Nsg29
Nsg30
I3
sg31
I0
sg32
Nsg33
Nsg34
S'NN'
p236
sg36
g219
sg37
I00
sba(issf_api
Word
p237
(dp238
g6
I00
sg7
V\u0938\u0939\u093f\u0924
p239
sg9
(issf_api
FeatureSet
p240
(dp241
g12
(dp242
S'posn'
p243
S'110'
p244
sS'name'
p245
S'\xe0\xa4\xb8\xe0\xa4\xb9\xe0\xa4\xbf\xe0\xa4\xa4'
p246
sS'drel'
p247
S'lwg__psp:NP4'
p248
sS'chunktype'
p249
S'child:NP4'
p250
sS'af'
p251
S'\xe0\xa4\xb8\xe0\xa4\xb9\xe0\xa4\xbf\xe0\xa4\xa4,psp,,,,,,'
p252
ssbsg26
I00
sg27
I00
sg28
Nsg29
Nsg30
I3
sg31
I0
sg32
Nsg33
Nsg34
S'PSP'
p253
sg36
g240
sg37
I00
sba(issf_api
Word
p254
(dp255
g6
I00
sg7
V\u092a\u0941\u0932\u093f\u0938
p256
sg9
(issf_api
FeatureSet
p257
(dp258
g12
(dp259
S'posn'
p260
S'120'
p261
sS'name'
p262
S'\xe0\xa4\xaa\xe0\xa5\x81\xe0\xa4\xb2\xe0\xa4\xbf\xe0\xa4\xb8'
p263
sS'af'
p264
S'\xe0\xa4\xaa\xe0\xa5\x81\xe0\xa4\xb2\xe0\xa4\xbf\xe0\xa4\xb8,n,f,sg,3,o,0_\xe0\xa4\xa8\xe0\xa5\x87,0'
p265
sS'chunkid'
p266
S'NP5'
p267
sS'drel'
p268
S'k1:VGF'
p269
sS'vpos'
p270
S'vib_2'
p271
sS'chunktype'
p272
S'head:NP5'
p273
ssbsg26
I00
sg27
I00
sg28
Nsg29
Nsg30
I4
sg31
I0
sg32
Nsg33
Nsg34
S'NN'
p274
sg36
g257
sg37
I00
sba(issf_api
Word
p275
(dp276
g6
I00
sg7
V\u0928\u0947
p277
sg9
(issf_api
FeatureSet
p278
(dp279
g12
(dp280
S'posn'
p281
S'130'
p282
sS'name'
p283
S'\xe0\xa4\xa8\xe0\xa5\x87'
p284
sS'drel'
p285
S'lwg__psp:NP5'
p286
sS'chunktype'
p287
S'child:NP5'
p288
sS'af'
p289
S'\xe0\xa4\xa8\xe0\xa5\x87,psp,,,,,,'
p290
ssbsg26
I00
sg27
I00
sg28
Nsg29
Nsg30
I4
sg31
I0
sg32
Nsg33
Nsg34
S'PSP'
p291
sg36
g278
sg37
I00
sba(issf_api
Word
p292
(dp293
g6
I00
sg7
V\u0936\u0939\u0930
p294
sg9
(issf_api
FeatureSet
p295
(dp296
g12
(dp297
S'posn'
p298
S'140'
p299
sS'name'
p300
S'\xe0\xa4\xb6\xe0\xa4\xb9\xe0\xa4\xb0'
p301
sS'af'
p302
S'\xe0\xa4\xb6\xe0\xa4\xb9\xe0\xa4\xb0,n,m,sg,3,o,0_\xe0\xa4\x95\xe0\xa4\xbe,0'
p303
sS'chunkid'
p304
S'NP6'
p305
sS'drel'
p306
S'r6:NP7'
p307
sS'vpos'
p308
S'vib_2'
p309
sS'chunktype'
p310
S'head:NP6'
p311
ssbsg26
I00
sg27
I00
sg28
Nsg29
Nsg30
I5
sg31
I0
sg32
Nsg33
Nsg34
S'NN'
p312
sg36
g295
sg37
I00
sba(issf_api
Word
p313
(dp314
g6
I00
sg7
V\u0915\u0947
p315
sg9
(issf_api
FeatureSet
p316
(dp317
g12
(dp318
S'posn'
p319
S'150'
p320
sS'name'
p321
S'\xe0\xa4\x95\xe0\xa5\x872'
p322
sS'drel'
p323
S'lwg__psp:NP6'
p324
sS'chunktype'
p325
S'child:NP6'
p326
sS'af'
p327
S'\xe0\xa4\x95\xe0\xa4\xbe,psp,m,sg,,o,,'
p328
ssbsg26
I00
sg27
I00
sg28
Nsg29
Nsg30
I5
sg31
I0
sg32
Nsg33
Nsg34
S'PSP'
p329
sg36
g316
sg37
I00
sba(issf_api
Word
p330
(dp331
g6
I00
sg7
V\u0909\u0924\u094d\u0924\u0930\u0940
p332
sg9
(issf_api
FeatureSet
p333
(dp334
g12
(dp335
S'posn'
p336
S'160'
p337
sS'name'
p338
S'\xe0\xa4\x89\xe0\xa4\xa4\xe0\xa5\x8d\xe0\xa4\xa4\xe0\xa4\xb0\xe0\xa5\x80'
p339
sS'drel'
p340
S'mod:NP7'
p341
sS'chunktype'
p342
S'child:NP7'
p343
sS'af'
p344
S'\xe0\xa4\x89\xe0\xa4\xa4\xe0\xa5\x8d\xe0\xa4\xa4\xe0\xa4\xb0\xe0\xa5\x80,adj,any,any,,,,'
p345
ssbsg26
I00
sg27
I00
sg28
Nsg29
Nsg30
I6
sg31
I0
sg32
Nsg33
Nsg34
S'JJC'
p346
sg36
g333
sg37
I00
sba(issf_api
Word
p347
(dp348
g6
I00
sg7
V\u092a\u0936\u094d\u091a\u093f\u092e\u0940
p349
sg9
(issf_api
FeatureSet
p350
(dp351
g12
(dp352
S'posn'
p353
S'170'
p354
sS'name'
p355
S'\xe0\xa4\xaa\xe0\xa4\xb6\xe0\xa5\x8d\xe0\xa4\x9a\xe0\xa4\xbf\xe0\xa4\xae\xe0\xa5\x80'
p356
sS'drel'
p357
S'nmod__adj:NP7'
p358
sS'chunktype'
p359
S'child:NP7'
p360
sS'af'
p361
S'\xe0\xa4\xaa\xe0\xa4\xb6\xe0\xa5\x8d\xe0\xa4\x9a\xe0\xa4\xbf\xe0\xa4\xae\xe0\xa5\x80,adj,any,any,,o,,'
p362
ssbsg26
I00
sg27
I00
sg28
Nsg29
Nsg30
I6
sg31
I0
sg32
Nsg33
Nsg34
S'JJ'
p363
sg36
g350
sg37
I00
sba(issf_api
Word
p364
(dp365
g6
I00
sg7
V\u0915\u094d\u0937\u0947\u0924\u094d\u0930
p366
sg9
(issf_api
FeatureSet
p367
(dp368
g12
(dp369
S'posn'
p370
S'180'
p371
sS'name'
p372
S'\xe0\xa4\x95\xe0\xa5\x8d\xe0\xa4\xb7\xe0\xa5\x87\xe0\xa4\xa4\xe0\xa5\x8d\xe0\xa4\xb0'
p373
sS'af'
p374
S'\xe0\xa4\x95\xe0\xa5\x8d\xe0\xa4\xb7\xe0\xa5\x87\xe0\xa4\xa4\xe0\xa5\x8d\xe0\xa4\xb0,n,m,sg,3,o,0_\xe0\xa4\xb8\xe0\xa5\x87,0'
p375
sS'chunkid'
p376
S'NP7'
p377
sS'drel'
p378
S'k5:VGF'
p379
sS'vpos'
p380
S'vib_4'
p381
sS'chunktype'
p382
S'head:NP7'
p383
ssbsg26
I00
sg27
I00
sg28
Nsg29
Nsg30
I6
sg31
I0
sg32
Nsg33
Nsg34
S'NN'
p384
sg36
g367
sg37
I00
sba(issf_api
Word
p385
(dp386
g6
I00
sg7
V\u0938\u0947
p387
sg9
(issf_api
FeatureSet
p388
(dp389
g12
(dp390
S'posn'
p391
S'190'
p392
sS'name'
p393
S'\xe0\xa4\xb8\xe0\xa5\x87'
p394
sS'drel'
p395
S'lwg__psp:NP7'
p396
sS'chunktype'
p397
S'child:NP7'
p398
sS'af'
p399
S'\xe0\xa4\xb8\xe0\xa5\x87,psp,,,,,,'
p400
ssbsg26
I00
sg27
I00
sg28
Nsg29
Nsg30
I6
sg31
I0
sg32
Nsg33
Nsg34
S'PSP'
p401
sg36
g388
sg37
I00
sba(issf_api
Word
p402
(dp403
g6
I00
sg7
V\u0917\u093f\u0930\u092b\u094d\u0924\u093e\u0930
p404
sg9
(issf_api
FeatureSet
p405
(dp406
g12
(dp407
S'posn'
p408
S'200'
p409
sS'name'
p410
S'\xe0\xa4\x97\xe0\xa4\xbf\xe0\xa4\xb0\xe0\xa4\xab\xe0\xa5\x8d\xe0\xa4\xa4\xe0\xa4\xbe\xe0\xa4\xb0'
p411
sS'af'
p412
S'\xe0\xa4\x97\xe0\xa4\xbf\xe0\xa4\xb0\xe0\xa4\xab\xe0\xa5\x8d\xe0\xa4\xa4\xe0\xa4\xbe\xe0\xa4\xb0,adj,any,any,,,,'
p413
sS'chunkid'
p414
S'JJP'
p415
sS'drel'
p416
S'pof:VGF'
p417
sS'chunktype'
p418
S'head:JJP'
p419
ssbsg26
I00
sg27
I00
sg28
Nsg29
Nsg30
I7
sg31
I0
sg32
Nsg33
Nsg34
S'JJ'
p420
sg36
g405
sg37
I00
sba(issf_api
Word
p421
(dp422
g6
I00
sg7
V\u0915\u093f\u092f\u093e
p423
sg9
(issf_api
FeatureSet
p424
(dp425
g12
(dp426
S'posn'
p427
S'210'
p428
sS'name'
p429
S'\xe0\xa4\x95\xe0\xa4\xbf\xe0\xa4\xaf\xe0\xa4\xbe'
p430
sS'af'
p431
S'\xe0\xa4\x95\xe0\xa4\xb0,v,m,sg,any,,\xe0\xa4\xaf\xe0\xa4\xbe,yA'
p432
sS'chunkid'
p433
S'VGF'
p434
sS'chunktype'
p435
S'head:VGF'
p436
sS'voicetype'
p437
S'active'
p438
sS'stype'
p439
S'declarative'
p440
ssbsg26
I00
sg27
I00
sg28
Nsg29
Nsg30
I8
sg31
I0
sg32
Nsg33
Nsg34
S'VM'
p441
sg36
g424
sg37
I00
sba(issf_api
Word
p442
(dp443
g6
I00
sg7
V\u0964
p444
sg9
(issf_api
FeatureSet
p445
(dp446
g12
(dp447
S'posn'
p448
S'220'
p449
sS'name'
p450
S'\xe0\xa5\xa4'
p451
sS'af'
p452
S'\xe0\xa5\xa4,punc,,,,,,'
p453
sS'chunkid'
p454
S'BLK'
p455
sS'drel'
p456
S'rsym:VGF'
p457
sS'chunktype'
p458
S'head:BLK'
p459
ssbsg26
I00
sg27
I00
sg28
Nsg29
Nsg30
I9
sg31
I0
sg32
Nsg33
Nsg34
S'SYM'
p460
sg36
g445
sg37
I00
sba(issf_api
Word
p461
(dp462
g6
I00
sg7
V\u0935\u0930\u093f\u0937\u094d\u0920
p463
sg9
(issf_api
FeatureSet
p464
(dp465
g12
(dp466
S'posn'
p467
S'10'
p468
sS'name'
p469
S'\xe0\xa4\xb5\xe0\xa4\xb0\xe0\xa4\xbf\xe0\xa4\xb7\xe0\xa5\x8d\xe0\xa4\xa0'
p470
sS'drel'
p471
S'nmod__adj:NP'
p472
sS'chunktype'
p473
S'child:NP'
p474
sS'af'
p475
S'\xe0\xa4\xb5\xe0\xa4\xb0\xe0\xa4\xbf\xe0\xa4\xb7\xe0\xa5\x8d\xe0\xa4\xa0,adj,any,any,,o,,'
p476
ssbsg26
I00
sg27
I00
sg28
Nsg29
Nsg30
I0
sg31
I1
sg32
Nsg33
Nsg34
S'JJ'
p477
sg36
g464
sg37
I00
sba(issf_api
Word
p478
(dp479
g6
I00
sg7
V\u092a\u0941\u0932\u093f\u0938
p480
sg9
(issf_api
FeatureSet
p481
(dp482
g12
(dp483
S'posn'
p484
S'20'
p485
sS'name'
p486
S'\xe0\xa4\xaa\xe0\xa5\x81\xe0\xa4\xb2\xe0\xa4\xbf\xe0\xa4\xb8'
p487
sS'drel'
p488
S'pof__cn:NP'
p489
sS'chunktype'
p490
S'child:NP'
p491
sS'af'
p492
S'\xe0\xa4\xaa\xe0\xa5\x81\xe0\xa4\xb2\xe0\xa4\xbf\xe0\xa4\xb8,n,f,sg,3,d,0,0'
p493
ssbsg26
I00
sg27
I00
sg28
Nsg29
Nsg30
I0
sg31
I1
sg32
Nsg33
Nsg34
S'NNC'
p494
sg36
g481
sg37
I00
sba(issf_api
Word
p495
(dp496
g6
I00
sg7
V\u0905\u0927\u093f\u0915\u093e\u0930\u093f\u092f\u094b\u0902
p497
sg9
(issf_api
FeatureSet
p498
(dp499
g12
(dp500
S'posn'
p501
S'30'
p502
sS'name'
p503
S'\xe0\xa4\x85\xe0\xa4\xa7\xe0\xa4\xbf\xe0\xa4\x95\xe0\xa4\xbe\xe0\xa4\xb0\xe0\xa4\xbf\xe0\xa4\xaf\xe0\xa5\x8b\xe0\xa4\x82'
p504
sS'af'
p505
S'\xe0\xa4\x85\xe0\xa4\xa7\xe0\xa4\xbf\xe0\xa4\x95\xe0\xa4\xbe\xe0\xa4\xb0\xe0\xa5\x80,n,m,pl,3,o,0_\xe0\xa4\x95\xe0\xa5\x87_\xe0\xa4\xae\xe0\xa5\x81\xe0\xa4\xa4\xe0\xa4\xbe\xe0\xa4\xac\xe0\xa4\xbf\xe0\xa4\x95,0'
p506
sS'chunkid'
p507
S'NP'
p508
sS'drel'
p509
S'k7a:VGF'
p510
sS'vpos'
p511
S'vib_4_5'
p512
sS'chunktype'
p513
S'head:NP'
p514
ssbsg26
I00
sg27
I00
sg28
Nsg29
Nsg30
I0
sg31
I1
sg32
Nsg33
Nsg34
S'NN'
p515
sg36
g498
sg37
I00
sba(issf_api
Word
p516
(dp517
g6
I00
sg7
V\u0915\u0947
p518
sg9
(issf_api
FeatureSet
p519
(dp520
g12
(dp521
S'posn'
p522
S'40'
p523
sS'name'
p524
S'\xe0\xa4\x95\xe0\xa5\x87'
p525
sS'drel'
p526
S'lwg__psp:NP'
p527
sS'chunktype'
p528
S'child:NP'
p529
sS'af'
p530
S'\xe0\xa4\x95\xe0\xa5\x87,psp,,,,,,'
p531
ssbsg26
I00
sg27
I00
sg28
Nsg29
Nsg30
I0
sg31
I1
sg32
Nsg33
Nsg34
S'PSP'
p532
sg36
g519
sg37
I00
sba(issf_api
Word
p533
(dp534
g6
I00
sg7
V\u092e\u0941\u0924\u093e\u092c\u093f\u0915
p535
sg9
(issf_api
FeatureSet
p536
(dp537
g12
(dp538
S'posn'
p539
S'50'
p540
sS'name'
p541
S'\xe0\xa4\xae\xe0\xa5\x81\xe0\xa4\xa4\xe0\xa4\xbe\xe0\xa4\xac\xe0\xa4\xbf\xe0\xa4\x95'
p542
sS'drel'
p543
S'lwg__psp:NP'
p544
sS'chunktype'
p545
S'child:NP'
p546
sS'af'
p547
S'\xe0\xa4\xae\xe0\xa5\x81\xe0\xa4\xa4\xe0\xa4\xbe\xe0\xa4\xac\xe0\xa4\xbf\xe0\xa4\x95,psp,,,,,,'
p548
ssbsg26
I00
sg27
I00
sg28
Nsg29
Nsg30
I0
sg31
I1
sg32
Nsg33
Nsg34
S'PSP'
p549
sg36
g536
sg37
I00
sba(issf_api
Word
p550
(dp551
g6
I00
sg7
V\u090f\u0915
p552
sg9
(issf_api
FeatureSet
p553
(dp554
g12
(dp555
S'posn'
p556
S'60'
p557
sS'name'
p558
S'\xe0\xa4\x8f\xe0\xa4\x95'
p559
sS'drel'
p560
S'nmod__adj:NP2'
p561
sS'chunktype'
p562
S'child:NP2'
p563
sS'af'
p564
S'\xe0\xa4\x8f\xe0\xa4\x95,num,any,any,,any,,'
p565
ssbsg26
I00
sg27
I00
sg28
Nsg29
Nsg30
I1
sg31
I1
sg32
Nsg33
Nsg34
S'QC'
p566
sg36
g553
sg37
I00
sba(issf_api
Word
p567
(dp568
g6
I00
sg7
V\u092c\u093f\u091c\u0932\u0940
p569
sg9
(issf_api
FeatureSet
p570
(dp571
g12
(dp572
S'posn'
p573
S'70'
p574
sS'name'
p575
S'\xe0\xa4\xac\xe0\xa4\xbf\xe0\xa4\x9c\xe0\xa4\xb2\xe0\xa5\x80'
p576
sS'drel'
p577
S'pof__cn:NP2'
p578
sS'chunktype'
p579
S'child:NP2'
p580
sS'af'
p581
S'\xe0\xa4\xac\xe0\xa4\xbf\xe0\xa4\x9c\xe0\xa4\xb2\xe0\xa5\x80,n,f,sg,3,d,0,0'
p582
ssbsg26
I00
sg27
I00
sg28
Nsg29
Nsg30
I1
sg31
I1
sg32
Nsg33
Nsg34
S'NNC'
p583
sg36
g570
sg37
I00
sba(issf_api
Word
p584
(dp585
g6
I00
sg7
V\u0907\u0915\u093e\u0908
p586
sg9
(issf_api
FeatureSet
p587
(dp588
g12
(dp589
S'posn'
p590
S'80'
p591
sS'name'
p592
S'\xe0\xa4\x87\xe0\xa4\x95\xe0\xa4\xbe\xe0\xa4\x88'
p593
sS'af'
p594
S'\xe0\xa4\x87\xe0\xa4\x95\xe0\xa4\xbe\xe0\xa4\x88,n,f,sg,3,o,0_\xe0\xa4\x95\xe0\xa4\xbe,0'
p595
sS'chunkid'
p596
S'NP2'
p597
sS'drel'
p598
S'r6:NP3'
p599
sS'vpos'
p600
S'vib_4'
p601
sS'chunktype'
p602
S'head:NP2'
p603
ssbsg26
I00
sg27
I00
sg28
Nsg29
Nsg30
I1
sg31
I1
sg32
Nsg33
Nsg34
S'NN'
p604
sg36
g587
sg37
I00
sba(issf_api
Word
p605
(dp606
g6
I00
sg7
V\u0915\u0947
p607
sg9
(issf_api
FeatureSet
p608
(dp609
g12
(dp610
S'posn'
p611
S'90'
p612
sS'name'
p613
S'\xe0\xa4\x95\xe0\xa5\x872'
p614
sS'drel'
p615
S'lwg__psp:NP2'
p616
sS'chunktype'
p617
S'child:NP2'
p618
sS'af'
p619
S'\xe0\xa4\x95\xe0\xa4\xbe,psp,m,sg,,o,,'
p620
ssbsg26
I00
sg27
I00
sg28
Nsg29
Nsg30
I1
sg31
I1
sg32
Nsg33
Nsg34
S'PSP'
p621
sg36
g608
sg37
I00
sba(issf_api
Word
p622
(dp623
g6
I00
sg7
V\u0928\u0915\u093c\u0926\u0940
p624
sg9
(issf_api
FeatureSet
p625
(dp626
g12
(dp627
S'posn'
p628
S'100'
p629
sS'name'
p630
S'\xe0\xa4\xa8\xe0\xa4\x95\xe0\xa4\xbc\xe0\xa4\xa6\xe0\xa5\x80'
p631
sS'drel'
p632
S'mod:NP3'
p633
sS'chunktype'
p634
S'child:NP3'
p635
sS'af'
p636
S'\xe0\xa4\xa8\xe0\xa4\x95\xe0\xa4\xa6\xe0\xa5\x80,n,f,sg,3,d,0,0'
p637
ssbsg26
I00
sg27
I00
sg28
Nsg29
Nsg30
I2
sg31
I1
sg32
Nsg33
Nsg34
S'JJC'
p638
sg36
g625
sg37
I00
sba(issf_api
Word
p639
(dp640
g6
I00
sg7
V\u091c\u092e\u093e
p641
sg9
(issf_api
FeatureSet
p642
(dp643
g12
(dp644
S'posn'
p645
S'110'
p646
sS'name'
p647
S'\xe0\xa4\x9c\xe0\xa4\xae\xe0\xa4\xbe'
p648
sS'drel'
p649
S'nmod__adj:NP3'
p650
sS'chunktype'
p651
S'child:NP3'
p652
sS'af'
p653
S'\xe0\xa4\x9c\xe0\xa4\xae\xe0\xa4\xbe,adj,any,any,,o,,'
p654
ssbsg26
I00
sg27
I00
sg28
Nsg29
Nsg30
I2
sg31
I1
sg32
Nsg33
Nsg34
S'JJ'
p655
sg36
g642
sg37
I00
sba(issf_api
Word
p656
(dp657
g6
I00
sg7
V\u0915\u0947\u0902\u0926\u094d\u0930
p658
sg9
(issf_api
FeatureSet
p659
(dp660
g12
(dp661
S'posn'
p662
S'120'
p663
sS'name'
p664
S'\xe0\xa4\x95\xe0\xa5\x87\xe0\xa4\x82\xe0\xa4\xa6\xe0\xa5\x8d\xe0\xa4\xb0'
p665
sS'af'
p666
S'\xe0\xa4\x95\xe0\xa5\x87\xe0\xa4\x82\xe0\xa4\xa6\xe0\xa5\x8d\xe0\xa4\xb0,n,m,sg,3,o,0_\xe0\xa4\x95\xe0\xa5\x8b,0'
p667
sS'chunkid'
p668
S'NP3'
p669
sS'drel'
p670
S'k2:VGNN'
p671
sS'vpos'
p672
S'vib_4'
p673
sS'chunktype'
p674
S'head:NP3'
p675
ssbsg26
I00
sg27
I00
sg28
Nsg29
Nsg30
I2
sg31
I1
sg32
Nsg33
Nsg34
S'NN'
p676
sg36
g659
sg37
I00
sba(issf_api
Word
p677
(dp678
g6
I00
sg7
V\u0915\u094b
p679
sg9
(issf_api
FeatureSet
p680
(dp681
g12
(dp682
S'posn'
p683
S'130'
p684
sS'name'
p685
S'\xe0\xa4\x95\xe0\xa5\x8b'
p686
sS'drel'
p687
S'lwg__psp:NP3'
p688
sS'chunktype'
p689
S'child:NP3'
p690
sS'af'
p691
S'\xe0\xa4\x95\xe0\xa5\x8b,psp,,,,,,'
p692
ssbsg26
I00
sg27
I00
sg28
Nsg29
Nsg30
I2
sg31
I1
sg32
Nsg33
Nsg34
S'PSP'
p693
sg36
g680
sg37
I00
sba(issf_api
Word
p694
(dp695
g6
I00
sg7
V\u0932\u0942\u091f\u0928\u0947
p696
sg9
(issf_api
FeatureSet
p697
(dp698
g12
(dp699
S'posn'
p700
S'140'
p701
sS'name'
p702
S'\xe0\xa4\xb2\xe0\xa5\x82\xe0\xa4\x9f\xe0\xa4\xa8\xe0\xa5\x87'
p703
sS'af'
p704
S'\xe0\xa4\xb2\xe0\xa5\x82\xe0\xa4\x9f,v,any,sg,any,o,\xe0\xa4\xa8\xe0\xa4\xbe_\xe0\xa4\x95\xe0\xa4\xbe,nA'
p705
sS'chunkid'
p706
S'VGNN'
p707
sS'drel'
p708
S'r6:NP4'
p709
sS'vpos'
p710
S'tam_2'
p711
sS'chunktype'
p712
S'head:VGNN'
p713
ssbsg26
I00
sg27
I00
sg28
Nsg29
Nsg30
I3
sg31
I1
sg32
Nsg33
Nsg34
S'VM'
p714
sg36
g697
sg37
I00
sba(issf_api
Word
p715
(dp716
g6
I00
sg7
V\u0915\u0940
p717
sg9
(issf_api
FeatureSet
p718
(dp719
g12
(dp720
S'posn'
p721
S'150'
p722
sS'name'
p723
S'\xe0\xa4\x95\xe0\xa5\x80'
p724
sS'drel'
p725
S'lwg__psp:VGNN'
p726
sS'chunktype'
p727
S'child:VGNN'
p728
sS'af'
p729
S'\xe0\xa4\x95\xe0\xa4\xbe,psp,f,sg,,d,,'
p730
ssbsg26
I00
sg27
I00
sg28
Nsg29
Nsg30
I3
sg31
I1
sg32
Nsg33
Nsg34
S'PSP'
p731
sg36
g718
sg37
I00
sba(issf_api
Word
p732
(dp733
g6
I00
sg7
V\u092f\u094b\u091c\u0928\u093e
p734
sg9
(issf_api
FeatureSet
p735
(dp736
g12
(dp737
S'posn'
p738
S'160'
p739
sS'name'
p740
S'\xe0\xa4\xaf\xe0\xa5\x8b\xe0\xa4\x9c\xe0\xa4\xa8\xe0\xa4\xbe'
p741
sS'af'
p742
S'\xe0\xa4\xaf\xe0\xa5\x8b\xe0\xa4\x9c\xe0\xa4\xa8\xe0\xa4\xbe,n,f,sg,3,d,0,0'
p743
sS'chunkid'
p744
S'NP4'
p745
sS'drel'
p746
S'k2:VGNN2'
p747
sS'chunktype'
p748
S'head:NP4'
p749
ssbsg26
I00
sg27
I00
sg28
Nsg29
Nsg30
I4
sg31
I1
sg32
Nsg33
Nsg34
S'NN'
p750
sg36
g735
sg37
I00
sba(issf_api
Word
p751
(dp752
g6
I00
sg7
V\u092c\u0928\u093e\u0924\u0947
p753
sg9
(issf_api
FeatureSet
p754
(dp755
g12
(dp756
S'posn'
p757
S'170'
p758
sS'name'
p759
S'\xe0\xa4\xac\xe0\xa4\xa8\xe0\xa4\xbe\xe0\xa4\xa4\xe0\xa5\x87'
p760
sS'af'
p761
S'\xe0\xa4\xac\xe0\xa4\xa8\xe0\xa4\xbe,v,m,sg,any,,\xe0\xa4\xa4\xe0\xa4\xbe_\xe0\xa4\xb5\xe0\xa4\x95\xe0\xa5\x8d\xe0\xa4\xa4,wA'
p762
sS'chunkid'
p763
S'VGNN2'
p764
sS'drel'
p765
S'k7t:VGF'
p766
sS'vpos'
p767
S'tam_2'
p768
sS'chunktype'
p769
S'head:VGNN2'
p770
ssbsg26
I00
sg27
I00
sg28
Nsg29
Nsg30
I5
sg31
I1
sg32
Nsg33
Nsg34
S'VM'
p771
sg36
g754
sg37
I00
sba(issf_api
Word
p772
(dp773
g6
I00
sg7
V\u0935\u0915\u094d\u0924
p774
sg9
(issf_api
FeatureSet
p775
(dp776
g12
(dp777
S'posn'
p778
S'180'
p779
sS'name'
p780
S'\xe0\xa4\xb5\xe0\xa4\x95\xe0\xa5\x8d\xe0\xa4\xa4'
p781
sS'drel'
p782
S'lwg__psp:VGNN2'
p783
sS'chunktype'
p784
S'child:VGNN2'
p785
sS'af'
p786
S'\xe0\xa4\xb5\xe0\xa4\x95\xe0\xa5\x8d\xe0\xa4\xa4,n,m,,,o,,'
p787
ssbsg26
I00
sg27
I00
sg28
Nsg29
Nsg30
I5
sg31
I1
sg32
Nsg33
Nsg34
S'PSP'
p788
sg36
g775
sg37
I00
sba(issf_api
Word
p789
(dp790
g6
I00
sg7
V\u0907\u0928
p791
sg9
(issf_api
FeatureSet
p792
(dp793
g12
(dp794
S'posn'
p795
S'190'
p796
sS'name'
p797
S'\xe0\xa4\x87\xe0\xa4\xa8'
p798
sS'af'
p799
S'\xe0\xa4\xaf\xe0\xa4\xb9,pn,any,pl,3,o,,'
p800
sS'drel'
p801
S'nmod__adj:NP5'
p802
sS'chunktype'
p803
S'child:NP5'
p804
sS'cref'
p805
S'i7%0:t2,i8%0:t3,i9%0:t4,i10%0:t5'
p806
ssbsg26
I00
sg27
I00
sg28
Nsg29
Nsg30
I6
sg31
I1
sg32
Nsg33
Nsg34
S'DEM'
p807
sg36
g792
sg37
I00
sba(issf_api
Word
p808
(dp809
g6
I00
sg7
V\u0932\u094b\u0917\u094b\u0902
p810
sg9
(issf_api
FeatureSet
p811
(dp812
g12
(dp813
S'crefhead'
p814
S'\xe0\xa4\xb2\xe0\xa5\x8b\xe0\xa4\x97\xe0\xa5\x8b\xe0\xa4\x82:i7,\xe0\xa4\xb2\xe0\xa5\x8b\xe0\xa4\x97\xe0\xa5\x8b\xe0\xa4\x82:i8,\xe0\xa4\xb2\xe0\xa5\x8b\xe0\xa4\x97\xe0\xa5\x8b\xe0\xa4\x82:i9,\xe0\xa4\xb2\xe0\xa5\x8b\xe0\xa4\x97\xe0\xa5\x8b\xe0\xa4\x82:i10'
p815
sS'posn'
p816
S'200'
p817
sS'name'
p818
S'\xe0\xa4\xb2\xe0\xa5\x8b\xe0\xa4\x97\xe0\xa5\x8b\xe0\xa4\x82'
p819
sS'af'
p820
S'\xe0\xa4\xb2\xe0\xa5\x8b\xe0\xa4\x97,n,m,pl,3,o,0_\xe0\xa4\x95\xe0\xa5\x8b,0'
p821
sS'chunkid'
p822
S'NP5'
p823
sS'creftype'
p824
S'Coreference-Noun-Noun:i6,Coreference-Noun-Noun:i5,Coreference-Noun-Noun:i4,Coreference-Noun-Noun:i3'
p825
sS'chunktype'
p826
S'head:NP5'
p827
sS'vpos'
p828
S'vib_3'
p829
sS'cref'
p830
S'i7%1:t2,i8%1:t3,i9%1:t4,i10%1:t5'
p831
sS'drel'
p832
S'k2:VGF'
p833
ssbsg26
I00
sg27
I00
sg28
Nsg29
Nsg30
I6
sg31
I1
sg32
Nsg33
Nsg34
S'NN'
p834
sg36
g811
sg37
I00
sba(issf_api
Word
p835
(dp836
g6
I00
sg7
V\u0915\u094b
p837
sg9
(issf_api
FeatureSet
p838
(dp839
g12
(dp840
S'posn'
p841
S'210'
p842
sS'name'
p843
S'\xe0\xa4\x95\xe0\xa5\x8b2'
p844
sS'drel'
p845
S'lwg__psp:NP5'
p846
sS'chunktype'
p847
S'child:NP5'
p848
sS'af'
p849
S'\xe0\xa4\x95\xe0\xa5\x8b,psp,,,,,,'
p850
ssbsg26
I00
sg27
I00
sg28
Nsg29
Nsg30
I6
sg31
I1
sg32
Nsg33
Nsg34
S'PSP'
p851
sg36
g838
sg37
I00
sba(issf_api
Word
p852
(dp853
g6
I00
sg7
V\u0917\u093f\u0930\u092b\u094d\u0924\u093e\u0930
p854
sg9
(issf_api
FeatureSet
p855
(dp856
g12
(dp857
S'posn'
p858
S'220'
p859
sS'name'
p860
S'\xe0\xa4\x97\xe0\xa4\xbf\xe0\xa4\xb0\xe0\xa4\xab\xe0\xa5\x8d\xe0\xa4\xa4\xe0\xa4\xbe\xe0\xa4\xb0'
p861
sS'af'
p862
S'\xe0\xa4\x97\xe0\xa4\xbf\xe0\xa4\xb0\xe0\xa4\xab\xe0\xa5\x8d\xe0\xa4\xa4\xe0\xa4\xbe\xe0\xa4\xb0,adj,any,any,,,,'
p863
sS'chunkid'
p864
S'JJP'
p865
sS'drel'
p866
S'pof:VGF'
p867
sS'chunktype'
p868
S'head:JJP'
p869
ssbsg26
I00
sg27
I00
sg28
Nsg29
Nsg30
I7
sg31
I1
sg32
Nsg33
Nsg34
S'JJ'
p870
sg36
g855
sg37
I00
sba(issf_api
Word
p871
(dp872
g6
I00
sg7
V\u0915\u093f\u092f\u093e
p873
sg9
(issf_api
FeatureSet
p874
(dp875
g12
(dp876
S'posn'
p877
S'230'
p878
sS'name'
p879
S'\xe0\xa4\x95\xe0\xa4\xbf\xe0\xa4\xaf\xe0\xa4\xbe'
p880
sS'af'
p881
S'\xe0\xa4\x95\xe0\xa4\xb0,v,m,sg,any,,\xe0\xa4\xaf\xe0\xa4\xbe_\xe0\xa4\x9c\xe0\xa4\xbe+\xe0\xa4\xaf\xe0\xa4\xbe1,yA'
p882
sS'chunkid'
p883
S'VGF'
p884
sS'chunktype'
p885
S'head:VGF'
p886
sS'voicetype'
p887
S'passive'
p888
sS'vpos'
p889
S'tam_2'
p890
sS'stype'
p891
S'declarative'
p892
ssbsg26
I00
sg27
I00
sg28
Nsg29
Nsg30
I8
sg31
I1
sg32
Nsg33
Nsg34
S'VM'
p893
sg36
g874
sg37
I00
sba(issf_api
Word
p894
(dp895
g6
I00
sg7
V\u0917\u092f\u093e
p896
sg9
(issf_api
FeatureSet
p897
(dp898
g12
(dp899
S'posn'
p900
S'240'
p901
sS'name'
p902
S'\xe0\xa4\x97\xe0\xa4\xaf\xe0\xa4\xbe'
p903
sS'drel'
p904
S'lwg__vaux:VGF'
p905
sS'chunktype'
p906
S'child:VGF'
p907
sS'af'
p908
S'\xe0\xa4\x9c\xe0\xa4\xbe,v,m,sg,any,,\xe0\xa4\xaf\xe0\xa4\xbe1,yA1'
p909
ssbsg26
I00
sg27
I00
sg28
Nsg29
Nsg30
I8
sg31
I1
sg32
Nsg33
Nsg34
S'VAUX'
p910
sg36
g897
sg37
I00
sba(issf_api
Word
p911
(dp912
g6
I00
sg7
V\u0964
p913
sg9
(issf_api
FeatureSet
p914
(dp915
g12
(dp916
S'posn'
p917
S'250'
p918
sS'name'
p919
S'\xe0\xa5\xa4'
p920
sS'af'
p921
S'\xe0\xa5\xa4,punc,,,,,,'
p922
sS'chunkid'
p923
S'BLK'
p924
sS'drel'
p925
S'rsym:VGF'
p926
sS'chunktype'
p927
S'head:BLK'
p928
ssbsg26
I00
sg27
I00
sg28
Nsg29
Nsg30
I9
sg31
I1
sg32
Nsg33
Nsg34
S'SYM'
p929
sg36
g914
sg37
I00
sba(issf_api
Word
p930
(dp931
g6
I00
sg7
V\u092a\u0936\u094d\u091a\u093f\u092e\u0940
p932
sg9
(issf_api
FeatureSet
p933
(dp934
g12
(dp935
S'posn'
p936
S'10'
p937
sS'name'
p938
S'\xe0\xa4\xaa\xe0\xa4\xb6\xe0\xa5\x8d\xe0\xa4\x9a\xe0\xa4\xbf\xe0\xa4\xae\xe0\xa5\x80'
p939
sS'af'
p940
S'\xe0\xa4\xaa\xe0\xa4\xb6\xe0\xa5\x8d\xe0\xa4\x9a\xe0\xa4\xbf\xe0\xa4\xae\xe0\xa5\x80,adj,any,any,,o,,'
p941
sS'acrefmod'
p942
S'm5%0:i11'
p943
sS'drel'
p944
S'nmod__adj:NP'
p945
sS'chunktype'
p946
S'child:NP'
p947
ssbsg26
I00
sg27
I00
sg28
Nsg29
Nsg30
I0
sg31
I2
sg32
Nsg33
Nsg34
S'JJ'
p948
sg36
g933
sg37
I00
sba(issf_api
Word
p949
(dp950
g6
I00
sg7
V\u0915\u094d\u0937\u0947\u0924\u094d\u0930
p951
sg9
(issf_api
FeatureSet
p952
(dp953
g12
(dp954
S'posn'
p955
S'20'
p956
sS'name'
p957
S'\xe0\xa4\x95\xe0\xa5\x8d\xe0\xa4\xb7\xe0\xa5\x87\xe0\xa4\xa4\xe0\xa5\x8d\xe0\xa4\xb0'
p958
sS'af'
p959
S'\xe0\xa4\x95\xe0\xa5\x8d\xe0\xa4\xb7\xe0\xa5\x87\xe0\xa4\xa4\xe0\xa5\x8d\xe0\xa4\xb0,n,m,sg,3,o,0_\xe0\xa4\x95\xe0\xa4\xbe,0'
p960
sS'acrefmodhead'
p961
S'\xe0\xa4\x95\xe0\xa5\x8d\xe0\xa4\xb7\xe0\xa5\x87\xe0\xa4\xa4\xe0\xa5\x8d\xe0\xa4\xb0:m5'
p962
sS'chunkid'
p963
S'NP'
p964
sS'acrefmod'
p965
S'm5%1:i11'
p966
sS'drel'
p967
S'r6:NP2'
p968
sS'vpos'
p969
S'vib_3'
p970
sS'chunktype'
p971
S'head:NP'
p972
ssbsg26
I00
sg27
I00
sg28
Nsg29
Nsg30
I0
sg31
I2
sg32
Nsg33
Nsg34
S'NN'
p973
sg36
g952
sg37
I00
sba(issf_api
Word
p974
(dp975
g6
I00
sg7
V\u0915\u0947
p976
sg9
(issf_api
FeatureSet
p977
(dp978
g12
(dp979
S'posn'
p980
S'30'
p981
sS'name'
p982
S'\xe0\xa4\x95\xe0\xa5\x87'
p983
sS'drel'
p984
S'lwg__psp:NP'
p985
sS'chunktype'
p986
S'child:NP'
p987
sS'af'
p988
S'\xe0\xa4\x95\xe0\xa4\xbe,psp,m,sg,,o,,'
p989
ssbsg26
I00
sg27
I00
sg28
Nsg29
Nsg30
I0
sg31
I2
sg32
Nsg33
Nsg34
S'PSP'
p990
sg36
g977
sg37
I00
sba(issf_api
Word
p991
(dp992
g6
I00
sg7
V\u0905\u0924\u093f\u0930\u093f\u0915\u094d\u0924
p993
sg9
(issf_api
FeatureSet
p994
(dp995
g12
(dp996
S'posn'
p997
S'40'
p998
sS'name'
p999
S'\xe0\xa4\x85\xe0\xa4\xa4\xe0\xa4\xbf\xe0\xa4\xb0\xe0\xa4\xbf\xe0\xa4\x95\xe0\xa5\x8d\xe0\xa4\xa4'
p1000
sS'af'
p1001
S'\xe0\xa4\x85\xe0\xa4\xa4\xe0\xa4\xbf\xe0\xa4\xb0\xe0\xa4\xbf\xe0\xa4\x95\xe0\xa5\x8d\xe0\xa4\xa4,adj,any,any,,o,,'
p1002
sS'drel'
p1003
S'pof__cn:NP2'
p1004
sS'chunktype'
p1005
S'child:NP2'
p1006
sS'cref'
p1007
S'i11%0:t6'
p1008
ssbsg26
I00
sg27
I00
sg28
Nsg29
Nsg30
I1
sg31
I2
sg32
Nsg33
Nsg34
S'NNC'
p1009
sg36
g994
sg37
I00
sba(issf_api
Word
p1010
(dp1011
g6
I00
sg7
V\u0909\u092a\u093e\u092f\u0941\u0915\u094d\u0924
p1012
sg9
(issf_api
FeatureSet
p1013
(dp1014
g12
(dp1015
S'crefhead'
p1016
S'\xe0\xa4\x89\xe0\xa4\xaa\xe0\xa4\xbe\xe0\xa4\xaf\xe0\xa5\x81\xe0\xa4\x95\xe0\xa5\x8d\xe0\xa4\xa4:i11'
p1017
sS'posn'
p1018
S'50'
p1019
sS'name'
p1020
S'\xe0\xa4\x89\xe0\xa4\xaa\xe0\xa4\xbe\xe0\xa4\xaf\xe0\xa5\x81\xe0\xa4\x95\xe0\xa5\x8d\xe0\xa4\xa4'
p1021
sS'af'
p1022
S'\xe0\xa4\x89\xe0\xa4\xaa\xe0\xa4\xbe\xe0\xa4\xaf\xe0\xa5\x81\xe0\xa4\x95\xe0\xa5\x8d\xe0\xa4\xa4,n,m,sg,3,o,0,0'
p1023
sS'chunkid'
p1024
S'NP2'
p1025
sS'crefmod'
p1026
S'm5:i11'
p1027
sS'chunktype'
p1028
S'head:NP2'
p1029
sS'cref'
p1030
S'i11%1:t6'
p1031
sS'drel'
p1032
S'nmod:NP3'
p1033
ssbsg26
I00
sg27
I00
sg28
Nsg29
Nsg30
I1
sg31
I2
sg32
Nsg33
Nsg34
S'NN'
p1034
sg36
g1013
sg37
I00
sba(issf_api
Word
p1035
(dp1036
g6
I00
sg7
V\u092c\u093f\u092a\u093f\u0928
p1037
sg9
(issf_api
FeatureSet
p1038
(dp1039
g12
(dp1040
S'posn'
p1041
S'60'
p1042
sS'name'
p1043
S'\xe0\xa4\xac\xe0\xa4\xbf\xe0\xa4\xaa\xe0\xa4\xbf\xe0\xa4\xa8'
p1044
sS'af'
p1045
S'\xe0\xa4\xac\xe0\xa4\xbf\xe0\xa4\xaa\xe0\xa4\xbf\xe0\xa4\xa8,n,m,sg,3,d,0,0'
p1046
sS'drel'
p1047
S'pof__cn:NP3'
p1048
sS'chunktype'
p1049
S'child:NP3'
p1050
sS'cref'
p1051
S'i12%0:t6'
p1052
ssbsg26
I00
sg27
I00
sg28
Nsg29
Nsg30
I2
sg31
I2
sg32
Nsg33
Nsg34
S'NNPC'
p1053
sg36
g1038
sg37
I00
sba(issf_api
Word
p1054
(dp1055
g6
I00
sg7
V\u092c\u093f\u0939\u093e\u0930\u0940
p1056
sg9
(issf_api
FeatureSet
p1057
(dp1058
g12
(dp1059
S'crefhead'
p1060
S'\xe0\xa4\xac\xe0\xa4\xbf\xe0\xa4\xb9\xe0\xa4\xbe\xe0\xa4\xb0\xe0\xa5\x80:i12'
p1061
sS'posn'
p1062
S'70'
p1063
sS'name'
p1064
S'\xe0\xa4\xac\xe0\xa4\xbf\xe0\xa4\xb9\xe0\xa4\xbe\xe0\xa4\xb0\xe0\xa5\x80'
p1065
sS'af'
p1066
S'\xe0\xa4\xac\xe0\xa4\xbf\xe0\xa4\xb9\xe0\xa4\xbe\xe0\xa4\xb0\xe0\xa5\x80,n,m,sg,3,o,0_\xe0\xa4\xa8\xe0\xa5\x87,0'
p1067
sS'chunkid'
p1068
S'NP3'
p1069
sS'creftype'
p1070
S'Coreference-NounComplement:i11'
p1071
sS'chunktype'
p1072
S'head:NP3'
p1073
sS'crefchainhead'
p1074
S'i12:t6'
p1075
sS'vpos'
p1076
S'vib_3'
p1077
sS'cref'
p1078
S'i12%1:t6'
p1079
sS'drel'
p1080
S'k1:VGF'
p1081
ssbsg26
I00
sg27
I00
sg28
Nsg29
Nsg30
I2
sg31
I2
sg32
Nsg33
Nsg34
S'NNP'
p1082
sg36
g1057
sg37
I00
sba(issf_api
Word
p1083
(dp1084
g6
I00
sg7
V\u0928\u0947
p1085
sg9
(issf_api
FeatureSet
p1086
(dp1087
g12
(dp1088
S'posn'
p1089
S'80'
p1090
sS'name'
p1091
S'\xe0\xa4\xa8\xe0\xa5\x87'
p1092
sS'drel'
p1093
S'lwg__psp:NP3'
p1094
sS'chunktype'
p1095
S'child:NP3'
p1096
sS'af'
p1097
S'\xe0\xa4\xa8\xe0\xa5\x87,psp,,,,,,'
p1098
ssbsg26
I00
sg27
I00
sg28
Nsg29
Nsg30
I2
sg31
I2
sg32
Nsg33
Nsg34
S'PSP'
p1099
sg36
g1086
sg37
I00
sba(issf_api
Word
p1100
(dp1101
g6
I00
sg7
V\u092c\u0924\u093e\u092f\u093e
p1102
sg9
(issf_api
FeatureSet
p1103
(dp1104
g12
(dp1105
S'posn'
p1106
S'90'
p1107
sS'name'
p1108
S'\xe0\xa4\xac\xe0\xa4\xa4\xe0\xa4\xbe\xe0\xa4\xaf\xe0\xa4\xbe'
p1109
sS'af'
p1110
S'\xe0\xa4\xac\xe0\xa4\xa4\xe0\xa4\xbe,v,m,sg,any,,\xe0\xa4\xaf\xe0\xa4\xbe,yA'
p1111
sS'chunkid'
p1112
S'VGF'
p1113
sS'chunktype'
p1114
S'head:VGF'
p1115
sS'voicetype'
p1116
S'active'
p1117
sS'stype'
p1118
S'declarative'
p1119
ssbsg26
I00
sg27
I00
sg28
Nsg29
Nsg30
I3
sg31
I2
sg32
Nsg33
Nsg34
S'VM'
p1120
sg36
g1103
sg37
I00
sba(issf_api
Word
p1121
(dp1122
g6
I00
sg7
V\u0915\u093f
p1123
sg9
(issf_api
FeatureSet
p1124
(dp1125
g12
(dp1126
S'posn'
p1127
S'100'
p1128
sS'name'
p1129
S'\xe0\xa4\x95\xe0\xa4\xbf'
p1130
sS'af'
p1131
S'\xe0\xa4\x95\xe0\xa4\xbf,avy,,,,,,'
p1132
sS'chunkid'
p1133
S'CCP'
p1134
sS'drel'
p1135
S'k2:VGF'
p1136
sS'chunktype'
p1137
S'head:CCP'
p1138
ssbsg26
I00
sg27
I00
sg28
Nsg29
Nsg30
I4
sg31
I2
sg32
Nsg33
Nsg34
S'CC'
p1139
sg36
g1124
sg37
I00
sba(issf_api
Word
p1140
(dp1141
g6
I00
sg7
V\u092a\u094d\u0930\u0925\u092e
p1142
sg9
(issf_api
FeatureSet
p1143
(dp1144
g12
(dp1145
S'posn'
p1146
S'110'
p1147
sS'name'
p1148
S'\xe0\xa4\xaa\xe0\xa5\x8d\xe0\xa4\xb0\xe0\xa4\xa5\xe0\xa4\xae'
p1149
sS'drel'
p1150
S'nmod__adj:NP4'
p1151
sS'chunktype'
p1152
S'child:NP4'
p1153
sS'af'
p1154
S'\xe0\xa4\xaa\xe0\xa5\x8d\xe0\xa4\xb0\xe0\xa4\xa5\xe0\xa4\xae,num,any,any,,any,,'
p1155
ssbsg26
I00
sg27
I00
sg28
Nsg29
Nsg30
I5
sg31
I2
sg32
Nsg33
Nsg34
S'QO'
p1156
sg36
g1143
sg37
I00
sba(issf_api
Word
p1157
(dp1158
g6
I00
sg7
V\u0926\u0943\u0937\u094d\u091f\u093f
p1159
sg9
(issf_api
FeatureSet
p1160
(dp1161
g12
(dp1162
S'posn'
p1163
S'120'
p1164
sS'name'
p1165
S'\xe0\xa4\xa6\xe0\xa5\x83\xe0\xa4\xb7\xe0\xa5\x8d\xe0\xa4\x9f\xe0\xa4\xbf'
p1166
sS'af'
p1167
S'\xe0\xa4\xa6\xe0\xa5\x83\xe0\xa4\xb7\xe0\xa5\x8d\xe0\xa4\x9f\xe0\xa4\xbf,n,f,sg,3,o,0_\xe0\xa4\xb8\xe0\xa5\x87,0'
p1168
sS'chunkid'
p1169
S'NP4'
p1170
sS'drel'
p1171
S'adv:VGNF'
p1172
sS'vpos'
p1173
S'vib_3'
p1174
sS'chunktype'
p1175
S'head:NP4'
p1176
ssbsg26
I00
sg27
I00
sg28
Nsg29
Nsg30
I5
sg31
I2
sg32
Nsg33
Nsg34
S'NN'
p1177
sg36
g1160
sg37
I00
sba(issf_api
Word
p1178
(dp1179
g6
I00
sg7
V\u0938\u0947
p1180
sg9
(issf_api
FeatureSet
p1181
(dp1182
g12
(dp1183
S'posn'
p1184
S'130'
p1185
sS'name'
p1186
S'\xe0\xa4\xb8\xe0\xa5\x87'
p1187
sS'drel'
p1188
S'lwg__psp:NP4'
p1189
sS'chunktype'
p1190
S'child:NP4'
p1191
sS'af'
p1192
S'\xe0\xa4\xb8\xe0\xa5\x87,psp,,,,,,'
p1193
ssbsg26
I00
sg27
I00
sg28
Nsg29
Nsg30
I5
sg31
I2
sg32
Nsg33
Nsg34
S'PSP'
p1194
sg36
g1181
sg37
I00
sba(issf_api
Word
p1195
(dp1196
g6
I00
sg7
V\u0926\u0947\u0935\u0947\u0928\u094d\u0926\u094d\u0930
p1197
sg9
(issf_api
FeatureSet
p1198
(dp1199
g12
(dp1200
S'posn'
p1201
S'140'
p1202
sS'name'
p1203
S'\xe0\xa4\xa6\xe0\xa5\x87\xe0\xa4\xb5\xe0\xa5\x87\xe0\xa4\xa8\xe0\xa5\x8d\xe0\xa4\xa6\xe0\xa5\x8d\xe0\xa4\xb0'
p1204
sS'af'
p1205
S'\xe0\xa4\xa6\xe0\xa5\x87\xe0\xa4\xb5\xe0\xa5\x87\xe0\xa4\xa8\xe0\xa5\x8d\xe0\xa4\xa6\xe0\xa5\x8d\xe0\xa4\xb0,n,m,sg,3,d,0,0'
p1206
sS'drel'
p1207
S'pof__cn:NP5'
p1208
sS'chunktype'
p1209
S'child:NP5'
p1210
sS'cref'
p1211
S'i13%0:t2'
p1212
ssbsg26
I00
sg27
I00
sg28
Nsg29
Nsg30
I6
sg31
I2
sg32
Nsg33
Nsg34
S'NNPC'
p1213
sg36
g1198
sg37
I00
sba(issf_api
Word
p1214
(dp1215
g6
I00
sg7
V\u091c\u0917\u0924\u093e\u092a
p1216
sg9
(issf_api
FeatureSet
p1217
(dp1218
g12
(dp1219
S'crefhead'
p1220
S'\xe0\xa4\x9c\xe0\xa4\x97\xe0\xa4\xa4\xe0\xa4\xbe\xe0\xa4\xaa:i13'
p1221
sS'posn'
p1222
S'150'
p1223
sS'name'
p1224
S'\xe0\xa4\x9c\xe0\xa4\x97\xe0\xa4\xa4\xe0\xa4\xbe\xe0\xa4\xaa'
p1225
sS'af'
p1226
S'\xe0\xa4\x9c\xe0\xa4\x97\xe0\xa4\xa4\xe0\xa4\xbe\xe0\xa4\xaa,n,m,sg,3,d,0,0'
p1227
sS'chunkid'
p1228
S'NP5'
p1229
sS'creftype'
p1230
S'Coreference-PartOf:i7'
p1231
sS'chunktype'
p1232
S'head:NP5'
p1233
sS'crefchainhead'
p1234
S'i13:t2'
p1235
sS'cref'
p1236
S'i13%1:t2'
p1237
sS'drel'
p1238
S'nmod:NP6'
p1239
ssbsg26
I00
sg27
I00
sg28
Nsg29
Nsg30
I6
sg31
I2
sg32
Nsg33
Nsg34
S'NNP'
p1240
sg36
g1217
sg37
I00
sba(issf_api
Word
p1241
(dp1242
g6
I00
sg7
V\u0909\u0930\u094d\u092b
p1243
sg9
(issf_api
FeatureSet
p1244
(dp1245
g12
(dp1246
S'posn'
p1247
S'160'
p1248
sS'name'
p1249
S'\xe0\xa4\x89\xe0\xa4\xb0\xe0\xa5\x8d\xe0\xa4\xab'
p1250
sS'drel'
p1251
S'lwg__rp:NP6'
p1252
sS'chunktype'
p1253
S'child:NP6'
p1254
sS'af'
p1255
S'\xe0\xa4\x89\xe0\xa4\xb0\xe0\xa5\x8d\xe0\xa4\xab,avy,,,,,,'
p1256
ssbsg26
I00
sg27
I00
sg28
Nsg29
Nsg30
I7
sg31
I2
sg32
Nsg33
Nsg34
S'RP'
p1257
sg36
g1244
sg37
I00
sba(issf_api
Word
p1258
(dp1259
g6
I00
sg7
V\u091c\u0947.
p1260
sg9
(issf_api
FeatureSet
p1261
(dp1262
g12
(dp1263
S'posn'
p1264
S'170'
p1265
sS'name'
p1266
S'\xe0\xa4\x9c\xe0\xa5\x87.'
p1267
sS'af'
p1268
S'\xe0\xa4\x9c\xe0\xa5\x87.,n,m,sg,3,d,0,0'
p1269
sS'drel'
p1270
S'pof__cn:NP6'
p1271
sS'chunktype'
p1272
S'child:NP6'
p1273
sS'cref'
p1274
S'i14%0:t2'
p1275
ssbsg26
I00
sg27
I00
sg28
Nsg29
Nsg30
I7
sg31
I2
sg32
Nsg33
Nsg34
S'NNPC'
p1276
sg36
g1261
sg37
I00
sba(issf_api
Word
p1277
(dp1278
g6
I00
sg7
V\u0921\u0940.
p1279
sg9
(issf_api
FeatureSet
p1280
(dp1281
g12
(dp1282
S'crefhead'
p1283
S'\xe0\xa4\xa1\xe0\xa5\x80.:i14'
p1284
sS'posn'
p1285
S'180'
p1286
sS'name'
p1287
S'\xe0\xa4\xa1\xe0\xa5\x80.'
p1288
sS'af'
p1289
S'\xe0\xa4\xa1\xe0\xa5\x80.,n,m,sg,3,d,0,0'
p1290
sS'chunkid'
p1291
S'NP6'
p1292
sS'creftype'
p1293
S'Coreference-Noun-Noun:i13'
p1294
sS'chunktype'
p1295
S'head:NP6'
p1296
sS'cref'
p1297
S'i14%1:t2'
p1298
sS'drel'
p1299
S'ccof:CCP2'
p1300
ssbsg26
I00
sg27
I00
sg28
Nsg29
Nsg30
I7
sg31
I2
sg32
Nsg33
Nsg34
S'NNP'
p1301
sg36
g1280
sg37
I00
sba(issf_api
Word
p1302
(dp1303
g6
I00
sg7
V,
p1304
sg9
(issf_api
FeatureSet
p1305
(dp1306
g12
(dp1307
S'posn'
p1308
S'190'
p1309
sS'name'
p1310
S','
p1311
sS'drel'
p1312
S'rsym:NP6'
p1313
sS'chunktype'
p1314
S'child:NP6'
p1315
sS'af'
p1316
S'COMMA,punc,,,,,,'
p1317
ssbsg26
I00
sg27
I00
sg28
Nsg29
Nsg30
I7
sg31
I2
sg32
Nsg33
Nsg34
S'SYM'
p1318
sg36
g1305
sg37
I00
sba(issf_api
Word
p1319
(dp1320
g6
I00
sg7
V\u0928\u0930\u0947\u0936
p1321
sg9
(issf_api
FeatureSet
p1322
(dp1323
g12
(dp1324
S'posn'
p1325
S'200'
p1326
sS'name'
p1327
S'\xe0\xa4\xa8\xe0\xa4\xb0\xe0\xa5\x87\xe0\xa4\xb6'
p1328
sS'af'
p1329
S'\xe0\xa4\xa8\xe0\xa4\xb0\xe0\xa5\x87\xe0\xa4\xb6,n,m,sg,3,d,0,0'
p1330
sS'drel'
p1331
S'pof__cn:NP7'
p1332
sS'chunktype'
p1333
S'child:NP7'
p1334
sS'cref'
p1335
S'i15%0:t3'
p1336
ssbsg26
I00
sg27
I00
sg28
Nsg29
Nsg30
I8
sg31
I2
sg32
Nsg33
Nsg34
S'NNPC'
p1337
sg36
g1322
sg37
I00
sba(issf_api
Word
p1338
(dp1339
g6
I00
sg7
V\u0939\u0941\u0915\u0941\u092e\u091a\u0902\u0926
p1340
sg9
(issf_api
FeatureSet
p1341
(dp1342
g12
(dp1343
S'crefhead'
p1344
S'\xe0\xa4\xb9\xe0\xa5\x81\xe0\xa4\x95\xe0\xa5\x81\xe0\xa4\xae\xe0\xa4\x9a\xe0\xa4\x82\xe0\xa4\xa6:i15'
p1345
sS'posn'
p1346
S'210'
p1347
sS'name'
p1348
S'\xe0\xa4\xb9\xe0\xa5\x81\xe0\xa4\x95\xe0\xa5\x81\xe0\xa4\xae\xe0\xa4\x9a\xe0\xa4\x82\xe0\xa4\xa6'
p1349
sS'af'
p1350
S'\xe0\xa4\xb9\xe0\xa5\x81\xe0\xa4\x95\xe0\xa5\x81\xe0\xa4\xae\xe0\xa4\x9a\xe0\xa4\x82\xe0\xa4\xa6,n,m,sg,3,d,0,0'
p1351
sS'chunkid'
p1352
S'NP7'
p1353
sS'creftype'
p1354
S'Coreference-PartOf:i8'
p1355
sS'chunktype'
p1356
S'head:NP7'
p1357
sS'crefchainhead'
p1358
S'i15:t3'
p1359
sS'cref'
p1360
S'i15%1:t3'
p1361
sS'drel'
p1362
S'nmod:NP8'
p1363
ssbsg26
I00
sg27
I00
sg28
Nsg29
Nsg30
I8
sg31
I2
sg32
Nsg33
Nsg34
S'NNP'
p1364
sg36
g1341
sg37
I00
sba(issf_api
Word
p1365
(dp1366
g6
I00
sg7
V\u0909\u0930\u094d\u092b
p1367
sg9
(issf_api
FeatureSet
p1368
(dp1369
g12
(dp1370
S'posn'
p1371
S'220'
p1372
sS'name'
p1373
S'\xe0\xa4\x89\xe0\xa4\xb0\xe0\xa5\x8d\xe0\xa4\xab2'
p1374
sS'drel'
p1375
S'lwg__rp:NP8'
p1376
sS'chunktype'
p1377
S'child:NP8'
p1378
sS'af'
p1379
S'\xe0\xa4\x89\xe0\xa4\xb0\xe0\xa5\x8d\xe0\xa4\xab,avy,,,,,,'
p1380
ssbsg26
I00
sg27
I00
sg28
Nsg29
Nsg30
I9
sg31
I2
sg32
Nsg33
Nsg34
S'RP'
p1381
sg36
g1368
sg37
I00
sba(issf_api
Word
p1382
(dp1383
g6
I00
sg7
V\u0915\u093e\u0932\u093f\u092f\u093e
p1384
sg9
(issf_api
FeatureSet
p1385
(dp1386
g12
(dp1387
S'crefhead'
p1388
S'\xe0\xa4\x95\xe0\xa4\xbe\xe0\xa4\xb2\xe0\xa4\xbf\xe0\xa4\xaf\xe0\xa4\xbe:i16'
p1389
sS'posn'
p1390
S'230'
p1391
sS'name'
p1392
S'\xe0\xa4\x95\xe0\xa4\xbe\xe0\xa4\xb2\xe0\xa4\xbf\xe0\xa4\xaf\xe0\xa4\xbe'
p1393
sS'af'
p1394
S'\xe0\xa4\x95\xe0\xa4\xbe\xe0\xa4\xb2\xe0\xa4\xbf\xe0\xa4\xaf\xe0\xa4\xbe,n,m,sg,3,d,0,0'
p1395
sS'chunkid'
p1396
S'NP8'
p1397
sS'creftype'
p1398
S'Coreference-Noun-Noun:i15'
p1399
sS'chunktype'
p1400
S'head:NP8'
p1401
sS'cref'
p1402
S'i16%1:t3'
p1403
sS'drel'
p1404
S'ccof:CCP2'
p1405
ssbsg26
I00
sg27
I00
sg28
Nsg29
Nsg30
I9
sg31
I2
sg32
Nsg33
Nsg34
S'NNP'
p1406
sg36
g1385
sg37
I00
sba(issf_api
Word
p1407
(dp1408
g6
I00
sg7
V,
p1409
sg9
(issf_api
FeatureSet
p1410
(dp1411
g12
(dp1412
S'posn'
p1413
S'240'
p1414
sS'name'
p1415
S',2'
p1416
sS'drel'
p1417
S'rsym:NP8'
p1418
sS'chunktype'
p1419
S'child:NP8'
p1420
sS'af'
p1421
S'COMMA,punc,,,,,,'
p1422
ssbsg26
I00
sg27
I00
sg28
Nsg29
Nsg30
I9
sg31
I2
sg32
Nsg33
Nsg34
S'SYM'
p1423
sg36
g1410
sg37
I00
sba(issf_api
Word
p1424
(dp1425
g6
I00
sg7
V\u0938\u0930\u0926\u093e\u0930
p1426
sg9
(issf_api
FeatureSet
p1427
(dp1428
g12
(dp1429
S'posn'
p1430
S'250'
p1431
sS'name'
p1432
S'\xe0\xa4\xb8\xe0\xa4\xb0\xe0\xa4\xa6\xe0\xa4\xbe\xe0\xa4\xb0'
p1433
sS'af'
p1434
S'\xe0\xa4\xb8\xe0\xa4\xb0\xe0\xa4\xa6\xe0\xa4\xbe\xe0\xa4\xb0,n,m,sg,3,d,0,0'
p1435
sS'drel'
p1436
S'pof__cn:NP9'
p1437
sS'chunktype'
p1438
S'child:NP9'
p1439
sS'cref'
p1440
S'i17%0:t4'
p1441
ssbsg26
I00
sg27
I00
sg28
Nsg29
Nsg30
I10
sg31
I2
sg32
Nsg33
Nsg34
S'NNC'
p1442
sg36
g1427
sg37
I00
sba(issf_api
Word
p1443
(dp1444
g6
I00
sg7
V\u0916\u093e\u0928
p1445
sg9
(issf_api
FeatureSet
p1446
(dp1447
g12
(dp1448
S'crefhead'
p1449
S'\xe0\xa4\x96\xe0\xa4\xbe\xe0\xa4\xa8:i17'
p1450
sS'posn'
p1451
S'260'
p1452
sS'name'
p1453
S'\xe0\xa4\x96\xe0\xa4\xbe\xe0\xa4\xa8'
p1454
sS'af'
p1455
S'\xe0\xa4\x96\xe0\xa4\xbe\xe0\xa4\xa8,n,m,sg,3,d,0,0'
p1456
sS'chunkid'
p1457
S'NP9'
p1458
sS'creftype'
p1459
S'Coreference-PartOf:i9'
p1460
sS'chunktype'
p1461
S'head:NP9'
p1462
sS'crefchainhead'
p1463
S'i17:t4'
p1464
sS'cref'
p1465
S'i17%1:t4'
p1466
sS'drel'
p1467
S'nmod:NP10'
p1468
ssbsg26
I00
sg27
I00
sg28
Nsg29
Nsg30
I10
sg31
I2
sg32
Nsg33
Nsg34
S'NNP'
p1469
sg36
g1446
sg37
I00
sba(issf_api
Word
p1470
(dp1471
g6
I00
sg7
V\u0909\u0930\u094d\u092b
p1472
sg9
(issf_api
FeatureSet
p1473
(dp1474
g12
(dp1475
S'posn'
p1476
S'270'
p1477
sS'name'
p1478
S'\xe0\xa4\x89\xe0\xa4\xb0\xe0\xa5\x8d\xe0\xa4\xab3'
p1479
sS'drel'
p1480
S'lwg__rp:NP10'
p1481
sS'chunktype'
p1482
S'child:NP10'
p1483
sS'af'
p1484
S'\xe0\xa4\x89\xe0\xa4\xb0\xe0\xa5\x8d\xe0\xa4\xab,avy,,,,,,'
p1485
ssbsg26
I00
sg27
I00
sg28
Nsg29
Nsg30
I11
sg31
I2
sg32
Nsg33
Nsg34
S'RP'
p1486
sg36
g1473
sg37
I00
sba(issf_api
Word
p1487
(dp1488
g6
I00
sg7
V\u0936\u0915\u0940\u0932
p1489
sg9
(issf_api
FeatureSet
p1490
(dp1491
g12
(dp1492
S'crefhead'
p1493
S'\xe0\xa4\xb6\xe0\xa4\x95\xe0\xa5\x80\xe0\xa4\xb2:i18'
p1494
sS'posn'
p1495
S'280'
p1496
sS'name'
p1497
S'\xe0\xa4\xb6\xe0\xa4\x95\xe0\xa5\x80\xe0\xa4\xb2'
p1498
sS'af'
p1499
S'\xe0\xa4\xb6\xe0\xa4\x95\xe0\xa5\x80\xe0\xa4\xb2,n,m,sg,3,d,0,0'
p1500
sS'chunkid'
p1501
S'NP10'
p1502
sS'creftype'
p1503
S'Coreference-Noun-Noun:i17'
p1504
sS'chunktype'
p1505
S'head:NP10'
p1506
sS'cref'
p1507
S'i18%1:t4'
p1508
sS'drel'
p1509
S'ccof:CCP2'
p1510
ssbsg26
I00
sg27
I00
sg28
Nsg29
Nsg30
I11
sg31
I2
sg32
Nsg33
Nsg34
S'NNP'
p1511
sg36
g1490
sg37
I00
sba(issf_api
Word
p1512
(dp1513
g6
I00
sg7
V\u0914\u0930
p1514
sg9
(issf_api
FeatureSet
p1515
(dp1516
g12
(dp1517
S'posn'
p1518
S'290'
p1519
sS'name'
p1520
S'\xe0\xa4\x94\xe0\xa4\xb0'
p1521
sS'af'
p1522
S'\xe0\xa4\x94\xe0\xa4\xb0,avy,,,,,,'
p1523
sS'chunkid'
p1524
S'CCP2'
p1525
sS'drel'
p1526
S'k1:VGF2'
p1527
sS'chunktype'
p1528
S'head:CCP2'
p1529
ssbsg26
I00
sg27
I00
sg28
Nsg29
Nsg30
I12
sg31
I2
sg32
Nsg33
Nsg34
S'CC'
p1530
sg36
g1515
sg37
I00
sba(issf_api
Word
p1531
(dp1532
g6
I00
sg7
V\u0938\u092c\u0940\u0930
p1533
sg9
(issf_api
FeatureSet
p1534
(dp1535
g12
(dp1536
S'posn'
p1537
S'300'
p1538
sS'name'
p1539
S'\xe0\xa4\xb8\xe0\xa4\xac\xe0\xa5\x80\xe0\xa4\xb0'
p1540
sS'af'
p1541
S'\xe0\xa4\xb8\xe0\xa4\xac\xe0\xa5\x80\xe0\xa4\xb0,n,m,sg,3,d,0,0'
p1542
sS'drel'
p1543
S'pof__cn:NP11'
p1544
sS'chunktype'
p1545
S'child:NP11'
p1546
sS'cref'
p1547
S'i19%0:t5'
p1548
ssbsg26
I00
sg27
I00
sg28
Nsg29
Nsg30
I13
sg31
I2
sg32
Nsg33
Nsg34
S'NNPC'
p1549
sg36
g1534
sg37
I00
sba(issf_api
Word
p1550
(dp1551
g6
I00
sg7
V\u0916\u093e\u0928
p1552
sg9
(issf_api
FeatureSet
p1553
(dp1554
g12
(dp1555
S'crefhead'
p1556
S'\xe0\xa4\x96\xe0\xa4\xbe\xe0\xa4\xa8:i19'
p1557
sS'posn'
p1558
S'310'
p1559
sS'name'
p1560
S'\xe0\xa4\x96\xe0\xa4\xbe\xe0\xa4\xa82'
p1561
sS'af'
p1562
S'\xe0\xa4\x96\xe0\xa4\xbe\xe0\xa4\xa8,n,m,sg,3,d,0,0'
p1563
sS'chunkid'
p1564
S'NP11'
p1565
sS'creftype'
p1566
S'Coreference-PartOf:i10'
p1567
sS'chunktype'
p1568
S'head:NP11'
p1569
sS'crefchainhead'
p1570
S'i19:t5'
p1571
sS'cref'
p1572
S'i19%1:t5'
p1573
sS'drel'
p1574
S'ccof:CCP2'
p1575
ssbsg26
I00
sg27
I00
sg28
Nsg29
Nsg30
I13
sg31
I2
sg32
Nsg33
Nsg34
S'NNP'
p1576
sg36
g1553
sg37
I00
sba(issf_api
Word
p1577
(dp1578
g6
I00
sg7
V\u091b\u094b\u091f\u093e
p1579
sg9
(issf_api
FeatureSet
p1580
(dp1581
g12
(dp1582
S'posn'
p1583
S'320'
p1584
sS'name'
p1585
S'\xe0\xa4\x9b\xe0\xa5\x8b\xe0\xa4\x9f\xe0\xa4\xbe'
p1586
sS'af'
p1587
S'\xe0\xa4\x9b\xe0\xa5\x8b\xe0\xa4\x9f\xe0\xa4\xbe,n,m,sg,3,d,0,0'
p1588
sS'drel'
p1589
S'pof__cn:NP12'
p1590
sS'chunktype'
p1591
S'child:NP12'
p1592
sS'cref'
p1593
S'i20%0:t1'
p1594
ssbsg26
I00
sg27
I00
sg28
Nsg29
Nsg30
I14
sg31
I2
sg32
Nsg33
Nsg34
S'NNPC'
p1595
sg36
g1580
sg37
I00
sba(issf_api
Word
p1596
(dp1597
g6
I00
sg7
V\u0930\u093e\u091c\u0928
p1598
sg9
(issf_api
FeatureSet
p1599
(dp1600
g12
(dp1601
S'posn'
p1602
S'330'
p1603
sS'name'
p1604
S'\xe0\xa4\xb0\xe0\xa4\xbe\xe0\xa4\x9c\xe0\xa4\xa8'
p1605
sS'af'
p1606
S'\xe0\xa4\xb0\xe0\xa4\xbe\xe0\xa4\x9c\xe0\xa4\xa8,n,m,sg,3,d,0,0'
p1607
sS'drel'
p1608
S'pof__cn:NP12'
p1609
sS'chunktype'
p1610
S'child:NP12'
p1611
sS'cref'
p1612
S'i20%0:t1'
p1613
ssbsg26
I00
sg27
I00
sg28
Nsg29
Nsg30
I14
sg31
I2
sg32
Nsg33
Nsg34
S'NNPC'
p1614
sg36
g1599
sg37
I00
sba(issf_api
Word
p1615
(dp1616
g6
I00
sg7
V\u0917\u093f\u0930\u094b\u0939
p1617
sg9
(issf_api
FeatureSet
p1618
(dp1619
g12
(dp1620
S'crefhead'
p1621
S'\xe0\xa4\x97\xe0\xa4\xbf\xe0\xa4\xb0\xe0\xa5\x8b\xe0\xa4\xb9:i20'
p1622
sS'posn'
p1623
S'340'
p1624
sS'name'
p1625
S'\xe0\xa4\x97\xe0\xa4\xbf\xe0\xa4\xb0\xe0\xa5\x8b\xe0\xa4\xb9'
p1626
sS'af'
p1627
S'\xe0\xa4\x97\xe0\xa4\xbf\xe0\xa4\xb0\xe0\xa5\x8b\xe0\xa4\xb9,n,m,sg,3,o,0_\xe0\xa4\xb8\xe0\xa5\x87,0'
p1628
sS'chunkid'
p1629
S'NP12'
p1630
sS'creftype'
p1631
S'Coreference-Identity:i2'
p1632
sS'chunktype'
p1633
S'head:NP12'
p1634
sS'vpos'
p1635
S'vib_4'
p1636
sS'cref'
p1637
S'i20%1:t1'
p1638
sS'drel'
p1639
S'ras-k1:VGNF'
p1640
ssbsg26
I00
sg27
I00
sg28
Nsg29
Nsg30
I14
sg31
I2
sg32
Nsg33
Nsg34
S'NN'
p1641
sg36
g1618
sg37
I00
sba(issf_api
Word
p1642
(dp1643
g6
I00
sg7
V\u0938\u0947
p1644
sg9
(issf_api
FeatureSet
p1645
(dp1646
g12
(dp1647
S'posn'
p1648
S'350'
p1649
sS'name'
p1650
S'\xe0\xa4\xb8\xe0\xa5\x872'
p1651
sS'drel'
p1652
S'lwg__psp:NP12'
p1653
sS'chunktype'
p1654
S'child:NP12'
p1655
sS'af'
p1656
S'\xe0\xa4\xb8\xe0\xa5\x87,psp,,,,,,'
p1657
ssbsg26
I00
sg27
I00
sg28
Nsg29
Nsg30
I14
sg31
I2
sg32
Nsg33
Nsg34
S'PSP'
p1658
sg36
g1645
sg37
I00
sba(issf_api
Word
p1659
(dp1660
g6
I00
sg7
V\u091c\u0941\u0921\u093c\u0947
p1661
sg9
(issf_api
FeatureSet
p1662
(dp1663
g12
(dp1664
S'posn'
p1665
S'360'
p1666
sS'name'
p1667
S'\xe0\xa4\x9c\xe0\xa5\x81\xe0\xa4\xa1\xe0\xa4\xbc\xe0\xa5\x87'
p1668
sS'af'
p1669
S'\xe0\xa4\x9c\xe0\xa5\x81\xe0\xa4\xa1\xe0\xa4\xbc,v,m,pl,any,,\xe0\xa4\xaf\xe0\xa4\xbe,yA'
p1670
sS'chunkid'
p1671
S'VGNF'
p1672
sS'drel'
p1673
S'vmod:VGF2'
p1674
sS'chunktype'
p1675
S'head:VGNF'
p1676
ssbsg26
I00
sg27
I00
sg28
Nsg29
Nsg30
I15
sg31
I2
sg32
Nsg33
Nsg34
S'VM'
p1677
sg36
g1662
sg37
I00
sba(issf_api
Word
p1678
(dp1679
g6
I00
sg7
V\u092e\u093e\u0932\u0942\u092e
p1680
sg9
(issf_api
FeatureSet
p1681
(dp1682
g12
(dp1683
S'posn'
p1684
S'370'
p1685
sS'name'
p1686
S'\xe0\xa4\xae\xe0\xa4\xbe\xe0\xa4\xb2\xe0\xa5\x82\xe0\xa4\xae'
p1687
sS'af'
p1688
S'\xe0\xa4\xae\xe0\xa4\xbe\xe0\xa4\xb2\xe0\xa5\x82\xe0\xa4\xae,adj,any,any,,,,'
p1689
sS'chunkid'
p1690
S'JJP'
p1691
sS'drel'
p1692
S'pof:VGF2'
p1693
sS'chunktype'
p1694
S'head:JJP'
p1695
ssbsg26
I00
sg27
I00
sg28
Nsg29
Nsg30
I16
sg31
I2
sg32
Nsg33
Nsg34
S'JJ'
p1696
sg36
g1681
sg37
I00
sba(issf_api
Word
p1697
(dp1698
g6
I00
sg7
V\u0939\u094b\u0924\u0947
p1699
sg9
(issf_api
FeatureSet
p1700
(dp1701
g12
(dp1702
S'posn'
p1703
S'380'
p1704
sS'name'
p1705
S'\xe0\xa4\xb9\xe0\xa5\x8b\xe0\xa4\xa4\xe0\xa5\x87'
p1706
sS'af'
p1707
S'\xe0\xa4\xb9\xe0\xa5\x8b,v,m,pl,3,,\xe0\xa4\xa4\xe0\xa4\xbe_\xe0\xa4\xb9\xe0\xa5\x88,wA'
p1708
sS'chunkid'
p1709
S'VGF2'
p1710
sS'stype'
p1711
S'declarative'
p1712
sS'drel'
p1713
S'ccof:CCP'
p1714
sS'voicetype'
p1715
S'active'
p1716
sS'vpos'
p1717
S'tam_2'
p1718
sS'chunktype'
p1719
S'head:VGF2'
p1720
ssbsg26
I00
sg27
I00
sg28
Nsg29
Nsg30
I17
sg31
I2
sg32
Nsg33
Nsg34
S'VM'
p1721
sg36
g1700
sg37
I00
sba(issf_api
Word
p1722
(dp1723
g6
I00
sg7
V\u0939\u0948\u0902
p1724
sg9
(issf_api
FeatureSet
p1725
(dp1726
g12
(dp1727
S'posn'
p1728
S'390'
p1729
sS'name'
p1730
S'\xe0\xa4\xb9\xe0\xa5\x88\xe0\xa4\x82'
p1731
sS'drel'
p1732
S'lwg__vaux:VGF2'
p1733
sS'chunktype'
p1734
S'child:VGF2'
p1735
sS'af'
p1736
S'\xe0\xa4\xb9\xe0\xa5\x88,v,any,pl,3,,\xe0\xa4\xb9\xe0\xa5\x88,hE'
p1737
ssbsg26
I00
sg27
I00
sg28
Nsg29
Nsg30
I17
sg31
I2
sg32
Nsg33
Nsg34
S'VAUX'
p1738
sg36
g1725
sg37
I00
sba(issf_api
Word
p1739
(dp1740
g6
I00
sg7
V\u0964
p1741
sg9
(issf_api
FeatureSet
p1742
(dp1743
g12
(dp1744
S'posn'
p1745
S'400'
p1746
sS'name'
p1747
S'\xe0\xa5\xa4'
p1748
sS'af'
p1749
S'\xe0\xa5\xa4,punc,,,,,,'
p1750
sS'chunkid'
p1751
S'BLK'
p1752
sS'drel'
p1753
S'rsym:VGF'
p1754
sS'chunktype'
p1755
S'head:BLK'
p1756
ssbsg26
I00
sg27
I00
sg28
Nsg29
Nsg30
I18
sg31
I2
sg32
Nsg33
Nsg34
S'SYM'
p1757
sg36
g1742
sg37
I00
sba(issf_api
Word
p1758
(dp1759
g6
I00
sg7
V\u0909\u0928\u094d\u0939\u094b\u0902\u0928\u0947
p1760
sg9
(issf_api
FeatureSet
p1761
(dp1762
g12
(dp1763
S'crefhead'
p1764
S'\xe0\xa4\x89\xe0\xa4\xa8\xe0\xa5\x8d\xe0\xa4\xb9\xe0\xa5\x8b\xe0\xa4\x82\xe0\xa4\xa8\xe0\xa5\x87:i21'
p1765
sS'posn'
p1766
S'10'
p1767
sS'name'
p1768
S'\xe0\xa4\x89\xe0\xa4\xa8\xe0\xa5\x8d\xe0\xa4\xb9\xe0\xa5\x8b\xe0\xa4\x82\xe0\xa4\xa8\xe0\xa5\x87'
p1769
sS'af'
p1770
S'\xe0\xa4\xb5\xe0\xa4\xb9,pn,any,sg,3h,o,\xe0\xa4\xa8\xe0\xa5\x87,ne'
p1771
sS'chunkid'
p1772
S'NP'
p1773
sS'creftype'
p1774
S'Anaphora-C:i12'
p1775
sS'chunktype'
p1776
S'head:NP'
p1777
sS'cref'
p1778
S'i21%1:t6'
p1779
sS'drel'
p1780
S'k1:VGF'
p1781
ssbsg26
I00
sg27
I00
sg28
Nsg29
Nsg30
I0
sg31
I3
sg32
Nsg33
Nsg34
S'PRP'
p1782
sg36
g1761
sg37
I00
sba(issf_api
Word
p1783
(dp1784
g6
I00
sg7
V\u092c\u0924\u093e\u092f\u093e
p1785
sg9
(issf_api
FeatureSet
p1786
(dp1787
g12
(dp1788
S'posn'
p1789
S'20'
p1790
sS'name'
p1791
S'\xe0\xa4\xac\xe0\xa4\xa4\xe0\xa4\xbe\xe0\xa4\xaf\xe0\xa4\xbe'
p1792
sS'af'
p1793
S'\xe0\xa4\xac\xe0\xa4\xa4\xe0\xa4\xbe,v,m,sg,any,,\xe0\xa4\xaf\xe0\xa4\xbe,yA'
p1794
sS'chunkid'
p1795
S'VGF'
p1796
sS'chunktype'
p1797
S'head:VGF'
p1798
sS'voicetype'
p1799
S'active'
p1800
sS'stype'
p1801
S'declarative'
p1802
ssbsg26
I00
sg27
I00
sg28
Nsg29
Nsg30
I1
sg31
I3
sg32
Nsg33
Nsg34
S'VM'
p1803
sg36
g1786
sg37
I00
sba(issf_api
Word
p1804
(dp1805
g6
I00
sg7
V\u0915\u093f
p1806
sg9
(issf_api
FeatureSet
p1807
(dp1808
g12
(dp1809
S'posn'
p1810
S'30'
p1811
sS'name'
p1812
S'\xe0\xa4\x95\xe0\xa4\xbf'
p1813
sS'af'
p1814
S'\xe0\xa4\x95\xe0\xa4\xbf,avy,,,,,,'
p1815
sS'chunkid'
p1816
S'CCP'
p1817
sS'drel'
p1818
S'k2:VGF'
p1819
sS'chunktype'
p1820
S'head:CCP'
p1821
ssbsg26
I00
sg27
I00
sg28
Nsg29
Nsg30
I2
sg31
I3
sg32
Nsg33
Nsg34
S'CC'
p1822
sg36
g1807
sg37
I00
sba(issf_api
Word
p1823
(dp1824
g6
I00
sg7
V\u092f\u0947
p1825
sg9
(issf_api
FeatureSet
p1826
(dp1827
g12
(dp1828
S'posn'
p1829
S'40'
p1830
sS'name'
p1831
S'\xe0\xa4\xaf\xe0\xa5\x87'
p1832
sS'af'
p1833
S'\xe0\xa4\xaf\xe0\xa4\xb9,pn,any,pl,3,d,,'
p1834
sS'drel'
p1835
S'nmod__adj:NP2'
p1836
sS'chunktype'
p1837
S'child:NP2'
p1838
sS'cref'
p1839
S'i22%0:t2,i23%0:t3,i24%0:t4,i25%0:t5'
p1840
ssbsg26
I00
sg27
I00
sg28
Nsg29
Nsg30
I3
sg31
I3
sg32
Nsg33
Nsg34
S'DEM'
p1841
sg36
g1826
sg37
I00
sba(issf_api
Word
p1842
(dp1843
g6
I00
sg7
V\u0932\u094b\u0917
p1844
sg9
(issf_api
FeatureSet
p1845
(dp1846
g12
(dp1847
S'crefhead'
p1848
S'\xe0\xa4\xb2\xe0\xa5\x8b\xe0\xa4\x97:i22,\xe0\xa4\xb2\xe0\xa5\x8b\xe0\xa4\x97:i23,\xe0\xa4\xb2\xe0\xa5\x8b\xe0\xa4\x97:i24,\xe0\xa4\xb2\xe0\xa5\x8b\xe0\xa4\x97:i25'
p1849
sS'posn'
p1850
S'50'
p1851
sS'name'
p1852
S'\xe0\xa4\xb2\xe0\xa5\x8b\xe0\xa4\x97'
p1853
sS'af'
p1854
S'\xe0\xa4\xb2\xe0\xa5\x8b\xe0\xa4\x97,n,m,pl,3,d,0,0'
p1855
sS'chunkid'
p1856
S'NP2'
p1857
sS'creftype'
p1858
S'Coreference-RPartOf:i19,Coreference-RPartOf:i18,Coreference-RPartOf:i16,Coreference-RPartOf:i14'
p1859
sS'chunktype'
p1860
S'head:NP2'
p1861
sS'cref'
p1862
S'i22%1:t2,i23%1:t3,i24%1:t4,i25%1:t5'
p1863
sS'drel'
p1864
S'k1:VGF2'
p1865
ssbsg26
I00
sg27
I00
sg28
Nsg29
Nsg30
I3
sg31
I3
sg32
Nsg33
Nsg34
S'NN'
p1866
sg36
g1845
sg37
I00
sba(issf_api
Word
p1867
(dp1868
g6
I00
sg7
V\u091c\u0941\u0939\u0942
p1869
sg9
(issf_api
FeatureSet
p1870
(dp1871
g12
(dp1872
S'posn'
p1873
S'60'
p1874
sS'name'
p1875
S'\xe0\xa4\x9c\xe0\xa5\x81\xe0\xa4\xb9\xe0\xa5\x82'
p1876
sS'af'
p1877
S'\xe0\xa4\x9c\xe0\xa5\x81\xe0\xa4\xb9\xe0\xa5\x82,n,m,sg,3,d,0,0'
p1878
sS'chunkid'
p1879
S'NP3'
p1880
sS'drel'
p1881
S'jjmod:JJP'
p1882
sS'chunktype'
p1883
S'head:NP3'
p1884
ssbsg26
I00
sg27
I00
sg28
Nsg29
Nsg30
I4
sg31
I3
sg32
Nsg33
Nsg34
S'NNP'
p1885
sg36
g1870
sg37
I00
sba(issf_api
Word
p1886
(dp1887
g6
I00
sg7
V\u0938\u094d\u0925\u093f\u0924
p1888
sg9
(issf_api
FeatureSet
p1889
(dp1890
g12
(dp1891
S'posn'
p1892
S'70'
p1893
sS'name'
p1894
S'\xe0\xa4\xb8\xe0\xa5\x8d\xe0\xa4\xa5\xe0\xa4\xbf\xe0\xa4\xa4'
p1895
sS'af'
p1896
S'\xe0\xa4\xb8\xe0\xa5\x8d\xe0\xa4\xa5\xe0\xa4\xbf\xe0\xa4\xa4,adj,any,any,,o,,'
p1897
sS'chunkid'
p1898
S'JJP'
p1899
sS'drel'
p1900
S'nmod:NP4'
p1901
sS'chunktype'
p1902
S'head:JJP'
p1903
ssbsg26
I00
sg27
I00
sg28
Nsg29
Nsg30
I5
sg31
I3
sg32
Nsg33
Nsg34
S'JJ'
p1904
sg36
g1889
sg37
I00
sba(issf_api
Word
p1905
(dp1906
g6
I00
sg7
V\u0915\u0949\u092a\u0930
p1907
sg9
(issf_api
FeatureSet
p1908
(dp1909
g12
(dp1910
S'posn'
p1911
S'80'
p1912
sS'name'
p1913
S'\xe0\xa4\x95\xe0\xa5\x89\xe0\xa4\xaa\xe0\xa4\xb0'
p1914
sS'drel'
p1915
S'pof__cn:NP4'
p1916
sS'chunktype'
p1917
S'child:NP4'
p1918
sS'af'
p1919
S'\xe0\xa4\x95\xe0\xa5\x89\xe0\xa4\xaa\xe0\xa4\xb0,n,m,sg,3,d,0,0'
p1920
ssbsg26
I00
sg27
I00
sg28
Nsg29
Nsg30
I6
sg31
I3
sg32
Nsg33
Nsg34
S'NNPC'
p1921
sg36
g1908
sg37
I00
sba(issf_api
Word
p1922
(dp1923
g6
I00
sg7
V\u091a\u093f\u092e\u0928\u0940
p1924
sg9
(issf_api
FeatureSet
p1925
(dp1926
g12
(dp1927
S'posn'
p1928
S'90'
p1929
sS'name'
p1930
S'\xe0\xa4\x9a\xe0\xa4\xbf\xe0\xa4\xae\xe0\xa4\xa8\xe0\xa5\x80'
p1931
sS'drel'
p1932
S'pof__cn:NP4'
p1933
sS'chunktype'
p1934
S'child:NP4'
p1935
sS'af'
p1936
S'\xe0\xa4\x9a\xe0\xa4\xbf\xe0\xa4\xae\xe0\xa4\xa8\xe0\xa5\x80,n,f,sg,3,d,0,0'
p1937
ssbsg26
I00
sg27
I00
sg28
Nsg29
Nsg30
I6
sg31
I3
sg32
Nsg33
Nsg34
S'NNPC'
p1938
sg36
g1925
sg37
I00
sba(issf_api
Word
p1939
(dp1940
g6
I00
sg7
V\u0930\u0947\u0938\u094d\u091f\u094b\u0930\u0947\u0902\u091f
p1941
sg9
(issf_api
FeatureSet
p1942
(dp1943
g12
(dp1944
S'posn'
p1945
S'100'
p1946
sS'name'
p1947
S'\xe0\xa4\xb0\xe0\xa5\x87\xe0\xa4\xb8\xe0\xa5\x8d\xe0\xa4\x9f\xe0\xa5\x8b\xe0\xa4\xb0\xe0\xa5\x87\xe0\xa4\x82\xe0\xa4\x9f'
p1948
sS'af'
p1949
S'\xe0\xa4\xb0\xe0\xa5\x87\xe0\xa4\xb8\xe0\xa5\x8d\xe0\xa4\x9f\xe0\xa5\x8b\xe0\xa4\xb0\xe0\xa5\x87\xe0\xa4\x82\xe0\xa4\x9f,n,m,sg,3,o,0_\xe0\xa4\x95\xe0\xa5\x87_\xe0\xa4\xac\xe0\xa4\xbe\xe0\xa4\xb9\xe0\xa4\xb0,0'
p1950
sS'chunkid'
p1951
S'NP4'
p1952
sS'drel'
p1953
S'k7p:VGF2'
p1954
sS'vpos'
p1955
S'vib_4_5'
p1956
sS'chunktype'
p1957
S'head:NP4'
p1958
ssbsg26
I00
sg27
I00
sg28
Nsg29
Nsg30
I6
sg31
I3
sg32
Nsg33
Nsg34
S'NNP'
p1959
sg36
g1942
sg37
I00
sba(issf_api
Word
p1960
(dp1961
g6
I00
sg7
V\u0915\u0947
p1962
sg9
(issf_api
FeatureSet
p1963
(dp1964
g12
(dp1965
S'posn'
p1966
S'110'
p1967
sS'name'
p1968
S'\xe0\xa4\x95\xe0\xa5\x87'
p1969
sS'drel'
p1970
S'lwg__psp:NP4'
p1971
sS'chunktype'
p1972
S'child:NP4'
p1973
sS'af'
p1974
S'\xe0\xa4\x95\xe0\xa5\x87,psp,,,,,,'
p1975
ssbsg26
I00
sg27
I00
sg28
Nsg29
Nsg30
I6
sg31
I3
sg32
Nsg33
Nsg34
S'PSP'
p1976
sg36
g1963
sg37
I00
sba(issf_api
Word
p1977
(dp1978
g6
I00
sg7
V\u092c\u093e\u0939\u0930
p1979
sg9
(issf_api
FeatureSet
p1980
(dp1981
g12
(dp1982
S'posn'
p1983
S'120'
p1984
sS'name'
p1985
S'\xe0\xa4\xac\xe0\xa4\xbe\xe0\xa4\xb9\xe0\xa4\xb0'
p1986
sS'drel'
p1987
S'lwg__psp:NP4'
p1988
sS'chunktype'
p1989
S'child:NP4'
p1990
sS'af'
p1991
S'\xe0\xa4\xac\xe0\xa4\xbe\xe0\xa4\xb9\xe0\xa4\xb0,nst,m,sg,3,d,,'
p1992
ssbsg26
I00
sg27
I00
sg28
Nsg29
Nsg30
I6
sg31
I3
sg32
Nsg33
Nsg34
S'NST'
p1993
sg36
g1980
sg37
I00
sba(issf_api
Word
p1994
(dp1995
g6
I00
sg7
V\u0930\u093f\u0932\u093e\u092f\u0902\u0938
p1996
sg9
(issf_api
FeatureSet
p1997
(dp1998
g12
(dp1999
S'posn'
p2000
S'130'
p2001
sS'name'
p2002
S'\xe0\xa4\xb0\xe0\xa4\xbf\xe0\xa4\xb2\xe0\xa4\xbe\xe0\xa4\xaf\xe0\xa4\x82\xe0\xa4\xb8'
p2003
sS'drel'
p2004
S'pof__cn:NP5'
p2005
sS'chunktype'
p2006
S'child:NP5'
p2007
sS'af'
p2008
S'\xe0\xa4\xb0\xe0\xa4\xbf\xe0\xa4\xb2\xe0\xa4\xbe\xe0\xa4\xaf\xe0\xa4\x82\xe0\xa4\xb8,n,m,sg,3,d,0,0'
p2009
ssbsg26
I00
sg27
I00
sg28
Nsg29
Nsg30
I7
sg31
I3
sg32
Nsg33
Nsg34
S'NNPC'
p2010
sg36
g1997
sg37
I00
sba(issf_api
Word
p2011
(dp2012
g6
I00
sg7
V\u090f\u0928\u0930\u094d\u091c\u0940
p2013
sg9
(issf_api
FeatureSet
p2014
(dp2015
g12
(dp2016
S'posn'
p2017
S'140'
p2018
sS'name'
p2019
S'\xe0\xa4\x8f\xe0\xa4\xa8\xe0\xa4\xb0\xe0\xa5\x8d\xe0\xa4\x9c\xe0\xa5\x80'
p2020
sS'af'
p2021
S'\xe0\xa4\x8f\xe0\xa4\xa8\xe0\xa4\xb0\xe0\xa5\x8d\xe0\xa4\x9c\xe0\xa5\x80,n,f,sg,3,o,0_\xe0\xa4\x95\xe0\xa4\xbe,0'
p2022
sS'chunkid'
p2023
S'NP5'
p2024
sS'drel'
p2025
S'r6:NP6'
p2026
sS'vpos'
p2027
S'vib_3'
p2028
sS'chunktype'
p2029
S'head:NP5'
p2030
ssbsg26
I00
sg27
I00
sg28
Nsg29
Nsg30
I7
sg31
I3
sg32
Nsg33
Nsg34
S'NNP'
p2031
sg36
g2014
sg37
I00
sba(issf_api
Word
p2032
(dp2033
g6
I00
sg7
V\u0915\u0947
p2034
sg9
(issf_api
FeatureSet
p2035
(dp2036
g12
(dp2037
S'posn'
p2038
S'150'
p2039
sS'name'
p2040
S'\xe0\xa4\x95\xe0\xa5\x872'
p2041
sS'drel'
p2042
S'lwg__psp:NP5'
p2043
sS'chunktype'
p2044
S'child:NP5'
p2045
sS'af'
p2046
S'\xe0\xa4\x95\xe0\xa4\xbe,psp,m,sg,,o,,'
p2047
ssbsg26
I00
sg27
I00
sg28
Nsg29
Nsg30
I7
sg31
I3
sg32
Nsg33
Nsg34
S'PSP'
p2048
sg36
g2035
sg37
I00
sba(issf_api
Word
p2049
(dp2050
g6
I00
sg7
V\u0928\u0915\u093c\u0926\u0940
p2051
sg9
(issf_api
FeatureSet
p2052
(dp2053
g12
(dp2054
S'posn'
p2055
S'160'
p2056
sS'name'
p2057
S'\xe0\xa4\xa8\xe0\xa4\x95\xe0\xa4\xbc\xe0\xa4\xa6\xe0\xa5\x80'
p2058
sS'drel'
p2059
S'mod:NP6'
p2060
sS'chunktype'
p2061
S'child:NP6'
p2062
sS'af'
p2063
S'\xe0\xa4\xa8\xe0\xa4\x95\xe0\xa4\xa6\xe0\xa5\x80,n,f,sg,3,d,0,0'
p2064
ssbsg26
I00
sg27
I00
sg28
Nsg29
Nsg30
I8
sg31
I3
sg32
Nsg33
Nsg34
S'JJC'
p2065
sg36
g2052
sg37
I00
sba(issf_api
Word
p2066
(dp2067
g6
I00
sg7
V\u091c\u092e\u093e
p2068
sg9
(issf_api
FeatureSet
p2069
(dp2070
g12
(dp2071
S'posn'
p2072
S'170'
p2073
sS'name'
p2074
S'\xe0\xa4\x9c\xe0\xa4\xae\xe0\xa4\xbe'
p2075
sS'drel'
p2076
S'nmod__adj:NP6'
p2077
sS'chunktype'
p2078
S'child:NP6'
p2079
sS'af'
p2080
S'\xe0\xa4\x9c\xe0\xa4\xae\xe0\xa4\xbe,adj,any,any,,o,,'
p2081
ssbsg26
I00
sg27
I00
sg28
Nsg29
Nsg30
I8
sg31
I3
sg32
Nsg33
Nsg34
S'JJ'
p2082
sg36
g2069
sg37
I00
sba(issf_api
Word
p2083
(dp2084
g6
I00
sg7
V\u0915\u0947\u0902\u0926\u094d\u0930
p2085
sg9
(issf_api
FeatureSet
p2086
(dp2087
g12
(dp2088
S'posn'
p2089
S'180'
p2090
sS'name'
p2091
S'\xe0\xa4\x95\xe0\xa5\x87\xe0\xa4\x82\xe0\xa4\xa6\xe0\xa5\x8d\xe0\xa4\xb0'
p2092
sS'af'
p2093
S'\xe0\xa4\x95\xe0\xa5\x87\xe0\xa4\x82\xe0\xa4\xa6\xe0\xa5\x8d\xe0\xa4\xb0,n,m,sg,3,o,0_\xe0\xa4\x95\xe0\xa5\x8b,0'
p2094
sS'chunkid'
p2095
S'NP6'
p2096
sS'drel'
p2097
S'k2:VGNN'
p2098
sS'vpos'
p2099
S'vib_4'
p2100
sS'chunktype'
p2101
S'head:NP6'
p2102
ssbsg26
I00
sg27
I00
sg28
Nsg29
Nsg30
I8
sg31
I3
sg32
Nsg33
Nsg34
S'NN'
p2103
sg36
g2086
sg37
I00
sba(issf_api
Word
p2104
(dp2105
g6
I00
sg7
V\u0915\u094b
p2106
sg9
(issf_api
FeatureSet
p2107
(dp2108
g12
(dp2109
S'posn'
p2110
S'190'
p2111
sS'name'
p2112
S'\xe0\xa4\x95\xe0\xa5\x8b'
p2113
sS'drel'
p2114
S'lwg__psp:NP6'
p2115
sS'chunktype'
p2116
S'child:NP6'
p2117
sS'af'
p2118
S'\xe0\xa4\x95\xe0\xa5\x8b,psp,,,,,,'
p2119
ssbsg26
I00
sg27
I00
sg28
Nsg29
Nsg30
I8
sg31
I3
sg32
Nsg33
Nsg34
S'PSP'
p2120
sg36
g2107
sg37
I00
sba(issf_api
Word
p2121
(dp2122
g6
I00
sg7
V\u0932\u0942\u091f\u0928\u0947
p2123
sg9
(issf_api
FeatureSet
p2124
(dp2125
g12
(dp2126
S'posn'
p2127
S'200'
p2128
sS'name'
p2129
S'\xe0\xa4\xb2\xe0\xa5\x82\xe0\xa4\x9f\xe0\xa4\xa8\xe0\xa5\x87'
p2130
sS'af'
p2131
S'\xe0\xa4\xb2\xe0\xa5\x82\xe0\xa4\x9f,v,any,sg,any,o,\xe0\xa4\xa8\xe0\xa4\xbe_\xe0\xa4\x95\xe0\xa4\xbe,nA'
p2132
sS'chunkid'
p2133
S'VGNN'
p2134
sS'drel'
p2135
S'r6:NP7'
p2136
sS'vpos'
p2137
S'tam_2'
p2138
sS'chunktype'
p2139
S'head:VGNN'
p2140
ssbsg26
I00
sg27
I00
sg28
Nsg29
Nsg30
I9
sg31
I3
sg32
Nsg33
Nsg34
S'VM'
p2141
sg36
g2124
sg37
I00
sba(issf_api
Word
p2142
(dp2143
g6
I00
sg7
V\u0915\u0940
p2144
sg9
(issf_api
FeatureSet
p2145
(dp2146
g12
(dp2147
S'posn'
p2148
S'210'
p2149
sS'name'
p2150
S'\xe0\xa4\x95\xe0\xa5\x80'
p2151
sS'drel'
p2152
S'lwg__psp:VGNN'
p2153
sS'chunktype'
p2154
S'child:VGNN'
p2155
sS'af'
p2156
S'\xe0\xa4\x95\xe0\xa4\xbe,psp,f,sg,,o,,'
p2157
ssbsg26
I00
sg27
I00
sg28
Nsg29
Nsg30
I9
sg31
I3
sg32
Nsg33
Nsg34
S'PSP'
p2158
sg36
g2145
sg37
I00
sba(issf_api
Word
p2159
(dp2160
g6
I00
sg7
V\u092b\u093f\u0930\u093e\u0915\u093c
p2161
sg9
(issf_api
FeatureSet
p2162
(dp2163
g12
(dp2164
S'posn'
p2165
S'220'
p2166
sS'name'
p2167
S'\xe0\xa4\xab\xe0\xa4\xbf\xe0\xa4\xb0\xe0\xa4\xbe\xe0\xa4\x95\xe0\xa4\xbc'
p2168
sS'af'
p2169
S'\xe0\xa4\xab\xe0\xa4\xbf\xe0\xa4\xb0\xe0\xa4\xbe\xe0\xa4\x95\xe0\xa4\xbc,n,f,sg,3,o,0_\xe0\xa4\xae\xe0\xa5\x87\xe0\xa4\x82,0'
p2170
sS'chunkid'
p2171
S'NP7'
p2172
sS'drel'
p2173
S'k7:VGF2'
p2174
sS'vpos'
p2175
S'vib_2'
p2176
sS'chunktype'
p2177
S'head:NP7'
p2178
ssbsg26
I00
sg27
I00
sg28
Nsg29
Nsg30
I10
sg31
I3
sg32
Nsg33
Nsg34
S'NN'
p2179
sg36
g2162
sg37
I00
sba(issf_api
Word
p2180
(dp2181
g6
I00
sg7
V\u092e\u0947\u0902
p2182
sg9
(issf_api
FeatureSet
p2183
(dp2184
g12
(dp2185
S'posn'
p2186
S'230'
p2187
sS'name'
p2188
S'\xe0\xa4\xae\xe0\xa5\x87\xe0\xa4\x82'
p2189
sS'drel'
p2190
S'lwg__psp:NP7'
p2191
sS'chunktype'
p2192
S'child:NP7'
p2193
sS'af'
p2194
S'\xe0\xa4\xae\xe0\xa5\x87\xe0\xa4\x82,psp,,,,,,'
p2195
ssbsg26
I00
sg27
I00
sg28
Nsg29
Nsg30
I10
sg31
I3
sg32
Nsg33
Nsg34
S'PSP'
p2196
sg36
g2183
sg37
I00
sba(issf_api
Word
p2197
(dp2198
g6
I00
sg7
V\u0925\u0947
p2199
sg9
(issf_api
FeatureSet
p2200
(dp2201
g12
(dp2202
S'posn'
p2203
S'240'
p2204
sS'name'
p2205
S'\xe0\xa4\xa5\xe0\xa5\x87'
p2206
sS'af'
p2207
S'\xe0\xa4\xa5\xe0\xa4\xbe,v,m,pl,any,,\xe0\xa4\xa5\xe0\xa4\xbe,WA'
p2208
sS'chunkid'
p2209
S'VGF2'
p2210
sS'stype'
p2211
S'declarative'
p2212
sS'drel'
p2213
S'ccof:CCP'
p2214
sS'voicetype'
p2215
S'active'
p2216
sS'chunktype'
p2217
S'head:VGF2'
p2218
ssbsg26
I00
sg27
I00
sg28
Nsg29
Nsg30
I11
sg31
I3
sg32
Nsg33
Nsg34
S'VM'
p2219
sg36
g2200
sg37
I00
sba(issf_api
Word
p2220
(dp2221
g6
I00
sg7
V\u0964
p2222
sg9
(issf_api
FeatureSet
p2223
(dp2224
g12
(dp2225
S'posn'
p2226
S'250'
p2227
sS'name'
p2228
S'\xe0\xa5\xa4'
p2229
sS'af'
p2230
S'.,punc,,,,,,'
p2231
sS'chunkid'
p2232
S'BLK'
p2233
sS'drel'
p2234
S'rsym:VGF'
p2235
sS'chunktype'
p2236
S'head:BLK'
p2237
ssbsg26
I00
sg27
I00
sg28
Nsg29
Nsg30
I12
sg31
I3
sg32
Nsg33
Nsg34
S'SYM'
p2238
sg36
g2223
sg37
I00
sba(issf_api
Word
p2239
(dp2240
g6
I00
sg7
V\u092a\u0941\u0932\u093f\u0938
p2241
sg9
(issf_api
FeatureSet
p2242
(dp2243
g12
(dp2244
S'posn'
p2245
S'10'
p2246
sS'name'
p2247
S'\xe0\xa4\xaa\xe0\xa5\x81\xe0\xa4\xb2\xe0\xa4\xbf\xe0\xa4\xb8'
p2248
sS'drel'
p2249
S'pof__cn:NP'
p2250
sS'chunktype'
p2251
S'child:NP'
p2252
sS'af'
p2253
S'\xe0\xa4\xaa\xe0\xa5\x81\xe0\xa4\xb2\xe0\xa4\xbf\xe0\xa4\xb8,n,f,sg,3,d,0,0'
p2254
ssbsg26
I00
sg27
I00
sg28
Nsg29
Nsg30
I0
sg31
I4
sg32
Nsg33
Nsg34
S'NNC'
p2255
sg36
g2242
sg37
I00
sba(issf_api
Word
p2256
(dp2257
g6
I00
sg7
V\u0905\u0927\u093f\u0915\u093e\u0930\u0940
p2258
sg9
(issf_api
FeatureSet
p2259
(dp2260
g12
(dp2261
S'posn'
p2262
S'20'
p2263
sS'name'
p2264
S'\xe0\xa4\x85\xe0\xa4\xa7\xe0\xa4\xbf\xe0\xa4\x95\xe0\xa4\xbe\xe0\xa4\xb0\xe0\xa5\x80'
p2265
sS'af'
p2266
S'\xe0\xa4\x85\xe0\xa4\xa7\xe0\xa4\xbf\xe0\xa4\x95\xe0\xa4\xbe\xe0\xa4\xb0\xe0\xa5\x80,n,m,sg,3,o,0_\xe0\xa4\xa8\xe0\xa5\x87,0'
p2267
sS'chunkid'
p2268
S'NP'
p2269
sS'drel'
p2270
S'k1:VGF'
p2271
sS'vpos'
p2272
S'vib_3'
p2273
sS'chunktype'
p2274
S'head:NP'
p2275
ssbsg26
I00
sg27
I00
sg28
Nsg29
Nsg30
I0
sg31
I4
sg32
Nsg33
Nsg34
S'NN'
p2276
sg36
g2259
sg37
I00
sba(issf_api
Word
p2277
(dp2278
g6
I00
sg7
V\u0928\u0947
p2279
sg9
(issf_api
FeatureSet
p2280
(dp2281
g12
(dp2282
S'posn'
p2283
S'30'
p2284
sS'name'
p2285
S'\xe0\xa4\xa8\xe0\xa5\x87'
p2286
sS'drel'
p2287
S'lwg__psp:NP'
p2288
sS'chunktype'
p2289
S'child:NP'
p2290
sS'af'
p2291
S'\xe0\xa4\xa8\xe0\xa5\x87,psp,,,,,,'
p2292
ssbsg26
I00
sg27
I00
sg28
Nsg29
Nsg30
I0
sg31
I4
sg32
Nsg33
Nsg34
S'PSP'
p2293
sg36
g2280
sg37
I00
sba(issf_api
Word
p2294
(dp2295
g6
I00
sg7
V\u0938\u0902\u0935\u093e\u0926\u0926\u093e\u0924\u093e
p2296
sg9
(issf_api
FeatureSet
p2297
(dp2298
g12
(dp2299
S'posn'
p2300
S'40'
p2301
sS'name'
p2302
S'\xe0\xa4\xb8\xe0\xa4\x82\xe0\xa4\xb5\xe0\xa4\xbe\xe0\xa4\xa6\xe0\xa4\xa6\xe0\xa4\xbe\xe0\xa4\xa4\xe0\xa4\xbe'
p2303
sS'af'
p2304
S'\xe0\xa4\xb8\xe0\xa4\x82\xe0\xa4\xb5\xe0\xa4\xbe\xe0\xa4\xa6\xe0\xa4\xa6\xe0\xa4\xbe\xe0\xa4\xa4\xe0\xa4\xbe,n,m,sg,3,o,0_\xe0\xa4\x95\xe0\xa4\xbe,0'
p2305
sS'acrefmodhead'
p2306
S'\xe0\xa4\xb8\xe0\xa4\x82\xe0\xa4\xb5\xe0\xa4\xbe\xe0\xa4\xa6\xe0\xa4\xa6\xe0\xa4\xbe\xe0\xa4\xa4\xe0\xa4\xbe:m6'
p2307
sS'chunkid'
p2308
S'NP2'
p2309
sS'acrefmod'
p2310
S'm6%1:i26'
p2311
sS'drel'
p2312
S'r6:NP3'
p2313
sS'vpos'
p2314
S'vib_2'
p2315
sS'chunktype'
p2316
S'head:NP2'
p2317
ssbsg26
I00
sg27
I00
sg28
Nsg29
Nsg30
I1
sg31
I4
sg32
Nsg33
Nsg34
S'NN'
p2318
sg36
g2297
sg37
I00
sba(issf_api
Word
p2319
(dp2320
g6
I00
sg7
V\u0915\u0940
p2321
sg9
(issf_api
FeatureSet
p2322
(dp2323
g12
(dp2324
S'posn'
p2325
S'50'
p2326
sS'name'
p2327
S'\xe0\xa4\x95\xe0\xa5\x80'
p2328
sS'drel'
p2329
S'lwg__psp:NP2'
p2330
sS'chunktype'
p2331
S'child:NP2'
p2332
sS'af'
p2333
S'\xe0\xa4\x95\xe0\xa4\xbe,psp,f,sg,,o,,'
p2334
ssbsg26
I00
sg27
I00
sg28
Nsg29
Nsg30
I1
sg31
I4
sg32
Nsg33
Nsg34
S'PSP'
p2335
sg36
g2322
sg37
I00
sba(issf_api
Word
p2336
(dp2337
g6
I00
sg7
V\u0909\u0938
p2338
sg9
(issf_api
FeatureSet
p2339
(dp2340
g12
(dp2341
S'posn'
p2342
S'60'
p2343
sS'name'
p2344
S'\xe0\xa4\x89\xe0\xa4\xb8'
p2345
sS'af'
p2346
S'\xe0\xa4\xb5\xe0\xa4\xb9,pn,any,sg,3,o,,'
p2347
sS'drel'
p2348
S'nmod__adj:NP3'
p2349
sS'chunktype'
p2350
S'child:NP3'
p2351
sS'cref'
p2352
S'i26%0:t7'
p2353
ssbsg26
I00
sg27
I00
sg28
Nsg29
Nsg30
I2
sg31
I4
sg32
Nsg33
Nsg34
S'DEM'
p2354
sg36
g2339
sg37
I00
sba(issf_api
Word
p2355
(dp2356
g6
I00
sg7
V\u0906\u0936\u0902\u0915\u093e
p2357
sg9
(issf_api
FeatureSet
p2358
(dp2359
g12
(dp2360
S'crefhead'
p2361
S'\xe0\xa4\x86\xe0\xa4\xb6\xe0\xa4\x82\xe0\xa4\x95\xe0\xa4\xbe:i26'
p2362
sS'posn'
p2363
S'70'
p2364
sS'name'
p2365
S'\xe0\xa4\x86\xe0\xa4\xb6\xe0\xa4\x82\xe0\xa4\x95\xe0\xa4\xbe'
p2366
sS'af'
p2367
S'\xe0\xa4\x86\xe0\xa4\xb6\xe0\xa4\x82\xe0\xa4\x95\xe0\xa4\xbe,n,f,sg,3,o,0_\xe0\xa4\x95\xe0\xa5\x8b,0'
p2368
sS'chunkid'
p2369
S'NP3'
p2370
sS'crefmod'
p2371
S'm6:i26'
p2372
sS'chunktype'
p2373
S'head:NP3'
p2374
sS'crefchainhead'
p2375
S'i26:t7'
p2376
sS'vpos'
p2377
S'vib_3'
p2378
sS'cref'
p2379
S'i26%1:t7'
p2380
sS'drel'
p2381
S'k2:VGF'
p2382
ssbsg26
I00
sg27
I00
sg28
Nsg29
Nsg30
I2
sg31
I4
sg32
Nsg33
Nsg34
S'NN'
p2383
sg36
g2358
sg37
I00
sba(issf_api
Word
p2384
(dp2385
g6
I00
sg7
V\u0915\u094b
p2386
sg9
(issf_api
FeatureSet
p2387
(dp2388
g12
(dp2389
S'posn'
p2390
S'80'
p2391
sS'name'
p2392
S'\xe0\xa4\x95\xe0\xa5\x8b'
p2393
sS'drel'
p2394
S'lwg__psp:NP3'
p2395
sS'chunktype'
p2396
S'child:NP3'
p2397
sS'af'
p2398
S'\xe0\xa4\x95\xe0\xa5\x8b,psp,,,,,,'
p2399
ssbsg26
I00
sg27
I00
sg28
Nsg29
Nsg30
I2
sg31
I4
sg32
Nsg33
Nsg34
S'PSP'
p2400
sg36
g2387
sg37
I00
sba(issf_api
Word
p2401
(dp2402
g6
I00
sg7
V\u0917\u0932\u0924
p2403
sg9
(issf_api
FeatureSet
p2404
(dp2405
g12
(dp2406
S'posn'
p2407
S'90'
p2408
sS'name'
p2409
S'\xe0\xa4\x97\xe0\xa4\xb2\xe0\xa4\xa4'
p2410
sS'af'
p2411
S'\xe0\xa4\x97\xe0\xa4\xb2\xe0\xa4\xa4,adj,any,any,,,,'
p2412
sS'chunkid'
p2413
S'JJP'
p2414
sS'drel'
p2415
S'pof:VGF'
p2416
sS'chunktype'
p2417
S'head:JJP'
p2418
ssbsg26
I00
sg27
I00
sg28
Nsg29
Nsg30
I3
sg31
I4
sg32
Nsg33
Nsg34
S'JJ'
p2419
sg36
g2404
sg37
I00
sba(issf_api
Word
p2420
(dp2421
g6
I00
sg7
V\u092c\u0924\u093e\u092f\u093e
p2422
sg9
(issf_api
FeatureSet
p2423
(dp2424
g12
(dp2425
S'posn'
p2426
S'100'
p2427
sS'name'
p2428
S'\xe0\xa4\xac\xe0\xa4\xa4\xe0\xa4\xbe\xe0\xa4\xaf\xe0\xa4\xbe'
p2429
sS'af'
p2430
S'\xe0\xa4\xac\xe0\xa4\xa4\xe0\xa4\xbe,v,m,sg,any,,\xe0\xa4\xaf\xe0\xa4\xbe,yA'
p2431
sS'chunkid'
p2432
S'VGF'
p2433
sS'chunktype'
p2434
S'head:VGF'
p2435
sS'voicetype'
p2436
S'active'
p2437
sS'stype'
p2438
S'declarative'
p2439
ssbsg26
I00
sg27
I00
sg28
Nsg29
Nsg30
I4
sg31
I4
sg32
Nsg33
Nsg34
S'VM'
p2440
sg36
g2423
sg37
I00
sba(issf_api
Word
p2441
(dp2442
g6
I00
sg7
V\u091c\u093f\u0938\u092e\u0947\u0902
p2443
sg9
(issf_api
FeatureSet
p2444
(dp2445
g12
(dp2446
S'crefhead'
p2447
S'\xe0\xa4\x9c\xe0\xa4\xbf\xe0\xa4\xb8\xe0\xa4\xae\xe0\xa5\x87\xe0\xa4\x82:i27'
p2448
sS'posn'
p2449
S'110'
p2450
sS'name'
p2451
S'\xe0\xa4\x9c\xe0\xa4\xbf\xe0\xa4\xb8\xe0\xa4\xae\xe0\xa5\x87\xe0\xa4\x82'
p2452
sS'af'
p2453
S'\xe0\xa4\x9c\xe0\xa5\x8b,pn,any,sg,3,o,\xe0\xa4\xae\xe0\xa5\x87\xe0\xa4\x82,meM'
p2454
sS'coref'
p2455
S':NP3'
p2456
sS'chunkid'
p2457
S'NP4'
p2458
sS'creftype'
p2459
S'Anaphora-C:i26'
p2460
sS'chunktype'
p2461
S'head:NP4'
p2462
sS'cref'
p2463
S'i27%1:t7'
p2464
sS'drel'
p2465
S'k7:VGF2'
p2466
ssbsg26
I00
sg27
I00
sg28
Nsg29
Nsg30
I5
sg31
I4
sg32
Nsg33
Nsg34
S'PRP'
p2467
sg36
g2444
sg37
I00
sba(issf_api
Word
p2468
(dp2469
g6
I00
sg7
V\u092a\u0942\u091b\u093e
p2470
sg9
(issf_api
FeatureSet
p2471
(dp2472
g12
(dp2473
S'posn'
p2474
S'120'
p2475
sS'name'
p2476
S'\xe0\xa4\xaa\xe0\xa5\x82\xe0\xa4\x9b\xe0\xa4\xbe'
p2477
sS'af'
p2478
S'\xe0\xa4\xaa\xe0\xa5\x82\xe0\xa4\x9b,v,m,sg,any,,\xe0\xa4\xaf\xe0\xa4\xbe_\xe0\xa4\x9c\xe0\xa4\xbe+\xe0\xa4\xaf\xe0\xa4\xbe1,yA'
p2479
sS'chunkid'
p2480
S'VGF2'
p2481
sS'stype'
p2482
S'declarative'
p2483
sS'drel'
p2484
S'nmod__relc:NP3'
p2485
sS'voicetype'
p2486
S'active'
p2487
sS'vpos'
p2488
S'tam_2'
p2489
sS'chunktype'
p2490
S'head:VGF2'
p2491
ssbsg26
I00
sg27
I00
sg28
Nsg29
Nsg30
I6
sg31
I4
sg32
Nsg33
Nsg34
S'VM'
p2492
sg36
g2471
sg37
I00
sba(issf_api
Word
p2493
(dp2494
g6
I00
sg7
V\u0917\u092f\u093e
p2495
sg9
(issf_api
FeatureSet
p2496
(dp2497
g12
(dp2498
S'posn'
p2499
S'130'
p2500
sS'name'
p2501
S'\xe0\xa4\x97\xe0\xa4\xaf\xe0\xa4\xbe'
p2502
sS'drel'
p2503
S'lwg__vaux:VGF2'
p2504
sS'chunktype'
p2505
S'child:VGF2'
p2506
sS'af'
p2507
S'\xe0\xa4\x9c\xe0\xa4\xbe,v,m,sg,any,,\xe0\xa4\xaf\xe0\xa4\xbe1,yA1'
p2508
ssbsg26
I00
sg27
I00
sg28
Nsg29
Nsg30
I6
sg31
I4
sg32
Nsg33
Nsg34
S'VAUX'
p2509
sg36
g2496
sg37
I00
sba(issf_api
Word
p2510
(dp2511
g6
I00
sg7
V\u0915\u093f
p2512
sg9
(issf_api
FeatureSet
p2513
(dp2514
g12
(dp2515
S'posn'
p2516
S'140'
p2517
sS'name'
p2518
S'\xe0\xa4\x95\xe0\xa4\xbf'
p2519
sS'af'
p2520
S'\xe0\xa4\x95\xe0\xa4\xbf,avy,,,,,,'
p2521
sS'chunkid'
p2522
S'CCP'
p2523
sS'drel'
p2524
S'k2:VGF2'
p2525
sS'chunktype'
p2526
S'head:CCP'
p2527
ssbsg26
I00
sg27
I00
sg28
Nsg29
Nsg30
I7
sg31
I4
sg32
Nsg33
Nsg34
S'CC'
p2528
sg36
g2513
sg37
I00
sba(issf_api
Word
p2529
(dp2530
g6
I00
sg7
V\u092f\u0947
p2531
sg9
(issf_api
FeatureSet
p2532
(dp2533
g12
(dp2534
S'posn'
p2535
S'150'
p2536
sS'name'
p2537
S'\xe0\xa4\xaf\xe0\xa5\x87'
p2538
sS'af'
p2539
S'\xe0\xa4\xaf\xe0\xa4\xb9,pn,any,pl,3,d,,'
p2540
sS'drel'
p2541
S'nmod__adj:NP5'
p2542
sS'chunktype'
p2543
S'child:NP5'
p2544
sS'cref'
p2545
S'i28%0:t2,i29%0:t3,i30%0:t4,i31%0:t5'
p2546
ssbsg26
I00
sg27
I00
sg28
Nsg29
Nsg30
I8
sg31
I4
sg32
Nsg33
Nsg34
S'DEM'
p2547
sg36
g2532
sg37
I00
sba(issf_api
Word
p2548
(dp2549
g6
I00
sg7
V\u0932\u094b\u0917
p2550
sg9
(issf_api
FeatureSet
p2551
(dp2552
g12
(dp2553
S'crefhead'
p2554
S'\xe0\xa4\xb2\xe0\xa5\x8b\xe0\xa4\x97:i28,\xe0\xa4\xb2\xe0\xa5\x8b\xe0\xa4\x97:i29,\xe0\xa4\xb2\xe0\xa5\x8b\xe0\xa4\x97:i30,\xe0\xa4\xb2\xe0\xa5\x8b\xe0\xa4\x97:i31'
p2555
sS'posn'
p2556
S'160'
p2557
sS'name'
p2558
S'\xe0\xa4\xb2\xe0\xa5\x8b\xe0\xa4\x97'
p2559
sS'af'
p2560
S'\xe0\xa4\xb2\xe0\xa5\x8b\xe0\xa4\x97,n,m,pl,3,d,0,0'
p2561
sS'chunkid'
p2562
S'NP5'
p2563
sS'creftype'
p2564
S'Coreference-Identity:i25,Coreference-Identity:i24,Coreference-Identity:i23,Coreference-Identity:i22'
p2565
sS'chunktype'
p2566
S'head:NP5'
p2567
sS'cref'
p2568
S'i28%1:t2,i29%1:t3,i30%1:t4,i31%1:t5'
p2569
sS'drel'
p2570
S'k1:VGF3'
p2571
ssbsg26
I00
sg27
I00
sg28
Nsg29
Nsg30
I8
sg31
I4
sg32
Nsg33
Nsg34
S'NN'
p2572
sg36
g2551
sg37
I00
sba(issf_api
Word
p2573
(dp2574
g6
I00
sg7
V\u092b\u093f\u0932\u094d\u092e\u0940
p2575
sg9
(issf_api
FeatureSet
p2576
(dp2577
g12
(dp2578
S'posn'
p2579
S'170'
p2580
sS'name'
p2581
S'\xe0\xa4\xab\xe0\xa4\xbf\xe0\xa4\xb2\xe0\xa5\x8d\xe0\xa4\xae\xe0\xa5\x80'
p2582
sS'drel'
p2583
S'nmod__adj:NP6'
p2584
sS'chunktype'
p2585
S'child:NP6'
p2586
sS'af'
p2587
S'\xe0\xa4\xab\xe0\xa4\xbf\xe0\xa4\xb2\xe0\xa5\x8d\xe0\xa4\xae\xe0\xa5\x80,adj,any,any,,o,,'
p2588
ssbsg26
I00
sg27
I00
sg28
Nsg29
Nsg30
I9
sg31
I4
sg32
Nsg33
Nsg34
S'JJ'
p2589
sg36
g2576
sg37
I00
sba(issf_api
Word
p2590
(dp2591
g6
I00
sg7
V\u0938\u093f\u0924\u093e\u0930\u094b\u0902
p2592
sg9
(issf_api
FeatureSet
p2593
(dp2594
g12
(dp2595
S'posn'
p2596
S'180'
p2597
sS'name'
p2598
S'\xe0\xa4\xb8\xe0\xa4\xbf\xe0\xa4\xa4\xe0\xa4\xbe\xe0\xa4\xb0\xe0\xa5\x8b\xe0\xa4\x82'
p2599
sS'af'
p2600
S'\xe0\xa4\xb8\xe0\xa4\xbf\xe0\xa4\xa4\xe0\xa4\xbe\xe0\xa4\xb0\xe0\xa4\xbe,n,m,pl,3,o,0_\xe0\xa4\xb8\xe0\xa5\x87,0'
p2601
sS'chunkid'
p2602
S'NP6'
p2603
sS'drel'
p2604
S'k4:VGNN'
p2605
sS'vpos'
p2606
S'vib_3'
p2607
sS'chunktype'
p2608
S'head:NP6'
p2609
ssbsg26
I00
sg27
I00
sg28
Nsg29
Nsg30
I9
sg31
I4
sg32
Nsg33
Nsg34
S'NN'
p2610
sg36
g2593
sg37
I00
sba(issf_api
Word
p2611
(dp2612
g6
I00
sg7
V\u0938\u0947
p2613
sg9
(issf_api
FeatureSet
p2614
(dp2615
g12
(dp2616
S'posn'
p2617
S'190'
p2618
sS'name'
p2619
S'\xe0\xa4\xb8\xe0\xa5\x87'
p2620
sS'drel'
p2621
S'lwg__psp:NP6'
p2622
sS'chunktype'
p2623
S'child:NP6'
p2624
sS'af'
p2625
S'\xe0\xa4\xb8\xe0\xa5\x87,psp,,,,,,'
p2626
ssbsg26
I00
sg27
I00
sg28
Nsg29
Nsg30
I9
sg31
I4
sg32
Nsg33
Nsg34
S'PSP'
p2627
sg36
g2614
sg37
I00
sba(issf_api
Word
p2628
(dp2629
g6
I00
sg7
V\u092b\u093f\u0930\u094c\u0924\u0940
p2630
sg9
(issf_api
FeatureSet
p2631
(dp2632
g12
(dp2633
S'posn'
p2634
S'200'
p2635
sS'name'
p2636
S'\xe0\xa4\xab\xe0\xa4\xbf\xe0\xa4\xb0\xe0\xa5\x8c\xe0\xa4\xa4\xe0\xa5\x80'
p2637
sS'af'
p2638
S'\xe0\xa4\xab\xe0\xa4\xbf\xe0\xa4\xb0\xe0\xa5\x8c\xe0\xa4\xa4\xe0\xa5\x80,n,f,sg,3,d,0,0'
p2639
sS'chunkid'
p2640
S'NP7'
p2641
sS'drel'
p2642
S'k2:VGNN'
p2643
sS'chunktype'
p2644
S'head:NP7'
p2645
ssbsg26
I00
sg27
I00
sg28
Nsg29
Nsg30
I10
sg31
I4
sg32
Nsg33
Nsg34
S'NN'
p2646
sg36
g2631
sg37
I00
sba(issf_api
Word
p2647
(dp2648
g6
I00
sg7
V\u092e\u093e\u0901\u0917\u0928\u0947
p2649
sg9
(issf_api
FeatureSet
p2650
(dp2651
g12
(dp2652
S'posn'
p2653
S'210'
p2654
sS'name'
p2655
S'\xe0\xa4\xae\xe0\xa4\xbe\xe0\xa4\x81\xe0\xa4\x97\xe0\xa4\xa8\xe0\xa5\x87'
p2656
sS'af'
p2657
S'\xe0\xa4\xae\xe0\xa4\xbe\xe0\xa4\x81\xe0\xa4\x97,v,any,sg,any,o,\xe0\xa4\xa8\xe0\xa4\xbe_\xe0\xa4\x95\xe0\xa4\xbe,nA'
p2658
sS'chunkid'
p2659
S'VGNN'
p2660
sS'drel'
p2661
S'r6:NP8'
p2662
sS'vpos'
p2663
S'tam_2'
p2664
sS'chunktype'
p2665
S'head:VGNN'
p2666
ssbsg26
I00
sg27
I00
sg28
Nsg29
Nsg30
I11
sg31
I4
sg32
Nsg33
Nsg34
S'VM'
p2667
sg36
g2650
sg37
I00
sba(issf_api
Word
p2668
(dp2669
g6
I00
sg7
V\u0915\u0947
p2670
sg9
(issf_api
FeatureSet
p2671
(dp2672
g12
(dp2673
S'posn'
p2674
S'220'
p2675
sS'name'
p2676
S'\xe0\xa4\x95\xe0\xa5\x87'
p2677
sS'drel'
p2678
S'lwg__psp:VGNN'
p2679
sS'chunktype'
p2680
S'child:VGNN'
p2681
sS'af'
p2682
S'\xe0\xa4\x95\xe0\xa4\xbe,psp,m,sg,,o,,'
p2683
ssbsg26
I00
sg27
I00
sg28
Nsg29
Nsg30
I11
sg31
I4
sg32
Nsg33
Nsg34
S'PSP'
p2684
sg36
g2671
sg37
I00
sba(issf_api
Word
p2685
(dp2686
g6
I00
sg7
V\u091a\u0915\u094d\u0915\u0930
p2687
sg9
(issf_api
FeatureSet
p2688
(dp2689
g12
(dp2690
S'posn'
p2691
S'230'
p2692
sS'name'
p2693
S'\xe0\xa4\x9a\xe0\xa4\x95\xe0\xa5\x8d\xe0\xa4\x95\xe0\xa4\xb0'
p2694
sS'af'
p2695
S'\xe0\xa4\x9a\xe0\xa4\x95\xe0\xa5\x8d\xe0\xa4\x95\xe0\xa4\xb0,n,m,sg,3,o,0_\xe0\xa4\xae\xe0\xa5\x87\xe0\xa4\x82,0'
p2696
sS'chunkid'
p2697
S'NP8'
p2698
sS'drel'
p2699
S'k7:VGF3'
p2700
sS'vpos'
p2701
S'vib_2'
p2702
sS'chunktype'
p2703
S'head:NP8'
p2704
ssbsg26
I00
sg27
I00
sg28
Nsg29
Nsg30
I12
sg31
I4
sg32
Nsg33
Nsg34
S'NN'
p2705
sg36
g2688
sg37
I00
sba(issf_api
Word
p2706
(dp2707
g6
I00
sg7
V\u092e\u0947\u0902
p2708
sg9
(issf_api
FeatureSet
p2709
(dp2710
g12
(dp2711
S'posn'
p2712
S'240'
p2713
sS'name'
p2714
S'\xe0\xa4\xae\xe0\xa5\x87\xe0\xa4\x82'
p2715
sS'drel'
p2716
S'lwg__psp:NP8'
p2717
sS'chunktype'
p2718
S'child:NP8'
p2719
sS'af'
p2720
S'\xe0\xa4\xae\xe0\xa5\x87\xe0\xa4\x82,psp,,,,,,'
p2721
ssbsg26
I00
sg27
I00
sg28
Nsg29
Nsg30
I12
sg31
I4
sg32
Nsg33
Nsg34
S'PSP'
p2722
sg36
g2709
sg37
I00
sba(issf_api
Word
p2723
(dp2724
g6
I00
sg7
V\u0925\u0947
p2725
sg9
(issf_api
FeatureSet
p2726
(dp2727
g12
(dp2728
S'posn'
p2729
S'250'
p2730
sS'name'
p2731
S'\xe0\xa4\xa5\xe0\xa5\x87'
p2732
sS'af'
p2733
S'\xe0\xa4\xa5\xe0\xa4\xbe,v,m,pl,any,,\xe0\xa4\xa5\xe0\xa4\xbe,WA'
p2734
sS'chunkid'
p2735
S'VGF3'
p2736
sS'stype'
p2737
S'declarative'
p2738
sS'drel'
p2739
S'ccof:CCP'
p2740
sS'voicetype'
p2741
S'active'
p2742
sS'chunktype'
p2743
S'head:VGF3'
p2744
ssbsg26
I00
sg27
I00
sg28
Nsg29
Nsg30
I13
sg31
I4
sg32
Nsg33
Nsg34
S'VM'
p2745
sg36
g2726
sg37
I00
sba(issf_api
Word
p2746
(dp2747
g6
I00
sg7
V\u0964
p2748
sg9
(issf_api
FeatureSet
p2749
(dp2750
g12
(dp2751
S'posn'
p2752
S'260'
p2753
sS'name'
p2754
S'\xe0\xa5\xa4'
p2755
sS'af'
p2756
S'.,punc,,,,,,'
p2757
sS'chunkid'
p2758
S'BLK'
p2759
sS'drel'
p2760
S'rsym:VGF'
p2761
sS'chunktype'
p2762
S'head:BLK'
p2763
ssbsg26
I00
sg27
I00
sg28
Nsg29
Nsg30
I14
sg31
I4
sg32
Nsg33
Nsg34
S'SYM'
p2764
sg36
g2749
sg37
I00
sba(issf_api
Word
p2765
(dp2766
g6
I00
sg7
V\u0938\u0942\u0924\u094d\u0930\u094b\u0902
p2767
sg9
(issf_api
FeatureSet
p2768
(dp2769
g12
(dp2770
S'posn'
p2771
S'10'
p2772
sS'name'
p2773
S'\xe0\xa4\xb8\xe0\xa5\x82\xe0\xa4\xa4\xe0\xa5\x8d\xe0\xa4\xb0\xe0\xa5\x8b\xe0\xa4\x82'
p2774
sS'af'
p2775
S'\xe0\xa4\xb8\xe0\xa5\x82\xe0\xa4\xa4\xe0\xa5\x8d\xe0\xa4\xb0,n,m,pl,3,o,0_\xe0\xa4\x95\xe0\xa5\x87_\xe0\xa4\xae\xe0\xa5\x81\xe0\xa4\xa4\xe0\xa4\xbe\xe0\xa4\xac\xe0\xa4\xbf\xe0\xa4\x95,0'
p2776
sS'chunkid'
p2777
S'NP'
p2778
sS'drel'
p2779
S'k7a:VGF'
p2780
sS'vpos'
p2781
S'vib_2_3'
p2782
sS'chunktype'
p2783
S'head:NP'
p2784
ssbsg26
I00
sg27
I00
sg28
Nsg29
Nsg30
I0
sg31
I5
sg32
Nsg33
Nsg34
S'NN'
p2785
sg36
g2768
sg37
I00
sba(issf_api
Word
p2786
(dp2787
g6
I00
sg7
V\u0915\u0947
p2788
sg9
(issf_api
FeatureSet
p2789
(dp2790
g12
(dp2791
S'posn'
p2792
S'20'
p2793
sS'name'
p2794
S'\xe0\xa4\x95\xe0\xa5\x87'
p2795
sS'drel'
p2796
S'lwg__psp:NP'
p2797
sS'chunktype'
p2798
S'child:NP'
p2799
sS'af'
p2800
S'\xe0\xa4\x95\xe0\xa5\x87,psp,,,,,,'
p2801
ssbsg26
I00
sg27
I00
sg28
Nsg29
Nsg30
I0
sg31
I5
sg32
Nsg33
Nsg34
S'PSP'
p2802
sg36
g2789
sg37
I00
sba(issf_api
Word
p2803
(dp2804
g6
I00
sg7
V\u092e\u0941\u0924\u093e\u092c\u093f\u0915\u093c
p2805
sg9
(issf_api
FeatureSet
p2806
(dp2807
g12
(dp2808
S'posn'
p2809
S'30'
p2810
sS'name'
p2811
S'\xe0\xa4\xae\xe0\xa5\x81\xe0\xa4\xa4\xe0\xa4\xbe\xe0\xa4\xac\xe0\xa4\xbf\xe0\xa4\x95\xe0\xa4\xbc'
p2812
sS'drel'
p2813
S'lwg__psp:NP'
p2814
sS'chunktype'
p2815
S'child:NP'
p2816
sS'af'
p2817
S'\xe0\xa4\xae\xe0\xa5\x81\xe0\xa4\xa4\xe0\xa4\xbe\xe0\xa4\xac\xe0\xa4\xbf\xe0\xa4\x95,psp,,,,,,'
p2818
ssbsg26
I00
sg27
I00
sg28
Nsg29
Nsg30
I0
sg31
I5
sg32
Nsg33
Nsg34
S'PSP'
p2819
sg36
g2806
sg37
I00
sba(issf_api
Word
p2820
(dp2821
g6
I00
sg7
V\u091c\u0947.
p2822
sg9
(issf_api
FeatureSet
p2823
(dp2824
g12
(dp2825
S'posn'
p2826
S'40'
p2827
sS'name'
p2828
S'\xe0\xa4\x9c\xe0\xa5\x87.'
p2829
sS'af'
p2830
S'\xe0\xa4\x9c\xe0\xa5\x87.,n,m,sg,3,d,0,0'
p2831
sS'drel'
p2832
S'pof__cn:NP2'
p2833
sS'chunktype'
p2834
S'child:NP2'
p2835
sS'cref'
p2836
S'i32%0:t2'
p2837
ssbsg26
I00
sg27
I00
sg28
Nsg29
Nsg30
I1
sg31
I5
sg32
Nsg33
Nsg34
S'NNPC'
p2838
sg36
g2823
sg37
I00
sba(issf_api
Word
p2839
(dp2840
g6
I00
sg7
V\u0921\u0940.
p2841
sg9
(issf_api
FeatureSet
p2842
(dp2843
g12
(dp2844
S'crefhead'
p2845
S'\xe0\xa4\xa1\xe0\xa5\x80.:i32'
p2846
sS'posn'
p2847
S'50'
p2848
sS'name'
p2849
S'\xe0\xa4\xa1\xe0\xa5\x80.'
p2850
sS'af'
p2851
S'\xe0\xa4\xa1\xe0\xa5\x80.,n,m,sg,3,o,0_\xe0\xa4\x95\xe0\xa5\x87_\xe0\xa4\x96\xe0\xa4\xbf\xe0\xa4\xb2\xe0\xa4\xbe\xe0\xa4\xab,0'
p2852
sS'chunkid'
p2853
S'NP2'
p2854
sS'creftype'
p2855
S'Coreference-PartOf:i28'
p2856
sS'chunktype'
p2857
S'head:NP2'
p2858
sS'vpos'
p2859
S'vib_3_4'
p2860
sS'cref'
p2861
S'i32%1:t2'
p2862
sS'drel'
p2863
S'vmod:VGF'
p2864
ssbsg26
I00
sg27
I00
sg28
Nsg29
Nsg30
I1
sg31
I5
sg32
Nsg33
Nsg34
S'NNP'
p2865
sg36
g2842
sg37
I00
sba(issf_api
Word
p2866
(dp2867
g6
I00
sg7
V\u0915\u0947
p2868
sg9
(issf_api
FeatureSet
p2869
(dp2870
g12
(dp2871
S'posn'
p2872
S'60'
p2873
sS'name'
p2874
S'\xe0\xa4\x95\xe0\xa5\x872'
p2875
sS'drel'
p2876
S'lwg__psp:NP2'
p2877
sS'chunktype'
p2878
S'child:NP2'
p2879
sS'af'
p2880
S'\xe0\xa4\x95\xe0\xa5\x87,psp,,,,,,'
p2881
ssbsg26
I00
sg27
I00
sg28
Nsg29
Nsg30
I1
sg31
I5
sg32
Nsg33
Nsg34
S'PSP'
p2882
sg36
g2869
sg37
I00
sba(issf_api
Word
p2883
(dp2884
g6
I00
sg7
V\u0916\u093f\u0932\u093e\u092b
p2885
sg9
(issf_api
FeatureSet
p2886
(dp2887
g12
(dp2888
S'posn'
p2889
S'70'
p2890
sS'name'
p2891
S'\xe0\xa4\x96\xe0\xa4\xbf\xe0\xa4\xb2\xe0\xa4\xbe\xe0\xa4\xab'
p2892
sS'drel'
p2893
S'lwg__psp:NP2'
p2894
sS'chunktype'
p2895
S'child:NP2'
p2896
sS'af'
p2897
S'\xe0\xa4\x96\xe0\xa4\xbf\xe0\xa4\xb2\xe0\xa4\xbe\xe0\xa4\xab,adj,,,,,,'
p2898
ssbsg26
I00
sg27
I00
sg28
Nsg29
Nsg30
I1
sg31
I5
sg32
Nsg33
Nsg34
S'PSP'
p2899
sg36
g2886
sg37
I00
sba(issf_api
Word
p2900
(dp2901
g6
I00
sg7
V\u0928\u0935\u0918\u0930
p2902
sg9
(issf_api
FeatureSet
p2903
(dp2904
g12
(dp2905
S'posn'
p2906
S'80'
p2907
sS'name'
p2908
S'\xe0\xa4\xa8\xe0\xa4\xb5\xe0\xa4\x98\xe0\xa4\xb0'
p2909
sS'drel'
p2910
S'pof__cn:NP3'
p2911
sS'chunktype'
p2912
S'child:NP3'
p2913
sS'af'
p2914
S'\xe0\xa4\xa8\xe0\xa4\xb5\xe0\xa4\x98\xe0\xa4\xb0,n,m,sg,3,d,0,0'
p2915
ssbsg26
I00
sg27
I00
sg28
Nsg29
Nsg30
I2
sg31
I5
sg32
Nsg33
Nsg34
S'NNPC'
p2916
sg36
g2903
sg37
I00
sba(issf_api
Word
p2917
(dp2918
g6
I00
sg7
V\u092a\u0941\u0932\u093f\u0938
p2919
sg9
(issf_api
FeatureSet
p2920
(dp2921
g12
(dp2922
S'posn'
p2923
S'90'
p2924
sS'name'
p2925
S'\xe0\xa4\xaa\xe0\xa5\x81\xe0\xa4\xb2\xe0\xa4\xbf\xe0\xa4\xb8'
p2926
sS'drel'
p2927
S'pof__cn:NP3'
p2928
sS'chunktype'
p2929
S'child:NP3'
p2930
sS'af'
p2931
S'\xe0\xa4\xaa\xe0\xa5\x81\xe0\xa4\xb2\xe0\xa4\xbf\xe0\xa4\xb8,n,f,sg,3,d,0,0'
p2932
ssbsg26
I00
sg27
I00
sg28
Nsg29
Nsg30
I2
sg31
I5
sg32
Nsg33
Nsg34
S'NNPC'
p2933
sg36
g2920
sg37
I00
sba(issf_api
Word
p2934
(dp2935
g6
I00
sg7
V\u0938\u094d\u091f\u0947\u0936\u0928
p2936
sg9
(issf_api
FeatureSet
p2937
(dp2938
g12
(dp2939
S'posn'
p2940
S'100'
p2941
sS'name'
p2942
S'\xe0\xa4\xb8\xe0\xa5\x8d\xe0\xa4\x9f\xe0\xa5\x87\xe0\xa4\xb6\xe0\xa4\xa8'
p2943
sS'af'
p2944
S'\xe0\xa4\xb8\xe0\xa5\x8d\xe0\xa4\x9f\xe0\xa5\x87\xe0\xa4\xb6\xe0\xa4\xa8,n,m,sg,3,o,0_\xe0\xa4\xae\xe0\xa5\x87\xe0\xa4\x82,0'
p2945
sS'chunkid'
p2946
S'NP3'
p2947
sS'drel'
p2948
S'k7:VGF'
p2949
sS'vpos'
p2950
S'vib_4'
p2951
sS'chunktype'
p2952
S'head:NP3'
p2953
ssbsg26
I00
sg27
I00
sg28
Nsg29
Nsg30
I2
sg31
I5
sg32
Nsg33
Nsg34
S'NNP'
p2954
sg36
g2937
sg37
I00
sba(issf_api
Word
p2955
(dp2956
g6
I00
sg7
V\u092e\u0947\u0902
p2957
sg9
(issf_api
FeatureSet
p2958
(dp2959
g12
(dp2960
S'posn'
p2961
S'110'
p2962
sS'name'
p2963
S'\xe0\xa4\xae\xe0\xa5\x87\xe0\xa4\x82'
p2964
sS'drel'
p2965
S'lwg__psp:NP3'
p2966
sS'chunktype'
p2967
S'child:NP3'
p2968
sS'af'
p2969
S'\xe0\xa4\xae\xe0\xa5\x87\xe0\xa4\x82,psp,,,,,,'
p2970
ssbsg26
I00
sg27
I00
sg28
Nsg29
Nsg30
I2
sg31
I5
sg32
Nsg33
Nsg34
S'PSP'
p2971
sg36
g2958
sg37
I00
sba(issf_api
Word
p2972
(dp2973
g6
I00
sg7
V\u092a\u0939\u0932\u0947
p2974
sg9
(issf_api
FeatureSet
p2975
(dp2976
g12
(dp2977
S'posn'
p2978
S'120'
p2979
sS'name'
p2980
S'\xe0\xa4\xaa\xe0\xa4\xb9\xe0\xa4\xb2\xe0\xa5\x87'
p2981
sS'af'
p2982
S'\xe0\xa4\xaa\xe0\xa4\xb9\xe0\xa4\xb2\xe0\xa5\x87,nst,m,sg,3,o,0_\xe0\xa4\xb8\xe0\xa5\x87,'
p2983
sS'chunkid'
p2984
S'NP4'
p2985
sS'drel'
p2986
S'k7t:VGF'
p2987
sS'vpos'
p2988
S'2'
p2989
sS'chunktype'
p2990
S'head:NP4'
p2991
ssbsg26
I00
sg27
I00
sg28
Nsg29
Nsg30
I3
sg31
I5
sg32
Nsg33
Nsg34
S'NST'
p2992
sg36
g2975
sg37
I00
sba(issf_api
Word
p2993
(dp2994
g6
I00
sg7
V\u0938\u0947
p2995
sg9
(issf_api
FeatureSet
p2996
(dp2997
g12
(dp2998
S'posn'
p2999
S'130'
p3000
sS'name'
p3001
S'\xe0\xa4\xb8\xe0\xa5\x87'
p3002
sS'drel'
p3003
S'lwg__psp:NP4'
p3004
sS'chunktype'
p3005
S'child:NP4'
p3006
sS'af'
p3007
S'\xe0\xa4\xb8\xe0\xa5\x87,psp,,,,,,'
p3008
ssbsg26
I00
sg27
I00
sg28
Nsg29
Nsg30
I3
sg31
I5
sg32
Nsg33
Nsg34
S'PSP'
p3009
sg36
g2996
sg37
I00
sba(issf_api
Word
p3010
(dp3011
g6
I00
sg7
V\u0932\u0942\u091f
p3012
sg9
(issf_api
FeatureSet
p3013
(dp3014
g12
(dp3015
S'posn'
p3016
S'140'
p3017
sS'name'
p3018
S'\xe0\xa4\xb2\xe0\xa5\x82\xe0\xa4\x9f'
p3019
sS'af'
p3020
S'\xe0\xa4\xb2\xe0\xa5\x82\xe0\xa4\x9f,n,f,sg,3,o,0,0'
p3021
sS'chunkid'
p3022
S'NP5'
p3023
sS'drel'
p3024
S'ccof:CCP'
p3025
sS'chunktype'
p3026
S'head:NP5'
p3027
ssbsg26
I00
sg27
I00
sg28
Nsg29
Nsg30
I4
sg31
I5
sg32
Nsg33
Nsg34
S'NN'
p3028
sg36
g3013
sg37
I00
sba(issf_api
Word
p3029
(dp3030
g6
I00
sg7
V\u0914\u0930
p3031
sg9
(issf_api
FeatureSet
p3032
(dp3033
g12
(dp3034
S'posn'
p3035
S'150'
p3036
sS'name'
p3037
S'\xe0\xa4\x94\xe0\xa4\xb0'
p3038
sS'af'
p3039
S'\xe0\xa4\x94\xe0\xa4\xb0,avy,,,,,,'
p3040
sS'chunkid'
p3041
S'CCP'
p3042
sS'drel'
p3043
S'r6:NP7'
p3044
sS'chunktype'
p3045
S'head:CCP'
p3046
ssbsg26
I00
sg27
I00
sg28
Nsg29
Nsg30
I5
sg31
I5
sg32
Nsg33
Nsg34
S'CC'
p3047
sg36
g3032
sg37
I00
sba(issf_api
Word
p3048
(dp3049
g6
I00
sg7
V\u0939\u0924\u094d\u092f\u093e
p3050
sg9
(issf_api
FeatureSet
p3051
(dp3052
g12
(dp3053
S'posn'
p3054
S'160'
p3055
sS'name'
p3056
S'\xe0\xa4\xb9\xe0\xa4\xa4\xe0\xa5\x8d\xe0\xa4\xaf\xe0\xa4\xbe'
p3057
sS'af'
p3058
S'\xe0\xa4\xb9\xe0\xa4\xa4\xe0\xa5\x8d\xe0\xa4\xaf\xe0\xa4\xbe,n,f,sg,3,o,0_\xe0\xa4\x95\xe0\xa4\xbe,0'
p3059
sS'chunkid'
p3060
S'NP6'
p3061
sS'drel'
p3062
S'ccof:CCP'
p3063
sS'vpos'
p3064
S'vib_2'
p3065
sS'chunktype'
p3066
S'head:NP6'
p3067
ssbsg26
I00
sg27
I00
sg28
Nsg29
Nsg30
I6
sg31
I5
sg32
Nsg33
Nsg34
S'NN'
p3068
sg36
g3051
sg37
I00
sba(issf_api
Word
p3069
(dp3070
g6
I00
sg7
V\u0915\u0947
p3071
sg9
(issf_api
FeatureSet
p3072
(dp3073
g12
(dp3074
S'posn'
p3075
S'170'
p3076
sS'name'
p3077
S'\xe0\xa4\x95\xe0\xa5\x873'
p3078
sS'drel'
p3079
S'lwg__psp:NP6'
p3080
sS'chunktype'
p3081
S'child:NP6'
p3082
sS'af'
p3083
S'\xe0\xa4\x95\xe0\xa4\xbe,psp,m,pl,,d,,'
p3084
ssbsg26
I00
sg27
I00
sg28
Nsg29
Nsg30
I6
sg31
I5
sg32
Nsg33
Nsg34
S'PSP'
p3085
sg36
g3072
sg37
I00
sba(issf_api
Word
p3086
(dp3087
g6
I00
sg7
V\u092e\u093e\u092e\u0932\u0947
p3088
sg9
(issf_api
FeatureSet
p3089
(dp3090
g12
(dp3091
S'posn'
p3092
S'180'
p3093
sS'name'
p3094
S'\xe0\xa4\xae\xe0\xa4\xbe\xe0\xa4\xae\xe0\xa4\xb2\xe0\xa5\x87'
p3095
sS'af'
p3096
S'\xe0\xa4\xae\xe0\xa4\xbe\xe0\xa4\xae\xe0\xa4\xb2\xe0\xa4\xbe,n,m,pl,3,d,0,0'
p3097
sS'chunkid'
p3098
S'NP7'
p3099
sS'drel'
p3100
S'k1:VGF'
p3101
sS'chunktype'
p3102
S'head:NP7'
p3103
ssbsg26
I00
sg27
I00
sg28
Nsg29
Nsg30
I7
sg31
I5
sg32
Nsg33
Nsg34
S'NN'
p3104
sg36
g3089
sg37
I00
sba(issf_api
Word
p3105
(dp3106
g6
I00
sg7
V\u0926\u0930\u094d\u091c
p3107
sg9
(issf_api
FeatureSet
p3108
(dp3109
g12
(dp3110
S'posn'
p3111
S'190'
p3112
sS'name'
p3113
S'\xe0\xa4\xa6\xe0\xa4\xb0\xe0\xa5\x8d\xe0\xa4\x9c'
p3114
sS'af'
p3115
S'\xe0\xa4\xa6\xe0\xa4\xb0\xe0\xa5\x8d\xe0\xa4\x9c,adj,any,any,,,,'
p3116
sS'chunkid'
p3117
S'JJP'
p3118
sS'drel'
p3119
S'pof:VGF'
p3120
sS'chunktype'
p3121
S'head:JJP'
p3122
ssbsg26
I00
sg27
I00
sg28
Nsg29
Nsg30
I8
sg31
I5
sg32
Nsg33
Nsg34
S'JJ'
p3123
sg36
g3108
sg37
I00
sba(issf_api
Word
p3124
(dp3125
g6
I00
sg7
V\u0939\u0948\u0902
p3126
sg9
(issf_api
FeatureSet
p3127
(dp3128
g12
(dp3129
S'posn'
p3130
S'200'
p3131
sS'name'
p3132
S'\xe0\xa4\xb9\xe0\xa5\x88\xe0\xa4\x82'
p3133
sS'af'
p3134
S'\xe0\xa4\xb9\xe0\xa5\x88,v,any,pl,3,,\xe0\xa4\xb9\xe0\xa5\x88,hE'
p3135
sS'chunkid'
p3136
S'VGF'
p3137
sS'chunktype'
p3138
S'head:VGF'
p3139
sS'voicetype'
p3140
S'active'
p3141
sS'stype'
p3142
S'declarative'
p3143
ssbsg26
I00
sg27
I00
sg28
Nsg29
Nsg30
I9
sg31
I5
sg32
Nsg33
Nsg34
S'VM'
p3144
sg36
g3127
sg37
I00
sba(issf_api
Word
p3145
(dp3146
g6
I00
sg7
V\u0964
p3147
sg9
(issf_api
FeatureSet
p3148
(dp3149
g12
(dp3150
S'posn'
p3151
S'210'
p3152
sS'name'
p3153
S'\xe0\xa5\xa4'
p3154
sS'af'
p3155
S'.,punc,,,,,,'
p3156
sS'chunkid'
p3157
S'BLK'
p3158
sS'drel'
p3159
S'rsym:VGF'
p3160
sS'chunktype'
p3161
S'head:BLK'
p3162
ssbsg26
I00
sg27
I00
sg28
Nsg29
Nsg30
I10
sg31
I5
sg32
Nsg33
Nsg34
S'SYM'
p3163
sg36
g3148
sg37
I00
sbasS'sentenceList'
p3164
(lp3165
(issf_api
Sentence
p3166
(dp3167
S'rootNode'
p3168
(lp3169
sg31
I0
sS'wordNumList'
p3170
(lp3171
I0
aI1
aI2
aI3
aI4
aI5
aI6
aI7
aI8
aI9
aI10
aI11
aI12
aI13
aI14
aI15
aI16
aI17
aI18
aI19
aI20
aI21
asS'nodeDict'
p3172
(dp3173
S'VGF'
p3174
(issf_api
Node
p3175
(dp3176
S'nodeRelation'
p3177
S'None'
p3178
sS'nodeName'
p3179
g3174
sS'nodeParent'
p3180
g3178
sS'nodeLevel'
p3181
I-1
sg30
I8
sS'childList'
p3182
(lp3183
S'JJP'
p3184
aS'NP5'
p3185
aS'BLK'
p3186
aS'NP4'
p3187
aS'NP7'
p3188
aS'NP3'
p3189
asbsg3184
(issf_api
Node
p3190
(dp3191
g3177
S'pof'
p3192
sg3179
g3184
sg3180
S'VGF'
p3193
sg3181
I-1
sg30
I7
sg3182
(lp3194
sbsg3185
(issf_api
Node
p3195
(dp3196
g3177
S'k1'
p3197
sg3179
g3185
sg3180
S'VGF'
p3198
sg3181
I-1
sg30
I4
sg3182
(lp3199
sbsg3186
(issf_api
Node
p3200
(dp3201
g3177
S'rsym'
p3202
sg3179
g3186
sg3180
S'VGF'
p3203
sg3181
I-1
sg30
I9
sg3182
(lp3204
sbsS'NP'
p3205
(issf_api
Node
p3206
(dp3207
g3177
S'nmod'
p3208
sg3179
g3205
sg3180
S'NP2'
p3209
sg3181
I-1
sg30
I0
sg3182
(lp3210
sbsg3187
(issf_api
Node
p3211
(dp3212
g3177
S'ras-k2'
p3213
sg3179
g3187
sg3180
S'VGF'
p3214
sg3181
I-1
sg30
I3
sg3182
(lp3215
sbsg3188
(issf_api
Node
p3216
(dp3217
g3177
S'k5'
p3218
sg3179
g3188
sg3180
S'VGF'
p3219
sg3181
I-1
sg30
I6
sg3182
(lp3220
S'NP6'
p3221
asbsg3221
(issf_api
Node
p3222
(dp3223
g3177
S'r6'
p3224
sg3179
g3221
sg3180
S'NP7'
p3225
sg3181
I-1
sg30
I5
sg3182
(lp3226
sbsg3189
(issf_api
Node
p3227
(dp3228
g3177
S'k2'
p3229
sg3179
g3189
sg3180
S'VGF'
p3230
sg3181
I-1
sg30
I2
sg3182
(lp3231
S'NP2'
p3232
asbsg3232
(issf_api
Node
p3233
(dp3234
g3177
S'r6'
p3235
sg3179
g3232
sg3180
S'NP3'
p3236
sg3181
I-1
sg30
I1
sg3182
(lp3237
g3205
asbssS'chunkList'
p3238
(lp3239
(issf_api
Chunk
p3240
(dp3241
g3179
g53
sg30
I0
sS'chunkTag'
p3242
g60
sg31
I0
sg3170
(lp3243
I0
aI1
asg36
(issf_api
FeatureSet
p3244
(dp3245
g12
(dp3246
S'name'
p3247
g3205
sS'drel'
p3248
S'nmod:NP2'
p3249
ssbsba(issf_api
Chunk
p3250
(dp3251
g3179
g120
sg30
I1
sg3242
g135
sg31
I0
sg3170
(lp3252
I2
aI3
aI4
aI5
asg36
(issf_api
FeatureSet
p3253
(dp3254
g12
(dp3255
S'name'
p3256
g3232
sS'drel'
p3257
S'r6:NP3'
p3258
ssbsba(issf_api
Chunk
p3259
(dp3260
g3179
g187
sg30
I2
sg3242
g198
sg31
I0
sg3170
(lp3261
I6
aI7
aI8
asg36
(issf_api
FeatureSet
p3262
(dp3263
g12
(dp3264
S'name'
p3265
g3189
sS'drel'
p3266
S'k2:VGF'
p3267
ssbsba(issf_api
Chunk
p3268
(dp3269
g3179
g229
sg30
I3
sg3242
g236
sg31
I0
sg3170
(lp3270
I9
aI10
asg36
(issf_api
FeatureSet
p3271
(dp3272
g12
(dp3273
S'name'
p3274
g3187
sS'drel'
p3275
S'ras-k2:VGF'
p3276
ssbsba(issf_api
Chunk
p3277
(dp3278
g3179
g267
sg30
I4
sg3242
g274
sg31
I0
sg3170
(lp3279
I11
aI12
asg36
(issf_api
FeatureSet
p3280
(dp3281
g12
(dp3282
S'name'
p3283
g3185
sS'drel'
p3284
S'k1:VGF'
p3285
ssbsba(issf_api
Chunk
p3286
(dp3287
g3179
g305
sg30
I5
sg3242
g312
sg31
I0
sg3170
(lp3288
I13
aI14
asg36
(issf_api
FeatureSet
p3289
(dp3290
g12
(dp3291
S'name'
p3292
g3221
sS'drel'
p3293
S'r6:NP7'
p3294
ssbsba(issf_api
Chunk
p3295
(dp3296
g3179
g377
sg30
I6
sg3242
g384
sg31
I0
sg3170
(lp3297
I15
aI16
aI17
aI18
asg36
(issf_api
FeatureSet
p3298
(dp3299
g12
(dp3300
S'name'
p3301
g3188
sS'drel'
p3302
S'k5:VGF'
p3303
ssbsba(issf_api
Chunk
p3304
(dp3305
g3179
g415
sg30
I7
sg3242
g420
sg31
I0
sg3170
(lp3306
I19
asg36
(issf_api
FeatureSet
p3307
(dp3308
g12
(dp3309
S'name'
p3310
g3184
sS'drel'
p3311
S'pof:VGF'
p3312
ssbsba(issf_api
Chunk
p3313
(dp3314
g3179
g434
sg30
I8
sg3242
g441
sg31
I0
sg3170
(lp3315
I20
asg36
(issf_api
FeatureSet
p3316
(dp3317
g12
(dp3318
S'name'
p3319
g3174
ssbsba(issf_api
Chunk
p3320
(dp3321
g3179
g455
sg30
I9
sg3242
g460
sg31
I0
sg3170
(lp3322
I21
asg36
(issf_api
FeatureSet
p3323
(dp3324
g12
(dp3325
S'name'
p3326
g3186
sS'drel'
p3327
S'rsym:VGF'
p3328
ssbsbasba(issf_api
Sentence
p3329
(dp3330
g3168
(lp3331
sg31
I1
sg3170
(lp3332
I22
aI23
aI24
aI25
aI26
aI27
aI28
aI29
aI30
aI31
aI32
aI33
aI34
aI35
aI36
aI37
aI38
aI39
aI40
aI41
aI42
aI43
aI44
aI45
aI46
asg3172
(dp3333
S'VGNN'
p3334
(issf_api
Node
p3335
(dp3336
g3177
S'r6'
p3337
sg3179
g3334
sg3180
S'NP4'
p3338
sg3181
I-1
sg30
I3
sg3182
(lp3339
S'NP3'
p3340
asbsS'VGF'
p3341
(issf_api
Node
p3342
(dp3343
g3177
g3178
sg3179
g3341
sg3180
g3178
sg3181
I-1
sg30
I8
sg3182
(lp3344
S'JJP'
p3345
aS'VGNN2'
p3346
aS'NP5'
p3347
aS'BLK'
p3348
aS'NP'
p3349
asbsg3345
(issf_api
Node
p3350
(dp3351
g3177
S'pof'
p3352
sg3179
g3345
sg3180
S'VGF'
p3353
sg3181
I-1
sg30
I7
sg3182
(lp3354
sbsg3346
(issf_api
Node
p3355
(dp3356
g3177
S'k7t'
p3357
sg3179
g3346
sg3180
S'VGF'
p3358
sg3181
I-1
sg30
I5
sg3182
(lp3359
S'NP4'
p3360
asbsg3347
(issf_api
Node
p3361
(dp3362
g3177
S'k2'
p3363
sg3179
g3347
sg3180
S'VGF'
p3364
sg3181
I-1
sg30
I6
sg3182
(lp3365
sbsg3348
(issf_api
Node
p3366
(dp3367
g3177
S'rsym'
p3368
sg3179
g3348
sg3180
S'VGF'
p3369
sg3181
I-1
sg30
I9
sg3182
(lp3370
sbsg3349
(issf_api
Node
p3371
(dp3372
g3177
S'k7a'
p3373
sg3179
g3349
sg3180
S'VGF'
p3374
sg3181
I-1
sg30
I0
sg3182
(lp3375
sbsg3360
(issf_api
Node
p3376
(dp3377
g3177
S'k2'
p3378
sg3179
g3360
sg3180
S'VGNN2'
p3379
sg3181
I-1
sg30
I4
sg3182
(lp3380
g3334
asbsg3340
(issf_api
Node
p3381
(dp3382
g3177
S'k2'
p3383
sg3179
g3340
sg3180
S'VGNN'
p3384
sg3181
I-1
sg30
I2
sg3182
(lp3385
S'NP2'
p3386
asbsg3386
(issf_api
Node
p3387
(dp3388
g3177
S'r6'
p3389
sg3179
g3386
sg3180
S'NP3'
p3390
sg3181
I-1
sg30
I1
sg3182
(lp3391
sbssg3238
(lp3392
(issf_api
Chunk
p3393
(dp3394
g3179
g508
sg30
I0
sg3242
g515
sg31
I1
sg3170
(lp3395
I22
aI23
aI24
aI25
aI26
asg36
(issf_api
FeatureSet
p3396
(dp3397
g12
(dp3398
S'name'
p3399
g3349
sS'drel'
p3400
S'k7a:VGF'
p3401
ssbsba(issf_api
Chunk
p3402
(dp3403
g3179
g597
sg30
I1
sg3242
g604
sg31
I1
sg3170
(lp3404
I27
aI28
aI29
aI30
asg36
(issf_api
FeatureSet
p3405
(dp3406
g12
(dp3407
S'name'
p3408
g3386
sS'drel'
p3409
S'r6:NP3'
p3410
ssbsba(issf_api
Chunk
p3411
(dp3412
g3179
g669
sg30
I2
sg3242
g676
sg31
I1
sg3170
(lp3413
I31
aI32
aI33
aI34
asg36
(issf_api
FeatureSet
p3414
(dp3415
g12
(dp3416
S'name'
p3417
g3340
sS'drel'
p3418
S'k2:VGNN'
p3419
ssbsba(issf_api
Chunk
p3420
(dp3421
g3179
g707
sg30
I3
sg3242
g714
sg31
I1
sg3170
(lp3422
I35
aI36
asg36
(issf_api
FeatureSet
p3423
(dp3424
g12
(dp3425
S'name'
p3426
g3334
sS'drel'
p3427
S'r6:NP4'
p3428
ssbsba(issf_api
Chunk
p3429
(dp3430
g3179
g745
sg30
I4
sg3242
g750
sg31
I1
sg3170
(lp3431
I37
asg36
(issf_api
FeatureSet
p3432
(dp3433
g12
(dp3434
S'name'
p3435
g3360
sS'drel'
p3436
S'k2:VGNN2'
p3437
ssbsba(issf_api
Chunk
p3438
(dp3439
g3179
g764
sg30
I5
sg3242
g771
sg31
I1
sg3170
(lp3440
I38
aI39
asg36
(issf_api
FeatureSet
p3441
(dp3442
g12
(dp3443
S'name'
p3444
g3346
sS'drel'
p3445
S'k7t:VGF'
p3446
ssbsba(issf_api
Chunk
p3447
(dp3448
g3179
g823
sg30
I6
sg3242
g834
sg31
I1
sg3170
(lp3449
I40
aI41
aI42
asg36
(issf_api
FeatureSet
p3450
(dp3451
g12
(dp3452
S'name'
p3453
g3347
sS'drel'
p3454
S'k2:VGF'
p3455
ssbsba(issf_api
Chunk
p3456
(dp3457
g3179
g865
sg30
I7
sg3242
g870
sg31
I1
sg3170
(lp3458
I43
asg36
(issf_api
FeatureSet
p3459
(dp3460
g12
(dp3461
S'name'
p3462
g3345
sS'drel'
p3463
S'pof:VGF'
p3464
ssbsba(issf_api
Chunk
p3465
(dp3466
g3179
g884
sg30
I8
sg3242
g893
sg31
I1
sg3170
(lp3467
I44
aI45
asg36
(issf_api
FeatureSet
p3468
(dp3469
g12
(dp3470
S'name'
p3471
g3341
ssbsba(issf_api
Chunk
p3472
(dp3473
g3179
g924
sg30
I9
sg3242
g929
sg31
I1
sg3170
(lp3474
I46
asg36
(issf_api
FeatureSet
p3475
(dp3476
g12
(dp3477
S'name'
p3478
g3348
sS'drel'
p3479
S'rsym:VGF'
p3480
ssbsbasba(issf_api
Sentence
p3481
(dp3482
g3168
(lp3483
sg31
I2
sg3170
(lp3484
I47
aI48
aI49
aI50
aI51
aI52
aI53
aI54
aI55
aI56
aI57
aI58
aI59
aI60
aI61
aI62
aI63
aI64
aI65
aI66
aI67
aI68
aI69
aI70
aI71
aI72
aI73
aI74
aI75
aI76
aI77
aI78
aI79
aI80
aI81
aI82
aI83
aI84
aI85
aI86
asg3172
(dp3485
S'VGNF'
p3486
(issf_api
Node
p3487
(dp3488
g3177
S'vmod'
p3489
sg3179
g3486
sg3180
S'VGF2'
p3490
sg3181
I-1
sg30
I15
sg3182
(lp3491
S'NP12'
p3492
aS'NP4'
p3493
asbsS'NP11'
p3494
(issf_api
Node
p3495
(dp3496
g3177
S'ccof'
p3497
sg3179
g3494
sg3180
S'CCP2'
p3498
sg3181
I-1
sg30
I13
sg3182
(lp3499
sbsS'NP10'
p3500
(issf_api
Node
p3501
(dp3502
g3177
S'ccof'
p3503
sg3179
g3500
sg3180
S'CCP2'
p3504
sg3181
I-1
sg30
I11
sg3182
(lp3505
S'NP9'
p3506
asbsS'VGF'
p3507
(issf_api
Node
p3508
(dp3509
g3177
g3178
sg3179
g3507
sg3180
g3178
sg3181
I-1
sg30
I3
sg3182
(lp3510
S'CCP'
p3511
aS'BLK'
p3512
aS'NP3'
p3513
asbsg3492
(issf_api
Node
p3514
(dp3515
g3177
S'ras-k1'
p3516
sg3179
g3492
sg3180
S'VGNF'
p3517
sg3181
I-1
sg30
I14
sg3182
(lp3518
sbsg3511
(issf_api
Node
p3519
(dp3520
g3177
S'k2'
p3521
sg3179
g3511
sg3180
S'VGF'
p3522
sg3181
I-1
sg30
I4
sg3182
(lp3523
S'VGF2'
p3524
asbsS'JJP'
p3525
(issf_api
Node
p3526
(dp3527
g3177
S'pof'
p3528
sg3179
g3525
sg3180
S'VGF2'
p3529
sg3181
I-1
sg30
I16
sg3182
(lp3530
sbsg3524
(issf_api
Node
p3531
(dp3532
g3177
S'ccof'
p3533
sg3179
g3524
sg3180
S'CCP'
p3534
sg3181
I-1
sg30
I17
sg3182
(lp3535
g3486
ag3525
aS'CCP2'
p3536
asbsS'NP5'
p3537
(issf_api
Node
p3538
(dp3539
g3177
S'nmod'
p3540
sg3179
g3537
sg3180
S'NP6'
p3541
sg3181
I-1
sg30
I6
sg3182
(lp3542
sbsg3506
(issf_api
Node
p3543
(dp3544
g3177
S'nmod'
p3545
sg3179
g3506
sg3180
S'NP10'
p3546
sg3181
I-1
sg30
I10
sg3182
(lp3547
sbsS'NP8'
p3548
(issf_api
Node
p3549
(dp3550
g3177
S'ccof'
p3551
sg3179
g3548
sg3180
S'CCP2'
p3552
sg3181
I-1
sg30
I9
sg3182
(lp3553
S'NP7'
p3554
asbsg3512
(issf_api
Node
p3555
(dp3556
g3177
S'rsym'
p3557
sg3179
g3512
sg3180
S'VGF'
p3558
sg3181
I-1
sg30
I18
sg3182
(lp3559
sbsS'NP'
p3560
(issf_api
Node
p3561
(dp3562
g3177
S'r6'
p3563
sg3179
g3560
sg3180
S'NP2'
p3564
sg3181
I-1
sg30
I0
sg3182
(lp3565
sbsg3493
(issf_api
Node
p3566
(dp3567
g3177
S'adv'
p3568
sg3179
g3493
sg3180
S'VGNF'
p3569
sg3181
I-1
sg30
I5
sg3182
(lp3570
sbsg3554
(issf_api
Node
p3571
(dp3572
g3177
S'nmod'
p3573
sg3179
g3554
sg3180
S'NP8'
p3574
sg3181
I-1
sg30
I8
sg3182
(lp3575
sbsS'NP6'
p3576
(issf_api
Node
p3577
(dp3578
g3177
S'ccof'
p3579
sg3179
g3576
sg3180
S'CCP2'
p3580
sg3181
I-1
sg30
I7
sg3182
(lp3581
g3537
asbsg3536
(issf_api
Node
p3582
(dp3583
g3177
S'k1'
p3584
sg3179
g3536
sg3180
S'VGF2'
p3585
sg3181
I-1
sg30
I12
sg3182
(lp3586
g3494
ag3500
ag3548
ag3576
asbsg3513
(issf_api
Node
p3587
(dp3588
g3177
S'k1'
p3589
sg3179
g3513
sg3180
S'VGF'
p3590
sg3181
I-1
sg30
I2
sg3182
(lp3591
S'NP2'
p3592
asbsg3592
(issf_api
Node
p3593
(dp3594
g3177
S'nmod'
p3595
sg3179
g3592
sg3180
S'NP3'
p3596
sg3181
I-1
sg30
I1
sg3182
(lp3597
g3560
asbssg3238
(lp3598
(issf_api
Chunk
p3599
(dp3600
g3179
g964
sg30
I0
sg3242
g973
sg31
I2
sg3170
(lp3601
I47
aI48
aI49
asg36
(issf_api
FeatureSet
p3602
(dp3603
g12
(dp3604
S'name'
p3605
g3560
sS'drel'
p3606
S'r6:NP2'
p3607
ssbsba(issf_api
Chunk
p3608
(dp3609
g3179
g1025
sg30
I1
sg3242
g1034
sg31
I2
sg3170
(lp3610
I50
aI51
asg36
(issf_api
FeatureSet
p3611
(dp3612
g12
(dp3613
S'name'
p3614
g3592
sS'drel'
p3615
S'nmod:NP3'
p3616
ssbsba(issf_api
Chunk
p3617
(dp3618
g3179
g1069
sg30
I2
sg3242
g1082
sg31
I2
sg3170
(lp3619
I52
aI53
aI54
asg36
(issf_api
FeatureSet
p3620
(dp3621
g12
(dp3622
S'name'
p3623
g3513
sS'drel'
p3624
S'k1:VGF'
p3625
ssbsba(issf_api
Chunk
p3626
(dp3627
g3179
g1113
sg30
I3
sg3242
g1120
sg31
I2
sg3170
(lp3628
I55
asg36
(issf_api
FeatureSet
p3629
(dp3630
g12
(dp3631
S'name'
p3632
g3507
ssbsba(issf_api
Chunk
p3633
(dp3634
g3179
g1134
sg30
I4
sg3242
g1139
sg31
I2
sg3170
(lp3635
I56
asg36
(issf_api
FeatureSet
p3636
(dp3637
g12
(dp3638
S'name'
p3639
g3511
sS'drel'
p3640
S'k2:VGF'
p3641
ssbsba(issf_api
Chunk
p3642
(dp3643
g3179
g1170
sg30
I5
sg3242
g1177
sg31
I2
sg3170
(lp3644
I57
aI58
aI59
asg36
(issf_api
FeatureSet
p3645
(dp3646
g12
(dp3647
S'name'
p3648
g3493
sS'drel'
p3649
S'adv:VGNF'
p3650
ssbsba(issf_api
Chunk
p3651
(dp3652
g3179
g1229
sg30
I6
sg3242
g1240
sg31
I2
sg3170
(lp3653
I60
aI61
asg36
(issf_api
FeatureSet
p3654
(dp3655
g12
(dp3656
S'name'
p3657
g3537
sS'drel'
p3658
S'nmod:NP6'
p3659
ssbsba(issf_api
Chunk
p3660
(dp3661
g3179
g1292
sg30
I7
sg3242
g1301
sg31
I2
sg3170
(lp3662
I62
aI63
aI64
aI65
asg36
(issf_api
FeatureSet
p3663
(dp3664
g12
(dp3665
S'name'
p3666
g3576
sS'drel'
p3667
S'ccof:CCP2'
p3668
ssbsba(issf_api
Chunk
p3669
(dp3670
g3179
g1353
sg30
I8
sg3242
g1364
sg31
I2
sg3170
(lp3671
I66
aI67
asg36
(issf_api
FeatureSet
p3672
(dp3673
g12
(dp3674
S'name'
p3675
g3554
sS'drel'
p3676
S'nmod:NP8'
p3677
ssbsba(issf_api
Chunk
p3678
(dp3679
g3179
g1397
sg30
I9
sg3242
g1406
sg31
I2
sg3170
(lp3680
I68
aI69
aI70
asg36
(issf_api
FeatureSet
p3681
(dp3682
g12
(dp3683
S'name'
p3684
g3548
sS'drel'
p3685
S'ccof:CCP2'
p3686
ssbsba(issf_api
Chunk
p3687
(dp3688
g3179
g1458
sg30
I10
sg3242
g1469
sg31
I2
sg3170
(lp3689
I71
aI72
asg36
(issf_api
FeatureSet
p3690
(dp3691
g12
(dp3692
S'name'
p3693
g3506
sS'drel'
p3694
S'nmod:NP10'
p3695
ssbsba(issf_api
Chunk
p3696
(dp3697
g3179
g1502
sg30
I11
sg3242
g1511
sg31
I2
sg3170
(lp3698
I73
aI74
asg36
(issf_api
FeatureSet
p3699
(dp3700
g12
(dp3701
S'name'
p3702
g3500
sS'drel'
p3703
S'ccof:CCP2'
p3704
ssbsba(issf_api
Chunk
p3705
(dp3706
g3179
g1525
sg30
I12
sg3242
g1530
sg31
I2
sg3170
(lp3707
I75
asg36
(issf_api
FeatureSet
p3708
(dp3709
g12
(dp3710
S'name'
p3711
g3536
sS'drel'
p3712
S'k1:VGF2'
p3713
ssbsba(issf_api
Chunk
p3714
(dp3715
g3179
g1565
sg30
I13
sg3242
g1576
sg31
I2
sg3170
(lp3716
I76
aI77
asg36
(issf_api
FeatureSet
p3717
(dp3718
g12
(dp3719
S'name'
p3720
g3494
sS'drel'
p3721
S'ccof:CCP2'
p3722
ssbsba(issf_api
Chunk
p3723
(dp3724
g3179
g1630
sg30
I14
sg3242
g1641
sg31
I2
sg3170
(lp3725
I78
aI79
aI80
aI81
asg36
(issf_api
FeatureSet
p3726
(dp3727
g12
(dp3728
S'name'
p3729
g3492
sS'drel'
p3730
S'ras-k1:VGNF'
p3731
ssbsba(issf_api
Chunk
p3732
(dp3733
g3179
g1672
sg30
I15
sg3242
g1677
sg31
I2
sg3170
(lp3734
I82
asg36
(issf_api
FeatureSet
p3735
(dp3736
g12
(dp3737
S'name'
p3738
g3486
sS'drel'
p3739
S'vmod:VGF2'
p3740
ssbsba(issf_api
Chunk
p3741
(dp3742
g3179
g1691
sg30
I16
sg3242
g1696
sg31
I2
sg3170
(lp3743
I83
asg36
(issf_api
FeatureSet
p3744
(dp3745
g12
(dp3746
S'name'
p3747
g3525
sS'drel'
p3748
S'pof:VGF2'
p3749
ssbsba(issf_api
Chunk
p3750
(dp3751
g3179
g1710
sg30
I17
sg3242
g1721
sg31
I2
sg3170
(lp3752
I84
aI85
asg36
(issf_api
FeatureSet
p3753
(dp3754
g12
(dp3755
S'name'
p3756
g3524
sS'drel'
p3757
S'ccof:CCP'
p3758
ssbsba(issf_api
Chunk
p3759
(dp3760
g3179
g1752
sg30
I18
sg3242
g1757
sg31
I2
sg3170
(lp3761
I86
asg36
(issf_api
FeatureSet
p3762
(dp3763
g12
(dp3764
S'name'
p3765
g3512
sS'drel'
p3766
S'rsym:VGF'
p3767
ssbsbasba(issf_api
Sentence
p3768
(dp3769
g3168
(lp3770
sg31
I3
sg3170
(lp3771
I87
aI88
aI89
aI90
aI91
aI92
aI93
aI94
aI95
aI96
aI97
aI98
aI99
aI100
aI101
aI102
aI103
aI104
aI105
aI106
aI107
aI108
aI109
aI110
aI111
asg3172
(dp3772
S'VGF2'
p3773
(issf_api
Node
p3774
(dp3775
g3177
S'ccof'
p3776
sg3179
g3773
sg3180
S'CCP'
p3777
sg3181
I-1
sg30
I11
sg3182
(lp3778
S'NP4'
p3779
aS'NP7'
p3780
aS'NP2'
p3781
asbsS'VGNN'
p3782
(issf_api
Node
p3783
(dp3784
g3177
S'r6'
p3785
sg3179
g3782
sg3180
S'NP7'
p3786
sg3181
I-1
sg30
I9
sg3182
(lp3787
S'NP6'
p3788
asbsS'VGF'
p3789
(issf_api
Node
p3790
(dp3791
g3177
g3178
sg3179
g3789
sg3180
g3178
sg3181
I-1
sg30
I1
sg3182
(lp3792
S'CCP'
p3793
aS'BLK'
p3794
aS'NP'
p3795
asbsg3793
(issf_api
Node
p3796
(dp3797
g3177
S'k2'
p3798
sg3179
g3793
sg3180
S'VGF'
p3799
sg3181
I-1
sg30
I2
sg3182
(lp3800
g3773
asbsS'JJP'
p3801
(issf_api
Node
p3802
(dp3803
g3177
S'nmod'
p3804
sg3179
g3801
sg3180
S'NP4'
p3805
sg3181
I-1
sg30
I5
sg3182
(lp3806
S'NP3'
p3807
asbsS'NP5'
p3808
(issf_api
Node
p3809
(dp3810
g3177
S'r6'
p3811
sg3179
g3808
sg3180
S'NP6'
p3812
sg3181
I-1
sg30
I7
sg3182
(lp3813
sbsg3794
(issf_api
Node
p3814
(dp3815
g3177
S'rsym'
p3816
sg3179
g3794
sg3180
S'VGF'
p3817
sg3181
I-1
sg30
I12
sg3182
(lp3818
sbsg3795
(issf_api
Node
p3819
(dp3820
g3177
S'k1'
p3821
sg3179
g3795
sg3180
S'VGF'
p3822
sg3181
I-1
sg30
I0
sg3182
(lp3823
sbsg3779
(issf_api
Node
p3824
(dp3825
g3177
S'k7p'
p3826
sg3179
g3779
sg3180
S'VGF2'
p3827
sg3181
I-1
sg30
I6
sg3182
(lp3828
g3801
asbsg3780
(issf_api
Node
p3829
(dp3830
g3177
S'k7'
p3831
sg3179
g3780
sg3180
S'VGF2'
p3832
sg3181
I-1
sg30
I10
sg3182
(lp3833
g3782
asbsg3788
(issf_api
Node
p3834
(dp3835
g3177
S'k2'
p3836
sg3179
g3788
sg3180
S'VGNN'
p3837
sg3181
I-1
sg30
I8
sg3182
(lp3838
g3808
asbsg3807
(issf_api
Node
p3839
(dp3840
g3177
S'jjmod'
p3841
sg3179
g3807
sg3180
S'JJP'
p3842
sg3181
I-1
sg30
I4
sg3182
(lp3843
sbsg3781
(issf_api
Node
p3844
(dp3845
g3177
S'k1'
p3846
sg3179
g3781
sg3180
S'VGF2'
p3847
sg3181
I-1
sg30
I3
sg3182
(lp3848
sbssg3238
(lp3849
(issf_api
Chunk
p3850
(dp3851
g3179
g1773
sg30
I0
sg3242
g1782
sg31
I3
sg3170
(lp3852
I87
asg36
(issf_api
FeatureSet
p3853
(dp3854
g12
(dp3855
S'name'
p3856
g3795
sS'drel'
p3857
S'k1:VGF'
p3858
ssbsba(issf_api
Chunk
p3859
(dp3860
g3179
g1796
sg30
I1
sg3242
g1803
sg31
I3
sg3170
(lp3861
I88
asg36
(issf_api
FeatureSet
p3862
(dp3863
g12
(dp3864
S'name'
p3865
g3789
ssbsba(issf_api
Chunk
p3866
(dp3867
g3179
g1817
sg30
I2
sg3242
g1822
sg31
I3
sg3170
(lp3868
I89
asg36
(issf_api
FeatureSet
p3869
(dp3870
g12
(dp3871
S'name'
p3872
g3793
sS'drel'
p3873
S'k2:VGF'
p3874
ssbsba(issf_api
Chunk
p3875
(dp3876
g3179
g1857
sg30
I3
sg3242
g1866
sg31
I3
sg3170
(lp3877
I90
aI91
asg36
(issf_api
FeatureSet
p3878
(dp3879
g12
(dp3880
S'name'
p3881
g3781
sS'drel'
p3882
S'k1:VGF2'
p3883
ssbsba(issf_api
Chunk
p3884
(dp3885
g3179
g1880
sg30
I4
sg3242
g1885
sg31
I3
sg3170
(lp3886
I92
asg36
(issf_api
FeatureSet
p3887
(dp3888
g12
(dp3889
S'name'
p3890
g3807
sS'drel'
p3891
S'jjmod:JJP'
p3892
ssbsba(issf_api
Chunk
p3893
(dp3894
g3179
g1899
sg30
I5
sg3242
g1904
sg31
I3
sg3170
(lp3895
I93
asg36
(issf_api
FeatureSet
p3896
(dp3897
g12
(dp3898
S'name'
p3899
g3801
sS'drel'
p3900
S'nmod:NP4'
p3901
ssbsba(issf_api
Chunk
p3902
(dp3903
g3179
g1952
sg30
I6
sg3242
g1959
sg31
I3
sg3170
(lp3904
I94
aI95
aI96
aI97
aI98
asg36
(issf_api
FeatureSet
p3905
(dp3906
g12
(dp3907
S'name'
p3908
g3779
sS'drel'
p3909
S'k7p:VGF2'
p3910
ssbsba(issf_api
Chunk
p3911
(dp3912
g3179
g2024
sg30
I7
sg3242
g2031
sg31
I3
sg3170
(lp3913
I99
aI100
aI101
asg36
(issf_api
FeatureSet
p3914
(dp3915
g12
(dp3916
S'name'
p3917
g3808
sS'drel'
p3918
S'r6:NP6'
p3919
ssbsba(issf_api
Chunk
p3920
(dp3921
g3179
g2096
sg30
I8
sg3242
g2103
sg31
I3
sg3170
(lp3922
I102
aI103
aI104
aI105
asg36
(issf_api
FeatureSet
p3923
(dp3924
g12
(dp3925
S'name'
p3926
g3788
sS'drel'
p3927
S'k2:VGNN'
p3928
ssbsba(issf_api
Chunk
p3929
(dp3930
g3179
g2134
sg30
I9
sg3242
g2141
sg31
I3
sg3170
(lp3931
I106
aI107
asg36
(issf_api
FeatureSet
p3932
(dp3933
g12
(dp3934
S'name'
p3935
g3782
sS'drel'
p3936
S'r6:NP7'
p3937
ssbsba(issf_api
Chunk
p3938
(dp3939
g3179
g2172
sg30
I10
sg3242
g2179
sg31
I3
sg3170
(lp3940
I108
aI109
asg36
(issf_api
FeatureSet
p3941
(dp3942
g12
(dp3943
S'name'
p3944
g3780
sS'drel'
p3945
S'k7:VGF2'
p3946
ssbsba(issf_api
Chunk
p3947
(dp3948
g3179
g2210
sg30
I11
sg3242
g2219
sg31
I3
sg3170
(lp3949
I110
asg36
(issf_api
FeatureSet
p3950
(dp3951
g12
(dp3952
S'name'
p3953
g3773
sS'drel'
p3954
S'ccof:CCP'
p3955
ssbsba(issf_api
Chunk
p3956
(dp3957
g3179
g2233
sg30
I12
sg3242
g2238
sg31
I3
sg3170
(lp3958
I111
asg36
(issf_api
FeatureSet
p3959
(dp3960
g12
(dp3961
S'name'
p3962
g3794
sS'drel'
p3963
S'rsym:VGF'
p3964
ssbsbasba(issf_api
Sentence
p3965
(dp3966
g3168
(lp3967
sg31
I4
sg3170
(lp3968
I112
aI113
aI114
aI115
aI116
aI117
aI118
aI119
aI120
aI121
aI122
aI123
aI124
aI125
aI126
aI127
aI128
aI129
aI130
aI131
aI132
aI133
aI134
aI135
aI136
aI137
asg3172
(dp3969
S'VGNN'
p3970
(issf_api
Node
p3971
(dp3972
g3177
S'r6'
p3973
sg3179
g3970
sg3180
S'NP8'
p3974
sg3181
I-1
sg30
I11
sg3182
(lp3975
S'NP7'
p3976
aS'NP6'
p3977
asbsS'VGF'
p3978
(issf_api
Node
p3979
(dp3980
g3177
g3178
sg3179
g3978
sg3180
g3178
sg3181
I-1
sg30
I4
sg3182
(lp3981
S'JJP'
p3982
aS'BLK'
p3983
aS'NP'
p3984
aS'NP3'
p3985
asbsS'VGF3'
p3986
(issf_api
Node
p3987
(dp3988
g3177
S'ccof'
p3989
sg3179
g3986
sg3180
S'CCP'
p3990
sg3181
I-1
sg30
I13
sg3182
(lp3991
S'NP5'
p3992
aS'NP8'
p3993
asbsS'VGF2'
p3994
(issf_api
Node
p3995
(dp3996
g3177
S'nmod__relc'
p3997
sg3179
g3994
sg3180
S'NP3'
p3998
sg3181
I-1
sg30
I6
sg3182
(lp3999
S'NP4'
p4000
aS'CCP'
p4001
asbsg3982
(issf_api
Node
p4002
(dp4003
g3177
S'pof'
p4004
sg3179
g3982
sg3180
S'VGF'
p4005
sg3181
I-1
sg30
I3
sg3182
(lp4006
sbsg3992
(issf_api
Node
p4007
(dp4008
g3177
S'k1'
p4009
sg3179
g3992
sg3180
S'VGF3'
p4010
sg3181
I-1
sg30
I8
sg3182
(lp4011
sbsg3993
(issf_api
Node
p4012
(dp4013
g3177
S'k7'
p4014
sg3179
g3993
sg3180
S'VGF3'
p4015
sg3181
I-1
sg30
I12
sg3182
(lp4016
g3970
asbsg3983
(issf_api
Node
p4017
(dp4018
g3177
S'rsym'
p4019
sg3179
g3983
sg3180
S'VGF'
p4020
sg3181
I-1
sg30
I14
sg3182
(lp4021
sbsg3984
(issf_api
Node
p4022
(dp4023
g3177
S'k1'
p4024
sg3179
g3984
sg3180
S'VGF'
p4025
sg3181
I-1
sg30
I0
sg3182
(lp4026
sbsg4000
(issf_api
Node
p4027
(dp4028
g3177
S'k7'
p4029
sg3179
g4000
sg3180
S'VGF2'
p4030
sg3181
I-1
sg30
I5
sg3182
(lp4031
sbsg3976
(issf_api
Node
p4032
(dp4033
g3177
S'k2'
p4034
sg3179
g3976
sg3180
S'VGNN'
p4035
sg3181
I-1
sg30
I10
sg3182
(lp4036
sbsg3977
(issf_api
Node
p4037
(dp4038
g3177
S'k4'
p4039
sg3179
g3977
sg3180
S'VGNN'
p4040
sg3181
I-1
sg30
I9
sg3182
(lp4041
sbsg4001
(issf_api
Node
p4042
(dp4043
g3177
S'k2'
p4044
sg3179
g4001
sg3180
S'VGF2'
p4045
sg3181
I-1
sg30
I7
sg3182
(lp4046
g3986
asbsg3985
(issf_api
Node
p4047
(dp4048
g3177
S'k2'
p4049
sg3179
g3985
sg3180
S'VGF'
p4050
sg3181
I-1
sg30
I2
sg3182
(lp4051
g3994
aS'NP2'
p4052
asbsg4052
(issf_api
Node
p4053
(dp4054
g3177
S'r6'
p4055
sg3179
g4052
sg3180
S'NP3'
p4056
sg3181
I-1
sg30
I1
sg3182
(lp4057
sbssg3238
(lp4058
(issf_api
Chunk
p4059
(dp4060
g3179
g2269
sg30
I0
sg3242
g2276
sg31
I4
sg3170
(lp4061
I112
aI113
aI114
asg36
(issf_api
FeatureSet
p4062
(dp4063
g12
(dp4064
S'name'
p4065
g3984
sS'drel'
p4066
S'k1:VGF'
p4067
ssbsba(issf_api
Chunk
p4068
(dp4069
g3179
g2309
sg30
I1
sg3242
g2318
sg31
I4
sg3170
(lp4070
I115
aI116
asg36
(issf_api
FeatureSet
p4071
(dp4072
g12
(dp4073
S'name'
p4074
g4052
sS'drel'
p4075
S'r6:NP3'
p4076
ssbsba(issf_api
Chunk
p4077
(dp4078
g3179
g2370
sg30
I2
sg3242
g2383
sg31
I4
sg3170
(lp4079
I117
aI118
aI119
asg36
(issf_api
FeatureSet
p4080
(dp4081
g12
(dp4082
S'name'
p4083
g3985
sS'drel'
p4084
S'k2:VGF'
p4085
ssbsba(issf_api
Chunk
p4086
(dp4087
g3179
g2414
sg30
I3
sg3242
g2419
sg31
I4
sg3170
(lp4088
I120
asg36
(issf_api
FeatureSet
p4089
(dp4090
g12
(dp4091
S'name'
p4092
g3982
sS'drel'
p4093
S'pof:VGF'
p4094
ssbsba(issf_api
Chunk
p4095
(dp4096
g3179
g2433
sg30
I4
sg3242
g2440
sg31
I4
sg3170
(lp4097
I121
asg36
(issf_api
FeatureSet
p4098
(dp4099
g12
(dp4100
S'name'
p4101
g3978
ssbsba(issf_api
Chunk
p4102
(dp4103
g3179
g2458
sg30
I5
sg3242
g2467
sg31
I4
sg3170
(lp4104
I122
asg36
(issf_api
FeatureSet
p4105
(dp4106
g12
(dp4107
S'name'
p4108
g4000
sS'drel'
p4109
S'k7:VGF2'
p4110
ssbsba(issf_api
Chunk
p4111
(dp4112
g3179
g2481
sg30
I6
sg3242
g2492
sg31
I4
sg3170
(lp4113
I123
aI124
asg36
(issf_api
FeatureSet
p4114
(dp4115
g12
(dp4116
S'name'
p4117
g3994
sS'drel'
p4118
S'nmod__relc:NP3'
p4119
ssbsba(issf_api
Chunk
p4120
(dp4121
g3179
g2523
sg30
I7
sg3242
g2528
sg31
I4
sg3170
(lp4122
I125
asg36
(issf_api
FeatureSet
p4123
(dp4124
g12
(dp4125
S'name'
p4126
g4001
sS'drel'
p4127
S'k2:VGF2'
p4128
ssbsba(issf_api
Chunk
p4129
(dp4130
g3179
g2563
sg30
I8
sg3242
g2572
sg31
I4
sg3170
(lp4131
I126
aI127
asg36
(issf_api
FeatureSet
p4132
(dp4133
g12
(dp4134
S'name'
p4135
g3992
sS'drel'
p4136
S'k1:VGF3'
p4137
ssbsba(issf_api
Chunk
p4138
(dp4139
g3179
g2603
sg30
I9
sg3242
g2610
sg31
I4
sg3170
(lp4140
I128
aI129
aI130
asg36
(issf_api
FeatureSet
p4141
(dp4142
g12
(dp4143
S'name'
p4144
g3977
sS'drel'
p4145
S'k4:VGNN'
p4146
ssbsba(issf_api
Chunk
p4147
(dp4148
g3179
g2641
sg30
I10
sg3242
g2646
sg31
I4
sg3170
(lp4149
I131
asg36
(issf_api
FeatureSet
p4150
(dp4151
g12
(dp4152
S'name'
p4153
g3976
sS'drel'
p4154
S'k2:VGNN'
p4155
ssbsba(issf_api
Chunk
p4156
(dp4157
g3179
g2660
sg30
I11
sg3242
g2667
sg31
I4
sg3170
(lp4158
I132
aI133
asg36
(issf_api
FeatureSet
p4159
(dp4160
g12
(dp4161
S'name'
p4162
g3970
sS'drel'
p4163
S'r6:NP8'
p4164
ssbsba(issf_api
Chunk
p4165
(dp4166
g3179
g2698
sg30
I12
sg3242
g2705
sg31
I4
sg3170
(lp4167
I134
aI135
asg36
(issf_api
FeatureSet
p4168
(dp4169
g12
(dp4170
S'name'
p4171
g3993
sS'drel'
p4172
S'k7:VGF3'
p4173
ssbsba(issf_api
Chunk
p4174
(dp4175
g3179
g2736
sg30
I13
sg3242
g2745
sg31
I4
sg3170
(lp4176
I136
asg36
(issf_api
FeatureSet
p4177
(dp4178
g12
(dp4179
S'name'
p4180
g3986
sS'drel'
p4181
S'ccof:CCP'
p4182
ssbsba(issf_api
Chunk
p4183
(dp4184
g3179
g2759
sg30
I14
sg3242
g2764
sg31
I4
sg3170
(lp4185
I137
asg36
(issf_api
FeatureSet
p4186
(dp4187
g12
(dp4188
S'name'
p4189
g3983
sS'drel'
p4190
S'rsym:VGF'
p4191
ssbsbasba(issf_api
Sentence
p4192
(dp4193
g3168
(lp4194
sg31
I5
sg3170
(lp4195
I138
aI139
aI140
aI141
aI142
aI143
aI144
aI145
aI146
aI147
aI148
aI149
aI150
aI151
aI152
aI153
aI154
aI155
aI156
aI157
aI158
asg3172
(dp4196
S'VGF'
p4197
(issf_api
Node
p4198
(dp4199
g3177
g3178
sg3179
g4197
sg3180
g3178
sg3181
I-1
sg30
I9
sg3182
(lp4200
S'JJP'
p4201
aS'BLK'
p4202
aS'NP'
p4203
aS'NP4'
p4204
aS'NP7'
p4205
aS'NP3'
p4206
aS'NP2'
p4207
asbsS'CCP'
p4208
(issf_api
Node
p4209
(dp4210
g3177
S'r6'
p4211
sg3179
g4208
sg3180
S'NP7'
p4212
sg3181
I-1
sg30
I5
sg3182
(lp4213
S'NP5'
p4214
aS'NP6'
p4215
asbsg4201
(issf_api
Node
p4216
(dp4217
g3177
S'pof'
p4218
sg3179
g4201
sg3180
S'VGF'
p4219
sg3181
I-1
sg30
I8
sg3182
(lp4220
sbsg4214
(issf_api
Node
p4221
(dp4222
g3177
S'ccof'
p4223
sg3179
g4214
sg3180
S'CCP'
p4224
sg3181
I-1
sg30
I4
sg3182
(lp4225
sbsg4202
(issf_api
Node
p4226
(dp4227
g3177
S'rsym'
p4228
sg3179
g4202
sg3180
S'VGF'
p4229
sg3181
I-1
sg30
I10
sg3182
(lp4230
sbsg4203
(issf_api
Node
p4231
(dp4232
g3177
S'k7a'
p4233
sg3179
g4203
sg3180
S'VGF'
p4234
sg3181
I-1
sg30
I0
sg3182
(lp4235
sbsg4204
(issf_api
Node
p4236
(dp4237
g3177
S'k7t'
p4238
sg3179
g4204
sg3180
S'VGF'
p4239
sg3181
I-1
sg30
I3
sg3182
(lp4240
sbsg4205
(issf_api
Node
p4241
(dp4242
g3177
S'k1'
p4243
sg3179
g4205
sg3180
S'VGF'
p4244
sg3181
I-1
sg30
I7
sg3182
(lp4245
g4208
asbsg4215
(issf_api
Node
p4246
(dp4247
g3177
S'ccof'
p4248
sg3179
g4215
sg3180
S'CCP'
p4249
sg3181
I-1
sg30
I6
sg3182
(lp4250
sbsg4206
(issf_api
Node
p4251
(dp4252
g3177
S'k7'
p4253
sg3179
g4206
sg3180
S'VGF'
p4254
sg3181
I-1
sg30
I2
sg3182
(lp4255
sbsg4207
(issf_api
Node
p4256
(dp4257
g3177
S'vmod'
p4258
sg3179
g4207
sg3180
S'VGF'
p4259
sg3181
I-1
sg30
I1
sg3182
(lp4260
sbssg3238
(lp4261
(issf_api
Chunk
p4262
(dp4263
g3179
g2778
sg30
I0
sg3242
g2785
sg31
I5
sg3170
(lp4264
I138
aI139
aI140
asg36
(issf_api
FeatureSet
p4265
(dp4266
g12
(dp4267
S'name'
p4268
g4203
sS'drel'
p4269
S'k7a:VGF'
p4270
ssbsba(issf_api
Chunk
p4271
(dp4272
g3179
g2854
sg30
I1
sg3242
g2865
sg31
I5
sg3170
(lp4273
I141
aI142
aI143
aI144
asg36
(issf_api
FeatureSet
p4274
(dp4275
g12
(dp4276
S'name'
p4277
g4207
sS'drel'
p4278
S'vmod:VGF'
p4279
ssbsba(issf_api
Chunk
p4280
(dp4281
g3179
g2947
sg30
I2
sg3242
g2954
sg31
I5
sg3170
(lp4282
I145
aI146
aI147
aI148
asg36
(issf_api
FeatureSet
p4283
(dp4284
g12
(dp4285
S'name'
p4286
g4206
sS'drel'
p4287
S'k7:VGF'
p4288
ssbsba(issf_api
Chunk
p4289
(dp4290
g3179
g2985
sg30
I3
sg3242
g2992
sg31
I5
sg3170
(lp4291
I149
aI150
asg36
(issf_api
FeatureSet
p4292
(dp4293
g12
(dp4294
S'name'
p4295
g4204
sS'drel'
p4296
S'k7t:VGF'
p4297
ssbsba(issf_api
Chunk
p4298
(dp4299
g3179
g3023
sg30
I4
sg3242
g3028
sg31
I5
sg3170
(lp4300
I151
asg36
(issf_api
FeatureSet
p4301
(dp4302
g12
(dp4303
S'name'
p4304
g4214
sS'drel'
p4305
S'ccof:CCP'
p4306
ssbsba(issf_api
Chunk
p4307
(dp4308
g3179
g3042
sg30
I5
sg3242
g3047
sg31
I5
sg3170
(lp4309
I152
asg36
(issf_api
FeatureSet
p4310
(dp4311
g12
(dp4312
S'name'
p4313
g4208
sS'drel'
p4314
S'r6:NP7'
p4315
ssbsba(issf_api
Chunk
p4316
(dp4317
g3179
g3061
sg30
I6
sg3242
g3068
sg31
I5
sg3170
(lp4318
I153
aI154
asg36
(issf_api
FeatureSet
p4319
(dp4320
g12
(dp4321
S'name'
p4322
g4215
sS'drel'
p4323
S'ccof:CCP'
p4324
ssbsba(issf_api
Chunk
p4325
(dp4326
g3179
g3099
sg30
I7
sg3242
g3104
sg31
I5
sg3170
(lp4327
I155
asg36
(issf_api
FeatureSet
p4328
(dp4329
g12
(dp4330
S'name'
p4331
g4205
sS'drel'
p4332
S'k1:VGF'
p4333
ssbsba(issf_api
Chunk
p4334
(dp4335
g3179
g3118
sg30
I8
sg3242
g3123
sg31
I5
sg3170
(lp4336
I156
asg36
(issf_api
FeatureSet
p4337
(dp4338
g12
(dp4339
S'name'
p4340
g4201
sS'drel'
p4341
S'pof:VGF'
p4342
ssbsba(issf_api
Chunk
p4343
(dp4344
g3179
g3137
sg30
I9
sg3242
g3144
sg31
I5
sg3170
(lp4345
I157
asg36
(issf_api
FeatureSet
p4346
(dp4347
g12
(dp4348
S'name'
p4349
g4197
ssbsba(issf_api
Chunk
p4350
(dp4351
g3179
g3158
sg30
I10
sg3242
g3163
sg31
I5
sg3170
(lp4352
I158
asg36
(issf_api
FeatureSet
p4353
(dp4354
g12
(dp4355
S'name'
p4356
g4202
sS'drel'
p4357
S'rsym:VGF'
p4358
ssbsbasbasb.