(issf_api
SSFInfo
p0
(dp1
S'globalWordList'
p2
(lp3
(issf_api
Word
p4
(dp5
S'splitConn'
p6
I00
sS'word'
p7
V\u0905\u0938\u092e
p8
sS'extraFeatureSet'
p9
(issf_api
FeatureSet
p10
(dp11
S'featureDict'
p12
(dp13
S'crefhead'
p14
S'\xe0\xa4\x85\xe0\xa4\xb8\xe0\xa4\xae:i1'
p15
sS'posn'
p16
S'10'
p17
sS'name'
p18
S'\xe0\xa4\x85\xe0\xa4\xb8\xe0\xa4\xae'
p19
sS'af'
p20
S'\xe0\xa4\x85\xe0\xa4\xb8\xe0\xa4\xae,n,m,sg,3,d,0,0'
p21
sS'drel'
p22
S'pof__cn:NP'
p23
sS'crefchainhead'
p24
S'i1:t1'
p25
sS'chunktype'
p26
S'child:NP'
p27
sS'cref'
p28
S'i1%1:t1,i2%0:t2'
p29
ssbsS'arg1'
p30
I00
sS'arg2'
p31
I00
sS'sense'
p32
NsS'arg1Span'
p33
NsS'chunkNum'
p34
I0
sS'sentenceNum'
p35
I0
sS'relationNum'
p36
NsS'arg2Span'
p37
NsS'wordTag'
p38
S'NNPC'
p39
sS'featureSet'
p40
g10
sS'conn'
p41
I00
sba(issf_api
Word
p42
(dp43
g6
I00
sg7
V\u0938\u0930\u0915\u093e\u0930
p44
sg9
(issf_api
FeatureSet
p45
(dp46
g12
(dp47
S'crefhead'
p48
S'\xe0\xa4\xb8\xe0\xa4\xb0\xe0\xa4\x95\xe0\xa4\xbe\xe0\xa4\xb0:i2'
p49
sS'posn'
p50
S'20'
p51
sS'name'
p52
S'\xe0\xa4\xb8\xe0\xa4\xb0\xe0\xa4\x95\xe0\xa4\xbe\xe0\xa4\xb0'
p53
sS'af'
p54
S'\xe0\xa4\xb8\xe0\xa4\xb0\xe0\xa4\x95\xe0\xa4\xbe\xe0\xa4\xb0,n,f,sg,3,o,0_\xe0\xa4\xa8\xe0\xa5\x87,0'
p55
sS'chunkid'
p56
S'NP'
p57
sS'chunktype'
p58
S'head:NP'
p59
sS'crefchainhead'
p60
S'i2:t2'
p61
sS'vpos'
p62
S'vib_3'
p63
sS'cref'
p64
S'i2%1:t2'
p65
sS'drel'
p66
S'k1:VGF'
p67
ssbsg30
I00
sg31
I00
sg32
Nsg33
Nsg34
I0
sg35
I0
sg36
Nsg37
Nsg38
S'NNP'
p68
sg40
g45
sg41
I00
sba(issf_api
Word
p69
(dp70
g6
I00
sg7
V\u0928\u0947
p71
sg9
(issf_api
FeatureSet
p72
(dp73
g12
(dp74
S'posn'
p75
S'30'
p76
sS'name'
p77
S'\xe0\xa4\xa8\xe0\xa5\x87'
p78
sS'drel'
p79
S'lwg__psp:NP'
p80
sS'chunktype'
p81
S'child:NP'
p82
sS'af'
p83
S'\xe0\xa4\xa8\xe0\xa5\x87,psp,,,,,,'
p84
ssbsg30
I00
sg31
I00
sg32
Nsg33
Nsg34
I0
sg35
I0
sg36
Nsg37
Nsg38
S'PSP'
p85
sg40
g72
sg41
I00
sba(issf_api
Word
p86
(dp87
g6
I00
sg7
V\u0915\u0939\u093e
p88
sg9
(issf_api
FeatureSet
p89
(dp90
g12
(dp91
S'posn'
p92
S'40'
p93
sS'name'
p94
S'\xe0\xa4\x95\xe0\xa4\xb9\xe0\xa4\xbe'
p95
sS'af'
p96
S'\xe0\xa4\x95\xe0\xa4\xb9,v,m,sg,any,,\xe0\xa4\xaf\xe0\xa4\xbe,yA'
p97
sS'chunkid'
p98
S'VGF'
p99
sS'chunktype'
p100
S'head:VGF'
p101
sS'voicetype'
p102
S'active'
p103
sS'stype'
p104
S'declarative'
p105
ssbsg30
I00
sg31
I00
sg32
Nsg33
Nsg34
I1
sg35
I0
sg36
Nsg37
Nsg38
S'VM'
p106
sg40
g89
sg41
I00
sba(issf_api
Word
p107
(dp108
g6
I00
sg7
V\u0915\u093f
p109
sg9
(issf_api
FeatureSet
p110
(dp111
g12
(dp112
S'posn'
p113
S'50'
p114
sS'name'
p115
S'\xe0\xa4\x95\xe0\xa4\xbf'
p116
sS'af'
p117
S'\xe0\xa4\x95\xe0\xa4\xbf,avy,,,,,,'
p118
sS'chunkid'
p119
S'CCP'
p120
sS'drel'
p121
S'k2:VGF'
p122
sS'chunktype'
p123
S'head:CCP'
p124
ssbsg30
I00
sg31
I00
sg32
Nsg33
Nsg34
I2
sg35
I0
sg36
Nsg37
Nsg38
S'CC'
p125
sg40
g110
sg41
I00
sba(issf_api
Word
p126
(dp127
g6
I00
sg7
V\u0935\u0939
p128
sg9
(issf_api
FeatureSet
p129
(dp130
g12
(dp131
S'crefhead'
p132
S'\xe0\xa4\xb5\xe0\xa4\xb9:i3'
p133
sS'posn'
p134
S'60'
p135
sS'name'
p136
S'\xe0\xa4\xb5\xe0\xa4\xb9'
p137
sS'af'
p138
S'\xe0\xa4\xb5\xe0\xa4\xb9,pn,any,sg,3,d,0,0'
p139
sS'chunkid'
p140
S'NP2'
p141
sS'creftype'
p142
S'Anaphora-C:i2'
p143
sS'chunktype'
p144
S'head:NP2'
p145
sS'cref'
p146
S'i3%1:t2'
p147
sS'drel'
p148
S'k1:VGF2'
p149
ssbsg30
I00
sg31
I00
sg32
Nsg33
Nsg34
I3
sg35
I0
sg36
Nsg37
Nsg38
S'PRP'
p150
sg40
g129
sg41
I00
sba(issf_api
Word
p151
(dp152
g6
I00
sg7
V\u092a\u094d\u0930\u0938\u094d\u0924\u093e\u0935\u093f\u0924
p153
sg9
(issf_api
FeatureSet
p154
(dp155
g12
(dp156
S'posn'
p157
S'70'
p158
sS'name'
p159
S'\xe0\xa4\xaa\xe0\xa5\x8d\xe0\xa4\xb0\xe0\xa4\xb8\xe0\xa5\x8d\xe0\xa4\xa4\xe0\xa4\xbe\xe0\xa4\xb5\xe0\xa4\xbf\xe0\xa4\xa4'
p160
sS'af'
p161
S'\xe0\xa4\xaa\xe0\xa5\x8d\xe0\xa4\xb0\xe0\xa4\xb8\xe0\xa5\x8d\xe0\xa4\xa4\xe0\xa4\xbe\xe0\xa4\xb5\xe0\xa4\xbf\xe0\xa4\xa4,adj,any,any,,o,,'
p162
sS'drel'
p163
S'nmod__adj:NP3'
p164
sS'chunktype'
p165
S'child:NP3'
p166
sS'cref'
p167
S'i4%0:t3'
p168
ssbsg30
I00
sg31
I00
sg32
Nsg33
Nsg34
I4
sg35
I0
sg36
Nsg37
Nsg38
S'JJ'
p169
sg40
g154
sg41
I00
sba(issf_api
Word
p170
(dp171
g6
I00
sg7
V\u0936\u093e\u0902\u0924\u093f
p172
sg9
(issf_api
FeatureSet
p173
(dp174
g12
(dp175
S'posn'
p176
S'80'
p177
sS'name'
p178
S'\xe0\xa4\xb6\xe0\xa4\xbe\xe0\xa4\x82\xe0\xa4\xa4\xe0\xa4\xbf'
p179
sS'af'
p180
S'\xe0\xa4\xb6\xe0\xa4\xbe\xe0\xa4\xa8\xe0\xa5\x8d\xe0\xa4\xa4\xe0\xa4\xbf,n,f,sg,3,d,0,0'
p181
sS'drel'
p182
S'pof__cn:NP3'
p183
sS'chunktype'
p184
S'child:NP3'
p185
sS'cref'
p186
S'i4%0:t3'
p187
ssbsg30
I00
sg31
I00
sg32
Nsg33
Nsg34
I4
sg35
I0
sg36
Nsg37
Nsg38
S'NNC'
p188
sg40
g173
sg41
I00
sba(issf_api
Word
p189
(dp190
g6
I00
sg7
V\u0935\u093e\u0930\u094d\u0924\u093e
p191
sg9
(issf_api
FeatureSet
p192
(dp193
g12
(dp194
S'crefhead'
p195
S'\xe0\xa4\xb5\xe0\xa4\xbe\xe0\xa4\xb0\xe0\xa5\x8d\xe0\xa4\xa4\xe0\xa4\xbe:i4'
p196
sS'posn'
p197
S'90'
p198
sS'name'
p199
S'\xe0\xa4\xb5\xe0\xa4\xbe\xe0\xa4\xb0\xe0\xa5\x8d\xe0\xa4\xa4\xe0\xa4\xbe'
p200
sS'af'
p201
S'\xe0\xa4\xb5\xe0\xa4\xbe\xe0\xa4\xb0\xe0\xa5\x8d\xe0\xa4\xa4\xe0\xa4\xbe,n,f,sg,3,o,0_\xe0\xa4\x95\xe0\xa4\xbe,0'
p202
sS'chunkid'
p203
S'NP3'
p204
sS'chunktype'
p205
S'head:NP3'
p206
sS'crefchainhead'
p207
S'i4:t3'
p208
sS'vpos'
p209
S'vib_4'
p210
sS'cref'
p211
S'i4%1:t3'
p212
sS'drel'
p213
S'r6:NP4'
p214
ssbsg30
I00
sg31
I00
sg32
Nsg33
Nsg34
I4
sg35
I0
sg36
Nsg37
Nsg38
S'NN'
p215
sg40
g192
sg41
I00
sba(issf_api
Word
p216
(dp217
g6
I00
sg7
V\u0915\u0947
p218
sg9
(issf_api
FeatureSet
p219
(dp220
g12
(dp221
S'posn'
p222
S'100'
p223
sS'name'
p224
S'\xe0\xa4\x95\xe0\xa5\x87'
p225
sS'drel'
p226
S'lwg__psp:NP3'
p227
sS'chunktype'
p228
S'child:NP3'
p229
sS'af'
p230
S'\xe0\xa4\x95\xe0\xa4\xbe,psp,m,sg,,o,,'
p231
ssbsg30
I00
sg31
I00
sg32
Nsg33
Nsg34
I4
sg35
I0
sg36
Nsg37
Nsg38
S'PSP'
p232
sg40
g219
sg41
I00
sba(issf_api
Word
p233
(dp234
g6
I00
sg7
V\u0939\u093f\u0924
p235
sg9
(issf_api
FeatureSet
p236
(dp237
g12
(dp238
S'posn'
p239
S'110'
p240
sS'name'
p241
S'\xe0\xa4\xb9\xe0\xa4\xbf\xe0\xa4\xa4'
p242
sS'af'
p243
S'\xe0\xa4\xb9\xe0\xa4\xbf\xe0\xa4\xa4,n,m,sg,3,o,0_\xe0\xa4\xae\xe0\xa5\x87\xe0\xa4\x82,0'
p244
sS'chunkid'
p245
S'NP4'
p246
sS'drel'
p247
S'k7:VGNN'
p248
sS'vpos'
p249
S'vib_2'
p250
sS'chunktype'
p251
S'head:NP4'
p252
ssbsg30
I00
sg31
I00
sg32
Nsg33
Nsg34
I5
sg35
I0
sg36
Nsg37
Nsg38
S'NN'
p253
sg40
g236
sg41
I00
sba(issf_api
Word
p254
(dp255
g6
I00
sg7
V\u092e\u0947\u0902
p256
sg9
(issf_api
FeatureSet
p257
(dp258
g12
(dp259
S'posn'
p260
S'120'
p261
sS'name'
p262
S'\xe0\xa4\xae\xe0\xa5\x87\xe0\xa4\x82'
p263
sS'drel'
p264
S'lwg__psp:NP4'
p265
sS'chunktype'
p266
S'child:NP4'
p267
sS'af'
p268
S'\xe0\xa4\xae\xe0\xa5\x87\xe0\xa4\x82,psp,,,,,,'
p269
ssbsg30
I00
sg31
I00
sg32
Nsg33
Nsg34
I5
sg35
I0
sg36
Nsg37
Nsg38
S'PSP'
p270
sg40
g257
sg41
I00
sba(issf_api
Word
p271
(dp272
g6
I00
sg7
V\u091c\u0947\u0932
p273
sg9
(issf_api
FeatureSet
p274
(dp275
g12
(dp276
S'crefhead'
p277
S'\xe0\xa4\x9c\xe0\xa5\x87\xe0\xa4\xb2:i5'
p278
sS'posn'
p279
S'130'
p280
sS'name'
p281
S'\xe0\xa4\x9c\xe0\xa5\x87\xe0\xa4\xb2'
p282
sS'af'
p283
S'\xe0\xa4\x9c\xe0\xa5\x87\xe0\xa4\xb2,n,m,sg,3,o,0_\xe0\xa4\xae\xe0\xa5\x87\xe0\xa4\x82,0'
p284
sS'chunkid'
p285
S'NP5'
p286
sS'chunktype'
p287
S'head:NP5'
p288
sS'crefchainhead'
p289
S'i5:t4'
p290
sS'vpos'
p291
S'vib_2'
p292
sS'cref'
p293
S'i5%1:t4'
p294
sS'drel'
p295
S'jjmod:JJP'
p296
ssbsg30
I00
sg31
I00
sg32
Nsg33
Nsg34
I6
sg35
I0
sg36
Nsg37
Nsg38
S'NN'
p297
sg40
g274
sg41
I00
sba(issf_api
Word
p298
(dp299
g6
I00
sg7
V\u092e\u0947\u0902
p300
sg9
(issf_api
FeatureSet
p301
(dp302
g12
(dp303
S'posn'
p304
S'140'
p305
sS'name'
p306
S'\xe0\xa4\xae\xe0\xa5\x87\xe0\xa4\x822'
p307
sS'drel'
p308
S'lwg__psp:NP5'
p309
sS'chunktype'
p310
S'child:NP5'
p311
sS'af'
p312
S'\xe0\xa4\xae\xe0\xa5\x87\xe0\xa4\x82,psp,,,,,,'
p313
ssbsg30
I00
sg31
I00
sg32
Nsg33
Nsg34
I6
sg35
I0
sg36
Nsg37
Nsg38
S'PSP'
p314
sg40
g301
sg41
I00
sba(issf_api
Word
p315
(dp316
g6
I00
sg7
V\u092c\u0902\u0926
p317
sg9
(issf_api
FeatureSet
p318
(dp319
g12
(dp320
S'posn'
p321
S'150'
p322
sS'name'
p323
S'\xe0\xa4\xac\xe0\xa4\x82\xe0\xa4\xa6'
p324
sS'af'
p325
S'\xe0\xa4\xac\xe0\xa4\x82\xe0\xa4\xa6,adj,any,any,,,,'
p326
sS'chunkid'
p327
S'JJP'
p328
sS'drel'
p329
S'nmod:NP7'
p330
sS'chunktype'
p331
S'head:JJP'
p332
ssbsg30
I00
sg31
I00
sg32
Nsg33
Nsg34
I7
sg35
I0
sg36
Nsg37
Nsg38
S'JJ'
p333
sg40
g318
sg41
I00
sba(issf_api
Word
p334
(dp335
g6
I00
sg7
V\u0909\u0932\u094d\u092b\u093e
p336
sg9
(issf_api
FeatureSet
p337
(dp338
g12
(dp339
S'crefhead'
p340
S'\xe0\xa4\x89\xe0\xa4\xb2\xe0\xa5\x8d\xe0\xa4\xab\xe0\xa4\xbe:i6'
p341
sS'posn'
p342
S'160'
p343
sS'name'
p344
S'\xe0\xa4\x89\xe0\xa4\xb2\xe0\xa5\x8d\xe0\xa4\xab\xe0\xa4\xbe'
p345
sS'af'
p346
S'\xe0\xa4\x89\xe0\xa4\xb2\xe0\xa5\x8d\xe0\xa4\xab\xe0\xa4\xbe,n,m,sg,3,d,0,0'
p347
sS'acrefmod'
p348
S'm1%0:i8'
p349
sS'chunktype'
p350
S'child:NP6'
p351
sS'crefchainhead'
p352
S'i6:t5'
p353
sS'cref'
p354
S'i6%1:t5,i7%0:t6'
p355
sS'drel'
p356
S'pof__cn:NP6'
p357
ssbsg30
I00
sg31
I00
sg32
Nsg33
Nsg34
I8
sg35
I0
sg36
Nsg37
Nsg38
S'NNPC'
p358
sg40
g337
sg41
I00
sba(issf_api
Word
p359
(dp360
g6
I00
sg7
V\u0915\u0947\u0902\u0926\u094d\u0930\u0940\u092f
p361
sg9
(issf_api
FeatureSet
p362
(dp363
g12
(dp364
S'posn'
p365
S'150'
p366
sS'name'
p367
S'\xe0\xa4\x95\xe0\xa5\x87\xe0\xa4\x82\xe0\xa4\xa6\xe0\xa5\x8d\xe0\xa4\xb0\xe0\xa5\x80\xe0\xa4\xaf'
p368
sS'af'
p369
S'\xe0\xa4\x95\xe0\xa5\x87\xe0\xa4\x82\xe0\xa4\xa6\xe0\xa5\x8d\xe0\xa4\xb0\xe0\xa5\x80\xe0\xa4\xaf,adj,any,any,,o,,'
p370
sS'acrefmod'
p371
S'm1%0:i8'
p372
sS'drel'
p373
S'pof__cn:NP6'
p374
sS'chunktype'
p375
S'child:NP6'
p376
sS'cref'
p377
S'i7%0:t6'
p378
ssbsg30
I00
sg31
I00
sg32
Nsg33
Nsg34
I8
sg35
I0
sg36
Nsg37
Nsg38
S'NNPC'
p379
sg40
g362
sg41
I00
sba(issf_api
Word
p380
(dp381
g6
I00
sg7
V\u0915\u093e\u0930\u094d\u092f\u0915\u093e\u0930\u093f\u0923\u0940
p382
sg9
(issf_api
FeatureSet
p383
(dp384
g12
(dp385
S'crefhead'
p386
S'\xe0\xa4\x95\xe0\xa4\xbe\xe0\xa4\xb0\xe0\xa5\x8d\xe0\xa4\xaf\xe0\xa4\x95\xe0\xa4\xbe\xe0\xa4\xb0\xe0\xa4\xbf\xe0\xa4\xa3\xe0\xa5\x80:i7'
p387
sS'posn'
p388
S'180'
p389
sS'name'
p390
S'\xe0\xa4\x95\xe0\xa4\xbe\xe0\xa4\xb0\xe0\xa5\x8d\xe0\xa4\xaf\xe0\xa4\x95\xe0\xa4\xbe\xe0\xa4\xb0\xe0\xa4\xbf\xe0\xa4\xa3\xe0\xa5\x80'
p391
sS'af'
p392
S'\xe0\xa4\x95\xe0\xa4\xbe\xe0\xa4\xb0\xe0\xa5\x8d\xe0\xa4\xaf\xe0\xa4\x95\xe0\xa4\xbe\xe0\xa4\xb0\xe0\xa4\xbf\xe0\xa4\xa3\xe0\xa5\x80,n,f,sg,3,o,0_\xe0\xa4\x95\xe0\xa4\xbe,0'
p393
sS'acrefmodhead'
p394
S'\xe0\xa4\x95\xe0\xa4\xbe\xe0\xa4\xb0\xe0\xa5\x8d\xe0\xa4\xaf\xe0\xa4\x95\xe0\xa4\xbe\xe0\xa4\xb0\xe0\xa4\xbf\xe0\xa4\xa3\xe0\xa5\x80:m1'
p395
sS'chunkid'
p396
S'NP6'
p397
sS'acrefmod'
p398
S'm1%1:i8'
p399
sS'chunktype'
p400
S'head:NP6'
p401
sS'crefchainhead'
p402
S'i7:t6'
p403
sS'vpos'
p404
S'vib_4'
p405
sS'cref'
p406
S'i7%1:t6'
p407
sS'drel'
p408
S'r6:NP7'
p409
ssbsg30
I00
sg31
I00
sg32
Nsg33
Nsg34
I8
sg35
I0
sg36
Nsg37
Nsg38
S'NNP'
p410
sg40
g383
sg41
I00
sba(issf_api
Word
p411
(dp412
g6
I00
sg7
V\u0915\u0947
p413
sg9
(issf_api
FeatureSet
p414
(dp415
g12
(dp416
S'posn'
p417
S'190'
p418
sS'name'
p419
S'\xe0\xa4\x95\xe0\xa5\x872'
p420
sS'drel'
p421
S'lwg__psp:NP6'
p422
sS'chunktype'
p423
S'child:NP6'
p424
sS'af'
p425
S'\xe0\xa4\x95\xe0\xa4\xbe,psp,m,pl,,o,,'
p426
ssbsg30
I00
sg31
I00
sg32
Nsg33
Nsg34
I8
sg35
I0
sg36
Nsg37
Nsg38
S'PSP'
p427
sg40
g414
sg41
I00
sba(issf_api
Word
p428
(dp429
g6
I00
sg7
V\u0938\u0926\u0938\u094d\u092f\u094b\u0902
p430
sg9
(issf_api
FeatureSet
p431
(dp432
g12
(dp433
S'crefhead'
p434
S'\xe0\xa4\xb8\xe0\xa4\xa6\xe0\xa4\xb8\xe0\xa5\x8d\xe0\xa4\xaf\xe0\xa5\x8b\xe0\xa4\x82:i8'
p435
sS'posn'
p436
S'200'
p437
sS'name'
p438
S'\xe0\xa4\xb8\xe0\xa4\xa6\xe0\xa4\xb8\xe0\xa5\x8d\xe0\xa4\xaf\xe0\xa5\x8b\xe0\xa4\x82'
p439
sS'af'
p440
S'\xe0\xa4\xb8\xe0\xa4\xa6\xe0\xa4\xb8\xe0\xa5\x8d\xe0\xa4\xaf,n,m,pl,3,o,0_\xe0\xa4\x95\xe0\xa5\x8b,0'
p441
sS'chunkid'
p442
S'NP7'
p443
sS'crefmod'
p444
S'm1:i8'
p445
sS'chunktype'
p446
S'head:NP7'
p447
sS'crefchainhead'
p448
S'i8:t7'
p449
sS'vpos'
p450
S'vib_2'
p451
sS'cref'
p452
S'i8%1:t7'
p453
sS'drel'
p454
S'k2:VGNN'
p455
ssbsg30
I00
sg31
I00
sg32
Nsg33
Nsg34
I9
sg35
I0
sg36
Nsg37
Nsg38
S'NN'
p456
sg40
g431
sg41
I00
sba(issf_api
Word
p457
(dp458
g6
I00
sg7
V\u0915\u094b
p459
sg9
(issf_api
FeatureSet
p460
(dp461
g12
(dp462
S'posn'
p463
S'210'
p464
sS'name'
p465
S'\xe0\xa4\x95\xe0\xa5\x8b'
p466
sS'drel'
p467
S'lwg__psp:NP7'
p468
sS'chunktype'
p469
S'child:NP7'
p470
sS'af'
p471
S'\xe0\xa4\x95\xe0\xa5\x8b,psp,,,,,,'
p472
ssbsg30
I00
sg31
I00
sg32
Nsg33
Nsg34
I9
sg35
I0
sg36
Nsg37
Nsg38
S'PSP'
p473
sg40
g460
sg41
I00
sba(issf_api
Word
p474
(dp475
g6
I00
sg7
V\u0930\u093f\u0939\u093e
p476
sg9
(issf_api
FeatureSet
p477
(dp478
g12
(dp479
S'posn'
p480
S'220'
p481
sS'name'
p482
S'\xe0\xa4\xb0\xe0\xa4\xbf\xe0\xa4\xb9\xe0\xa4\xbe'
p483
sS'af'
p484
S'\xe0\xa4\xb0\xe0\xa4\xbf\xe0\xa4\xb9\xe0\xa4\xbe,adj,any,any,,,,'
p485
sS'chunkid'
p486
S'JJP2'
p487
sS'drel'
p488
S'pof:VGNN'
p489
sS'chunktype'
p490
S'head:JJP2'
p491
ssbsg30
I00
sg31
I00
sg32
Nsg33
Nsg34
I10
sg35
I0
sg36
Nsg37
Nsg38
S'JJ'
p492
sg40
g477
sg41
I00
sba(issf_api
Word
p493
(dp494
g6
I00
sg7
V\u0915\u0930\u0928\u0947
p495
sg9
(issf_api
FeatureSet
p496
(dp497
g12
(dp498
S'posn'
p499
S'230'
p500
sS'name'
p501
S'\xe0\xa4\x95\xe0\xa4\xb0\xe0\xa4\xa8\xe0\xa5\x87'
p502
sS'af'
p503
S'\xe0\xa4\x95\xe0\xa4\xb0,v,any,any,any,o,\xe0\xa4\xa8\xe0\xa4\xbe_\xe0\xa4\x95\xe0\xa5\x8b,nA'
p504
sS'chunkid'
p505
S'VGNN'
p506
sS'drel'
p507
S'rt:VGF2'
p508
sS'vpos'
p509
S'tam_2'
p510
sS'chunktype'
p511
S'head:VGNN'
p512
ssbsg30
I00
sg31
I00
sg32
Nsg33
Nsg34
I11
sg35
I0
sg36
Nsg37
Nsg38
S'VM'
p513
sg40
g496
sg41
I00
sba(issf_api
Word
p514
(dp515
g6
I00
sg7
V\u0915\u094b
p516
sg9
(issf_api
FeatureSet
p517
(dp518
g12
(dp519
S'posn'
p520
S'240'
p521
sS'name'
p522
S'\xe0\xa4\x95\xe0\xa5\x8b2'
p523
sS'drel'
p524
S'lwg__psp:VGNN'
p525
sS'chunktype'
p526
S'child:VGNN'
p527
sS'af'
p528
S'\xe0\xa4\x95\xe0\xa5\x8b,psp,,,,,,'
p529
ssbsg30
I00
sg31
I00
sg32
Nsg33
Nsg34
I11
sg35
I0
sg36
Nsg37
Nsg38
S'PSP'
p530
sg40
g517
sg41
I00
sba(issf_api
Word
p531
(dp532
g6
I00
sg7
V\u0924\u0948\u092f\u093e\u0930
p533
sg9
(issf_api
FeatureSet
p534
(dp535
g12
(dp536
S'posn'
p537
S'250'
p538
sS'name'
p539
S'\xe0\xa4\xa4\xe0\xa5\x88\xe0\xa4\xaf\xe0\xa4\xbe\xe0\xa4\xb0'
p540
sS'af'
p541
S'\xe0\xa4\xa4\xe0\xa5\x88\xe0\xa4\xaf\xe0\xa4\xbe\xe0\xa4\xb0,adj,any,any,,,,'
p542
sS'chunkid'
p543
S'JJP3'
p544
sS'drel'
p545
S'k1s:VGF2'
p546
sS'chunktype'
p547
S'head:JJP3'
p548
ssbsg30
I00
sg31
I00
sg32
Nsg33
Nsg34
I12
sg35
I0
sg36
Nsg37
Nsg38
S'JJ'
p549
sg40
g534
sg41
I00
sba(issf_api
Word
p550
(dp551
g6
I00
sg7
V\u0939\u0948
p552
sg9
(issf_api
FeatureSet
p553
(dp554
g12
(dp555
S'posn'
p556
S'260'
p557
sS'name'
p558
S'\xe0\xa4\xb9\xe0\xa5\x88'
p559
sS'af'
p560
S'\xe0\xa4\xb9\xe0\xa5\x88,v,any,sg,3,,\xe0\xa4\xb9\xe0\xa5\x88,hE'
p561
sS'chunkid'
p562
S'VGF2'
p563
sS'stype'
p564
S'declarative'
p565
sS'drel'
p566
S'ccof:CCP'
p567
sS'voicetype'
p568
S'active'
p569
sS'chunktype'
p570
S'head:VGF2'
p571
ssbsg30
I00
sg31
I00
sg32
Nsg33
Nsg34
I13
sg35
I0
sg36
Nsg37
Nsg38
S'VM'
p572
sg40
g553
sg41
I00
sba(issf_api
Word
p573
(dp574
g6
I00
sg7
V\u0964
p575
sg9
(issf_api
FeatureSet
p576
(dp577
g12
(dp578
S'posn'
p579
S'270'
p580
sS'name'
p581
S'\xe0\xa5\xa4'
p582
sS'af'
p583
S'\xe0\xa5\xa4,punc,,,,,,'
p584
sS'chunkid'
p585
S'BLK'
p586
sS'drel'
p587
S'rsym:VGF'
p588
sS'chunktype'
p589
S'head:BLK'
p590
ssbsg30
I00
sg31
I00
sg32
Nsg33
Nsg34
I14
sg35
I0
sg36
Nsg37
Nsg38
S'SYM'
p591
sg40
g576
sg41
I00
sba(issf_api
Word
p592
(dp593
g6
I00
sg7
V\u092f\u0939\u093e\u0901
p594
sg9
(issf_api
FeatureSet
p595
(dp596
g12
(dp597
S'crefhead'
p598
S'\xe0\xa4\xaf\xe0\xa4\xb9\xe0\xa4\xbe\xe0\xa4\x81:i9'
p599
sS'posn'
p600
S'10'
p601
sS'name'
p602
S'\xe0\xa4\xaf\xe0\xa4\xb9\xe0\xa4\xbe\xe0\xa4\x81'
p603
sS'af'
p604
S'\xe0\xa4\xaf\xe0\xa4\xb9\xe0\xa4\xbe\xe0\xa4\x81,pn,,,,o,0_\xe0\xa4\xa4\xe0\xa4\x95,'
p605
sS'chunkid'
p606
S'NP'
p607
sS'creftype'
p608
S'anaphora-?:i9'
p609
sS'chunktype'
p610
S'head:NP'
p611
sS'crefchainhead'
p612
S'i9:t8'
p613
sS'vpos'
p614
S'vib_2_RP'
p615
sS'cref'
p616
S'i9%1:t8'
p617
sS'drel'
p618
S'sent-adv:VGF'
p619
ssbsg30
I00
sg31
I00
sg32
Nsg33
Nsg34
I0
sg35
I1
sg36
Nsg37
Nsg38
S'PRP'
p620
sg40
g595
sg41
I00
sba(issf_api
Word
p621
(dp622
g6
I00
sg7
V\u0924\u0915
p623
sg9
(issf_api
FeatureSet
p624
(dp625
g12
(dp626
S'posn'
p627
S'20'
p628
sS'name'
p629
S'\xe0\xa4\xa4\xe0\xa4\x95'
p630
sS'drel'
p631
S'lwg__psp:NP'
p632
sS'chunktype'
p633
S'child:NP'
p634
sS'af'
p635
S'\xe0\xa4\xa4\xe0\xa4\x95,psp,,,,,,'
p636
ssbsg30
I00
sg31
I00
sg32
Nsg33
Nsg34
I0
sg35
I1
sg36
Nsg37
Nsg38
S'PSP'
p637
sg40
g624
sg41
I00
sba(issf_api
Word
p638
(dp639
g6
I00
sg7
V\u0915\u093f
p640
sg9
(issf_api
FeatureSet
p641
(dp642
g12
(dp643
S'posn'
p644
S'30'
p645
sS'name'
p646
S'\xe0\xa4\x95\xe0\xa4\xbf'
p647
sS'drel'
p648
S'lwg__rp:NP'
p649
sS'chunktype'
p650
S'child:NP'
p651
sS'af'
p652
S'\xe0\xa4\x95\xe0\xa4\xbf,avy,,,,,,'
p653
ssbsg30
I00
sg31
I00
sg32
Nsg33
Nsg34
I0
sg35
I1
sg36
Nsg37
Nsg38
S'RP'
p654
sg40
g641
sg41
I00
sba(issf_api
Word
p655
(dp656
g6
I00
sg7
V\u0909\u0932\u094d\u092b\u093e
p657
sg9
(issf_api
FeatureSet
p658
(dp659
g12
(dp660
S'crefhead'
p661
S'\xe0\xa4\x89\xe0\xa4\xb2\xe0\xa5\x8d\xe0\xa4\xab\xe0\xa4\xbe:i10'
p662
sS'posn'
p663
S'40'
p664
sS'name'
p665
S'\xe0\xa4\x89\xe0\xa4\xb2\xe0\xa5\x8d\xe0\xa4\xab\xe0\xa4\xbe'
p666
sS'af'
p667
S'\xe0\xa4\x89\xe0\xa4\xb2\xe0\xa5\x8d\xe0\xa4\xab\xe0\xa4\xbe,n,m,sg,3,o,0,0'
p668
sS'chunkid'
p669
S'NP2'
p670
sS'creftype'
p671
S'Coreference-Identity:i6'
p672
sS'chunktype'
p673
S'head:NP2'
p674
sS'cref'
p675
S'i10%1:t5'
p676
sS'drel'
p677
S'ccof:CCP'
p678
ssbsg30
I00
sg31
I00
sg32
Nsg33
Nsg34
I1
sg35
I1
sg36
Nsg37
Nsg38
S'NNP'
p679
sg40
g658
sg41
I00
sba(issf_api
Word
p680
(dp681
g6
I00
sg7
V\u092f\u093e
p682
sg9
(issf_api
FeatureSet
p683
(dp684
g12
(dp685
S'posn'
p686
S'50'
p687
sS'name'
p688
S'\xe0\xa4\xaf\xe0\xa4\xbe'
p689
sS'af'
p690
S'\xe0\xa4\xaf\xe0\xa4\xbe,avy,,,,,,'
p691
sS'chunkid'
p692
S'CCP'
p693
sS'drel'
p694
S'rd:VGF'
p695
sS'chunktype'
p696
S'head:CCP'
p697
ssbsg30
I00
sg31
I00
sg32
Nsg33
Nsg34
I2
sg35
I1
sg36
Nsg37
Nsg38
S'CC'
p698
sg40
g683
sg41
I00
sba(issf_api
Word
p699
(dp700
g6
I00
sg7
V\u0915\u0947\u0902\u0926\u094d\u0930
p701
sg9
(issf_api
FeatureSet
p702
(dp703
g12
(dp704
S'posn'
p705
S'60'
p706
sS'name'
p707
S'\xe0\xa4\x95\xe0\xa5\x87\xe0\xa4\x82\xe0\xa4\xa6\xe0\xa5\x8d\xe0\xa4\xb0'
p708
sS'af'
p709
S'\xe0\xa4\x95\xe0\xa5\x87\xe0\xa4\x82\xe0\xa4\xa6\xe0\xa5\x8d\xe0\xa4\xb0,n,m,sg,3,d,0,0'
p710
sS'drel'
p711
S'pof__cn:NP3'
p712
sS'chunktype'
p713
S'child:NP3'
p714
sS'cref'
p715
S'i11%0:t9'
p716
ssbsg30
I00
sg31
I00
sg32
Nsg33
Nsg34
I3
sg35
I1
sg36
Nsg37
Nsg38
S'NNPC'
p717
sg40
g702
sg41
I00
sba(issf_api
Word
p718
(dp719
g6
I00
sg7
V\u0938\u0930\u0915\u093e\u0930
p720
sg9
(issf_api
FeatureSet
p721
(dp722
g12
(dp723
S'crefhead'
p724
S'\xe0\xa4\xb8\xe0\xa4\xb0\xe0\xa4\x95\xe0\xa4\xbe\xe0\xa4\xb0:i11'
p725
sS'posn'
p726
S'70'
p727
sS'name'
p728
S'\xe0\xa4\xb8\xe0\xa4\xb0\xe0\xa4\x95\xe0\xa4\xbe\xe0\xa4\xb0'
p729
sS'af'
p730
S'\xe0\xa4\xb8\xe0\xa4\xb0\xe0\xa4\x95\xe0\xa4\xbe\xe0\xa4\xb0,n,f,sg,3,o,0_\xe0\xa4\x95\xe0\xa4\xbe_\xe0\xa4\x93\xe0\xa4\xb0_\xe0\xa4\xb8\xe0\xa5\x87,0'
p731
sS'chunkid'
p732
S'NP3'
p733
sS'chunktype'
p734
S'head:NP3'
p735
sS'crefchainhead'
p736
S'i11:t9'
p737
sS'vpos'
p738
S'vib_3_4_5'
p739
sS'cref'
p740
S'i11%1:t9'
p741
sS'drel'
p742
S'ccof:CCP'
p743
ssbsg30
I00
sg31
I00
sg32
Nsg33
Nsg34
I3
sg35
I1
sg36
Nsg37
Nsg38
S'NNP'
p744
sg40
g721
sg41
I00
sba(issf_api
Word
p745
(dp746
g6
I00
sg7
V\u0915\u0940
p747
sg9
(issf_api
FeatureSet
p748
(dp749
g12
(dp750
S'posn'
p751
S'80'
p752
sS'name'
p753
S'\xe0\xa4\x95\xe0\xa5\x80'
p754
sS'drel'
p755
S'lwg__psp:NP3'
p756
sS'chunktype'
p757
S'child:NP3'
p758
sS'af'
p759
S'\xe0\xa4\x95\xe0\xa4\xbe,psp,f,sg,,o,,'
p760
ssbsg30
I00
sg31
I00
sg32
Nsg33
Nsg34
I3
sg35
I1
sg36
Nsg37
Nsg38
S'PSP'
p761
sg40
g748
sg41
I00
sba(issf_api
Word
p762
(dp763
g6
I00
sg7
V\u0913\u0930
p764
sg9
(issf_api
FeatureSet
p765
(dp766
g12
(dp767
S'posn'
p768
S'90'
p769
sS'name'
p770
S'\xe0\xa4\x93\xe0\xa4\xb0'
p771
sS'drel'
p772
S'lwg__psp:NP3'
p773
sS'chunktype'
p774
S'child:NP3'
p775
sS'af'
p776
S'\xe0\xa4\x93\xe0\xa4\xb0,nst,f,sg,3,o,,'
p777
ssbsg30
I00
sg31
I00
sg32
Nsg33
Nsg34
I3
sg35
I1
sg36
Nsg37
Nsg38
S'NST'
p778
sg40
g765
sg41
I00
sba(issf_api
Word
p779
(dp780
g6
I00
sg7
V\u0938\u0947
p781
sg9
(issf_api
FeatureSet
p782
(dp783
g12
(dp784
S'posn'
p785
S'100'
p786
sS'name'
p787
S'\xe0\xa4\xb8\xe0\xa5\x87'
p788
sS'drel'
p789
S'lwg__psp:NP3'
p790
sS'chunktype'
p791
S'child:NP3'
p792
sS'af'
p793
S'\xe0\xa4\xb8\xe0\xa5\x87,psp,,,,,,'
p794
ssbsg30
I00
sg31
I00
sg32
Nsg33
Nsg34
I3
sg35
I1
sg36
Nsg37
Nsg38
S'PSP'
p795
sg40
g782
sg41
I00
sba(issf_api
Word
p796
(dp797
g6
I00
sg7
V\u0909\u0928\u094d\u0939\u0947\u0902
p798
sg9
(issf_api
FeatureSet
p799
(dp800
g12
(dp801
S'crefhead'
p802
S'\xe0\xa4\x89\xe0\xa4\xa8\xe0\xa5\x8d\xe0\xa4\xb9\xe0\xa5\x87\xe0\xa4\x82:i12'
p803
sS'posn'
p804
S'110'
p805
sS'name'
p806
S'\xe0\xa4\x89\xe0\xa4\xa8\xe0\xa5\x8d\xe0\xa4\xb9\xe0\xa5\x87\xe0\xa4\x82'
p807
sS'af'
p808
S'\xe0\xa4\xb5\xe0\xa4\xb9,pn,any,sg,3h,o,\xe0\xa4\x95\xe0\xa5\x8b,ko'
p809
sS'chunkid'
p810
S'NP4'
p811
sS'creftype'
p812
S'Anaphora-C:i8'
p813
sS'chunktype'
p814
S'head:NP4'
p815
sS'cref'
p816
S'i12%1:t7'
p817
sS'drel'
p818
S'k2:VGNN'
p819
ssbsg30
I00
sg31
I00
sg32
Nsg33
Nsg34
I4
sg35
I1
sg36
Nsg37
Nsg38
S'PRP'
p820
sg40
g799
sg41
I00
sba(issf_api
Word
p821
(dp822
g6
I00
sg7
V\u0930\u093f\u0939\u093e
p823
sg9
(issf_api
FeatureSet
p824
(dp825
g12
(dp826
S'posn'
p827
S'120'
p828
sS'name'
p829
S'\xe0\xa4\xb0\xe0\xa4\xbf\xe0\xa4\xb9\xe0\xa4\xbe'
p830
sS'af'
p831
S'\xe0\xa4\xb0\xe0\xa4\xbf\xe0\xa4\xb9\xe0\xa4\xbe,adj,any,any,,,,'
p832
sS'chunkid'
p833
S'JJP'
p834
sS'drel'
p835
S'pof:VGNN'
p836
sS'chunktype'
p837
S'head:JJP'
p838
ssbsg30
I00
sg31
I00
sg32
Nsg33
Nsg34
I5
sg35
I1
sg36
Nsg37
Nsg38
S'JJ'
p839
sg40
g824
sg41
I00
sba(issf_api
Word
p840
(dp841
g6
I00
sg7
V\u0915\u0930\u0928\u0947
p842
sg9
(issf_api
FeatureSet
p843
(dp844
g12
(dp845
S'posn'
p846
S'130'
p847
sS'name'
p848
S'\xe0\xa4\x95\xe0\xa4\xb0\xe0\xa4\xa8\xe0\xa5\x87'
p849
sS'af'
p850
S'\xe0\xa4\x95\xe0\xa4\xb0,v,any,sg,any,o,\xe0\xa4\xa8\xe0\xa4\xbe_\xe0\xa4\x95\xe0\xa4\xbe,nA'
p851
sS'chunkid'
p852
S'VGNN'
p853
sS'drel'
p854
S'r6:NP5'
p855
sS'vpos'
p856
S'tam_2'
p857
sS'chunktype'
p858
S'head:VGNN'
p859
ssbsg30
I00
sg31
I00
sg32
Nsg33
Nsg34
I6
sg35
I1
sg36
Nsg37
Nsg38
S'VM'
p860
sg40
g843
sg41
I00
sba(issf_api
Word
p861
(dp862
g6
I00
sg7
V\u0915\u0947
p863
sg9
(issf_api
FeatureSet
p864
(dp865
g12
(dp866
S'posn'
p867
S'140'
p868
sS'name'
p869
S'\xe0\xa4\x95\xe0\xa5\x87'
p870
sS'drel'
p871
S'lwg__psp:VGNN'
p872
sS'chunktype'
p873
S'child:VGNN'
p874
sS'af'
p875
S'\xe0\xa4\x95\xe0\xa4\xbe,psp,m,sg,,o,,'
p876
ssbsg30
I00
sg31
I00
sg32
Nsg33
Nsg34
I6
sg35
I1
sg36
Nsg37
Nsg38
S'PSP'
p877
sg40
g864
sg41
I00
sba(issf_api
Word
p878
(dp879
g6
I00
sg7
V\u0910\u0938\u0947
p880
sg9
(issf_api
FeatureSet
p881
(dp882
g12
(dp883
S'posn'
p884
S'150'
p885
sS'name'
p886
S'\xe0\xa4\x90\xe0\xa4\xb8\xe0\xa5\x87'
p887
sS'drel'
p888
S'nmod__adj:NP5'
p889
sS'chunktype'
p890
S'child:NP5'
p891
sS'af'
p892
S'\xe0\xa4\x90\xe0\xa4\xb8\xe0\xa4\xbe,pn,m,sg,any,o,,'
p893
ssbsg30
I00
sg31
I00
sg32
Nsg33
Nsg34
I7
sg35
I1
sg36
Nsg37
Nsg38
S'DEM'
p894
sg40
g881
sg41
I00
sba(issf_api
Word
p895
(dp896
g6
I00
sg7
V\u0915\u093f\u0938\u0940
p897
sg9
(issf_api
FeatureSet
p898
(dp899
g12
(dp900
S'crefhead'
p901
S'\xe0\xa4\x95\xe0\xa4\xbf\xe0\xa4\xb8\xe0\xa5\x80:i13'
p902
sS'posn'
p903
S'160'
p904
sS'name'
p905
S'\xe0\xa4\x95\xe0\xa4\xbf\xe0\xa4\xb8\xe0\xa5\x80'
p906
sS'af'
p907
S'\xe0\xa4\x95\xe0\xa5\x8b\xe0\xa4\x88,pn,any,sg,3,o,0,0'
p908
sS'creftype'
p909
S'anaphora-?:i13'
p910
sS'chunktype'
p911
S'child:NP5'
p912
sS'crefchainhead'
p913
S'i13:t10'
p914
sS'cref'
p915
S'i13%1:t10'
p916
sS'drel'
p917
S'nmod__adj:NP5'
p918
ssbsg30
I00
sg31
I00
sg32
Nsg33
Nsg34
I7
sg35
I1
sg36
Nsg37
Nsg38
S'PRP'
p919
sg40
g898
sg41
I00
sba(issf_api
Word
p920
(dp921
g6
I00
sg7
V\u092a\u094d\u0930\u0938\u094d\u0924\u093e\u0935
p922
sg9
(issf_api
FeatureSet
p923
(dp924
g12
(dp925
S'posn'
p926
S'170'
p927
sS'name'
p928
S'\xe0\xa4\xaa\xe0\xa5\x8d\xe0\xa4\xb0\xe0\xa4\xb8\xe0\xa5\x8d\xe0\xa4\xa4\xe0\xa4\xbe\xe0\xa4\xb5'
p929
sS'af'
p930
S'\xe0\xa4\xaa\xe0\xa5\x8d\xe0\xa4\xb0\xe0\xa4\xb8\xe0\xa5\x8d\xe0\xa4\xa4\xe0\xa4\xbe\xe0\xa4\xb5,n,m,sg,3,o,0_\xe0\xa4\xaa\xe0\xa4\xb0,0'
p931
sS'chunkid'
p932
S'NP5'
p933
sS'drel'
p934
S'k7:VGNN2'
p935
sS'vpos'
p936
S'vib_vib_4'
p937
sS'chunktype'
p938
S'head:NP5'
p939
ssbsg30
I00
sg31
I00
sg32
Nsg33
Nsg34
I7
sg35
I1
sg36
Nsg37
Nsg38
S'NN'
p940
sg40
g923
sg41
I00
sba(issf_api
Word
p941
(dp942
g6
I00
sg7
V\u092a\u0930
p943
sg9
(issf_api
FeatureSet
p944
(dp945
g12
(dp946
S'posn'
p947
S'180'
p948
sS'name'
p949
S'\xe0\xa4\xaa\xe0\xa4\xb0'
p950
sS'drel'
p951
S'lwg__psp:NP5'
p952
sS'chunktype'
p953
S'child:NP5'
p954
sS'af'
p955
S'\xe0\xa4\xaa\xe0\xa4\xb0,psp,,,,,,'
p956
ssbsg30
I00
sg31
I00
sg32
Nsg33
Nsg34
I7
sg35
I1
sg36
Nsg37
Nsg38
S'PSP'
p957
sg40
g944
sg41
I00
sba(issf_api
Word
p958
(dp959
g6
I00
sg7
V\u0935\u093f\u091a\u093e\u0930
p960
sg9
(issf_api
FeatureSet
p961
(dp962
g12
(dp963
S'posn'
p964
S'190'
p965
sS'name'
p966
S'\xe0\xa4\xb5\xe0\xa4\xbf\xe0\xa4\x9a\xe0\xa4\xbe\xe0\xa4\xb0'
p967
sS'af'
p968
S'\xe0\xa4\xb5\xe0\xa4\xbf\xe0\xa4\x9a\xe0\xa4\xbe\xe0\xa4\xb0,n,m,sg,3,d,0,0'
p969
sS'chunkid'
p970
S'NP6'
p971
sS'drel'
p972
S'pof:VGNN2'
p973
sS'chunktype'
p974
S'head:NP6'
p975
ssbsg30
I00
sg31
I00
sg32
Nsg33
Nsg34
I8
sg35
I1
sg36
Nsg37
Nsg38
S'NN'
p976
sg40
g961
sg41
I00
sba(issf_api
Word
p977
(dp978
g6
I00
sg7
V\u0915\u0930\u0928\u0947
p979
sg9
(issf_api
FeatureSet
p980
(dp981
g12
(dp982
S'posn'
p983
S'200'
p984
sS'name'
p985
S'\xe0\xa4\x95\xe0\xa4\xb0\xe0\xa4\xa8\xe0\xa5\x872'
p986
sS'af'
p987
S'\xe0\xa4\x95\xe0\xa4\xb0,v,any,any,any,o,\xe0\xa4\xa8\xe0\xa4\xbe_\xe0\xa4\x95\xe0\xa5\x8b,nA'
p988
sS'chunkid'
p989
S'VGNN2'
p990
sS'drel'
p991
S'rt:VGF'
p992
sS'vpos'
p993
S'tam_2'
p994
sS'chunktype'
p995
S'head:VGNN2'
p996
ssbsg30
I00
sg31
I00
sg32
Nsg33
Nsg34
I9
sg35
I1
sg36
Nsg37
Nsg38
S'VM'
p997
sg40
g980
sg41
I00
sba(issf_api
Word
p998
(dp999
g6
I00
sg7
V\u0915\u094b
p1000
sg9
(issf_api
FeatureSet
p1001
(dp1002
g12
(dp1003
S'posn'
p1004
S'210'
p1005
sS'name'
p1006
S'\xe0\xa4\x95\xe0\xa5\x8b'
p1007
sS'drel'
p1008
S'lwg__psp:VGNN2'
p1009
sS'chunktype'
p1010
S'child:VGNN2'
p1011
sS'af'
p1012
S'\xe0\xa4\x95\xe0\xa5\x8b,psp,,,,,,'
p1013
ssbsg30
I00
sg31
I00
sg32
Nsg33
Nsg34
I9
sg35
I1
sg36
Nsg37
Nsg38
S'PSP'
p1014
sg40
g1001
sg41
I00
sba(issf_api
Word
p1015
(dp1016
g6
I00
sg7
V\u0930\u093e\u091c\u0940
p1017
sg9
(issf_api
FeatureSet
p1018
(dp1019
g12
(dp1020
S'posn'
p1021
S'220'
p1022
sS'name'
p1023
S'\xe0\xa4\xb0\xe0\xa4\xbe\xe0\xa4\x9c\xe0\xa5\x80'
p1024
sS'af'
p1025
S'\xe0\xa4\xb0\xe0\xa4\xbe\xe0\xa4\x9c\xe0\xa5\x80,adj,any,any,,,,'
p1026
sS'chunkid'
p1027
S'JJP2'
p1028
sS'drel'
p1029
S'pof:VGF'
p1030
sS'chunktype'
p1031
S'head:JJP2'
p1032
ssbsg30
I00
sg31
I00
sg32
Nsg33
Nsg34
I10
sg35
I1
sg36
Nsg37
Nsg38
S'JJ'
p1033
sg40
g1018
sg41
I00
sba(issf_api
Word
p1034
(dp1035
g6
I00
sg7
V\u0939\u0948
p1036
sg9
(issf_api
FeatureSet
p1037
(dp1038
g12
(dp1039
S'posn'
p1040
S'230'
p1041
sS'name'
p1042
S'\xe0\xa4\xb9\xe0\xa5\x88'
p1043
sS'af'
p1044
S'\xe0\xa4\xb9\xe0\xa5\x88,v,any,sg,3,,\xe0\xa4\xb9\xe0\xa5\x88,hE'
p1045
sS'chunkid'
p1046
S'VGF'
p1047
sS'chunktype'
p1048
S'head:VGF'
p1049
sS'voicetype'
p1050
S'active'
p1051
sS'stype'
p1052
S'declarative'
p1053
ssbsg30
I00
sg31
I00
sg32
Nsg33
Nsg34
I11
sg35
I1
sg36
Nsg37
Nsg38
S'VM'
p1054
sg40
g1037
sg41
I00
sba(issf_api
Word
p1055
(dp1056
g6
I00
sg7
V\u0964
p1057
sg9
(issf_api
FeatureSet
p1058
(dp1059
g12
(dp1060
S'posn'
p1061
S'240'
p1062
sS'name'
p1063
S'\xe0\xa5\xa4'
p1064
sS'af'
p1065
S'\xe0\xa5\xa4,punc,,,,,,'
p1066
sS'chunkid'
p1067
S'BLK'
p1068
sS'drel'
p1069
S'rsym:VGF'
p1070
sS'chunktype'
p1071
S'head:BLK'
p1072
ssbsg30
I00
sg31
I00
sg32
Nsg33
Nsg34
I12
sg35
I1
sg36
Nsg37
Nsg38
S'SYM'
p1073
sg40
g1058
sg41
I00
sba(issf_api
Word
p1074
(dp1075
g6
I00
sg7
V\u0905\u0938\u092e
p1076
sg9
(issf_api
FeatureSet
p1077
(dp1078
g12
(dp1079
S'crefhead'
p1080
S'\xe0\xa4\x85\xe0\xa4\xb8\xe0\xa4\xae:i14'
p1081
sS'posn'
p1082
S'10'
p1083
sS'name'
p1084
S'\xe0\xa4\x85\xe0\xa4\xb8\xe0\xa4\xae'
p1085
sS'af'
p1086
S'\xe0\xa4\x85\xe0\xa4\xb8\xe0\xa4\xae,n,m,sg,3,o,0_\xe0\xa4\x95\xe0\xa4\xbe,0'
p1087
sS'acrefmodhead'
p1088
S'\xe0\xa4\x85\xe0\xa4\xb8\xe0\xa4\xae:m2'
p1089
sS'chunkid'
p1090
S'NP'
p1091
sS'acrefmod'
p1092
S'm2%1:i15'
p1093
sS'creftype'
p1094
S'Coreference-Identity:i1'
p1095
sS'chunktype'
p1096
S'head:NP'
p1097
sS'vpos'
p1098
S'vib_2'
p1099
sS'cref'
p1100
S'i14%1:t1'
p1101
sS'drel'
p1102
S'r6:NP2'
p1103
ssbsg30
I00
sg31
I00
sg32
Nsg33
Nsg34
I0
sg35
I2
sg36
Nsg37
Nsg38
S'NNP'
p1104
sg40
g1077
sg41
I00
sba(issf_api
Word
p1105
(dp1106
g6
I00
sg7
V\u0915\u0947
p1107
sg9
(issf_api
FeatureSet
p1108
(dp1109
g12
(dp1110
S'posn'
p1111
S'20'
p1112
sS'name'
p1113
S'\xe0\xa4\x95\xe0\xa5\x87'
p1114
sS'drel'
p1115
S'lwg__psp:NP'
p1116
sS'chunktype'
p1117
S'child:NP'
p1118
sS'af'
p1119
S'\xe0\xa4\x95\xe0\xa4\xbe,psp,m,sg,,o,,'
p1120
ssbsg30
I00
sg31
I00
sg32
Nsg33
Nsg34
I0
sg35
I2
sg36
Nsg37
Nsg38
S'PSP'
p1121
sg40
g1108
sg41
I00
sba(issf_api
Word
p1122
(dp1123
g6
I00
sg7
V\u092e\u0941\u0916\u094d\u092f\u092e\u0902\u0924\u094d\u0930\u0940
p1124
sg9
(issf_api
FeatureSet
p1125
(dp1126
g12
(dp1127
S'crefhead'
p1128
S'\xe0\xa4\xae\xe0\xa5\x81\xe0\xa4\x96\xe0\xa5\x8d\xe0\xa4\xaf\xe0\xa4\xae\xe0\xa4\x82\xe0\xa4\xa4\xe0\xa5\x8d\xe0\xa4\xb0\xe0\xa5\x80:i15'
p1129
sS'posn'
p1130
S'30'
p1131
sS'name'
p1132
S'\xe0\xa4\xae\xe0\xa5\x81\xe0\xa4\x96\xe0\xa5\x8d\xe0\xa4\xaf\xe0\xa4\xae\xe0\xa4\x82\xe0\xa4\xa4\xe0\xa5\x8d\xe0\xa4\xb0\xe0\xa5\x80'
p1133
sS'af'
p1134
S'\xe0\xa4\xae\xe0\xa5\x81\xe0\xa4\x96\xe0\xa5\x8d\xe0\xa4\xaf\xe0\xa4\xae\xe0\xa4\x82\xe0\xa4\xa4\xe0\xa5\x8d\xe0\xa4\xb0\xe0\xa5\x80,n,m,sg,3,o,0,0'
p1135
sS'chunkid'
p1136
S'NP2'
p1137
sS'crefmod'
p1138
S'm2:i15'
p1139
sS'chunktype'
p1140
S'head:NP2'
p1141
sS'cref'
p1142
S'i15%1:t11'
p1143
sS'drel'
p1144
S'nmod:NP3'
p1145
ssbsg30
I00
sg31
I00
sg32
Nsg33
Nsg34
I1
sg35
I2
sg36
Nsg37
Nsg38
S'NNP'
p1146
sg40
g1125
sg41
I00
sba(issf_api
Word
p1147
(dp1148
g6
I00
sg7
V\u0924\u0930\u0941\u0923
p1149
sg9
(issf_api
FeatureSet
p1150
(dp1151
g12
(dp1152
S'posn'
p1153
S'40'
p1154
sS'name'
p1155
S'\xe0\xa4\xa4\xe0\xa4\xb0\xe0\xa5\x81\xe0\xa4\xa3'
p1156
sS'af'
p1157
S'\xe0\xa4\xa4\xe0\xa4\xb0\xe0\xa5\x81\xe0\xa4\xa3,n,m,sg,3,d,0,0'
p1158
sS'drel'
p1159
S'pof__cn:NP3'
p1160
sS'chunktype'
p1161
S'child:NP3'
p1162
sS'cref'
p1163
S'i16%0:t11'
p1164
ssbsg30
I00
sg31
I00
sg32
Nsg33
Nsg34
I2
sg35
I2
sg36
Nsg37
Nsg38
S'NNPC'
p1165
sg40
g1150
sg41
I00
sba(issf_api
Word
p1166
(dp1167
g6
I00
sg7
V\u0917\u094b\u0917\u094b\u0908
p1168
sg9
(issf_api
FeatureSet
p1169
(dp1170
g12
(dp1171
S'crefhead'
p1172
S'\xe0\xa4\x97\xe0\xa5\x8b\xe0\xa4\x97\xe0\xa5\x8b\xe0\xa4\x88:i16'
p1173
sS'posn'
p1174
S'50'
p1175
sS'name'
p1176
S'\xe0\xa4\x97\xe0\xa5\x8b\xe0\xa4\x97\xe0\xa5\x8b\xe0\xa4\x88'
p1177
sS'af'
p1178
S'\xe0\xa4\x97\xe0\xa5\x8b\xe0\xa4\x97\xe0\xa5\x8b\xe0\xa4\x88,n,m,sg,3,o,0_\xe0\xa4\xa8\xe0\xa5\x87,0'
p1179
sS'chunkid'
p1180
S'NP3'
p1181
sS'creftype'
p1182
S'Coreference-NounComplement:i15'
p1183
sS'chunktype'
p1184
S'head:NP3'
p1185
sS'crefchainhead'
p1186
S'i16:t11'
p1187
sS'vpos'
p1188
S'vib_3'
p1189
sS'cref'
p1190
S'i16%1:t11'
p1191
sS'drel'
p1192
S'k1:VGF'
p1193
ssbsg30
I00
sg31
I00
sg32
Nsg33
Nsg34
I2
sg35
I2
sg36
Nsg37
Nsg38
S'NNP'
p1194
sg40
g1169
sg41
I00
sba(issf_api
Word
p1195
(dp1196
g6
I00
sg7
V\u0928\u0947
p1197
sg9
(issf_api
FeatureSet
p1198
(dp1199
g12
(dp1200
S'posn'
p1201
S'60'
p1202
sS'name'
p1203
S'\xe0\xa4\xa8\xe0\xa5\x87'
p1204
sS'drel'
p1205
S'lwg__psp:NP3'
p1206
sS'chunktype'
p1207
S'child:NP3'
p1208
sS'af'
p1209
S'\xe0\xa4\xa8\xe0\xa5\x87,psp,,,,,,'
p1210
ssbsg30
I00
sg31
I00
sg32
Nsg33
Nsg34
I2
sg35
I2
sg36
Nsg37
Nsg38
S'PSP'
p1211
sg40
g1198
sg41
I00
sba(issf_api
Word
p1212
(dp1213
g6
I00
sg7
V\u0936\u0928\u093f\u0935\u093e\u0930
p1214
sg9
(issf_api
FeatureSet
p1215
(dp1216
g12
(dp1217
S'posn'
p1218
S'70'
p1219
sS'name'
p1220
S'\xe0\xa4\xb6\xe0\xa4\xa8\xe0\xa4\xbf\xe0\xa4\xb5\xe0\xa4\xbe\xe0\xa4\xb0'
p1221
sS'af'
p1222
S'\xe0\xa4\xb6\xe0\xa4\xa8\xe0\xa4\xbf\xe0\xa4\xb5\xe0\xa4\xbe\xe0\xa4\xb0,n,m,sg,3,o,0_\xe0\xa4\x95\xe0\xa5\x8b,0'
p1223
sS'chunkid'
p1224
S'NP4'
p1225
sS'drel'
p1226
S'k7t:VGF'
p1227
sS'vpos'
p1228
S'vib_2'
p1229
sS'chunktype'
p1230
S'head:NP4'
p1231
ssbsg30
I00
sg31
I00
sg32
Nsg33
Nsg34
I3
sg35
I2
sg36
Nsg37
Nsg38
S'NNP'
p1232
sg40
g1215
sg41
I00
sba(issf_api
Word
p1233
(dp1234
g6
I00
sg7
V\u0915\u094b
p1235
sg9
(issf_api
FeatureSet
p1236
(dp1237
g12
(dp1238
S'posn'
p1239
S'80'
p1240
sS'name'
p1241
S'\xe0\xa4\x95\xe0\xa5\x8b'
p1242
sS'drel'
p1243
S'lwg__psp:NP4'
p1244
sS'chunktype'
p1245
S'child:NP4'
p1246
sS'af'
p1247
S'\xe0\xa4\x95\xe0\xa5\x8b,psp,,,,,,'
p1248
ssbsg30
I00
sg31
I00
sg32
Nsg33
Nsg34
I3
sg35
I2
sg36
Nsg37
Nsg38
S'PSP'
p1249
sg40
g1236
sg41
I00
sba(issf_api
Word
p1250
(dp1251
g6
I00
sg7
V\u092f\u0939\u093e\u0901
p1252
sg9
(issf_api
FeatureSet
p1253
(dp1254
g12
(dp1255
S'crefhead'
p1256
S'\xe0\xa4\xaf\xe0\xa4\xb9\xe0\xa4\xbe\xe0\xa4\x81:i17'
p1257
sS'posn'
p1258
S'90'
p1259
sS'name'
p1260
S'\xe0\xa4\xaf\xe0\xa4\xb9\xe0\xa4\xbe\xe0\xa4\x81'
p1261
sS'af'
p1262
S'\xe0\xa4\xaf\xe0\xa4\xb9\xe0\xa4\xbe\xe0\xa4\x81,pn,,,,d,,'
p1263
sS'chunkid'
p1264
S'NP5'
p1265
sS'creftype'
p1266
S'anaphora-?:i17'
p1267
sS'chunktype'
p1268
S'head:NP5'
p1269
sS'crefchainhead'
p1270
S'i17:t12'
p1271
sS'cref'
p1272
S'i17%1:t12'
p1273
sS'drel'
p1274
S'k7p:VGF'
p1275
ssbsg30
I00
sg31
I00
sg32
Nsg33
Nsg34
I4
sg35
I2
sg36
Nsg37
Nsg38
S'PRP'
p1276
sg40
g1253
sg41
I00
sba(issf_api
Word
p1277
(dp1278
g6
I00
sg7
V\u092a\u0924\u094d\u0930\u0915\u093e\u0930\u094b\u0902
p1279
sg9
(issf_api
FeatureSet
p1280
(dp1281
g12
(dp1282
S'posn'
p1283
S'100'
p1284
sS'name'
p1285
S'\xe0\xa4\xaa\xe0\xa4\xa4\xe0\xa5\x8d\xe0\xa4\xb0\xe0\xa4\x95\xe0\xa4\xbe\xe0\xa4\xb0\xe0\xa5\x8b\xe0\xa4\x82'
p1286
sS'af'
p1287
S'\xe0\xa4\xaa\xe0\xa4\xa4\xe0\xa5\x8d\xe0\xa4\xb0\xe0\xa4\x95\xe0\xa4\xbe\xe0\xa4\xb0,n,m,pl,3,o,0_\xe0\xa4\xb8\xe0\xa5\x87,0'
p1288
sS'chunkid'
p1289
S'NP6'
p1290
sS'drel'
p1291
S'k4:VGF'
p1292
sS'vpos'
p1293
S'vib_2'
p1294
sS'chunktype'
p1295
S'head:NP6'
p1296
ssbsg30
I00
sg31
I00
sg32
Nsg33
Nsg34
I5
sg35
I2
sg36
Nsg37
Nsg38
S'NN'
p1297
sg40
g1280
sg41
I00
sba(issf_api
Word
p1298
(dp1299
g6
I00
sg7
V\u0938\u0947
p1300
sg9
(issf_api
FeatureSet
p1301
(dp1302
g12
(dp1303
S'posn'
p1304
S'110'
p1305
sS'name'
p1306
S'\xe0\xa4\xb8\xe0\xa5\x87'
p1307
sS'drel'
p1308
S'lwg__psp:NP6'
p1309
sS'chunktype'
p1310
S'child:NP6'
p1311
sS'af'
p1312
S'\xe0\xa4\xb8\xe0\xa5\x87,psp,,,,,,'
p1313
ssbsg30
I00
sg31
I00
sg32
Nsg33
Nsg34
I5
sg35
I2
sg36
Nsg37
Nsg38
S'PSP'
p1314
sg40
g1301
sg41
I00
sba(issf_api
Word
p1315
(dp1316
g6
I00
sg7
V\u0915\u0939\u093e
p1317
sg9
(issf_api
FeatureSet
p1318
(dp1319
g12
(dp1320
S'posn'
p1321
S'120'
p1322
sS'name'
p1323
S'\xe0\xa4\x95\xe0\xa4\xb9\xe0\xa4\xbe'
p1324
sS'af'
p1325
S'\xe0\xa4\x95\xe0\xa4\xb9,v,m,sg,any,,\xe0\xa4\xaf\xe0\xa4\xbe,yA'
p1326
sS'chunkid'
p1327
S'VGF'
p1328
sS'chunktype'
p1329
S'head:VGF'
p1330
sS'voicetype'
p1331
S'active'
p1332
sS'stype'
p1333
S'declarative'
p1334
ssbsg30
I00
sg31
I00
sg32
Nsg33
Nsg34
I6
sg35
I2
sg36
Nsg37
Nsg38
S'VM'
p1335
sg40
g1318
sg41
I00
sba(issf_api
Word
p1336
(dp1337
g6
I00
sg7
V\u0915\u093f
p1338
sg9
(issf_api
FeatureSet
p1339
(dp1340
g12
(dp1341
S'posn'
p1342
S'130'
p1343
sS'name'
p1344
S'\xe0\xa4\x95\xe0\xa4\xbf'
p1345
sS'af'
p1346
S'\xe0\xa4\x95\xe0\xa4\xbf,avy,,,,,,'
p1347
sS'chunkid'
p1348
S'CCP'
p1349
sS'drel'
p1350
S'k2:VGF'
p1351
sS'chunktype'
p1352
S'head:CCP'
p1353
ssbsg30
I00
sg31
I00
sg32
Nsg33
Nsg34
I7
sg35
I2
sg36
Nsg37
Nsg38
S'CC'
p1354
sg40
g1339
sg41
I00
sba(issf_api
Word
p1355
(dp1356
g6
I00
sg7
V\u0909\u0928\u0915\u0940
p1357
sg9
(issf_api
FeatureSet
p1358
(dp1359
g12
(dp1360
S'crefhead'
p1361
S'\xe0\xa4\x89\xe0\xa4\xa8\xe0\xa4\x95\xe0\xa5\x80:i18'
p1362
sS'posn'
p1363
S'140'
p1364
sS'name'
p1365
S'\xe0\xa4\x89\xe0\xa4\xa8\xe0\xa4\x95\xe0\xa5\x80'
p1366
sS'af'
p1367
S'\xe0\xa4\xb5\xe0\xa4\xb9,pn,f,sg,3h,o,\xe0\xa4\x95\xe0\xa4\xbe,kA'
p1368
sS'acrefmodhead'
p1369
S'\xe0\xa4\x89\xe0\xa4\xa8\xe0\xa4\x95\xe0\xa5\x80:m3'
p1370
sS'chunkid'
p1371
S'NP7'
p1372
sS'acrefmod'
p1373
S'm3%1:i19'
p1374
sS'creftype'
p1375
S'Anaphora-C:i16'
p1376
sS'chunktype'
p1377
S'head:NP7'
p1378
sS'cref'
p1379
S'i18%1:t11'
p1380
sS'drel'
p1381
S'nmod:NP8'
p1382
ssbsg30
I00
sg31
I00
sg32
Nsg33
Nsg34
I8
sg35
I2
sg36
Nsg37
Nsg38
S'PRP'
p1383
sg40
g1358
sg41
I00
sba(issf_api
Word
p1384
(dp1385
g6
I00
sg7
V\u0938\u0930\u0915\u093e\u0930
p1386
sg9
(issf_api
FeatureSet
p1387
(dp1388
g12
(dp1389
S'crefhead'
p1390
S'\xe0\xa4\xb8\xe0\xa4\xb0\xe0\xa4\x95\xe0\xa4\xbe\xe0\xa4\xb0:i19'
p1391
sS'posn'
p1392
S'150'
p1393
sS'name'
p1394
S'\xe0\xa4\xb8\xe0\xa4\xb0\xe0\xa4\x95\xe0\xa4\xbe\xe0\xa4\xb0'
p1395
sS'af'
p1396
S'\xe0\xa4\xb8\xe0\xa4\xb0\xe0\xa4\x95\xe0\xa4\xbe\xe0\xa4\xb0,n,f,sg,3,d,0,0'
p1397
sS'chunkid'
p1398
S'NP8'
p1399
sS'crefmod'
p1400
S'm3:i19'
p1401
sS'creftype'
p1402
S'Coreference-Identity:i3'
p1403
sS'chunktype'
p1404
S'head:NP8'
p1405
sS'cref'
p1406
S'i19%1:t2'
p1407
sS'drel'
p1408
S'k1:VGF2'
p1409
ssbsg30
I00
sg31
I00
sg32
Nsg33
Nsg34
I9
sg35
I2
sg36
Nsg37
Nsg38
S'NN'
p1410
sg40
g1387
sg41
I00
sba(issf_api
Word
p1411
(dp1412
g6
I00
sg7
V\u0935\u093e\u0930\u094d\u0924\u093e
p1413
sg9
(issf_api
FeatureSet
p1414
(dp1415
g12
(dp1416
S'crefhead'
p1417
S'\xe0\xa4\xb5\xe0\xa4\xbe\xe0\xa4\xb0\xe0\xa5\x8d\xe0\xa4\xa4\xe0\xa4\xbe:i20'
p1418
sS'posn'
p1419
S'160'
p1420
sS'name'
p1421
S'\xe0\xa4\xb5\xe0\xa4\xbe\xe0\xa4\xb0\xe0\xa5\x8d\xe0\xa4\xa4\xe0\xa4\xbe'
p1422
sS'af'
p1423
S'\xe0\xa4\xb5\xe0\xa4\xbe\xe0\xa4\xb0\xe0\xa5\x8d\xe0\xa4\xa4\xe0\xa4\xbe,n,f,sg,3,o,0_\xe0\xa4\x95\xe0\xa5\x87_\xe0\xa4\xb2\xe0\xa4\xbf\xe0\xa4\x8f,0'
p1424
sS'chunkid'
p1425
S'NP9'
p1426
sS'creftype'
p1427
S'Coreference-Identity:i4'
p1428
sS'chunktype'
p1429
S'head:NP9'
p1430
sS'vpos'
p1431
S'vib_2_3'
p1432
sS'cref'
p1433
S'i20%1:t3'
p1434
sS'drel'
p1435
S'rt:VGNF'
p1436
ssbsg30
I00
sg31
I00
sg32
Nsg33
Nsg34
I10
sg35
I2
sg36
Nsg37
Nsg38
S'NN'
p1437
sg40
g1414
sg41
I00
sba(issf_api
Word
p1438
(dp1439
g6
I00
sg7
V\u0915\u0947
p1440
sg9
(issf_api
FeatureSet
p1441
(dp1442
g12
(dp1443
S'posn'
p1444
S'170'
p1445
sS'name'
p1446
S'\xe0\xa4\x95\xe0\xa5\x872'
p1447
sS'drel'
p1448
S'lwg__psp:NP9'
p1449
sS'chunktype'
p1450
S'child:NP9'
p1451
sS'af'
p1452
S'\xe0\xa4\x95\xe0\xa5\x87,psp,,,,,,'
p1453
ssbsg30
I00
sg31
I00
sg32
Nsg33
Nsg34
I10
sg35
I2
sg36
Nsg37
Nsg38
S'PSP'
p1454
sg40
g1441
sg41
I00
sba(issf_api
Word
p1455
(dp1456
g6
I00
sg7
V\u0932\u093f\u090f
p1457
sg9
(issf_api
FeatureSet
p1458
(dp1459
g12
(dp1460
S'posn'
p1461
S'180'
p1462
sS'name'
p1463
S'\xe0\xa4\xb2\xe0\xa4\xbf\xe0\xa4\x8f'
p1464
sS'drel'
p1465
S'lwg__psp:NP9'
p1466
sS'chunktype'
p1467
S'child:NP9'
p1468
sS'af'
p1469
S'\xe0\xa4\xb2\xe0\xa4\xbf\xe0\xa4\x8f,psp,,,,,,'
p1470
ssbsg30
I00
sg31
I00
sg32
Nsg33
Nsg34
I10
sg35
I2
sg36
Nsg37
Nsg38
S'PSP'
p1471
sg40
g1458
sg41
I00
sba(issf_api
Word
p1472
(dp1473
g6
I00
sg7
V\u092a\u094d\u0930\u0927\u093e\u0928\u092e\u0902\u0924\u094d\u0930\u0940
p1474
sg9
(issf_api
FeatureSet
p1475
(dp1476
g12
(dp1477
S'posn'
p1478
S'190'
p1479
sS'name'
p1480
S'\xe0\xa4\xaa\xe0\xa5\x8d\xe0\xa4\xb0\xe0\xa4\xa7\xe0\xa4\xbe\xe0\xa4\xa8\xe0\xa4\xae\xe0\xa4\x82\xe0\xa4\xa4\xe0\xa5\x8d\xe0\xa4\xb0\xe0\xa5\x80'
p1481
sS'drel'
p1482
S'nmod__adj:NP10'
p1483
sS'chunktype'
p1484
S'child:NP10'
p1485
sS'af'
p1486
S'\xe0\xa4\xaa\xe0\xa5\x8d\xe0\xa4\xb0\xe0\xa4\xa7\xe0\xa4\xbe\xe0\xa4\xa8\xe0\xa4\xae\xe0\xa4\x82\xe0\xa4\xa4\xe0\xa5\x8d\xe0\xa4\xb0\xe0\xa5\x80,n,m,sg,3,d,0,0'
p1487
ssbsg30
I00
sg31
I00
sg32
Nsg33
Nsg34
I11
sg35
I2
sg36
Nsg37
Nsg38
S'NNP'
p1488
sg40
g1475
sg41
I00
sba(issf_api
Word
p1489
(dp1490
g6
I00
sg7
V\u0915\u093e\u0930\u094d\u092f\u093e\u0932\u092f
p1491
sg9
(issf_api
FeatureSet
p1492
(dp1493
g12
(dp1494
S'posn'
p1495
S'200'
p1496
sS'name'
p1497
S'\xe0\xa4\x95\xe0\xa4\xbe\xe0\xa4\xb0\xe0\xa5\x8d\xe0\xa4\xaf\xe0\xa4\xbe\xe0\xa4\xb2\xe0\xa4\xaf'
p1498
sS'af'
p1499
S'\xe0\xa4\x95\xe0\xa4\xbe\xe0\xa4\xb0\xe0\xa5\x8d\xe0\xa4\xaf\xe0\xa4\xbe\xe0\xa4\xb2\xe0\xa4\xaf,n,m,sg,3,o,0_\xe0\xa4\x95\xe0\xa4\xbe_\xe0\xa4\x93\xe0\xa4\xb0_\xe0\xa4\xb8\xe0\xa5\x87,0'
p1500
sS'chunkid'
p1501
S'NP10'
p1502
sS'drel'
p1503
S'k1:VGNF'
p1504
sS'vpos'
p1505
S'vib_vib_3_4_5'
p1506
sS'chunktype'
p1507
S'head:NP10'
p1508
ssbsg30
I00
sg31
I00
sg32
Nsg33
Nsg34
I11
sg35
I2
sg36
Nsg37
Nsg38
S'NN'
p1509
sg40
g1492
sg41
I00
sba(issf_api
Word
p1510
(dp1511
g6
I00
sg7
V\u0915\u0940
p1512
sg9
(issf_api
FeatureSet
p1513
(dp1514
g12
(dp1515
S'posn'
p1516
S'210'
p1517
sS'name'
p1518
S'\xe0\xa4\x95\xe0\xa5\x80'
p1519
sS'drel'
p1520
S'lwg__psp:NP10'
p1521
sS'chunktype'
p1522
S'child:NP10'
p1523
sS'af'
p1524
S'\xe0\xa4\x95\xe0\xa4\xbe,psp,f,sg,,o,,'
p1525
ssbsg30
I00
sg31
I00
sg32
Nsg33
Nsg34
I11
sg35
I2
sg36
Nsg37
Nsg38
S'PSP'
p1526
sg40
g1513
sg41
I00
sba(issf_api
Word
p1527
(dp1528
g6
I00
sg7
V\u0913\u0930
p1529
sg9
(issf_api
FeatureSet
p1530
(dp1531
g12
(dp1532
S'posn'
p1533
S'220'
p1534
sS'name'
p1535
S'\xe0\xa4\x93\xe0\xa4\xb0'
p1536
sS'drel'
p1537
S'lwg__psp:NP10'
p1538
sS'chunktype'
p1539
S'child:NP10'
p1540
sS'af'
p1541
S'\xe0\xa4\x93\xe0\xa4\xb0,nst,f,sg,3,o,,'
p1542
ssbsg30
I00
sg31
I00
sg32
Nsg33
Nsg34
I11
sg35
I2
sg36
Nsg37
Nsg38
S'NST'
p1543
sg40
g1530
sg41
I00
sba(issf_api
Word
p1544
(dp1545
g6
I00
sg7
V\u0938\u0947
p1546
sg9
(issf_api
FeatureSet
p1547
(dp1548
g12
(dp1549
S'posn'
p1550
S'230'
p1551
sS'name'
p1552
S'\xe0\xa4\xb8\xe0\xa5\x872'
p1553
sS'drel'
p1554
S'lwg__psp:NP10'
p1555
sS'chunktype'
p1556
S'child:NP10'
p1557
sS'af'
p1558
S'\xe0\xa4\xb8\xe0\xa5\x87,psp,,,,,,'
p1559
ssbsg30
I00
sg31
I00
sg32
Nsg33
Nsg34
I11
sg35
I2
sg36
Nsg37
Nsg38
S'PSP'
p1560
sg40
g1547
sg41
I00
sba(issf_api
Word
p1561
(dp1562
g6
I00
sg7
V\u0939\u093e\u0932
p1563
sg9
(issf_api
FeatureSet
p1564
(dp1565
g12
(dp1566
S'posn'
p1567
S'240'
p1568
sS'name'
p1569
S'\xe0\xa4\xb9\xe0\xa4\xbe\xe0\xa4\xb2'
p1570
sS'af'
p1571
S'\xe0\xa4\xb9\xe0\xa4\xbe\xe0\xa4\xb2,n,m,sg,3,o,0_\xe0\xa4\xae\xe0\xa5\x87\xe0\xa4\x82,0'
p1572
sS'chunkid'
p1573
S'NP11'
p1574
sS'drel'
p1575
S'k7t:VGNF'
p1576
sS'vpos'
p1577
S'vib_2'
p1578
sS'chunktype'
p1579
S'head:NP11'
p1580
ssbsg30
I00
sg31
I00
sg32
Nsg33
Nsg34
I12
sg35
I2
sg36
Nsg37
Nsg38
S'NN'
p1581
sg40
g1564
sg41
I00
sba(issf_api
Word
p1582
(dp1583
g6
I00
sg7
V\u092e\u0947\u0902
p1584
sg9
(issf_api
FeatureSet
p1585
(dp1586
g12
(dp1587
S'posn'
p1588
S'250'
p1589
sS'name'
p1590
S'\xe0\xa4\xae\xe0\xa5\x87\xe0\xa4\x82'
p1591
sS'drel'
p1592
S'lwg__psp:NP11'
p1593
sS'chunktype'
p1594
S'child:NP11'
p1595
sS'af'
p1596
S'\xe0\xa4\xae\xe0\xa5\x87\xe0\xa4\x82,psp,,,,,,'
p1597
ssbsg30
I00
sg31
I00
sg32
Nsg33
Nsg34
I12
sg35
I2
sg36
Nsg37
Nsg38
S'PSP'
p1598
sg40
g1585
sg41
I00
sba(issf_api
Word
p1599
(dp1600
g6
I00
sg7
V\u0926\u093f\u090f
p1601
sg9
(issf_api
FeatureSet
p1602
(dp1603
g12
(dp1604
S'posn'
p1605
S'260'
p1606
sS'name'
p1607
S'\xe0\xa4\xa6\xe0\xa4\xbf\xe0\xa4\x8f'
p1608
sS'af'
p1609
S'\xe0\xa4\xa6\xe0\xa5\x87,v,m,sg,any,,\xe0\xa4\xaf\xe0\xa4\xbe,yA'
p1610
sS'chunkid'
p1611
S'VGNF'
p1612
sS'drel'
p1613
S'nmod__k2inv:NP12'
p1614
sS'chunktype'
p1615
S'head:VGNF'
p1616
ssbsg30
I00
sg31
I00
sg32
Nsg33
Nsg34
I13
sg35
I2
sg36
Nsg37
Nsg38
S'VM'
p1617
sg40
g1602
sg41
I00
sba(issf_api
Word
p1618
(dp1619
g6
I00
sg7
V\u0928\u093f\u092e\u0902\u0924\u094d\u0930\u0923
p1620
sg9
(issf_api
FeatureSet
p1621
(dp1622
g12
(dp1623
S'crefhead'
p1624
S'\xe0\xa4\xa8\xe0\xa4\xbf\xe0\xa4\xae\xe0\xa4\x82\xe0\xa4\xa4\xe0\xa5\x8d\xe0\xa4\xb0\xe0\xa4\xa3:i21'
p1625
sS'posn'
p1626
S'270'
p1627
sS'name'
p1628
S'\xe0\xa4\xa8\xe0\xa4\xbf\xe0\xa4\xae\xe0\xa4\x82\xe0\xa4\xa4\xe0\xa5\x8d\xe0\xa4\xb0\xe0\xa4\xa3'
p1629
sS'af'
p1630
S'\xe0\xa4\xa8\xe0\xa4\xbf\xe0\xa4\xae\xe0\xa4\x82\xe0\xa4\xa4\xe0\xa5\x8d\xe0\xa4\xb0\xe0\xa4\xa3,n,m,sg,3,o,0_\xe0\xa4\xaa\xe0\xa4\xb0,0'
p1631
sS'chunkid'
p1632
S'NP12'
p1633
sS'chunktype'
p1634
S'head:NP12'
p1635
sS'crefchainhead'
p1636
S'i21:t13'
p1637
sS'vpos'
p1638
S'vib_2'
p1639
sS'cref'
p1640
S'i21%1:t13'
p1641
sS'drel'
p1642
S'k7:VGNN'
p1643
ssbsg30
I00
sg31
I00
sg32
Nsg33
Nsg34
I14
sg35
I2
sg36
Nsg37
Nsg38
S'NN'
p1644
sg40
g1621
sg41
I00
sba(issf_api
Word
p1645
(dp1646
g6
I00
sg7
V\u092a\u0930
p1647
sg9
(issf_api
FeatureSet
p1648
(dp1649
g12
(dp1650
S'posn'
p1651
S'280'
p1652
sS'name'
p1653
S'\xe0\xa4\xaa\xe0\xa4\xb0'
p1654
sS'drel'
p1655
S'lwg__psp:NP12'
p1656
sS'chunktype'
p1657
S'child:NP12'
p1658
sS'af'
p1659
S'\xe0\xa4\xaa\xe0\xa4\xb0,psp,,,,,,'
p1660
ssbsg30
I00
sg31
I00
sg32
Nsg33
Nsg34
I14
sg35
I2
sg36
Nsg37
Nsg38
S'PSP'
p1661
sg40
g1648
sg41
I00
sba(issf_api
Word
p1662
(dp1663
g6
I00
sg7
V\u092b\u0948\u0938\u0932\u093e
p1664
sg9
(issf_api
FeatureSet
p1665
(dp1666
g12
(dp1667
S'posn'
p1668
S'290'
p1669
sS'name'
p1670
S'\xe0\xa4\xab\xe0\xa5\x88\xe0\xa4\xb8\xe0\xa4\xb2\xe0\xa4\xbe'
p1671
sS'af'
p1672
S'\xe0\xa4\xab\xe0\xa5\x88\xe0\xa4\xb8\xe0\xa4\xb2\xe0\xa4\xbe,n,m,sg,3,d,0,0'
p1673
sS'chunkid'
p1674
S'NP13'
p1675
sS'drel'
p1676
S'pof:VGNN'
p1677
sS'chunktype'
p1678
S'head:NP13'
p1679
ssbsg30
I00
sg31
I00
sg32
Nsg33
Nsg34
I15
sg35
I2
sg36
Nsg37
Nsg38
S'NN'
p1680
sg40
g1665
sg41
I00
sba(issf_api
Word
p1681
(dp1682
g6
I00
sg7
V\u0915\u0930\u0928\u0947
p1683
sg9
(issf_api
FeatureSet
p1684
(dp1685
g12
(dp1686
S'posn'
p1687
S'300'
p1688
sS'name'
p1689
S'\xe0\xa4\x95\xe0\xa4\xb0\xe0\xa4\xa8\xe0\xa5\x87'
p1690
sS'af'
p1691
S'\xe0\xa4\x95\xe0\xa4\xb0,v,any,any,any,o,\xe0\xa4\xa8\xe0\xa4\xbe_\xe0\xa4\x95\xe0\xa5\x87_\xe0\xa4\xb2\xe0\xa4\xbf\xe0\xa4\x8f,nA'
p1692
sS'chunkid'
p1693
S'VGNN'
p1694
sS'drel'
p1695
S'rt:VGNN2'
p1696
sS'vpos'
p1697
S'tam_2_3'
p1698
sS'chunktype'
p1699
S'head:VGNN'
p1700
ssbsg30
I00
sg31
I00
sg32
Nsg33
Nsg34
I16
sg35
I2
sg36
Nsg37
Nsg38
S'VM'
p1701
sg40
g1684
sg41
I00
sba(issf_api
Word
p1702
(dp1703
g6
I00
sg7
V\u0915\u0947
p1704
sg9
(issf_api
FeatureSet
p1705
(dp1706
g12
(dp1707
S'posn'
p1708
S'310'
p1709
sS'name'
p1710
S'\xe0\xa4\x95\xe0\xa5\x873'
p1711
sS'drel'
p1712
S'lwg__psp:VGNN'
p1713
sS'chunktype'
p1714
S'child:VGNN'
p1715
sS'af'
p1716
S'\xe0\xa4\x95\xe0\xa5\x87,psp,,,,,,'
p1717
ssbsg30
I00
sg31
I00
sg32
Nsg33
Nsg34
I16
sg35
I2
sg36
Nsg37
Nsg38
S'PSP'
p1718
sg40
g1705
sg41
I00
sba(issf_api
Word
p1719
(dp1720
g6
I00
sg7
V\u0932\u093f\u090f
p1721
sg9
(issf_api
FeatureSet
p1722
(dp1723
g12
(dp1724
S'posn'
p1725
S'320'
p1726
sS'name'
p1727
S'\xe0\xa4\xb2\xe0\xa4\xbf\xe0\xa4\x8f2'
p1728
sS'drel'
p1729
S'lwg__psp:VGNN'
p1730
sS'chunktype'
p1731
S'child:VGNN'
p1732
sS'af'
p1733
S'\xe0\xa4\xb2\xe0\xa4\xbf\xe0\xa4\x8f,psp,,,,,,'
p1734
ssbsg30
I00
sg31
I00
sg32
Nsg33
Nsg34
I16
sg35
I2
sg36
Nsg37
Nsg38
S'PSP'
p1735
sg40
g1722
sg41
I00
sba(issf_api
Word
p1736
(dp1737
g6
I00
sg7
V\u0909\u0932\u094d\u092b\u093e
p1738
sg9
(issf_api
FeatureSet
p1739
(dp1740
g12
(dp1741
S'crefhead'
p1742
S'\xe0\xa4\x89\xe0\xa4\xb2\xe0\xa5\x8d\xe0\xa4\xab\xe0\xa4\xbe:i22'
p1743
sS'posn'
p1744
S'330'
p1745
sS'name'
p1746
S'\xe0\xa4\x89\xe0\xa4\xb2\xe0\xa5\x8d\xe0\xa4\xab\xe0\xa4\xbe'
p1747
sS'af'
p1748
S'\xe0\xa4\x89\xe0\xa4\xb2\xe0\xa5\x8d\xe0\xa4\xab\xe0\xa4\xbe,n,m,sg,3,o,0_\xe0\xa4\x95\xe0\xa4\xbe,0'
p1749
sS'chunkid'
p1750
S'NP14'
p1751
sS'creftype'
p1752
S'Coreference-Identity:i10'
p1753
sS'chunktype'
p1754
S'head:NP14'
p1755
sS'vpos'
p1756
S'vib_2'
p1757
sS'cref'
p1758
S'i22%1:t5'
p1759
sS'drel'
p1760
S'r6:NP15'
p1761
ssbsg30
I00
sg31
I00
sg32
Nsg33
Nsg34
I17
sg35
I2
sg36
Nsg37
Nsg38
S'NNP'
p1762
sg40
g1739
sg41
I00
sba(issf_api
Word
p1763
(dp1764
g6
I00
sg7
V\u0915\u0940
p1765
sg9
(issf_api
FeatureSet
p1766
(dp1767
g12
(dp1768
S'posn'
p1769
S'340'
p1770
sS'name'
p1771
S'\xe0\xa4\x95\xe0\xa5\x802'
p1772
sS'drel'
p1773
S'lwg__psp:NP14'
p1774
sS'chunktype'
p1775
S'child:NP14'
p1776
sS'af'
p1777
S'\xe0\xa4\x95\xe0\xa4\xbe,psp,f,sg,,o,,'
p1778
ssbsg30
I00
sg31
I00
sg32
Nsg33
Nsg34
I17
sg35
I2
sg36
Nsg37
Nsg38
S'PSP'
p1779
sg40
g1766
sg41
I00
sba(issf_api
Word
p1780
(dp1781
g6
I00
sg7
V\u0915\u0947\u0902\u0926\u094d\u0930\u0940\u092f
p1782
sg9
(issf_api
FeatureSet
p1783
(dp1784
g12
(dp1785
S'posn'
p1786
S'150'
p1787
sS'name'
p1788
S'\xe0\xa4\x95\xe0\xa5\x87\xe0\xa4\x82\xe0\xa4\xa6\xe0\xa5\x8d\xe0\xa4\xb0\xe0\xa5\x80\xe0\xa4\xaf'
p1789
sS'af'
p1790
S'\xe0\xa4\x95\xe0\xa5\x87\xe0\xa4\x82\xe0\xa4\xa6\xe0\xa5\x8d\xe0\xa4\xb0\xe0\xa5\x80\xe0\xa4\xaf,adj,any,any,,o,,'
p1791
sS'drel'
p1792
S'pof__cn:NP15'
p1793
sS'chunktype'
p1794
S'child:NP15'
p1795
sS'cref'
p1796
S'i23%0:t6'
p1797
ssbsg30
I00
sg31
I00
sg32
Nsg33
Nsg34
I18
sg35
I2
sg36
Nsg37
Nsg38
S'NNPC'
p1798
sg40
g1783
sg41
I00
sba(issf_api
Word
p1799
(dp1800
g6
I00
sg7
V\u0915\u093e\u0930\u094d\u092f\u0915\u093e\u0930\u093f\u0923\u0940
p1801
sg9
(issf_api
FeatureSet
p1802
(dp1803
g12
(dp1804
S'crefhead'
p1805
S'\xe0\xa4\x95\xe0\xa4\xbe\xe0\xa4\xb0\xe0\xa5\x8d\xe0\xa4\xaf\xe0\xa4\x95\xe0\xa4\xbe\xe0\xa4\xb0\xe0\xa4\xbf\xe0\xa4\xa3\xe0\xa5\x80:i23'
p1806
sS'posn'
p1807
S'360'
p1808
sS'name'
p1809
S'\xe0\xa4\x95\xe0\xa4\xbe\xe0\xa4\xb0\xe0\xa5\x8d\xe0\xa4\xaf\xe0\xa4\x95\xe0\xa4\xbe\xe0\xa4\xb0\xe0\xa4\xbf\xe0\xa4\xa3\xe0\xa5\x80'
p1810
sS'af'
p1811
S'\xe0\xa4\x95\xe0\xa4\xbe\xe0\xa4\xb0\xe0\xa5\x8d\xe0\xa4\xaf\xe0\xa4\x95\xe0\xa4\xbe\xe0\xa4\xb0\xe0\xa4\xbf\xe0\xa4\xa3\xe0\xa5\x80,n,f,sg,3,d,0,0'
p1812
sS'creftype'
p1813
S'Coreference-Identity:i7'
p1814
sS'drel'
p1815
S'pof__cn:NP15'
p1816
sS'chunktype'
p1817
S'child:NP15'
p1818
sS'cref'
p1819
S'i23%1:t6'
p1820
ssbsg30
I00
sg31
I00
sg32
Nsg33
Nsg34
I18
sg35
I2
sg36
Nsg37
Nsg38
S'NNPC'
p1821
sg40
g1802
sg41
I00
sba(issf_api
Word
p1822
(dp1823
g6
I00
sg7
V\u092c\u0948\u0920\u0915
p1824
sg9
(issf_api
FeatureSet
p1825
(dp1826
g12
(dp1827
S'posn'
p1828
S'370'
p1829
sS'name'
p1830
S'\xe0\xa4\xac\xe0\xa5\x88\xe0\xa4\xa0\xe0\xa4\x95'
p1831
sS'af'
p1832
S'\xe0\xa4\xac\xe0\xa5\x88\xe0\xa4\xa0\xe0\xa4\x95,n,f,sg,3,o,0_\xe0\xa4\xae\xe0\xa5\x87\xe0\xa4\x82,0'
p1833
sS'chunkid'
p1834
S'NP15'
p1835
sS'drel'
p1836
S'k7:VGNN2'
p1837
sS'vpos'
p1838
S'vib_4'
p1839
sS'chunktype'
p1840
S'head:NP15'
p1841
ssbsg30
I00
sg31
I00
sg32
Nsg33
Nsg34
I18
sg35
I2
sg36
Nsg37
Nsg38
S'NNP'
p1842
sg40
g1825
sg41
I00
sba(issf_api
Word
p1843
(dp1844
g6
I00
sg7
V\u092e\u0947\u0902
p1845
sg9
(issf_api
FeatureSet
p1846
(dp1847
g12
(dp1848
S'posn'
p1849
S'380'
p1850
sS'name'
p1851
S'\xe0\xa4\xae\xe0\xa5\x87\xe0\xa4\x822'
p1852
sS'drel'
p1853
S'lwg__psp:NP15'
p1854
sS'chunktype'
p1855
S'child:NP15'
p1856
sS'af'
p1857
S'\xe0\xa4\xae\xe0\xa5\x87\xe0\xa4\x82,psp,,,,,,'
p1858
ssbsg30
I00
sg31
I00
sg32
Nsg33
Nsg34
I18
sg35
I2
sg36
Nsg37
Nsg38
S'PSP'
p1859
sg40
g1846
sg41
I00
sba(issf_api
Word
p1860
(dp1861
g6
I00
sg7
V\u0936\u093e\u092e\u093f\u0932
p1862
sg9
(issf_api
FeatureSet
p1863
(dp1864
g12
(dp1865
S'posn'
p1866
S'390'
p1867
sS'name'
p1868
S'\xe0\xa4\xb6\xe0\xa4\xbe\xe0\xa4\xae\xe0\xa4\xbf\xe0\xa4\xb2'
p1869
sS'af'
p1870
S'\xe0\xa4\xb6\xe0\xa4\xbe\xe0\xa4\xae\xe0\xa4\xbf\xe0\xa4\xb2,adj,any,any,,,,'
p1871
sS'chunkid'
p1872
S'JJP'
p1873
sS'drel'
p1874
S'pof:VGNN2'
p1875
sS'chunktype'
p1876
S'head:JJP'
p1877
ssbsg30
I00
sg31
I00
sg32
Nsg33
Nsg34
I19
sg35
I2
sg36
Nsg37
Nsg38
S'JJ'
p1878
sg40
g1863
sg41
I00
sba(issf_api
Word
p1879
(dp1880
g6
I00
sg7
V\u0939\u094b\u0928\u0947
p1881
sg9
(issf_api
FeatureSet
p1882
(dp1883
g12
(dp1884
S'posn'
p1885
S'400'
p1886
sS'name'
p1887
S'\xe0\xa4\xb9\xe0\xa5\x8b\xe0\xa4\xa8\xe0\xa5\x87'
p1888
sS'af'
p1889
S'\xe0\xa4\xb9\xe0\xa5\x8b,v,any,any,any,o,\xe0\xa4\xa8\xe0\xa4\xbe_\xe0\xa4\x95\xe0\xa5\x87_\xe0\xa4\xb2\xe0\xa4\xbf\xe0\xa4\x8f,nA'
p1890
sS'chunkid'
p1891
S'VGNN2'
p1892
sS'drel'
p1893
S'rt:VGNN3'
p1894
sS'vpos'
p1895
S'tam_2_3'
p1896
sS'chunktype'
p1897
S'head:VGNN2'
p1898
ssbsg30
I00
sg31
I00
sg32
Nsg33
Nsg34
I20
sg35
I2
sg36
Nsg37
Nsg38
S'VM'
p1899
sg40
g1882
sg41
I00
sba(issf_api
Word
p1900
(dp1901
g6
I00
sg7
V\u0915\u0947
p1902
sg9
(issf_api
FeatureSet
p1903
(dp1904
g12
(dp1905
S'posn'
p1906
S'410'
p1907
sS'name'
p1908
S'\xe0\xa4\x95\xe0\xa5\x874'
p1909
sS'drel'
p1910
S'lwg__psp:VGNN2'
p1911
sS'chunktype'
p1912
S'child:VGNN2'
p1913
sS'af'
p1914
S'\xe0\xa4\x95\xe0\xa5\x87,psp,,,,,,'
p1915
ssbsg30
I00
sg31
I00
sg32
Nsg33
Nsg34
I20
sg35
I2
sg36
Nsg37
Nsg38
S'PSP'
p1916
sg40
g1903
sg41
I00
sba(issf_api
Word
p1917
(dp1918
g6
I00
sg7
V\u0932\u093f\u090f
p1919
sg9
(issf_api
FeatureSet
p1920
(dp1921
g12
(dp1922
S'posn'
p1923
S'420'
p1924
sS'name'
p1925
S'\xe0\xa4\xb2\xe0\xa4\xbf\xe0\xa4\x8f3'
p1926
sS'drel'
p1927
S'lwg__psp:VGNN2'
p1928
sS'chunktype'
p1929
S'child:VGNN2'
p1930
sS'af'
p1931
S'\xe0\xa4\xb2\xe0\xa4\xbf\xe0\xa4\x8f,psp,,,,,,'
p1932
ssbsg30
I00
sg31
I00
sg32
Nsg33
Nsg34
I20
sg35
I2
sg36
Nsg37
Nsg38
S'PSP'
p1933
sg40
g1920
sg41
I00
sba(issf_api
Word
p1934
(dp1935
g6
I00
sg7
V\u0938\u0926\u0938\u094d\u092f\u094b\u0902
p1936
sg9
(issf_api
FeatureSet
p1937
(dp1938
g12
(dp1939
S'crefhead'
p1940
S'\xe0\xa4\xb8\xe0\xa4\xa6\xe0\xa4\xb8\xe0\xa5\x8d\xe0\xa4\xaf\xe0\xa5\x8b\xe0\xa4\x82:i24'
p1941
sS'posn'
p1942
S'430'
p1943
sS'name'
p1944
S'\xe0\xa4\xb8\xe0\xa4\xa6\xe0\xa4\xb8\xe0\xa5\x8d\xe0\xa4\xaf\xe0\xa5\x8b\xe0\xa4\x82'
p1945
sS'af'
p1946
S'\xe0\xa4\xb8\xe0\xa4\xa6\xe0\xa4\xb8\xe0\xa5\x8d\xe0\xa4\xaf,n,m,pl,3,o,0_\xe0\xa4\x95\xe0\xa5\x8b,0'
p1947
sS'chunkid'
p1948
S'NP16'
p1949
sS'creftype'
p1950
S'Coreference-Identity:i12'
p1951
sS'chunktype'
p1952
S'head:NP16'
p1953
sS'vpos'
p1954
S'vib_2'
p1955
sS'cref'
p1956
S'i24%1:t7'
p1957
sS'drel'
p1958
S'k2:VGNN3'
p1959
ssbsg30
I00
sg31
I00
sg32
Nsg33
Nsg34
I21
sg35
I2
sg36
Nsg37
Nsg38
S'NN'
p1960
sg40
g1937
sg41
I00
sba(issf_api
Word
p1961
(dp1962
g6
I00
sg7
V\u0915\u094b
p1963
sg9
(issf_api
FeatureSet
p1964
(dp1965
g12
(dp1966
S'posn'
p1967
S'440'
p1968
sS'name'
p1969
S'\xe0\xa4\x95\xe0\xa5\x8b2'
p1970
sS'drel'
p1971
S'lwg__psp:NP16'
p1972
sS'chunktype'
p1973
S'child:NP16'
p1974
sS'af'
p1975
S'\xe0\xa4\x95\xe0\xa5\x8b,psp,,,,,,'
p1976
ssbsg30
I00
sg31
I00
sg32
Nsg33
Nsg34
I21
sg35
I2
sg36
Nsg37
Nsg38
S'PSP'
p1977
sg40
g1964
sg41
I00
sba(issf_api
Word
p1978
(dp1979
g6
I00
sg7
V\u0930\u093f\u0939\u093e
p1980
sg9
(issf_api
FeatureSet
p1981
(dp1982
g12
(dp1983
S'posn'
p1984
S'450'
p1985
sS'name'
p1986
S'\xe0\xa4\xb0\xe0\xa4\xbf\xe0\xa4\xb9\xe0\xa4\xbe'
p1987
sS'af'
p1988
S'\xe0\xa4\xb0\xe0\xa4\xbf\xe0\xa4\xb9\xe0\xa4\xbe,adj,any,any,,,,'
p1989
sS'chunkid'
p1990
S'JJP2'
p1991
sS'drel'
p1992
S'pof:VGNN3'
p1993
sS'chunktype'
p1994
S'head:JJP2'
p1995
ssbsg30
I00
sg31
I00
sg32
Nsg33
Nsg34
I22
sg35
I2
sg36
Nsg37
Nsg38
S'JJ'
p1996
sg40
g1981
sg41
I00
sba(issf_api
Word
p1997
(dp1998
g6
I00
sg7
V\u0915\u0930\u0928\u0947
p1999
sg9
(issf_api
FeatureSet
p2000
(dp2001
g12
(dp2002
S'posn'
p2003
S'460'
p2004
sS'name'
p2005
S'\xe0\xa4\x95\xe0\xa4\xb0\xe0\xa4\xa8\xe0\xa5\x872'
p2006
sS'af'
p2007
S'\xe0\xa4\x95\xe0\xa4\xb0,v,any,any,any,o,\xe0\xa4\xa8\xe0\xa4\xbe_\xe0\xa4\x95\xe0\xa5\x8b,nA'
p2008
sS'chunkid'
p2009
S'VGNN3'
p2010
sS'drel'
p2011
S'rt:VGF2'
p2012
sS'vpos'
p2013
S'tam_2'
p2014
sS'chunktype'
p2015
S'head:VGNN3'
p2016
ssbsg30
I00
sg31
I00
sg32
Nsg33
Nsg34
I23
sg35
I2
sg36
Nsg37
Nsg38
S'VM'
p2017
sg40
g2000
sg41
I00
sba(issf_api
Word
p2018
(dp2019
g6
I00
sg7
V\u0915\u094b
p2020
sg9
(issf_api
FeatureSet
p2021
(dp2022
g12
(dp2023
S'posn'
p2024
S'470'
p2025
sS'name'
p2026
S'\xe0\xa4\x95\xe0\xa5\x8b3'
p2027
sS'drel'
p2028
S'lwg__psp:VGNN3'
p2029
sS'chunktype'
p2030
S'child:VGNN3'
p2031
sS'af'
p2032
S'\xe0\xa4\x95\xe0\xa5\x8b,psp,,,,,,'
p2033
ssbsg30
I00
sg31
I00
sg32
Nsg33
Nsg34
I23
sg35
I2
sg36
Nsg37
Nsg38
S'PSP'
p2034
sg40
g2021
sg41
I00
sba(issf_api
Word
p2035
(dp2036
g6
I00
sg7
V\u0924\u0948\u092f\u093e\u0930
p2037
sg9
(issf_api
FeatureSet
p2038
(dp2039
g12
(dp2040
S'posn'
p2041
S'480'
p2042
sS'name'
p2043
S'\xe0\xa4\xa4\xe0\xa5\x88\xe0\xa4\xaf\xe0\xa4\xbe\xe0\xa4\xb0'
p2044
sS'af'
p2045
S'\xe0\xa4\xa4\xe0\xa5\x88\xe0\xa4\xaf\xe0\xa4\xbe\xe0\xa4\xb0,adj,any,any,,,,'
p2046
sS'chunkid'
p2047
S'JJP3'
p2048
sS'drel'
p2049
S'k1s:VGF2'
p2050
sS'chunktype'
p2051
S'head:JJP3'
p2052
ssbsg30
I00
sg31
I00
sg32
Nsg33
Nsg34
I24
sg35
I2
sg36
Nsg37
Nsg38
S'JJ'
p2053
sg40
g2038
sg41
I00
sba(issf_api
Word
p2054
(dp2055
g6
I00
sg7
V\u0939\u0948
p2056
sg9
(issf_api
FeatureSet
p2057
(dp2058
g12
(dp2059
S'posn'
p2060
S'490'
p2061
sS'name'
p2062
S'\xe0\xa4\xb9\xe0\xa5\x88'
p2063
sS'af'
p2064
S'\xe0\xa4\xb9\xe0\xa5\x88,v,any,sg,3,,\xe0\xa4\xb9\xe0\xa5\x88,hE'
p2065
sS'chunkid'
p2066
S'VGF2'
p2067
sS'stype'
p2068
S'declarative'
p2069
sS'drel'
p2070
S'ccof:CCP'
p2071
sS'voicetype'
p2072
S'active'
p2073
sS'chunktype'
p2074
S'head:VGF2'
p2075
ssbsg30
I00
sg31
I00
sg32
Nsg33
Nsg34
I25
sg35
I2
sg36
Nsg37
Nsg38
S'VM'
p2076
sg40
g2057
sg41
I00
sba(issf_api
Word
p2077
(dp2078
g6
I00
sg7
V\u0964
p2079
sg9
(issf_api
FeatureSet
p2080
(dp2081
g12
(dp2082
S'posn'
p2083
S'500'
p2084
sS'name'
p2085
S'\xe0\xa5\xa4'
p2086
sS'af'
p2087
S'\xe0\xa5\xa4,punc,,,,,,'
p2088
sS'chunkid'
p2089
S'BLK'
p2090
sS'drel'
p2091
S'rsym:VGF'
p2092
sS'chunktype'
p2093
S'head:BLK'
p2094
ssbsg30
I00
sg31
I00
sg32
Nsg33
Nsg34
I26
sg35
I2
sg36
Nsg37
Nsg38
S'SYM'
p2095
sg40
g2080
sg41
I00
sba(issf_api
Word
p2096
(dp2097
g6
I00
sg7
V\u0926\u0942\u0938\u0930\u0940
p2098
sg9
(issf_api
FeatureSet
p2099
(dp2100
g12
(dp2101
S'posn'
p2102
S'10'
p2103
sS'name'
p2104
S'\xe0\xa4\xa6\xe0\xa5\x82\xe0\xa4\xb8\xe0\xa4\xb0\xe0\xa5\x80'
p2105
sS'af'
p2106
S'\xe0\xa4\xa6\xe0\xa5\x82\xe0\xa4\xb8\xe0\xa4\xb0\xe0\xa4\xbe,num,f,sg,,d,,'
p2107
sS'chunkid'
p2108
S'NP'
p2109
sS'drel'
p2110
S'sent-adv:VGF'
p2111
sS'chunktype'
p2112
S'head:NP'
p2113
ssbsg30
I00
sg31
I00
sg32
Nsg33
Nsg34
I0
sg35
I3
sg36
Nsg37
Nsg38
S'QO'
p2114
sg40
g2099
sg41
I00
sba(issf_api
Word
p2115
(dp2116
g6
I00
sg7
V\u0913\u0930
p2117
sg9
(issf_api
FeatureSet
p2118
(dp2119
g12
(dp2120
S'posn'
p2121
S'20'
p2122
sS'name'
p2123
S'\xe0\xa4\x93\xe0\xa4\xb0'
p2124
sS'drel'
p2125
S'lwg__psp:NP'
p2126
sS'chunktype'
p2127
S'child:NP'
p2128
sS'af'
p2129
S'\xe0\xa4\x93\xe0\xa4\xb0,nst,f,sg,3,d,,'
p2130
ssbsg30
I00
sg31
I00
sg32
Nsg33
Nsg34
I0
sg35
I3
sg36
Nsg37
Nsg38
S'NST'
p2131
sg40
g2118
sg41
I00
sba(issf_api
Word
p2132
(dp2133
g6
I00
sg7
V,
p2134
sg9
(issf_api
FeatureSet
p2135
(dp2136
g12
(dp2137
S'posn'
p2138
S'30'
p2139
sS'name'
p2140
S','
p2141
sS'drel'
p2142
S'rsym:NP'
p2143
sS'chunktype'
p2144
S'child:NP'
p2145
sS'af'
p2146
S'COMMA,punc,,,,,,'
p2147
ssbsg30
I00
sg31
I00
sg32
Nsg33
Nsg34
I0
sg35
I3
sg36
Nsg37
Nsg38
S'SYM'
p2148
sg40
g2135
sg41
I00
sba(issf_api
Word
p2149
(dp2150
g6
I00
sg7
V\u0909\u0932\u094d\u092b\u093e
p2151
sg9
(issf_api
FeatureSet
p2152
(dp2153
g12
(dp2154
S'crefhead'
p2155
S'\xe0\xa4\x89\xe0\xa4\xb2\xe0\xa5\x8d\xe0\xa4\xab\xe0\xa4\xbe:i25'
p2156
sS'posn'
p2157
S'40'
p2158
sS'name'
p2159
S'\xe0\xa4\x89\xe0\xa4\xb2\xe0\xa5\x8d\xe0\xa4\xab\xe0\xa4\xbe'
p2160
sS'af'
p2161
S'\xe0\xa4\x89\xe0\xa4\xb2\xe0\xa5\x8d\xe0\xa4\xab\xe0\xa4\xbe,n,m,sg,3,o,0_\xe0\xa4\x95\xe0\xa4\xbe,0'
p2162
sS'acrefmodhead'
p2163
S'\xe0\xa4\x89\xe0\xa4\xb2\xe0\xa5\x8d\xe0\xa4\xab\xe0\xa4\xbe:m4'
p2164
sS'chunkid'
p2165
S'NP2'
p2166
sS'acrefmod'
p2167
S'm4%1:i26'
p2168
sS'creftype'
p2169
S'Coreference-Identity:i22'
p2170
sS'chunktype'
p2171
S'head:NP2'
p2172
sS'vpos'
p2173
S'vib_2'
p2174
sS'cref'
p2175
S'i25%1:t5'
p2176
sS'drel'
p2177
S'r6:NP3'
p2178
ssbsg30
I00
sg31
I00
sg32
Nsg33
Nsg34
I1
sg35
I3
sg36
Nsg37
Nsg38
S'NNP'
p2179
sg40
g2152
sg41
I00
sba(issf_api
Word
p2180
(dp2181
g6
I00
sg7
V\u0915\u0947
p2182
sg9
(issf_api
FeatureSet
p2183
(dp2184
g12
(dp2185
S'posn'
p2186
S'50'
p2187
sS'name'
p2188
S'\xe0\xa4\x95\xe0\xa5\x87'
p2189
sS'drel'
p2190
S'lwg__psp:NP2'
p2191
sS'chunktype'
p2192
S'child:NP2'
p2193
sS'af'
p2194
S'\xe0\xa4\x95\xe0\xa4\xbe,psp,m,sg,,o,,'
p2195
ssbsg30
I00
sg31
I00
sg32
Nsg33
Nsg34
I1
sg35
I3
sg36
Nsg37
Nsg38
S'PSP'
p2196
sg40
g2183
sg41
I00
sba(issf_api
Word
p2197
(dp2198
g6
I00
sg7
V\u0915\u092e\u093e\u0902\u0921\u0930
p2199
sg9
(issf_api
FeatureSet
p2200
(dp2201
g12
(dp2202
S'posn'
p2203
S'60'
p2204
sS'name'
p2205
S'\xe0\xa4\x95\xe0\xa4\xae\xe0\xa4\xbe\xe0\xa4\x82\xe0\xa4\xa1\xe0\xa4\xb0'
p2206
sS'af'
p2207
S'\xe0\xa4\x95\xe0\xa4\xae\xe0\xa4\xbe\xe0\xa4\x82\xe0\xa4\xa1\xe0\xa4\xb0,n,m,sg,3,d,0,0'
p2208
sS'drel'
p2209
S'pof__cn:NP3'
p2210
sS'chunktype'
p2211
S'child:NP3'
p2212
sS'cref'
p2213
S'i26%0:t14'
p2214
ssbsg30
I00
sg31
I00
sg32
Nsg33
Nsg34
I2
sg35
I3
sg36
Nsg37
Nsg38
S'NNC'
p2215
sg40
g2200
sg41
I00
sba(issf_api
Word
p2216
(dp2217
g6
I00
sg7
V\u0907\u0928
p2218
sg9
(issf_api
FeatureSet
p2219
(dp2220
g12
(dp2221
S'posn'
p2222
S'70'
p2223
sS'name'
p2224
S'\xe0\xa4\x87\xe0\xa4\xa8'
p2225
sS'af'
p2226
S'\xe0\xa4\x87\xe0\xa4\xa8,unk,,,,,,'
p2227
sS'drel'
p2228
S'pof__cn:NP3'
p2229
sS'chunktype'
p2230
S'child:NP3'
p2231
sS'cref'
p2232
S'i26%0:t14'
p2233
ssbsg30
I00
sg31
I00
sg32
Nsg33
Nsg34
I2
sg35
I3
sg36
Nsg37
Nsg38
S'NNC'
p2234
sg40
g2219
sg41
I00
sba(issf_api
Word
p2235
(dp2236
g6
I00
sg7
V\u091a\u0940\u092b
p2237
sg9
(issf_api
FeatureSet
p2238
(dp2239
g12
(dp2240
S'crefhead'
p2241
S'\xe0\xa4\x9a\xe0\xa5\x80\xe0\xa4\xab:i26'
p2242
sS'posn'
p2243
S'80'
p2244
sS'name'
p2245
S'\xe0\xa4\x9a\xe0\xa5\x80\xe0\xa4\xab'
p2246
sS'af'
p2247
S'\xe0\xa4\x9a\xe0\xa5\x80\xe0\xa4\xab,n,m,sg,3,o,0,0'
p2248
sS'chunkid'
p2249
S'NP3'
p2250
sS'crefmod'
p2251
S'm4:i26'
p2252
sS'chunktype'
p2253
S'head:NP3'
p2254
sS'cref'
p2255
S'i26%1:t14'
p2256
sS'drel'
p2257
S'nmod:NP4'
p2258
ssbsg30
I00
sg31
I00
sg32
Nsg33
Nsg34
I2
sg35
I3
sg36
Nsg37
Nsg38
S'NN'
p2259
sg40
g2238
sg41
I00
sba(issf_api
Word
p2260
(dp2261
g6
I00
sg7
V\u092a\u0930\u0947\u0936
p2262
sg9
(issf_api
FeatureSet
p2263
(dp2264
g12
(dp2265
S'posn'
p2266
S'90'
p2267
sS'name'
p2268
S'\xe0\xa4\xaa\xe0\xa4\xb0\xe0\xa5\x87\xe0\xa4\xb6'
p2269
sS'af'
p2270
S'\xe0\xa4\xaa\xe0\xa4\xb0\xe0\xa5\x87\xe0\xa4\xb6,n,m,sg,3,d,0,0'
p2271
sS'drel'
p2272
S'pof__cn:NP4'
p2273
sS'chunktype'
p2274
S'child:NP4'
p2275
sS'cref'
p2276
S'i27%0:t14'
p2277
ssbsg30
I00
sg31
I00
sg32
Nsg33
Nsg34
I3
sg35
I3
sg36
Nsg37
Nsg38
S'NNPC'
p2278
sg40
g2263
sg41
I00
sba(issf_api
Word
p2279
(dp2280
g6
I00
sg7
V\u092c\u0930\u0941\u0906
p2281
sg9
(issf_api
FeatureSet
p2282
(dp2283
g12
(dp2284
S'crefhead'
p2285
S'\xe0\xa4\xac\xe0\xa4\xb0\xe0\xa5\x81\xe0\xa4\x86:i27'
p2286
sS'posn'
p2287
S'100'
p2288
sS'name'
p2289
S'\xe0\xa4\xac\xe0\xa4\xb0\xe0\xa5\x81\xe0\xa4\x86'
p2290
sS'af'
p2291
S'\xe0\xa4\xac\xe0\xa4\xb0\xe0\xa5\x81\xe0\xa4\x86,n,m,sg,3,o,0_\xe0\xa4\xa8\xe0\xa5\x87,0'
p2292
sS'chunkid'
p2293
S'NP4'
p2294
sS'creftype'
p2295
S'Coreference-NounComplement:i26'
p2296
sS'chunktype'
p2297
S'head:NP4'
p2298
sS'crefchainhead'
p2299
S'i27:t14'
p2300
sS'vpos'
p2301
S'vib_3'
p2302
sS'cref'
p2303
S'i27%1:t14'
p2304
sS'drel'
p2305
S'k1:VGF'
p2306
ssbsg30
I00
sg31
I00
sg32
Nsg33
Nsg34
I3
sg35
I3
sg36
Nsg37
Nsg38
S'NNP'
p2307
sg40
g2282
sg41
I00
sba(issf_api
Word
p2308
(dp2309
g6
I00
sg7
V\u0928\u0947
p2310
sg9
(issf_api
FeatureSet
p2311
(dp2312
g12
(dp2313
S'posn'
p2314
S'110'
p2315
sS'name'
p2316
S'\xe0\xa4\xa8\xe0\xa5\x87'
p2317
sS'drel'
p2318
S'lwg__psp:NP4'
p2319
sS'chunktype'
p2320
S'child:NP4'
p2321
sS'af'
p2322
S'\xe0\xa4\xa8\xe0\xa5\x87,psp,,,,,,'
p2323
ssbsg30
I00
sg31
I00
sg32
Nsg33
Nsg34
I3
sg35
I3
sg36
Nsg37
Nsg38
S'PSP'
p2324
sg40
g2311
sg41
I00
sba(issf_api
Word
p2325
(dp2326
g6
I00
sg7
V\u0939\u093e\u0932
p2327
sg9
(issf_api
FeatureSet
p2328
(dp2329
g12
(dp2330
S'posn'
p2331
S'120'
p2332
sS'name'
p2333
S'\xe0\xa4\xb9\xe0\xa4\xbe\xe0\xa4\xb2'
p2334
sS'af'
p2335
S'\xe0\xa4\xb9\xe0\xa4\xbe\xe0\xa4\xb2,n,m,sg,3,o,0_\xe0\xa4\xae\xe0\xa5\x87\xe0\xa4\x82,0'
p2336
sS'chunkid'
p2337
S'NP5'
p2338
sS'drel'
p2339
S'k7t:VGF'
p2340
sS'vpos'
p2341
S'vib_RP_3'
p2342
sS'chunktype'
p2343
S'head:NP5'
p2344
ssbsg30
I00
sg31
I00
sg32
Nsg33
Nsg34
I4
sg35
I3
sg36
Nsg37
Nsg38
S'NN'
p2345
sg40
g2328
sg41
I00
sba(issf_api
Word
p2346
(dp2347
g6
I00
sg7
V\u0939\u0940
p2348
sg9
(issf_api
FeatureSet
p2349
(dp2350
g12
(dp2351
S'posn'
p2352
S'130'
p2353
sS'name'
p2354
S'\xe0\xa4\xb9\xe0\xa5\x80'
p2355
sS'drel'
p2356
S'lwg__rp:NP5'
p2357
sS'chunktype'
p2358
S'child:NP5'
p2359
sS'af'
p2360
S'\xe0\xa4\xb9\xe0\xa5\x80,avy,,,,,,'
p2361
ssbsg30
I00
sg31
I00
sg32
Nsg33
Nsg34
I4
sg35
I3
sg36
Nsg37
Nsg38
S'RP'
p2362
sg40
g2349
sg41
I00
sba(issf_api
Word
p2363
(dp2364
g6
I00
sg7
V\u092e\u0947\u0902
p2365
sg9
(issf_api
FeatureSet
p2366
(dp2367
g12
(dp2368
S'posn'
p2369
S'140'
p2370
sS'name'
p2371
S'\xe0\xa4\xae\xe0\xa5\x87\xe0\xa4\x82'
p2372
sS'drel'
p2373
S'lwg__psp:NP5'
p2374
sS'chunktype'
p2375
S'child:NP5'
p2376
sS'af'
p2377
S'\xe0\xa4\xae\xe0\xa5\x87\xe0\xa4\x82,psp,,,,,,'
p2378
ssbsg30
I00
sg31
I00
sg32
Nsg33
Nsg34
I4
sg35
I3
sg36
Nsg37
Nsg38
S'PSP'
p2379
sg40
g2366
sg41
I00
sba(issf_api
Word
p2380
(dp2381
g6
I00
sg7
V\u0938\u094d\u0925\u093e\u0928\u0940\u092f
p2382
sg9
(issf_api
FeatureSet
p2383
(dp2384
g12
(dp2385
S'posn'
p2386
S'150'
p2387
sS'name'
p2388
S'\xe0\xa4\xb8\xe0\xa5\x8d\xe0\xa4\xa5\xe0\xa4\xbe\xe0\xa4\xa8\xe0\xa5\x80\xe0\xa4\xaf'
p2389
sS'drel'
p2390
S'nmod__adj:NP6'
p2391
sS'chunktype'
p2392
S'child:NP6'
p2393
sS'af'
p2394
S'\xe0\xa4\xb8\xe0\xa5\x8d\xe0\xa4\xa5\xe0\xa4\xbe\xe0\xa4\xa8\xe0\xa5\x80\xe0\xa4\xaf,adj,any,any,,o,,'
p2395
ssbsg30
I00
sg31
I00
sg32
Nsg33
Nsg34
I5
sg35
I3
sg36
Nsg37
Nsg38
S'JJ'
p2396
sg40
g2383
sg41
I00
sba(issf_api
Word
p2397
(dp2398
g6
I00
sg7
V\u092e\u0940\u0921\u093f\u092f\u093e
p2399
sg9
(issf_api
FeatureSet
p2400
(dp2401
g12
(dp2402
S'posn'
p2403
S'160'
p2404
sS'name'
p2405
S'\xe0\xa4\xae\xe0\xa5\x80\xe0\xa4\xa1\xe0\xa4\xbf\xe0\xa4\xaf\xe0\xa4\xbe'
p2406
sS'af'
p2407
S'\xe0\xa4\xae\xe0\xa5\x80\xe0\xa4\xa1\xe0\xa4\xbf\xe0\xa4\xaf\xe0\xa4\xbe,n,m,sg,3,o,0_\xe0\xa4\xae\xe0\xa5\x87\xe0\xa4\x82,0'
p2408
sS'chunkid'
p2409
S'NP6'
p2410
sS'drel'
p2411
S'k7:VGF'
p2412
sS'vpos'
p2413
S'vib_3'
p2414
sS'chunktype'
p2415
S'head:NP6'
p2416
ssbsg30
I00
sg31
I00
sg32
Nsg33
Nsg34
I5
sg35
I3
sg36
Nsg37
Nsg38
S'NN'
p2417
sg40
g2400
sg41
I00
sba(issf_api
Word
p2418
(dp2419
g6
I00
sg7
V\u092e\u0947\u0902
p2420
sg9
(issf_api
FeatureSet
p2421
(dp2422
g12
(dp2423
S'posn'
p2424
S'170'
p2425
sS'name'
p2426
S'\xe0\xa4\xae\xe0\xa5\x87\xe0\xa4\x822'
p2427
sS'drel'
p2428
S'lwg__psp:NP6'
p2429
sS'chunktype'
p2430
S'child:NP6'
p2431
sS'af'
p2432
S'\xe0\xa4\xae\xe0\xa5\x87\xe0\xa4\x82,psp,,,,,,'
p2433
ssbsg30
I00
sg31
I00
sg32
Nsg33
Nsg34
I5
sg35
I3
sg36
Nsg37
Nsg38
S'PSP'
p2434
sg40
g2421
sg41
I00
sba(issf_api
Word
p2435
(dp2436
g6
I00
sg7
V\u0915\u0939\u093e
p2437
sg9
(issf_api
FeatureSet
p2438
(dp2439
g12
(dp2440
S'posn'
p2441
S'180'
p2442
sS'name'
p2443
S'\xe0\xa4\x95\xe0\xa4\xb9\xe0\xa4\xbe'
p2444
sS'af'
p2445
S'\xe0\xa4\x95\xe0\xa4\xb9,v,m,sg,any,,\xe0\xa4\xaf\xe0\xa4\xbe_\xe0\xa4\xa5\xe0\xa4\xbe,yA'
p2446
sS'chunkid'
p2447
S'VGF'
p2448
sS'chunktype'
p2449
S'head:VGF'
p2450
sS'voicetype'
p2451
S'active'
p2452
sS'vpos'
p2453
S'tam_2'
p2454
sS'stype'
p2455
S'declarative'
p2456
ssbsg30
I00
sg31
I00
sg32
Nsg33
Nsg34
I6
sg35
I3
sg36
Nsg37
Nsg38
S'VM'
p2457
sg40
g2438
sg41
I00
sba(issf_api
Word
p2458
(dp2459
g6
I00
sg7
V\u0925\u093e
p2460
sg9
(issf_api
FeatureSet
p2461
(dp2462
g12
(dp2463
S'posn'
p2464
S'190'
p2465
sS'name'
p2466
S'\xe0\xa4\xa5\xe0\xa4\xbe'
p2467
sS'drel'
p2468
S'lwg__vaux:VGF'
p2469
sS'chunktype'
p2470
S'child:VGF'
p2471
sS'af'
p2472
S'\xe0\xa4\xa5\xe0\xa4\xbe,v,m,sg,any,,\xe0\xa4\xa5\xe0\xa4\xbe,WA'
p2473
ssbsg30
I00
sg31
I00
sg32
Nsg33
Nsg34
I6
sg35
I3
sg36
Nsg37
Nsg38
S'VAUX'
p2474
sg40
g2461
sg41
I00
sba(issf_api
Word
p2475
(dp2476
g6
I00
sg7
V\u0915\u093f
p2477
sg9
(issf_api
FeatureSet
p2478
(dp2479
g12
(dp2480
S'posn'
p2481
S'200'
p2482
sS'name'
p2483
S'\xe0\xa4\x95\xe0\xa4\xbf'
p2484
sS'af'
p2485
S'\xe0\xa4\x95\xe0\xa4\xbf,avy,,,,,,'
p2486
sS'chunkid'
p2487
S'CCP'
p2488
sS'drel'
p2489
S'k2:VGF'
p2490
sS'chunktype'
p2491
S'head:CCP'
p2492
ssbsg30
I00
sg31
I00
sg32
Nsg33
Nsg34
I7
sg35
I3
sg36
Nsg37
Nsg38
S'CC'
p2493
sg40
g2478
sg41
I00
sba(issf_api
Word
p2494
(dp2495
g6
I00
sg7
V\u0909\u0928\u0915\u093e
p2496
sg9
(issf_api
FeatureSet
p2497
(dp2498
g12
(dp2499
S'crefhead'
p2500
S'\xe0\xa4\x89\xe0\xa4\xa8\xe0\xa4\x95\xe0\xa4\xbe:i28'
p2501
sS'posn'
p2502
S'210'
p2503
sS'name'
p2504
S'\xe0\xa4\x89\xe0\xa4\xa8\xe0\xa4\x95\xe0\xa4\xbe'
p2505
sS'af'
p2506
S'\xe0\xa4\xb5\xe0\xa4\xb9,pn,m,sg,3h,o,\xe0\xa4\x95\xe0\xa4\xbe,kA'
p2507
sS'acrefmodhead'
p2508
S'\xe0\xa4\x89\xe0\xa4\xa8\xe0\xa4\x95\xe0\xa4\xbe:m5'
p2509
sS'chunkid'
p2510
S'NP7'
p2511
sS'acrefmod'
p2512
S'm5%1:i29'
p2513
sS'creftype'
p2514
S'Anaphora-C:i27'
p2515
sS'chunktype'
p2516
S'head:NP7'
p2517
sS'cref'
p2518
S'i28%1:t14'
p2519
sS'drel'
p2520
S'r6:NP8'
p2521
ssbsg30
I00
sg31
I00
sg32
Nsg33
Nsg34
I8
sg35
I3
sg36
Nsg37
Nsg38
S'PRP'
p2522
sg40
g2497
sg41
I00
sba(issf_api
Word
p2523
(dp2524
g6
I00
sg7
V\u0938\u0902\u0917\u0920\u0928
p2525
sg9
(issf_api
FeatureSet
p2526
(dp2527
g12
(dp2528
S'crefhead'
p2529
S'\xe0\xa4\xb8\xe0\xa4\x82\xe0\xa4\x97\xe0\xa4\xa0\xe0\xa4\xa8:i29'
p2530
sS'posn'
p2531
S'220'
p2532
sS'name'
p2533
S'\xe0\xa4\xb8\xe0\xa4\x82\xe0\xa4\x97\xe0\xa4\xa0\xe0\xa4\xa8'
p2534
sS'af'
p2535
S'\xe0\xa4\xb8\xe0\xa4\x82\xe0\xa4\x97\xe0\xa4\xa0\xe0\xa4\xa8,n,m,sg,3,d,0,0'
p2536
sS'chunkid'
p2537
S'NP8'
p2538
sS'crefmod'
p2539
S'm5:i29'
p2540
sS'creftype'
p2541
S'Coreference-Noun-Noun:i25'
p2542
sS'chunktype'
p2543
S'head:NP8'
p2544
sS'cref'
p2545
S'i29%1:t5'
p2546
sS'drel'
p2547
S'k1:VGF2'
p2548
ssbsg30
I00
sg31
I00
sg32
Nsg33
Nsg34
I9
sg35
I3
sg36
Nsg37
Nsg38
S'NN'
p2549
sg40
g2526
sg41
I00
sba(issf_api
Word
p2550
(dp2551
g6
I00
sg7
V\u0967\u096c
p2552
sg9
(issf_api
FeatureSet
p2553
(dp2554
g12
(dp2555
S'posn'
p2556
S'230'
p2557
sS'name'
p2558
S'\xe0\xa5\xa7\xe0\xa5\xac'
p2559
sS'af'
p2560
S'\xe0\xa5\xa7\xe0\xa5\xac,num,any,any,,any,,'
p2561
sS'acrefmod'
p2562
S'm6%0:i31'
p2563
sS'drel'
p2564
S'nmod__adj:NP9'
p2565
sS'chunktype'
p2566
S'child:NP9'
p2567
sS'cref'
p2568
S'i30%0:t6'
p2569
ssbsg30
I00
sg31
I00
sg32
Nsg33
Nsg34
I10
sg35
I3
sg36
Nsg37
Nsg38
S'QC'
p2570
sg40
g2553
sg41
I00
sba(issf_api
Word
p2571
(dp2572
g6
I00
sg7
V\u0938\u0926\u0938\u094d\u092f\u0940\u092f
p2573
sg9
(issf_api
FeatureSet
p2574
(dp2575
g12
(dp2576
S'posn'
p2577
S'240'
p2578
sS'name'
p2579
S'\xe0\xa4\xb8\xe0\xa4\xa6\xe0\xa4\xb8\xe0\xa5\x8d\xe0\xa4\xaf\xe0\xa5\x80\xe0\xa4\xaf'
p2580
sS'af'
p2581
S'\xe0\xa4\xb8\xe0\xa4\xa6\xe0\xa4\xb8\xe0\xa5\x8d\xe0\xa4\xaf\xe0\xa5\x80\xe0\xa4\xaf,adj,any,any,,o,,'
p2582
sS'acrefmod'
p2583
S'm6%0:i31'
p2584
sS'drel'
p2585
S'nmod__adj:NP9'
p2586
sS'chunktype'
p2587
S'child:NP9'
p2588
sS'cref'
p2589
S'i30%0:t6'
p2590
ssbsg30
I00
sg31
I00
sg32
Nsg33
Nsg34
I10
sg35
I3
sg36
Nsg37
Nsg38
S'JJ'
p2591
sg40
g2574
sg41
I00
sba(issf_api
Word
p2592
(dp2593
g6
I00
sg7
V\u0915\u0947\u0902\u0926\u094d\u0930\u0940\u092f
p2594
sg9
(issf_api
FeatureSet
p2595
(dp2596
g12
(dp2597
S'posn'
p2598
S'150'
p2599
sS'name'
p2600
S'\xe0\xa4\x95\xe0\xa5\x87\xe0\xa4\x82\xe0\xa4\xa6\xe0\xa5\x8d\xe0\xa4\xb0\xe0\xa5\x80\xe0\xa4\xaf'
p2601
sS'af'
p2602
S'\xe0\xa4\x95\xe0\xa5\x87\xe0\xa4\x82\xe0\xa4\xa6\xe0\xa5\x8d\xe0\xa4\xb0\xe0\xa5\x80\xe0\xa4\xaf,adj,any,any,,o,,'
p2603
sS'acrefmod'
p2604
S'm6%0:i31'
p2605
sS'drel'
p2606
S'pof__cn:NP9'
p2607
sS'chunktype'
p2608
S'child:NP9'
p2609
sS'cref'
p2610
S'i30%0:t6'
p2611
ssbsg30
I00
sg31
I00
sg32
Nsg33
Nsg34
I10
sg35
I3
sg36
Nsg37
Nsg38
S'NNPC'
p2612
sg40
g2595
sg41
I00
sba(issf_api
Word
p2613
(dp2614
g6
I00
sg7
V\u0915\u093e\u0930\u094d\u092f\u0915\u093e\u0930\u093f\u0923\u0940
p2615
sg9
(issf_api
FeatureSet
p2616
(dp2617
g12
(dp2618
S'crefhead'
p2619
S'\xe0\xa4\x95\xe0\xa4\xbe\xe0\xa4\xb0\xe0\xa5\x8d\xe0\xa4\xaf\xe0\xa4\x95\xe0\xa4\xbe\xe0\xa4\xb0\xe0\xa4\xbf\xe0\xa4\xa3\xe0\xa5\x80:i30'
p2620
sS'posn'
p2621
S'260'
p2622
sS'name'
p2623
S'\xe0\xa4\x95\xe0\xa4\xbe\xe0\xa4\xb0\xe0\xa5\x8d\xe0\xa4\xaf\xe0\xa4\x95\xe0\xa4\xbe\xe0\xa4\xb0\xe0\xa4\xbf\xe0\xa4\xa3\xe0\xa5\x80'
p2624
sS'af'
p2625
S'\xe0\xa4\x95\xe0\xa4\xbe\xe0\xa4\xb0\xe0\xa5\x8d\xe0\xa4\xaf\xe0\xa4\x95\xe0\xa4\xbe\xe0\xa4\xb0\xe0\xa4\xbf\xe0\xa4\xa3\xe0\xa5\x80,n,f,sg,3,d,0,0'
p2626
sS'acrefmod'
p2627
S'm6%0:i31'
p2628
sS'creftype'
p2629
S'Coreference-Identity:i23'
p2630
sS'chunktype'
p2631
S'child:NP9'
p2632
sS'cref'
p2633
S'i30%1:t6'
p2634
sS'drel'
p2635
S'pof__cn:NP9'
p2636
ssbsg30
I00
sg31
I00
sg32
Nsg33
Nsg34
I10
sg35
I3
sg36
Nsg37
Nsg38
S'NNPC'
p2637
sg40
g2616
sg41
I00
sba(issf_api
Word
p2638
(dp2639
g6
I00
sg7
V\u092a\u0930\u093f\u0937\u0926
p2640
sg9
(issf_api
FeatureSet
p2641
(dp2642
g12
(dp2643
S'posn'
p2644
S'270'
p2645
sS'name'
p2646
S'\xe0\xa4\xaa\xe0\xa4\xb0\xe0\xa4\xbf\xe0\xa4\xb7\xe0\xa4\xa6'
p2647
sS'af'
p2648
S'\xe0\xa4\xaa\xe0\xa4\xb0\xe0\xa4\xbf\xe0\xa4\xb7\xe0\xa4\xa6,n,f,sg,3,o,0_\xe0\xa4\x95\xe0\xa4\xbe,0'
p2649
sS'acrefmodhead'
p2650
S'\xe0\xa4\xaa\xe0\xa4\xb0\xe0\xa4\xbf\xe0\xa4\xb7\xe0\xa4\xa6:m6'
p2651
sS'chunkid'
p2652
S'NP9'
p2653
sS'acrefmod'
p2654
S'm6%1:i31'
p2655
sS'drel'
p2656
S'r6:NP10'
p2657
sS'vpos'
p2658
S'vib_6'
p2659
sS'chunktype'
p2660
S'head:NP9'
p2661
ssbsg30
I00
sg31
I00
sg32
Nsg33
Nsg34
I10
sg35
I3
sg36
Nsg37
Nsg38
S'NNP'
p2662
sg40
g2641
sg41
I00
sba(issf_api
Word
p2663
(dp2664
g6
I00
sg7
V\u0915\u0947
p2665
sg9
(issf_api
FeatureSet
p2666
(dp2667
g12
(dp2668
S'posn'
p2669
S'280'
p2670
sS'name'
p2671
S'\xe0\xa4\x95\xe0\xa5\x872'
p2672
sS'drel'
p2673
S'lwg__psp:NP9'
p2674
sS'chunktype'
p2675
S'child:NP9'
p2676
sS'af'
p2677
S'\xe0\xa4\x95\xe0\xa4\xbe,psp,m,sg,,o,,'
p2678
ssbsg30
I00
sg31
I00
sg32
Nsg33
Nsg34
I10
sg35
I3
sg36
Nsg37
Nsg38
S'PSP'
p2679
sg40
g2666
sg41
I00
sba(issf_api
Word
p2680
(dp2681
g6
I00
sg7
V\u091c\u0947\u0932
p2682
sg9
(issf_api
FeatureSet
p2683
(dp2684
g12
(dp2685
S'crefhead'
p2686
S'\xe0\xa4\x9c\xe0\xa5\x87\xe0\xa4\xb2:i32'
p2687
sS'posn'
p2688
S'290'
p2689
sS'name'
p2690
S'\xe0\xa4\x9c\xe0\xa5\x87\xe0\xa4\xb2'
p2691
sS'af'
p2692
S'\xe0\xa4\x9c\xe0\xa5\x87\xe0\xa4\xb2,n,m,sg,3,o,0_\xe0\xa4\xae\xe0\xa5\x87\xe0\xa4\x82,0'
p2693
sS'chunkid'
p2694
S'NP10'
p2695
sS'creftype'
p2696
S'Coreference-Identity:i5'
p2697
sS'chunktype'
p2698
S'head:NP10'
p2699
sS'vpos'
p2700
S'vib_2'
p2701
sS'cref'
p2702
S'i32%1:t4'
p2703
sS'drel'
p2704
S'jjmod:JJP'
p2705
ssbsg30
I00
sg31
I00
sg32
Nsg33
Nsg34
I11
sg35
I3
sg36
Nsg37
Nsg38
S'NN'
p2706
sg40
g2683
sg41
I00
sba(issf_api
Word
p2707
(dp2708
g6
I00
sg7
V\u092e\u0947\u0902
p2709
sg9
(issf_api
FeatureSet
p2710
(dp2711
g12
(dp2712
S'posn'
p2713
S'300'
p2714
sS'name'
p2715
S'\xe0\xa4\xae\xe0\xa5\x87\xe0\xa4\x823'
p2716
sS'drel'
p2717
S'lwg__psp:NP10'
p2718
sS'chunktype'
p2719
S'child:NP10'
p2720
sS'af'
p2721
S'\xe0\xa4\xae\xe0\xa5\x87\xe0\xa4\x82,psp,,,,,,'
p2722
ssbsg30
I00
sg31
I00
sg32
Nsg33
Nsg34
I11
sg35
I3
sg36
Nsg37
Nsg38
S'PSP'
p2723
sg40
g2710
sg41
I00
sba(issf_api
Word
p2724
(dp2725
g6
I00
sg7
V\u092c\u0902\u0926
p2726
sg9
(issf_api
FeatureSet
p2727
(dp2728
g12
(dp2729
S'posn'
p2730
S'310'
p2731
sS'name'
p2732
S'\xe0\xa4\xac\xe0\xa4\x82\xe0\xa4\xa6'
p2733
sS'af'
p2734
S'\xe0\xa4\xac\xe0\xa4\x82\xe0\xa4\xa6,adj,any,any,,o,,'
p2735
sS'chunkid'
p2736
S'JJP'
p2737
sS'drel'
p2738
S'nmod:NP11'
p2739
sS'chunktype'
p2740
S'head:JJP'
p2741
ssbsg30
I00
sg31
I00
sg32
Nsg33
Nsg34
I12
sg35
I3
sg36
Nsg37
Nsg38
S'JJ'
p2742
sg40
g2727
sg41
I00
sba(issf_api
Word
p2743
(dp2744
g6
I00
sg7
V\u0967\u0966
p2745
sg9
(issf_api
FeatureSet
p2746
(dp2747
g12
(dp2748
S'posn'
p2749
S'320'
p2750
sS'name'
p2751
S'\xe0\xa5\xa7\xe0\xa5\xa6'
p2752
sS'af'
p2753
S'\xe0\xa5\xa7\xe0\xa5\xa6,num,any,any,,any,,'
p2754
sS'drel'
p2755
S'nmod__adj:NP11'
p2756
sS'chunktype'
p2757
S'child:NP11'
p2758
sS'cref'
p2759
S'i31%0:t7'
p2760
ssbsg30
I00
sg31
I00
sg32
Nsg33
Nsg34
I13
sg35
I3
sg36
Nsg37
Nsg38
S'QC'
p2761
sg40
g2746
sg41
I00
sba(issf_api
Word
p2762
(dp2763
g6
I00
sg7
V\u0938\u0926\u0938\u094d\u092f\u094b\u0902
p2764
sg9
(issf_api
FeatureSet
p2765
(dp2766
g12
(dp2767
S'crefhead'
p2768
S'\xe0\xa4\xb8\xe0\xa4\xa6\xe0\xa4\xb8\xe0\xa5\x8d\xe0\xa4\xaf\xe0\xa5\x8b\xe0\xa4\x82:i31'
p2769
sS'posn'
p2770
S'330'
p2771
sS'name'
p2772
S'\xe0\xa4\xb8\xe0\xa4\xa6\xe0\xa4\xb8\xe0\xa5\x8d\xe0\xa4\xaf\xe0\xa5\x8b\xe0\xa4\x82'
p2773
sS'af'
p2774
S'\xe0\xa4\xb8\xe0\xa4\xa6\xe0\xa4\xb8\xe0\xa5\x8d\xe0\xa4\xaf,n,m,pl,3,o,0_\xe0\xa4\x95\xe0\xa4\xbe,0'
p2775
sS'chunkid'
p2776
S'NP11'
p2777
sS'crefmod'
p2778
S'm6:i31'
p2779
sS'creftype'
p2780
S'Coreference-Identity:i24'
p2781
sS'chunktype'
p2782
S'head:NP11'
p2783
sS'vpos'
p2784
S'vib_3'
p2785
sS'cref'
p2786
S'i31%1:t7'
p2787
sS'drel'
p2788
S'r6-k2:NP12'
p2789
ssbsg30
I00
sg31
I00
sg32
Nsg33
Nsg34
I13
sg35
I3
sg36
Nsg37
Nsg38
S'NN'
p2790
sg40
g2765
sg41
I00
sba(issf_api
Word
p2791
(dp2792
g6
I00
sg7
V\u0915\u0940
p2793
sg9
(issf_api
FeatureSet
p2794
(dp2795
g12
(dp2796
S'posn'
p2797
S'340'
p2798
sS'name'
p2799
S'\xe0\xa4\x95\xe0\xa5\x80'
p2800
sS'drel'
p2801
S'lwg__psp:NP11'
p2802
sS'chunktype'
p2803
S'child:NP11'
p2804
sS'af'
p2805
S'\xe0\xa4\x95\xe0\xa4\xbe,psp,f,sg,,d,,'
p2806
ssbsg30
I00
sg31
I00
sg32
Nsg33
Nsg34
I13
sg35
I3
sg36
Nsg37
Nsg38
S'PSP'
p2807
sg40
g2794
sg41
I00
sba(issf_api
Word
p2808
(dp2809
g6
I00
sg7
V\u0930\u093f\u0939\u093e\u0908
p2810
sg9
(issf_api
FeatureSet
p2811
(dp2812
g12
(dp2813
S'posn'
p2814
S'350'
p2815
sS'name'
p2816
S'\xe0\xa4\xb0\xe0\xa4\xbf\xe0\xa4\xb9\xe0\xa4\xbe\xe0\xa4\x88'
p2817
sS'af'
p2818
S'\xe0\xa4\xb0\xe0\xa4\xbf\xe0\xa4\xb9\xe0\xa4\xbe\xe0\xa4\x88,n,f,sg,3,d,0,0'
p2819
sS'chunkid'
p2820
S'NP12'
p2821
sS'drel'
p2822
S'pof:VGF2'
p2823
sS'chunktype'
p2824
S'head:NP12'
p2825
ssbsg30
I00
sg31
I00
sg32
Nsg33
Nsg34
I14
sg35
I3
sg36
Nsg37
Nsg38
S'NN'
p2826
sg40
g2811
sg41
I00
sba(issf_api
Word
p2827
(dp2828
g6
I00
sg7
V\u091a\u093e\u0939\u0924\u093e
p2829
sg9
(issf_api
FeatureSet
p2830
(dp2831
g12
(dp2832
S'posn'
p2833
S'360'
p2834
sS'name'
p2835
S'\xe0\xa4\x9a\xe0\xa4\xbe\xe0\xa4\xb9\xe0\xa4\xa4\xe0\xa4\xbe'
p2836
sS'af'
p2837
S'\xe0\xa4\x9a\xe0\xa4\xbe\xe0\xa4\xb9,v,m,sg,3,,\xe0\xa4\xa4\xe0\xa4\xbe_\xe0\xa4\xb9\xe0\xa5\x88,wA'
p2838
sS'chunkid'
p2839
S'VGF2'
p2840
sS'stype'
p2841
S'declarative'
p2842
sS'drel'
p2843
S'ccof:CCP'
p2844
sS'voicetype'
p2845
S'active'
p2846
sS'vpos'
p2847
S'tam_2'
p2848
sS'chunktype'
p2849
S'head:VGF2'
p2850
ssbsg30
I00
sg31
I00
sg32
Nsg33
Nsg34
I15
sg35
I3
sg36
Nsg37
Nsg38
S'VM'
p2851
sg40
g2830
sg41
I00
sba(issf_api
Word
p2852
(dp2853
g6
I00
sg7
V\u0939\u0948
p2854
sg9
(issf_api
FeatureSet
p2855
(dp2856
g12
(dp2857
S'posn'
p2858
S'370'
p2859
sS'name'
p2860
S'\xe0\xa4\xb9\xe0\xa5\x88'
p2861
sS'drel'
p2862
S'lwg__vaux:VGF2'
p2863
sS'chunktype'
p2864
S'child:VGF2'
p2865
sS'af'
p2866
S'\xe0\xa4\xb9\xe0\xa5\x88,v,any,sg,3,,\xe0\xa4\xb9\xe0\xa5\x88,hE'
p2867
ssbsg30
I00
sg31
I00
sg32
Nsg33
Nsg34
I15
sg35
I3
sg36
Nsg37
Nsg38
S'VAUX'
p2868
sg40
g2855
sg41
I00
sba(issf_api
Word
p2869
(dp2870
g6
I00
sg7
V,
p2871
sg9
(issf_api
FeatureSet
p2872
(dp2873
g12
(dp2874
S'posn'
p2875
S'380'
p2876
sS'name'
p2877
S',2'
p2878
sS'drel'
p2879
S'rsym:VGF2'
p2880
sS'chunktype'
p2881
S'child:VGF2'
p2882
sS'af'
p2883
S'COMMA,punc,,,,,,'
p2884
ssbsg30
I00
sg31
I00
sg32
Nsg33
Nsg34
I15
sg35
I3
sg36
Nsg37
Nsg38
S'SYM'
p2885
sg40
g2872
sg41
I00
sba(issf_api
Word
p2886
(dp2887
g6
I00
sg7
V\u0924\u093e\u0915\u093f
p2888
sg9
(issf_api
FeatureSet
p2889
(dp2890
g12
(dp2891
S'posn'
p2892
S'390'
p2893
sS'name'
p2894
S'\xe0\xa4\xa4\xe0\xa4\xbe\xe0\xa4\x95\xe0\xa4\xbf'
p2895
sS'af'
p2896
S'\xe0\xa4\xa4\xe0\xa4\xbe\xe0\xa4\x95\xe0\xa4\xbf,avy,,,,,,'
p2897
sS'chunkid'
p2898
S'CCP2'
p2899
sS'drel'
p2900
S'vmod:VGF2'
p2901
sS'chunktype'
p2902
S'head:CCP2'
p2903
ssbsg30
I00
sg31
I00
sg32
Nsg33
Nsg34
I16
sg35
I3
sg36
Nsg37
Nsg38
S'CC'
p2904
sg40
g2889
sg41
I00
sba(issf_api
Word
p2905
(dp2906
g6
I00
sg7
V\u0915\u0947\u0902\u0926\u094d\u0930
p2907
sg9
(issf_api
FeatureSet
p2908
(dp2909
g12
(dp2910
S'crefhead'
p2911
S'\xe0\xa4\x95\xe0\xa5\x87\xe0\xa4\x82\xe0\xa4\xa6\xe0\xa5\x8d\xe0\xa4\xb0:i33'
p2912
sS'posn'
p2913
S'400'
p2914
sS'name'
p2915
S'\xe0\xa4\x95\xe0\xa5\x87\xe0\xa4\x82\xe0\xa4\xa6\xe0\xa5\x8d\xe0\xa4\xb0'
p2916
sS'af'
p2917
S'\xe0\xa4\x95\xe0\xa5\x87\xe0\xa4\x82\xe0\xa4\xa6\xe0\xa5\x8d\xe0\xa4\xb0,n,m,sg,3,o,0_\xe0\xa4\x95\xe0\xa4\xbe,0'
p2918
sS'chunkid'
p2919
S'NP13'
p2920
sS'creftype'
p2921
S'Coreference-Identity:i11'
p2922
sS'chunktype'
p2923
S'head:NP13'
p2924
sS'vpos'
p2925
S'vib_2'
p2926
sS'cref'
p2927
S'i33%1:t9'
p2928
sS'drel'
p2929
S'r6:NP14'
p2930
ssbsg30
I00
sg31
I00
sg32
Nsg33
Nsg34
I17
sg35
I3
sg36
Nsg37
Nsg38
S'NNP'
p2931
sg40
g2908
sg41
I00
sba(issf_api
Word
p2932
(dp2933
g6
I00
sg7
V\u0915\u0947
p2934
sg9
(issf_api
FeatureSet
p2935
(dp2936
g12
(dp2937
S'posn'
p2938
S'410'
p2939
sS'name'
p2940
S'\xe0\xa4\x95\xe0\xa5\x873'
p2941
sS'drel'
p2942
S'lwg__psp:NP13'
p2943
sS'chunktype'
p2944
S'child:NP13'
p2945
sS'af'
p2946
S'\xe0\xa4\x95\xe0\xa4\xbe,psp,m,sg,,o,,'
p2947
ssbsg30
I00
sg31
I00
sg32
Nsg33
Nsg34
I17
sg35
I3
sg36
Nsg37
Nsg38
S'PSP'
p2948
sg40
g2935
sg41
I00
sba(issf_api
Word
p2949
(dp2950
g6
I00
sg7
V\u0939\u093e\u0932
p2951
sg9
(issf_api
FeatureSet
p2952
(dp2953
g12
(dp2954
S'posn'
p2955
S'420'
p2956
sS'name'
p2957
S'\xe0\xa4\xb9\xe0\xa4\xbe\xe0\xa4\xb22'
p2958
sS'af'
p2959
S'\xe0\xa4\xb9\xe0\xa4\xbe\xe0\xa4\xb2,n,m,sg,3,o,0_\xe0\xa4\x95\xe0\xa4\xbe,0'
p2960
sS'chunkid'
p2961
S'NP14'
p2962
sS'drel'
p2963
S'r6:NP15'
p2964
sS'vpos'
p2965
S'vib_2'
p2966
sS'chunktype'
p2967
S'head:NP14'
p2968
ssbsg30
I00
sg31
I00
sg32
Nsg33
Nsg34
I18
sg35
I3
sg36
Nsg37
Nsg38
S'NN'
p2969
sg40
g2952
sg41
I00
sba(issf_api
Word
p2970
(dp2971
g6
I00
sg7
V\u0915\u0947
p2972
sg9
(issf_api
FeatureSet
p2973
(dp2974
g12
(dp2975
S'posn'
p2976
S'430'
p2977
sS'name'
p2978
S'\xe0\xa4\x95\xe0\xa5\x874'
p2979
sS'drel'
p2980
S'lwg__psp:NP14'
p2981
sS'chunktype'
p2982
S'child:NP14'
p2983
sS'af'
p2984
S'\xe0\xa4\x95\xe0\xa4\xbe,psp,m,sg,,o,,'
p2985
ssbsg30
I00
sg31
I00
sg32
Nsg33
Nsg34
I18
sg35
I3
sg36
Nsg37
Nsg38
S'PSP'
p2986
sg40
g2973
sg41
I00
sba(issf_api
Word
p2987
(dp2988
g6
I00
sg7
V\u0935\u093e\u0930\u094d\u0924\u093e
p2989
sg9
(issf_api
FeatureSet
p2990
(dp2991
g12
(dp2992
S'crefhead'
p2993
S'\xe0\xa4\xb5\xe0\xa4\xbe\xe0\xa4\xb0\xe0\xa5\x8d\xe0\xa4\xa4\xe0\xa4\xbe:i34'
p2994
sS'posn'
p2995
S'440'
p2996
sS'name'
p2997
S'\xe0\xa4\xb5\xe0\xa4\xbe\xe0\xa4\xb0\xe0\xa5\x8d\xe0\xa4\xa4\xe0\xa4\xbe'
p2998
sS'af'
p2999
S'\xe0\xa4\xb5\xe0\xa4\xbe\xe0\xa4\xb0\xe0\xa5\x8d\xe0\xa4\xa4\xe0\xa4\xbe,n,f,sg,3,o,0_\xe0\xa4\x95\xe0\xa4\xbe,0'
p3000
sS'acrefmodhead'
p3001
S'\xe0\xa4\xb5\xe0\xa4\xbe\xe0\xa4\xb0\xe0\xa5\x8d\xe0\xa4\xa4\xe0\xa4\xbe:m7'
p3002
sS'chunkid'
p3003
S'NP15'
p3004
sS'acrefmod'
p3005
S'm7%1:i35'
p3006
sS'creftype'
p3007
S'Coreference-Identity:i20'
p3008
sS'chunktype'
p3009
S'head:NP15'
p3010
sS'vpos'
p3011
S'vib_2'
p3012
sS'cref'
p3013
S'i34%1:t3'
p3014
sS'drel'
p3015
S'r6:NP16'
p3016
ssbsg30
I00
sg31
I00
sg32
Nsg33
Nsg34
I19
sg35
I3
sg36
Nsg37
Nsg38
S'NN'
p3017
sg40
g2990
sg41
I00
sba(issf_api
Word
p3018
(dp3019
g6
I00
sg7
V\u0915\u0947
p3020
sg9
(issf_api
FeatureSet
p3021
(dp3022
g12
(dp3023
S'posn'
p3024
S'450'
p3025
sS'name'
p3026
S'\xe0\xa4\x95\xe0\xa5\x875'
p3027
sS'drel'
p3028
S'lwg__psp:NP15'
p3029
sS'chunktype'
p3030
S'child:NP15'
p3031
sS'af'
p3032
S'\xe0\xa4\x95\xe0\xa4\xbe,psp,m,sg,,o,,'
p3033
ssbsg30
I00
sg31
I00
sg32
Nsg33
Nsg34
I19
sg35
I3
sg36
Nsg37
Nsg38
S'PSP'
p3034
sg40
g3021
sg41
I00
sba(issf_api
Word
p3035
(dp3036
g6
I00
sg7
V\u0928\u093f\u092e\u0902\u0924\u094d\u0930\u0923
p3037
sg9
(issf_api
FeatureSet
p3038
(dp3039
g12
(dp3040
S'crefhead'
p3041
S'\xe0\xa4\xa8\xe0\xa4\xbf\xe0\xa4\xae\xe0\xa4\x82\xe0\xa4\xa4\xe0\xa5\x8d\xe0\xa4\xb0\xe0\xa4\xa3:i35'
p3042
sS'posn'
p3043
S'460'
p3044
sS'name'
p3045
S'\xe0\xa4\xa8\xe0\xa4\xbf\xe0\xa4\xae\xe0\xa4\x82\xe0\xa4\xa4\xe0\xa5\x8d\xe0\xa4\xb0\xe0\xa4\xa3'
p3046
sS'af'
p3047
S'\xe0\xa4\xa8\xe0\xa4\xbf\xe0\xa4\xae\xe0\xa4\x82\xe0\xa4\xa4\xe0\xa5\x8d\xe0\xa4\xb0\xe0\xa4\xa3,n,m,sg,3,o,0_\xe0\xa4\xaa\xe0\xa4\xb0,0'
p3048
sS'chunkid'
p3049
S'NP16'
p3050
sS'crefmod'
p3051
S'm7:i35'
p3052
sS'creftype'
p3053
S'Coreference-Identity:i21'
p3054
sS'chunktype'
p3055
S'head:NP16'
p3056
sS'vpos'
p3057
S'vib_2'
p3058
sS'cref'
p3059
S'i35%1:t13'
p3060
sS'drel'
p3061
S'k7:VGF3'
p3062
ssbsg30
I00
sg31
I00
sg32
Nsg33
Nsg34
I20
sg35
I3
sg36
Nsg37
Nsg38
S'NN'
p3063
sg40
g3038
sg41
I00
sba(issf_api
Word
p3064
(dp3065
g6
I00
sg7
V\u092a\u0930
p3066
sg9
(issf_api
FeatureSet
p3067
(dp3068
g12
(dp3069
S'posn'
p3070
S'470'
p3071
sS'name'
p3072
S'\xe0\xa4\xaa\xe0\xa4\xb0'
p3073
sS'drel'
p3074
S'lwg__psp:NP16'
p3075
sS'chunktype'
p3076
S'child:NP16'
p3077
sS'af'
p3078
S'\xe0\xa4\xaa\xe0\xa4\xb0,psp,,,,,,'
p3079
ssbsg30
I00
sg31
I00
sg32
Nsg33
Nsg34
I20
sg35
I3
sg36
Nsg37
Nsg38
S'PSP'
p3080
sg40
g3067
sg41
I00
sba(issf_api
Word
p3081
(dp3082
g6
I00
sg7
V\u0935\u093f\u091a\u093e\u0930
p3083
sg9
(issf_api
FeatureSet
p3084
(dp3085
g12
(dp3086
S'posn'
p3087
S'480'
p3088
sS'name'
p3089
S'\xe0\xa4\xb5\xe0\xa4\xbf\xe0\xa4\x9a\xe0\xa4\xbe\xe0\xa4\xb0'
p3090
sS'drel'
p3091
S'pof__cn:NP17'
p3092
sS'chunktype'
p3093
S'child:NP17'
p3094
sS'af'
p3095
S'\xe0\xa4\xb5\xe0\xa4\xbf\xe0\xa4\x9a\xe0\xa4\xbe\xe0\xa4\xb0,n,m,sg,3,d,0,0'
p3096
ssbsg30
I00
sg31
I00
sg32
Nsg33
Nsg34
I21
sg35
I3
sg36
Nsg37
Nsg38
S'NNC'
p3097
sg40
g3084
sg41
I00
sba(issf_api
Word
p3098
(dp3099
g6
I00
sg7
V-
p3100
sg9
(issf_api
FeatureSet
p3101
(dp3102
g12
(dp3103
S'posn'
p3104
S'490'
p3105
sS'name'
p3106
S'-'
p3107
sS'drel'
p3108
S'pof__cn:NP17'
p3109
sS'chunktype'
p3110
S'child:NP17'
p3111
sS'af'
p3112
S'-,punc,,,,,,'
p3113
ssbsg30
I00
sg31
I00
sg32
Nsg33
Nsg34
I21
sg35
I3
sg36
Nsg37
Nsg38
S'SYM'
p3114
sg40
g3101
sg41
I00
sba(issf_api
Word
p3115
(dp3116
g6
I00
sg7
V\u0935\u093f\u092e\u0930\u094d\u0936
p3117
sg9
(issf_api
FeatureSet
p3118
(dp3119
g12
(dp3120
S'posn'
p3121
S'500'
p3122
sS'name'
p3123
S'\xe0\xa4\xb5\xe0\xa4\xbf\xe0\xa4\xae\xe0\xa4\xb0\xe0\xa5\x8d\xe0\xa4\xb6'
p3124
sS'af'
p3125
S'\xe0\xa4\xb5\xe0\xa4\xbf\xe0\xa4\xae\xe0\xa4\xb0\xe0\xa5\x8d\xe0\xa4\xb6,n,m,sg,3,d,0,0'
p3126
sS'chunkid'
p3127
S'NP17'
p3128
sS'drel'
p3129
S'pof:VGF3'
p3130
sS'chunktype'
p3131
S'head:NP17'
p3132
ssbsg30
I00
sg31
I00
sg32
Nsg33
Nsg34
I21
sg35
I3
sg36
Nsg37
Nsg38
S'NN'
p3133
sg40
g3118
sg41
I00
sba(issf_api
Word
p3134
(dp3135
g6
I00
sg7
V\u0915\u093f\u092f\u093e
p3136
sg9
(issf_api
FeatureSet
p3137
(dp3138
g12
(dp3139
S'posn'
p3140
S'510'
p3141
sS'name'
p3142
S'\xe0\xa4\x95\xe0\xa4\xbf\xe0\xa4\xaf\xe0\xa4\xbe'
p3143
sS'af'
p3144
S'\xe0\xa4\x95\xe0\xa4\xb0,v,any,sg,3,,\xe0\xa4\xaf\xe0\xa4\xbe_\xe0\xa4\x9c\xe0\xa4\xbe_\xe0\xa4\xb8\xe0\xa4\x95+\xe0\xa4\x8f\xe0\xa4\x82,yA'
p3145
sS'chunkid'
p3146
S'VGF3'
p3147
sS'stype'
p3148
S'declarative'
p3149
sS'drel'
p3150
S'ccof:CCP2'
p3151
sS'voicetype'
p3152
S'passive'
p3153
sS'vpos'
p3154
S'tam_2_3'
p3155
sS'chunktype'
p3156
S'head:VGF3'
p3157
ssbsg30
I00
sg31
I00
sg32
Nsg33
Nsg34
I22
sg35
I3
sg36
Nsg37
Nsg38
S'VM'
p3158
sg40
g3137
sg41
I00
sba(issf_api
Word
p3159
(dp3160
g6
I00
sg7
V\u091c\u093e
p3161
sg9
(issf_api
FeatureSet
p3162
(dp3163
g12
(dp3164
S'posn'
p3165
S'520'
p3166
sS'name'
p3167
S'\xe0\xa4\x9c\xe0\xa4\xbe'
p3168
sS'drel'
p3169
S'lwg__vaux:VGF3'
p3170
sS'chunktype'
p3171
S'child:VGF3'
p3172
sS'af'
p3173
S'\xe0\xa4\x9c\xe0\xa4\xbe,v,any,any,any,,0,0'
p3174
ssbsg30
I00
sg31
I00
sg32
Nsg33
Nsg34
I22
sg35
I3
sg36
Nsg37
Nsg38
S'VAUX'
p3175
sg40
g3162
sg41
I00
sba(issf_api
Word
p3176
(dp3177
g6
I00
sg7
V\u0938\u0915\u0947
p3178
sg9
(issf_api
FeatureSet
p3179
(dp3180
g12
(dp3181
S'posn'
p3182
S'530'
p3183
sS'name'
p3184
S'\xe0\xa4\xb8\xe0\xa4\x95\xe0\xa5\x87'
p3185
sS'drel'
p3186
S'lwg__vaux:VGF3'
p3187
sS'chunktype'
p3188
S'child:VGF3'
p3189
sS'af'
p3190
S'\xe0\xa4\xb8\xe0\xa4\x95,v,any,sg,3,,\xe0\xa4\x8f\xe0\xa4\x82,eM'
p3191
ssbsg30
I00
sg31
I00
sg32
Nsg33
Nsg34
I22
sg35
I3
sg36
Nsg37
Nsg38
S'VAUX'
p3192
sg40
g3179
sg41
I00
sba(issf_api
Word
p3193
(dp3194
g6
I00
sg7
V\u0964
p3195
sg9
(issf_api
FeatureSet
p3196
(dp3197
g12
(dp3198
S'posn'
p3199
S'540'
p3200
sS'name'
p3201
S'\xe0\xa5\xa4'
p3202
sS'af'
p3203
S'\xe0\xa5\xa4,punc,,,,,,'
p3204
sS'chunkid'
p3205
S'BLK'
p3206
sS'drel'
p3207
S'rsym:VGF'
p3208
sS'chunktype'
p3209
S'head:BLK'
p3210
ssbsg30
I00
sg31
I00
sg32
Nsg33
Nsg34
I23
sg35
I3
sg36
Nsg37
Nsg38
S'SYM'
p3211
sg40
g3196
sg41
I00
sbasS'sentenceList'
p3212
(lp3213
(issf_api
Sentence
p3214
(dp3215
S'rootNode'
p3216
(lp3217
sg35
I0
sS'wordNumList'
p3218
(lp3219
I0
aI1
aI2
aI3
aI4
aI5
aI6
aI7
aI8
aI9
aI10
aI11
aI12
aI13
aI14
aI15
aI16
aI17
aI18
aI19
aI20
aI21
aI22
aI23
aI24
aI25
aI26
asS'nodeDict'
p3220
(dp3221
S'VGF2'
p3222
(issf_api
Node
p3223
(dp3224
S'nodeRelation'
p3225
S'ccof'
p3226
sS'nodeName'
p3227
g3222
sS'nodeParent'
p3228
S'CCP'
p3229
sS'nodeLevel'
p3230
I-1
sg34
I13
sS'childList'
p3231
(lp3232
S'VGNN'
p3233
aS'JJP3'
p3234
aS'NP2'
p3235
asbsg3233
(issf_api
Node
p3236
(dp3237
g3225
S'rt'
p3238
sg3227
g3233
sg3228
S'VGF2'
p3239
sg3230
I-1
sg34
I11
sg3231
(lp3240
S'JJP2'
p3241
aS'NP4'
p3242
aS'NP7'
p3243
asbsS'VGF'
p3244
(issf_api
Node
p3245
(dp3246
g3225
S'None'
p3247
sg3227
g3244
sg3228
g3247
sg3230
I-1
sg34
I1
sg3231
(lp3248
S'CCP'
p3249
aS'BLK'
p3250
aS'NP'
p3251
asbsg3249
(issf_api
Node
p3252
(dp3253
g3225
S'k2'
p3254
sg3227
g3249
sg3228
S'VGF'
p3255
sg3230
I-1
sg34
I2
sg3231
(lp3256
g3222
asbsS'JJP'
p3257
(issf_api
Node
p3258
(dp3259
g3225
S'nmod'
p3260
sg3227
g3257
sg3228
S'NP7'
p3261
sg3230
I-1
sg34
I7
sg3231
(lp3262
S'NP5'
p3263
asbsg3263
(issf_api
Node
p3264
(dp3265
g3225
S'jjmod'
p3266
sg3227
g3263
sg3228
S'JJP'
p3267
sg3230
I-1
sg34
I6
sg3231
(lp3268
sbsg3241
(issf_api
Node
p3269
(dp3270
g3225
S'pof'
p3271
sg3227
g3241
sg3228
S'VGNN'
p3272
sg3230
I-1
sg34
I10
sg3231
(lp3273
sbsg3234
(issf_api
Node
p3274
(dp3275
g3225
S'k1s'
p3276
sg3227
g3234
sg3228
S'VGF2'
p3277
sg3230
I-1
sg34
I12
sg3231
(lp3278
sbsg3250
(issf_api
Node
p3279
(dp3280
g3225
S'rsym'
p3281
sg3227
g3250
sg3228
S'VGF'
p3282
sg3230
I-1
sg34
I14
sg3231
(lp3283
sbsg3251
(issf_api
Node
p3284
(dp3285
g3225
S'k1'
p3286
sg3227
g3251
sg3228
S'VGF'
p3287
sg3230
I-1
sg34
I0
sg3231
(lp3288
sbsg3242
(issf_api
Node
p3289
(dp3290
g3225
S'k7'
p3291
sg3227
g3242
sg3228
S'VGNN'
p3292
sg3230
I-1
sg34
I5
sg3231
(lp3293
S'NP3'
p3294
asbsg3243
(issf_api
Node
p3295
(dp3296
g3225
S'k2'
p3297
sg3227
g3243
sg3228
S'VGNN'
p3298
sg3230
I-1
sg34
I9
sg3231
(lp3299
g3257
aS'NP6'
p3300
asbsg3300
(issf_api
Node
p3301
(dp3302
g3225
S'r6'
p3303
sg3227
g3300
sg3228
S'NP7'
p3304
sg3230
I-1
sg34
I8
sg3231
(lp3305
sbsg3294
(issf_api
Node
p3306
(dp3307
g3225
S'r6'
p3308
sg3227
g3294
sg3228
S'NP4'
p3309
sg3230
I-1
sg34
I4
sg3231
(lp3310
sbsg3235
(issf_api
Node
p3311
(dp3312
g3225
S'k1'
p3313
sg3227
g3235
sg3228
S'VGF2'
p3314
sg3230
I-1
sg34
I3
sg3231
(lp3315
sbssS'chunkList'
p3316
(lp3317
(issf_api
Chunk
p3318
(dp3319
g3227
g57
sg34
I0
sS'chunkTag'
p3320
g68
sg35
I0
sg3218
(lp3321
I0
aI1
aI2
asg40
(issf_api
FeatureSet
p3322
(dp3323
g12
(dp3324
S'name'
p3325
g3251
sS'drel'
p3326
S'k1:VGF'
p3327
ssbsba(issf_api
Chunk
p3328
(dp3329
g3227
g99
sg34
I1
sg3320
g106
sg35
I0
sg3218
(lp3330
I3
asg40
(issf_api
FeatureSet
p3331
(dp3332
g12
(dp3333
S'name'
p3334
g3244
ssbsba(issf_api
Chunk
p3335
(dp3336
g3227
g120
sg34
I2
sg3320
g125
sg35
I0
sg3218
(lp3337
I4
asg40
(issf_api
FeatureSet
p3338
(dp3339
g12
(dp3340
S'name'
p3341
g3249
sS'drel'
p3342
S'k2:VGF'
p3343
ssbsba(issf_api
Chunk
p3344
(dp3345
g3227
g141
sg34
I3
sg3320
g150
sg35
I0
sg3218
(lp3346
I5
asg40
(issf_api
FeatureSet
p3347
(dp3348
g12
(dp3349
S'name'
p3350
g3235
sS'drel'
p3351
S'k1:VGF2'
p3352
ssbsba(issf_api
Chunk
p3353
(dp3354
g3227
g204
sg34
I4
sg3320
g215
sg35
I0
sg3218
(lp3355
I6
aI7
aI8
aI9
asg40
(issf_api
FeatureSet
p3356
(dp3357
g12
(dp3358
S'name'
p3359
g3294
sS'drel'
p3360
S'r6:NP4'
p3361
ssbsba(issf_api
Chunk
p3362
(dp3363
g3227
g246
sg34
I5
sg3320
g253
sg35
I0
sg3218
(lp3364
I10
aI11
asg40
(issf_api
FeatureSet
p3365
(dp3366
g12
(dp3367
S'name'
p3368
g3242
sS'drel'
p3369
S'k7:VGNN'
p3370
ssbsba(issf_api
Chunk
p3371
(dp3372
g3227
g286
sg34
I6
sg3320
g297
sg35
I0
sg3218
(lp3373
I12
aI13
asg40
(issf_api
FeatureSet
p3374
(dp3375
g12
(dp3376
S'name'
p3377
g3263
sS'drel'
p3378
S'jjmod:JJP'
p3379
ssbsba(issf_api
Chunk
p3380
(dp3381
g3227
g328
sg34
I7
sg3320
g333
sg35
I0
sg3218
(lp3382
I14
asg40
(issf_api
FeatureSet
p3383
(dp3384
g12
(dp3385
S'name'
p3386
g3257
sS'drel'
p3387
S'nmod:NP7'
p3388
ssbsba(issf_api
Chunk
p3389
(dp3390
g3227
g397
sg34
I8
sg3320
g410
sg35
I0
sg3218
(lp3391
I15
aI16
aI17
aI18
asg40
(issf_api
FeatureSet
p3392
(dp3393
g12
(dp3394
S'name'
p3395
g3300
sS'drel'
p3396
S'r6:NP7'
p3397
ssbsba(issf_api
Chunk
p3398
(dp3399
g3227
g443
sg34
I9
sg3320
g456
sg35
I0
sg3218
(lp3400
I19
aI20
asg40
(issf_api
FeatureSet
p3401
(dp3402
g12
(dp3403
S'name'
p3404
g3243
sS'drel'
p3405
S'k2:VGNN'
p3406
ssbsba(issf_api
Chunk
p3407
(dp3408
g3227
g487
sg34
I10
sg3320
g492
sg35
I0
sg3218
(lp3409
I21
asg40
(issf_api
FeatureSet
p3410
(dp3411
g12
(dp3412
S'name'
p3413
g3241
sS'drel'
p3414
S'pof:VGNN'
p3415
ssbsba(issf_api
Chunk
p3416
(dp3417
g3227
g506
sg34
I11
sg3320
g513
sg35
I0
sg3218
(lp3418
I22
aI23
asg40
(issf_api
FeatureSet
p3419
(dp3420
g12
(dp3421
S'name'
p3422
g3233
sS'drel'
p3423
S'rt:VGF2'
p3424
ssbsba(issf_api
Chunk
p3425
(dp3426
g3227
g544
sg34
I12
sg3320
g549
sg35
I0
sg3218
(lp3427
I24
asg40
(issf_api
FeatureSet
p3428
(dp3429
g12
(dp3430
S'name'
p3431
g3234
sS'drel'
p3432
S'k1s:VGF2'
p3433
ssbsba(issf_api
Chunk
p3434
(dp3435
g3227
g563
sg34
I13
sg3320
g572
sg35
I0
sg3218
(lp3436
I25
asg40
(issf_api
FeatureSet
p3437
(dp3438
g12
(dp3439
S'name'
p3440
g3222
sS'drel'
p3441
S'ccof:CCP'
p3442
ssbsba(issf_api
Chunk
p3443
(dp3444
g3227
g586
sg34
I14
sg3320
g591
sg35
I0
sg3218
(lp3445
I26
asg40
(issf_api
FeatureSet
p3446
(dp3447
g12
(dp3448
S'name'
p3449
g3250
sS'drel'
p3450
S'rsym:VGF'
p3451
ssbsbasba(issf_api
Sentence
p3452
(dp3453
g3216
(lp3454
sg35
I1
sg3218
(lp3455
I27
aI28
aI29
aI30
aI31
aI32
aI33
aI34
aI35
aI36
aI37
aI38
aI39
aI40
aI41
aI42
aI43
aI44
aI45
aI46
aI47
aI48
aI49
aI50
asg3220
(dp3456
S'VGNN'
p3457
(issf_api
Node
p3458
(dp3459
g3225
S'r6'
p3460
sg3227
g3457
sg3228
S'NP5'
p3461
sg3230
I-1
sg34
I6
sg3231
(lp3462
S'JJP'
p3463
aS'NP4'
p3464
asbsS'VGF'
p3465
(issf_api
Node
p3466
(dp3467
g3225
g3247
sg3227
g3465
sg3228
g3247
sg3230
I-1
sg34
I11
sg3231
(lp3468
S'CCP'
p3469
aS'VGNN2'
p3470
aS'JJP2'
p3471
aS'BLK'
p3472
aS'NP'
p3473
asbsg3469
(issf_api
Node
p3474
(dp3475
g3225
S'rd'
p3476
sg3227
g3469
sg3228
S'VGF'
p3477
sg3230
I-1
sg34
I2
sg3231
(lp3478
S'NP3'
p3479
aS'NP2'
p3480
asbsg3463
(issf_api
Node
p3481
(dp3482
g3225
S'pof'
p3483
sg3227
g3463
sg3228
S'VGNN'
p3484
sg3230
I-1
sg34
I5
sg3231
(lp3485
sbsg3470
(issf_api
Node
p3486
(dp3487
g3225
S'rt'
p3488
sg3227
g3470
sg3228
S'VGF'
p3489
sg3230
I-1
sg34
I9
sg3231
(lp3490
S'NP5'
p3491
aS'NP6'
p3492
asbsg3491
(issf_api
Node
p3493
(dp3494
g3225
S'k7'
p3495
sg3227
g3491
sg3228
S'VGNN2'
p3496
sg3230
I-1
sg34
I7
sg3231
(lp3497
g3457
asbsg3471
(issf_api
Node
p3498
(dp3499
g3225
S'pof'
p3500
sg3227
g3471
sg3228
S'VGF'
p3501
sg3230
I-1
sg34
I10
sg3231
(lp3502
sbsg3472
(issf_api
Node
p3503
(dp3504
g3225
S'rsym'
p3505
sg3227
g3472
sg3228
S'VGF'
p3506
sg3230
I-1
sg34
I12
sg3231
(lp3507
sbsg3473
(issf_api
Node
p3508
(dp3509
g3225
S'sent-adv'
p3510
sg3227
g3473
sg3228
S'VGF'
p3511
sg3230
I-1
sg34
I0
sg3231
(lp3512
sbsg3464
(issf_api
Node
p3513
(dp3514
g3225
S'k2'
p3515
sg3227
g3464
sg3228
S'VGNN'
p3516
sg3230
I-1
sg34
I4
sg3231
(lp3517
sbsg3492
(issf_api
Node
p3518
(dp3519
g3225
S'pof'
p3520
sg3227
g3492
sg3228
S'VGNN2'
p3521
sg3230
I-1
sg34
I8
sg3231
(lp3522
sbsg3479
(issf_api
Node
p3523
(dp3524
g3225
S'ccof'
p3525
sg3227
g3479
sg3228
S'CCP'
p3526
sg3230
I-1
sg34
I3
sg3231
(lp3527
sbsg3480
(issf_api
Node
p3528
(dp3529
g3225
S'ccof'
p3530
sg3227
g3480
sg3228
S'CCP'
p3531
sg3230
I-1
sg34
I1
sg3231
(lp3532
sbssg3316
(lp3533
(issf_api
Chunk
p3534
(dp3535
g3227
g607
sg34
I0
sg3320
g620
sg35
I1
sg3218
(lp3536
I27
aI28
aI29
asg40
(issf_api
FeatureSet
p3537
(dp3538
g12
(dp3539
S'name'
p3540
g3473
sS'drel'
p3541
S'sent-adv:VGF'
p3542
ssbsba(issf_api
Chunk
p3543
(dp3544
g3227
g670
sg34
I1
sg3320
g679
sg35
I1
sg3218
(lp3545
I30
asg40
(issf_api
FeatureSet
p3546
(dp3547
g12
(dp3548
S'name'
p3549
g3480
sS'drel'
p3550
S'ccof:CCP'
p3551
ssbsba(issf_api
Chunk
p3552
(dp3553
g3227
g693
sg34
I2
sg3320
g698
sg35
I1
sg3218
(lp3554
I31
asg40
(issf_api
FeatureSet
p3555
(dp3556
g12
(dp3557
S'name'
p3558
g3469
sS'drel'
p3559
S'rd:VGF'
p3560
ssbsba(issf_api
Chunk
p3561
(dp3562
g3227
g733
sg34
I3
sg3320
g744
sg35
I1
sg3218
(lp3563
I32
aI33
aI34
aI35
aI36
asg40
(issf_api
FeatureSet
p3564
(dp3565
g12
(dp3566
S'name'
p3567
g3479
sS'drel'
p3568
S'ccof:CCP'
p3569
ssbsba(issf_api
Chunk
p3570
(dp3571
g3227
g811
sg34
I4
sg3320
g820
sg35
I1
sg3218
(lp3572
I37
asg40
(issf_api
FeatureSet
p3573
(dp3574
g12
(dp3575
S'name'
p3576
g3464
sS'drel'
p3577
S'k2:VGNN'
p3578
ssbsba(issf_api
Chunk
p3579
(dp3580
g3227
g834
sg34
I5
sg3320
g839
sg35
I1
sg3218
(lp3581
I38
asg40
(issf_api
FeatureSet
p3582
(dp3583
g12
(dp3584
S'name'
p3585
g3463
sS'drel'
p3586
S'pof:VGNN'
p3587
ssbsba(issf_api
Chunk
p3588
(dp3589
g3227
g853
sg34
I6
sg3320
g860
sg35
I1
sg3218
(lp3590
I39
aI40
asg40
(issf_api
FeatureSet
p3591
(dp3592
g12
(dp3593
S'name'
p3594
g3457
sS'drel'
p3595
S'r6:NP5'
p3596
ssbsba(issf_api
Chunk
p3597
(dp3598
g3227
g933
sg34
I7
sg3320
g940
sg35
I1
sg3218
(lp3599
I41
aI42
aI43
aI44
asg40
(issf_api
FeatureSet
p3600
(dp3601
g12
(dp3602
S'name'
p3603
g3491
sS'drel'
p3604
S'k7:VGNN2'
p3605
ssbsba(issf_api
Chunk
p3606
(dp3607
g3227
g971
sg34
I8
sg3320
g976
sg35
I1
sg3218
(lp3608
I45
asg40
(issf_api
FeatureSet
p3609
(dp3610
g12
(dp3611
S'name'
p3612
g3492
sS'drel'
p3613
S'pof:VGNN2'
p3614
ssbsba(issf_api
Chunk
p3615
(dp3616
g3227
g990
sg34
I9
sg3320
g997
sg35
I1
sg3218
(lp3617
I46
aI47
asg40
(issf_api
FeatureSet
p3618
(dp3619
g12
(dp3620
S'name'
p3621
g3470
sS'drel'
p3622
S'rt:VGF'
p3623
ssbsba(issf_api
Chunk
p3624
(dp3625
g3227
g1028
sg34
I10
sg3320
g1033
sg35
I1
sg3218
(lp3626
I48
asg40
(issf_api
FeatureSet
p3627
(dp3628
g12
(dp3629
S'name'
p3630
g3471
sS'drel'
p3631
S'pof:VGF'
p3632
ssbsba(issf_api
Chunk
p3633
(dp3634
g3227
g1047
sg34
I11
sg3320
g1054
sg35
I1
sg3218
(lp3635
I49
asg40
(issf_api
FeatureSet
p3636
(dp3637
g12
(dp3638
S'name'
p3639
g3465
ssbsba(issf_api
Chunk
p3640
(dp3641
g3227
g1068
sg34
I12
sg3320
g1073
sg35
I1
sg3218
(lp3642
I50
asg40
(issf_api
FeatureSet
p3643
(dp3644
g12
(dp3645
S'name'
p3646
g3472
sS'drel'
p3647
S'rsym:VGF'
p3648
ssbsbasba(issf_api
Sentence
p3649
(dp3650
g3216
(lp3651
sg35
I2
sg3218
(lp3652
I51
aI52
aI53
aI54
aI55
aI56
aI57
aI58
aI59
aI60
aI61
aI62
aI63
aI64
aI65
aI66
aI67
aI68
aI69
aI70
aI71
aI72
aI73
aI74
aI75
aI76
aI77
aI78
aI79
aI80
aI81
aI82
aI83
aI84
aI85
aI86
aI87
aI88
aI89
aI90
aI91
aI92
aI93
aI94
aI95
aI96
aI97
aI98
aI99
aI100
asg3220
(dp3653
S'CCP'
p3654
(issf_api
Node
p3655
(dp3656
g3225
S'k2'
p3657
sg3227
g3654
sg3228
S'VGF'
p3658
sg3230
I-1
sg34
I7
sg3231
(lp3659
S'VGF2'
p3660
asbsg3660
(issf_api
Node
p3661
(dp3662
g3225
S'ccof'
p3663
sg3227
g3660
sg3228
S'CCP'
p3664
sg3230
I-1
sg34
I25
sg3231
(lp3665
S'VGNN3'
p3666
aS'NP8'
p3667
aS'JJP3'
p3668
asbsS'VGNN2'
p3669
(issf_api
Node
p3670
(dp3671
g3225
S'rt'
p3672
sg3227
g3669
sg3228
S'VGNN3'
p3673
sg3230
I-1
sg34
I20
sg3231
(lp3674
S'NP15'
p3675
aS'VGNN'
p3676
aS'JJP'
p3677
asbsg3666
(issf_api
Node
p3678
(dp3679
g3225
S'rt'
p3680
sg3227
g3666
sg3228
S'VGF2'
p3681
sg3230
I-1
sg34
I23
sg3231
(lp3682
g3669
aS'NP16'
p3683
aS'JJP2'
p3684
asbsS'NP9'
p3685
(issf_api
Node
p3686
(dp3687
g3225
S'rt'
p3688
sg3227
g3685
sg3228
S'VGNF'
p3689
sg3230
I-1
sg34
I10
sg3231
(lp3690
sbsg3667
(issf_api
Node
p3691
(dp3692
g3225
S'k1'
p3693
sg3227
g3667
sg3228
S'VGF2'
p3694
sg3230
I-1
sg34
I9
sg3231
(lp3695
S'NP7'
p3696
asbsS'NP5'
p3697
(issf_api
Node
p3698
(dp3699
g3225
S'k7p'
p3700
sg3227
g3697
sg3228
S'VGF'
p3701
sg3230
I-1
sg34
I4
sg3231
(lp3702
sbsS'NP4'
p3703
(issf_api
Node
p3704
(dp3705
g3225
S'k7t'
p3706
sg3227
g3703
sg3228
S'VGF'
p3707
sg3230
I-1
sg34
I3
sg3231
(lp3708
sbsg3696
(issf_api
Node
p3709
(dp3710
g3225
S'nmod'
p3711
sg3227
g3696
sg3228
S'NP8'
p3712
sg3230
I-1
sg34
I8
sg3231
(lp3713
sbsS'NP6'
p3714
(issf_api
Node
p3715
(dp3716
g3225
S'k4'
p3717
sg3227
g3714
sg3228
S'VGF'
p3718
sg3230
I-1
sg34
I5
sg3231
(lp3719
sbsS'NP3'
p3720
(issf_api
Node
p3721
(dp3722
g3225
S'k1'
p3723
sg3227
g3720
sg3228
S'VGF'
p3724
sg3230
I-1
sg34
I2
sg3231
(lp3725
S'NP2'
p3726
asbsg3726
(issf_api
Node
p3727
(dp3728
g3225
S'nmod'
p3729
sg3227
g3726
sg3228
S'NP3'
p3730
sg3230
I-1
sg34
I1
sg3231
(lp3731
S'NP'
p3732
asbsS'NP11'
p3733
(issf_api
Node
p3734
(dp3735
g3225
S'k7t'
p3736
sg3227
g3733
sg3228
S'VGNF'
p3737
sg3230
I-1
sg34
I12
sg3231
(lp3738
sbsS'NP10'
p3739
(issf_api
Node
p3740
(dp3741
g3225
S'k1'
p3742
sg3227
g3739
sg3228
S'VGNF'
p3743
sg3230
I-1
sg34
I11
sg3231
(lp3744
sbsS'NP13'
p3745
(issf_api
Node
p3746
(dp3747
g3225
S'pof'
p3748
sg3227
g3745
sg3228
S'VGNN'
p3749
sg3230
I-1
sg34
I15
sg3231
(lp3750
sbsS'NP12'
p3751
(issf_api
Node
p3752
(dp3753
g3225
S'k7'
p3754
sg3227
g3751
sg3228
S'VGNN'
p3755
sg3230
I-1
sg34
I14
sg3231
(lp3756
S'VGNF'
p3757
asbsg3675
(issf_api
Node
p3758
(dp3759
g3225
S'k7'
p3760
sg3227
g3675
sg3228
S'VGNN2'
p3761
sg3230
I-1
sg34
I18
sg3231
(lp3762
S'NP14'
p3763
asbsg3763
(issf_api
Node
p3764
(dp3765
g3225
S'r6'
p3766
sg3227
g3763
sg3228
S'NP15'
p3767
sg3230
I-1
sg34
I17
sg3231
(lp3768
sbsg3683
(issf_api
Node
p3769
(dp3770
g3225
S'k2'
p3771
sg3227
g3683
sg3228
S'VGNN3'
p3772
sg3230
I-1
sg34
I21
sg3231
(lp3773
sbsg3732
(issf_api
Node
p3774
(dp3775
g3225
S'r6'
p3776
sg3227
g3732
sg3228
S'NP2'
p3777
sg3230
I-1
sg34
I0
sg3231
(lp3778
sbsg3757
(issf_api
Node
p3779
(dp3780
g3225
S'nmod__k2inv'
p3781
sg3227
g3757
sg3228
S'NP12'
p3782
sg3230
I-1
sg34
I13
sg3231
(lp3783
g3685
ag3733
ag3739
asbsg3676
(issf_api
Node
p3784
(dp3785
g3225
S'rt'
p3786
sg3227
g3676
sg3228
S'VGNN2'
p3787
sg3230
I-1
sg34
I16
sg3231
(lp3788
g3745
ag3751
asbsS'VGF'
p3789
(issf_api
Node
p3790
(dp3791
g3225
g3247
sg3227
g3789
sg3228
g3247
sg3230
I-1
sg34
I6
sg3231
(lp3792
g3654
ag3697
ag3703
ag3714
ag3720
aS'BLK'
p3793
asbsg3793
(issf_api
Node
p3794
(dp3795
g3225
S'rsym'
p3796
sg3227
g3793
sg3228
S'VGF'
p3797
sg3230
I-1
sg34
I26
sg3231
(lp3798
sbsg3677
(issf_api
Node
p3799
(dp3800
g3225
S'pof'
p3801
sg3227
g3677
sg3228
S'VGNN2'
p3802
sg3230
I-1
sg34
I19
sg3231
(lp3803
sbsg3684
(issf_api
Node
p3804
(dp3805
g3225
S'pof'
p3806
sg3227
g3684
sg3228
S'VGNN3'
p3807
sg3230
I-1
sg34
I22
sg3231
(lp3808
sbsg3668
(issf_api
Node
p3809
(dp3810
g3225
S'k1s'
p3811
sg3227
g3668
sg3228
S'VGF2'
p3812
sg3230
I-1
sg34
I24
sg3231
(lp3813
sbssg3316
(lp3814
(issf_api
Chunk
p3815
(dp3816
g3227
g1091
sg34
I0
sg3320
g1104
sg35
I2
sg3218
(lp3817
I51
aI52
asg40
(issf_api
FeatureSet
p3818
(dp3819
g12
(dp3820
S'name'
p3821
g3732
sS'drel'
p3822
S'r6:NP2'
p3823
ssbsba(issf_api
Chunk
p3824
(dp3825
g3227
g1137
sg34
I1
sg3320
g1146
sg35
I2
sg3218
(lp3826
I53
asg40
(issf_api
FeatureSet
p3827
(dp3828
g12
(dp3829
S'name'
p3830
g3726
sS'drel'
p3831
S'nmod:NP3'
p3832
ssbsba(issf_api
Chunk
p3833
(dp3834
g3227
g1181
sg34
I2
sg3320
g1194
sg35
I2
sg3218
(lp3835
I54
aI55
aI56
asg40
(issf_api
FeatureSet
p3836
(dp3837
g12
(dp3838
S'name'
p3839
g3720
sS'drel'
p3840
S'k1:VGF'
p3841
ssbsba(issf_api
Chunk
p3842
(dp3843
g3227
g1225
sg34
I3
sg3320
g1232
sg35
I2
sg3218
(lp3844
I57
aI58
asg40
(issf_api
FeatureSet
p3845
(dp3846
g12
(dp3847
S'name'
p3848
g3703
sS'drel'
p3849
S'k7t:VGF'
p3850
ssbsba(issf_api
Chunk
p3851
(dp3852
g3227
g1265
sg34
I4
sg3320
g1276
sg35
I2
sg3218
(lp3853
I59
asg40
(issf_api
FeatureSet
p3854
(dp3855
g12
(dp3856
S'name'
p3857
g3697
sS'drel'
p3858
S'k7p:VGF'
p3859
ssbsba(issf_api
Chunk
p3860
(dp3861
g3227
g1290
sg34
I5
sg3320
g1297
sg35
I2
sg3218
(lp3862
I60
aI61
asg40
(issf_api
FeatureSet
p3863
(dp3864
g12
(dp3865
S'name'
p3866
g3714
sS'drel'
p3867
S'k4:VGF'
p3868
ssbsba(issf_api
Chunk
p3869
(dp3870
g3227
g1328
sg34
I6
sg3320
g1335
sg35
I2
sg3218
(lp3871
I62
asg40
(issf_api
FeatureSet
p3872
(dp3873
g12
(dp3874
S'name'
p3875
g3789
ssbsba(issf_api
Chunk
p3876
(dp3877
g3227
g1349
sg34
I7
sg3320
g1354
sg35
I2
sg3218
(lp3878
I63
asg40
(issf_api
FeatureSet
p3879
(dp3880
g12
(dp3881
S'name'
p3882
g3654
sS'drel'
p3883
S'k2:VGF'
p3884
ssbsba(issf_api
Chunk
p3885
(dp3886
g3227
g1372
sg34
I8
sg3320
g1383
sg35
I2
sg3218
(lp3887
I64
asg40
(issf_api
FeatureSet
p3888
(dp3889
g12
(dp3890
S'name'
p3891
g3696
sS'drel'
p3892
S'nmod:NP8'
p3893
ssbsba(issf_api
Chunk
p3894
(dp3895
g3227
g1399
sg34
I9
sg3320
g1410
sg35
I2
sg3218
(lp3896
I65
asg40
(issf_api
FeatureSet
p3897
(dp3898
g12
(dp3899
S'name'
p3900
g3667
sS'drel'
p3901
S'k1:VGF2'
p3902
ssbsba(issf_api
Chunk
p3903
(dp3904
g3227
g1426
sg34
I10
sg3320
g1437
sg35
I2
sg3218
(lp3905
I66
aI67
aI68
asg40
(issf_api
FeatureSet
p3906
(dp3907
g12
(dp3908
S'name'
p3909
g3685
sS'drel'
p3910
S'rt:VGNF'
p3911
ssbsba(issf_api
Chunk
p3912
(dp3913
g3227
g1502
sg34
I11
sg3320
g1509
sg35
I2
sg3218
(lp3914
I69
aI70
aI71
aI72
aI73
asg40
(issf_api
FeatureSet
p3915
(dp3916
g12
(dp3917
S'name'
p3918
g3739
sS'drel'
p3919
S'k1:VGNF'
p3920
ssbsba(issf_api
Chunk
p3921
(dp3922
g3227
g1574
sg34
I12
sg3320
g1581
sg35
I2
sg3218
(lp3923
I74
aI75
asg40
(issf_api
FeatureSet
p3924
(dp3925
g12
(dp3926
S'name'
p3927
g3733
sS'drel'
p3928
S'k7t:VGNF'
p3929
ssbsba(issf_api
Chunk
p3930
(dp3931
g3227
g1612
sg34
I13
sg3320
g1617
sg35
I2
sg3218
(lp3932
I76
asg40
(issf_api
FeatureSet
p3933
(dp3934
g12
(dp3935
S'name'
p3936
g3757
sS'drel'
p3937
S'nmod__k2inv:NP12'
p3938
ssbsba(issf_api
Chunk
p3939
(dp3940
g3227
g1633
sg34
I14
sg3320
g1644
sg35
I2
sg3218
(lp3941
I77
aI78
asg40
(issf_api
FeatureSet
p3942
(dp3943
g12
(dp3944
S'name'
p3945
g3751
sS'drel'
p3946
S'k7:VGNN'
p3947
ssbsba(issf_api
Chunk
p3948
(dp3949
g3227
g1675
sg34
I15
sg3320
g1680
sg35
I2
sg3218
(lp3950
I79
asg40
(issf_api
FeatureSet
p3951
(dp3952
g12
(dp3953
S'name'
p3954
g3745
sS'drel'
p3955
S'pof:VGNN'
p3956
ssbsba(issf_api
Chunk
p3957
(dp3958
g3227
g1694
sg34
I16
sg3320
g1701
sg35
I2
sg3218
(lp3959
I80
aI81
aI82
asg40
(issf_api
FeatureSet
p3960
(dp3961
g12
(dp3962
S'name'
p3963
g3676
sS'drel'
p3964
S'rt:VGNN2'
p3965
ssbsba(issf_api
Chunk
p3966
(dp3967
g3227
g1751
sg34
I17
sg3320
g1762
sg35
I2
sg3218
(lp3968
I83
aI84
asg40
(issf_api
FeatureSet
p3969
(dp3970
g12
(dp3971
S'name'
p3972
g3763
sS'drel'
p3973
S'r6:NP15'
p3974
ssbsba(issf_api
Chunk
p3975
(dp3976
g3227
g1835
sg34
I18
sg3320
g1842
sg35
I2
sg3218
(lp3977
I85
aI86
aI87
aI88
asg40
(issf_api
FeatureSet
p3978
(dp3979
g12
(dp3980
S'name'
p3981
g3675
sS'drel'
p3982
S'k7:VGNN2'
p3983
ssbsba(issf_api
Chunk
p3984
(dp3985
g3227
g1873
sg34
I19
sg3320
g1878
sg35
I2
sg3218
(lp3986
I89
asg40
(issf_api
FeatureSet
p3987
(dp3988
g12
(dp3989
S'name'
p3990
g3677
sS'drel'
p3991
S'pof:VGNN2'
p3992
ssbsba(issf_api
Chunk
p3993
(dp3994
g3227
g1892
sg34
I20
sg3320
g1899
sg35
I2
sg3218
(lp3995
I90
aI91
aI92
asg40
(issf_api
FeatureSet
p3996
(dp3997
g12
(dp3998
S'name'
p3999
g3669
sS'drel'
p4000
S'rt:VGNN3'
p4001
ssbsba(issf_api
Chunk
p4002
(dp4003
g3227
g1949
sg34
I21
sg3320
g1960
sg35
I2
sg3218
(lp4004
I93
aI94
asg40
(issf_api
FeatureSet
p4005
(dp4006
g12
(dp4007
S'name'
p4008
g3683
sS'drel'
p4009
S'k2:VGNN3'
p4010
ssbsba(issf_api
Chunk
p4011
(dp4012
g3227
g1991
sg34
I22
sg3320
g1996
sg35
I2
sg3218
(lp4013
I95
asg40
(issf_api
FeatureSet
p4014
(dp4015
g12
(dp4016
S'name'
p4017
g3684
sS'drel'
p4018
S'pof:VGNN3'
p4019
ssbsba(issf_api
Chunk
p4020
(dp4021
g3227
g2010
sg34
I23
sg3320
g2017
sg35
I2
sg3218
(lp4022
I96
aI97
asg40
(issf_api
FeatureSet
p4023
(dp4024
g12
(dp4025
S'name'
p4026
g3666
sS'drel'
p4027
S'rt:VGF2'
p4028
ssbsba(issf_api
Chunk
p4029
(dp4030
g3227
g2048
sg34
I24
sg3320
g2053
sg35
I2
sg3218
(lp4031
I98
asg40
(issf_api
FeatureSet
p4032
(dp4033
g12
(dp4034
S'name'
p4035
g3668
sS'drel'
p4036
S'k1s:VGF2'
p4037
ssbsba(issf_api
Chunk
p4038
(dp4039
g3227
g2067
sg34
I25
sg3320
g2076
sg35
I2
sg3218
(lp4040
I99
asg40
(issf_api
FeatureSet
p4041
(dp4042
g12
(dp4043
S'name'
p4044
g3660
sS'drel'
p4045
S'ccof:CCP'
p4046
ssbsba(issf_api
Chunk
p4047
(dp4048
g3227
g2090
sg34
I26
sg3320
g2095
sg35
I2
sg3218
(lp4049
I100
asg40
(issf_api
FeatureSet
p4050
(dp4051
g12
(dp4052
S'name'
p4053
g3793
sS'drel'
p4054
S'rsym:VGF'
p4055
ssbsbasba(issf_api
Sentence
p4056
(dp4057
g3216
(lp4058
sg35
I3
sg3218
(lp4059
I101
aI102
aI103
aI104
aI105
aI106
aI107
aI108
aI109
aI110
aI111
aI112
aI113
aI114
aI115
aI116
aI117
aI118
aI119
aI120
aI121
aI122
aI123
aI124
aI125
aI126
aI127
aI128
aI129
aI130
aI131
aI132
aI133
aI134
aI135
aI136
aI137
aI138
aI139
aI140
aI141
aI142
aI143
aI144
aI145
aI146
aI147
aI148
aI149
aI150
aI151
aI152
aI153
aI154
asg3220
(dp4060
S'VGF3'
p4061
(issf_api
Node
p4062
(dp4063
g3225
S'ccof'
p4064
sg3227
g4061
sg3228
S'CCP2'
p4065
sg3230
I-1
sg34
I22
sg3231
(lp4066
S'NP17'
p4067
aS'NP16'
p4068
asbsS'CCP'
p4069
(issf_api
Node
p4070
(dp4071
g3225
S'k2'
p4072
sg3227
g4069
sg3228
S'VGF'
p4073
sg3230
I-1
sg34
I7
sg3231
(lp4074
S'VGF2'
p4075
asbsS'NP14'
p4076
(issf_api
Node
p4077
(dp4078
g3225
S'r6'
p4079
sg3227
g4076
sg3228
S'NP15'
p4080
sg3230
I-1
sg34
I18
sg3231
(lp4081
S'NP13'
p4082
asbsS'NP9'
p4083
(issf_api
Node
p4084
(dp4085
g3225
S'r6'
p4086
sg3227
g4083
sg3228
S'NP10'
p4087
sg3230
I-1
sg34
I10
sg3231
(lp4088
sbsS'NP8'
p4089
(issf_api
Node
p4090
(dp4091
g3225
S'k1'
p4092
sg3227
g4089
sg3228
S'VGF2'
p4093
sg3230
I-1
sg34
I9
sg3231
(lp4094
S'NP7'
p4095
asbsS'NP5'
p4096
(issf_api
Node
p4097
(dp4098
g3225
S'k7t'
p4099
sg3227
g4096
sg3228
S'VGF'
p4100
sg3230
I-1
sg34
I4
sg3231
(lp4101
sbsS'NP4'
p4102
(issf_api
Node
p4103
(dp4104
g3225
S'k1'
p4105
sg3227
g4102
sg3228
S'VGF'
p4106
sg3230
I-1
sg34
I3
sg3231
(lp4107
S'NP3'
p4108
asbsg4095
(issf_api
Node
p4109
(dp4110
g3225
S'r6'
p4111
sg3227
g4095
sg3228
S'NP8'
p4112
sg3230
I-1
sg34
I8
sg3231
(lp4113
sbsS'NP6'
p4114
(issf_api
Node
p4115
(dp4116
g3225
S'k7'
p4117
sg3227
g4114
sg3228
S'VGF'
p4118
sg3230
I-1
sg34
I5
sg3231
(lp4119
sbsS'CCP2'
p4120
(issf_api
Node
p4121
(dp4122
g3225
S'vmod'
p4123
sg3227
g4120
sg3228
S'VGF2'
p4124
sg3230
I-1
sg34
I16
sg3231
(lp4125
g4061
asbsg4108
(issf_api
Node
p4126
(dp4127
g3225
S'nmod'
p4128
sg3227
g4108
sg3228
S'NP4'
p4129
sg3230
I-1
sg34
I2
sg3231
(lp4130
S'NP2'
p4131
asbsg4131
(issf_api
Node
p4132
(dp4133
g3225
S'r6'
p4134
sg3227
g4131
sg3228
S'NP3'
p4135
sg3230
I-1
sg34
I1
sg3231
(lp4136
sbsS'NP11'
p4137
(issf_api
Node
p4138
(dp4139
g3225
S'r6-k2'
p4140
sg3227
g4137
sg3228
S'NP12'
p4141
sg3230
I-1
sg34
I13
sg3231
(lp4142
S'JJP'
p4143
asbsS'NP10'
p4144
(issf_api
Node
p4145
(dp4146
g3225
S'jjmod'
p4147
sg3227
g4144
sg3228
S'JJP'
p4148
sg3230
I-1
sg34
I11
sg3231
(lp4149
g4083
asbsg4082
(issf_api
Node
p4150
(dp4151
g3225
S'r6'
p4152
sg3227
g4082
sg3228
S'NP14'
p4153
sg3230
I-1
sg34
I17
sg3231
(lp4154
sbsS'NP12'
p4155
(issf_api
Node
p4156
(dp4157
g3225
S'pof'
p4158
sg3227
g4155
sg3228
S'VGF2'
p4159
sg3230
I-1
sg34
I14
sg3231
(lp4160
g4137
asbsS'NP15'
p4161
(issf_api
Node
p4162
(dp4163
g3225
S'r6'
p4164
sg3227
g4161
sg3228
S'NP16'
p4165
sg3230
I-1
sg34
I19
sg3231
(lp4166
g4076
asbsg4075
(issf_api
Node
p4167
(dp4168
g3225
S'ccof'
p4169
sg3227
g4075
sg3228
S'CCP'
p4170
sg3230
I-1
sg34
I15
sg3231
(lp4171
g4089
ag4120
ag4155
asbsg4067
(issf_api
Node
p4172
(dp4173
g3225
S'pof'
p4174
sg3227
g4067
sg3228
S'VGF3'
p4175
sg3230
I-1
sg34
I21
sg3231
(lp4176
sbsg4068
(issf_api
Node
p4177
(dp4178
g3225
S'k7'
p4179
sg3227
g4068
sg3228
S'VGF3'
p4180
sg3230
I-1
sg34
I20
sg3231
(lp4181
g4161
asbsS'NP'
p4182
(issf_api
Node
p4183
(dp4184
g3225
S'sent-adv'
p4185
sg3227
g4182
sg3228
S'VGF'
p4186
sg3230
I-1
sg34
I0
sg3231
(lp4187
sbsS'VGF'
p4188
(issf_api
Node
p4189
(dp4190
g3225
g3247
sg3227
g4188
sg3228
g3247
sg3230
I-1
sg34
I6
sg3231
(lp4191
g4069
ag4096
ag4102
ag4114
ag4182
aS'BLK'
p4192
asbsg4192
(issf_api
Node
p4193
(dp4194
g3225
S'rsym'
p4195
sg3227
g4192
sg3228
S'VGF'
p4196
sg3230
I-1
sg34
I23
sg3231
(lp4197
sbsg4143
(issf_api
Node
p4198
(dp4199
g3225
S'nmod'
p4200
sg3227
g4143
sg3228
S'NP11'
p4201
sg3230
I-1
sg34
I12
sg3231
(lp4202
g4144
asbssg3316
(lp4203
(issf_api
Chunk
p4204
(dp4205
g3227
g2109
sg34
I0
sg3320
g2114
sg35
I3
sg3218
(lp4206
I101
aI102
aI103
asg40
(issf_api
FeatureSet
p4207
(dp4208
g12
(dp4209
S'name'
p4210
g4182
sS'drel'
p4211
S'sent-adv:VGF'
p4212
ssbsba(issf_api
Chunk
p4213
(dp4214
g3227
g2166
sg34
I1
sg3320
g2179
sg35
I3
sg3218
(lp4215
I104
aI105
asg40
(issf_api
FeatureSet
p4216
(dp4217
g12
(dp4218
S'name'
p4219
g4131
sS'drel'
p4220
S'r6:NP3'
p4221
ssbsba(issf_api
Chunk
p4222
(dp4223
g3227
g2250
sg34
I2
sg3320
g2259
sg35
I3
sg3218
(lp4224
I106
aI107
aI108
asg40
(issf_api
FeatureSet
p4225
(dp4226
g12
(dp4227
S'name'
p4228
g4108
sS'drel'
p4229
S'nmod:NP4'
p4230
ssbsba(issf_api
Chunk
p4231
(dp4232
g3227
g2294
sg34
I3
sg3320
g2307
sg35
I3
sg3218
(lp4233
I109
aI110
aI111
asg40
(issf_api
FeatureSet
p4234
(dp4235
g12
(dp4236
S'name'
p4237
g4102
sS'drel'
p4238
S'k1:VGF'
p4239
ssbsba(issf_api
Chunk
p4240
(dp4241
g3227
g2338
sg34
I4
sg3320
g2345
sg35
I3
sg3218
(lp4242
I112
aI113
aI114
asg40
(issf_api
FeatureSet
p4243
(dp4244
g12
(dp4245
S'name'
p4246
g4096
sS'drel'
p4247
S'k7t:VGF'
p4248
ssbsba(issf_api
Chunk
p4249
(dp4250
g3227
g2410
sg34
I5
sg3320
g2417
sg35
I3
sg3218
(lp4251
I115
aI116
aI117
asg40
(issf_api
FeatureSet
p4252
(dp4253
g12
(dp4254
S'name'
p4255
g4114
sS'drel'
p4256
S'k7:VGF'
p4257
ssbsba(issf_api
Chunk
p4258
(dp4259
g3227
g2448
sg34
I6
sg3320
g2457
sg35
I3
sg3218
(lp4260
I118
aI119
asg40
(issf_api
FeatureSet
p4261
(dp4262
g12
(dp4263
S'name'
p4264
g4188
ssbsba(issf_api
Chunk
p4265
(dp4266
g3227
g2488
sg34
I7
sg3320
g2493
sg35
I3
sg3218
(lp4267
I120
asg40
(issf_api
FeatureSet
p4268
(dp4269
g12
(dp4270
S'name'
p4271
g4069
sS'drel'
p4272
S'k2:VGF'
p4273
ssbsba(issf_api
Chunk
p4274
(dp4275
g3227
g2511
sg34
I8
sg3320
g2522
sg35
I3
sg3218
(lp4276
I121
asg40
(issf_api
FeatureSet
p4277
(dp4278
g12
(dp4279
S'name'
p4280
g4095
sS'drel'
p4281
S'r6:NP8'
p4282
ssbsba(issf_api
Chunk
p4283
(dp4284
g3227
g2538
sg34
I9
sg3320
g2549
sg35
I3
sg3218
(lp4285
I122
asg40
(issf_api
FeatureSet
p4286
(dp4287
g12
(dp4288
S'name'
p4289
g4089
sS'drel'
p4290
S'k1:VGF2'
p4291
ssbsba(issf_api
Chunk
p4292
(dp4293
g3227
g2653
sg34
I10
sg3320
g2662
sg35
I3
sg3218
(lp4294
I123
aI124
aI125
aI126
aI127
aI128
asg40
(issf_api
FeatureSet
p4295
(dp4296
g12
(dp4297
S'name'
p4298
g4083
sS'drel'
p4299
S'r6:NP10'
p4300
ssbsba(issf_api
Chunk
p4301
(dp4302
g3227
g2695
sg34
I11
sg3320
g2706
sg35
I3
sg3218
(lp4303
I129
aI130
asg40
(issf_api
FeatureSet
p4304
(dp4305
g12
(dp4306
S'name'
p4307
g4144
sS'drel'
p4308
S'jjmod:JJP'
p4309
ssbsba(issf_api
Chunk
p4310
(dp4311
g3227
g2737
sg34
I12
sg3320
g2742
sg35
I3
sg3218
(lp4312
I131
asg40
(issf_api
FeatureSet
p4313
(dp4314
g12
(dp4315
S'name'
p4316
g4143
sS'drel'
p4317
S'nmod:NP11'
p4318
ssbsba(issf_api
Chunk
p4319
(dp4320
g3227
g2777
sg34
I13
sg3320
g2790
sg35
I3
sg3218
(lp4321
I132
aI133
aI134
asg40
(issf_api
FeatureSet
p4322
(dp4323
g12
(dp4324
S'name'
p4325
g4137
sS'drel'
p4326
S'r6-k2:NP12'
p4327
ssbsba(issf_api
Chunk
p4328
(dp4329
g3227
g2821
sg34
I14
sg3320
g2826
sg35
I3
sg3218
(lp4330
I135
asg40
(issf_api
FeatureSet
p4331
(dp4332
g12
(dp4333
S'name'
p4334
g4155
sS'drel'
p4335
S'pof:VGF2'
p4336
ssbsba(issf_api
Chunk
p4337
(dp4338
g3227
g2840
sg34
I15
sg3320
g2851
sg35
I3
sg3218
(lp4339
I136
aI137
aI138
asg40
(issf_api
FeatureSet
p4340
(dp4341
g12
(dp4342
S'name'
p4343
g4075
sS'drel'
p4344
S'ccof:CCP'
p4345
ssbsba(issf_api
Chunk
p4346
(dp4347
g3227
g2899
sg34
I16
sg3320
g2904
sg35
I3
sg3218
(lp4348
I139
asg40
(issf_api
FeatureSet
p4349
(dp4350
g12
(dp4351
S'name'
p4352
g4120
sS'drel'
p4353
S'vmod:VGF2'
p4354
ssbsba(issf_api
Chunk
p4355
(dp4356
g3227
g2920
sg34
I17
sg3320
g2931
sg35
I3
sg3218
(lp4357
I140
aI141
asg40
(issf_api
FeatureSet
p4358
(dp4359
g12
(dp4360
S'name'
p4361
g4082
sS'drel'
p4362
S'r6:NP14'
p4363
ssbsba(issf_api
Chunk
p4364
(dp4365
g3227
g2962
sg34
I18
sg3320
g2969
sg35
I3
sg3218
(lp4366
I142
aI143
asg40
(issf_api
FeatureSet
p4367
(dp4368
g12
(dp4369
S'name'
p4370
g4076
sS'drel'
p4371
S'r6:NP15'
p4372
ssbsba(issf_api
Chunk
p4373
(dp4374
g3227
g3004
sg34
I19
sg3320
g3017
sg35
I3
sg3218
(lp4375
I144
aI145
asg40
(issf_api
FeatureSet
p4376
(dp4377
g12
(dp4378
S'name'
p4379
g4161
sS'drel'
p4380
S'r6:NP16'
p4381
ssbsba(issf_api
Chunk
p4382
(dp4383
g3227
g3050
sg34
I20
sg3320
g3063
sg35
I3
sg3218
(lp4384
I146
aI147
asg40
(issf_api
FeatureSet
p4385
(dp4386
g12
(dp4387
S'name'
p4388
g4068
sS'drel'
p4389
S'k7:VGF3'
p4390
ssbsba(issf_api
Chunk
p4391
(dp4392
g3227
g3128
sg34
I21
sg3320
g3133
sg35
I3
sg3218
(lp4393
I148
aI149
aI150
asg40
(issf_api
FeatureSet
p4394
(dp4395
g12
(dp4396
S'name'
p4397
g4067
sS'drel'
p4398
S'pof:VGF3'
p4399
ssbsba(issf_api
Chunk
p4400
(dp4401
g3227
g3147
sg34
I22
sg3320
g3158
sg35
I3
sg3218
(lp4402
I151
aI152
aI153
asg40
(issf_api
FeatureSet
p4403
(dp4404
g12
(dp4405
S'name'
p4406
g4061
sS'drel'
p4407
S'ccof:CCP2'
p4408
ssbsba(issf_api
Chunk
p4409
(dp4410
g3227
g3206
sg34
I23
sg3320
g3211
sg35
I3
sg3218
(lp4411
I154
asg40
(issf_api
FeatureSet
p4412
(dp4413
g12
(dp4414
S'name'
p4415
g4192
sS'drel'
p4416
S'rsym:VGF'
p4417
ssbsbasbasb.