(issf_api
SSFInfo
p0
(dp1
S'globalWordList'
p2
(lp3
(issf_api
Word
p4
(dp5
S'splitConn'
p6
I00
sS'word'
p7
V\u0905\u092a\u0928\u0940
p8
sS'extraFeatureSet'
p9
(issf_api
FeatureSet
p10
(dp11
S'featureDict'
p12
(dp13
S'crefhead'
p14
S'\xe0\xa4\x85\xe0\xa4\xaa\xe0\xa4\xa8\xe0\xa5\x80:i1'
p15
sS'posn'
p16
S'10'
p17
sS'name'
p18
S'\xe0\xa4\x85\xe0\xa4\xaa\xe0\xa4\xa8\xe0\xa5\x80'
p19
sS'af'
p20
S'\xe0\xa4\x85\xe0\xa4\xaa\xe0\xa4\xa8\xe0\xa4\xbe,pn,f,any,any,o,0,0'
p21
sS'acrefmodhead'
p22
S'\xe0\xa4\x85\xe0\xa4\xaa\xe0\xa4\xa8\xe0\xa5\x80:m1'
p23
sS'chunkid'
p24
S'NP'
p25
sS'acrefmod'
p26
S'm1%1:i2'
p27
sS'chunktype'
p28
S'head:NP'
p29
sS'cref'
p30
S'i1%1:t1'
p31
sS'drel'
p32
S'r6:NP2'
p33
ssbsS'arg1'
p34
I00
sS'arg2'
p35
I00
sS'sense'
p36
NsS'arg1Span'
p37
NsS'chunkNum'
p38
I0
sS'sentenceNum'
p39
I0
sS'relationNum'
p40
NsS'arg2Span'
p41
NsS'wordTag'
p42
S'PRP'
p43
sS'featureSet'
p44
g10
sS'conn'
p45
I00
sba(issf_api
Word
p46
(dp47
g6
I00
sg7
V\u0935\u093f\u0935\u093e\u0926\u093e\u0938\u094d\u092a\u0926
p48
sg9
(issf_api
FeatureSet
p49
(dp50
g12
(dp51
S'posn'
p52
S'20'
p53
sS'name'
p54
S'\xe0\xa4\xb5\xe0\xa4\xbf\xe0\xa4\xb5\xe0\xa4\xbe\xe0\xa4\xa6\xe0\xa4\xbe\xe0\xa4\xb8\xe0\xa5\x8d\xe0\xa4\xaa\xe0\xa4\xa6'
p55
sS'af'
p56
S'\xe0\xa4\xb5\xe0\xa4\xbf\xe0\xa4\xb5\xe0\xa4\xbe\xe0\xa4\xa6\xe0\xa4\xbe\xe0\xa4\xb8\xe0\xa5\x8d\xe0\xa4\xaa\xe0\xa4\xa6,adj,any,any,,o,,'
p57
sS'drel'
p58
S'nmod__adj:NP2'
p59
sS'chunktype'
p60
S'child:NP2'
p61
sS'cref'
p62
S'i2%0:t2'
p63
ssbsg34
I00
sg35
I00
sg36
Nsg37
Nsg38
I1
sg39
I0
sg40
Nsg41
Nsg42
S'JJ'
p64
sg44
g49
sg45
I00
sba(issf_api
Word
p65
(dp66
g6
I00
sg7
V\u091f\u093f\u0925\u0940
p67
sg9
(issf_api
FeatureSet
p68
(dp69
g12
(dp70
S'crefhead'
p71
S'\xe0\xa4\x9f\xe0\xa4\xbf\xe0\xa4\xa5\xe0\xa5\x80:i2'
p72
sS'posn'
p73
S'30'
p74
sS'name'
p75
S'\xe0\xa4\x9f\xe0\xa4\xbf\xe0\xa4\xa5\xe0\xa5\x80'
p76
sS'af'
p77
S'\xe0\xa4\x9f\xe0\xa4\xbf\xe0\xa4\xa5\xe0\xa5\x80,n,f,sg,3,o,0_\xe0\xa4\x95\xe0\xa5\x87_\xe0\xa4\xae\xe0\xa4\xa6\xe0\xa5\x8d\xe0\xa4\xa6\xe0\xa5\x87\xe0\xa4\xa8\xe0\xa4\x9c\xe0\xa4\xbc\xe0\xa4\xb0,0'
p78
sS'chunkid'
p79
S'NP2'
p80
sS'crefmod'
p81
S'm1:i2'
p82
sS'chunktype'
p83
S'head:NP2'
p84
sS'crefchainhead'
p85
S'i2:t2'
p86
sS'vpos'
p87
S'vib_3_4'
p88
sS'cref'
p89
S'i2%1:t2'
p90
sS'drel'
p91
S'k7a:VGF'
p92
ssbsg34
I00
sg35
I00
sg36
Nsg37
Nsg38
I1
sg39
I0
sg40
Nsg41
Nsg42
S'NN'
p93
sg44
g68
sg45
I00
sba(issf_api
Word
p94
(dp95
g6
I00
sg7
V\u0915\u0947
p96
sg9
(issf_api
FeatureSet
p97
(dp98
g12
(dp99
S'posn'
p100
S'40'
p101
sS'name'
p102
S'\xe0\xa4\x95\xe0\xa5\x87'
p103
sS'drel'
p104
S'lwg__psp:NP2'
p105
sS'chunktype'
p106
S'child:NP2'
p107
sS'af'
p108
S'\xe0\xa4\x95\xe0\xa5\x87,psp,,,,,,'
p109
ssbsg34
I00
sg35
I00
sg36
Nsg37
Nsg38
I1
sg39
I0
sg40
Nsg41
Nsg42
S'PSP'
p110
sg44
g97
sg45
I00
sba(issf_api
Word
p111
(dp112
g6
I00
sg7
V\u092e\u0926\u094d\u0926\u0947\u0928\u091c\u093c\u0930
p113
sg9
(issf_api
FeatureSet
p114
(dp115
g12
(dp116
S'posn'
p117
S'50'
p118
sS'name'
p119
S'\xe0\xa4\xae\xe0\xa4\xa6\xe0\xa5\x8d\xe0\xa4\xa6\xe0\xa5\x87\xe0\xa4\xa8\xe0\xa4\x9c\xe0\xa4\xbc\xe0\xa4\xb0'
p120
sS'drel'
p121
S'lwg__psp:NP2'
p122
sS'chunktype'
p123
S'child:NP2'
p124
sS'af'
p125
S'\xe0\xa4\xae\xe0\xa4\xa6\xe0\xa5\x8d\xe0\xa4\xa6\xe0\xa5\x87\xe0\xa4\xa8\xe0\xa4\x9c\xe0\xa4\xbc\xe0\xa4\xb0,psp,,,,,,'
p126
ssbsg34
I00
sg35
I00
sg36
Nsg37
Nsg38
I1
sg39
I0
sg40
Nsg41
Nsg42
S'PSP'
p127
sg44
g114
sg45
I00
sba(issf_api
Word
p128
(dp129
g6
I00
sg7
V\u092d\u093e\u091c\u092a\u093e
p130
sg9
(issf_api
FeatureSet
p131
(dp132
g12
(dp133
S'crefhead'
p134
S'\xe0\xa4\xad\xe0\xa4\xbe\xe0\xa4\x9c\xe0\xa4\xaa\xe0\xa4\xbe:i4'
p135
sS'posn'
p136
S'60'
p137
sS'name'
p138
S'\xe0\xa4\xad\xe0\xa4\xbe\xe0\xa4\x9c\xe0\xa4\xaa\xe0\xa4\xbe'
p139
sS'af'
p140
S'\xe0\xa4\xad\xe0\xa4\xbe\xe0\xa4\x9c\xe0\xa4\xaa\xe0\xa4\xbe,n,f,sg,3,d,0,0'
p141
sS'drel'
p142
S'nmod__adj:NP3'
p143
sS'crefchainhead'
p144
S'i4:t3'
p145
sS'chunktype'
p146
S'child:NP3'
p147
sS'cref'
p148
S'i3%0:t1,i4%1:t3'
p149
ssbsg34
I00
sg35
I00
sg36
Nsg37
Nsg38
I2
sg39
I0
sg40
Nsg41
Nsg42
S'NNP'
p150
sg44
g131
sg45
I00
sba(issf_api
Word
p151
(dp152
g6
I00
sg7
V\u0909\u092a\u093e\u0927\u094d\u092f\u0915\u094d\u0937
p153
sg9
(issf_api
FeatureSet
p154
(dp155
g12
(dp156
S'crefhead'
p157
S'\xe0\xa4\x89\xe0\xa4\xaa\xe0\xa4\xbe\xe0\xa4\xa7\xe0\xa5\x8d\xe0\xa4\xaf\xe0\xa4\x95\xe0\xa5\x8d\xe0\xa4\xb7:i3'
p158
sS'posn'
p159
S'70'
p160
sS'name'
p161
S'\xe0\xa4\x89\xe0\xa4\xaa\xe0\xa4\xbe\xe0\xa4\xa7\xe0\xa5\x8d\xe0\xa4\xaf\xe0\xa4\x95\xe0\xa5\x8d\xe0\xa4\xb7'
p162
sS'af'
p163
S'\xe0\xa4\x89\xe0\xa4\xaa\xe0\xa4\xbe\xe0\xa4\xa7\xe0\xa5\x8d\xe0\xa4\xaf\xe0\xa4\x95\xe0\xa5\x8d\xe0\xa4\xb7,n,m,sg,3,d,0,0'
p164
sS'creftype'
p165
S'Anaphora-RC:i1'
p166
sS'drel'
p167
S'nmod:NP3'
p168
sS'chunktype'
p169
S'child:NP3'
p170
sS'cref'
p171
S'i3%1:t1'
p172
ssbsg34
I00
sg35
I00
sg36
Nsg37
Nsg38
I2
sg39
I0
sg40
Nsg41
Nsg42
S'NN'
p173
sg44
g154
sg45
I00
sba(issf_api
Word
p174
(dp175
g6
I00
sg7
V\u092e\u0941\u0916\u094d\u0924\u093e\u0930
p176
sg9
(issf_api
FeatureSet
p177
(dp178
g12
(dp179
S'posn'
p180
S'80'
p181
sS'name'
p182
S'\xe0\xa4\xae\xe0\xa5\x81\xe0\xa4\x96\xe0\xa5\x8d\xe0\xa4\xa4\xe0\xa4\xbe\xe0\xa4\xb0'
p183
sS'af'
p184
S'\xe0\xa4\xae\xe0\xa5\x81\xe0\xa4\x96\xe0\xa5\x8d\xe0\xa4\xa4\xe0\xa4\xbe\xe0\xa4\xb0,n,m,sg,3,d,0,0'
p185
sS'drel'
p186
S'pof__cn:NP3'
p187
sS'chunktype'
p188
S'child:NP3'
p189
sS'cref'
p190
S'i5%0:t1'
p191
ssbsg34
I00
sg35
I00
sg36
Nsg37
Nsg38
I2
sg39
I0
sg40
Nsg41
Nsg42
S'NNPC'
p192
sg44
g177
sg45
I00
sba(issf_api
Word
p193
(dp194
g6
I00
sg7
V\u0905\u092c\u094d\u092c\u093e\u0938
p195
sg9
(issf_api
FeatureSet
p196
(dp197
g12
(dp198
S'posn'
p199
S'90'
p200
sS'name'
p201
S'\xe0\xa4\x85\xe0\xa4\xac\xe0\xa5\x8d\xe0\xa4\xac\xe0\xa4\xbe\xe0\xa4\xb8'
p202
sS'af'
p203
S'\xe0\xa4\x85\xe0\xa4\xac\xe0\xa5\x8d\xe0\xa4\xac\xe0\xa4\xbe\xe0\xa4\xb8,n,m,sg,3,d,0,0'
p204
sS'drel'
p205
S'pof__cn:NP3'
p206
sS'chunktype'
p207
S'child:NP3'
p208
sS'cref'
p209
S'i5%0:t1'
p210
ssbsg34
I00
sg35
I00
sg36
Nsg37
Nsg38
I2
sg39
I0
sg40
Nsg41
Nsg42
S'NNPC'
p211
sg44
g196
sg45
I00
sba(issf_api
Word
p212
(dp213
g6
I00
sg7
V\u0928\u0915\u093c\u0935\u0940
p214
sg9
(issf_api
FeatureSet
p215
(dp216
g12
(dp217
S'crefhead'
p218
S'\xe0\xa4\xa8\xe0\xa4\x95\xe0\xa4\xbc\xe0\xa4\xb5\xe0\xa5\x80:i5'
p219
sS'posn'
p220
S'100'
p221
sS'name'
p222
S'\xe0\xa4\xa8\xe0\xa4\x95\xe0\xa4\xbc\xe0\xa4\xb5\xe0\xa5\x80'
p223
sS'af'
p224
S'\xe0\xa4\xa8\xe0\xa4\x95\xe0\xa4\xbc\xe0\xa4\xb5\xe0\xa5\x80,n,m,sg,3,o,0_\xe0\xa4\xa8\xe0\xa5\x87,0'
p225
sS'chunkid'
p226
S'NP3'
p227
sS'creftype'
p228
S'Coreference-NounComplement:i3'
p229
sS'chunktype'
p230
S'head:NP3'
p231
sS'crefchainhead'
p232
S'i5:t1'
p233
sS'vpos'
p234
S'vib_vib_vib_6'
p235
sS'cref'
p236
S'i5%1:t1'
p237
sS'drel'
p238
S'k1:VGF'
p239
ssbsg34
I00
sg35
I00
sg36
Nsg37
Nsg38
I2
sg39
I0
sg40
Nsg41
Nsg42
S'NNP'
p240
sg44
g215
sg45
I00
sba(issf_api
Word
p241
(dp242
g6
I00
sg7
V\u0928\u0947
p243
sg9
(issf_api
FeatureSet
p244
(dp245
g12
(dp246
S'posn'
p247
S'110'
p248
sS'name'
p249
S'\xe0\xa4\xa8\xe0\xa5\x87'
p250
sS'drel'
p251
S'lwg__psp:NP3'
p252
sS'chunktype'
p253
S'child:NP3'
p254
sS'af'
p255
S'\xe0\xa4\xa8\xe0\xa5\x87,psp,,,,,,'
p256
ssbsg34
I00
sg35
I00
sg36
Nsg37
Nsg38
I2
sg39
I0
sg40
Nsg41
Nsg42
S'PSP'
p257
sg44
g244
sg45
I00
sba(issf_api
Word
p258
(dp259
g6
I00
sg7
V\u092e\u0902\u0917\u0932\u0935\u093e\u0930
p260
sg9
(issf_api
FeatureSet
p261
(dp262
g12
(dp263
S'posn'
p264
S'120'
p265
sS'name'
p266
S'\xe0\xa4\xae\xe0\xa4\x82\xe0\xa4\x97\xe0\xa4\xb2\xe0\xa4\xb5\xe0\xa4\xbe\xe0\xa4\xb0'
p267
sS'af'
p268
S'\xe0\xa4\xae\xe0\xa4\x82\xe0\xa4\x97\xe0\xa4\xb2\xe0\xa4\xb5\xe0\xa4\xbe\xe0\xa4\xb0,n,m,sg,3,o,0_\xe0\xa4\x95\xe0\xa5\x8b,0'
p269
sS'chunkid'
p270
S'NP4'
p271
sS'drel'
p272
S'k7t:VGF'
p273
sS'vpos'
p274
S'vib_2'
p275
sS'chunktype'
p276
S'head:NP4'
p277
ssbsg34
I00
sg35
I00
sg36
Nsg37
Nsg38
I3
sg39
I0
sg40
Nsg41
Nsg42
S'NNP'
p278
sg44
g261
sg45
I00
sba(issf_api
Word
p279
(dp280
g6
I00
sg7
V\u0915\u094b
p281
sg9
(issf_api
FeatureSet
p282
(dp283
g12
(dp284
S'posn'
p285
S'130'
p286
sS'name'
p287
S'\xe0\xa4\x95\xe0\xa5\x8b'
p288
sS'drel'
p289
S'lwg__psp:NP4'
p290
sS'chunktype'
p291
S'child:NP4'
p292
sS'af'
p293
S'\xe0\xa4\x95\xe0\xa5\x8b,psp,,,,,,'
p294
ssbsg34
I00
sg35
I00
sg36
Nsg37
Nsg38
I3
sg39
I0
sg40
Nsg41
Nsg42
S'PSP'
p295
sg44
g282
sg45
I00
sba(issf_api
Word
p296
(dp297
g6
I00
sg7
V\u092a\u093e\u0930\u094d\u091f\u0940
p298
sg9
(issf_api
FeatureSet
p299
(dp300
g12
(dp301
S'crefhead'
p302
S'\xe0\xa4\xaa\xe0\xa4\xbe\xe0\xa4\xb0\xe0\xa5\x8d\xe0\xa4\x9f\xe0\xa5\x80:i7'
p303
sS'posn'
p304
S'140'
p305
sS'name'
p306
S'\xe0\xa4\xaa\xe0\xa4\xbe\xe0\xa4\xb0\xe0\xa5\x8d\xe0\xa4\x9f\xe0\xa5\x80'
p307
sS'af'
p308
S'\xe0\xa4\xaa\xe0\xa4\xbe\xe0\xa4\xb0\xe0\xa5\x8d\xe0\xa4\x9f\xe0\xa5\x80,n,f,sg,3,d,0,0'
p309
sS'creftype'
p310
S'Coreference-InferedRelation:i4'
p311
sS'drel'
p312
S'pof__cn:NP5'
p313
sS'chunktype'
p314
S'child:NP5'
p315
sS'cref'
p316
S'i6%0:t4,i7%1:t3'
p317
ssbsg34
I00
sg35
I00
sg36
Nsg37
Nsg38
I4
sg39
I0
sg40
Nsg41
Nsg42
S'NNC'
p318
sg44
g299
sg45
I00
sba(issf_api
Word
p319
(dp320
g6
I00
sg7
V\u0905\u0927\u094d\u092f\u0915\u094d\u0937
p321
sg9
(issf_api
FeatureSet
p322
(dp323
g12
(dp324
S'crefhead'
p325
S'\xe0\xa4\x85\xe0\xa4\xa7\xe0\xa5\x8d\xe0\xa4\xaf\xe0\xa4\x95\xe0\xa5\x8d\xe0\xa4\xb7:i6'
p326
sS'posn'
p327
S'150'
p328
sS'name'
p329
S'\xe0\xa4\x85\xe0\xa4\xa7\xe0\xa5\x8d\xe0\xa4\xaf\xe0\xa4\x95\xe0\xa5\x8d\xe0\xa4\xb7'
p330
sS'af'
p331
S'\xe0\xa4\x85\xe0\xa4\xa7\xe0\xa5\x8d\xe0\xa4\xaf\xe0\xa4\x95\xe0\xa5\x8d\xe0\xa4\xb7,n,m,sg,3,d,0,0'
p332
sS'drel'
p333
S'nmod:NP5'
p334
sS'chunktype'
p335
S'child:NP5'
p336
sS'cref'
p337
S'i6%1:t4'
p338
ssbsg34
I00
sg35
I00
sg36
Nsg37
Nsg38
I4
sg39
I0
sg40
Nsg41
Nsg42
S'NN'
p339
sg44
g322
sg45
I00
sba(issf_api
Word
p340
(dp341
g6
I00
sg7
V\u0932\u093e\u0932
p342
sg9
(issf_api
FeatureSet
p343
(dp344
g12
(dp345
S'posn'
p346
S'160'
p347
sS'name'
p348
S'\xe0\xa4\xb2\xe0\xa4\xbe\xe0\xa4\xb2'
p349
sS'af'
p350
S'\xe0\xa4\xb2\xe0\xa4\xbe\xe0\xa4\xb2,n,m,sg,3,d,0,0'
p351
sS'drel'
p352
S'pof__cn:NP5'
p353
sS'chunktype'
p354
S'child:NP5'
p355
sS'cref'
p356
S'i8%0:t4'
p357
ssbsg34
I00
sg35
I00
sg36
Nsg37
Nsg38
I4
sg39
I0
sg40
Nsg41
Nsg42
S'NNPC'
p358
sg44
g343
sg45
I00
sba(issf_api
Word
p359
(dp360
g6
I00
sg7
V\u0915\u0943\u0937\u094d\u0923
p361
sg9
(issf_api
FeatureSet
p362
(dp363
g12
(dp364
S'posn'
p365
S'170'
p366
sS'name'
p367
S'\xe0\xa4\x95\xe0\xa5\x83\xe0\xa4\xb7\xe0\xa5\x8d\xe0\xa4\xa3'
p368
sS'af'
p369
S'\xe0\xa4\x95\xe0\xa5\x83\xe0\xa4\xb7\xe0\xa5\x8d\xe0\xa4\xa3,n,m,sg,3,d,0,0'
p370
sS'drel'
p371
S'pof__cn:NP5'
p372
sS'chunktype'
p373
S'child:NP5'
p374
sS'cref'
p375
S'i8%0:t4'
p376
ssbsg34
I00
sg35
I00
sg36
Nsg37
Nsg38
I4
sg39
I0
sg40
Nsg41
Nsg42
S'NNPC'
p377
sg44
g362
sg45
I00
sba(issf_api
Word
p378
(dp379
g6
I00
sg7
V\u0906\u0921\u0935\u093e\u0923\u0940
p380
sg9
(issf_api
FeatureSet
p381
(dp382
g12
(dp383
S'crefhead'
p384
S'\xe0\xa4\x86\xe0\xa4\xa1\xe0\xa4\xb5\xe0\xa4\xbe\xe0\xa4\xa3\xe0\xa5\x80:i8'
p385
sS'posn'
p386
S'180'
p387
sS'name'
p388
S'\xe0\xa4\x86\xe0\xa4\xa1\xe0\xa4\xb5\xe0\xa4\xbe\xe0\xa4\xa3\xe0\xa5\x80'
p389
sS'af'
p390
S'\xe0\xa4\x86\xe0\xa4\xa1\xe0\xa4\xb5\xe0\xa4\xbe\xe0\xa4\xa3\xe0\xa5\x80,n,m,sg,3,o,0_\xe0\xa4\xb8\xe0\xa5\x87,0'
p391
sS'chunkid'
p392
S'NP5'
p393
sS'creftype'
p394
S'Coreference-NounComplement:i6'
p395
sS'chunktype'
p396
S'head:NP5'
p397
sS'crefchainhead'
p398
S'i8:t4'
p399
sS'vpos'
p400
S'vib_vib_6'
p401
sS'cref'
p402
S'i8%1:t4'
p403
sS'drel'
p404
S'k2:VGF'
p405
ssbsg34
I00
sg35
I00
sg36
Nsg37
Nsg38
I4
sg39
I0
sg40
Nsg41
Nsg42
S'NNP'
p406
sg44
g381
sg45
I00
sba(issf_api
Word
p407
(dp408
g6
I00
sg7
V\u0938\u0947
p409
sg9
(issf_api
FeatureSet
p410
(dp411
g12
(dp412
S'posn'
p413
S'190'
p414
sS'name'
p415
S'\xe0\xa4\xb8\xe0\xa5\x87'
p416
sS'drel'
p417
S'lwg__psp:NP5'
p418
sS'chunktype'
p419
S'child:NP5'
p420
sS'af'
p421
S'\xe0\xa4\xb8\xe0\xa5\x87,psp,,,,,,'
p422
ssbsg34
I00
sg35
I00
sg36
Nsg37
Nsg38
I4
sg39
I0
sg40
Nsg41
Nsg42
S'PSP'
p423
sg44
g410
sg45
I00
sba(issf_api
Word
p424
(dp425
g6
I00
sg7
V\u092e\u0941\u0932\u093e\u0915\u093c\u093e\u0924
p426
sg9
(issf_api
FeatureSet
p427
(dp428
g12
(dp429
S'crefhead'
p430
S'\xe0\xa4\xae\xe0\xa5\x81\xe0\xa4\xb2\xe0\xa4\xbe\xe0\xa4\x95\xe0\xa4\xbc\xe0\xa4\xbe\xe0\xa4\xa4:i9'
p431
sS'posn'
p432
S'200'
p433
sS'name'
p434
S'\xe0\xa4\xae\xe0\xa5\x81\xe0\xa4\xb2\xe0\xa4\xbe\xe0\xa4\x95\xe0\xa4\xbc\xe0\xa4\xbe\xe0\xa4\xa4'
p435
sS'af'
p436
S'\xe0\xa4\xae\xe0\xa5\x81\xe0\xa4\xb2\xe0\xa4\xbe\xe0\xa4\x95\xe0\xa4\xbe\xe0\xa4\xa4,n,f,sg,3,d,0,0'
p437
sS'chunkid'
p438
S'NP6'
p439
sS'chunktype'
p440
S'head:NP6'
p441
sS'crefchainhead'
p442
S'i9:t5'
p443
sS'cref'
p444
S'i9%1:t5'
p445
sS'drel'
p446
S'pof:VGF'
p447
ssbsg34
I00
sg35
I00
sg36
Nsg37
Nsg38
I5
sg39
I0
sg40
Nsg41
Nsg42
S'NN'
p448
sg44
g427
sg45
I00
sba(issf_api
Word
p449
(dp450
g6
I00
sg7
V\u0915\u0940
p451
sg9
(issf_api
FeatureSet
p452
(dp453
g12
(dp454
S'posn'
p455
S'210'
p456
sS'name'
p457
S'\xe0\xa4\x95\xe0\xa5\x80'
p458
sS'af'
p459
S'\xe0\xa4\x95\xe0\xa4\xb0,v,f,sg,any,,\xe0\xa4\xaf\xe0\xa4\xbe,yA'
p460
sS'chunkid'
p461
S'VGF'
p462
sS'stype'
p463
S'declarative'
p464
sS'drel'
p465
S'ccof:CCP'
p466
sS'voicetype'
p467
S'active'
p468
sS'chunktype'
p469
S'head:VGF'
p470
ssbsg34
I00
sg35
I00
sg36
Nsg37
Nsg38
I6
sg39
I0
sg40
Nsg41
Nsg42
S'VM'
p471
sg44
g452
sg45
I00
sba(issf_api
Word
p472
(dp473
g6
I00
sg7
V\u0914\u0930
p474
sg9
(issf_api
FeatureSet
p475
(dp476
g12
(dp477
S'posn'
p478
S'220'
p479
sS'chunkid'
p480
S'CCP'
p481
sS'name'
p482
S'\xe0\xa4\x94\xe0\xa4\xb0'
p483
sS'chunktype'
p484
S'head:CCP'
p485
sS'af'
p486
S'\xe0\xa4\x94\xe0\xa4\xb0,avy,,,,,,'
p487
ssbsg34
I00
sg35
I00
sg36
Nsg37
Nsg38
I7
sg39
I0
sg40
Nsg41
Nsg42
S'CC'
p488
sg44
g475
sg45
I00
sba(issf_api
Word
p489
(dp490
g6
I00
sg7
V\u091f\u093f\u0925\u0940
p491
sg9
(issf_api
FeatureSet
p492
(dp493
g12
(dp494
S'crefhead'
p495
S'\xe0\xa4\x9f\xe0\xa4\xbf\xe0\xa4\xa5\xe0\xa5\x80:i10'
p496
sS'posn'
p497
S'230'
p498
sS'name'
p499
S'\xe0\xa4\x9f\xe0\xa4\xbf\xe0\xa4\xa5\xe0\xa5\x802'
p500
sS'af'
p501
S'\xe0\xa4\x9f\xe0\xa4\xbf\xe0\xa4\xa5\xe0\xa5\x80,n,f,sg,3,o,0_\xe0\xa4\xb8\xe0\xa5\x87,0'
p502
sS'chunkid'
p503
S'NP7'
p504
sS'creftype'
p505
S'Coreference-Identity:i2'
p506
sS'chunktype'
p507
S'head:NP7'
p508
sS'vpos'
p509
S'vib_2'
p510
sS'cref'
p511
S'i10%1:t2'
p512
sS'drel'
p513
S'rh:VGNF'
p514
ssbsg34
I00
sg35
I00
sg36
Nsg37
Nsg38
I8
sg39
I0
sg40
Nsg41
Nsg42
S'NN'
p515
sg44
g492
sg45
I00
sba(issf_api
Word
p516
(dp517
g6
I00
sg7
V\u0938\u0947
p518
sg9
(issf_api
FeatureSet
p519
(dp520
g12
(dp521
S'posn'
p522
S'240'
p523
sS'name'
p524
S'\xe0\xa4\xb8\xe0\xa5\x872'
p525
sS'drel'
p526
S'lwg__psp:NP7'
p527
sS'chunktype'
p528
S'child:NP7'
p529
sS'af'
p530
S'\xe0\xa4\xb8\xe0\xa5\x87,psp,,,,,,'
p531
ssbsg34
I00
sg35
I00
sg36
Nsg37
Nsg38
I8
sg39
I0
sg40
Nsg41
Nsg42
S'PSP'
p532
sg44
g519
sg45
I00
sba(issf_api
Word
p533
(dp534
g6
I00
sg7
V\u0909\u092a\u091c\u0940
p535
sg9
(issf_api
FeatureSet
p536
(dp537
g12
(dp538
S'posn'
p539
S'250'
p540
sS'name'
p541
S'\xe0\xa4\x89\xe0\xa4\xaa\xe0\xa4\x9c\xe0\xa5\x80'
p542
sS'af'
p543
S'\xe0\xa4\x89\xe0\xa4\xaa\xe0\xa4\x9c,v,f,pl,any,,\xe0\xa4\xaf\xe0\xa4\xbe,yA'
p544
sS'chunkid'
p545
S'VGNF'
p546
sS'drel'
p547
S'nmod__k1inv:NP8'
p548
sS'chunktype'
p549
S'head:VGNF'
p550
ssbsg34
I00
sg35
I00
sg36
Nsg37
Nsg38
I9
sg39
I0
sg40
Nsg41
Nsg42
S'VM'
p551
sg44
g536
sg45
I00
sba(issf_api
Word
p552
(dp553
g6
I00
sg7
V\u092d\u094d\u0930\u093e\u0902\u0924\u093f\u092f\u094b\u0902
p554
sg9
(issf_api
FeatureSet
p555
(dp556
g12
(dp557
S'posn'
p558
S'260'
p559
sS'name'
p560
S'\xe0\xa4\xad\xe0\xa5\x8d\xe0\xa4\xb0\xe0\xa4\xbe\xe0\xa4\x82\xe0\xa4\xa4\xe0\xa4\xbf\xe0\xa4\xaf\xe0\xa5\x8b\xe0\xa4\x82'
p561
sS'af'
p562
S'\xe0\xa4\xad\xe0\xa5\x8d\xe0\xa4\xb0\xe0\xa4\xbe\xe0\xa4\x82\xe0\xa4\xa4\xe0\xa4\xbf,n,f,pl,3,o,0_\xe0\xa4\x95\xe0\xa5\x8b,0'
p563
sS'chunkid'
p564
S'NP8'
p565
sS'drel'
p566
S'k2:VGNN'
p567
sS'vpos'
p568
S'vib_2'
p569
sS'chunktype'
p570
S'head:NP8'
p571
ssbsg34
I00
sg35
I00
sg36
Nsg37
Nsg38
I10
sg39
I0
sg40
Nsg41
Nsg42
S'NN'
p572
sg44
g555
sg45
I00
sba(issf_api
Word
p573
(dp574
g6
I00
sg7
V\u0915\u094b
p575
sg9
(issf_api
FeatureSet
p576
(dp577
g12
(dp578
S'posn'
p579
S'270'
p580
sS'name'
p581
S'\xe0\xa4\x95\xe0\xa5\x8b2'
p582
sS'drel'
p583
S'lwg__psp:NP8'
p584
sS'chunktype'
p585
S'child:NP8'
p586
sS'af'
p587
S'\xe0\xa4\x95\xe0\xa5\x8b,psp,,,,,,'
p588
ssbsg34
I00
sg35
I00
sg36
Nsg37
Nsg38
I10
sg39
I0
sg40
Nsg41
Nsg42
S'PSP'
p589
sg44
g576
sg45
I00
sba(issf_api
Word
p590
(dp591
g6
I00
sg7
V\u0926\u0942\u0930
p592
sg9
(issf_api
FeatureSet
p593
(dp594
g12
(dp595
S'posn'
p596
S'280'
p597
sS'name'
p598
S'\xe0\xa4\xa6\xe0\xa5\x82\xe0\xa4\xb0'
p599
sS'af'
p600
S'\xe0\xa4\xa6\xe0\xa5\x82\xe0\xa4\xb0,nst,m,sg,3,d,,'
p601
sS'chunkid'
p602
S'NP9'
p603
sS'drel'
p604
S'pof:VGNN'
p605
sS'chunktype'
p606
S'head:NP9'
p607
ssbsg34
I00
sg35
I00
sg36
Nsg37
Nsg38
I11
sg39
I0
sg40
Nsg41
Nsg42
S'NST'
p608
sg44
g593
sg45
I00
sba(issf_api
Word
p609
(dp610
g6
I00
sg7
V\u0915\u0930\u0928\u0947
p611
sg9
(issf_api
FeatureSet
p612
(dp613
g12
(dp614
S'posn'
p615
S'290'
p616
sS'name'
p617
S'\xe0\xa4\x95\xe0\xa4\xb0\xe0\xa4\xa8\xe0\xa5\x87'
p618
sS'af'
p619
S'\xe0\xa4\x95\xe0\xa4\xb0,v,any,sg,any,o,\xe0\xa4\xa8\xe0\xa4\xbe_\xe0\xa4\x95\xe0\xa4\xbe,nA'
p620
sS'chunkid'
p621
S'VGNN'
p622
sS'drel'
p623
S'r6-k2:NP10'
p624
sS'vpos'
p625
S'tam_2'
p626
sS'chunktype'
p627
S'head:VGNN'
p628
ssbsg34
I00
sg35
I00
sg36
Nsg37
Nsg38
I12
sg39
I0
sg40
Nsg41
Nsg42
S'VM'
p629
sg44
g612
sg45
I00
sba(issf_api
Word
p630
(dp631
g6
I00
sg7
V\u0915\u093e
p632
sg9
(issf_api
FeatureSet
p633
(dp634
g12
(dp635
S'posn'
p636
S'300'
p637
sS'name'
p638
S'\xe0\xa4\x95\xe0\xa4\xbe'
p639
sS'drel'
p640
S'lwg__psp:VGNN'
p641
sS'chunktype'
p642
S'child:VGNN'
p643
sS'af'
p644
S'\xe0\xa4\x95\xe0\xa4\xbe,psp,m,sg,,d,,'
p645
ssbsg34
I00
sg35
I00
sg36
Nsg37
Nsg38
I12
sg39
I0
sg40
Nsg41
Nsg42
S'PSP'
p646
sg44
g633
sg45
I00
sba(issf_api
Word
p647
(dp648
g6
I00
sg7
V\u092a\u094d\u0930\u092f\u093e\u0938
p649
sg9
(issf_api
FeatureSet
p650
(dp651
g12
(dp652
S'crefhead'
p653
S'\xe0\xa4\xaa\xe0\xa5\x8d\xe0\xa4\xb0\xe0\xa4\xaf\xe0\xa4\xbe\xe0\xa4\xb8:i11'
p654
sS'posn'
p655
S'310'
p656
sS'name'
p657
S'\xe0\xa4\xaa\xe0\xa5\x8d\xe0\xa4\xb0\xe0\xa4\xaf\xe0\xa4\xbe\xe0\xa4\xb8'
p658
sS'af'
p659
S'\xe0\xa4\xaa\xe0\xa5\x8d\xe0\xa4\xb0\xe0\xa4\xaf\xe0\xa4\xbe\xe0\xa4\xb8,n,m,sg,3,d,0,0'
p660
sS'chunkid'
p661
S'NP10'
p662
sS'chunktype'
p663
S'head:NP10'
p664
sS'crefchainhead'
p665
S'i11:t6'
p666
sS'cref'
p667
S'i11%1:t6'
p668
sS'drel'
p669
S'pof:VGF2'
p670
ssbsg34
I00
sg35
I00
sg36
Nsg37
Nsg38
I13
sg39
I0
sg40
Nsg41
Nsg42
S'NN'
p671
sg44
g650
sg45
I00
sba(issf_api
Word
p672
(dp673
g6
I00
sg7
V\u0915\u093f\u092f\u093e
p674
sg9
(issf_api
FeatureSet
p675
(dp676
g12
(dp677
S'posn'
p678
S'320'
p679
sS'name'
p680
S'\xe0\xa4\x95\xe0\xa4\xbf\xe0\xa4\xaf\xe0\xa4\xbe'
p681
sS'af'
p682
S'\xe0\xa4\x95\xe0\xa4\xb0,v,m,sg,any,,\xe0\xa4\xaf\xe0\xa4\xbe,yA'
p683
sS'chunkid'
p684
S'VGF2'
p685
sS'stype'
p686
S'declarative'
p687
sS'drel'
p688
S'ccof:CCP'
p689
sS'voicetype'
p690
S'active'
p691
sS'chunktype'
p692
S'head:VGF2'
p693
ssbsg34
I00
sg35
I00
sg36
Nsg37
Nsg38
I14
sg39
I0
sg40
Nsg41
Nsg42
S'VM'
p694
sg44
g675
sg45
I00
sba(issf_api
Word
p695
(dp696
g6
I00
sg7
V\u0964
p697
sg9
(issf_api
FeatureSet
p698
(dp699
g12
(dp700
S'posn'
p701
S'330'
p702
sS'name'
p703
S'\xe0\xa5\xa4'
p704
sS'af'
p705
S'\xe0\xa5\xa4,punc,,,,,,'
p706
sS'chunkid'
p707
S'BLK'
p708
sS'drel'
p709
S'rsym:CCP'
p710
sS'chunktype'
p711
S'head:BLK'
p712
ssbsg34
I00
sg35
I00
sg36
Nsg37
Nsg38
I15
sg39
I0
sg40
Nsg41
Nsg42
S'SYM'
p713
sg44
g698
sg45
I00
sba(issf_api
Word
p714
(dp715
g6
I00
sg7
V\u0906\u0921\u0935\u093e\u0923\u0940
p716
sg9
(issf_api
FeatureSet
p717
(dp718
g12
(dp719
S'crefhead'
p720
S'\xe0\xa4\x86\xe0\xa4\xa1\xe0\xa4\xb5\xe0\xa4\xbe\xe0\xa4\xa3\xe0\xa5\x80:i12'
p721
sS'posn'
p722
S'10'
p723
sS'name'
p724
S'\xe0\xa4\x86\xe0\xa4\xa1\xe0\xa4\xb5\xe0\xa4\xbe\xe0\xa4\xa3\xe0\xa5\x80'
p725
sS'af'
p726
S'\xe0\xa4\x86\xe0\xa4\xa1\xe0\xa4\xb5\xe0\xa4\xbe\xe0\xa4\xa3\xe0\xa5\x80,n,m,sg,3,o,0_\xe0\xa4\xa8\xe0\xa5\x87,0'
p727
sS'chunkid'
p728
S'NP'
p729
sS'creftype'
p730
S'Coreference-Identity:i8'
p731
sS'chunktype'
p732
S'head:NP'
p733
sS'vpos'
p734
S'vib_2'
p735
sS'cref'
p736
S'i12%1:t4'
p737
sS'drel'
p738
S'k1:VGF'
p739
ssbsg34
I00
sg35
I00
sg36
Nsg37
Nsg38
I0
sg39
I1
sg40
Nsg41
Nsg42
S'NNP'
p740
sg44
g717
sg45
I00
sba(issf_api
Word
p741
(dp742
g6
I00
sg7
V\u0928\u0947
p743
sg9
(issf_api
FeatureSet
p744
(dp745
g12
(dp746
S'posn'
p747
S'20'
p748
sS'name'
p749
S'\xe0\xa4\xa8\xe0\xa5\x87'
p750
sS'drel'
p751
S'lwg__psp:NP'
p752
sS'chunktype'
p753
S'child:NP'
p754
sS'af'
p755
S'\xe0\xa4\xa8\xe0\xa5\x87,psp,,,,,,'
p756
ssbsg34
I00
sg35
I00
sg36
Nsg37
Nsg38
I0
sg39
I1
sg40
Nsg41
Nsg42
S'PSP'
p757
sg44
g744
sg45
I00
sba(issf_api
Word
p758
(dp759
g6
I00
sg7
V\u0928\u0915\u093c\u0935\u0940
p760
sg9
(issf_api
FeatureSet
p761
(dp762
g12
(dp763
S'crefhead'
p764
S'\xe0\xa4\xa8\xe0\xa4\x95\xe0\xa4\xbc\xe0\xa4\xb5\xe0\xa5\x80:i13'
p765
sS'posn'
p766
S'30'
p767
sS'name'
p768
S'\xe0\xa4\xa8\xe0\xa4\x95\xe0\xa4\xbc\xe0\xa4\xb5\xe0\xa5\x80'
p769
sS'af'
p770
S'\xe0\xa4\xa8\xe0\xa4\x95\xe0\xa4\xbc\xe0\xa4\xb5\xe0\xa5\x80,n,m,sg,3,o,0_\xe0\xa4\x95\xe0\xa5\x8b,0'
p771
sS'chunkid'
p772
S'NP2'
p773
sS'creftype'
p774
S'Coreference-Identity:i5'
p775
sS'chunktype'
p776
S'head:NP2'
p777
sS'vpos'
p778
S'vib_2'
p779
sS'cref'
p780
S'i13%1:t1'
p781
sS'drel'
p782
S'k4:VGF'
p783
ssbsg34
I00
sg35
I00
sg36
Nsg37
Nsg38
I1
sg39
I1
sg40
Nsg41
Nsg42
S'NNP'
p784
sg44
g761
sg45
I00
sba(issf_api
Word
p785
(dp786
g6
I00
sg7
V\u0915\u094b
p787
sg9
(issf_api
FeatureSet
p788
(dp789
g12
(dp790
S'posn'
p791
S'40'
p792
sS'name'
p793
S'\xe0\xa4\x95\xe0\xa5\x8b'
p794
sS'drel'
p795
S'lwg__psp:NP2'
p796
sS'chunktype'
p797
S'child:NP2'
p798
sS'af'
p799
S'\xe0\xa4\x95\xe0\xa5\x8b,psp,,,,,,'
p800
ssbsg34
I00
sg35
I00
sg36
Nsg37
Nsg38
I1
sg39
I1
sg40
Nsg41
Nsg42
S'PSP'
p801
sg44
g788
sg45
I00
sba(issf_api
Word
p802
(dp803
g6
I00
sg7
V\u0935\u093f\u0935\u093e\u0926\u093e\u0938\u094d\u092a\u0926
p804
sg9
(issf_api
FeatureSet
p805
(dp806
g12
(dp807
S'posn'
p808
S'50'
p809
sS'name'
p810
S'\xe0\xa4\xb5\xe0\xa4\xbf\xe0\xa4\xb5\xe0\xa4\xbe\xe0\xa4\xa6\xe0\xa4\xbe\xe0\xa4\xb8\xe0\xa5\x8d\xe0\xa4\xaa\xe0\xa4\xa6'
p811
sS'af'
p812
S'\xe0\xa4\xb5\xe0\xa4\xbf\xe0\xa4\xb5\xe0\xa4\xbe\xe0\xa4\xa6\xe0\xa4\xbe\xe0\xa4\xb8\xe0\xa5\x8d\xe0\xa4\xaa\xe0\xa4\xa6,adj,any,any,,o,,'
p813
sS'drel'
p814
S'nmod__adj:NP3'
p815
sS'chunktype'
p816
S'child:NP3'
p817
sS'cref'
p818
S'i14%0:t7'
p819
ssbsg34
I00
sg35
I00
sg36
Nsg37
Nsg38
I2
sg39
I1
sg40
Nsg41
Nsg42
S'JJ'
p820
sg44
g805
sg45
I00
sba(issf_api
Word
p821
(dp822
g6
I00
sg7
V\u092c\u092f\u093e\u0928\u094b\u0902
p823
sg9
(issf_api
FeatureSet
p824
(dp825
g12
(dp826
S'crefhead'
p827
S'\xe0\xa4\xac\xe0\xa4\xaf\xe0\xa4\xbe\xe0\xa4\xa8\xe0\xa5\x8b\xe0\xa4\x82:i14'
p828
sS'posn'
p829
S'60'
p830
sS'name'
p831
S'\xe0\xa4\xac\xe0\xa4\xaf\xe0\xa4\xbe\xe0\xa4\xa8\xe0\xa5\x8b\xe0\xa4\x82'
p832
sS'af'
p833
S'\xe0\xa4\xac\xe0\xa4\xaf\xe0\xa4\xbe\xe0\xa4\xa8,n,m,pl,3,o,0_\xe0\xa4\xb8\xe0\xa5\x87,0'
p834
sS'chunkid'
p835
S'NP3'
p836
sS'chunktype'
p837
S'head:NP3'
p838
sS'crefchainhead'
p839
S'i14:t7'
p840
sS'vpos'
p841
S'vib_3'
p842
sS'cref'
p843
S'i14%1:t7'
p844
sS'drel'
p845
S'k5:VGNN'
p846
ssbsg34
I00
sg35
I00
sg36
Nsg37
Nsg38
I2
sg39
I1
sg40
Nsg41
Nsg42
S'NN'
p847
sg44
g824
sg45
I00
sba(issf_api
Word
p848
(dp849
g6
I00
sg7
V\u0938\u0947
p850
sg9
(issf_api
FeatureSet
p851
(dp852
g12
(dp853
S'posn'
p854
S'70'
p855
sS'name'
p856
S'\xe0\xa4\xb8\xe0\xa5\x87'
p857
sS'drel'
p858
S'lwg__psp:NP3'
p859
sS'chunktype'
p860
S'child:NP3'
p861
sS'af'
p862
S'\xe0\xa4\xb8\xe0\xa5\x87,psp,,,,,,'
p863
ssbsg34
I00
sg35
I00
sg36
Nsg37
Nsg38
I2
sg39
I1
sg40
Nsg41
Nsg42
S'PSP'
p864
sg44
g851
sg45
I00
sba(issf_api
Word
p865
(dp866
g6
I00
sg7
V\u092c\u091a\u0928\u0947
p867
sg9
(issf_api
FeatureSet
p868
(dp869
g12
(dp870
S'posn'
p871
S'80'
p872
sS'name'
p873
S'\xe0\xa4\xac\xe0\xa4\x9a\xe0\xa4\xa8\xe0\xa5\x87'
p874
sS'af'
p875
S'\xe0\xa4\xac\xe0\xa4\x9a,v,any,sg,any,o,\xe0\xa4\xa8\xe0\xa4\xbe_\xe0\xa4\x95\xe0\xa4\xbe,nA'
p876
sS'chunkid'
p877
S'VGNN'
p878
sS'drel'
p879
S'r6:NP4'
p880
sS'vpos'
p881
S'tam_2'
p882
sS'chunktype'
p883
S'head:VGNN'
p884
ssbsg34
I00
sg35
I00
sg36
Nsg37
Nsg38
I3
sg39
I1
sg40
Nsg41
Nsg42
S'VM'
p885
sg44
g868
sg45
I00
sba(issf_api
Word
p886
(dp887
g6
I00
sg7
V\u0915\u0940
p888
sg9
(issf_api
FeatureSet
p889
(dp890
g12
(dp891
S'posn'
p892
S'90'
p893
sS'name'
p894
S'\xe0\xa4\x95\xe0\xa5\x80'
p895
sS'drel'
p896
S'lwg__psp:VGNN'
p897
sS'chunktype'
p898
S'child:VGNN'
p899
sS'af'
p900
S'\xe0\xa4\x95\xe0\xa4\xbe,psp,f,sg,,d,,'
p901
ssbsg34
I00
sg35
I00
sg36
Nsg37
Nsg38
I3
sg39
I1
sg40
Nsg41
Nsg42
S'PSP'
p902
sg44
g889
sg45
I00
sba(issf_api
Word
p903
(dp904
g6
I00
sg7
V\u0938\u0916\u094d\u0924
p905
sg9
(issf_api
FeatureSet
p906
(dp907
g12
(dp908
S'posn'
p909
S'100'
p910
sS'name'
p911
S'\xe0\xa4\xb8\xe0\xa4\x96\xe0\xa5\x8d\xe0\xa4\xa4'
p912
sS'drel'
p913
S'nmod__adj:NP4'
p914
sS'chunktype'
p915
S'child:NP4'
p916
sS'af'
p917
S'\xe0\xa4\xb8\xe0\xa4\x96\xe0\xa5\x8d\xe0\xa4\xa4,adj,any,any,,d,,'
p918
ssbsg34
I00
sg35
I00
sg36
Nsg37
Nsg38
I4
sg39
I1
sg40
Nsg41
Nsg42
S'JJ'
p919
sg44
g906
sg45
I00
sba(issf_api
Word
p920
(dp921
g6
I00
sg7
V\u0928\u0938\u0940\u0939\u0924
p922
sg9
(issf_api
FeatureSet
p923
(dp924
g12
(dp925
S'posn'
p926
S'110'
p927
sS'name'
p928
S'\xe0\xa4\xa8\xe0\xa4\xb8\xe0\xa5\x80\xe0\xa4\xb9\xe0\xa4\xa4'
p929
sS'af'
p930
S'\xe0\xa4\xa8\xe0\xa4\xb8\xe0\xa5\x80\xe0\xa4\xb9\xe0\xa4\xa4,n,f,sg,3,d,0,0'
p931
sS'chunkid'
p932
S'NP4'
p933
sS'drel'
p934
S'k2:VGF'
p935
sS'chunktype'
p936
S'head:NP4'
p937
ssbsg34
I00
sg35
I00
sg36
Nsg37
Nsg38
I4
sg39
I1
sg40
Nsg41
Nsg42
S'NN'
p938
sg44
g923
sg45
I00
sba(issf_api
Word
p939
(dp940
g6
I00
sg7
V\u0926\u0940
p941
sg9
(issf_api
FeatureSet
p942
(dp943
g12
(dp944
S'posn'
p945
S'120'
p946
sS'name'
p947
S'\xe0\xa4\xa6\xe0\xa5\x80'
p948
sS'af'
p949
S'\xe0\xa4\xa6\xe0\xa5\x87,v,f,sg,3,,\xe0\xa4\xaf\xe0\xa4\xbe_\xe0\xa4\xb9\xe0\xa5\x88,yA'
p950
sS'chunkid'
p951
S'VGF'
p952
sS'chunktype'
p953
S'head:VGF'
p954
sS'voicetype'
p955
S'active'
p956
sS'vpos'
p957
S'tam_2'
p958
sS'stype'
p959
S'declarative'
p960
ssbsg34
I00
sg35
I00
sg36
Nsg37
Nsg38
I5
sg39
I1
sg40
Nsg41
Nsg42
S'VM'
p961
sg44
g942
sg45
I00
sba(issf_api
Word
p962
(dp963
g6
I00
sg7
V\u0939\u0948
p964
sg9
(issf_api
FeatureSet
p965
(dp966
g12
(dp967
S'posn'
p968
S'130'
p969
sS'name'
p970
S'\xe0\xa4\xb9\xe0\xa5\x88'
p971
sS'drel'
p972
S'lwg__vaux:VGF'
p973
sS'chunktype'
p974
S'child:VGF'
p975
sS'af'
p976
S'\xe0\xa4\xb9\xe0\xa5\x88,v,any,sg,3,,\xe0\xa4\xb9\xe0\xa5\x88,hE'
p977
ssbsg34
I00
sg35
I00
sg36
Nsg37
Nsg38
I5
sg39
I1
sg40
Nsg41
Nsg42
S'VAUX'
p978
sg44
g965
sg45
I00
sba(issf_api
Word
p979
(dp980
g6
I00
sg7
V\u0964
p981
sg9
(issf_api
FeatureSet
p982
(dp983
g12
(dp984
S'posn'
p985
S'140'
p986
sS'name'
p987
S'\xe0\xa5\xa4'
p988
sS'af'
p989
S'\xe0\xa5\xa4,punc,,,,,,'
p990
sS'chunkid'
p991
S'BLK'
p992
sS'drel'
p993
S'rsym:VGF'
p994
sS'chunktype'
p995
S'head:BLK'
p996
ssbsg34
I00
sg35
I00
sg36
Nsg37
Nsg38
I6
sg39
I1
sg40
Nsg41
Nsg42
S'SYM'
p997
sg44
g982
sg45
I00
sba(issf_api
Word
p998
(dp999
g6
I00
sg7
V\u0909\u0928\u094d\u0939\u094b\u0902\u0928\u0947
p1000
sg9
(issf_api
FeatureSet
p1001
(dp1002
g12
(dp1003
S'crefhead'
p1004
S'\xe0\xa4\x89\xe0\xa4\xa8\xe0\xa5\x8d\xe0\xa4\xb9\xe0\xa5\x8b\xe0\xa4\x82\xe0\xa4\xa8\xe0\xa5\x87:i15'
p1005
sS'posn'
p1006
S'10'
p1007
sS'name'
p1008
S'\xe0\xa4\x89\xe0\xa4\xa8\xe0\xa5\x8d\xe0\xa4\xb9\xe0\xa5\x8b\xe0\xa4\x82\xe0\xa4\xa8\xe0\xa5\x87'
p1009
sS'af'
p1010
S'\xe0\xa4\xb5\xe0\xa4\xb9,pn,any,sg,3h,o,\xe0\xa4\xa8\xe0\xa5\x87,ne'
p1011
sS'chunkid'
p1012
S'NP'
p1013
sS'creftype'
p1014
S'Anaphora-C:i12'
p1015
sS'chunktype'
p1016
S'head:NP'
p1017
sS'cref'
p1018
S'i15%1:t4'
p1019
sS'drel'
p1020
S'k1:VGF'
p1021
ssbsg34
I00
sg35
I00
sg36
Nsg37
Nsg38
I0
sg39
I2
sg40
Nsg41
Nsg42
S'PRP'
p1022
sg44
g1001
sg45
I00
sba(issf_api
Word
p1023
(dp1024
g6
I00
sg7
V\u092a\u093e\u0930\u094d\u091f\u0940
p1025
sg9
(issf_api
FeatureSet
p1026
(dp1027
g12
(dp1028
S'crefhead'
p1029
S'\xe0\xa4\xaa\xe0\xa4\xbe\xe0\xa4\xb0\xe0\xa5\x8d\xe0\xa4\x9f\xe0\xa5\x80:i17'
p1030
sS'posn'
p1031
S'20'
p1032
sS'name'
p1033
S'\xe0\xa4\xaa\xe0\xa4\xbe\xe0\xa4\xb0\xe0\xa5\x8d\xe0\xa4\x9f\xe0\xa5\x80'
p1034
sS'af'
p1035
S'\xe0\xa4\xaa\xe0\xa4\xbe\xe0\xa4\xb0\xe0\xa5\x8d\xe0\xa4\x9f\xe0\xa5\x80,n,f,sg,3,d,0,0'
p1036
sS'creftype'
p1037
S'Coreference-Identity:i7'
p1038
sS'drel'
p1039
S'pof__cn:NP2'
p1040
sS'chunktype'
p1041
S'child:NP2'
p1042
sS'cref'
p1043
S'i16%0:t4,i17%1:t3'
p1044
ssbsg34
I00
sg35
I00
sg36
Nsg37
Nsg38
I1
sg39
I2
sg40
Nsg41
Nsg42
S'NNC'
p1045
sg44
g1026
sg45
I00
sba(issf_api
Word
p1046
(dp1047
g6
I00
sg7
V\u0905\u0927\u094d\u092f\u0915\u094d\u0937
p1048
sg9
(issf_api
FeatureSet
p1049
(dp1050
g12
(dp1051
S'crefhead'
p1052
S'\xe0\xa4\x85\xe0\xa4\xa7\xe0\xa5\x8d\xe0\xa4\xaf\xe0\xa4\x95\xe0\xa5\x8d\xe0\xa4\xb7:i16'
p1053
sS'posn'
p1054
S'30'
p1055
sS'name'
p1056
S'\xe0\xa4\x85\xe0\xa4\xa7\xe0\xa5\x8d\xe0\xa4\xaf\xe0\xa4\x95\xe0\xa5\x8d\xe0\xa4\xb7'
p1057
sS'af'
p1058
S'\xe0\xa4\x85\xe0\xa4\xa7\xe0\xa5\x8d\xe0\xa4\xaf\xe0\xa4\x95\xe0\xa5\x8d\xe0\xa4\xb7,n,m,sg,3,o,0_\xe0\xa4\x95\xe0\xa5\x8b,0'
p1059
sS'chunkid'
p1060
S'NP2'
p1061
sS'creftype'
p1062
S'Coreference-Noun-Noun:i15'
p1063
sS'chunktype'
p1064
S'head:NP2'
p1065
sS'vpos'
p1066
S'vib_3'
p1067
sS'cref'
p1068
S'i16%1:t4'
p1069
sS'drel'
p1070
S'k4:VGF'
p1071
ssbsg34
I00
sg35
I00
sg36
Nsg37
Nsg38
I1
sg39
I2
sg40
Nsg41
Nsg42
S'NN'
p1072
sg44
g1049
sg45
I00
sba(issf_api
Word
p1073
(dp1074
g6
I00
sg7
V\u0915\u094b
p1075
sg9
(issf_api
FeatureSet
p1076
(dp1077
g12
(dp1078
S'posn'
p1079
S'40'
p1080
sS'name'
p1081
S'\xe0\xa4\x95\xe0\xa5\x8b'
p1082
sS'drel'
p1083
S'lwg__psp:NP2'
p1084
sS'chunktype'
p1085
S'child:NP2'
p1086
sS'af'
p1087
S'\xe0\xa4\x95\xe0\xa5\x8b,psp,,,,,,'
p1088
ssbsg34
I00
sg35
I00
sg36
Nsg37
Nsg38
I1
sg39
I2
sg40
Nsg41
Nsg42
S'PSP'
p1089
sg44
g1076
sg45
I00
sba(issf_api
Word
p1090
(dp1091
g6
I00
sg7
V\u0906\u0936\u094d\u0935\u093e\u0938\u0928
p1092
sg9
(issf_api
FeatureSet
p1093
(dp1094
g12
(dp1095
S'posn'
p1096
S'50'
p1097
sS'name'
p1098
S'\xe0\xa4\x86\xe0\xa4\xb6\xe0\xa5\x8d\xe0\xa4\xb5\xe0\xa4\xbe\xe0\xa4\xb8\xe0\xa4\xa8'
p1099
sS'af'
p1100
S'\xe0\xa4\x86\xe0\xa4\xb6\xe0\xa5\x8d\xe0\xa4\xb5\xe0\xa4\xbe\xe0\xa4\xb8\xe0\xa4\xa8,n,m,sg,3,d,0,0'
p1101
sS'chunkid'
p1102
S'NP3'
p1103
sS'drel'
p1104
S'pof:VGF'
p1105
sS'chunktype'
p1106
S'head:NP3'
p1107
ssbsg34
I00
sg35
I00
sg36
Nsg37
Nsg38
I2
sg39
I2
sg40
Nsg41
Nsg42
S'NN'
p1108
sg44
g1093
sg45
I00
sba(issf_api
Word
p1109
(dp1110
g6
I00
sg7
V\u0926\u093f\u092f\u093e
p1111
sg9
(issf_api
FeatureSet
p1112
(dp1113
g12
(dp1114
S'posn'
p1115
S'60'
p1116
sS'name'
p1117
S'\xe0\xa4\xa6\xe0\xa4\xbf\xe0\xa4\xaf\xe0\xa4\xbe'
p1118
sS'af'
p1119
S'\xe0\xa4\xa6\xe0\xa5\x87,v,m,sg,any,,\xe0\xa4\xaf\xe0\xa4\xbe,yA'
p1120
sS'chunkid'
p1121
S'VGF'
p1122
sS'chunktype'
p1123
S'head:VGF'
p1124
sS'voicetype'
p1125
S'active'
p1126
sS'stype'
p1127
S'declarative'
p1128
ssbsg34
I00
sg35
I00
sg36
Nsg37
Nsg38
I3
sg39
I2
sg40
Nsg41
Nsg42
S'VM'
p1129
sg44
g1112
sg45
I00
sba(issf_api
Word
p1130
(dp1131
g6
I00
sg7
V\u0915\u093f
p1132
sg9
(issf_api
FeatureSet
p1133
(dp1134
g12
(dp1135
S'posn'
p1136
S'70'
p1137
sS'name'
p1138
S'\xe0\xa4\x95\xe0\xa4\xbf'
p1139
sS'af'
p1140
S'\xe0\xa4\x95\xe0\xa4\xbf,avy,,,,,,'
p1141
sS'chunkid'
p1142
S'CCP'
p1143
sS'drel'
p1144
S'k2:VGF'
p1145
sS'chunktype'
p1146
S'head:CCP'
p1147
ssbsg34
I00
sg35
I00
sg36
Nsg37
Nsg38
I4
sg39
I2
sg40
Nsg41
Nsg42
S'CC'
p1148
sg44
g1133
sg45
I00
sba(issf_api
Word
p1149
(dp1150
g6
I00
sg7
V\u0935\u0939
p1151
sg9
(issf_api
FeatureSet
p1152
(dp1153
g12
(dp1154
S'crefhead'
p1155
S'\xe0\xa4\xb5\xe0\xa4\xb9:i18'
p1156
sS'posn'
p1157
S'80'
p1158
sS'name'
p1159
S'\xe0\xa4\xb5\xe0\xa4\xb9'
p1160
sS'af'
p1161
S'\xe0\xa4\xb5\xe0\xa4\xb9,pn,any,sg,3,d,0,0'
p1162
sS'chunkid'
p1163
S'NP4'
p1164
sS'creftype'
p1165
S'Anaphora-C:i16'
p1166
sS'chunktype'
p1167
S'head:NP4'
p1168
sS'cref'
p1169
S'i18%1:t4'
p1170
sS'drel'
p1171
S'k1:VGF2'
p1172
ssbsg34
I00
sg35
I00
sg36
Nsg37
Nsg38
I5
sg39
I2
sg40
Nsg41
Nsg42
S'PRP'
p1173
sg44
g1152
sg45
I00
sba(issf_api
Word
p1174
(dp1175
g6
I00
sg7
V\u092d\u0935\u093f\u0937\u094d\u092f
p1176
sg9
(issf_api
FeatureSet
p1177
(dp1178
g12
(dp1179
S'posn'
p1180
S'90'
p1181
sS'name'
p1182
S'\xe0\xa4\xad\xe0\xa4\xb5\xe0\xa4\xbf\xe0\xa4\xb7\xe0\xa5\x8d\xe0\xa4\xaf'
p1183
sS'af'
p1184
S'\xe0\xa4\xad\xe0\xa4\xb5\xe0\xa4\xbf\xe0\xa4\xb7\xe0\xa5\x8d\xe0\xa4\xaf,n,m,sg,3,o,0_\xe0\xa4\xae\xe0\xa5\x87\xe0\xa4\x82,0'
p1185
sS'chunkid'
p1186
S'NP5'
p1187
sS'drel'
p1188
S'k7:VGF2'
p1189
sS'vpos'
p1190
S'vib_2'
p1191
sS'chunktype'
p1192
S'head:NP5'
p1193
ssbsg34
I00
sg35
I00
sg36
Nsg37
Nsg38
I6
sg39
I2
sg40
Nsg41
Nsg42
S'NN'
p1194
sg44
g1177
sg45
I00
sba(issf_api
Word
p1195
(dp1196
g6
I00
sg7
V\u092e\u0947\u0902
p1197
sg9
(issf_api
FeatureSet
p1198
(dp1199
g12
(dp1200
S'posn'
p1201
S'100'
p1202
sS'name'
p1203
S'\xe0\xa4\xae\xe0\xa5\x87\xe0\xa4\x82'
p1204
sS'drel'
p1205
S'lwg__psp:NP5'
p1206
sS'chunktype'
p1207
S'child:NP5'
p1208
sS'af'
p1209
S'\xe0\xa4\xae\xe0\xa5\x87\xe0\xa4\x82,psp,,,,,,'
p1210
ssbsg34
I00
sg35
I00
sg36
Nsg37
Nsg38
I6
sg39
I2
sg40
Nsg41
Nsg42
S'PSP'
p1211
sg44
g1198
sg45
I00
sba(issf_api
Word
p1212
(dp1213
g6
I00
sg7
V\u0907\u0938
p1214
sg9
(issf_api
FeatureSet
p1215
(dp1216
g12
(dp1217
S'posn'
p1218
S'110'
p1219
sS'name'
p1220
S'\xe0\xa4\x87\xe0\xa4\xb8'
p1221
sS'af'
p1222
S'\xe0\xa4\xaf\xe0\xa4\xb9,pn,any,sg,3,o,,'
p1223
sS'acrefmod'
p1224
S'm2%0:i19'
p1225
sS'drel'
p1226
S'nmod__adj:NP6'
p1227
sS'chunktype'
p1228
S'child:NP6'
p1229
ssbsg34
I00
sg35
I00
sg36
Nsg37
Nsg38
I7
sg39
I2
sg40
Nsg41
Nsg42
S'DEM'
p1230
sg44
g1215
sg45
I00
sba(issf_api
Word
p1231
(dp1232
g6
I00
sg7
V\u0924\u0930\u0939
p1233
sg9
(issf_api
FeatureSet
p1234
(dp1235
g12
(dp1236
S'posn'
p1237
S'120'
p1238
sS'name'
p1239
S'\xe0\xa4\xa4\xe0\xa4\xb0\xe0\xa4\xb9'
p1240
sS'af'
p1241
S'\xe0\xa4\xa4\xe0\xa4\xb0\xe0\xa4\xb9,n,f,sg,3,o,0_\xe0\xa4\x95\xe0\xa4\xbe,0'
p1242
sS'acrefmodhead'
p1243
S'\xe0\xa4\xa4\xe0\xa4\xb0\xe0\xa4\xb9:m2'
p1244
sS'chunkid'
p1245
S'NP6'
p1246
sS'acrefmod'
p1247
S'm2%1:i19'
p1248
sS'drel'
p1249
S'r6:NP7'
p1250
sS'vpos'
p1251
S'vib_3'
p1252
sS'chunktype'
p1253
S'head:NP6'
p1254
ssbsg34
I00
sg35
I00
sg36
Nsg37
Nsg38
I7
sg39
I2
sg40
Nsg41
Nsg42
S'NN'
p1255
sg44
g1234
sg45
I00
sba(issf_api
Word
p1256
(dp1257
g6
I00
sg7
V\u0915\u0947
p1258
sg9
(issf_api
FeatureSet
p1259
(dp1260
g12
(dp1261
S'posn'
p1262
S'130'
p1263
sS'name'
p1264
S'\xe0\xa4\x95\xe0\xa5\x87'
p1265
sS'drel'
p1266
S'lwg__psp:NP6'
p1267
sS'chunktype'
p1268
S'child:NP6'
p1269
sS'af'
p1270
S'\xe0\xa4\x95\xe0\xa4\xbe,psp,m,sg,,o,,'
p1271
ssbsg34
I00
sg35
I00
sg36
Nsg37
Nsg38
I7
sg39
I2
sg40
Nsg41
Nsg42
S'PSP'
p1272
sg44
g1259
sg45
I00
sba(issf_api
Word
p1273
(dp1274
g6
I00
sg7
V\u092c\u092f\u093e\u0928\u094b\u0902
p1275
sg9
(issf_api
FeatureSet
p1276
(dp1277
g12
(dp1278
S'crefhead'
p1279
S'\xe0\xa4\xac\xe0\xa4\xaf\xe0\xa4\xbe\xe0\xa4\xa8\xe0\xa5\x8b\xe0\xa4\x82:i19'
p1280
sS'posn'
p1281
S'140'
p1282
sS'name'
p1283
S'\xe0\xa4\xac\xe0\xa4\xaf\xe0\xa4\xbe\xe0\xa4\xa8\xe0\xa5\x8b\xe0\xa4\x82'
p1284
sS'af'
p1285
S'\xe0\xa4\xac\xe0\xa4\xaf\xe0\xa4\xbe\xe0\xa4\xa8,n,m,pl,3,o,0_\xe0\xa4\xb8\xe0\xa5\x87,0'
p1286
sS'chunkid'
p1287
S'NP7'
p1288
sS'crefmod'
p1289
S'm2:i19'
p1290
sS'creftype'
p1291
S'Coreference-Identity:i14'
p1292
sS'chunktype'
p1293
S'head:NP7'
p1294
sS'vpos'
p1295
S'vib_2'
p1296
sS'cref'
p1297
S'i19%1:t7'
p1298
sS'drel'
p1299
S'k2:VGF2'
p1300
ssbsg34
I00
sg35
I00
sg36
Nsg37
Nsg38
I8
sg39
I2
sg40
Nsg41
Nsg42
S'NN'
p1301
sg44
g1276
sg45
I00
sba(issf_api
Word
p1302
(dp1303
g6
I00
sg7
V\u0938\u0947
p1304
sg9
(issf_api
FeatureSet
p1305
(dp1306
g12
(dp1307
S'posn'
p1308
S'150'
p1309
sS'name'
p1310
S'\xe0\xa4\xb8\xe0\xa5\x87'
p1311
sS'drel'
p1312
S'lwg__psp:NP7'
p1313
sS'chunktype'
p1314
S'child:NP7'
p1315
sS'af'
p1316
S'\xe0\xa4\xb8\xe0\xa5\x87,psp,,,,,,'
p1317
ssbsg34
I00
sg35
I00
sg36
Nsg37
Nsg38
I8
sg39
I2
sg40
Nsg41
Nsg42
S'PSP'
p1318
sg44
g1305
sg45
I00
sba(issf_api
Word
p1319
(dp1320
g6
I00
sg7
V\u092a\u0930\u0939\u0947\u091c
p1321
sg9
(issf_api
FeatureSet
p1322
(dp1323
g12
(dp1324
S'posn'
p1325
S'160'
p1326
sS'name'
p1327
S'\xe0\xa4\xaa\xe0\xa4\xb0\xe0\xa4\xb9\xe0\xa5\x87\xe0\xa4\x9c'
p1328
sS'af'
p1329
S'\xe0\xa4\xaa\xe0\xa4\xb0\xe0\xa4\xb9\xe0\xa5\x87\xe0\xa4\x9c,n,m,sg,3,d,0,0'
p1330
sS'chunkid'
p1331
S'NP8'
p1332
sS'drel'
p1333
S'pof:VGF2'
p1334
sS'chunktype'
p1335
S'head:NP8'
p1336
ssbsg34
I00
sg35
I00
sg36
Nsg37
Nsg38
I9
sg39
I2
sg40
Nsg41
Nsg42
S'NN'
p1337
sg44
g1322
sg45
I00
sba(issf_api
Word
p1338
(dp1339
g6
I00
sg7
V\u0915\u0930\u0947\u0902\u0917\u0947
p1340
sg9
(issf_api
FeatureSet
p1341
(dp1342
g12
(dp1343
S'posn'
p1344
S'170'
p1345
sS'name'
p1346
S'\xe0\xa4\x95\xe0\xa4\xb0\xe0\xa5\x87\xe0\xa4\x82\xe0\xa4\x97\xe0\xa5\x87'
p1347
sS'af'
p1348
S'\xe0\xa4\x95\xe0\xa4\xb0,v,m,sg,3h,,\xe0\xa4\x97\xe0\xa4\xbe,gA'
p1349
sS'chunkid'
p1350
S'VGF2'
p1351
sS'stype'
p1352
S'declarative'
p1353
sS'drel'
p1354
S'ccof:CCP'
p1355
sS'voicetype'
p1356
S'active'
p1357
sS'chunktype'
p1358
S'head:VGF2'
p1359
ssbsg34
I00
sg35
I00
sg36
Nsg37
Nsg38
I10
sg39
I2
sg40
Nsg41
Nsg42
S'VM'
p1360
sg44
g1341
sg45
I00
sba(issf_api
Word
p1361
(dp1362
g6
I00
sg7
V\u0964
p1363
sg9
(issf_api
FeatureSet
p1364
(dp1365
g12
(dp1366
S'posn'
p1367
S'180'
p1368
sS'name'
p1369
S'\xe0\xa5\xa4'
p1370
sS'af'
p1371
S'\xe0\xa5\xa4,punc,,,,,,'
p1372
sS'chunkid'
p1373
S'BLK'
p1374
sS'drel'
p1375
S'rsym:VGF'
p1376
sS'chunktype'
p1377
S'head:BLK'
p1378
ssbsg34
I00
sg35
I00
sg36
Nsg37
Nsg38
I11
sg39
I2
sg40
Nsg41
Nsg42
S'SYM'
p1379
sg44
g1364
sg45
I00
sba(issf_api
Word
p1380
(dp1381
g6
I00
sg7
V\u0909\u0932\u094d\u0932\u0947\u0916\u0928\u0940\u092f
p1382
sg9
(issf_api
FeatureSet
p1383
(dp1384
g12
(dp1385
S'posn'
p1386
S'10'
p1387
sS'name'
p1388
S'\xe0\xa4\x89\xe0\xa4\xb2\xe0\xa5\x8d\xe0\xa4\xb2\xe0\xa5\x87\xe0\xa4\x96\xe0\xa4\xa8\xe0\xa5\x80\xe0\xa4\xaf'
p1389
sS'af'
p1390
S'\xe0\xa4\x89\xe0\xa4\xb2\xe0\xa5\x8d\xe0\xa4\xb2\xe0\xa5\x87\xe0\xa4\x96\xe0\xa4\xa8\xe0\xa5\x80\xe0\xa4\xaf,adj,any,any,,,,'
p1391
sS'chunkid'
p1392
S'JJP'
p1393
sS'drel'
p1394
S'k1s:VGF'
p1395
sS'chunktype'
p1396
S'head:JJP'
p1397
ssbsg34
I00
sg35
I00
sg36
Nsg37
Nsg38
I0
sg39
I3
sg40
Nsg41
Nsg42
S'JJ'
p1398
sg44
g1383
sg45
I00
sba(issf_api
Word
p1399
(dp1400
g6
I00
sg7
V\u0939\u0948
p1401
sg9
(issf_api
FeatureSet
p1402
(dp1403
g12
(dp1404
S'posn'
p1405
S'20'
p1406
sS'name'
p1407
S'\xe0\xa4\xb9\xe0\xa5\x88'
p1408
sS'af'
p1409
S'\xe0\xa4\xb9\xe0\xa5\x88,v,any,sg,3,,\xe0\xa4\xb9\xe0\xa5\x88,hE'
p1410
sS'chunkid'
p1411
S'VGF'
p1412
sS'chunktype'
p1413
S'head:VGF'
p1414
sS'voicetype'
p1415
S'active'
p1416
sS'stype'
p1417
S'declarative'
p1418
ssbsg34
I00
sg35
I00
sg36
Nsg37
Nsg38
I1
sg39
I3
sg40
Nsg41
Nsg42
S'VM'
p1419
sg44
g1402
sg45
I00
sba(issf_api
Word
p1420
(dp1421
g6
I00
sg7
V\u0915\u093f
p1422
sg9
(issf_api
FeatureSet
p1423
(dp1424
g12
(dp1425
S'posn'
p1426
S'30'
p1427
sS'name'
p1428
S'\xe0\xa4\x95\xe0\xa4\xbf'
p1429
sS'af'
p1430
S'\xe0\xa4\x95\xe0\xa4\xbf,avy,,,,,,'
p1431
sS'chunkid'
p1432
S'CCP'
p1433
sS'drel'
p1434
S'rs:NULL__NP'
p1435
sS'chunktype'
p1436
S'head:CCP'
p1437
ssbsg34
I00
sg35
I00
sg36
Nsg37
Nsg38
I2
sg39
I3
sg40
Nsg41
Nsg42
S'CC'
p1438
sg44
g1423
sg45
I00
sba(issf_api
Word
p1439
(dp1440
g6
I00
sg7
V\u0928\u0915\u093c\u0935\u0940
p1441
sg9
(issf_api
FeatureSet
p1442
(dp1443
g12
(dp1444
S'crefhead'
p1445
S'\xe0\xa4\xa8\xe0\xa4\x95\xe0\xa4\xbc\xe0\xa4\xb5\xe0\xa5\x80:i20'
p1446
sS'posn'
p1447
S'40'
p1448
sS'name'
p1449
S'\xe0\xa4\xa8\xe0\xa4\x95\xe0\xa4\xbc\xe0\xa4\xb5\xe0\xa5\x80'
p1450
sS'af'
p1451
S'\xe0\xa4\xa8\xe0\xa4\x95\xe0\xa4\xbc\xe0\xa4\xb5\xe0\xa5\x80,n,m,sg,3,o,0_\xe0\xa4\xa8\xe0\xa5\x87,0'
p1452
sS'chunkid'
p1453
S'NP'
p1454
sS'creftype'
p1455
S'Coreference-Identity:i13'
p1456
sS'chunktype'
p1457
S'head:NP'
p1458
sS'vpos'
p1459
S'vib_2'
p1460
sS'cref'
p1461
S'i20%1:t1'
p1462
sS'drel'
p1463
S'k1:VGF2'
p1464
ssbsg34
I00
sg35
I00
sg36
Nsg37
Nsg38
I3
sg39
I3
sg40
Nsg41
Nsg42
S'NNP'
p1465
sg44
g1442
sg45
I00
sba(issf_api
Word
p1466
(dp1467
g6
I00
sg7
V\u0928\u0947
p1468
sg9
(issf_api
FeatureSet
p1469
(dp1470
g12
(dp1471
S'posn'
p1472
S'50'
p1473
sS'name'
p1474
S'\xe0\xa4\xa8\xe0\xa5\x87'
p1475
sS'drel'
p1476
S'lwg__psp:NP'
p1477
sS'chunktype'
p1478
S'child:NP'
p1479
sS'af'
p1480
S'\xe0\xa4\xa8\xe0\xa5\x87,psp,,,,,,'
p1481
ssbsg34
I00
sg35
I00
sg36
Nsg37
Nsg38
I3
sg39
I3
sg40
Nsg41
Nsg42
S'PSP'
p1482
sg44
g1469
sg45
I00
sba(issf_api
Word
p1483
(dp1484
g6
I00
sg7
V\u0936\u0941\u0915\u094d\u0930\u0935\u093e\u0930
p1485
sg9
(issf_api
FeatureSet
p1486
(dp1487
g12
(dp1488
S'posn'
p1489
S'60'
p1490
sS'name'
p1491
S'\xe0\xa4\xb6\xe0\xa5\x81\xe0\xa4\x95\xe0\xa5\x8d\xe0\xa4\xb0\xe0\xa4\xb5\xe0\xa4\xbe\xe0\xa4\xb0'
p1492
sS'af'
p1493
S'\xe0\xa4\xb6\xe0\xa5\x81\xe0\xa4\x95\xe0\xa5\x8d\xe0\xa4\xb0\xe0\xa4\xb5\xe0\xa4\xbe\xe0\xa4\xb0,n,m,sg,3,o,0_\xe0\xa4\x95\xe0\xa5\x8b,0'
p1494
sS'chunkid'
p1495
S'NP2'
p1496
sS'drel'
p1497
S'k7t:VGF2'
p1498
sS'vpos'
p1499
S'vib_2'
p1500
sS'chunktype'
p1501
S'head:NP2'
p1502
ssbsg34
I00
sg35
I00
sg36
Nsg37
Nsg38
I4
sg39
I3
sg40
Nsg41
Nsg42
S'NNP'
p1503
sg44
g1486
sg45
I00
sba(issf_api
Word
p1504
(dp1505
g6
I00
sg7
V\u0915\u094b
p1506
sg9
(issf_api
FeatureSet
p1507
(dp1508
g12
(dp1509
S'posn'
p1510
S'70'
p1511
sS'name'
p1512
S'\xe0\xa4\x95\xe0\xa5\x8b'
p1513
sS'drel'
p1514
S'lwg__psp:NP2'
p1515
sS'chunktype'
p1516
S'child:NP2'
p1517
sS'af'
p1518
S'\xe0\xa4\x95\xe0\xa5\x8b,psp,,,,,,'
p1519
ssbsg34
I00
sg35
I00
sg36
Nsg37
Nsg38
I4
sg39
I3
sg40
Nsg41
Nsg42
S'PSP'
p1520
sg44
g1507
sg45
I00
sba(issf_api
Word
p1521
(dp1522
g6
I00
sg7
V\u0930\u093e\u092e\u092a\u0941\u0930
p1523
sg9
(issf_api
FeatureSet
p1524
(dp1525
g12
(dp1526
S'posn'
p1527
S'80'
p1528
sS'name'
p1529
S'\xe0\xa4\xb0\xe0\xa4\xbe\xe0\xa4\xae\xe0\xa4\xaa\xe0\xa5\x81\xe0\xa4\xb0'
p1530
sS'af'
p1531
S'\xe0\xa4\xb0\xe0\xa4\xbe\xe0\xa4\xae\xe0\xa4\xaa\xe0\xa5\x81\xe0\xa4\xb0,n,m,sg,3,o,0_\xe0\xa4\xae\xe0\xa5\x87\xe0\xa4\x82,0'
p1532
sS'chunkid'
p1533
S'NP3'
p1534
sS'drel'
p1535
S'k7p:VGF2'
p1536
sS'vpos'
p1537
S'vib_2'
p1538
sS'chunktype'
p1539
S'head:NP3'
p1540
ssbsg34
I00
sg35
I00
sg36
Nsg37
Nsg38
I5
sg39
I3
sg40
Nsg41
Nsg42
S'NNP'
p1541
sg44
g1524
sg45
I00
sba(issf_api
Word
p1542
(dp1543
g6
I00
sg7
V\u092e\u0947\u0902
p1544
sg9
(issf_api
FeatureSet
p1545
(dp1546
g12
(dp1547
S'posn'
p1548
S'90'
p1549
sS'name'
p1550
S'\xe0\xa4\xae\xe0\xa5\x87\xe0\xa4\x82'
p1551
sS'drel'
p1552
S'lwg__psp:NP3'
p1553
sS'chunktype'
p1554
S'child:NP3'
p1555
sS'af'
p1556
S'\xe0\xa4\xae\xe0\xa5\x87\xe0\xa4\x82,psp,,,,,,'
p1557
ssbsg34
I00
sg35
I00
sg36
Nsg37
Nsg38
I5
sg39
I3
sg40
Nsg41
Nsg42
S'PSP'
p1558
sg44
g1545
sg45
I00
sba(issf_api
Word
p1559
(dp1560
g6
I00
sg7
V\u0915\u0939\u093e
p1561
sg9
(issf_api
FeatureSet
p1562
(dp1563
g12
(dp1564
S'posn'
p1565
S'100'
p1566
sS'name'
p1567
S'\xe0\xa4\x95\xe0\xa4\xb9\xe0\xa4\xbe'
p1568
sS'af'
p1569
S'\xe0\xa4\x95\xe0\xa4\xb9,v,m,sg,any,,\xe0\xa4\xaf\xe0\xa4\xbe_\xe0\xa4\xa5\xe0\xa4\xbe,yA'
p1570
sS'chunkid'
p1571
S'VGF2'
p1572
sS'stype'
p1573
S'declarative'
p1574
sS'drel'
p1575
S'ccof:CCP'
p1576
sS'voicetype'
p1577
S'active'
p1578
sS'vpos'
p1579
S'tam_2'
p1580
sS'chunktype'
p1581
S'head:VGF2'
p1582
ssbsg34
I00
sg35
I00
sg36
Nsg37
Nsg38
I6
sg39
I3
sg40
Nsg41
Nsg42
S'VM'
p1583
sg44
g1562
sg45
I00
sba(issf_api
Word
p1584
(dp1585
g6
I00
sg7
V\u0925\u093e
p1586
sg9
(issf_api
FeatureSet
p1587
(dp1588
g12
(dp1589
S'posn'
p1590
S'110'
p1591
sS'name'
p1592
S'\xe0\xa4\xa5\xe0\xa4\xbe'
p1593
sS'drel'
p1594
S'lwg__vaux:VGF2'
p1595
sS'chunktype'
p1596
S'child:VGF2'
p1597
sS'af'
p1598
S'\xe0\xa4\xa5\xe0\xa4\xbe,v,m,sg,any,,\xe0\xa4\xa5\xe0\xa4\xbe,WA'
p1599
ssbsg34
I00
sg35
I00
sg36
Nsg37
Nsg38
I6
sg39
I3
sg40
Nsg41
Nsg42
S'VAUX'
p1600
sg44
g1587
sg45
I00
sba(issf_api
Word
p1601
(dp1602
g6
I00
sg7
V\u0915\u093f
p1603
sg9
(issf_api
FeatureSet
p1604
(dp1605
g12
(dp1606
S'posn'
p1607
S'120'
p1608
sS'name'
p1609
S'\xe0\xa4\x95\xe0\xa4\xbf2'
p1610
sS'af'
p1611
S'\xe0\xa4\x95\xe0\xa4\xbf,avy,,,,,,'
p1612
sS'chunkid'
p1613
S'CCP2'
p1614
sS'drel'
p1615
S'k2:VGF2'
p1616
sS'chunktype'
p1617
S'head:CCP2'
p1618
ssbsg34
I00
sg35
I00
sg36
Nsg37
Nsg38
I7
sg39
I3
sg40
Nsg41
Nsg42
S'CC'
p1619
sg44
g1604
sg45
I00
sba(issf_api
Word
p1620
(dp1621
g6
I00
sg7
V\u0905\u0917\u0932\u0947
p1622
sg9
(issf_api
FeatureSet
p1623
(dp1624
g12
(dp1625
S'posn'
p1626
S'130'
p1627
sS'name'
p1628
S'\xe0\xa4\x85\xe0\xa4\x97\xe0\xa4\xb2\xe0\xa5\x87'
p1629
sS'drel'
p1630
S'nmod__adj:NP4'
p1631
sS'chunktype'
p1632
S'child:NP4'
p1633
sS'af'
p1634
S'\xe0\xa4\x85\xe0\xa4\x97\xe0\xa4\xb2\xe0\xa4\xbe,adj,m,pl,,o,,'
p1635
ssbsg34
I00
sg35
I00
sg36
Nsg37
Nsg38
I8
sg39
I3
sg40
Nsg41
Nsg42
S'JJ'
p1636
sg44
g1623
sg45
I00
sba(issf_api
Word
p1637
(dp1638
g6
I00
sg7
V\u091a\u0941\u0928\u093e\u0935\u094b\u0902
p1639
sg9
(issf_api
FeatureSet
p1640
(dp1641
g12
(dp1642
S'posn'
p1643
S'140'
p1644
sS'name'
p1645
S'\xe0\xa4\x9a\xe0\xa5\x81\xe0\xa4\xa8\xe0\xa4\xbe\xe0\xa4\xb5\xe0\xa5\x8b\xe0\xa4\x82'
p1646
sS'af'
p1647
S'\xe0\xa4\x9a\xe0\xa5\x81\xe0\xa4\xa8\xe0\xa4\xbe\xe0\xa4\xb5,n,m,pl,3,o,0_\xe0\xa4\xae\xe0\xa5\x87\xe0\xa4\x82,0'
p1648
sS'chunkid'
p1649
S'NP4'
p1650
sS'drel'
p1651
S'k7:VGF3'
p1652
sS'vpos'
p1653
S'vib_3'
p1654
sS'chunktype'
p1655
S'head:NP4'
p1656
ssbsg34
I00
sg35
I00
sg36
Nsg37
Nsg38
I8
sg39
I3
sg40
Nsg41
Nsg42
S'NN'
p1657
sg44
g1640
sg45
I00
sba(issf_api
Word
p1658
(dp1659
g6
I00
sg7
V\u092e\u0947\u0902
p1660
sg9
(issf_api
FeatureSet
p1661
(dp1662
g12
(dp1663
S'posn'
p1664
S'150'
p1665
sS'name'
p1666
S'\xe0\xa4\xae\xe0\xa5\x87\xe0\xa4\x822'
p1667
sS'drel'
p1668
S'lwg__psp:NP4'
p1669
sS'chunktype'
p1670
S'child:NP4'
p1671
sS'af'
p1672
S'\xe0\xa4\xae\xe0\xa5\x87\xe0\xa4\x82,psp,,,,,,'
p1673
ssbsg34
I00
sg35
I00
sg36
Nsg37
Nsg38
I8
sg39
I3
sg40
Nsg41
Nsg42
S'PSP'
p1674
sg44
g1661
sg45
I00
sba(issf_api
Word
p1675
(dp1676
g6
I00
sg7
V\u092d\u093e\u091c\u092a\u093e
p1677
sg9
(issf_api
FeatureSet
p1678
(dp1679
g12
(dp1680
S'crefhead'
p1681
S'\xe0\xa4\xad\xe0\xa4\xbe\xe0\xa4\x9c\xe0\xa4\xaa\xe0\xa4\xbe:i21'
p1682
sS'posn'
p1683
S'160'
p1684
sS'name'
p1685
S'\xe0\xa4\xad\xe0\xa4\xbe\xe0\xa4\x9c\xe0\xa4\xaa\xe0\xa4\xbe'
p1686
sS'af'
p1687
S'\xe0\xa4\xad\xe0\xa4\xbe\xe0\xa4\x9c\xe0\xa4\xaa\xe0\xa4\xbe,n,f,sg,3,o,0_\xe0\xa4\x95\xe0\xa4\xbe,0'
p1688
sS'chunkid'
p1689
S'NP5'
p1690
sS'creftype'
p1691
S'Coreference-Noun-Noun:i17'
p1692
sS'chunktype'
p1693
S'head:NP5'
p1694
sS'vpos'
p1695
S'vib_2'
p1696
sS'cref'
p1697
S'i21%1:t3'
p1698
sS'drel'
p1699
S'r6-k2:NP6'
p1700
ssbsg34
I00
sg35
I00
sg36
Nsg37
Nsg38
I9
sg39
I3
sg40
Nsg41
Nsg42
S'NNP'
p1701
sg44
g1678
sg45
I00
sba(issf_api
Word
p1702
(dp1703
g6
I00
sg7
V\u0915\u093e
p1704
sg9
(issf_api
FeatureSet
p1705
(dp1706
g12
(dp1707
S'posn'
p1708
S'170'
p1709
sS'name'
p1710
S'\xe0\xa4\x95\xe0\xa4\xbe'
p1711
sS'drel'
p1712
S'lwg__psp:NP5'
p1713
sS'chunktype'
p1714
S'child:NP5'
p1715
sS'af'
p1716
S'\xe0\xa4\x95\xe0\xa4\xbe,psp,m,sg,,d,,'
p1717
ssbsg34
I00
sg35
I00
sg36
Nsg37
Nsg38
I9
sg39
I3
sg40
Nsg41
Nsg42
S'PSP'
p1718
sg44
g1705
sg45
I00
sba(issf_api
Word
p1719
(dp1720
g6
I00
sg7
V\u0928\u0947\u0924\u0943\u0924\u094d\u0935
p1721
sg9
(issf_api
FeatureSet
p1722
(dp1723
g12
(dp1724
S'posn'
p1725
S'180'
p1726
sS'name'
p1727
S'\xe0\xa4\xa8\xe0\xa5\x87\xe0\xa4\xa4\xe0\xa5\x83\xe0\xa4\xa4\xe0\xa5\x8d\xe0\xa4\xb5'
p1728
sS'af'
p1729
S'\xe0\xa4\xa8\xe0\xa5\x87\xe0\xa4\xa4\xe0\xa5\x83\xe0\xa4\xa4\xe0\xa5\x8d\xe0\xa4\xb5,n,m,sg,3,d,0,0'
p1730
sS'chunkid'
p1731
S'NP6'
p1732
sS'drel'
p1733
S'pof:VGF3'
p1734
sS'chunktype'
p1735
S'head:NP6'
p1736
ssbsg34
I00
sg35
I00
sg36
Nsg37
Nsg38
I10
sg39
I3
sg40
Nsg41
Nsg42
S'NN'
p1737
sg44
g1722
sg45
I00
sba(issf_api
Word
p1738
(dp1739
g6
I00
sg7
V\u0926\u0942\u0938\u0930\u0940
p1740
sg9
(issf_api
FeatureSet
p1741
(dp1742
g12
(dp1743
S'posn'
p1744
S'190'
p1745
sS'name'
p1746
S'\xe0\xa4\xa6\xe0\xa5\x82\xe0\xa4\xb8\xe0\xa4\xb0\xe0\xa5\x80'
p1747
sS'drel'
p1748
S'nmod__adj:NP7'
p1749
sS'chunktype'
p1750
S'child:NP7'
p1751
sS'af'
p1752
S'\xe0\xa4\xa6\xe0\xa5\x82\xe0\xa4\xb8\xe0\xa4\xb0\xe0\xa4\xbe,num,f,sg,,o,,'
p1753
ssbsg34
I00
sg35
I00
sg36
Nsg37
Nsg38
I11
sg39
I3
sg40
Nsg41
Nsg42
S'QO'
p1754
sg44
g1741
sg45
I00
sba(issf_api
Word
p1755
(dp1756
g6
I00
sg7
V\u092a\u0902\u0915\u094d\u0924\u093f
p1757
sg9
(issf_api
FeatureSet
p1758
(dp1759
g12
(dp1760
S'posn'
p1761
S'200'
p1762
sS'name'
p1763
S'\xe0\xa4\xaa\xe0\xa4\x82\xe0\xa4\x95\xe0\xa5\x8d\xe0\xa4\xa4\xe0\xa4\xbf'
p1764
sS'af'
p1765
S'\xe0\xa4\xaa\xe0\xa4\x82\xe0\xa4\x95\xe0\xa5\x8d\xe0\xa4\xa4\xe0\xa4\xbf,n,f,sg,3,o,0_\xe0\xa4\x95\xe0\xa4\xbe,0'
p1766
sS'chunkid'
p1767
S'NP7'
p1768
sS'drel'
p1769
S'r6:NP8'
p1770
sS'vpos'
p1771
S'vib_3'
p1772
sS'chunktype'
p1773
S'head:NP7'
p1774
ssbsg34
I00
sg35
I00
sg36
Nsg37
Nsg38
I11
sg39
I3
sg40
Nsg41
Nsg42
S'NN'
p1775
sg44
g1758
sg45
I00
sba(issf_api
Word
p1776
(dp1777
g6
I00
sg7
V\u0915\u093e
p1778
sg9
(issf_api
FeatureSet
p1779
(dp1780
g12
(dp1781
S'posn'
p1782
S'210'
p1783
sS'name'
p1784
S'\xe0\xa4\x95\xe0\xa4\xbe2'
p1785
sS'drel'
p1786
S'lwg__psp:NP7'
p1787
sS'chunktype'
p1788
S'child:NP7'
p1789
sS'af'
p1790
S'\xe0\xa4\x95\xe0\xa4\xbe,psp,m,sg,,d,,'
p1791
ssbsg34
I00
sg35
I00
sg36
Nsg37
Nsg38
I11
sg39
I3
sg40
Nsg41
Nsg42
S'PSP'
p1792
sg44
g1779
sg45
I00
sba(issf_api
Word
p1793
(dp1794
g6
I00
sg7
V\u0915\u094b\u0908
p1795
sg9
(issf_api
FeatureSet
p1796
(dp1797
g12
(dp1798
S'crefhead'
p1799
S'\xe0\xa4\x95\xe0\xa5\x8b\xe0\xa4\x88:i22'
p1800
sS'posn'
p1801
S'220'
p1802
sS'name'
p1803
S'\xe0\xa4\x95\xe0\xa5\x8b\xe0\xa4\x88'
p1804
sS'af'
p1805
S'\xe0\xa4\x95\xe0\xa5\x8b\xe0\xa4\x88,pn,any,sg,3,d,0,0'
p1806
sS'creftype'
p1807
S'anaphora-?:i22'
p1808
sS'chunktype'
p1809
S'child:NP8'
p1810
sS'crefchainhead'
p1811
S'i22:t8'
p1812
sS'cref'
p1813
S'i22%1:t8'
p1814
sS'drel'
p1815
S'nmod__adj:NP8'
p1816
ssbsg34
I00
sg35
I00
sg36
Nsg37
Nsg38
I12
sg39
I3
sg40
Nsg41
Nsg42
S'PRP'
p1817
sg44
g1796
sg45
I00
sba(issf_api
Word
p1818
(dp1819
g6
I00
sg7
V\u0928\u0947\u0924\u093e
p1820
sg9
(issf_api
FeatureSet
p1821
(dp1822
g12
(dp1823
S'posn'
p1824
S'230'
p1825
sS'name'
p1826
S'\xe0\xa4\xa8\xe0\xa5\x87\xe0\xa4\xa4\xe0\xa4\xbe'
p1827
sS'af'
p1828
S'\xe0\xa4\xa8\xe0\xa5\x87\xe0\xa4\xa4\xe0\xa4\xbe,n,m,sg,3,d,0,0'
p1829
sS'chunkid'
p1830
S'NP8'
p1831
sS'drel'
p1832
S'k1:VGF3'
p1833
sS'chunktype'
p1834
S'head:NP8'
p1835
ssbsg34
I00
sg35
I00
sg36
Nsg37
Nsg38
I12
sg39
I3
sg40
Nsg41
Nsg42
S'NN'
p1836
sg44
g1821
sg45
I00
sba(issf_api
Word
p1837
(dp1838
g6
I00
sg7
V\u0915\u0930\u0947\u0917\u093e
p1839
sg9
(issf_api
FeatureSet
p1840
(dp1841
g12
(dp1842
S'posn'
p1843
S'240'
p1844
sS'name'
p1845
S'\xe0\xa4\x95\xe0\xa4\xb0\xe0\xa5\x87\xe0\xa4\x97\xe0\xa4\xbe'
p1846
sS'af'
p1847
S'\xe0\xa4\x95\xe0\xa4\xb0,v,m,sg,3,,\xe0\xa4\x97\xe0\xa4\xbe,gA'
p1848
sS'chunkid'
p1849
S'VGF3'
p1850
sS'stype'
p1851
S'declarative'
p1852
sS'drel'
p1853
S'ccof:CCP2'
p1854
sS'voicetype'
p1855
S'active'
p1856
sS'chunktype'
p1857
S'head:VGF3'
p1858
ssbsg34
I00
sg35
I00
sg36
Nsg37
Nsg38
I13
sg39
I3
sg40
Nsg41
Nsg42
S'VM'
p1859
sg44
g1840
sg45
I00
sba(issf_api
Word
p1860
(dp1861
g6
I00
sg7
V\u0964
p1862
sg9
(issf_api
FeatureSet
p1863
(dp1864
g12
(dp1865
S'posn'
p1866
S'250'
p1867
sS'name'
p1868
S'\xe0\xa5\xa4'
p1869
sS'af'
p1870
S'\xe0\xa5\xa4,punc,,,,,,'
p1871
sS'chunkid'
p1872
S'BLK'
p1873
sS'drel'
p1874
S'rsym:VGF'
p1875
sS'chunktype'
p1876
S'head:BLK'
p1877
ssbsg34
I00
sg35
I00
sg36
Nsg37
Nsg38
I14
sg39
I3
sg40
Nsg41
Nsg42
S'SYM'
p1878
sg44
g1863
sg45
I00
sba(issf_api
Word
p1879
(dp1880
g6
I00
sg7
V\u092c\u0939\u0930\u0939\u093e\u0932
p1881
sg9
(issf_api
FeatureSet
p1882
(dp1883
g12
(dp1884
S'posn'
p1885
S'10'
p1886
sS'chunkid'
p1887
S'CCP'
p1888
sS'name'
p1889
S'\xe0\xa4\xac\xe0\xa4\xb9\xe0\xa4\xb0\xe0\xa4\xb9\xe0\xa4\xbe\xe0\xa4\xb2'
p1890
sS'chunktype'
p1891
S'head:CCP'
p1892
sS'af'
p1893
S'\xe0\xa4\xac\xe0\xa4\xb9\xe0\xa4\xb0\xe0\xa4\xb9\xe0\xa4\xbe\xe0\xa4\xb2,avy,,,,,,'
p1894
ssbsg34
I00
sg35
I00
sg36
Nsg37
Nsg38
I0
sg39
I4
sg40
Nsg41
Nsg42
S'CC'
p1895
sg44
g1882
sg45
I00
sba(issf_api
Word
p1896
(dp1897
g6
I00
sg7
V,
p1898
sg9
(issf_api
FeatureSet
p1899
(dp1900
g12
(dp1901
S'posn'
p1902
S'20'
p1903
sS'name'
p1904
S','
p1905
sS'drel'
p1906
S'rsym:CCP'
p1907
sS'chunktype'
p1908
S'child:CCP'
p1909
sS'af'
p1910
S'COMMA,punc,,,,,,'
p1911
ssbsg34
I00
sg35
I00
sg36
Nsg37
Nsg38
I0
sg39
I4
sg40
Nsg41
Nsg42
S'SYM'
p1912
sg44
g1899
sg45
I00
sba(issf_api
Word
p1913
(dp1914
g6
I00
sg7
V\u092a\u093e\u0930\u094d\u091f\u0940
p1915
sg9
(issf_api
FeatureSet
p1916
(dp1917
g12
(dp1918
S'crefhead'
p1919
S'\xe0\xa4\xaa\xe0\xa4\xbe\xe0\xa4\xb0\xe0\xa5\x8d\xe0\xa4\x9f\xe0\xa5\x80:i23'
p1920
sS'posn'
p1921
S'30'
p1922
sS'name'
p1923
S'\xe0\xa4\xaa\xe0\xa4\xbe\xe0\xa4\xb0\xe0\xa5\x8d\xe0\xa4\x9f\xe0\xa5\x80'
p1924
sS'af'
p1925
S'\xe0\xa4\xaa\xe0\xa4\xbe\xe0\xa4\xb0\xe0\xa5\x8d\xe0\xa4\x9f\xe0\xa5\x80,n,f,sg,3,d,0,0'
p1926
sS'creftype'
p1927
S'Coreference-InferedRelation:i21'
p1928
sS'drel'
p1929
S'pof__cn:NP'
p1930
sS'chunktype'
p1931
S'child:NP'
p1932
sS'cref'
p1933
S'i23%1:t3'
p1934
ssbsg34
I00
sg35
I00
sg36
Nsg37
Nsg38
I1
sg39
I4
sg40
Nsg41
Nsg42
S'NNC'
p1935
sg44
g1916
sg45
I00
sba(issf_api
Word
p1936
(dp1937
g6
I00
sg7
V\u0938\u0942\u0924\u094d\u0930\u094b\u0902
p1938
sg9
(issf_api
FeatureSet
p1939
(dp1940
g12
(dp1941
S'posn'
p1942
S'40'
p1943
sS'name'
p1944
S'\xe0\xa4\xb8\xe0\xa5\x82\xe0\xa4\xa4\xe0\xa5\x8d\xe0\xa4\xb0\xe0\xa5\x8b\xe0\xa4\x82'
p1945
sS'af'
p1946
S'\xe0\xa4\xb8\xe0\xa5\x82\xe0\xa4\xa4\xe0\xa5\x8d\xe0\xa4\xb0,n,m,pl,3,o,0_\xe0\xa4\x95\xe0\xa5\x87_\xe0\xa4\xae\xe0\xa5\x81\xe0\xa4\xa4\xe0\xa4\xbe\xe0\xa4\xac\xe0\xa4\xbf\xe0\xa4\x95,0'
p1947
sS'chunkid'
p1948
S'NP'
p1949
sS'drel'
p1950
S'k7a:VGF'
p1951
sS'vpos'
p1952
S'vib_3_4'
p1953
sS'chunktype'
p1954
S'head:NP'
p1955
ssbsg34
I00
sg35
I00
sg36
Nsg37
Nsg38
I1
sg39
I4
sg40
Nsg41
Nsg42
S'NN'
p1956
sg44
g1939
sg45
I00
sba(issf_api
Word
p1957
(dp1958
g6
I00
sg7
V\u0915\u0947
p1959
sg9
(issf_api
FeatureSet
p1960
(dp1961
g12
(dp1962
S'posn'
p1963
S'50'
p1964
sS'name'
p1965
S'\xe0\xa4\x95\xe0\xa5\x87'
p1966
sS'drel'
p1967
S'lwg__psp:NP'
p1968
sS'chunktype'
p1969
S'child:NP'
p1970
sS'af'
p1971
S'\xe0\xa4\x95\xe0\xa5\x87,psp,,,,,,'
p1972
ssbsg34
I00
sg35
I00
sg36
Nsg37
Nsg38
I1
sg39
I4
sg40
Nsg41
Nsg42
S'PSP'
p1973
sg44
g1960
sg45
I00
sba(issf_api
Word
p1974
(dp1975
g6
I00
sg7
V\u092e\u0941\u0924\u093e\u092c\u093f\u0915\u093c
p1976
sg9
(issf_api
FeatureSet
p1977
(dp1978
g12
(dp1979
S'posn'
p1980
S'60'
p1981
sS'name'
p1982
S'\xe0\xa4\xae\xe0\xa5\x81\xe0\xa4\xa4\xe0\xa4\xbe\xe0\xa4\xac\xe0\xa4\xbf\xe0\xa4\x95\xe0\xa4\xbc'
p1983
sS'drel'
p1984
S'lwg__psp:NP'
p1985
sS'chunktype'
p1986
S'child:NP'
p1987
sS'af'
p1988
S'\xe0\xa4\xae\xe0\xa5\x81\xe0\xa4\xa4\xe0\xa4\xbe\xe0\xa4\xac\xe0\xa4\xbf\xe0\xa4\x95,psp,,,,,,'
p1989
ssbsg34
I00
sg35
I00
sg36
Nsg37
Nsg38
I1
sg39
I4
sg40
Nsg41
Nsg42
S'PSP'
p1990
sg44
g1977
sg45
I00
sba(issf_api
Word
p1991
(dp1992
g6
I00
sg7
V,
p1993
sg9
(issf_api
FeatureSet
p1994
(dp1995
g12
(dp1996
S'posn'
p1997
S'70'
p1998
sS'name'
p1999
S',2'
p2000
sS'drel'
p2001
S'rsym:NP'
p2002
sS'chunktype'
p2003
S'child:NP'
p2004
sS'af'
p2005
S'COMMA,punc,,,,,,'
p2006
ssbsg34
I00
sg35
I00
sg36
Nsg37
Nsg38
I1
sg39
I4
sg40
Nsg41
Nsg42
S'SYM'
p2007
sg44
g1994
sg45
I00
sba(issf_api
Word
p2008
(dp2009
g6
I00
sg7
V\u0938\u092e\u091d\u093e
p2010
sg9
(issf_api
FeatureSet
p2011
(dp2012
g12
(dp2013
S'posn'
p2014
S'80'
p2015
sS'name'
p2016
S'\xe0\xa4\xb8\xe0\xa4\xae\xe0\xa4\x9d\xe0\xa4\xbe'
p2017
sS'af'
p2018
S'\xe0\xa4\xb8\xe0\xa4\xae\xe0\xa4\x9d,v,m,sg,3,,\xe0\xa4\xaf\xe0\xa4\xbe_\xe0\xa4\x9c\xe0\xa4\xbe+\xe0\xa4\xa4\xe0\xa4\xbe_\xe0\xa4\xb9\xe0\xa5\x88,yA'
p2019
sS'chunkid'
p2020
S'VGF'
p2021
sS'stype'
p2022
S'declarative'
p2023
sS'drel'
p2024
S'ccof:CCP'
p2025
sS'voicetype'
p2026
S'active'
p2027
sS'vpos'
p2028
S'tam_2_3'
p2029
sS'chunktype'
p2030
S'head:VGF'
p2031
ssbsg34
I00
sg35
I00
sg36
Nsg37
Nsg38
I2
sg39
I4
sg40
Nsg41
Nsg42
S'VM'
p2032
sg44
g2011
sg45
I00
sba(issf_api
Word
p2033
(dp2034
g6
I00
sg7
V\u091c\u093e\u0924\u093e
p2035
sg9
(issf_api
FeatureSet
p2036
(dp2037
g12
(dp2038
S'posn'
p2039
S'90'
p2040
sS'name'
p2041
S'\xe0\xa4\x9c\xe0\xa4\xbe\xe0\xa4\xa4\xe0\xa4\xbe'
p2042
sS'drel'
p2043
S'lwg__vaux:VGF'
p2044
sS'chunktype'
p2045
S'child:VGF'
p2046
sS'af'
p2047
S'\xe0\xa4\x9c\xe0\xa4\xbe,v,m,sg,any,,\xe0\xa4\xa4\xe0\xa4\xbe,wA'
p2048
ssbsg34
I00
sg35
I00
sg36
Nsg37
Nsg38
I2
sg39
I4
sg40
Nsg41
Nsg42
S'VAUX'
p2049
sg44
g2036
sg45
I00
sba(issf_api
Word
p2050
(dp2051
g6
I00
sg7
V\u0939\u0948
p2052
sg9
(issf_api
FeatureSet
p2053
(dp2054
g12
(dp2055
S'posn'
p2056
S'100'
p2057
sS'name'
p2058
S'\xe0\xa4\xb9\xe0\xa5\x88'
p2059
sS'drel'
p2060
S'lwg__vaux:VGF'
p2061
sS'chunktype'
p2062
S'child:VGF'
p2063
sS'af'
p2064
S'\xe0\xa4\xb9\xe0\xa5\x88,v,any,sg,3,,\xe0\xa4\xb9\xe0\xa5\x88,hE'
p2065
ssbsg34
I00
sg35
I00
sg36
Nsg37
Nsg38
I2
sg39
I4
sg40
Nsg41
Nsg42
S'VAUX'
p2066
sg44
g2053
sg45
I00
sba(issf_api
Word
p2067
(dp2068
g6
I00
sg7
V\u0915\u093f
p2069
sg9
(issf_api
FeatureSet
p2070
(dp2071
g12
(dp2072
S'posn'
p2073
S'110'
p2074
sS'name'
p2075
S'\xe0\xa4\x95\xe0\xa4\xbf'
p2076
sS'af'
p2077
S'\xe0\xa4\x95\xe0\xa4\xbf,avy,,,,,,'
p2078
sS'chunkid'
p2079
S'CCP2'
p2080
sS'drel'
p2081
S'rs:NULL__NP'
p2082
sS'chunktype'
p2083
S'head:CCP2'
p2084
ssbsg34
I00
sg35
I00
sg36
Nsg37
Nsg38
I3
sg39
I4
sg40
Nsg41
Nsg42
S'CC'
p2085
sg44
g2070
sg45
I00
sba(issf_api
Word
p2086
(dp2087
g6
I00
sg7
V\u0932\u0917\u092d\u0917
p2088
sg9
(issf_api
FeatureSet
p2089
(dp2090
g12
(dp2091
S'posn'
p2092
S'120'
p2093
sS'name'
p2094
S'\xe0\xa4\xb2\xe0\xa4\x97\xe0\xa4\xad\xe0\xa4\x97'
p2095
sS'af'
p2096
S'\xe0\xa4\xb2\xe0\xa4\x97\xe0\xa4\xad\xe0\xa4\x97,avy,,,,,,'
p2097
sS'acrefmod'
p2098
S'm3%0:i24'
p2099
sS'drel'
p2100
S'lwg__rp:NP2'
p2101
sS'chunktype'
p2102
S'child:NP2'
p2103
ssbsg34
I00
sg35
I00
sg36
Nsg37
Nsg38
I4
sg39
I4
sg40
Nsg41
Nsg42
S'RP'
p2104
sg44
g2089
sg45
I00
sba(issf_api
Word
p2105
(dp2106
g6
I00
sg7
V\u0906\u0927\u0947
p2107
sg9
(issf_api
FeatureSet
p2108
(dp2109
g12
(dp2110
S'posn'
p2111
S'130'
p2112
sS'name'
p2113
S'\xe0\xa4\x86\xe0\xa4\xa7\xe0\xa5\x87'
p2114
sS'af'
p2115
S'\xe0\xa4\x86\xe0\xa4\xa7\xe0\xa4\xbe,adj,m,sg,,o,,'
p2116
sS'acrefmod'
p2117
S'm3%0:i24'
p2118
sS'drel'
p2119
S'nmod__adj:NP2'
p2120
sS'chunktype'
p2121
S'child:NP2'
p2122
ssbsg34
I00
sg35
I00
sg36
Nsg37
Nsg38
I4
sg39
I4
sg40
Nsg41
Nsg42
S'QF'
p2123
sg44
g2108
sg45
I00
sba(issf_api
Word
p2124
(dp2125
g6
I00
sg7
V\u0918\u0902\u091f\u0947
p2126
sg9
(issf_api
FeatureSet
p2127
(dp2128
g12
(dp2129
S'posn'
p2130
S'140'
p2131
sS'name'
p2132
S'\xe0\xa4\x98\xe0\xa4\x82\xe0\xa4\x9f\xe0\xa5\x87'
p2133
sS'af'
p2134
S'\xe0\xa4\x98\xe0\xa4\x82\xe0\xa4\x9f\xe0\xa4\xbe,n,m,sg,3,o,0_\xe0\xa4\x95\xe0\xa4\xbe,0'
p2135
sS'acrefmodhead'
p2136
S'\xe0\xa4\x98\xe0\xa4\x82\xe0\xa4\x9f\xe0\xa5\x87:m3'
p2137
sS'chunkid'
p2138
S'NP2'
p2139
sS'acrefmod'
p2140
S'm3%1:i24'
p2141
sS'drel'
p2142
S'r6:NP3'
p2143
sS'vpos'
p2144
S'vib_4'
p2145
sS'chunktype'
p2146
S'head:NP2'
p2147
ssbsg34
I00
sg35
I00
sg36
Nsg37
Nsg38
I4
sg39
I4
sg40
Nsg41
Nsg42
S'NN'
p2148
sg44
g2127
sg45
I00
sba(issf_api
Word
p2149
(dp2150
g6
I00
sg7
V\u0915\u0940
p2151
sg9
(issf_api
FeatureSet
p2152
(dp2153
g12
(dp2154
S'posn'
p2155
S'150'
p2156
sS'name'
p2157
S'\xe0\xa4\x95\xe0\xa5\x80'
p2158
sS'drel'
p2159
S'lwg__psp:NP2'
p2160
sS'chunktype'
p2161
S'child:NP2'
p2162
sS'af'
p2163
S'\xe0\xa4\x95\xe0\xa4\xbe,psp,f,sg,,o,,'
p2164
ssbsg34
I00
sg35
I00
sg36
Nsg37
Nsg38
I4
sg39
I4
sg40
Nsg41
Nsg42
S'PSP'
p2165
sg44
g2152
sg45
I00
sba(issf_api
Word
p2166
(dp2167
g6
I00
sg7
V\u092e\u0941\u0932\u093e\u0915\u093c\u093e\u0924
p2168
sg9
(issf_api
FeatureSet
p2169
(dp2170
g12
(dp2171
S'crefhead'
p2172
S'\xe0\xa4\xae\xe0\xa5\x81\xe0\xa4\xb2\xe0\xa4\xbe\xe0\xa4\x95\xe0\xa4\xbc\xe0\xa4\xbe\xe0\xa4\xa4:i24'
p2173
sS'posn'
p2174
S'160'
p2175
sS'name'
p2176
S'\xe0\xa4\xae\xe0\xa5\x81\xe0\xa4\xb2\xe0\xa4\xbe\xe0\xa4\x95\xe0\xa4\xbc\xe0\xa4\xbe\xe0\xa4\xa4'
p2177
sS'af'
p2178
S'\xe0\xa4\xae\xe0\xa5\x81\xe0\xa4\xb2\xe0\xa4\xbe\xe0\xa4\x95\xe0\xa4\xbe\xe0\xa4\xa4,n,f,sg,3,o,0_\xe0\xa4\xae\xe0\xa5\x87\xe0\xa4\x82,0'
p2179
sS'chunkid'
p2180
S'NP3'
p2181
sS'crefmod'
p2182
S'm3:i24'
p2183
sS'creftype'
p2184
S'Coreference-Identity:i9'
p2185
sS'chunktype'
p2186
S'head:NP3'
p2187
sS'vpos'
p2188
S'vib_2'
p2189
sS'cref'
p2190
S'i24%1:t5'
p2191
sS'drel'
p2192
S'k7:VGF2'
p2193
ssbsg34
I00
sg35
I00
sg36
Nsg37
Nsg38
I5
sg39
I4
sg40
Nsg41
Nsg42
S'NN'
p2194
sg44
g2169
sg45
I00
sba(issf_api
Word
p2195
(dp2196
g6
I00
sg7
V\u092e\u0947\u0902
p2197
sg9
(issf_api
FeatureSet
p2198
(dp2199
g12
(dp2200
S'posn'
p2201
S'170'
p2202
sS'name'
p2203
S'\xe0\xa4\xae\xe0\xa5\x87\xe0\xa4\x82'
p2204
sS'drel'
p2205
S'lwg__psp:NP3'
p2206
sS'chunktype'
p2207
S'child:NP3'
p2208
sS'af'
p2209
S'\xe0\xa4\xae\xe0\xa5\x87\xe0\xa4\x82,psp,,,,,,'
p2210
ssbsg34
I00
sg35
I00
sg36
Nsg37
Nsg38
I5
sg39
I4
sg40
Nsg41
Nsg42
S'PSP'
p2211
sg44
g2198
sg45
I00
sba(issf_api
Word
p2212
(dp2213
g6
I00
sg7
V\u0928\u0915\u093c\u0935\u0940
p2214
sg9
(issf_api
FeatureSet
p2215
(dp2216
g12
(dp2217
S'crefhead'
p2218
S'\xe0\xa4\xa8\xe0\xa4\x95\xe0\xa4\xbc\xe0\xa4\xb5\xe0\xa5\x80:i25'
p2219
sS'posn'
p2220
S'180'
p2221
sS'name'
p2222
S'\xe0\xa4\xa8\xe0\xa4\x95\xe0\xa4\xbc\xe0\xa4\xb5\xe0\xa5\x80'
p2223
sS'af'
p2224
S'\xe0\xa4\xa8\xe0\xa4\x95\xe0\xa4\xbc\xe0\xa4\xb5\xe0\xa5\x80,n,m,sg,3,o,0_\xe0\xa4\xa8\xe0\xa5\x87,0'
p2225
sS'chunkid'
p2226
S'NP4'
p2227
sS'creftype'
p2228
S'Coreference-Identity:i20'
p2229
sS'chunktype'
p2230
S'head:NP4'
p2231
sS'vpos'
p2232
S'vib_2'
p2233
sS'cref'
p2234
S'i25%1:t1'
p2235
sS'drel'
p2236
S'k1:VGF2'
p2237
ssbsg34
I00
sg35
I00
sg36
Nsg37
Nsg38
I6
sg39
I4
sg40
Nsg41
Nsg42
S'NNP'
p2238
sg44
g2215
sg45
I00
sba(issf_api
Word
p2239
(dp2240
g6
I00
sg7
V\u0928\u0947
p2241
sg9
(issf_api
FeatureSet
p2242
(dp2243
g12
(dp2244
S'posn'
p2245
S'190'
p2246
sS'name'
p2247
S'\xe0\xa4\xa8\xe0\xa5\x87'
p2248
sS'drel'
p2249
S'lwg__psp:NP4'
p2250
sS'chunktype'
p2251
S'child:NP4'
p2252
sS'af'
p2253
S'\xe0\xa4\xa8\xe0\xa5\x87,psp,,,,,,'
p2254
ssbsg34
I00
sg35
I00
sg36
Nsg37
Nsg38
I6
sg39
I4
sg40
Nsg41
Nsg42
S'PSP'
p2255
sg44
g2242
sg45
I00
sba(issf_api
Word
p2256
(dp2257
g6
I00
sg7
V\u0906\u0921\u0935\u093e\u0923\u0940
p2258
sg9
(issf_api
FeatureSet
p2259
(dp2260
g12
(dp2261
S'crefhead'
p2262
S'\xe0\xa4\x86\xe0\xa4\xa1\xe0\xa4\xb5\xe0\xa4\xbe\xe0\xa4\xa3\xe0\xa5\x80:i26'
p2263
sS'posn'
p2264
S'200'
p2265
sS'name'
p2266
S'\xe0\xa4\x86\xe0\xa4\xa1\xe0\xa4\xb5\xe0\xa4\xbe\xe0\xa4\xa3\xe0\xa5\x80'
p2267
sS'af'
p2268
S'\xe0\xa4\x86\xe0\xa4\xa1\xe0\xa4\xb5\xe0\xa4\xbe\xe0\xa4\xa3\xe0\xa5\x80,n,m,sg,3,o,0_\xe0\xa4\x95\xe0\xa5\x8b,0'
p2269
sS'chunkid'
p2270
S'NP5'
p2271
sS'creftype'
p2272
S'Coreference-Noun-Noun:i18'
p2273
sS'chunktype'
p2274
S'head:NP5'
p2275
sS'vpos'
p2276
S'vib_2'
p2277
sS'cref'
p2278
S'i26%1:t4'
p2279
sS'drel'
p2280
S'k4:VGNN'
p2281
ssbsg34
I00
sg35
I00
sg36
Nsg37
Nsg38
I7
sg39
I4
sg40
Nsg41
Nsg42
S'NNP'
p2282
sg44
g2259
sg45
I00
sba(issf_api
Word
p2283
(dp2284
g6
I00
sg7
V\u0915\u094b
p2285
sg9
(issf_api
FeatureSet
p2286
(dp2287
g12
(dp2288
S'posn'
p2289
S'210'
p2290
sS'name'
p2291
S'\xe0\xa4\x95\xe0\xa5\x8b'
p2292
sS'drel'
p2293
S'lwg__psp:NP5'
p2294
sS'chunktype'
p2295
S'child:NP5'
p2296
sS'af'
p2297
S'\xe0\xa4\x95\xe0\xa5\x8b,psp,,,,,,'
p2298
ssbsg34
I00
sg35
I00
sg36
Nsg37
Nsg38
I7
sg39
I4
sg40
Nsg41
Nsg42
S'PSP'
p2299
sg44
g2286
sg45
I00
sba(issf_api
Word
p2300
(dp2301
g6
I00
sg7
V\u0907\u0938
p2302
sg9
(issf_api
FeatureSet
p2303
(dp2304
g12
(dp2305
S'posn'
p2306
S'220'
p2307
sS'name'
p2308
S'\xe0\xa4\x87\xe0\xa4\xb8'
p2309
sS'af'
p2310
S'\xe0\xa4\xaf\xe0\xa4\xb9,pn,any,sg,3,o,,'
p2311
sS'drel'
p2312
S'nmod__adj:NP6'
p2313
sS'chunktype'
p2314
S'child:NP6'
p2315
sS'cref'
p2316
S'i27%0:t9'
p2317
ssbsg34
I00
sg35
I00
sg36
Nsg37
Nsg38
I8
sg39
I4
sg40
Nsg41
Nsg42
S'DEM'
p2318
sg44
g2303
sg45
I00
sba(issf_api
Word
p2319
(dp2320
g6
I00
sg7
V\u092c\u093e\u0924
p2321
sg9
(issf_api
FeatureSet
p2322
(dp2323
g12
(dp2324
S'crefhead'
p2325
S'\xe0\xa4\xac\xe0\xa4\xbe\xe0\xa4\xa4:i27'
p2326
sS'posn'
p2327
S'230'
p2328
sS'name'
p2329
S'\xe0\xa4\xac\xe0\xa4\xbe\xe0\xa4\xa4'
p2330
sS'af'
p2331
S'\xe0\xa4\xac\xe0\xa4\xbe\xe0\xa4\xa4,n,f,sg,3,o,0_\xe0\xa4\xb8\xe0\xa5\x87,0'
p2332
sS'chunkid'
p2333
S'NP6'
p2334
sS'drel'
p2335
S'k2:VGNN'
p2336
sS'chunktype'
p2337
S'head:NP6'
p2338
sS'vpos'
p2339
S'vib_3'
p2340
sS'cref'
p2341
S'i27%1:t9'
p2342
ssbsg34
I00
sg35
I00
sg36
Nsg37
Nsg38
I8
sg39
I4
sg40
Nsg41
Nsg42
S'NN'
p2343
sg44
g2322
sg45
I00
sba(issf_api
Word
p2344
(dp2345
g6
I00
sg7
V\u0938\u0947
p2346
sg9
(issf_api
FeatureSet
p2347
(dp2348
g12
(dp2349
S'posn'
p2350
S'240'
p2351
sS'name'
p2352
S'\xe0\xa4\xb8\xe0\xa5\x87'
p2353
sS'drel'
p2354
S'lwg__psp:NP6'
p2355
sS'chunktype'
p2356
S'child:NP6'
p2357
sS'af'
p2358
S'\xe0\xa4\xb8\xe0\xa5\x87,psp,,,,,,'
p2359
ssbsg34
I00
sg35
I00
sg36
Nsg37
Nsg38
I8
sg39
I4
sg40
Nsg41
Nsg42
S'PSP'
p2360
sg44
g2347
sg45
I00
sba(issf_api
Word
p2361
(dp2362
g6
I00
sg7
V\u0905\u0935\u0917\u0924
p2363
sg9
(issf_api
FeatureSet
p2364
(dp2365
g12
(dp2366
S'posn'
p2367
S'250'
p2368
sS'name'
p2369
S'\xe0\xa4\x85\xe0\xa4\xb5\xe0\xa4\x97\xe0\xa4\xa4'
p2370
sS'af'
p2371
S'\xe0\xa4\x85\xe0\xa4\xb5\xe0\xa4\x97\xe0\xa4\xa4,adj,any,any,,,,'
p2372
sS'chunkid'
p2373
S'JJP'
p2374
sS'drel'
p2375
S'pof:VGNN'
p2376
sS'chunktype'
p2377
S'head:JJP'
p2378
ssbsg34
I00
sg35
I00
sg36
Nsg37
Nsg38
I9
sg39
I4
sg40
Nsg41
Nsg42
S'JJ'
p2379
sg44
g2364
sg45
I00
sba(issf_api
Word
p2380
(dp2381
g6
I00
sg7
V\u0915\u0930\u093e\u0928\u0947
p2382
sg9
(issf_api
FeatureSet
p2383
(dp2384
g12
(dp2385
S'posn'
p2386
S'260'
p2387
sS'name'
p2388
S'\xe0\xa4\x95\xe0\xa4\xb0\xe0\xa4\xbe\xe0\xa4\xa8\xe0\xa5\x87'
p2389
sS'af'
p2390
S'\xe0\xa4\x95\xe0\xa4\xb0\xe0\xa4\xbe,v,any,sg,any,o,\xe0\xa4\xa8\xe0\xa4\xbe_\xe0\xa4\x95\xe0\xa4\xbe,nA'
p2391
sS'chunkid'
p2392
S'VGNN'
p2393
sS'drel'
p2394
S'r6-k2:NP7'
p2395
sS'vpos'
p2396
S'tam_2'
p2397
sS'chunktype'
p2398
S'head:VGNN'
p2399
ssbsg34
I00
sg35
I00
sg36
Nsg37
Nsg38
I10
sg39
I4
sg40
Nsg41
Nsg42
S'VM'
p2400
sg44
g2383
sg45
I00
sba(issf_api
Word
p2401
(dp2402
g6
I00
sg7
V\u0915\u093e
p2403
sg9
(issf_api
FeatureSet
p2404
(dp2405
g12
(dp2406
S'posn'
p2407
S'270'
p2408
sS'name'
p2409
S'\xe0\xa4\x95\xe0\xa4\xbe'
p2410
sS'drel'
p2411
S'lwg__psp:VGNN'
p2412
sS'chunktype'
p2413
S'child:VGNN'
p2414
sS'af'
p2415
S'\xe0\xa4\x95\xe0\xa4\xbe,psp,m,sg,,d,,'
p2416
ssbsg34
I00
sg35
I00
sg36
Nsg37
Nsg38
I10
sg39
I4
sg40
Nsg41
Nsg42
S'PSP'
p2417
sg44
g2404
sg45
I00
sba(issf_api
Word
p2418
(dp2419
g6
I00
sg7
V\u092a\u094d\u0930\u092f\u093e\u0938
p2420
sg9
(issf_api
FeatureSet
p2421
(dp2422
g12
(dp2423
S'crefhead'
p2424
S'\xe0\xa4\xaa\xe0\xa5\x8d\xe0\xa4\xb0\xe0\xa4\xaf\xe0\xa4\xbe\xe0\xa4\xb8:i28'
p2425
sS'posn'
p2426
S'280'
p2427
sS'name'
p2428
S'\xe0\xa4\xaa\xe0\xa5\x8d\xe0\xa4\xb0\xe0\xa4\xaf\xe0\xa4\xbe\xe0\xa4\xb8'
p2429
sS'af'
p2430
S'\xe0\xa4\xaa\xe0\xa5\x8d\xe0\xa4\xb0\xe0\xa4\xaf\xe0\xa4\xbe\xe0\xa4\xb8,n,m,sg,3,d,0,0'
p2431
sS'chunkid'
p2432
S'NP7'
p2433
sS'creftype'
p2434
S'Coreference-Identity:i11'
p2435
sS'chunktype'
p2436
S'head:NP7'
p2437
sS'cref'
p2438
S'i28%1:t6'
p2439
sS'drel'
p2440
S'pof:VGF2'
p2441
ssbsg34
I00
sg35
I00
sg36
Nsg37
Nsg38
I11
sg39
I4
sg40
Nsg41
Nsg42
S'NN'
p2442
sg44
g2421
sg45
I00
sba(issf_api
Word
p2443
(dp2444
g6
I00
sg7
V\u0915\u093f\u092f\u093e
p2445
sg9
(issf_api
FeatureSet
p2446
(dp2447
g12
(dp2448
S'posn'
p2449
S'290'
p2450
sS'name'
p2451
S'\xe0\xa4\x95\xe0\xa4\xbf\xe0\xa4\xaf\xe0\xa4\xbe'
p2452
sS'af'
p2453
S'\xe0\xa4\x95\xe0\xa4\xb0,v,m,sg,any,,\xe0\xa4\xaf\xe0\xa4\xbe,yA'
p2454
sS'chunkid'
p2455
S'VGF2'
p2456
sS'stype'
p2457
S'declarative'
p2458
sS'drel'
p2459
S'ccof:CCP2'
p2460
sS'voicetype'
p2461
S'active'
p2462
sS'chunktype'
p2463
S'head:VGF2'
p2464
ssbsg34
I00
sg35
I00
sg36
Nsg37
Nsg38
I12
sg39
I4
sg40
Nsg41
Nsg42
S'VM'
p2465
sg44
g2446
sg45
I00
sba(issf_api
Word
p2466
(dp2467
g6
I00
sg7
V\u0915\u093f
p2468
sg9
(issf_api
FeatureSet
p2469
(dp2470
g12
(dp2471
S'posn'
p2472
S'300'
p2473
sS'name'
p2474
S'\xe0\xa4\x95\xe0\xa4\xbf2'
p2475
sS'af'
p2476
S'\xe0\xa4\x95\xe0\xa4\xbf,avy,,,,,,'
p2477
sS'chunkid'
p2478
S'CCP3'
p2479
sS'drel'
p2480
S'k2:VGF2'
p2481
sS'chunktype'
p2482
S'head:CCP3'
p2483
ssbsg34
I00
sg35
I00
sg36
Nsg37
Nsg38
I13
sg39
I4
sg40
Nsg41
Nsg42
S'CC'
p2484
sg44
g2469
sg45
I00
sba(issf_api
Word
p2485
(dp2486
g6
I00
sg7
V\u0935\u0939
p2487
sg9
(issf_api
FeatureSet
p2488
(dp2489
g12
(dp2490
S'crefhead'
p2491
S'\xe0\xa4\xb5\xe0\xa4\xb9:i29'
p2492
sS'posn'
p2493
S'310'
p2494
sS'name'
p2495
S'\xe0\xa4\xb5\xe0\xa4\xb9'
p2496
sS'af'
p2497
S'\xe0\xa4\xb5\xe0\xa4\xb9,pn,any,sg,3,d,0,0'
p2498
sS'chunkid'
p2499
S'NP8'
p2500
sS'creftype'
p2501
S'Anaphora-C:i25'
p2502
sS'chunktype'
p2503
S'head:NP8'
p2504
sS'cref'
p2505
S'i29%1:t1,i30%0:t9'
p2506
sS'drel'
p2507
S'k1:VGF3'
p2508
ssbsg34
I00
sg35
I00
sg36
Nsg37
Nsg38
I14
sg39
I4
sg40
Nsg41
Nsg42
S'PRP'
p2509
sg44
g2488
sg45
I00
sba(issf_api
Word
p2510
(dp2511
g6
I00
sg7
V\u0905\u092a\u0928\u0940
p2512
sg9
(issf_api
FeatureSet
p2513
(dp2514
g12
(dp2515
S'crefhead'
p2516
S'\xe0\xa4\x85\xe0\xa4\xaa\xe0\xa4\xa8\xe0\xa5\x80:i31'
p2517
sS'posn'
p2518
S'320'
p2519
sS'name'
p2520
S'\xe0\xa4\x85\xe0\xa4\xaa\xe0\xa4\xa8\xe0\xa5\x80'
p2521
sS'af'
p2522
S'\xe0\xa4\x85\xe0\xa4\xaa\xe0\xa4\xa8\xe0\xa4\xbe,pn,f,any,any,o,0,0'
p2523
sS'acrefmodhead'
p2524
S'\xe0\xa4\x85\xe0\xa4\xaa\xe0\xa4\xa8\xe0\xa5\x80:m4'
p2525
sS'chunkid'
p2526
S'NP9'
p2527
sS'acrefmod'
p2528
S'm4%1:i32'
p2529
sS'creftype'
p2530
S'Anaphora-C:i29'
p2531
sS'chunktype'
p2532
S'head:NP9'
p2533
sS'cref'
p2534
S'i31%1:t1,i30%0:t9'
p2535
sS'drel'
p2536
S'r6:NP10'
p2537
ssbsg34
I00
sg35
I00
sg36
Nsg37
Nsg38
I15
sg39
I4
sg40
Nsg41
Nsg42
S'PRP'
p2538
sg44
g2513
sg45
I00
sba(issf_api
Word
p2539
(dp2540
g6
I00
sg7
V\u091f\u093f\u0925\u0940
p2541
sg9
(issf_api
FeatureSet
p2542
(dp2543
g12
(dp2544
S'crefhead'
p2545
S'\xe0\xa4\x9f\xe0\xa4\xbf\xe0\xa4\xa5\xe0\xa5\x80:i32'
p2546
sS'posn'
p2547
S'330'
p2548
sS'name'
p2549
S'\xe0\xa4\x9f\xe0\xa4\xbf\xe0\xa4\xa5\xe0\xa5\x80'
p2550
sS'af'
p2551
S'\xe0\xa4\x9f\xe0\xa4\xbf\xe0\xa4\xa5\xe0\xa5\x80,n,f,sg,3,o,0_\xe0\xa4\xb8\xe0\xa5\x87,0'
p2552
sS'chunkid'
p2553
S'NP10'
p2554
sS'crefmod'
p2555
S'm4:i32'
p2556
sS'creftype'
p2557
S'Coreference-Identity:i10'
p2558
sS'chunktype'
p2559
S'head:NP10'
p2560
sS'vpos'
p2561
S'vib_2'
p2562
sS'cref'
p2563
S'i32%1:t2,i30%0:t9'
p2564
sS'drel'
p2565
S'rh:VGF3'
p2566
ssbsg34
I00
sg35
I00
sg36
Nsg37
Nsg38
I16
sg39
I4
sg40
Nsg41
Nsg42
S'NN'
p2567
sg44
g2542
sg45
I00
sba(issf_api
Word
p2568
(dp2569
g6
I00
sg7
V\u0938\u0947
p2570
sg9
(issf_api
FeatureSet
p2571
(dp2572
g12
(dp2573
S'posn'
p2574
S'340'
p2575
sS'name'
p2576
S'\xe0\xa4\xb8\xe0\xa5\x872'
p2577
sS'af'
p2578
S'\xe0\xa4\xb8\xe0\xa5\x87,psp,,,,,,'
p2579
sS'drel'
p2580
S'lwg__psp:NP10'
p2581
sS'chunktype'
p2582
S'child:NP10'
p2583
sS'cref'
p2584
S'i30%0:t9'
p2585
ssbsg34
I00
sg35
I00
sg36
Nsg37
Nsg38
I16
sg39
I4
sg40
Nsg41
Nsg42
S'PSP'
p2586
sg44
g2571
sg45
I00
sba(issf_api
Word
p2587
(dp2588
g6
I00
sg7
V'
p2589
sg9
(issf_api
FeatureSet
p2590
(dp2591
g12
(dp2592
S'posn'
p2593
S'350'
p2594
sS'name'
p2595
S''
p2596
sS'af'
p2597
S'SINGLE_QUOTE,punc,,,,,,'
p2598
sS'drel'
p2599
S'rsym:NP11'
p2600
sS'chunktype'
p2601
S'child:NP11'
p2602
sS'cref'
p2603
S'i30%0:t9'
p2604
ssbsg34
I00
sg35
I00
sg36
Nsg37
Nsg38
I17
sg39
I4
sg40
Nsg41
Nsg42
S'SYM'
p2605
sg44
g2590
sg45
I00
sba(issf_api
Word
p2606
(dp2607
g6
I00
sg7
V\u0915\u094b\u0908
p2608
sg9
(issf_api
FeatureSet
p2609
(dp2610
g12
(dp2611
S'crefhead'
p2612
S'\xe0\xa4\x95\xe0\xa5\x8b\xe0\xa4\x88:i33'
p2613
sS'posn'
p2614
S'360'
p2615
sS'name'
p2616
S'\xe0\xa4\x95\xe0\xa5\x8b\xe0\xa4\x88'
p2617
sS'af'
p2618
S'\xe0\xa4\x95\xe0\xa5\x8b\xe0\xa4\x88,pn,any,sg,3,d,0,0'
p2619
sS'creftype'
p2620
S'anaphora-?:i33'
p2621
sS'chunktype'
p2622
S'child:NP11'
p2623
sS'crefchainhead'
p2624
S'i33:t10'
p2625
sS'cref'
p2626
S'i33%1:t10,i30%0:t9'
p2627
sS'drel'
p2628
S'nmod__adj:NP11'
p2629
ssbsg34
I00
sg35
I00
sg36
Nsg37
Nsg38
I17
sg39
I4
sg40
Nsg41
Nsg42
S'PRP'
p2630
sg44
g2609
sg45
I00
sba(issf_api
Word
p2631
(dp2632
g6
I00
sg7
V\u0935\u093f\u0935\u093e\u0926
p2633
sg9
(issf_api
FeatureSet
p2634
(dp2635
g12
(dp2636
S'posn'
p2637
S'370'
p2638
sS'name'
p2639
S'\xe0\xa4\xb5\xe0\xa4\xbf\xe0\xa4\xb5\xe0\xa4\xbe\xe0\xa4\xa6'
p2640
sS'af'
p2641
S'\xe0\xa4\xb5\xe0\xa4\xbf\xe0\xa4\xb5\xe0\xa4\xbe\xe0\xa4\xa6,n,m,sg,3,d,0,0'
p2642
sS'chunkid'
p2643
S'NP11'
p2644
sS'drel'
p2645
S'ccof:CCP4'
p2646
sS'chunktype'
p2647
S'head:NP11'
p2648
sS'cref'
p2649
S'i30%0:t9'
p2650
ssbsg34
I00
sg35
I00
sg36
Nsg37
Nsg38
I17
sg39
I4
sg40
Nsg41
Nsg42
S'NN'
p2651
sg44
g2634
sg45
I00
sba(issf_api
Word
p2652
(dp2653
g6
I00
sg7
V\u0905\u0925\u0935\u093e
p2654
sg9
(issf_api
FeatureSet
p2655
(dp2656
g12
(dp2657
S'posn'
p2658
S'380'
p2659
sS'name'
p2660
S'\xe0\xa4\x85\xe0\xa4\xa5\xe0\xa4\xb5\xe0\xa4\xbe'
p2661
sS'af'
p2662
S'\xe0\xa4\x85\xe0\xa4\xa5\xe0\xa4\xb5\xe0\xa4\xbe,avy,,,,,,'
p2663
sS'chunkid'
p2664
S'CCP4'
p2665
sS'drel'
p2666
S'k2:VGNN2'
p2667
sS'chunktype'
p2668
S'head:CCP4'
p2669
sS'cref'
p2670
S'i30%0:t9'
p2671
ssbsg34
I00
sg35
I00
sg36
Nsg37
Nsg38
I18
sg39
I4
sg40
Nsg41
Nsg42
S'CC'
p2672
sg44
g2655
sg45
I00
sba(issf_api
Word
p2673
(dp2674
g6
I00
sg7
V\u092d\u094d\u0930\u093e\u0902\u0924\u093f
p2675
sg9
(issf_api
FeatureSet
p2676
(dp2677
g12
(dp2678
S'posn'
p2679
S'390'
p2680
sS'name'
p2681
S'\xe0\xa4\xad\xe0\xa5\x8d\xe0\xa4\xb0\xe0\xa4\xbe\xe0\xa4\x82\xe0\xa4\xa4\xe0\xa4\xbf'
p2682
sS'af'
p2683
S'\xe0\xa4\xad\xe0\xa5\x8d\xe0\xa4\xb0\xe0\xa4\xbe\xe0\xa4\x82\xe0\xa4\xa4\xe0\xa4\xbf,n,f,sg,3,d,0,0'
p2684
sS'chunkid'
p2685
S'NP12'
p2686
sS'drel'
p2687
S'ccof:CCP4'
p2688
sS'chunktype'
p2689
S'head:NP12'
p2690
sS'cref'
p2691
S'i30%0:t9'
p2692
ssbsg34
I00
sg35
I00
sg36
Nsg37
Nsg38
I19
sg39
I4
sg40
Nsg41
Nsg42
S'NN'
p2693
sg44
g2676
sg45
I00
sba(issf_api
Word
p2694
(dp2695
g6
I00
sg7
V\u092a\u0948\u0926\u093e
p2696
sg9
(issf_api
FeatureSet
p2697
(dp2698
g12
(dp2699
S'posn'
p2700
S'400'
p2701
sS'name'
p2702
S'\xe0\xa4\xaa\xe0\xa5\x88\xe0\xa4\xa6\xe0\xa4\xbe'
p2703
sS'af'
p2704
S'\xe0\xa4\xaa\xe0\xa5\x88\xe0\xa4\xa6\xe0\xa4\xbe,adj,any,any,,,,'
p2705
sS'chunkid'
p2706
S'JJP2'
p2707
sS'drel'
p2708
S'pof:VGNN2'
p2709
sS'chunktype'
p2710
S'head:JJP2'
p2711
sS'cref'
p2712
S'i30%0:t9'
p2713
ssbsg34
I00
sg35
I00
sg36
Nsg37
Nsg38
I20
sg39
I4
sg40
Nsg41
Nsg42
S'JJ'
p2714
sg44
g2697
sg45
I00
sba(issf_api
Word
p2715
(dp2716
g6
I00
sg7
V\u0928\u0939\u0940\u0902
p2717
sg9
(issf_api
FeatureSet
p2718
(dp2719
g12
(dp2720
S'posn'
p2721
S'410'
p2722
sS'name'
p2723
S'\xe0\xa4\xa8\xe0\xa4\xb9\xe0\xa5\x80\xe0\xa4\x82'
p2724
sS'af'
p2725
S'\xe0\xa4\xa8\xe0\xa4\xb9\xe0\xa5\x80\xe0\xa4\x82,avy,,,,,,'
p2726
sS'drel'
p2727
S'lwg__neg:VGNN2'
p2728
sS'chunktype'
p2729
S'child:VGNN2'
p2730
sS'cref'
p2731
S'i30%0:t9'
p2732
ssbsg34
I00
sg35
I00
sg36
Nsg37
Nsg38
I21
sg39
I4
sg40
Nsg41
Nsg42
S'NEG'
p2733
sg44
g2718
sg45
I00
sba(issf_api
Word
p2734
(dp2735
g6
I00
sg7
V\u0915\u0930\u0928\u093e
p2736
sg9
(issf_api
FeatureSet
p2737
(dp2738
g12
(dp2739
S'posn'
p2740
S'420'
p2741
sS'name'
p2742
S'\xe0\xa4\x95\xe0\xa4\xb0\xe0\xa4\xa8\xe0\xa4\xbe'
p2743
sS'af'
p2744
S'\xe0\xa4\x95\xe0\xa4\xb0,v,any,any,any,d,\xe0\xa4\xa8\xe0\xa4\xbe,nA'
p2745
sS'chunkid'
p2746
S'VGNN2'
p2747
sS'drel'
p2748
S'k2:VGF3'
p2749
sS'chunktype'
p2750
S'head:VGNN2'
p2751
sS'cref'
p2752
S'i30%0:t9'
p2753
ssbsg34
I00
sg35
I00
sg36
Nsg37
Nsg38
I21
sg39
I4
sg40
Nsg41
Nsg42
S'VM'
p2754
sg44
g2737
sg45
I00
sba(issf_api
Word
p2755
(dp2756
g6
I00
sg7
V'
p2757
sg9
(issf_api
FeatureSet
p2758
(dp2759
g12
(dp2760
S'posn'
p2761
S'430'
p2762
sS'name'
p2763
g2596
sS'af'
p2764
S'SINGLE_QUOTE,punc,,,,,,'
p2765
sS'drel'
p2766
S'rsym:VGF3'
p2767
sS'chunktype'
p2768
S'child:VGF3'
p2769
sS'cref'
p2770
S'i30%0:t9'
p2771
ssbsg34
I00
sg35
I00
sg36
Nsg37
Nsg38
I22
sg39
I4
sg40
Nsg41
Nsg42
S'SYM'
p2772
sg44
g2758
sg45
I00
sba(issf_api
Word
p2773
(dp2774
g6
I00
sg7
V\u091a\u093e\u0939\u0924\u0947
p2775
sg9
(issf_api
FeatureSet
p2776
(dp2777
g12
(dp2778
S'posn'
p2779
S'440'
p2780
sS'name'
p2781
S'\xe0\xa4\x9a\xe0\xa4\xbe\xe0\xa4\xb9\xe0\xa4\xa4\xe0\xa5\x87'
p2782
sS'af'
p2783
S'\xe0\xa4\x9a\xe0\xa4\xbe\xe0\xa4\xb9,v,m,sg,3h,,\xe0\xa4\xa4\xe0\xa4\xbe_\xe0\xa4\xa5\xe0\xa4\xbe,wA'
p2784
sS'chunkid'
p2785
S'VGF3'
p2786
sS'stype'
p2787
S'declarative'
p2788
sS'drel'
p2789
S'ccof:CCP5'
p2790
sS'chunktype'
p2791
S'head:VGF3'
p2792
sS'voicetype'
p2793
S'active'
p2794
sS'vpos'
p2795
S'tam_3'
p2796
sS'cref'
p2797
S'i30%0:t9'
p2798
ssbsg34
I00
sg35
I00
sg36
Nsg37
Nsg38
I22
sg39
I4
sg40
Nsg41
Nsg42
S'VM'
p2799
sg44
g2776
sg45
I00
sba(issf_api
Word
p2800
(dp2801
g6
I00
sg7
V\u0925\u0947
p2802
sg9
(issf_api
FeatureSet
p2803
(dp2804
g12
(dp2805
S'posn'
p2806
S'450'
p2807
sS'name'
p2808
S'\xe0\xa4\xa5\xe0\xa5\x87'
p2809
sS'af'
p2810
S'\xe0\xa4\xa5\xe0\xa4\xbe,v,m,sg,3h,,\xe0\xa4\xa5\xe0\xa4\xbe,WA'
p2811
sS'drel'
p2812
S'lwg__vaux:VGF3'
p2813
sS'chunktype'
p2814
S'child:VGF3'
p2815
sS'cref'
p2816
S'i30%0:t9'
p2817
ssbsg34
I00
sg35
I00
sg36
Nsg37
Nsg38
I22
sg39
I4
sg40
Nsg41
Nsg42
S'VAUX'
p2818
sg44
g2803
sg45
I00
sba(issf_api
Word
p2819
(dp2820
g6
I00
sg7
V'
p2821
sg9
(issf_api
FeatureSet
p2822
(dp2823
g12
(dp2824
S'posn'
p2825
S'460'
p2826
sS'name'
p2827
g2596
sS'af'
p2828
S'SINGLE_QUOTE,punc,,,,,,'
p2829
sS'drel'
p2830
S'rsym:VGF3'
p2831
sS'chunktype'
p2832
S'child:VGF3'
p2833
sS'cref'
p2834
S'i30%0:t9'
p2835
ssbsg34
I00
sg35
I00
sg36
Nsg37
Nsg38
I22
sg39
I4
sg40
Nsg41
Nsg42
S'SYM'
p2836
sg44
g2822
sg45
I00
sba(issf_api
Word
p2837
(dp2838
g6
I00
sg7
V\u0914\u0930
p2839
sg9
(issf_api
FeatureSet
p2840
(dp2841
g12
(dp2842
S'crefhead'
p2843
S'\xe0\xa4\x94\xe0\xa4\xb0:i30'
p2844
sS'posn'
p2845
S'470'
p2846
sS'name'
p2847
S'\xe0\xa4\x94\xe0\xa4\xb0'
p2848
sS'af'
p2849
S'\xe0\xa4\x94\xe0\xa4\xb0,avy,,,,,,'
p2850
sS'chunkid'
p2851
S'CCP5'
p2852
sS'creftype'
p2853
S'Coreference-Noun-Noun:i27'
p2854
sS'chunktype'
p2855
S'head:CCP5'
p2856
sS'crefchainhead'
p2857
S'i30:t9'
p2858
sS'cref'
p2859
S'i30%0:t9'
p2860
sS'drel'
p2861
S'ccof:CCP3'
p2862
ssbsg34
I00
sg35
I00
sg36
Nsg37
Nsg38
I23
sg39
I4
sg40
Nsg41
Nsg42
S'CC'
p2863
sg44
g2840
sg45
I00
sba(issf_api
Word
p2864
(dp2865
g6
I00
sg7
V\u091c\u094b
p2866
sg9
(issf_api
FeatureSet
p2867
(dp2868
g12
(dp2869
S'posn'
p2870
S'480'
p2871
sS'name'
p2872
S'\xe0\xa4\x9c\xe0\xa5\x8b'
p2873
sS'af'
p2874
S'\xe0\xa4\x9c\xe0\xa5\x8b,pn,any,sg,3,d,,'
p2875
sS'drel'
p2876
S'nmod__adj:NP13'
p2877
sS'chunktype'
p2878
S'child:NP13'
p2879
sS'cref'
p2880
S'i30%0:t9,i34%0:t11'
p2881
ssbsg34
I00
sg35
I00
sg36
Nsg37
Nsg38
I24
sg39
I4
sg40
Nsg41
Nsg42
S'DEM'
p2882
sg44
g2867
sg45
I00
sba(issf_api
Word
p2883
(dp2884
g6
I00
sg7
V\u0915\u0941\u091b
p2885
sg9
(issf_api
FeatureSet
p2886
(dp2887
g12
(dp2888
S'crefhead'
p2889
S'\xe0\xa4\x95\xe0\xa5\x81\xe0\xa4\x9b:i35'
p2890
sS'posn'
p2891
S'490'
p2892
sS'name'
p2893
S'\xe0\xa4\x95\xe0\xa5\x81\xe0\xa4\x9b'
p2894
sS'af'
p2895
S'\xe0\xa4\x95\xe0\xa5\x81\xe0\xa4\x9b,pn,any,any,3,d,0,0'
p2896
sS'coref'
p2897
S':NP14'
p2898
sS'chunkid'
p2899
S'NP13'
p2900
sS'creftype'
p2901
S'anaphora-?:i35'
p2902
sS'chunktype'
p2903
S'head:NP13'
p2904
sS'crefchainhead'
p2905
S'i35:t12'
p2906
sS'cref'
p2907
S'i35%1:t12,i30%0:t9,i34%0:t11'
p2908
sS'drel'
p2909
S'k1:VGF4'
p2910
ssbsg34
I00
sg35
I00
sg36
Nsg37
Nsg38
I24
sg39
I4
sg40
Nsg41
Nsg42
S'PRP'
p2911
sg44
g2886
sg45
I00
sba(issf_api
Word
p2912
(dp2913
g6
I00
sg7
V\u092d\u0940
p2914
sg9
(issf_api
FeatureSet
p2915
(dp2916
g12
(dp2917
S'posn'
p2918
S'500'
p2919
sS'name'
p2920
S'\xe0\xa4\xad\xe0\xa5\x80'
p2921
sS'af'
p2922
S'\xe0\xa4\xad\xe0\xa5\x80,avy,,,,,,'
p2923
sS'drel'
p2924
S'lwg__rp:NP13'
p2925
sS'chunktype'
p2926
S'child:NP13'
p2927
sS'cref'
p2928
S'i30%0:t9,i34%0:t11'
p2929
ssbsg34
I00
sg35
I00
sg36
Nsg37
Nsg38
I24
sg39
I4
sg40
Nsg41
Nsg42
S'RP'
p2930
sg44
g2915
sg45
I00
sba(issf_api
Word
p2931
(dp2932
g6
I00
sg7
V\u0939\u0941\u0906
p2933
sg9
(issf_api
FeatureSet
p2934
(dp2935
g12
(dp2936
S'crefhead'
p2937
S'\xe0\xa4\xb9\xe0\xa5\x81\xe0\xa4\x86:i34'
p2938
sS'posn'
p2939
S'510'
p2940
sS'name'
p2941
S'\xe0\xa4\xb9\xe0\xa5\x81\xe0\xa4\x86'
p2942
sS'af'
p2943
S'\xe0\xa4\xb9\xe0\xa5\x8b,v,m,sg,any,,\xe0\xa4\xaf\xe0\xa4\xbe,yA'
p2944
sS'chunkid'
p2945
S'VGF4'
p2946
sS'stype'
p2947
S'declarative'
p2948
sS'chunktype'
p2949
S'head:VGF4'
p2950
sS'crefchainhead'
p2951
S'i34:t11'
p2952
sS'voicetype'
p2953
S'active'
p2954
sS'cref'
p2955
S'i30%0:t9,i34%1:t11'
p2956
sS'drel'
p2957
S'nmod__relc:NP14'
p2958
ssbsg34
I00
sg35
I00
sg36
Nsg37
Nsg38
I25
sg39
I4
sg40
Nsg41
Nsg42
S'VM'
p2959
sg44
g2934
sg45
I00
sba(issf_api
Word
p2960
(dp2961
g6
I00
sg7
V\u0935\u0939
p2962
sg9
(issf_api
FeatureSet
p2963
(dp2964
g12
(dp2965
S'crefhead'
p2966
S'\xe0\xa4\xb5\xe0\xa4\xb9:i36'
p2967
sS'posn'
p2968
S'520'
p2969
sS'name'
p2970
S'\xe0\xa4\xb5\xe0\xa4\xb92'
p2971
sS'af'
p2972
S'\xe0\xa4\xb5\xe0\xa4\xb9,pn,any,sg,3,d,0,0'
p2973
sS'chunkid'
p2974
S'NP14'
p2975
sS'creftype'
p2976
S'Anaphora-C:i34'
p2977
sS'chunktype'
p2978
S'head:NP14'
p2979
sS'cref'
p2980
S'i36%1:t11,i30%0:t9'
p2981
sS'drel'
p2982
S'k1:VGF5'
p2983
ssbsg34
I00
sg35
I00
sg36
Nsg37
Nsg38
I26
sg39
I4
sg40
Nsg41
Nsg42
S'PRP'
p2984
sg44
g2963
sg45
I00
sba(issf_api
Word
p2985
(dp2986
g6
I00
sg7
V\u092c\u0939\u0941\u0924
p2987
sg9
(issf_api
FeatureSet
p2988
(dp2989
g12
(dp2990
S'posn'
p2991
S'530'
p2992
sS'name'
p2993
S'\xe0\xa4\xac\xe0\xa4\xb9\xe0\xa5\x81\xe0\xa4\xa4'
p2994
sS'af'
p2995
S'\xe0\xa4\xac\xe0\xa4\xb9\xe0\xa5\x81\xe0\xa4\xa4,avy,,,,,,'
p2996
sS'drel'
p2997
S'nmod__adj:JJP3'
p2998
sS'chunktype'
p2999
S'child:JJP3'
p3000
sS'cref'
p3001
S'i30%0:t9'
p3002
ssbsg34
I00
sg35
I00
sg36
Nsg37
Nsg38
I27
sg39
I4
sg40
Nsg41
Nsg42
S'QF'
p3003
sg44
g2988
sg45
I00
sba(issf_api
Word
p3004
(dp3005
g6
I00
sg7
V\u0939\u0940
p3006
sg9
(issf_api
FeatureSet
p3007
(dp3008
g12
(dp3009
S'posn'
p3010
S'540'
p3011
sS'name'
p3012
S'\xe0\xa4\xb9\xe0\xa5\x80'
p3013
sS'af'
p3014
S'\xe0\xa4\xb9\xe0\xa5\x80,avy,,,,,,'
p3015
sS'drel'
p3016
S'lwg__rp:JJP3'
p3017
sS'chunktype'
p3018
S'child:JJP3'
p3019
sS'cref'
p3020
S'i30%0:t9'
p3021
ssbsg34
I00
sg35
I00
sg36
Nsg37
Nsg38
I27
sg39
I4
sg40
Nsg41
Nsg42
S'RP'
p3022
sg44
g3007
sg45
I00
sba(issf_api
Word
p3023
(dp3024
g6
I00
sg7
V\u0926\u0941\u0930\u094d\u092d\u093e\u0917\u094d\u092f\u092a\u0942\u0930\u094d\u0923
p3025
sg9
(issf_api
FeatureSet
p3026
(dp3027
g12
(dp3028
S'posn'
p3029
S'550'
p3030
sS'name'
p3031
S'\xe0\xa4\xa6\xe0\xa5\x81\xe0\xa4\xb0\xe0\xa5\x8d\xe0\xa4\xad\xe0\xa4\xbe\xe0\xa4\x97\xe0\xa5\x8d\xe0\xa4\xaf\xe0\xa4\xaa\xe0\xa5\x82\xe0\xa4\xb0\xe0\xa5\x8d\xe0\xa4\xa3'
p3032
sS'af'
p3033
S'\xe0\xa4\xa6\xe0\xa5\x81\xe0\xa4\xb0\xe0\xa5\x8d\xe0\xa4\xad\xe0\xa4\xbe\xe0\xa4\x97\xe0\xa5\x8d\xe0\xa4\xaf\xe0\xa4\xaa\xe0\xa5\x82\xe0\xa4\xb0\xe0\xa5\x8d\xe0\xa4\xa3,adj,any,any,,,,'
p3034
sS'chunkid'
p3035
S'JJP3'
p3036
sS'drel'
p3037
S'k1s:VGF5'
p3038
sS'chunktype'
p3039
S'head:JJP3'
p3040
sS'cref'
p3041
S'i30%0:t9'
p3042
ssbsg34
I00
sg35
I00
sg36
Nsg37
Nsg38
I27
sg39
I4
sg40
Nsg41
Nsg42
S'JJ'
p3043
sg44
g3026
sg45
I00
sba(issf_api
Word
p3044
(dp3045
g6
I00
sg7
V\u0939\u0948
p3046
sg9
(issf_api
FeatureSet
p3047
(dp3048
g12
(dp3049
S'posn'
p3050
S'560'
p3051
sS'name'
p3052
S'\xe0\xa4\xb9\xe0\xa5\x882'
p3053
sS'af'
p3054
S'\xe0\xa4\xb9\xe0\xa5\x88,v,any,sg,3,,\xe0\xa4\xb9\xe0\xa5\x88,hE'
p3055
sS'chunkid'
p3056
S'VGF5'
p3057
sS'stype'
p3058
S'declarative'
p3059
sS'drel'
p3060
S'ccof:CCP5'
p3061
sS'chunktype'
p3062
S'head:VGF5'
p3063
sS'voicetype'
p3064
S'active'
p3065
sS'cref'
p3066
S'i30%1:t9'
p3067
ssbsg34
I00
sg35
I00
sg36
Nsg37
Nsg38
I28
sg39
I4
sg40
Nsg41
Nsg42
S'VM'
p3068
sg44
g3047
sg45
I00
sba(issf_api
Word
p3069
(dp3070
g6
I00
sg7
V\u0964
p3071
sg9
(issf_api
FeatureSet
p3072
(dp3073
g12
(dp3074
S'posn'
p3075
S'570'
p3076
sS'name'
p3077
S'\xe0\xa5\xa4'
p3078
sS'af'
p3079
S'\xe0\xa5\xa4,punc,,,,,,'
p3080
sS'chunkid'
p3081
S'BLK'
p3082
sS'drel'
p3083
S'rsym:CCP'
p3084
sS'chunktype'
p3085
S'head:BLK'
p3086
ssbsg34
I00
sg35
I00
sg36
Nsg37
Nsg38
I29
sg39
I4
sg40
Nsg41
Nsg42
S'SYM'
p3087
sg44
g3072
sg45
I00
sba(issf_api
Word
p3088
(dp3089
g6
I00
sg7
V'
p3090
sg9
(issf_api
FeatureSet
p3091
(dp3092
g12
(dp3093
S'posn'
p3094
S'10'
p3095
sS'name'
p3096
g2596
sS'drel'
p3097
S'rsym:NP'
p3098
sS'chunktype'
p3099
S'child:NP'
p3100
sS'af'
p3101
S'SINGLE_QUOTE,punc,,,,,,'
p3102
ssbsg34
I00
sg35
I00
sg36
Nsg37
Nsg38
I0
sg39
I5
sg40
Nsg41
Nsg42
S'SYM'
p3103
sg44
g3091
sg45
I00
sba(issf_api
Word
p3104
(dp3105
g6
I00
sg7
V\u0928\u0915\u093c\u0935\u0940
p3106
sg9
(issf_api
FeatureSet
p3107
(dp3108
g12
(dp3109
S'crefhead'
p3110
S'\xe0\xa4\xa8\xe0\xa4\x95\xe0\xa4\xbc\xe0\xa4\xb5\xe0\xa5\x80:i37'
p3111
sS'posn'
p3112
S'20'
p3113
sS'name'
p3114
S'\xe0\xa4\xa8\xe0\xa4\x95\xe0\xa4\xbc\xe0\xa4\xb5\xe0\xa5\x80'
p3115
sS'af'
p3116
S'\xe0\xa4\xa8\xe0\xa4\x95\xe0\xa4\xbc\xe0\xa4\xb5\xe0\xa5\x80,n,m,sg,3,o,0_\xe0\xa4\xa8\xe0\xa5\x87,0'
p3117
sS'chunkid'
p3118
S'NP'
p3119
sS'creftype'
p3120
S'Coreference-Identity:i31'
p3121
sS'chunktype'
p3122
S'head:NP'
p3123
sS'vpos'
p3124
S'vib_3'
p3125
sS'cref'
p3126
S'i37%1:t1'
p3127
sS'drel'
p3128
S'k1:VGF'
p3129
ssbsg34
I00
sg35
I00
sg36
Nsg37
Nsg38
I0
sg39
I5
sg40
Nsg41
Nsg42
S'NNP'
p3130
sg44
g3107
sg45
I00
sba(issf_api
Word
p3131
(dp3132
g6
I00
sg7
V\u0928\u0947
p3133
sg9
(issf_api
FeatureSet
p3134
(dp3135
g12
(dp3136
S'posn'
p3137
S'30'
p3138
sS'name'
p3139
S'\xe0\xa4\xa8\xe0\xa5\x87'
p3140
sS'drel'
p3141
S'lwg__psp:NP'
p3142
sS'chunktype'
p3143
S'child:NP'
p3144
sS'af'
p3145
S'\xe0\xa4\xa8\xe0\xa5\x87,psp,,,,,,'
p3146
ssbsg34
I00
sg35
I00
sg36
Nsg37
Nsg38
I0
sg39
I5
sg40
Nsg41
Nsg42
S'PSP'
p3147
sg44
g3134
sg45
I00
sba(issf_api
Word
p3148
(dp3149
g6
I00
sg7
V\u0906\u0921\u0935\u093e\u0923\u0940
p3150
sg9
(issf_api
FeatureSet
p3151
(dp3152
g12
(dp3153
S'crefhead'
p3154
S'\xe0\xa4\x86\xe0\xa4\xa1\xe0\xa4\xb5\xe0\xa4\xbe\xe0\xa4\xa3\xe0\xa5\x80:i38'
p3155
sS'posn'
p3156
S'40'
p3157
sS'name'
p3158
S'\xe0\xa4\x86\xe0\xa4\xa1\xe0\xa4\xb5\xe0\xa4\xbe\xe0\xa4\xa3\xe0\xa5\x80'
p3159
sS'af'
p3160
S'\xe0\xa4\x86\xe0\xa4\xa1\xe0\xa4\xb5\xe0\xa4\xbe\xe0\xa4\xa3\xe0\xa5\x80,n,m,sg,3,o,0_\xe0\xa4\x95\xe0\xa4\xbe,0'
p3161
sS'chunkid'
p3162
S'NP2'
p3163
sS'creftype'
p3164
S'Coreference-Identity:i26'
p3165
sS'chunktype'
p3166
S'head:NP2'
p3167
sS'vpos'
p3168
S'vib_2'
p3169
sS'cref'
p3170
S'i38%1:t4'
p3171
sS'drel'
p3172
S'r6:NP3'
p3173
ssbsg34
I00
sg35
I00
sg36
Nsg37
Nsg38
I1
sg39
I5
sg40
Nsg41
Nsg42
S'NNP'
p3174
sg44
g3151
sg45
I00
sba(issf_api
Word
p3175
(dp3176
g6
I00
sg7
V\u0915\u0947
p3177
sg9
(issf_api
FeatureSet
p3178
(dp3179
g12
(dp3180
S'posn'
p3181
S'50'
p3182
sS'name'
p3183
S'\xe0\xa4\x95\xe0\xa5\x87'
p3184
sS'drel'
p3185
S'lwg__psp:NP2'
p3186
sS'chunktype'
p3187
S'child:NP2'
p3188
sS'af'
p3189
S'\xe0\xa4\x95\xe0\xa4\xbe,psp,m,sg,,o,,'
p3190
ssbsg34
I00
sg35
I00
sg36
Nsg37
Nsg38
I1
sg39
I5
sg40
Nsg41
Nsg42
S'PSP'
p3191
sg44
g3178
sg45
I00
sba(issf_api
Word
p3192
(dp3193
g6
I00
sg7
V\u0928\u0947\u0924\u0943\u0924\u094d\u0935
p3194
sg9
(issf_api
FeatureSet
p3195
(dp3196
g12
(dp3197
S'posn'
p3198
S'60'
p3199
sS'name'
p3200
S'\xe0\xa4\xa8\xe0\xa5\x87\xe0\xa4\xa4\xe0\xa5\x83\xe0\xa4\xa4\xe0\xa5\x8d\xe0\xa4\xb5'
p3201
sS'af'
p3202
S'\xe0\xa4\xa8\xe0\xa5\x87\xe0\xa4\xa4\xe0\xa5\x83\xe0\xa4\xa4\xe0\xa5\x8d\xe0\xa4\xb5,n,m,sg,3,o,0_\xe0\xa4\xae\xe0\xa5\x87\xe0\xa4\x82,0'
p3203
sS'chunkid'
p3204
S'NP3'
p3205
sS'drel'
p3206
S'k7:VGF'
p3207
sS'vpos'
p3208
S'vib_2'
p3209
sS'chunktype'
p3210
S'head:NP3'
p3211
ssbsg34
I00
sg35
I00
sg36
Nsg37
Nsg38
I2
sg39
I5
sg40
Nsg41
Nsg42
S'NN'
p3212
sg44
g3195
sg45
I00
sba(issf_api
Word
p3213
(dp3214
g6
I00
sg7
V\u092e\u0947\u0902
p3215
sg9
(issf_api
FeatureSet
p3216
(dp3217
g12
(dp3218
S'posn'
p3219
S'70'
p3220
sS'name'
p3221
S'\xe0\xa4\xae\xe0\xa5\x87\xe0\xa4\x82'
p3222
sS'drel'
p3223
S'lwg__psp:NP3'
p3224
sS'chunktype'
p3225
S'child:NP3'
p3226
sS'af'
p3227
S'\xe0\xa4\xae\xe0\xa5\x87\xe0\xa4\x82,psp,,,,,,'
p3228
ssbsg34
I00
sg35
I00
sg36
Nsg37
Nsg38
I2
sg39
I5
sg40
Nsg41
Nsg42
S'PSP'
p3229
sg44
g3216
sg45
I00
sba(issf_api
Word
p3230
(dp3231
g6
I00
sg7
V\u0905\u092a\u0928\u093e
p3232
sg9
(issf_api
FeatureSet
p3233
(dp3234
g12
(dp3235
S'crefhead'
p3236
S'\xe0\xa4\x85\xe0\xa4\xaa\xe0\xa4\xa8\xe0\xa4\xbe:i39'
p3237
sS'posn'
p3238
S'80'
p3239
sS'name'
p3240
S'\xe0\xa4\x85\xe0\xa4\xaa\xe0\xa4\xa8\xe0\xa4\xbe'
p3241
sS'af'
p3242
S'\xe0\xa4\x85\xe0\xa4\xaa\xe0\xa4\xa8\xe0\xa4\xbe,pn,m,any,any,d,0,0'
p3243
sS'chunkid'
p3244
S'NP4'
p3245
sS'creftype'
p3246
S'Anaphora-C:i37'
p3247
sS'chunktype'
p3248
S'head:NP4'
p3249
sS'cref'
p3250
S'i39%1:t1'
p3251
sS'drel'
p3252
S'r6:NP5'
p3253
ssbsg34
I00
sg35
I00
sg36
Nsg37
Nsg38
I3
sg39
I5
sg40
Nsg41
Nsg42
S'PRP'
p3254
sg44
g3233
sg45
I00
sba(issf_api
Word
p3255
(dp3256
g6
I00
sg7
V\u092a\u0942\u0930\u093e
p3257
sg9
(issf_api
FeatureSet
p3258
(dp3259
g12
(dp3260
S'posn'
p3261
S'90'
p3262
sS'name'
p3263
S'\xe0\xa4\xaa\xe0\xa5\x82\xe0\xa4\xb0\xe0\xa4\xbe'
p3264
sS'drel'
p3265
S'nmod__adj:NP5'
p3266
sS'chunktype'
p3267
S'child:NP5'
p3268
sS'af'
p3269
S'\xe0\xa4\xaa\xe0\xa5\x82\xe0\xa4\xb0\xe0\xa4\xbe,adj,m,sg,,d,,'
p3270
ssbsg34
I00
sg35
I00
sg36
Nsg37
Nsg38
I4
sg39
I5
sg40
Nsg41
Nsg42
S'JJ'
p3271
sg44
g3258
sg45
I00
sba(issf_api
Word
p3272
(dp3273
g6
I00
sg7
V\u0935\u093f\u0936\u094d\u0935\u093e\u0938
p3274
sg9
(issf_api
FeatureSet
p3275
(dp3276
g12
(dp3277
S'posn'
p3278
S'100'
p3279
sS'name'
p3280
S'\xe0\xa4\xb5\xe0\xa4\xbf\xe0\xa4\xb6\xe0\xa5\x8d\xe0\xa4\xb5\xe0\xa4\xbe\xe0\xa4\xb8'
p3281
sS'af'
p3282
S'\xe0\xa4\xb5\xe0\xa4\xbf\xe0\xa4\xb6\xe0\xa5\x8d\xe0\xa4\xb5\xe0\xa4\xbe\xe0\xa4\xb8,n,m,sg,3,d,0,0'
p3283
sS'chunkid'
p3284
S'NP5'
p3285
sS'drel'
p3286
S'k2:VGF'
p3287
sS'chunktype'
p3288
S'head:NP5'
p3289
ssbsg34
I00
sg35
I00
sg36
Nsg37
Nsg38
I4
sg39
I5
sg40
Nsg41
Nsg42
S'NN'
p3290
sg44
g3275
sg45
I00
sba(issf_api
Word
p3291
(dp3292
g6
I00
sg7
V\u091c\u0924\u093e\u092f\u093e
p3293
sg9
(issf_api
FeatureSet
p3294
(dp3295
g12
(dp3296
S'posn'
p3297
S'110'
p3298
sS'name'
p3299
S'\xe0\xa4\x9c\xe0\xa4\xa4\xe0\xa4\xbe\xe0\xa4\xaf\xe0\xa4\xbe'
p3300
sS'af'
p3301
S'\xe0\xa4\x9c\xe0\xa4\xa4\xe0\xa4\xbe,v,m,sg,3,,\xe0\xa4\xaf\xe0\xa4\xbe_\xe0\xa4\xb9\xe0\xa5\x88,yA'
p3302
sS'chunkid'
p3303
S'VGF'
p3304
sS'chunktype'
p3305
S'head:VGF'
p3306
sS'voicetype'
p3307
S'active'
p3308
sS'vpos'
p3309
S'tam_2'
p3310
sS'stype'
p3311
S'declarative'
p3312
ssbsg34
I00
sg35
I00
sg36
Nsg37
Nsg38
I5
sg39
I5
sg40
Nsg41
Nsg42
S'VM'
p3313
sg44
g3294
sg45
I00
sba(issf_api
Word
p3314
(dp3315
g6
I00
sg7
V\u0939\u0948
p3316
sg9
(issf_api
FeatureSet
p3317
(dp3318
g12
(dp3319
S'posn'
p3320
S'120'
p3321
sS'name'
p3322
S'\xe0\xa4\xb9\xe0\xa5\x88'
p3323
sS'drel'
p3324
S'lwg__vaux:VGF'
p3325
sS'chunktype'
p3326
S'child:VGF'
p3327
sS'af'
p3328
S'\xe0\xa4\xb9\xe0\xa5\x88,v,any,sg,3,,\xe0\xa4\xb9\xe0\xa5\x88,hE'
p3329
ssbsg34
I00
sg35
I00
sg36
Nsg37
Nsg38
I5
sg39
I5
sg40
Nsg41
Nsg42
S'VAUX'
p3330
sg44
g3317
sg45
I00
sba(issf_api
Word
p3331
(dp3332
g6
I00
sg7
V\u0964
p3333
sg9
(issf_api
FeatureSet
p3334
(dp3335
g12
(dp3336
S'posn'
p3337
S'130'
p3338
sS'name'
p3339
S'\xe0\xa5\xa4'
p3340
sS'af'
p3341
S'\xe0\xa5\xa4,punc,,,,,,'
p3342
sS'chunkid'
p3343
S'BLK'
p3344
sS'drel'
p3345
S'rsym:VGF'
p3346
sS'chunktype'
p3347
S'head:BLK'
p3348
ssbsg34
I00
sg35
I00
sg36
Nsg37
Nsg38
I6
sg39
I5
sg40
Nsg41
Nsg42
S'SYM'
p3349
sg44
g3334
sg45
I00
sba(issf_api
Word
p3350
(dp3351
g6
I00
sg7
V\u0909\u0928\u0915\u0947
p3352
sg9
(issf_api
FeatureSet
p3353
(dp3354
g12
(dp3355
S'crefhead'
p3356
S'\xe0\xa4\x89\xe0\xa4\xa8\xe0\xa4\x95\xe0\xa5\x87:i40'
p3357
sS'posn'
p3358
S'10'
p3359
sS'name'
p3360
S'\xe0\xa4\x89\xe0\xa4\xa8\xe0\xa4\x95\xe0\xa5\x87'
p3361
sS'af'
p3362
S'\xe0\xa4\xb5\xe0\xa4\xb9,pn,m,sg,3h,o,\xe0\xa4\x95\xe0\xa4\xbe,kA'
p3363
sS'chunkid'
p3364
S'NP'
p3365
sS'creftype'
p3366
S'Anaphora-C:i39'
p3367
sS'chunktype'
p3368
S'head:NP'
p3369
sS'cref'
p3370
S'i40%1:t1'
p3371
sS'drel'
p3372
S'r6:NP2'
p3373
ssbsg34
I00
sg35
I00
sg36
Nsg37
Nsg38
I0
sg39
I6
sg40
Nsg41
Nsg42
S'PRP'
p3374
sg44
g3353
sg45
I00
sba(issf_api
Word
p3375
(dp3376
g6
I00
sg7
V\u090f\u0915
p3377
sg9
(issf_api
FeatureSet
p3378
(dp3379
g12
(dp3380
S'posn'
p3381
S'20'
p3382
sS'name'
p3383
S'\xe0\xa4\x8f\xe0\xa4\x95'
p3384
sS'drel'
p3385
S'nmod__adj:NP2'
p3386
sS'chunktype'
p3387
S'child:NP2'
p3388
sS'af'
p3389
S'\xe0\xa4\x8f\xe0\xa4\x95,num,any,any,,any,,'
p3390
ssbsg34
I00
sg35
I00
sg36
Nsg37
Nsg38
I1
sg39
I6
sg40
Nsg41
Nsg42
S'QC'
p3391
sg44
g3378
sg45
I00
sba(issf_api
Word
p3392
(dp3393
g6
I00
sg7
V\u0915\u093c\u0930\u0940\u092c\u0940
p3394
sg9
(issf_api
FeatureSet
p3395
(dp3396
g12
(dp3397
S'posn'
p3398
S'30'
p3399
sS'name'
p3400
S'\xe0\xa4\x95\xe0\xa4\xbc\xe0\xa4\xb0\xe0\xa5\x80\xe0\xa4\xac\xe0\xa5\x80'
p3401
sS'drel'
p3402
S'nmod__adj:NP2'
p3403
sS'chunktype'
p3404
S'child:NP2'
p3405
sS'af'
p3406
S'\xe0\xa4\x95\xe0\xa4\xb0\xe0\xa5\x80\xe0\xa4\xac\xe0\xa5\x80,adj,any,any,,o,,'
p3407
ssbsg34
I00
sg35
I00
sg36
Nsg37
Nsg38
I1
sg39
I6
sg40
Nsg41
Nsg42
S'JJ'
p3408
sg44
g3395
sg45
I00
sba(issf_api
Word
p3409
(dp3410
g6
I00
sg7
V\u0938\u0939\u092f\u094b\u0917\u0940
p3411
sg9
(issf_api
FeatureSet
p3412
(dp3413
g12
(dp3414
S'posn'
p3415
S'40'
p3416
sS'name'
p3417
S'\xe0\xa4\xb8\xe0\xa4\xb9\xe0\xa4\xaf\xe0\xa5\x8b\xe0\xa4\x97\xe0\xa5\x80'
p3418
sS'af'
p3419
S'\xe0\xa4\xb8\xe0\xa4\xb9\xe0\xa4\xaf\xe0\xa5\x8b\xe0\xa4\x97\xe0\xa5\x80,n,m,sg,3,o,0_\xe0\xa4\xa8\xe0\xa5\x87,0'
p3420
sS'chunkid'
p3421
S'NP2'
p3422
sS'drel'
p3423
S'k1:VGF'
p3424
sS'vpos'
p3425
S'vib_4'
p3426
sS'chunktype'
p3427
S'head:NP2'
p3428
ssbsg34
I00
sg35
I00
sg36
Nsg37
Nsg38
I1
sg39
I6
sg40
Nsg41
Nsg42
S'NN'
p3429
sg44
g3412
sg45
I00
sba(issf_api
Word
p3430
(dp3431
g6
I00
sg7
V\u0928\u0947
p3432
sg9
(issf_api
FeatureSet
p3433
(dp3434
g12
(dp3435
S'posn'
p3436
S'50'
p3437
sS'name'
p3438
S'\xe0\xa4\xa8\xe0\xa5\x87'
p3439
sS'drel'
p3440
S'lwg__psp:NP2'
p3441
sS'chunktype'
p3442
S'child:NP2'
p3443
sS'af'
p3444
S'\xe0\xa4\xa8\xe0\xa5\x87,psp,,,,,,'
p3445
ssbsg34
I00
sg35
I00
sg36
Nsg37
Nsg38
I1
sg39
I6
sg40
Nsg41
Nsg42
S'PSP'
p3446
sg44
g3433
sg45
I00
sba(issf_api
Word
p3447
(dp3448
g6
I00
sg7
V\u092c\u0924\u093e\u092f\u093e
p3449
sg9
(issf_api
FeatureSet
p3450
(dp3451
g12
(dp3452
S'posn'
p3453
S'60'
p3454
sS'name'
p3455
S'\xe0\xa4\xac\xe0\xa4\xa4\xe0\xa4\xbe\xe0\xa4\xaf\xe0\xa4\xbe'
p3456
sS'af'
p3457
S'\xe0\xa4\xac\xe0\xa4\xa4\xe0\xa4\xbe,v,m,sg,any,,\xe0\xa4\xaf\xe0\xa4\xbe,yA'
p3458
sS'chunkid'
p3459
S'VGF'
p3460
sS'chunktype'
p3461
S'head:VGF'
p3462
sS'voicetype'
p3463
S'active'
p3464
sS'stype'
p3465
S'declarative'
p3466
ssbsg34
I00
sg35
I00
sg36
Nsg37
Nsg38
I2
sg39
I6
sg40
Nsg41
Nsg42
S'VM'
p3467
sg44
g3450
sg45
I00
sba(issf_api
Word
p3468
(dp3469
g6
I00
sg7
V\u0915\u093f
p3470
sg9
(issf_api
FeatureSet
p3471
(dp3472
g12
(dp3473
S'posn'
p3474
S'70'
p3475
sS'name'
p3476
S'\xe0\xa4\x95\xe0\xa4\xbf'
p3477
sS'af'
p3478
S'\xe0\xa4\x95\xe0\xa4\xbf,avy,,,,,,'
p3479
sS'chunkid'
p3480
S'CCP'
p3481
sS'drel'
p3482
S'k2:VGF'
p3483
sS'chunktype'
p3484
S'head:CCP'
p3485
ssbsg34
I00
sg35
I00
sg36
Nsg37
Nsg38
I3
sg39
I6
sg40
Nsg41
Nsg42
S'CC'
p3486
sg44
g3471
sg45
I00
sba(issf_api
Word
p3487
(dp3488
g6
I00
sg7
V'
p3489
sg9
(issf_api
FeatureSet
p3490
(dp3491
g12
(dp3492
S'posn'
p3493
S'80'
p3494
sS'name'
p3495
g2596
sS'drel'
p3496
S'rsym:NP3'
p3497
sS'chunktype'
p3498
S'child:NP3'
p3499
sS'af'
p3500
S'SINGLE_QUOTE,punc,,,,,,'
p3501
ssbsg34
I00
sg35
I00
sg36
Nsg37
Nsg38
I4
sg39
I6
sg40
Nsg41
Nsg42
S'SYM'
p3502
sg44
g3490
sg45
I00
sba(issf_api
Word
p3503
(dp3504
g6
I00
sg7
V\u0910\u0938\u093e
p3505
sg9
(issf_api
FeatureSet
p3506
(dp3507
g12
(dp3508
S'crefhead'
p3509
S'\xe0\xa4\x90\xe0\xa4\xb8\xe0\xa4\xbe:i41'
p3510
sS'posn'
p3511
S'90'
p3512
sS'name'
p3513
S'\xe0\xa4\x90\xe0\xa4\xb8\xe0\xa4\xbe'
p3514
sS'af'
p3515
S'\xe0\xa4\x90\xe0\xa4\xb8\xe0\xa4\xbe,pn,m,sg,any,d,0,0'
p3516
sS'chunkid'
p3517
S'NP3'
p3518
sS'creftype'
p3519
S'anaphora-?:i42'
p3520
sS'chunktype'
p3521
S'head:NP3'
p3522
sS'cref'
p3523
S'i41%1:t13'
p3524
sS'drel'
p3525
S'adv:VGF2'
p3526
ssbsg34
I00
sg35
I00
sg36
Nsg37
Nsg38
I4
sg39
I6
sg40
Nsg41
Nsg42
S'PRP'
p3527
sg44
g3506
sg45
I00
sba(issf_api
Word
p3528
(dp3529
g6
I00
sg7
V\u0932\u0917\u0924\u093e
p3530
sg9
(issf_api
FeatureSet
p3531
(dp3532
g12
(dp3533
S'posn'
p3534
S'100'
p3535
sS'name'
p3536
S'\xe0\xa4\xb2\xe0\xa4\x97\xe0\xa4\xa4\xe0\xa4\xbe'
p3537
sS'af'
p3538
S'\xe0\xa4\xb2\xe0\xa4\x97,v,m,sg,any,,\xe0\xa4\xa4\xe0\xa4\xbe_\xe0\xa4\xa5\xe0\xa4\xbe,wA'
p3539
sS'chunkid'
p3540
S'VGF2'
p3541
sS'stype'
p3542
S'declarative'
p3543
sS'drel'
p3544
S'ccof:CCP'
p3545
sS'voicetype'
p3546
S'active'
p3547
sS'vpos'
p3548
S'tam_2'
p3549
sS'chunktype'
p3550
S'head:VGF2'
p3551
ssbsg34
I00
sg35
I00
sg36
Nsg37
Nsg38
I5
sg39
I6
sg40
Nsg41
Nsg42
S'VM'
p3552
sg44
g3531
sg45
I00
sba(issf_api
Word
p3553
(dp3554
g6
I00
sg7
V\u0925\u093e
p3555
sg9
(issf_api
FeatureSet
p3556
(dp3557
g12
(dp3558
S'posn'
p3559
S'110'
p3560
sS'name'
p3561
S'\xe0\xa4\xa5\xe0\xa4\xbe'
p3562
sS'drel'
p3563
S'lwg__vaux:VGF2'
p3564
sS'chunktype'
p3565
S'child:VGF2'
p3566
sS'af'
p3567
S'\xe0\xa4\xa5\xe0\xa4\xbe,v,m,sg,any,,\xe0\xa4\xa5\xe0\xa4\xbe,WA'
p3568
ssbsg34
I00
sg35
I00
sg36
Nsg37
Nsg38
I5
sg39
I6
sg40
Nsg41
Nsg42
S'VAUX'
p3569
sg44
g3556
sg45
I00
sba(issf_api
Word
p3570
(dp3571
g6
I00
sg7
V\u0915\u093f
p3572
sg9
(issf_api
FeatureSet
p3573
(dp3574
g12
(dp3575
S'posn'
p3576
S'120'
p3577
sS'name'
p3578
S'\xe0\xa4\x95\xe0\xa4\xbf2'
p3579
sS'af'
p3580
S'\xe0\xa4\x95\xe0\xa4\xbf,avy,,,,,,'
p3581
sS'chunkid'
p3582
S'CCP2'
p3583
sS'drel'
p3584
S'k2:VGF2'
p3585
sS'chunktype'
p3586
S'head:CCP2'
p3587
ssbsg34
I00
sg35
I00
sg36
Nsg37
Nsg38
I6
sg39
I6
sg40
Nsg41
Nsg42
S'CC'
p3588
sg44
g3573
sg45
I00
sba(issf_api
Word
p3589
(dp3590
g6
I00
sg7
V\u0928\u0915\u093c\u0935\u0940
p3591
sg9
(issf_api
FeatureSet
p3592
(dp3593
g12
(dp3594
S'crefhead'
p3595
S'\xe0\xa4\xa8\xe0\xa4\x95\xe0\xa4\xbc\xe0\xa4\xb5\xe0\xa5\x80:i43'
p3596
sS'posn'
p3597
S'130'
p3598
sS'name'
p3599
S'\xe0\xa4\xa8\xe0\xa4\x95\xe0\xa4\xbc\xe0\xa4\xb5\xe0\xa5\x80'
p3600
sS'af'
p3601
S'\xe0\xa4\xa8\xe0\xa4\x95\xe0\xa4\xbc\xe0\xa4\xb5\xe0\xa5\x80,n,m,sg,3,o,0_\xe0\xa4\x95\xe0\xa4\xbe,0'
p3602
sS'acrefmodhead'
p3603
S'\xe0\xa4\xa8\xe0\xa4\x95\xe0\xa4\xbc\xe0\xa4\xb5\xe0\xa5\x80:m5'
p3604
sS'chunkid'
p3605
S'NP4'
p3606
sS'acrefmod'
p3607
S'm5%1:i45'
p3608
sS'creftype'
p3609
S'Coreference-Identity:i40'
p3610
sS'chunktype'
p3611
S'head:NP4'
p3612
sS'vpos'
p3613
S'vib_2'
p3614
sS'cref'
p3615
S'i43%1:t1,i44%0:t13'
p3616
sS'drel'
p3617
S'r6:NP5'
p3618
ssbsg34
I00
sg35
I00
sg36
Nsg37
Nsg38
I7
sg39
I6
sg40
Nsg41
Nsg42
S'NNP'
p3619
sg44
g3592
sg45
I00
sba(issf_api
Word
p3620
(dp3621
g6
I00
sg7
V\u0915\u0940
p3622
sg9
(issf_api
FeatureSet
p3623
(dp3624
g12
(dp3625
S'posn'
p3626
S'140'
p3627
sS'name'
p3628
S'\xe0\xa4\x95\xe0\xa5\x80'
p3629
sS'af'
p3630
S'\xe0\xa4\x95\xe0\xa4\xbe,psp,f,sg,,o,,'
p3631
sS'drel'
p3632
S'lwg__psp:NP4'
p3633
sS'chunktype'
p3634
S'child:NP4'
p3635
sS'cref'
p3636
S'i44%0:t13'
p3637
ssbsg34
I00
sg35
I00
sg36
Nsg37
Nsg38
I7
sg39
I6
sg40
Nsg41
Nsg42
S'PSP'
p3638
sg44
g3623
sg45
I00
sba(issf_api
Word
p3639
(dp3640
g6
I00
sg7
V\u091f\u093f\u0925\u0940
p3641
sg9
(issf_api
FeatureSet
p3642
(dp3643
g12
(dp3644
S'crefhead'
p3645
S'\xe0\xa4\x9f\xe0\xa4\xbf\xe0\xa4\xa5\xe0\xa5\x80:i45'
p3646
sS'posn'
p3647
S'150'
p3648
sS'name'
p3649
S'\xe0\xa4\x9f\xe0\xa4\xbf\xe0\xa4\xa5\xe0\xa5\x80'
p3650
sS'af'
p3651
S'\xe0\xa4\x9f\xe0\xa4\xbf\xe0\xa4\xa5\xe0\xa5\x80,n,f,sg,3,o,0_\xe0\xa4\xb8\xe0\xa5\x87,0'
p3652
sS'chunkid'
p3653
S'NP5'
p3654
sS'crefmod'
p3655
S'm5:i45'
p3656
sS'creftype'
p3657
S'Coreference-Identity:i32'
p3658
sS'chunktype'
p3659
S'head:NP5'
p3660
sS'vpos'
p3661
S'vib_2'
p3662
sS'cref'
p3663
S'i45%1:t2,i44%0:t13'
p3664
sS'drel'
p3665
S'rh:VGF3'
p3666
ssbsg34
I00
sg35
I00
sg36
Nsg37
Nsg38
I8
sg39
I6
sg40
Nsg41
Nsg42
S'NN'
p3667
sg44
g3642
sg45
I00
sba(issf_api
Word
p3668
(dp3669
g6
I00
sg7
V\u0938\u0947
p3670
sg9
(issf_api
FeatureSet
p3671
(dp3672
g12
(dp3673
S'posn'
p3674
S'160'
p3675
sS'name'
p3676
S'\xe0\xa4\xb8\xe0\xa5\x87'
p3677
sS'af'
p3678
S'\xe0\xa4\xb8\xe0\xa5\x87,psp,,,,,,'
p3679
sS'drel'
p3680
S'lwg__psp:NP5'
p3681
sS'chunktype'
p3682
S'child:NP5'
p3683
sS'cref'
p3684
S'i44%0:t13'
p3685
ssbsg34
I00
sg35
I00
sg36
Nsg37
Nsg38
I8
sg39
I6
sg40
Nsg41
Nsg42
S'PSP'
p3686
sg44
g3671
sg45
I00
sba(issf_api
Word
p3687
(dp3688
g6
I00
sg7
V\u0906\u0921\u0935\u093e\u0923\u0940
p3689
sg9
(issf_api
FeatureSet
p3690
(dp3691
g12
(dp3692
S'crefhead'
p3693
S'\xe0\xa4\x86\xe0\xa4\xa1\xe0\xa4\xb5\xe0\xa4\xbe\xe0\xa4\xa3\xe0\xa5\x80:i46,\xe0\xa4\x86\xe0\xa4\xa1\xe0\xa4\xb5\xe0\xa4\xbe\xe0\xa4\xa3\xe0\xa5\x80:i44'
p3694
sS'posn'
p3695
S'170'
p3696
sS'name'
p3697
S'\xe0\xa4\x86\xe0\xa4\xa1\xe0\xa4\xb5\xe0\xa4\xbe\xe0\xa4\xa3\xe0\xa5\x80'
p3698
sS'af'
p3699
S'\xe0\xa4\x86\xe0\xa4\xa1\xe0\xa4\xb5\xe0\xa4\xbe\xe0\xa4\xa3\xe0\xa5\x80,n,m,sg,3,d,0,0'
p3700
sS'chunkid'
p3701
S'NP6'
p3702
sS'creftype'
p3703
S'Anaphora-RC:i41,Coreference-Identity:i38'
p3704
sS'chunktype'
p3705
S'head:NP6'
p3706
sS'crefchainhead'
p3707
S'i44:t13'
p3708
sS'cref'
p3709
S'i46%1:t4,i44%0:t13'
p3710
sS'drel'
p3711
S'k1:VGF3'
p3712
ssbsg34
I00
sg35
I00
sg36
Nsg37
Nsg38
I9
sg39
I6
sg40
Nsg41
Nsg42
S'NNP'
p3713
sg44
g3690
sg45
I00
sba(issf_api
Word
p3714
(dp3715
g6
I00
sg7
V\u0916\u0941\u0936
p3716
sg9
(issf_api
FeatureSet
p3717
(dp3718
g12
(dp3719
S'posn'
p3720
S'180'
p3721
sS'name'
p3722
S'\xe0\xa4\x96\xe0\xa5\x81\xe0\xa4\xb6'
p3723
sS'af'
p3724
S'\xe0\xa4\x96\xe0\xa5\x81\xe0\xa4\xb6,adj,any,any,,,,'
p3725
sS'chunkid'
p3726
S'JJP'
p3727
sS'drel'
p3728
S'k1s:VGF3'
p3729
sS'chunktype'
p3730
S'head:JJP'
p3731
sS'cref'
p3732
S'i44%0:t13'
p3733
ssbsg34
I00
sg35
I00
sg36
Nsg37
Nsg38
I10
sg39
I6
sg40
Nsg41
Nsg42
S'JJ'
p3734
sg44
g3717
sg45
I00
sba(issf_api
Word
p3735
(dp3736
g6
I00
sg7
V\u0928\u0939\u0940\u0902
p3737
sg9
(issf_api
FeatureSet
p3738
(dp3739
g12
(dp3740
S'posn'
p3741
S'190'
p3742
sS'name'
p3743
S'\xe0\xa4\xa8\xe0\xa4\xb9\xe0\xa5\x80\xe0\xa4\x82'
p3744
sS'af'
p3745
S'\xe0\xa4\xa8\xe0\xa4\xb9\xe0\xa5\x80\xe0\xa4\x82,avy,,,,,,'
p3746
sS'drel'
p3747
S'lwg__neg:VGF3'
p3748
sS'chunktype'
p3749
S'child:VGF3'
p3750
sS'cref'
p3751
S'i44%0:t13'
p3752
ssbsg34
I00
sg35
I00
sg36
Nsg37
Nsg38
I11
sg39
I6
sg40
Nsg41
Nsg42
S'NEG'
p3753
sg44
g3738
sg45
I00
sba(issf_api
Word
p3754
(dp3755
g6
I00
sg7
V\u0925\u0947
p3756
sg9
(issf_api
FeatureSet
p3757
(dp3758
g12
(dp3759
S'posn'
p3760
S'200'
p3761
sS'name'
p3762
S'\xe0\xa4\xa5\xe0\xa5\x87'
p3763
sS'af'
p3764
S'\xe0\xa4\xa5\xe0\xa4\xbe,v,m,sg,3h,,\xe0\xa4\xa5\xe0\xa4\xbe,WA'
p3765
sS'chunkid'
p3766
S'VGF3'
p3767
sS'stype'
p3768
S'declarative'
p3769
sS'drel'
p3770
S'ccof:CCP2'
p3771
sS'chunktype'
p3772
S'head:VGF3'
p3773
sS'voicetype'
p3774
S'active'
p3775
sS'cref'
p3776
S'i44%1:t13'
p3777
ssbsg34
I00
sg35
I00
sg36
Nsg37
Nsg38
I11
sg39
I6
sg40
Nsg41
Nsg42
S'VM'
p3778
sg44
g3757
sg45
I00
sba(issf_api
Word
p3779
(dp3780
g6
I00
sg7
V\u0964
p3781
sg9
(issf_api
FeatureSet
p3782
(dp3783
g12
(dp3784
S'posn'
p3785
S'210'
p3786
sS'name'
p3787
S'\xe0\xa5\xa4'
p3788
sS'af'
p3789
S'\xe0\xa5\xa4,punc,,,,,,'
p3790
sS'chunkid'
p3791
S'BLK'
p3792
sS'drel'
p3793
S'rsym:VGF'
p3794
sS'chunktype'
p3795
S'head:BLK'
p3796
ssbsg34
I00
sg35
I00
sg36
Nsg37
Nsg38
I12
sg39
I6
sg40
Nsg41
Nsg42
S'SYM'
p3797
sg44
g3782
sg45
I00
sba(issf_api
Word
p3798
(dp3799
g6
I00
sg7
V\u0907\u0938\u0940\u0932\u093f\u090f
p3800
sg9
(issf_api
FeatureSet
p3801
(dp3802
g12
(dp3803
S'crefhead'
p3804
S'\xe0\xa4\x87\xe0\xa4\xb8\xe0\xa5\x80\xe0\xa4\xb2\xe0\xa4\xbf\xe0\xa4\x8f:i47'
p3805
sS'posn'
p3806
S'10'
p3807
sS'name'
p3808
S'\xe0\xa4\x87\xe0\xa4\xb8\xe0\xa5\x80\xe0\xa4\xb2\xe0\xa4\xbf\xe0\xa4\x8f'
p3809
sS'af'
p3810
S'\xe0\xa4\x87\xe0\xa4\xb8\xe0\xa5\x80\xe0\xa4\xb2\xe0\xa4\xbf\xe0\xa4\x8f,pn,,,,,,'
p3811
sS'chunkid'
p3812
S'NP'
p3813
sS'creftype'
p3814
S'Anaphora-C:i44'
p3815
sS'chunktype'
p3816
S'head:NP'
p3817
sS'cref'
p3818
S'i47%1:t13'
p3819
sS'drel'
p3820
S'rh:VGF'
p3821
ssbsg34
I00
sg35
I00
sg36
Nsg37
Nsg38
I0
sg39
I7
sg40
Nsg41
Nsg42
S'PRP'
p3822
sg44
g3801
sg45
I00
sba(issf_api
Word
p3823
(dp3824
g6
I00
sg7
V\u0938\u092d\u0940
p3825
sg9
(issf_api
FeatureSet
p3826
(dp3827
g12
(dp3828
S'posn'
p3829
S'20'
p3830
sS'name'
p3831
S'\xe0\xa4\xb8\xe0\xa4\xad\xe0\xa5\x80'
p3832
sS'drel'
p3833
S'nmod__adj:NP2'
p3834
sS'chunktype'
p3835
S'child:NP2'
p3836
sS'af'
p3837
S'\xe0\xa4\xb8\xe0\xa4\xad\xe0\xa5\x80,avy,,,,,,'
p3838
ssbsg34
I00
sg35
I00
sg36
Nsg37
Nsg38
I1
sg39
I7
sg40
Nsg41
Nsg42
S'QF'
p3839
sg44
g3826
sg45
I00
sba(issf_api
Word
p3840
(dp3841
g6
I00
sg7
V\u092e\u0941\u0926\u094d\u0926\u094b\u0902
p3842
sg9
(issf_api
FeatureSet
p3843
(dp3844
g12
(dp3845
S'posn'
p3846
S'30'
p3847
sS'name'
p3848
S'\xe0\xa4\xae\xe0\xa5\x81\xe0\xa4\xa6\xe0\xa5\x8d\xe0\xa4\xa6\xe0\xa5\x8b\xe0\xa4\x82'
p3849
sS'af'
p3850
S'\xe0\xa4\xae\xe0\xa5\x81\xe0\xa4\xa6\xe0\xa5\x8d\xe0\xa4\xa6\xe0\xa4\xbe,n,m,pl,3,o,0_\xe0\xa4\x95\xe0\xa5\x8b,0'
p3851
sS'chunkid'
p3852
S'NP2'
p3853
sS'drel'
p3854
S'k2:VGNN'
p3855
sS'vpos'
p3856
S'vib_3'
p3857
sS'chunktype'
p3858
S'head:NP2'
p3859
ssbsg34
I00
sg35
I00
sg36
Nsg37
Nsg38
I1
sg39
I7
sg40
Nsg41
Nsg42
S'NN'
p3860
sg44
g3843
sg45
I00
sba(issf_api
Word
p3861
(dp3862
g6
I00
sg7
V\u0915\u094b
p3863
sg9
(issf_api
FeatureSet
p3864
(dp3865
g12
(dp3866
S'posn'
p3867
S'40'
p3868
sS'name'
p3869
S'\xe0\xa4\x95\xe0\xa5\x8b'
p3870
sS'drel'
p3871
S'lwg__psp:NP2'
p3872
sS'chunktype'
p3873
S'child:NP2'
p3874
sS'af'
p3875
S'\xe0\xa4\x95\xe0\xa5\x8b,psp,,,,,,'
p3876
ssbsg34
I00
sg35
I00
sg36
Nsg37
Nsg38
I1
sg39
I7
sg40
Nsg41
Nsg42
S'PSP'
p3877
sg44
g3864
sg45
I00
sba(issf_api
Word
p3878
(dp3879
g6
I00
sg7
V\u0930\u092b\u093e
p3880
sg9
(issf_api
FeatureSet
p3881
(dp3882
g12
(dp3883
S'posn'
p3884
S'50'
p3885
sS'name'
p3886
S'\xe0\xa4\xb0\xe0\xa4\xab\xe0\xa4\xbe'
p3887
sS'drel'
p3888
S'pof__cn:NP3'
p3889
sS'chunktype'
p3890
S'child:NP3'
p3891
sS'af'
p3892
S'\xe0\xa4\xb0\xe0\xa4\xab\xe0\xa4\xbe,n,m,sg,3,d,0,0'
p3893
ssbsg34
I00
sg35
I00
sg36
Nsg37
Nsg38
I2
sg39
I7
sg40
Nsg41
Nsg42
S'NNC'
p3894
sg44
g3881
sg45
I00
sba(issf_api
Word
p3895
(dp3896
g6
I00
sg7
V-
p3897
sg9
(issf_api
FeatureSet
p3898
(dp3899
g12
(dp3900
S'posn'
p3901
S'60'
p3902
sS'name'
p3903
S'-'
p3904
sS'drel'
p3905
S'pof__cn:NP3'
p3906
sS'chunktype'
p3907
S'child:NP3'
p3908
sS'af'
p3909
S'-,punc,,,,,,'
p3910
ssbsg34
I00
sg35
I00
sg36
Nsg37
Nsg38
I2
sg39
I7
sg40
Nsg41
Nsg42
S'SYM'
p3911
sg44
g3898
sg45
I00
sba(issf_api
Word
p3912
(dp3913
g6
I00
sg7
V\u0926\u092b\u093e
p3914
sg9
(issf_api
FeatureSet
p3915
(dp3916
g12
(dp3917
S'posn'
p3918
S'70'
p3919
sS'name'
p3920
S'\xe0\xa4\xa6\xe0\xa4\xab\xe0\xa4\xbe'
p3921
sS'af'
p3922
S'\xe0\xa4\xa6\xe0\xa4\xab\xe0\xa4\xbe,n,m,sg,3,d,0,0'
p3923
sS'chunkid'
p3924
S'NP3'
p3925
sS'drel'
p3926
S'pof:VGNN'
p3927
sS'chunktype'
p3928
S'head:NP3'
p3929
ssbsg34
I00
sg35
I00
sg36
Nsg37
Nsg38
I2
sg39
I7
sg40
Nsg41
Nsg42
S'NN'
p3930
sg44
g3915
sg45
I00
sba(issf_api
Word
p3931
(dp3932
g6
I00
sg7
V\u0915\u0930\u0928\u0947
p3933
sg9
(issf_api
FeatureSet
p3934
(dp3935
g12
(dp3936
S'posn'
p3937
S'80'
p3938
sS'name'
p3939
S'\xe0\xa4\x95\xe0\xa4\xb0\xe0\xa4\xa8\xe0\xa5\x87'
p3940
sS'af'
p3941
S'\xe0\xa4\x95\xe0\xa4\xb0,v,any,any,any,o,\xe0\xa4\xa8\xe0\xa4\xbe_\xe0\xa4\x95\xe0\xa5\x87_\xe0\xa4\xb2\xe0\xa4\xbf\xe0\xa4\x8f,nA'
p3942
sS'chunkid'
p3943
S'VGNN'
p3944
sS'drel'
p3945
S'rt:VGF'
p3946
sS'vpos'
p3947
S'tam_2_3'
p3948
sS'chunktype'
p3949
S'head:VGNN'
p3950
ssbsg34
I00
sg35
I00
sg36
Nsg37
Nsg38
I3
sg39
I7
sg40
Nsg41
Nsg42
S'VM'
p3951
sg44
g3934
sg45
I00
sba(issf_api
Word
p3952
(dp3953
g6
I00
sg7
V\u0915\u0947
p3954
sg9
(issf_api
FeatureSet
p3955
(dp3956
g12
(dp3957
S'posn'
p3958
S'90'
p3959
sS'name'
p3960
S'\xe0\xa4\x95\xe0\xa5\x87'
p3961
sS'drel'
p3962
S'lwg__psp:VGNN'
p3963
sS'chunktype'
p3964
S'child:VGNN'
p3965
sS'af'
p3966
S'\xe0\xa4\x95\xe0\xa5\x87,psp,,,,,,'
p3967
ssbsg34
I00
sg35
I00
sg36
Nsg37
Nsg38
I3
sg39
I7
sg40
Nsg41
Nsg42
S'PSP'
p3968
sg44
g3955
sg45
I00
sba(issf_api
Word
p3969
(dp3970
g6
I00
sg7
V\u0932\u093f\u090f
p3971
sg9
(issf_api
FeatureSet
p3972
(dp3973
g12
(dp3974
S'posn'
p3975
S'100'
p3976
sS'name'
p3977
S'\xe0\xa4\xb2\xe0\xa4\xbf\xe0\xa4\x8f'
p3978
sS'drel'
p3979
S'lwg__psp:VGNN'
p3980
sS'chunktype'
p3981
S'child:VGNN'
p3982
sS'af'
p3983
S'\xe0\xa4\xb2\xe0\xa4\xbf\xe0\xa4\x8f,psp,,,,,,'
p3984
ssbsg34
I00
sg35
I00
sg36
Nsg37
Nsg38
I3
sg39
I7
sg40
Nsg41
Nsg42
S'PSP'
p3985
sg44
g3972
sg45
I00
sba(issf_api
Word
p3986
(dp3987
g6
I00
sg7
V\u0928\u0915\u093c\u0935\u0940
p3988
sg9
(issf_api
FeatureSet
p3989
(dp3990
g12
(dp3991
S'crefhead'
p3992
S'\xe0\xa4\xa8\xe0\xa4\x95\xe0\xa4\xbc\xe0\xa4\xb5\xe0\xa5\x80:i48'
p3993
sS'posn'
p3994
S'110'
p3995
sS'name'
p3996
S'\xe0\xa4\xa8\xe0\xa4\x95\xe0\xa4\xbc\xe0\xa4\xb5\xe0\xa5\x80'
p3997
sS'af'
p3998
S'\xe0\xa4\xa8\xe0\xa4\x95\xe0\xa4\xbc\xe0\xa4\xb5\xe0\xa5\x80,n,m,sg,3,d,0,0'
p3999
sS'chunkid'
p4000
S'NP4'
p4001
sS'creftype'
p4002
S'Coreference-Identity:i43'
p4003
sS'chunktype'
p4004
S'head:NP4'
p4005
sS'cref'
p4006
S'i48%1:t1'
p4007
sS'drel'
p4008
S'k1:VGF'
p4009
ssbsg34
I00
sg35
I00
sg36
Nsg37
Nsg38
I4
sg39
I7
sg40
Nsg41
Nsg42
S'NNP'
p4010
sg44
g3989
sg45
I00
sba(issf_api
Word
p4011
(dp4012
g6
I00
sg7
V\u0906\u0921\u0935\u093e\u0923\u0940
p4013
sg9
(issf_api
FeatureSet
p4014
(dp4015
g12
(dp4016
S'crefhead'
p4017
S'\xe0\xa4\x86\xe0\xa4\xa1\xe0\xa4\xb5\xe0\xa4\xbe\xe0\xa4\xa3\xe0\xa5\x80:i49'
p4018
sS'posn'
p4019
S'120'
p4020
sS'name'
p4021
S'\xe0\xa4\x86\xe0\xa4\xa1\xe0\xa4\xb5\xe0\xa4\xbe\xe0\xa4\xa3\xe0\xa5\x80'
p4022
sS'af'
p4023
S'\xe0\xa4\x86\xe0\xa4\xa1\xe0\xa4\xb5\xe0\xa4\xbe\xe0\xa4\xa3\xe0\xa5\x80,n,m,sg,3,o,0_\xe0\xa4\xb8\xe0\xa5\x87,0'
p4024
sS'chunkid'
p4025
S'NP5'
p4026
sS'creftype'
p4027
S'Coreference-Identity:i46'
p4028
sS'chunktype'
p4029
S'head:NP5'
p4030
sS'vpos'
p4031
S'vib_2'
p4032
sS'cref'
p4033
S'i49%1:t4'
p4034
sS'drel'
p4035
S'k2:VGNN2'
p4036
ssbsg34
I00
sg35
I00
sg36
Nsg37
Nsg38
I5
sg39
I7
sg40
Nsg41
Nsg42
S'NNP'
p4037
sg44
g4014
sg45
I00
sba(issf_api
Word
p4038
(dp4039
g6
I00
sg7
V\u0938\u0947
p4040
sg9
(issf_api
FeatureSet
p4041
(dp4042
g12
(dp4043
S'posn'
p4044
S'130'
p4045
sS'name'
p4046
S'\xe0\xa4\xb8\xe0\xa5\x87'
p4047
sS'drel'
p4048
S'lwg__psp:NP5'
p4049
sS'chunktype'
p4050
S'child:NP5'
p4051
sS'af'
p4052
S'\xe0\xa4\xb8\xe0\xa5\x87,psp,,,,,,'
p4053
ssbsg34
I00
sg35
I00
sg36
Nsg37
Nsg38
I5
sg39
I7
sg40
Nsg41
Nsg42
S'PSP'
p4054
sg44
g4041
sg45
I00
sba(issf_api
Word
p4055
(dp4056
g6
I00
sg7
V\u0906\u092e\u0928\u0947
p4057
sg9
(issf_api
FeatureSet
p4058
(dp4059
g12
(dp4060
S'posn'
p4061
S'140'
p4062
sS'name'
p4063
S'\xe0\xa4\x86\xe0\xa4\xae\xe0\xa4\xa8\xe0\xa5\x87'
p4064
sS'af'
p4065
S'\xe0\xa4\x86\xe0\xa4\xae\xe0\xa4\xa8\xe0\xa5\x87,nst,m,sg,3,d,,'
p4066
sS'chunkid'
p4067
S'NP6'
p4068
sS'drel'
p4069
S'k7:VGNN2'
p4070
sS'chunktype'
p4071
S'head:NP6'
p4072
ssbsg34
I00
sg35
I00
sg36
Nsg37
Nsg38
I6
sg39
I7
sg40
Nsg41
Nsg42
S'NSTC'
p4073
sg44
g4058
sg45
I00
sba(issf_api
Word
p4074
(dp4075
g6
I00
sg7
V-
p4076
sg9
(issf_api
FeatureSet
p4077
(dp4078
g12
(dp4079
S'posn'
p4080
S'150'
p4081
sS'name'
p4082
S'-2'
p4083
sS'drel'
p4084
S'rsym:NP6'
p4085
sS'chunktype'
p4086
S'child:NP6'
p4087
sS'af'
p4088
S'-,punc,,,,,,'
p4089
ssbsg34
I00
sg35
I00
sg36
Nsg37
Nsg38
I6
sg39
I7
sg40
Nsg41
Nsg42
S'SYM'
p4090
sg44
g4077
sg45
I00
sba(issf_api
Word
p4091
(dp4092
g6
I00
sg7
V\u0938\u093e\u092e\u0928\u0947
p4093
sg9
(issf_api
FeatureSet
p4094
(dp4095
g12
(dp4096
S'posn'
p4097
S'160'
p4098
sS'name'
p4099
S'\xe0\xa4\xb8\xe0\xa4\xbe\xe0\xa4\xae\xe0\xa4\xa8\xe0\xa5\x87'
p4100
sS'drel'
p4101
S'lwg__psp:NP6'
p4102
sS'chunktype'
p4103
S'child:NP6'
p4104
sS'af'
p4105
S'\xe0\xa4\xb8\xe0\xa4\xbe\xe0\xa4\xae\xe0\xa4\xa8\xe0\xa5\x87,nst,m,sg,3,d,,'
p4106
ssbsg34
I00
sg35
I00
sg36
Nsg37
Nsg38
I6
sg39
I7
sg40
Nsg41
Nsg42
S'NST'
p4107
sg44
g4094
sg45
I00
sba(issf_api
Word
p4108
(dp4109
g6
I00
sg7
V\u092e\u093f\u0932\u0928\u093e
p4110
sg9
(issf_api
FeatureSet
p4111
(dp4112
g12
(dp4113
S'posn'
p4114
S'170'
p4115
sS'name'
p4116
S'\xe0\xa4\xae\xe0\xa4\xbf\xe0\xa4\xb2\xe0\xa4\xa8\xe0\xa4\xbe'
p4117
sS'af'
p4118
S'\xe0\xa4\xae\xe0\xa4\xbf\xe0\xa4\xb2,v,any,any,any,d,\xe0\xa4\xa8\xe0\xa4\xbe,nA'
p4119
sS'chunkid'
p4120
S'VGNN2'
p4121
sS'drel'
p4122
S'k2:VGF'
p4123
sS'chunktype'
p4124
S'head:VGNN2'
p4125
ssbsg34
I00
sg35
I00
sg36
Nsg37
Nsg38
I7
sg39
I7
sg40
Nsg41
Nsg42
S'VM'
p4126
sg44
g4111
sg45
I00
sba(issf_api
Word
p4127
(dp4128
g6
I00
sg7
V\u091a\u093e\u0939\u0924\u0947
p4129
sg9
(issf_api
FeatureSet
p4130
(dp4131
g12
(dp4132
S'posn'
p4133
S'180'
p4134
sS'name'
p4135
S'\xe0\xa4\x9a\xe0\xa4\xbe\xe0\xa4\xb9\xe0\xa4\xa4\xe0\xa5\x87'
p4136
sS'af'
p4137
S'\xe0\xa4\x9a\xe0\xa4\xbe\xe0\xa4\xb9,v,m,sg,3h,,\xe0\xa4\xa4\xe0\xa4\xbe_\xe0\xa4\xa5\xe0\xa4\xbe,wA'
p4138
sS'chunkid'
p4139
S'VGF'
p4140
sS'chunktype'
p4141
S'head:VGF'
p4142
sS'voicetype'
p4143
S'active'
p4144
sS'vpos'
p4145
S'tam_2'
p4146
sS'stype'
p4147
S'declarative'
p4148
ssbsg34
I00
sg35
I00
sg36
Nsg37
Nsg38
I8
sg39
I7
sg40
Nsg41
Nsg42
S'VM'
p4149
sg44
g4130
sg45
I00
sba(issf_api
Word
p4150
(dp4151
g6
I00
sg7
V\u0925\u0947
p4152
sg9
(issf_api
FeatureSet
p4153
(dp4154
g12
(dp4155
S'posn'
p4156
S'190'
p4157
sS'name'
p4158
S'\xe0\xa4\xa5\xe0\xa5\x87'
p4159
sS'drel'
p4160
S'lwg__vaux:VGF'
p4161
sS'chunktype'
p4162
S'child:VGF'
p4163
sS'af'
p4164
S'\xe0\xa4\xa5\xe0\xa4\xbe,v,m,sg,3h,,\xe0\xa4\xa5\xe0\xa4\xbe,WA'
p4165
ssbsg34
I00
sg35
I00
sg36
Nsg37
Nsg38
I8
sg39
I7
sg40
Nsg41
Nsg42
S'VAUX'
p4166
sg44
g4153
sg45
I00
sba(issf_api
Word
p4167
(dp4168
g6
I00
sg7
V\u0964
p4169
sg9
(issf_api
FeatureSet
p4170
(dp4171
g12
(dp4172
S'posn'
p4173
S'200'
p4174
sS'name'
p4175
S'\xe0\xa5\xa4'
p4176
sS'af'
p4177
S'\xe0\xa5\xa4,punc,,,,,,'
p4178
sS'chunkid'
p4179
S'BLK'
p4180
sS'drel'
p4181
S'rsym:VGF'
p4182
sS'chunktype'
p4183
S'head:BLK'
p4184
ssbsg34
I00
sg35
I00
sg36
Nsg37
Nsg38
I9
sg39
I7
sg40
Nsg41
Nsg42
S'SYM'
p4185
sg44
g4170
sg45
I00
sba(issf_api
Word
p4186
(dp4187
g6
I00
sg7
V\u0926\u094b\u0928\u094b\u0902
p4188
sg9
(issf_api
FeatureSet
p4189
(dp4190
g12
(dp4191
S'crefhead'
p4192
S'\xe0\xa4\xa6\xe0\xa5\x8b\xe0\xa4\xa8\xe0\xa5\x8b\xe0\xa4\x82:i50,\xe0\xa4\xa6\xe0\xa5\x8b\xe0\xa4\xa8\xe0\xa5\x8b\xe0\xa4\x82:i51'
p4193
sS'posn'
p4194
S'10'
p4195
sS'name'
p4196
S'\xe0\xa4\xa6\xe0\xa5\x8b\xe0\xa4\xa8\xe0\xa5\x8b\xe0\xa4\x82'
p4197
sS'af'
p4198
S'\xe0\xa4\xa6\xe0\xa5\x8b,n,m,pl,3,o,0_\xe0\xa4\x95\xe0\xa5\x87_\xe0\xa4\xac\xe0\xa5\x80\xe0\xa4\x9a,0'
p4199
sS'chunkid'
p4200
S'NP'
p4201
sS'creftype'
p4202
S'Coreference-RPartOf:i49,Coreference-RPartOf:i48'
p4203
sS'chunktype'
p4204
S'head:NP'
p4205
sS'vpos'
p4206
S'vib_2_3'
p4207
sS'cref'
p4208
S'i50%1:t1,i51%1:t4'
p4209
sS'drel'
p4210
S'k7:VGF'
p4211
ssbsg34
I00
sg35
I00
sg36
Nsg37
Nsg38
I0
sg39
I8
sg40
Nsg41
Nsg42
S'NN'
p4212
sg44
g4189
sg45
I00
sba(issf_api
Word
p4213
(dp4214
g6
I00
sg7
V\u0915\u0947
p4215
sg9
(issf_api
FeatureSet
p4216
(dp4217
g12
(dp4218
S'posn'
p4219
S'20'
p4220
sS'name'
p4221
S'\xe0\xa4\x95\xe0\xa5\x87'
p4222
sS'drel'
p4223
S'lwg__psp:NP'
p4224
sS'chunktype'
p4225
S'child:NP'
p4226
sS'af'
p4227
S'\xe0\xa4\x95\xe0\xa5\x87,psp,,,,,,'
p4228
ssbsg34
I00
sg35
I00
sg36
Nsg37
Nsg38
I0
sg39
I8
sg40
Nsg41
Nsg42
S'PSP'
p4229
sg44
g4216
sg45
I00
sba(issf_api
Word
p4230
(dp4231
g6
I00
sg7
V\u092c\u0940\u091a
p4232
sg9
(issf_api
FeatureSet
p4233
(dp4234
g12
(dp4235
S'posn'
p4236
S'30'
p4237
sS'name'
p4238
S'\xe0\xa4\xac\xe0\xa5\x80\xe0\xa4\x9a'
p4239
sS'drel'
p4240
S'lwg__psp:NP'
p4241
sS'chunktype'
p4242
S'child:NP'
p4243
sS'af'
p4244
S'\xe0\xa4\xac\xe0\xa5\x80\xe0\xa4\x9a,nst,m,sg,3,d,,'
p4245
ssbsg34
I00
sg35
I00
sg36
Nsg37
Nsg38
I0
sg39
I8
sg40
Nsg41
Nsg42
S'NST'
p4246
sg44
g4233
sg45
I00
sba(issf_api
Word
p4247
(dp4248
g6
I00
sg7
V\u0935\u093f\u091a\u093e\u0930
p4249
sg9
(issf_api
FeatureSet
p4250
(dp4251
g12
(dp4252
S'posn'
p4253
S'40'
p4254
sS'name'
p4255
S'\xe0\xa4\xb5\xe0\xa4\xbf\xe0\xa4\x9a\xe0\xa4\xbe\xe0\xa4\xb0'
p4256
sS'drel'
p4257
S'pof__cn:NP2'
p4258
sS'chunktype'
p4259
S'child:NP2'
p4260
sS'af'
p4261
S'\xe0\xa4\xb5\xe0\xa4\xbf\xe0\xa4\x9a\xe0\xa4\xbe\xe0\xa4\xb0,n,m,sg,3,d,0,0'
p4262
ssbsg34
I00
sg35
I00
sg36
Nsg37
Nsg38
I1
sg39
I8
sg40
Nsg41
Nsg42
S'NNC'
p4263
sg44
g4250
sg45
I00
sba(issf_api
Word
p4264
(dp4265
g6
I00
sg7
V-
p4266
sg9
(issf_api
FeatureSet
p4267
(dp4268
g12
(dp4269
S'posn'
p4270
S'50'
p4271
sS'name'
p4272
g3904
sS'drel'
p4273
S'pof__cn:NP2'
p4274
sS'chunktype'
p4275
S'child:NP2'
p4276
sS'af'
p4277
S'-,punc,,,,,,'
p4278
ssbsg34
I00
sg35
I00
sg36
Nsg37
Nsg38
I1
sg39
I8
sg40
Nsg41
Nsg42
S'SYM'
p4279
sg44
g4267
sg45
I00
sba(issf_api
Word
p4280
(dp4281
g6
I00
sg7
V\u0935\u093f\u092e\u0930\u094d\u0936
p4282
sg9
(issf_api
FeatureSet
p4283
(dp4284
g12
(dp4285
S'posn'
p4286
S'60'
p4287
sS'name'
p4288
S'\xe0\xa4\xb5\xe0\xa4\xbf\xe0\xa4\xae\xe0\xa4\xb0\xe0\xa5\x8d\xe0\xa4\xb6'
p4289
sS'af'
p4290
S'\xe0\xa4\xb5\xe0\xa4\xbf\xe0\xa4\xae\xe0\xa4\xb0\xe0\xa5\x8d\xe0\xa4\xb6,n,m,sg,3,o,0_\xe0\xa4\x95\xe0\xa5\x87_\xe0\xa4\xac\xe0\xa4\xbe\xe0\xa4\xa6,0'
p4291
sS'chunkid'
p4292
S'NP2'
p4293
sS'drel'
p4294
S'k7t:VGF'
p4295
sS'vpos'
p4296
S'vib_4_5'
p4297
sS'chunktype'
p4298
S'head:NP2'
p4299
ssbsg34
I00
sg35
I00
sg36
Nsg37
Nsg38
I1
sg39
I8
sg40
Nsg41
Nsg42
S'NN'
p4300
sg44
g4283
sg45
I00
sba(issf_api
Word
p4301
(dp4302
g6
I00
sg7
V\u0915\u0947
p4303
sg9
(issf_api
FeatureSet
p4304
(dp4305
g12
(dp4306
S'posn'
p4307
S'70'
p4308
sS'name'
p4309
S'\xe0\xa4\x95\xe0\xa5\x872'
p4310
sS'drel'
p4311
S'lwg__psp:NP2'
p4312
sS'chunktype'
p4313
S'child:NP2'
p4314
sS'af'
p4315
S'\xe0\xa4\x95\xe0\xa5\x87,psp,,,,,,'
p4316
ssbsg34
I00
sg35
I00
sg36
Nsg37
Nsg38
I1
sg39
I8
sg40
Nsg41
Nsg42
S'PSP'
p4317
sg44
g4304
sg45
I00
sba(issf_api
Word
p4318
(dp4319
g6
I00
sg7
V\u092c\u093e\u0926
p4320
sg9
(issf_api
FeatureSet
p4321
(dp4322
g12
(dp4323
S'posn'
p4324
S'80'
p4325
sS'name'
p4326
S'\xe0\xa4\xac\xe0\xa4\xbe\xe0\xa4\xa6'
p4327
sS'drel'
p4328
S'lwg__psp:NP2'
p4329
sS'chunktype'
p4330
S'child:NP2'
p4331
sS'af'
p4332
S'\xe0\xa4\xac\xe0\xa4\xbe\xe0\xa4\xa6,nst,m,sg,3,d,,'
p4333
ssbsg34
I00
sg35
I00
sg36
Nsg37
Nsg38
I1
sg39
I8
sg40
Nsg41
Nsg42
S'NST'
p4334
sg44
g4321
sg45
I00
sba(issf_api
Word
p4335
(dp4336
g6
I00
sg7
V\u0905\u092c
p4337
sg9
(issf_api
FeatureSet
p4338
(dp4339
g12
(dp4340
S'crefhead'
p4341
S'\xe0\xa4\x85\xe0\xa4\xac:i52'
p4342
sS'posn'
p4343
S'90'
p4344
sS'name'
p4345
S'\xe0\xa4\x85\xe0\xa4\xac'
p4346
sS'af'
p4347
S'\xe0\xa4\x85\xe0\xa4\xac,pn,,,,d,,'
p4348
sS'chunkid'
p4349
S'NP3'
p4350
sS'creftype'
p4351
S'anaphora-?:i52'
p4352
sS'chunktype'
p4353
S'head:NP3'
p4354
sS'crefchainhead'
p4355
S'i52:t14'
p4356
sS'cref'
p4357
S'i52%1:t14'
p4358
sS'drel'
p4359
S'k7t:VGF'
p4360
ssbsg34
I00
sg35
I00
sg36
Nsg37
Nsg38
I2
sg39
I8
sg40
Nsg41
Nsg42
S'PRP'
p4361
sg44
g4338
sg45
I00
sba(issf_api
Word
p4362
(dp4363
g6
I00
sg7
V\u092f\u0939
p4364
sg9
(issf_api
FeatureSet
p4365
(dp4366
g12
(dp4367
S'posn'
p4368
S'100'
p4369
sS'name'
p4370
S'\xe0\xa4\xaf\xe0\xa4\xb9'
p4371
sS'drel'
p4372
S'nmod__adj:NP4'
p4373
sS'chunktype'
p4374
S'child:NP4'
p4375
sS'af'
p4376
S'\xe0\xa4\xaf\xe0\xa4\xb9,pn,any,sg,3,d,,'
p4377
ssbsg34
I00
sg35
I00
sg36
Nsg37
Nsg38
I3
sg39
I8
sg40
Nsg41
Nsg42
S'DEM'
p4378
sg44
g4365
sg45
I00
sba(issf_api
Word
p4379
(dp4380
g6
I00
sg7
V\u0905\u0927\u094d\u092f\u093e\u092f
p4381
sg9
(issf_api
FeatureSet
p4382
(dp4383
g12
(dp4384
S'posn'
p4385
S'110'
p4386
sS'name'
p4387
S'\xe0\xa4\x85\xe0\xa4\xa7\xe0\xa5\x8d\xe0\xa4\xaf\xe0\xa4\xbe\xe0\xa4\xaf'
p4388
sS'af'
p4389
S'\xe0\xa4\x85\xe0\xa4\xa7\xe0\xa5\x8d\xe0\xa4\xaf\xe0\xa4\xbe\xe0\xa4\xaf,n,m,sg,3,d,0,0'
p4390
sS'chunkid'
p4391
S'NP4'
p4392
sS'drel'
p4393
S'k1:VGF'
p4394
sS'chunktype'
p4395
S'head:NP4'
p4396
ssbsg34
I00
sg35
I00
sg36
Nsg37
Nsg38
I3
sg39
I8
sg40
Nsg41
Nsg42
S'NN'
p4397
sg44
g4382
sg45
I00
sba(issf_api
Word
p4398
(dp4399
g6
I00
sg7
V\u0939\u092e\u0947\u0936\u093e
p4400
sg9
(issf_api
FeatureSet
p4401
(dp4402
g12
(dp4403
S'posn'
p4404
S'120'
p4405
sS'name'
p4406
S'\xe0\xa4\xb9\xe0\xa4\xae\xe0\xa5\x87\xe0\xa4\xb6\xe0\xa4\xbe'
p4407
sS'af'
p4408
S'\xe0\xa4\xb9\xe0\xa4\xae\xe0\xa5\x87\xe0\xa4\xb6\xe0\xa4\xbe,adv,,,,,,'
p4409
sS'chunkid'
p4410
S'RBP'
p4411
sS'drel'
p4412
S'rt:VGF'
p4413
sS'chunktype'
p4414
S'head:RBP'
p4415
ssbsg34
I00
sg35
I00
sg36
Nsg37
Nsg38
I4
sg39
I8
sg40
Nsg41
Nsg42
S'RB'
p4416
sg44
g4401
sg45
I00
sba(issf_api
Word
p4417
(dp4418
g6
I00
sg7
V\u0915\u0947
p4419
sg9
(issf_api
FeatureSet
p4420
(dp4421
g12
(dp4422
S'posn'
p4423
S'130'
p4424
sS'name'
p4425
S'\xe0\xa4\x95\xe0\xa5\x873'
p4426
sS'drel'
p4427
S'mod:RBP'
p4428
sS'chunktype'
p4429
S'child:RBP'
p4430
sS'af'
p4431
S'\xe0\xa4\x95\xe0\xa5\x87,psp,,,,,,'
p4432
ssbsg34
I00
sg35
I00
sg36
Nsg37
Nsg38
I4
sg39
I8
sg40
Nsg41
Nsg42
S'PSP'
p4433
sg44
g4420
sg45
I00
sba(issf_api
Word
p4434
(dp4435
g6
I00
sg7
V\u0932\u093f\u090f
p4436
sg9
(issf_api
FeatureSet
p4437
(dp4438
g12
(dp4439
S'posn'
p4440
S'140'
p4441
sS'name'
p4442
S'\xe0\xa4\xb2\xe0\xa4\xbf\xe0\xa4\x8f'
p4443
sS'drel'
p4444
S'mod:RBP'
p4445
sS'chunktype'
p4446
S'child:RBP'
p4447
sS'af'
p4448
S'\xe0\xa4\xb2\xe0\xa4\xbf\xe0\xa4\x8f,psp,,,,,,'
p4449
ssbsg34
I00
sg35
I00
sg36
Nsg37
Nsg38
I4
sg39
I8
sg40
Nsg41
Nsg42
S'PSP'
p4450
sg44
g4437
sg45
I00
sba(issf_api
Word
p4451
(dp4452
g6
I00
sg7
V\u092c\u0902\u0926
p4453
sg9
(issf_api
FeatureSet
p4454
(dp4455
g12
(dp4456
S'posn'
p4457
S'150'
p4458
sS'name'
p4459
S'\xe0\xa4\xac\xe0\xa4\x82\xe0\xa4\xa6'
p4460
sS'af'
p4461
S'\xe0\xa4\xac\xe0\xa4\x82\xe0\xa4\xa6,adj,any,any,,,,'
p4462
sS'chunkid'
p4463
S'JJP'
p4464
sS'drel'
p4465
S'pof:VGF'
p4466
sS'chunktype'
p4467
S'head:JJP'
p4468
ssbsg34
I00
sg35
I00
sg36
Nsg37
Nsg38
I5
sg39
I8
sg40
Nsg41
Nsg42
S'JJ'
p4469
sg44
g4454
sg45
I00
sba(issf_api
Word
p4470
(dp4471
g6
I00
sg7
V\u0939\u094b
p4472
sg9
(issf_api
FeatureSet
p4473
(dp4474
g12
(dp4475
S'posn'
p4476
S'160'
p4477
sS'name'
p4478
S'\xe0\xa4\xb9\xe0\xa5\x8b'
p4479
sS'af'
p4480
S'\xe0\xa4\xb9\xe0\xa5\x8b,v,m,sg,3,,0_\xe0\xa4\x9c\xe0\xa4\xbe+\xe0\xa4\xaf\xe0\xa4\xbe\xe0\xa5\xa7_\xe0\xa4\xb9\xe0\xa5\x88,0'
p4481
sS'chunkid'
p4482
S'VGF'
p4483
sS'chunktype'
p4484
S'head:VGF'
p4485
sS'voicetype'
p4486
S'active'
p4487
sS'vpos'
p4488
S'tam_2_3'
p4489
sS'stype'
p4490
S'declarative'
p4491
ssbsg34
I00
sg35
I00
sg36
Nsg37
Nsg38
I6
sg39
I8
sg40
Nsg41
Nsg42
S'VM'
p4492
sg44
g4473
sg45
I00
sba(issf_api
Word
p4493
(dp4494
g6
I00
sg7
V\u0917\u092f\u093e
p4495
sg9
(issf_api
FeatureSet
p4496
(dp4497
g12
(dp4498
S'posn'
p4499
S'170'
p4500
sS'name'
p4501
S'\xe0\xa4\x97\xe0\xa4\xaf\xe0\xa4\xbe'
p4502
sS'drel'
p4503
S'lwg__vaux:VGF'
p4504
sS'chunktype'
p4505
S'child:VGF'
p4506
sS'af'
p4507
S'\xe0\xa4\x9c\xe0\xa4\xbe,v,m,sg,any,,\xe0\xa4\xaf\xe0\xa4\xbe\xe0\xa5\xa7,yA1'
p4508
ssbsg34
I00
sg35
I00
sg36
Nsg37
Nsg38
I6
sg39
I8
sg40
Nsg41
Nsg42
S'VAUX'
p4509
sg44
g4496
sg45
I00
sba(issf_api
Word
p4510
(dp4511
g6
I00
sg7
V\u0939\u0948
p4512
sg9
(issf_api
FeatureSet
p4513
(dp4514
g12
(dp4515
S'posn'
p4516
S'180'
p4517
sS'name'
p4518
S'\xe0\xa4\xb9\xe0\xa5\x88'
p4519
sS'drel'
p4520
S'lwg__vaux:VGF'
p4521
sS'chunktype'
p4522
S'child:VGF'
p4523
sS'af'
p4524
S'\xe0\xa4\xb9\xe0\xa5\x88,v,any,sg,3,,\xe0\xa4\xb9\xe0\xa5\x88,hE'
p4525
ssbsg34
I00
sg35
I00
sg36
Nsg37
Nsg38
I6
sg39
I8
sg40
Nsg41
Nsg42
S'VAUX'
p4526
sg44
g4513
sg45
I00
sba(issf_api
Word
p4527
(dp4528
g6
I00
sg7
V\u0964
p4529
sg9
(issf_api
FeatureSet
p4530
(dp4531
g12
(dp4532
S'posn'
p4533
S'190'
p4534
sS'name'
p4535
S'\xe0\xa5\xa4'
p4536
sS'af'
p4537
S'\xe0\xa5\xa4,punc,,,,,,'
p4538
sS'chunkid'
p4539
S'BLK'
p4540
sS'drel'
p4541
S'rsym:VGF'
p4542
sS'chunktype'
p4543
S'head:BLK'
p4544
ssbsg34
I00
sg35
I00
sg36
Nsg37
Nsg38
I7
sg39
I8
sg40
Nsg41
Nsg42
S'SYM'
p4545
sg44
g4530
sg45
I00
sba(issf_api
Word
p4546
(dp4547
g6
I00
sg7
V'
p4548
sg9
(issf_api
FeatureSet
p4549
(dp4550
g12
(dp4551
S'posn'
p4552
S'200'
p4553
sS'name'
p4554
g2596
sS'drel'
p4555
S'rsym:BLK'
p4556
sS'chunktype'
p4557
S'child:BLK'
p4558
sS'af'
p4559
S'SINGLE_QUOTE,punc,,,,,,'
p4560
ssbsg34
I00
sg35
I00
sg36
Nsg37
Nsg38
I7
sg39
I8
sg40
Nsg41
Nsg42
S'SYM'
p4561
sg44
g4549
sg45
I00
sbasS'sentenceList'
p4562
(lp4563
(issf_api
Sentence
p4564
(dp4565
S'rootNode'
p4566
(lp4567
sg39
I0
sS'wordNumList'
p4568
(lp4569
I0
aI1
aI2
aI3
aI4
aI5
aI6
aI7
aI8
aI9
aI10
aI11
aI12
aI13
aI14
aI15
aI16
aI17
aI18
aI19
aI20
aI21
aI22
aI23
aI24
aI25
aI26
aI27
aI28
aI29
aI30
aI31
aI32
asS'nodeDict'
p4570
(dp4571
S'VGNF'
p4572
(issf_api
Node
p4573
(dp4574
S'nodeRelation'
p4575
S'nmod__k1inv'
p4576
sS'nodeName'
p4577
g4572
sS'nodeParent'
p4578
S'NP8'
p4579
sS'nodeLevel'
p4580
I-1
sg38
I9
sS'childList'
p4581
(lp4582
S'NP7'
p4583
asbsS'VGNN'
p4584
(issf_api
Node
p4585
(dp4586
g4575
S'r6-k2'
p4587
sg4577
g4584
sg4578
S'NP10'
p4588
sg4580
I-1
sg38
I12
sg4581
(lp4589
S'NP9'
p4590
aS'NP8'
p4591
asbsS'VGF'
p4592
(issf_api
Node
p4593
(dp4594
g4575
S'ccof'
p4595
sg4577
g4592
sg4578
S'CCP'
p4596
sg4580
I-1
sg38
I6
sg4581
(lp4597
S'NP5'
p4598
aS'NP4'
p4599
aS'NP6'
p4600
aS'NP3'
p4601
aS'NP2'
p4602
asbsS'CCP'
p4603
(issf_api
Node
p4604
(dp4605
g4575
S'None'
p4606
sg4577
g4603
sg4578
g4606
sg4580
I-1
sg38
I7
sg4581
(lp4607
g4592
aS'VGF2'
p4608
aS'BLK'
p4609
asbsg4608
(issf_api
Node
p4610
(dp4611
g4575
S'ccof'
p4612
sg4577
g4608
sg4578
S'CCP'
p4613
sg4580
I-1
sg38
I14
sg4581
(lp4614
S'NP10'
p4615
asbsg4598
(issf_api
Node
p4616
(dp4617
g4575
S'k2'
p4618
sg4577
g4598
sg4578
S'VGF'
p4619
sg4580
I-1
sg38
I4
sg4581
(lp4620
sbsg4590
(issf_api
Node
p4621
(dp4622
g4575
S'pof'
p4623
sg4577
g4590
sg4578
S'VGNN'
p4624
sg4580
I-1
sg38
I11
sg4581
(lp4625
sbsg4591
(issf_api
Node
p4626
(dp4627
g4575
S'k2'
p4628
sg4577
g4591
sg4578
S'VGNN'
p4629
sg4580
I-1
sg38
I10
sg4581
(lp4630
g4572
asbsg4609
(issf_api
Node
p4631
(dp4632
g4575
S'rsym'
p4633
sg4577
g4609
sg4578
S'CCP'
p4634
sg4580
I-1
sg38
I15
sg4581
(lp4635
sbsg4615
(issf_api
Node
p4636
(dp4637
g4575
S'pof'
p4638
sg4577
g4615
sg4578
S'VGF2'
p4639
sg4580
I-1
sg38
I13
sg4581
(lp4640
g4584
asbsS'NP'
p4641
(issf_api
Node
p4642
(dp4643
g4575
S'r6'
p4644
sg4577
g4641
sg4578
S'NP2'
p4645
sg4580
I-1
sg38
I0
sg4581
(lp4646
sbsg4599
(issf_api
Node
p4647
(dp4648
g4575
S'k7t'
p4649
sg4577
g4599
sg4578
S'VGF'
p4650
sg4580
I-1
sg38
I3
sg4581
(lp4651
sbsg4583
(issf_api
Node
p4652
(dp4653
g4575
S'rh'
p4654
sg4577
g4583
sg4578
S'VGNF'
p4655
sg4580
I-1
sg38
I8
sg4581
(lp4656
sbsg4600
(issf_api
Node
p4657
(dp4658
g4575
S'pof'
p4659
sg4577
g4600
sg4578
S'VGF'
p4660
sg4580
I-1
sg38
I5
sg4581
(lp4661
sbsg4601
(issf_api
Node
p4662
(dp4663
g4575
S'k1'
p4664
sg4577
g4601
sg4578
S'VGF'
p4665
sg4580
I-1
sg38
I2
sg4581
(lp4666
sbsg4602
(issf_api
Node
p4667
(dp4668
g4575
S'k7a'
p4669
sg4577
g4602
sg4578
S'VGF'
p4670
sg4580
I-1
sg38
I1
sg4581
(lp4671
g4641
asbssS'chunkList'
p4672
(lp4673
(issf_api
Chunk
p4674
(dp4675
g4577
g25
sg38
I0
sS'chunkTag'
p4676
g43
sg39
I0
sg4568
(lp4677
I0
asg44
(issf_api
FeatureSet
p4678
(dp4679
g12
(dp4680
S'name'
p4681
g4641
sS'drel'
p4682
S'r6:NP2'
p4683
ssbsba(issf_api
Chunk
p4684
(dp4685
g4577
g80
sg38
I1
sg4676
g93
sg39
I0
sg4568
(lp4686
I1
aI2
aI3
aI4
asg44
(issf_api
FeatureSet
p4687
(dp4688
g12
(dp4689
S'name'
p4690
g4602
sS'drel'
p4691
S'k7a:VGF'
p4692
ssbsba(issf_api
Chunk
p4693
(dp4694
g4577
g227
sg38
I2
sg4676
g240
sg39
I0
sg4568
(lp4695
I5
aI6
aI7
aI8
aI9
aI10
asg44
(issf_api
FeatureSet
p4696
(dp4697
g12
(dp4698
S'name'
p4699
g4601
sS'drel'
p4700
S'k1:VGF'
p4701
ssbsba(issf_api
Chunk
p4702
(dp4703
g4577
g271
sg38
I3
sg4676
g278
sg39
I0
sg4568
(lp4704
I11
aI12
asg44
(issf_api
FeatureSet
p4705
(dp4706
g12
(dp4707
S'name'
p4708
g4599
sS'drel'
p4709
S'k7t:VGF'
p4710
ssbsba(issf_api
Chunk
p4711
(dp4712
g4577
g393
sg38
I4
sg4676
g406
sg39
I0
sg4568
(lp4713
I13
aI14
aI15
aI16
aI17
aI18
asg44
(issf_api
FeatureSet
p4714
(dp4715
g12
(dp4716
S'name'
p4717
g4598
sS'drel'
p4718
S'k2:VGF'
p4719
ssbsba(issf_api
Chunk
p4720
(dp4721
g4577
g439
sg38
I5
sg4676
g448
sg39
I0
sg4568
(lp4722
I19
asg44
(issf_api
FeatureSet
p4723
(dp4724
g12
(dp4725
S'name'
p4726
g4600
sS'drel'
p4727
S'pof:VGF'
p4728
ssbsba(issf_api
Chunk
p4729
(dp4730
g4577
g462
sg38
I6
sg4676
g471
sg39
I0
sg4568
(lp4731
I20
asg44
(issf_api
FeatureSet
p4732
(dp4733
g12
(dp4734
S'name'
p4735
g4592
sS'drel'
p4736
S'ccof:CCP'
p4737
ssbsba(issf_api
Chunk
p4738
(dp4739
g4577
g481
sg38
I7
sg4676
g488
sg39
I0
sg4568
(lp4740
I21
asg44
(issf_api
FeatureSet
p4741
(dp4742
g12
(dp4743
S'name'
p4744
g4603
ssbsba(issf_api
Chunk
p4745
(dp4746
g4577
g504
sg38
I8
sg4676
g515
sg39
I0
sg4568
(lp4747
I22
aI23
asg44
(issf_api
FeatureSet
p4748
(dp4749
g12
(dp4750
S'name'
p4751
g4583
sS'drel'
p4752
S'rh:VGNF'
p4753
ssbsba(issf_api
Chunk
p4754
(dp4755
g4577
g546
sg38
I9
sg4676
g551
sg39
I0
sg4568
(lp4756
I24
asg44
(issf_api
FeatureSet
p4757
(dp4758
g12
(dp4759
S'name'
p4760
g4572
sS'drel'
p4761
S'nmod__k1inv:NP8'
p4762
ssbsba(issf_api
Chunk
p4763
(dp4764
g4577
g565
sg38
I10
sg4676
g572
sg39
I0
sg4568
(lp4765
I25
aI26
asg44
(issf_api
FeatureSet
p4766
(dp4767
g12
(dp4768
S'name'
p4769
g4591
sS'drel'
p4770
S'k2:VGNN'
p4771
ssbsba(issf_api
Chunk
p4772
(dp4773
g4577
g603
sg38
I11
sg4676
g608
sg39
I0
sg4568
(lp4774
I27
asg44
(issf_api
FeatureSet
p4775
(dp4776
g12
(dp4777
S'name'
p4778
g4590
sS'drel'
p4779
S'pof:VGNN'
p4780
ssbsba(issf_api
Chunk
p4781
(dp4782
g4577
g622
sg38
I12
sg4676
g629
sg39
I0
sg4568
(lp4783
I28
aI29
asg44
(issf_api
FeatureSet
p4784
(dp4785
g12
(dp4786
S'name'
p4787
g4584
sS'drel'
p4788
S'r6-k2:NP10'
p4789
ssbsba(issf_api
Chunk
p4790
(dp4791
g4577
g662
sg38
I13
sg4676
g671
sg39
I0
sg4568
(lp4792
I30
asg44
(issf_api
FeatureSet
p4793
(dp4794
g12
(dp4795
S'name'
p4796
g4615
sS'drel'
p4797
S'pof:VGF2'
p4798
ssbsba(issf_api
Chunk
p4799
(dp4800
g4577
g685
sg38
I14
sg4676
g694
sg39
I0
sg4568
(lp4801
I31
asg44
(issf_api
FeatureSet
p4802
(dp4803
g12
(dp4804
S'name'
p4805
g4608
sS'drel'
p4806
S'ccof:CCP'
p4807
ssbsba(issf_api
Chunk
p4808
(dp4809
g4577
g708
sg38
I15
sg4676
g713
sg39
I0
sg4568
(lp4810
I32
asg44
(issf_api
FeatureSet
p4811
(dp4812
g12
(dp4813
S'name'
p4814
g4609
sS'drel'
p4815
S'rsym:CCP'
p4816
ssbsbasba(issf_api
Sentence
p4817
(dp4818
g4566
(lp4819
sg39
I1
sg4568
(lp4820
I33
aI34
aI35
aI36
aI37
aI38
aI39
aI40
aI41
aI42
aI43
aI44
aI45
aI46
asg4570
(dp4821
S'VGNN'
p4822
(issf_api
Node
p4823
(dp4824
g4575
S'r6'
p4825
sg4577
g4822
sg4578
S'NP4'
p4826
sg4580
I-1
sg38
I3
sg4581
(lp4827
S'NP3'
p4828
asbsS'VGF'
p4829
(issf_api
Node
p4830
(dp4831
g4575
g4606
sg4577
g4829
sg4578
g4606
sg4580
I-1
sg38
I5
sg4581
(lp4832
S'BLK'
p4833
aS'NP'
p4834
aS'NP4'
p4835
aS'NP2'
p4836
asbsg4833
(issf_api
Node
p4837
(dp4838
g4575
S'rsym'
p4839
sg4577
g4833
sg4578
S'VGF'
p4840
sg4580
I-1
sg38
I6
sg4581
(lp4841
sbsg4834
(issf_api
Node
p4842
(dp4843
g4575
S'k1'
p4844
sg4577
g4834
sg4578
S'VGF'
p4845
sg4580
I-1
sg38
I0
sg4581
(lp4846
sbsg4835
(issf_api
Node
p4847
(dp4848
g4575
S'k2'
p4849
sg4577
g4835
sg4578
S'VGF'
p4850
sg4580
I-1
sg38
I4
sg4581
(lp4851
g4822
asbsg4828
(issf_api
Node
p4852
(dp4853
g4575
S'k5'
p4854
sg4577
g4828
sg4578
S'VGNN'
p4855
sg4580
I-1
sg38
I2
sg4581
(lp4856
sbsg4836
(issf_api
Node
p4857
(dp4858
g4575
S'k4'
p4859
sg4577
g4836
sg4578
S'VGF'
p4860
sg4580
I-1
sg38
I1
sg4581
(lp4861
sbssg4672
(lp4862
(issf_api
Chunk
p4863
(dp4864
g4577
g729
sg38
I0
sg4676
g740
sg39
I1
sg4568
(lp4865
I33
aI34
asg44
(issf_api
FeatureSet
p4866
(dp4867
g12
(dp4868
S'name'
p4869
g4834
sS'drel'
p4870
S'k1:VGF'
p4871
ssbsba(issf_api
Chunk
p4872
(dp4873
g4577
g773
sg38
I1
sg4676
g784
sg39
I1
sg4568
(lp4874
I35
aI36
asg44
(issf_api
FeatureSet
p4875
(dp4876
g12
(dp4877
S'name'
p4878
g4836
sS'drel'
p4879
S'k4:VGF'
p4880
ssbsba(issf_api
Chunk
p4881
(dp4882
g4577
g836
sg38
I2
sg4676
g847
sg39
I1
sg4568
(lp4883
I37
aI38
aI39
asg44
(issf_api
FeatureSet
p4884
(dp4885
g12
(dp4886
S'name'
p4887
g4828
sS'drel'
p4888
S'k5:VGNN'
p4889
ssbsba(issf_api
Chunk
p4890
(dp4891
g4577
g878
sg38
I3
sg4676
g885
sg39
I1
sg4568
(lp4892
I40
aI41
asg44
(issf_api
FeatureSet
p4893
(dp4894
g12
(dp4895
S'name'
p4896
g4822
sS'drel'
p4897
S'r6:NP4'
p4898
ssbsba(issf_api
Chunk
p4899
(dp4900
g4577
g933
sg38
I4
sg4676
g938
sg39
I1
sg4568
(lp4901
I42
aI43
asg44
(issf_api
FeatureSet
p4902
(dp4903
g12
(dp4904
S'name'
p4905
g4835
sS'drel'
p4906
S'k2:VGF'
p4907
ssbsba(issf_api
Chunk
p4908
(dp4909
g4577
g952
sg38
I5
sg4676
g961
sg39
I1
sg4568
(lp4910
I44
aI45
asg44
(issf_api
FeatureSet
p4911
(dp4912
g12
(dp4913
S'name'
p4914
g4829
ssbsba(issf_api
Chunk
p4915
(dp4916
g4577
g992
sg38
I6
sg4676
g997
sg39
I1
sg4568
(lp4917
I46
asg44
(issf_api
FeatureSet
p4918
(dp4919
g12
(dp4920
S'name'
p4921
g4833
sS'drel'
p4922
S'rsym:VGF'
p4923
ssbsbasba(issf_api
Sentence
p4924
(dp4925
g4566
(lp4926
sg39
I2
sg4568
(lp4927
I47
aI48
aI49
aI50
aI51
aI52
aI53
aI54
aI55
aI56
aI57
aI58
aI59
aI60
aI61
aI62
aI63
aI64
asg4570
(dp4928
S'VGF'
p4929
(issf_api
Node
p4930
(dp4931
g4575
g4606
sg4577
g4929
sg4578
g4606
sg4580
I-1
sg38
I3
sg4581
(lp4932
S'CCP'
p4933
aS'BLK'
p4934
aS'NP'
p4935
aS'NP3'
p4936
aS'NP2'
p4937
asbsg4933
(issf_api
Node
p4938
(dp4939
g4575
S'k2'
p4940
sg4577
g4933
sg4578
S'VGF'
p4941
sg4580
I-1
sg38
I4
sg4581
(lp4942
S'VGF2'
p4943
asbsg4943
(issf_api
Node
p4944
(dp4945
g4575
S'ccof'
p4946
sg4577
g4943
sg4578
S'CCP'
p4947
sg4580
I-1
sg38
I10
sg4581
(lp4948
S'NP5'
p4949
aS'NP8'
p4950
aS'NP4'
p4951
aS'NP7'
p4952
asbsg4949
(issf_api
Node
p4953
(dp4954
g4575
S'k7'
p4955
sg4577
g4949
sg4578
S'VGF2'
p4956
sg4580
I-1
sg38
I6
sg4581
(lp4957
sbsg4950
(issf_api
Node
p4958
(dp4959
g4575
S'pof'
p4960
sg4577
g4950
sg4578
S'VGF2'
p4961
sg4580
I-1
sg38
I9
sg4581
(lp4962
sbsg4934
(issf_api
Node
p4963
(dp4964
g4575
S'rsym'
p4965
sg4577
g4934
sg4578
S'VGF'
p4966
sg4580
I-1
sg38
I11
sg4581
(lp4967
sbsg4935
(issf_api
Node
p4968
(dp4969
g4575
S'k1'
p4970
sg4577
g4935
sg4578
S'VGF'
p4971
sg4580
I-1
sg38
I0
sg4581
(lp4972
sbsg4951
(issf_api
Node
p4973
(dp4974
g4575
S'k1'
p4975
sg4577
g4951
sg4578
S'VGF2'
p4976
sg4580
I-1
sg38
I5
sg4581
(lp4977
sbsg4952
(issf_api
Node
p4978
(dp4979
g4575
S'k2'
p4980
sg4577
g4952
sg4578
S'VGF2'
p4981
sg4580
I-1
sg38
I8
sg4581
(lp4982
S'NP6'
p4983
asbsg4983
(issf_api
Node
p4984
(dp4985
g4575
S'r6'
p4986
sg4577
g4983
sg4578
S'NP7'
p4987
sg4580
I-1
sg38
I7
sg4581
(lp4988
sbsg4936
(issf_api
Node
p4989
(dp4990
g4575
S'pof'
p4991
sg4577
g4936
sg4578
S'VGF'
p4992
sg4580
I-1
sg38
I2
sg4581
(lp4993
sbsg4937
(issf_api
Node
p4994
(dp4995
g4575
S'k4'
p4996
sg4577
g4937
sg4578
S'VGF'
p4997
sg4580
I-1
sg38
I1
sg4581
(lp4998
sbssg4672
(lp4999
(issf_api
Chunk
p5000
(dp5001
g4577
g1013
sg38
I0
sg4676
g1022
sg39
I2
sg4568
(lp5002
I47
asg44
(issf_api
FeatureSet
p5003
(dp5004
g12
(dp5005
S'name'
p5006
g4935
sS'drel'
p5007
S'k1:VGF'
p5008
ssbsba(issf_api
Chunk
p5009
(dp5010
g4577
g1061
sg38
I1
sg4676
g1072
sg39
I2
sg4568
(lp5011
I48
aI49
aI50
asg44
(issf_api
FeatureSet
p5012
(dp5013
g12
(dp5014
S'name'
p5015
g4937
sS'drel'
p5016
S'k4:VGF'
p5017
ssbsba(issf_api
Chunk
p5018
(dp5019
g4577
g1103
sg38
I2
sg4676
g1108
sg39
I2
sg4568
(lp5020
I51
asg44
(issf_api
FeatureSet
p5021
(dp5022
g12
(dp5023
S'name'
p5024
g4936
sS'drel'
p5025
S'pof:VGF'
p5026
ssbsba(issf_api
Chunk
p5027
(dp5028
g4577
g1122
sg38
I3
sg4676
g1129
sg39
I2
sg4568
(lp5029
I52
asg44
(issf_api
FeatureSet
p5030
(dp5031
g12
(dp5032
S'name'
p5033
g4929
ssbsba(issf_api
Chunk
p5034
(dp5035
g4577
g1143
sg38
I4
sg4676
g1148
sg39
I2
sg4568
(lp5036
I53
asg44
(issf_api
FeatureSet
p5037
(dp5038
g12
(dp5039
S'name'
p5040
g4933
sS'drel'
p5041
S'k2:VGF'
p5042
ssbsba(issf_api
Chunk
p5043
(dp5044
g4577
g1164
sg38
I5
sg4676
g1173
sg39
I2
sg4568
(lp5045
I54
asg44
(issf_api
FeatureSet
p5046
(dp5047
g12
(dp5048
S'name'
p5049
g4951
sS'drel'
p5050
S'k1:VGF2'
p5051
ssbsba(issf_api
Chunk
p5052
(dp5053
g4577
g1187
sg38
I6
sg4676
g1194
sg39
I2
sg4568
(lp5054
I55
aI56
asg44
(issf_api
FeatureSet
p5055
(dp5056
g12
(dp5057
S'name'
p5058
g4949
sS'drel'
p5059
S'k7:VGF2'
p5060
ssbsba(issf_api
Chunk
p5061
(dp5062
g4577
g1246
sg38
I7
sg4676
g1255
sg39
I2
sg4568
(lp5063
I57
aI58
aI59
asg44
(issf_api
FeatureSet
p5064
(dp5065
g12
(dp5066
S'name'
p5067
g4983
sS'drel'
p5068
S'r6:NP7'
p5069
ssbsba(issf_api
Chunk
p5070
(dp5071
g4577
g1288
sg38
I8
sg4676
g1301
sg39
I2
sg4568
(lp5072
I60
aI61
asg44
(issf_api
FeatureSet
p5073
(dp5074
g12
(dp5075
S'name'
p5076
g4952
sS'drel'
p5077
S'k2:VGF2'
p5078
ssbsba(issf_api
Chunk
p5079
(dp5080
g4577
g1332
sg38
I9
sg4676
g1337
sg39
I2
sg4568
(lp5081
I62
asg44
(issf_api
FeatureSet
p5082
(dp5083
g12
(dp5084
S'name'
p5085
g4950
sS'drel'
p5086
S'pof:VGF2'
p5087
ssbsba(issf_api
Chunk
p5088
(dp5089
g4577
g1351
sg38
I10
sg4676
g1360
sg39
I2
sg4568
(lp5090
I63
asg44
(issf_api
FeatureSet
p5091
(dp5092
g12
(dp5093
S'name'
p5094
g4943
sS'drel'
p5095
S'ccof:CCP'
p5096
ssbsba(issf_api
Chunk
p5097
(dp5098
g4577
g1374
sg38
I11
sg4676
g1379
sg39
I2
sg4568
(lp5099
I64
asg44
(issf_api
FeatureSet
p5100
(dp5101
g12
(dp5102
S'name'
p5103
g4934
sS'drel'
p5104
S'rsym:VGF'
p5105
ssbsbasba(issf_api
Sentence
p5106
(dp5107
g4566
(lp5108
sg39
I3
sg4568
(lp5109
I65
aI66
aI67
aI68
aI69
aI70
aI71
aI72
aI73
aI74
aI75
aI76
aI77
aI78
aI79
aI80
aI81
aI82
aI83
aI84
aI85
aI86
aI87
aI88
aI89
asg4570
(dp5110
S'VGF2'
p5111
(issf_api
Node
p5112
(dp5113
g4575
S'ccof'
p5114
sg4577
g5111
sg4578
S'CCP'
p5115
sg4580
I-1
sg38
I6
sg4581
(lp5116
S'NP'
p5117
aS'CCP2'
p5118
aS'NP3'
p5119
aS'NP2'
p5120
asbsS'VGF'
p5121
(issf_api
Node
p5122
(dp5123
g4575
g4606
sg4577
g5121
sg4578
g4606
sg4580
I-1
sg38
I1
sg4581
(lp5124
S'JJP'
p5125
aS'BLK'
p5126
asbsS'VGF3'
p5127
(issf_api
Node
p5128
(dp5129
g4575
S'ccof'
p5130
sg4577
g5127
sg4578
S'CCP2'
p5131
sg4580
I-1
sg38
I13
sg4581
(lp5132
S'NP8'
p5133
aS'NP4'
p5134
aS'NP6'
p5135
asbsS'CCP'
p5136
(issf_api
Node
p5137
(dp5138
g4575
S'rs'
p5139
sg4577
g5136
sg4578
S'NULL__NP'
p5140
sg4580
I-1
sg38
I2
sg4581
(lp5141
g5111
asbsg5125
(issf_api
Node
p5142
(dp5143
g4575
S'k1s'
p5144
sg4577
g5125
sg4578
S'VGF'
p5145
sg4580
I-1
sg38
I0
sg4581
(lp5146
sbsS'NP5'
p5147
(issf_api
Node
p5148
(dp5149
g4575
S'r6-k2'
p5150
sg4577
g5147
sg4578
S'NP6'
p5151
sg4580
I-1
sg38
I9
sg4581
(lp5152
sbsg5133
(issf_api
Node
p5153
(dp5154
g4575
S'k1'
p5155
sg4577
g5133
sg4578
S'VGF3'
p5156
sg4580
I-1
sg38
I12
sg4581
(lp5157
S'NP7'
p5158
asbsg5126
(issf_api
Node
p5159
(dp5160
g4575
S'rsym'
p5161
sg4577
g5126
sg4578
S'VGF'
p5162
sg4580
I-1
sg38
I14
sg4581
(lp5163
sbsS'NULL__NP'
p5164
(issf_api
Node
p5165
(dp5166
g4575
g4606
sg4577
g5164
sg4578
g4606
sg4580
I-1
sg38
I-1
sg4581
(lp5167
g5136
asbsg5117
(issf_api
Node
p5168
(dp5169
g4575
S'k1'
p5170
sg4577
g5117
sg4578
S'VGF2'
p5171
sg4580
I-1
sg38
I3
sg4581
(lp5172
sbsg5134
(issf_api
Node
p5173
(dp5174
g4575
S'k7'
p5175
sg4577
g5134
sg4578
S'VGF3'
p5176
sg4580
I-1
sg38
I8
sg4581
(lp5177
sbsg5158
(issf_api
Node
p5178
(dp5179
g4575
S'r6'
p5180
sg4577
g5158
sg4578
S'NP8'
p5181
sg4580
I-1
sg38
I11
sg4581
(lp5182
sbsg5135
(issf_api
Node
p5183
(dp5184
g4575
S'pof'
p5185
sg4577
g5135
sg4578
S'VGF3'
p5186
sg4580
I-1
sg38
I10
sg4581
(lp5187
g5147
asbsg5118
(issf_api
Node
p5188
(dp5189
g4575
S'k2'
p5190
sg4577
g5118
sg4578
S'VGF2'
p5191
sg4580
I-1
sg38
I7
sg4581
(lp5192
g5127
asbsg5119
(issf_api
Node
p5193
(dp5194
g4575
S'k7p'
p5195
sg4577
g5119
sg4578
S'VGF2'
p5196
sg4580
I-1
sg38
I5
sg4581
(lp5197
sbsg5120
(issf_api
Node
p5198
(dp5199
g4575
S'k7t'
p5200
sg4577
g5120
sg4578
S'VGF2'
p5201
sg4580
I-1
sg38
I4
sg4581
(lp5202
sbssg4672
(lp5203
(issf_api
Chunk
p5204
(dp5205
g4577
g1393
sg38
I0
sg4676
g1398
sg39
I3
sg4568
(lp5206
I65
asg44
(issf_api
FeatureSet
p5207
(dp5208
g12
(dp5209
S'name'
p5210
g5125
sS'drel'
p5211
S'k1s:VGF'
p5212
ssbsba(issf_api
Chunk
p5213
(dp5214
g4577
g1412
sg38
I1
sg4676
g1419
sg39
I3
sg4568
(lp5215
I66
asg44
(issf_api
FeatureSet
p5216
(dp5217
g12
(dp5218
S'name'
p5219
g5121
ssbsba(issf_api
Chunk
p5220
(dp5221
g4577
g1433
sg38
I2
sg4676
g1438
sg39
I3
sg4568
(lp5222
I67
asg44
(issf_api
FeatureSet
p5223
(dp5224
g12
(dp5225
S'name'
p5226
g5136
sS'drel'
p5227
S'rs:NULL__NP'
p5228
ssbsba(issf_api
Chunk
p5229
(dp5230
g4577
g1454
sg38
I3
sg4676
g1465
sg39
I3
sg4568
(lp5231
I68
aI69
asg44
(issf_api
FeatureSet
p5232
(dp5233
g12
(dp5234
S'name'
p5235
g5117
sS'drel'
p5236
S'k1:VGF2'
p5237
ssbsba(issf_api
Chunk
p5238
(dp5239
g4577
g1496
sg38
I4
sg4676
g1503
sg39
I3
sg4568
(lp5240
I70
aI71
asg44
(issf_api
FeatureSet
p5241
(dp5242
g12
(dp5243
S'name'
p5244
g5120
sS'drel'
p5245
S'k7t:VGF2'
p5246
ssbsba(issf_api
Chunk
p5247
(dp5248
g4577
g1534
sg38
I5
sg4676
g1541
sg39
I3
sg4568
(lp5249
I72
aI73
asg44
(issf_api
FeatureSet
p5250
(dp5251
g12
(dp5252
S'name'
p5253
g5119
sS'drel'
p5254
S'k7p:VGF2'
p5255
ssbsba(issf_api
Chunk
p5256
(dp5257
g4577
g1572
sg38
I6
sg4676
g1583
sg39
I3
sg4568
(lp5258
I74
aI75
asg44
(issf_api
FeatureSet
p5259
(dp5260
g12
(dp5261
S'name'
p5262
g5111
sS'drel'
p5263
S'ccof:CCP'
p5264
ssbsba(issf_api
Chunk
p5265
(dp5266
g4577
g1614
sg38
I7
sg4676
g1619
sg39
I3
sg4568
(lp5267
I76
asg44
(issf_api
FeatureSet
p5268
(dp5269
g12
(dp5270
S'name'
p5271
g5118
sS'drel'
p5272
S'k2:VGF2'
p5273
ssbsba(issf_api
Chunk
p5274
(dp5275
g4577
g1650
sg38
I8
sg4676
g1657
sg39
I3
sg4568
(lp5276
I77
aI78
aI79
asg44
(issf_api
FeatureSet
p5277
(dp5278
g12
(dp5279
S'name'
p5280
g5134
sS'drel'
p5281
S'k7:VGF3'
p5282
ssbsba(issf_api
Chunk
p5283
(dp5284
g4577
g1690
sg38
I9
sg4676
g1701
sg39
I3
sg4568
(lp5285
I80
aI81
asg44
(issf_api
FeatureSet
p5286
(dp5287
g12
(dp5288
S'name'
p5289
g5147
sS'drel'
p5290
S'r6-k2:NP6'
p5291
ssbsba(issf_api
Chunk
p5292
(dp5293
g4577
g1732
sg38
I10
sg4676
g1737
sg39
I3
sg4568
(lp5294
I82
asg44
(issf_api
FeatureSet
p5295
(dp5296
g12
(dp5297
S'name'
p5298
g5135
sS'drel'
p5299
S'pof:VGF3'
p5300
ssbsba(issf_api
Chunk
p5301
(dp5302
g4577
g1768
sg38
I11
sg4676
g1775
sg39
I3
sg4568
(lp5303
I83
aI84
aI85
asg44
(issf_api
FeatureSet
p5304
(dp5305
g12
(dp5306
S'name'
p5307
g5158
sS'drel'
p5308
S'r6:NP8'
p5309
ssbsba(issf_api
Chunk
p5310
(dp5311
g4577
g1831
sg38
I12
sg4676
g1836
sg39
I3
sg4568
(lp5312
I86
aI87
asg44
(issf_api
FeatureSet
p5313
(dp5314
g12
(dp5315
S'name'
p5316
g5133
sS'drel'
p5317
S'k1:VGF3'
p5318
ssbsba(issf_api
Chunk
p5319
(dp5320
g4577
g1850
sg38
I13
sg4676
g1859
sg39
I3
sg4568
(lp5321
I88
asg44
(issf_api
FeatureSet
p5322
(dp5323
g12
(dp5324
S'name'
p5325
g5127
sS'drel'
p5326
S'ccof:CCP2'
p5327
ssbsba(issf_api
Chunk
p5328
(dp5329
g4577
g1873
sg38
I14
sg4676
g1878
sg39
I3
sg4568
(lp5330
I89
asg44
(issf_api
FeatureSet
p5331
(dp5332
g12
(dp5333
S'name'
p5334
g5126
sS'drel'
p5335
S'rsym:VGF'
p5336
ssbsbasba(issf_api
Sentence
p5337
(dp5338
g4566
(lp5339
sg39
I4
sg4568
(lp5340
I90
aI91
aI92
aI93
aI94
aI95
aI96
aI97
aI98
aI99
aI100
aI101
aI102
aI103
aI104
aI105
aI106
aI107
aI108
aI109
aI110
aI111
aI112
aI113
aI114
aI115
aI116
aI117
aI118
aI119
aI120
aI121
aI122
aI123
aI124
aI125
aI126
aI127
aI128
aI129
aI130
aI131
aI132
aI133
aI134
aI135
aI136
aI137
aI138
aI139
aI140
aI141
aI142
aI143
aI144
aI145
aI146
asg4570
(dp5341
S'VGF4'
p5342
(issf_api
Node
p5343
(dp5344
g4575
S'nmod__relc'
p5345
sg4577
g5342
sg4578
S'NP14'
p5346
sg4580
I-1
sg38
I25
sg4581
(lp5347
S'NP13'
p5348
asbsS'CCP'
p5349
(issf_api
Node
p5350
(dp5351
g4575
g4606
sg4577
g5349
sg4578
g4606
sg4580
I-1
sg38
I0
sg4581
(lp5352
S'VGF'
p5353
aS'BLK'
p5354
asbsS'NP14'
p5355
(issf_api
Node
p5356
(dp5357
g4575
S'k1'
p5358
sg4577
g5355
sg4578
S'VGF5'
p5359
sg4580
I-1
sg38
I26
sg4581
(lp5360
g5342
asbsS'VGNN2'
p5361
(issf_api
Node
p5362
(dp5363
g4575
S'k2'
p5364
sg4577
g5361
sg4578
S'VGF3'
p5365
sg4580
I-1
sg38
I21
sg4581
(lp5366
S'CCP4'
p5367
aS'JJP2'
p5368
asbsS'NP9'
p5369
(issf_api
Node
p5370
(dp5371
g4575
S'r6'
p5372
sg4577
g5369
sg4578
S'NP10'
p5373
sg4580
I-1
sg38
I15
sg4581
(lp5374
sbsS'NP8'
p5375
(issf_api
Node
p5376
(dp5377
g4575
S'k1'
p5378
sg4577
g5375
sg4578
S'VGF3'
p5379
sg4580
I-1
sg38
I14
sg4581
(lp5380
sbsS'NP5'
p5381
(issf_api
Node
p5382
(dp5383
g4575
S'k4'
p5384
sg4577
g5381
sg4578
S'VGNN'
p5385
sg4580
I-1
sg38
I7
sg4581
(lp5386
sbsS'NP4'
p5387
(issf_api
Node
p5388
(dp5389
g4575
S'k1'
p5390
sg4577
g5387
sg4578
S'VGF2'
p5391
sg4580
I-1
sg38
I6
sg4581
(lp5392
sbsg5367
(issf_api
Node
p5393
(dp5394
g4575
S'k2'
p5395
sg4577
g5367
sg4578
S'VGNN2'
p5396
sg4580
I-1
sg38
I18
sg4581
(lp5397
S'NP11'
p5398
aS'NP12'
p5399
asbsS'NP6'
p5400
(issf_api
Node
p5401
(dp5402
g4575
S'k2'
p5403
sg4577
g5400
sg4578
S'VGNN'
p5404
sg4580
I-1
sg38
I8
sg4581
(lp5405
sbsS'CCP2'
p5406
(issf_api
Node
p5407
(dp5408
g4575
S'rs'
p5409
sg4577
g5406
sg4578
S'NULL__NP'
p5410
sg4580
I-1
sg38
I3
sg4581
(lp5411
S'VGF2'
p5412
asbsS'NP7'
p5413
(issf_api
Node
p5414
(dp5415
g4575
S'pof'
p5416
sg4577
g5413
sg4578
S'VGF2'
p5417
sg4580
I-1
sg38
I11
sg4581
(lp5418
S'VGNN'
p5419
asbsS'NP3'
p5420
(issf_api
Node
p5421
(dp5422
g4575
S'k7'
p5423
sg4577
g5420
sg4578
S'VGF2'
p5424
sg4580
I-1
sg38
I5
sg4581
(lp5425
S'NP2'
p5426
asbsg5426
(issf_api
Node
p5427
(dp5428
g4575
S'r6'
p5429
sg4577
g5426
sg4578
S'NP3'
p5430
sg4580
I-1
sg38
I4
sg4581
(lp5431
sbsS'CCP5'
p5432
(issf_api
Node
p5433
(dp5434
g4575
S'ccof'
p5435
sg4577
g5432
sg4578
S'CCP3'
p5436
sg4580
I-1
sg38
I23
sg4581
(lp5437
S'VGF3'
p5438
aS'VGF5'
p5439
asbsg5398
(issf_api
Node
p5440
(dp5441
g4575
S'ccof'
p5442
sg4577
g5398
sg4578
S'CCP4'
p5443
sg4580
I-1
sg38
I17
sg4581
(lp5444
sbsS'NP10'
p5445
(issf_api
Node
p5446
(dp5447
g4575
S'rh'
p5448
sg4577
g5445
sg4578
S'VGF3'
p5449
sg4580
I-1
sg38
I16
sg4581
(lp5450
g5369
asbsg5348
(issf_api
Node
p5451
(dp5452
g4575
S'k1'
p5453
sg4577
g5348
sg4578
S'VGF4'
p5454
sg4580
I-1
sg38
I24
sg4581
(lp5455
sbsg5399
(issf_api
Node
p5456
(dp5457
g4575
S'ccof'
p5458
sg4577
g5399
sg4578
S'CCP4'
p5459
sg4580
I-1
sg38
I19
sg4581
(lp5460
sbsg5438
(issf_api
Node
p5461
(dp5462
g4575
S'ccof'
p5463
sg4577
g5438
sg4578
S'CCP5'
p5464
sg4580
I-1
sg38
I22
sg4581
(lp5465
g5361
ag5375
ag5445
asbsg5412
(issf_api
Node
p5466
(dp5467
g4575
S'ccof'
p5468
sg4577
g5412
sg4578
S'CCP2'
p5469
sg4580
I-1
sg38
I12
sg4581
(lp5470
g5387
ag5413
ag5420
aS'CCP3'
p5471
asbsg5471
(issf_api
Node
p5472
(dp5473
g4575
S'k2'
p5474
sg4577
g5471
sg4578
S'VGF2'
p5475
sg4580
I-1
sg38
I13
sg4581
(lp5476
g5432
asbsS'NP'
p5477
(issf_api
Node
p5478
(dp5479
g4575
S'k7a'
p5480
sg4577
g5477
sg4578
S'VGF'
p5481
sg4580
I-1
sg38
I1
sg4581
(lp5482
sbsg5419
(issf_api
Node
p5483
(dp5484
g4575
S'r6-k2'
p5485
sg4577
g5419
sg4578
S'NP7'
p5486
sg4580
I-1
sg38
I10
sg4581
(lp5487
g5381
ag5400
aS'JJP'
p5488
asbsg5353
(issf_api
Node
p5489
(dp5490
g4575
S'ccof'
p5491
sg4577
g5353
sg4578
S'CCP'
p5492
sg4580
I-1
sg38
I2
sg4581
(lp5493
g5477
asbsg5354
(issf_api
Node
p5494
(dp5495
g4575
S'rsym'
p5496
sg4577
g5354
sg4578
S'CCP'
p5497
sg4580
I-1
sg38
I29
sg4581
(lp5498
sbsS'NULL__NP'
p5499
(issf_api
Node
p5500
(dp5501
g4575
g4606
sg4577
g5499
sg4578
g4606
sg4580
I-1
sg38
I-1
sg4581
(lp5502
g5406
asbsg5488
(issf_api
Node
p5503
(dp5504
g4575
S'pof'
p5505
sg4577
g5488
sg4578
S'VGNN'
p5506
sg4580
I-1
sg38
I9
sg4581
(lp5507
sbsg5368
(issf_api
Node
p5508
(dp5509
g4575
S'pof'
p5510
sg4577
g5368
sg4578
S'VGNN2'
p5511
sg4580
I-1
sg38
I20
sg4581
(lp5512
sbsS'JJP3'
p5513
(issf_api
Node
p5514
(dp5515
g4575
S'k1s'
p5516
sg4577
g5513
sg4578
S'VGF5'
p5517
sg4580
I-1
sg38
I27
sg4581
(lp5518
sbsg5439
(issf_api
Node
p5519
(dp5520
g4575
S'ccof'
p5521
sg4577
g5439
sg4578
S'CCP5'
p5522
sg4580
I-1
sg38
I28
sg4581
(lp5523
g5355
ag5513
asbssg4672
(lp5524
(issf_api
Chunk
p5525
(dp5526
g4577
g1888
sg38
I0
sg4676
g1895
sg39
I4
sg4568
(lp5527
I90
aI91
asg44
(issf_api
FeatureSet
p5528
(dp5529
g12
(dp5530
S'name'
p5531
g5349
ssbsba(issf_api
Chunk
p5532
(dp5533
g4577
g1949
sg38
I1
sg4676
g1956
sg39
I4
sg4568
(lp5534
I92
aI93
aI94
aI95
aI96
asg44
(issf_api
FeatureSet
p5535
(dp5536
g12
(dp5537
S'name'
p5538
g5477
sS'drel'
p5539
S'k7a:VGF'
p5540
ssbsba(issf_api
Chunk
p5541
(dp5542
g4577
g2021
sg38
I2
sg4676
g2032
sg39
I4
sg4568
(lp5543
I97
aI98
aI99
asg44
(issf_api
FeatureSet
p5544
(dp5545
g12
(dp5546
S'name'
p5547
g5353
sS'drel'
p5548
S'ccof:CCP'
p5549
ssbsba(issf_api
Chunk
p5550
(dp5551
g4577
g2080
sg38
I3
sg4676
g2085
sg39
I4
sg4568
(lp5552
I100
asg44
(issf_api
FeatureSet
p5553
(dp5554
g12
(dp5555
S'name'
p5556
g5406
sS'drel'
p5557
S'rs:NULL__NP'
p5558
ssbsba(issf_api
Chunk
p5559
(dp5560
g4577
g2139
sg38
I4
sg4676
g2148
sg39
I4
sg4568
(lp5561
I101
aI102
aI103
aI104
asg44
(issf_api
FeatureSet
p5562
(dp5563
g12
(dp5564
S'name'
p5565
g5426
sS'drel'
p5566
S'r6:NP3'
p5567
ssbsba(issf_api
Chunk
p5568
(dp5569
g4577
g2181
sg38
I5
sg4676
g2194
sg39
I4
sg4568
(lp5570
I105
aI106
asg44
(issf_api
FeatureSet
p5571
(dp5572
g12
(dp5573
S'name'
p5574
g5420
sS'drel'
p5575
S'k7:VGF2'
p5576
ssbsba(issf_api
Chunk
p5577
(dp5578
g4577
g2227
sg38
I6
sg4676
g2238
sg39
I4
sg4568
(lp5579
I107
aI108
asg44
(issf_api
FeatureSet
p5580
(dp5581
g12
(dp5582
S'name'
p5583
g5387
sS'drel'
p5584
S'k1:VGF2'
p5585
ssbsba(issf_api
Chunk
p5586
(dp5587
g4577
g2271
sg38
I7
sg4676
g2282
sg39
I4
sg4568
(lp5588
I109
aI110
asg44
(issf_api
FeatureSet
p5589
(dp5590
g12
(dp5591
S'name'
p5592
g5381
sS'drel'
p5593
S'k4:VGNN'
p5594
ssbsba(issf_api
Chunk
p5595
(dp5596
g4577
g2334
sg38
I8
sg4676
g2343
sg39
I4
sg4568
(lp5597
I111
aI112
aI113
asg44
(issf_api
FeatureSet
p5598
(dp5599
g12
(dp5600
S'name'
p5601
g5400
sS'drel'
p5602
S'k2:VGNN'
p5603
ssbsba(issf_api
Chunk
p5604
(dp5605
g4577
g2374
sg38
I9
sg4676
g2379
sg39
I4
sg4568
(lp5606
I114
asg44
(issf_api
FeatureSet
p5607
(dp5608
g12
(dp5609
S'name'
p5610
g5488
sS'drel'
p5611
S'pof:VGNN'
p5612
ssbsba(issf_api
Chunk
p5613
(dp5614
g4577
g2393
sg38
I10
sg4676
g2400
sg39
I4
sg4568
(lp5615
I115
aI116
asg44
(issf_api
FeatureSet
p5616
(dp5617
g12
(dp5618
S'name'
p5619
g5419
sS'drel'
p5620
S'r6-k2:NP7'
p5621
ssbsba(issf_api
Chunk
p5622
(dp5623
g4577
g2433
sg38
I11
sg4676
g2442
sg39
I4
sg4568
(lp5624
I117
asg44
(issf_api
FeatureSet
p5625
(dp5626
g12
(dp5627
S'name'
p5628
g5413
sS'drel'
p5629
S'pof:VGF2'
p5630
ssbsba(issf_api
Chunk
p5631
(dp5632
g4577
g2456
sg38
I12
sg4676
g2465
sg39
I4
sg4568
(lp5633
I118
asg44
(issf_api
FeatureSet
p5634
(dp5635
g12
(dp5636
S'name'
p5637
g5412
sS'drel'
p5638
S'ccof:CCP2'
p5639
ssbsba(issf_api
Chunk
p5640
(dp5641
g4577
g2479
sg38
I13
sg4676
g2484
sg39
I4
sg4568
(lp5642
I119
asg44
(issf_api
FeatureSet
p5643
(dp5644
g12
(dp5645
S'name'
p5646
g5471
sS'drel'
p5647
S'k2:VGF2'
p5648
ssbsba(issf_api
Chunk
p5649
(dp5650
g4577
g2500
sg38
I14
sg4676
g2509
sg39
I4
sg4568
(lp5651
I120
asg44
(issf_api
FeatureSet
p5652
(dp5653
g12
(dp5654
S'name'
p5655
g5375
sS'drel'
p5656
S'k1:VGF3'
p5657
ssbsba(issf_api
Chunk
p5658
(dp5659
g4577
g2527
sg38
I15
sg4676
g2538
sg39
I4
sg4568
(lp5660
I121
asg44
(issf_api
FeatureSet
p5661
(dp5662
g12
(dp5663
S'name'
p5664
g5369
sS'drel'
p5665
S'r6:NP10'
p5666
ssbsba(issf_api
Chunk
p5667
(dp5668
g4577
g2554
sg38
I16
sg4676
g2567
sg39
I4
sg4568
(lp5669
I122
aI123
asg44
(issf_api
FeatureSet
p5670
(dp5671
g12
(dp5672
S'name'
p5673
g5445
sS'drel'
p5674
S'rh:VGF3'
p5675
ssbsba(issf_api
Chunk
p5676
(dp5677
g4577
g2644
sg38
I17
sg4676
g2651
sg39
I4
sg4568
(lp5678
I124
aI125
aI126
asg44
(issf_api
FeatureSet
p5679
(dp5680
g12
(dp5681
S'name'
p5682
g5398
sS'drel'
p5683
S'ccof:CCP4'
p5684
ssbsba(issf_api
Chunk
p5685
(dp5686
g4577
g2665
sg38
I18
sg4676
g2672
sg39
I4
sg4568
(lp5687
I127
asg44
(issf_api
FeatureSet
p5688
(dp5689
g12
(dp5690
S'name'
p5691
g5367
sS'drel'
p5692
S'k2:VGNN2'
p5693
ssbsba(issf_api
Chunk
p5694
(dp5695
g4577
g2686
sg38
I19
sg4676
g2693
sg39
I4
sg4568
(lp5696
I128
asg44
(issf_api
FeatureSet
p5697
(dp5698
g12
(dp5699
S'name'
p5700
g5399
sS'drel'
p5701
S'ccof:CCP4'
p5702
ssbsba(issf_api
Chunk
p5703
(dp5704
g4577
g2707
sg38
I20
sg4676
g2714
sg39
I4
sg4568
(lp5705
I129
asg44
(issf_api
FeatureSet
p5706
(dp5707
g12
(dp5708
S'name'
p5709
g5368
sS'drel'
p5710
S'pof:VGNN2'
p5711
ssbsba(issf_api
Chunk
p5712
(dp5713
g4577
g2747
sg38
I21
sg4676
g2754
sg39
I4
sg4568
(lp5714
I130
aI131
asg44
(issf_api
FeatureSet
p5715
(dp5716
g12
(dp5717
S'name'
p5718
g5361
sS'drel'
p5719
S'k2:VGF3'
p5720
ssbsba(issf_api
Chunk
p5721
(dp5722
g4577
g2786
sg38
I22
sg4676
g2799
sg39
I4
sg4568
(lp5723
I132
aI133
aI134
aI135
asg44
(issf_api
FeatureSet
p5724
(dp5725
g12
(dp5726
S'name'
p5727
g5438
sS'drel'
p5728
S'ccof:CCP5'
p5729
ssbsba(issf_api
Chunk
p5730
(dp5731
g4577
g2852
sg38
I23
sg4676
g2863
sg39
I4
sg4568
(lp5732
I136
asg44
(issf_api
FeatureSet
p5733
(dp5734
g12
(dp5735
S'name'
p5736
g5432
sS'drel'
p5737
S'ccof:CCP3'
p5738
ssbsba(issf_api
Chunk
p5739
(dp5740
g4577
g2900
sg38
I24
sg4676
g2911
sg39
I4
sg4568
(lp5741
I137
aI138
aI139
asg44
(issf_api
FeatureSet
p5742
(dp5743
g12
(dp5744
S'name'
p5745
g5348
sS'drel'
p5746
S'k1:VGF4'
p5747
ssbsba(issf_api
Chunk
p5748
(dp5749
g4577
g2946
sg38
I25
sg4676
g2959
sg39
I4
sg4568
(lp5750
I140
asg44
(issf_api
FeatureSet
p5751
(dp5752
g12
(dp5753
S'name'
p5754
g5342
sS'drel'
p5755
S'nmod__relc:NP14'
p5756
ssbsba(issf_api
Chunk
p5757
(dp5758
g4577
g2975
sg38
I26
sg4676
g2984
sg39
I4
sg4568
(lp5759
I141
asg44
(issf_api
FeatureSet
p5760
(dp5761
g12
(dp5762
S'name'
p5763
g5355
sS'drel'
p5764
S'k1:VGF5'
p5765
ssbsba(issf_api
Chunk
p5766
(dp5767
g4577
g3036
sg38
I27
sg4676
g3043
sg39
I4
sg4568
(lp5768
I142
aI143
aI144
asg44
(issf_api
FeatureSet
p5769
(dp5770
g12
(dp5771
S'name'
p5772
g5513
sS'drel'
p5773
S'k1s:VGF5'
p5774
ssbsba(issf_api
Chunk
p5775
(dp5776
g4577
g3057
sg38
I28
sg4676
g3068
sg39
I4
sg4568
(lp5777
I145
asg44
(issf_api
FeatureSet
p5778
(dp5779
g12
(dp5780
S'name'
p5781
g5439
sS'drel'
p5782
S'ccof:CCP5'
p5783
ssbsba(issf_api
Chunk
p5784
(dp5785
g4577
g3082
sg38
I29
sg4676
g3087
sg39
I4
sg4568
(lp5786
I146
asg44
(issf_api
FeatureSet
p5787
(dp5788
g12
(dp5789
S'name'
p5790
g5354
sS'drel'
p5791
S'rsym:CCP'
p5792
ssbsbasba(issf_api
Sentence
p5793
(dp5794
g4566
(lp5795
sg39
I5
sg4568
(lp5796
I147
aI148
aI149
aI150
aI151
aI152
aI153
aI154
aI155
aI156
aI157
aI158
aI159
asg4570
(dp5797
S'VGF'
p5798
(issf_api
Node
p5799
(dp5800
g4575
g4606
sg4577
g5798
sg4578
g4606
sg4580
I-1
sg38
I5
sg4581
(lp5801
S'NP5'
p5802
aS'BLK'
p5803
aS'NP'
p5804
aS'NP3'
p5805
asbsg5802
(issf_api
Node
p5806
(dp5807
g4575
S'k2'
p5808
sg4577
g5802
sg4578
S'VGF'
p5809
sg4580
I-1
sg38
I4
sg4581
(lp5810
S'NP4'
p5811
asbsg5803
(issf_api
Node
p5812
(dp5813
g4575
S'rsym'
p5814
sg4577
g5803
sg4578
S'VGF'
p5815
sg4580
I-1
sg38
I6
sg4581
(lp5816
sbsg5804
(issf_api
Node
p5817
(dp5818
g4575
S'k1'
p5819
sg4577
g5804
sg4578
S'VGF'
p5820
sg4580
I-1
sg38
I0
sg4581
(lp5821
sbsg5811
(issf_api
Node
p5822
(dp5823
g4575
S'r6'
p5824
sg4577
g5811
sg4578
S'NP5'
p5825
sg4580
I-1
sg38
I3
sg4581
(lp5826
sbsg5805
(issf_api
Node
p5827
(dp5828
g4575
S'k7'
p5829
sg4577
g5805
sg4578
S'VGF'
p5830
sg4580
I-1
sg38
I2
sg4581
(lp5831
S'NP2'
p5832
asbsg5832
(issf_api
Node
p5833
(dp5834
g4575
S'r6'
p5835
sg4577
g5832
sg4578
S'NP3'
p5836
sg4580
I-1
sg38
I1
sg4581
(lp5837
sbssg4672
(lp5838
(issf_api
Chunk
p5839
(dp5840
g4577
g3119
sg38
I0
sg4676
g3130
sg39
I5
sg4568
(lp5841
I147
aI148
aI149
asg44
(issf_api
FeatureSet
p5842
(dp5843
g12
(dp5844
S'name'
p5845
g5804
sS'drel'
p5846
S'k1:VGF'
p5847
ssbsba(issf_api
Chunk
p5848
(dp5849
g4577
g3163
sg38
I1
sg4676
g3174
sg39
I5
sg4568
(lp5850
I150
aI151
asg44
(issf_api
FeatureSet
p5851
(dp5852
g12
(dp5853
S'name'
p5854
g5832
sS'drel'
p5855
S'r6:NP3'
p5856
ssbsba(issf_api
Chunk
p5857
(dp5858
g4577
g3205
sg38
I2
sg4676
g3212
sg39
I5
sg4568
(lp5859
I152
aI153
asg44
(issf_api
FeatureSet
p5860
(dp5861
g12
(dp5862
S'name'
p5863
g5805
sS'drel'
p5864
S'k7:VGF'
p5865
ssbsba(issf_api
Chunk
p5866
(dp5867
g4577
g3245
sg38
I3
sg4676
g3254
sg39
I5
sg4568
(lp5868
I154
asg44
(issf_api
FeatureSet
p5869
(dp5870
g12
(dp5871
S'name'
p5872
g5811
sS'drel'
p5873
S'r6:NP5'
p5874
ssbsba(issf_api
Chunk
p5875
(dp5876
g4577
g3285
sg38
I4
sg4676
g3290
sg39
I5
sg4568
(lp5877
I155
aI156
asg44
(issf_api
FeatureSet
p5878
(dp5879
g12
(dp5880
S'name'
p5881
g5802
sS'drel'
p5882
S'k2:VGF'
p5883
ssbsba(issf_api
Chunk
p5884
(dp5885
g4577
g3304
sg38
I5
sg4676
g3313
sg39
I5
sg4568
(lp5886
I157
aI158
asg44
(issf_api
FeatureSet
p5887
(dp5888
g12
(dp5889
S'name'
p5890
g5798
ssbsba(issf_api
Chunk
p5891
(dp5892
g4577
g3344
sg38
I6
sg4676
g3349
sg39
I5
sg4568
(lp5893
I159
asg44
(issf_api
FeatureSet
p5894
(dp5895
g12
(dp5896
S'name'
p5897
g5803
sS'drel'
p5898
S'rsym:VGF'
p5899
ssbsbasba(issf_api
Sentence
p5900
(dp5901
g4566
(lp5902
sg39
I6
sg4568
(lp5903
I160
aI161
aI162
aI163
aI164
aI165
aI166
aI167
aI168
aI169
aI170
aI171
aI172
aI173
aI174
aI175
aI176
aI177
aI178
aI179
aI180
asg4570
(dp5904
S'VGF'
p5905
(issf_api
Node
p5906
(dp5907
g4575
g4606
sg4577
g5905
sg4578
g4606
sg4580
I-1
sg38
I2
sg4581
(lp5908
S'CCP'
p5909
aS'BLK'
p5910
aS'NP2'
p5911
asbsS'VGF3'
p5912
(issf_api
Node
p5913
(dp5914
g4575
S'ccof'
p5915
sg4577
g5912
sg4578
S'CCP2'
p5916
sg4580
I-1
sg38
I11
sg4581
(lp5917
S'NP5'
p5918
aS'JJP'
p5919
aS'NP6'
p5920
asbsS'VGF2'
p5921
(issf_api
Node
p5922
(dp5923
g4575
S'ccof'
p5924
sg4577
g5921
sg4578
S'CCP'
p5925
sg4580
I-1
sg38
I5
sg4581
(lp5926
S'CCP2'
p5927
aS'NP3'
p5928
asbsg5909
(issf_api
Node
p5929
(dp5930
g4575
S'k2'
p5931
sg4577
g5909
sg4578
S'VGF'
p5932
sg4580
I-1
sg38
I3
sg4581
(lp5933
g5921
asbsg5918
(issf_api
Node
p5934
(dp5935
g4575
S'rh'
p5936
sg4577
g5918
sg4578
S'VGF3'
p5937
sg4580
I-1
sg38
I8
sg4581
(lp5938
S'NP4'
p5939
asbsg5919
(issf_api
Node
p5940
(dp5941
g4575
S'k1s'
p5942
sg4577
g5919
sg4578
S'VGF3'
p5943
sg4580
I-1
sg38
I10
sg4581
(lp5944
sbsg5910
(issf_api
Node
p5945
(dp5946
g4575
S'rsym'
p5947
sg4577
g5910
sg4578
S'VGF'
p5948
sg4580
I-1
sg38
I12
sg4581
(lp5949
sbsS'NP'
p5950
(issf_api
Node
p5951
(dp5952
g4575
S'r6'
p5953
sg4577
g5950
sg4578
S'NP2'
p5954
sg4580
I-1
sg38
I0
sg4581
(lp5955
sbsg5939
(issf_api
Node
p5956
(dp5957
g4575
S'r6'
p5958
sg4577
g5939
sg4578
S'NP5'
p5959
sg4580
I-1
sg38
I7
sg4581
(lp5960
sbsg5920
(issf_api
Node
p5961
(dp5962
g4575
S'k1'
p5963
sg4577
g5920
sg4578
S'VGF3'
p5964
sg4580
I-1
sg38
I9
sg4581
(lp5965
sbsg5927
(issf_api
Node
p5966
(dp5967
g4575
S'k2'
p5968
sg4577
g5927
sg4578
S'VGF2'
p5969
sg4580
I-1
sg38
I6
sg4581
(lp5970
g5912
asbsg5928
(issf_api
Node
p5971
(dp5972
g4575
S'adv'
p5973
sg4577
g5928
sg4578
S'VGF2'
p5974
sg4580
I-1
sg38
I4
sg4581
(lp5975
sbsg5911
(issf_api
Node
p5976
(dp5977
g4575
S'k1'
p5978
sg4577
g5911
sg4578
S'VGF'
p5979
sg4580
I-1
sg38
I1
sg4581
(lp5980
g5950
asbssg4672
(lp5981
(issf_api
Chunk
p5982
(dp5983
g4577
g3365
sg38
I0
sg4676
g3374
sg39
I6
sg4568
(lp5984
I160
asg44
(issf_api
FeatureSet
p5985
(dp5986
g12
(dp5987
S'name'
p5988
g5950
sS'drel'
p5989
S'r6:NP2'
p5990
ssbsba(issf_api
Chunk
p5991
(dp5992
g4577
g3422
sg38
I1
sg4676
g3429
sg39
I6
sg4568
(lp5993
I161
aI162
aI163
aI164
asg44
(issf_api
FeatureSet
p5994
(dp5995
g12
(dp5996
S'name'
p5997
g5911
sS'drel'
p5998
S'k1:VGF'
p5999
ssbsba(issf_api
Chunk
p6000
(dp6001
g4577
g3460
sg38
I2
sg4676
g3467
sg39
I6
sg4568
(lp6002
I165
asg44
(issf_api
FeatureSet
p6003
(dp6004
g12
(dp6005
S'name'
p6006
g5905
ssbsba(issf_api
Chunk
p6007
(dp6008
g4577
g3481
sg38
I3
sg4676
g3486
sg39
I6
sg4568
(lp6009
I166
asg44
(issf_api
FeatureSet
p6010
(dp6011
g12
(dp6012
S'name'
p6013
g5909
sS'drel'
p6014
S'k2:VGF'
p6015
ssbsba(issf_api
Chunk
p6016
(dp6017
g4577
g3518
sg38
I4
sg4676
g3527
sg39
I6
sg4568
(lp6018
I167
aI168
asg44
(issf_api
FeatureSet
p6019
(dp6020
g12
(dp6021
S'name'
p6022
g5928
sS'drel'
p6023
S'adv:VGF2'
p6024
ssbsba(issf_api
Chunk
p6025
(dp6026
g4577
g3541
sg38
I5
sg4676
g3552
sg39
I6
sg4568
(lp6027
I169
aI170
asg44
(issf_api
FeatureSet
p6028
(dp6029
g12
(dp6030
S'name'
p6031
g5921
sS'drel'
p6032
S'ccof:CCP'
p6033
ssbsba(issf_api
Chunk
p6034
(dp6035
g4577
g3583
sg38
I6
sg4676
g3588
sg39
I6
sg4568
(lp6036
I171
asg44
(issf_api
FeatureSet
p6037
(dp6038
g12
(dp6039
S'name'
p6040
g5927
sS'drel'
p6041
S'k2:VGF2'
p6042
ssbsba(issf_api
Chunk
p6043
(dp6044
g4577
g3606
sg38
I7
sg4676
g3619
sg39
I6
sg4568
(lp6045
I172
aI173
asg44
(issf_api
FeatureSet
p6046
(dp6047
g12
(dp6048
S'name'
p6049
g5939
sS'drel'
p6050
S'r6:NP5'
p6051
ssbsba(issf_api
Chunk
p6052
(dp6053
g4577
g3654
sg38
I8
sg4676
g3667
sg39
I6
sg4568
(lp6054
I174
aI175
asg44
(issf_api
FeatureSet
p6055
(dp6056
g12
(dp6057
S'name'
p6058
g5918
sS'drel'
p6059
S'rh:VGF3'
p6060
ssbsba(issf_api
Chunk
p6061
(dp6062
g4577
g3702
sg38
I9
sg4676
g3713
sg39
I6
sg4568
(lp6063
I176
asg44
(issf_api
FeatureSet
p6064
(dp6065
g12
(dp6066
S'name'
p6067
g5920
sS'drel'
p6068
S'k1:VGF3'
p6069
ssbsba(issf_api
Chunk
p6070
(dp6071
g4577
g3727
sg38
I10
sg4676
g3734
sg39
I6
sg4568
(lp6072
I177
asg44
(issf_api
FeatureSet
p6073
(dp6074
g12
(dp6075
S'name'
p6076
g5919
sS'drel'
p6077
S'k1s:VGF3'
p6078
ssbsba(issf_api
Chunk
p6079
(dp6080
g4577
g3767
sg38
I11
sg4676
g3778
sg39
I6
sg4568
(lp6081
I178
aI179
asg44
(issf_api
FeatureSet
p6082
(dp6083
g12
(dp6084
S'name'
p6085
g5912
sS'drel'
p6086
S'ccof:CCP2'
p6087
ssbsba(issf_api
Chunk
p6088
(dp6089
g4577
g3792
sg38
I12
sg4676
g3797
sg39
I6
sg4568
(lp6090
I180
asg44
(issf_api
FeatureSet
p6091
(dp6092
g12
(dp6093
S'name'
p6094
g5910
sS'drel'
p6095
S'rsym:VGF'
p6096
ssbsbasba(issf_api
Sentence
p6097
(dp6098
g4566
(lp6099
sg39
I7
sg4568
(lp6100
I181
aI182
aI183
aI184
aI185
aI186
aI187
aI188
aI189
aI190
aI191
aI192
aI193
aI194
aI195
aI196
aI197
aI198
aI199
aI200
asg4570
(dp6101
S'VGNN'
p6102
(issf_api
Node
p6103
(dp6104
g4575
S'rt'
p6105
sg4577
g6102
sg4578
S'VGF'
p6106
sg4580
I-1
sg38
I3
sg4581
(lp6107
S'NP3'
p6108
aS'NP2'
p6109
asbsS'VGF'
p6110
(issf_api
Node
p6111
(dp6112
g4575
g4606
sg4577
g6110
sg4578
g4606
sg4580
I-1
sg38
I8
sg4581
(lp6113
g6102
aS'VGNN2'
p6114
aS'BLK'
p6115
aS'NP'
p6116
aS'NP4'
p6117
asbsg6114
(issf_api
Node
p6118
(dp6119
g4575
S'k2'
p6120
sg4577
g6114
sg4578
S'VGF'
p6121
sg4580
I-1
sg38
I7
sg4581
(lp6122
S'NP5'
p6123
aS'NP6'
p6124
asbsg6123
(issf_api
Node
p6125
(dp6126
g4575
S'k2'
p6127
sg4577
g6123
sg4578
S'VGNN2'
p6128
sg4580
I-1
sg38
I5
sg4581
(lp6129
sbsg6115
(issf_api
Node
p6130
(dp6131
g4575
S'rsym'
p6132
sg4577
g6115
sg4578
S'VGF'
p6133
sg4580
I-1
sg38
I9
sg4581
(lp6134
sbsg6116
(issf_api
Node
p6135
(dp6136
g4575
S'rh'
p6137
sg4577
g6116
sg4578
S'VGF'
p6138
sg4580
I-1
sg38
I0
sg4581
(lp6139
sbsg6117
(issf_api
Node
p6140
(dp6141
g4575
S'k1'
p6142
sg4577
g6117
sg4578
S'VGF'
p6143
sg4580
I-1
sg38
I4
sg4581
(lp6144
sbsg6124
(issf_api
Node
p6145
(dp6146
g4575
S'k7'
p6147
sg4577
g6124
sg4578
S'VGNN2'
p6148
sg4580
I-1
sg38
I6
sg4581
(lp6149
sbsg6108
(issf_api
Node
p6150
(dp6151
g4575
S'pof'
p6152
sg4577
g6108
sg4578
S'VGNN'
p6153
sg4580
I-1
sg38
I2
sg4581
(lp6154
sbsg6109
(issf_api
Node
p6155
(dp6156
g4575
S'k2'
p6157
sg4577
g6109
sg4578
S'VGNN'
p6158
sg4580
I-1
sg38
I1
sg4581
(lp6159
sbssg4672
(lp6160
(issf_api
Chunk
p6161
(dp6162
g4577
g3813
sg38
I0
sg4676
g3822
sg39
I7
sg4568
(lp6163
I181
asg44
(issf_api
FeatureSet
p6164
(dp6165
g12
(dp6166
S'name'
p6167
g6116
sS'drel'
p6168
S'rh:VGF'
p6169
ssbsba(issf_api
Chunk
p6170
(dp6171
g4577
g3853
sg38
I1
sg4676
g3860
sg39
I7
sg4568
(lp6172
I182
aI183
aI184
asg44
(issf_api
FeatureSet
p6173
(dp6174
g12
(dp6175
S'name'
p6176
g6109
sS'drel'
p6177
S'k2:VGNN'
p6178
ssbsba(issf_api
Chunk
p6179
(dp6180
g4577
g3925
sg38
I2
sg4676
g3930
sg39
I7
sg4568
(lp6181
I185
aI186
aI187
asg44
(issf_api
FeatureSet
p6182
(dp6183
g12
(dp6184
S'name'
p6185
g6108
sS'drel'
p6186
S'pof:VGNN'
p6187
ssbsba(issf_api
Chunk
p6188
(dp6189
g4577
g3944
sg38
I3
sg4676
g3951
sg39
I7
sg4568
(lp6190
I188
aI189
aI190
asg44
(issf_api
FeatureSet
p6191
(dp6192
g12
(dp6193
S'name'
p6194
g6102
sS'drel'
p6195
S'rt:VGF'
p6196
ssbsba(issf_api
Chunk
p6197
(dp6198
g4577
g4001
sg38
I4
sg4676
g4010
sg39
I7
sg4568
(lp6199
I191
asg44
(issf_api
FeatureSet
p6200
(dp6201
g12
(dp6202
S'name'
p6203
g6117
sS'drel'
p6204
S'k1:VGF'
p6205
ssbsba(issf_api
Chunk
p6206
(dp6207
g4577
g4026
sg38
I5
sg4676
g4037
sg39
I7
sg4568
(lp6208
I192
aI193
asg44
(issf_api
FeatureSet
p6209
(dp6210
g12
(dp6211
S'name'
p6212
g6123
sS'drel'
p6213
S'k2:VGNN2'
p6214
ssbsba(issf_api
Chunk
p6215
(dp6216
g4577
g4068
sg38
I6
sg4676
g4073
sg39
I7
sg4568
(lp6217
I194
aI195
aI196
asg44
(issf_api
FeatureSet
p6218
(dp6219
g12
(dp6220
S'name'
p6221
g6124
sS'drel'
p6222
S'k7:VGNN2'
p6223
ssbsba(issf_api
Chunk
p6224
(dp6225
g4577
g4121
sg38
I7
sg4676
g4126
sg39
I7
sg4568
(lp6226
I197
asg44
(issf_api
FeatureSet
p6227
(dp6228
g12
(dp6229
S'name'
p6230
g6114
sS'drel'
p6231
S'k2:VGF'
p6232
ssbsba(issf_api
Chunk
p6233
(dp6234
g4577
g4140
sg38
I8
sg4676
g4149
sg39
I7
sg4568
(lp6235
I198
aI199
asg44
(issf_api
FeatureSet
p6236
(dp6237
g12
(dp6238
S'name'
p6239
g6110
ssbsba(issf_api
Chunk
p6240
(dp6241
g4577
g4180
sg38
I9
sg4676
g4185
sg39
I7
sg4568
(lp6242
I200
asg44
(issf_api
FeatureSet
p6243
(dp6244
g12
(dp6245
S'name'
p6246
g6115
sS'drel'
p6247
S'rsym:VGF'
p6248
ssbsbasba(issf_api
Sentence
p6249
(dp6250
g4566
(lp6251
sg39
I8
sg4568
(lp6252
I201
aI202
aI203
aI204
aI205
aI206
aI207
aI208
aI209
aI210
aI211
aI212
aI213
aI214
aI215
aI216
aI217
aI218
aI219
aI220
asg4570
(dp6253
S'VGF'
p6254
(issf_api
Node
p6255
(dp6256
g4575
g4606
sg4577
g6254
sg4578
g4606
sg4580
I-1
sg38
I6
sg4581
(lp6257
S'JJP'
p6258
aS'BLK'
p6259
aS'NP'
p6260
aS'NP4'
p6261
aS'RBP'
p6262
aS'NP3'
p6263
aS'NP2'
p6264
asbsg6258
(issf_api
Node
p6265
(dp6266
g4575
S'pof'
p6267
sg4577
g6258
sg4578
S'VGF'
p6268
sg4580
I-1
sg38
I5
sg4581
(lp6269
sbsg6259
(issf_api
Node
p6270
(dp6271
g4575
S'rsym'
p6272
sg4577
g6259
sg4578
S'VGF'
p6273
sg4580
I-1
sg38
I7
sg4581
(lp6274
sbsg6260
(issf_api
Node
p6275
(dp6276
g4575
S'k7'
p6277
sg4577
g6260
sg4578
S'VGF'
p6278
sg4580
I-1
sg38
I0
sg4581
(lp6279
sbsg6261
(issf_api
Node
p6280
(dp6281
g4575
S'k1'
p6282
sg4577
g6261
sg4578
S'VGF'
p6283
sg4580
I-1
sg38
I3
sg4581
(lp6284
sbsg6262
(issf_api
Node
p6285
(dp6286
g4575
S'rt'
p6287
sg4577
g6262
sg4578
S'VGF'
p6288
sg4580
I-1
sg38
I4
sg4581
(lp6289
sbsg6263
(issf_api
Node
p6290
(dp6291
g4575
S'k7t'
p6292
sg4577
g6263
sg4578
S'VGF'
p6293
sg4580
I-1
sg38
I2
sg4581
(lp6294
sbsg6264
(issf_api
Node
p6295
(dp6296
g4575
S'k7t'
p6297
sg4577
g6264
sg4578
S'VGF'
p6298
sg4580
I-1
sg38
I1
sg4581
(lp6299
sbssg4672
(lp6300
(issf_api
Chunk
p6301
(dp6302
g4577
g4201
sg38
I0
sg4676
g4212
sg39
I8
sg4568
(lp6303
I201
aI202
aI203
asg44
(issf_api
FeatureSet
p6304
(dp6305
g12
(dp6306
S'name'
p6307
g6260
sS'drel'
p6308
S'k7:VGF'
p6309
ssbsba(issf_api
Chunk
p6310
(dp6311
g4577
g4293
sg38
I1
sg4676
g4300
sg39
I8
sg4568
(lp6312
I204
aI205
aI206
aI207
aI208
asg44
(issf_api
FeatureSet
p6313
(dp6314
g12
(dp6315
S'name'
p6316
g6264
sS'drel'
p6317
S'k7t:VGF'
p6318
ssbsba(issf_api
Chunk
p6319
(dp6320
g4577
g4350
sg38
I2
sg4676
g4361
sg39
I8
sg4568
(lp6321
I209
asg44
(issf_api
FeatureSet
p6322
(dp6323
g12
(dp6324
S'name'
p6325
g6263
sS'drel'
p6326
S'k7t:VGF'
p6327
ssbsba(issf_api
Chunk
p6328
(dp6329
g4577
g4392
sg38
I3
sg4676
g4397
sg39
I8
sg4568
(lp6330
I210
aI211
asg44
(issf_api
FeatureSet
p6331
(dp6332
g12
(dp6333
S'name'
p6334
g6261
sS'drel'
p6335
S'k1:VGF'
p6336
ssbsba(issf_api
Chunk
p6337
(dp6338
g4577
g4411
sg38
I4
sg4676
g4416
sg39
I8
sg4568
(lp6339
I212
aI213
aI214
asg44
(issf_api
FeatureSet
p6340
(dp6341
g12
(dp6342
S'name'
p6343
g6262
sS'drel'
p6344
S'rt:VGF'
p6345
ssbsba(issf_api
Chunk
p6346
(dp6347
g4577
g4464
sg38
I5
sg4676
g4469
sg39
I8
sg4568
(lp6348
I215
asg44
(issf_api
FeatureSet
p6349
(dp6350
g12
(dp6351
S'name'
p6352
g6258
sS'drel'
p6353
S'pof:VGF'
p6354
ssbsba(issf_api
Chunk
p6355
(dp6356
g4577
g4483
sg38
I6
sg4676
g4492
sg39
I8
sg4568
(lp6357
I216
aI217
aI218
asg44
(issf_api
FeatureSet
p6358
(dp6359
g12
(dp6360
S'name'
p6361
g6254
ssbsba(issf_api
Chunk
p6362
(dp6363
g4577
g4540
sg38
I7
sg4676
g4545
sg39
I8
sg4568
(lp6364
I219
aI220
asg44
(issf_api
FeatureSet
p6365
(dp6366
g12
(dp6367
S'name'
p6368
g6259
sS'drel'
p6369
S'rsym:VGF'
p6370
ssbsbasbasb.