(issf_api
SSFInfo
p0
(dp1
S'globalWordList'
p2
(lp3
(issf_api
Word
p4
(dp5
S'splitConn'
p6
I00
sS'word'
p7
V\u092a\u0942\u0930\u0947
p8
sS'extraFeatureSet'
p9
(issf_api
FeatureSet
p10
(dp11
S'featureDict'
p12
(dp13
S'posn'
p14
S'10'
p15
sS'name'
p16
S'\xe0\xa4\xaa\xe0\xa5\x82\xe0\xa4\xb0\xe0\xa5\x87'
p17
sS'drel'
p18
S'nmod__adj:NP'
p19
sS'chunktype'
p20
S'child:NP'
p21
sS'af'
p22
S'\xe0\xa4\xaa\xe0\xa5\x82\xe0\xa4\xb0\xe0\xa4\xbe,adj,m,sg,,o,,'
p23
ssbsS'arg1'
p24
I00
sS'arg2'
p25
I00
sS'sense'
p26
NsS'arg1Span'
p27
NsS'chunkNum'
p28
I0
sS'sentenceNum'
p29
I0
sS'relationNum'
p30
NsS'arg2Span'
p31
NsS'wordTag'
p32
S'JJ'
p33
sS'featureSet'
p34
g10
sS'conn'
p35
I00
sba(issf_api
Word
p36
(dp37
g6
I00
sg7
V\u0935\u093f\u0936\u094d\u0935
p38
sg9
(issf_api
FeatureSet
p39
(dp40
g12
(dp41
S'posn'
p42
S'20'
p43
sS'name'
p44
S'\xe0\xa4\xb5\xe0\xa4\xbf\xe0\xa4\xb6\xe0\xa5\x8d\xe0\xa4\xb5'
p45
sS'af'
p46
S'\xe0\xa4\xb5\xe0\xa4\xbf\xe0\xa4\xb6\xe0\xa5\x8d\xe0\xa4\xb5,n,m,sg,3,o,0_\xe0\xa4\xae\xe0\xa5\x87\xe0\xa4\x82,0'
p47
sS'chunkid'
p48
S'NP'
p49
sS'drel'
p50
S'k7p:VGF'
p51
sS'vpos'
p52
S'vib_3'
p53
sS'chunktype'
p54
S'head:NP'
p55
ssbsg24
I00
sg25
I00
sg26
Nsg27
Nsg28
I0
sg29
I0
sg30
Nsg31
Nsg32
S'NN'
p56
sg34
g39
sg35
I00
sba(issf_api
Word
p57
(dp58
g6
I00
sg7
V\u092e\u0947\u0902
p59
sg9
(issf_api
FeatureSet
p60
(dp61
g12
(dp62
S'posn'
p63
S'30'
p64
sS'name'
p65
S'\xe0\xa4\xae\xe0\xa5\x87\xe0\xa4\x82'
p66
sS'drel'
p67
S'lwg__psp:NP'
p68
sS'chunktype'
p69
S'child:NP'
p70
sS'af'
p71
S'\xe0\xa4\xae\xe0\xa5\x87\xe0\xa4\x82,psp,,,,,,'
p72
ssbsg24
I00
sg25
I00
sg26
Nsg27
Nsg28
I0
sg29
I0
sg30
Nsg31
Nsg32
S'PSP'
p73
sg34
g60
sg35
I00
sba(issf_api
Word
p74
(dp75
g6
I00
sg7
V\u0907\u0902\u091f\u0930\u0928\u0947\u091f
p76
sg9
(issf_api
FeatureSet
p77
(dp78
g12
(dp79
S'posn'
p80
S'40'
p81
sS'name'
p82
S'\xe0\xa4\x87\xe0\xa4\x82\xe0\xa4\x9f\xe0\xa4\xb0\xe0\xa4\xa8\xe0\xa5\x87\xe0\xa4\x9f'
p83
sS'af'
p84
S'\xe0\xa4\x87\xe0\xa4\x82\xe0\xa4\x9f\xe0\xa4\xb0\xe0\xa4\xa8\xe0\xa5\x87\xe0\xa4\x9f,n,m,sg,3,o,0_\xe0\xa4\xb8\xe0\xa5\x87,0'
p85
sS'chunkid'
p86
S'NP2'
p87
sS'drel'
p88
S'ras-k1:VGNF'
p89
sS'chunktype'
p90
S'head:NP2'
p91
sS'vpos'
p92
S'vib_2'
p93
sS'cref'
p94
S'i1%0:t1'
p95
ssbsg24
I00
sg25
I00
sg26
Nsg27
Nsg28
I1
sg29
I0
sg30
Nsg31
Nsg32
S'NN'
p96
sg34
g77
sg35
I00
sba(issf_api
Word
p97
(dp98
g6
I00
sg7
V\u0938\u0947
p99
sg9
(issf_api
FeatureSet
p100
(dp101
g12
(dp102
S'posn'
p103
S'50'
p104
sS'name'
p105
S'\xe0\xa4\xb8\xe0\xa5\x87'
p106
sS'af'
p107
S'\xe0\xa4\xb8\xe0\xa5\x87,psp,,,,,,'
p108
sS'drel'
p109
S'lwg__psp:NP2'
p110
sS'chunktype'
p111
S'child:NP2'
p112
sS'cref'
p113
S'i1%0:t1'
p114
ssbsg24
I00
sg25
I00
sg26
Nsg27
Nsg28
I1
sg29
I0
sg30
Nsg31
Nsg32
S'PSP'
p115
sg34
g100
sg35
I00
sba(issf_api
Word
p116
(dp117
g6
I00
sg7
V\u091c\u0941\u0921\u093c\u0947
p118
sg9
(issf_api
FeatureSet
p119
(dp120
g12
(dp121
S'posn'
p122
S'60'
p123
sS'name'
p124
S'\xe0\xa4\x9c\xe0\xa5\x81\xe0\xa4\xa1\xe0\xa4\xbc\xe0\xa5\x87'
p125
sS'af'
p126
S'\xe0\xa4\x9c\xe0\xa5\x81\xe0\xa4\xa1\xe0\xa4\xbc,v,m,pl,any,,\xe0\xa4\xaf\xe0\xa4\xbe,yA'
p127
sS'chunkid'
p128
S'VGNF'
p129
sS'drel'
p130
S'nmod__k1inv:NP3'
p131
sS'chunktype'
p132
S'head:VGNF'
p133
sS'cref'
p134
S'i1%0:t1'
p135
ssbsg24
I00
sg25
I00
sg26
Nsg27
Nsg28
I2
sg29
I0
sg30
Nsg31
Nsg32
S'VM'
p136
sg34
g119
sg35
I00
sba(issf_api
Word
p137
(dp138
g6
I00
sg7
V\u0915\u0902\u092a\u094d\u092f\u0942\u091f\u0930\u094b\u0902
p139
sg9
(issf_api
FeatureSet
p140
(dp141
g12
(dp142
S'crefhead'
p143
S'\xe0\xa4\x95\xe0\xa4\x82\xe0\xa4\xaa\xe0\xa5\x8d\xe0\xa4\xaf\xe0\xa5\x82\xe0\xa4\x9f\xe0\xa4\xb0\xe0\xa5\x8b\xe0\xa4\x82:i1'
p144
sS'posn'
p145
S'70'
p146
sS'name'
p147
S'\xe0\xa4\x95\xe0\xa4\x82\xe0\xa4\xaa\xe0\xa5\x8d\xe0\xa4\xaf\xe0\xa5\x82\xe0\xa4\x9f\xe0\xa4\xb0\xe0\xa5\x8b\xe0\xa4\x82'
p148
sS'af'
p149
S'\xe0\xa4\x95\xe0\xa4\x82\xe0\xa4\xaa\xe0\xa5\x8d\xe0\xa4\xaf\xe0\xa5\x82\xe0\xa4\x9f\xe0\xa4\xb0,n,m,pl,3,o,0_\xe0\xa4\xaa\xe0\xa4\xb0,0'
p150
sS'chunkid'
p151
S'NP3'
p152
sS'chunktype'
p153
S'head:NP3'
p154
sS'crefchainhead'
p155
S'i1:t1'
p156
sS'vpos'
p157
S'vib_2'
p158
sS'cref'
p159
S'i1%1:t1'
p160
sS'drel'
p161
S'k7:VGF'
p162
ssbsg24
I00
sg25
I00
sg26
Nsg27
Nsg28
I3
sg29
I0
sg30
Nsg31
Nsg32
S'NN'
p163
sg34
g140
sg35
I00
sba(issf_api
Word
p164
(dp165
g6
I00
sg7
V\u092a\u0930
p166
sg9
(issf_api
FeatureSet
p167
(dp168
g12
(dp169
S'posn'
p170
S'80'
p171
sS'name'
p172
S'\xe0\xa4\xaa\xe0\xa4\xb0'
p173
sS'drel'
p174
S'lwg__psp:NP3'
p175
sS'chunktype'
p176
S'child:NP3'
p177
sS'af'
p178
S'\xe0\xa4\xaa\xe0\xa4\xb0,psp,,,,,,'
p179
ssbsg24
I00
sg25
I00
sg26
Nsg27
Nsg28
I3
sg29
I0
sg30
Nsg31
Nsg32
S'PSP'
p180
sg34
g167
sg35
I00
sba(issf_api
Word
p181
(dp182
g6
I00
sg7
V\u0928\u090f
p183
sg9
(issf_api
FeatureSet
p184
(dp185
g12
(dp186
S'posn'
p187
S'90'
p188
sS'name'
p189
S'\xe0\xa4\xa8\xe0\xa4\x8f'
p190
sS'drel'
p191
S'nmod__adj:NP4'
p192
sS'chunktype'
p193
S'child:NP4'
p194
sS'af'
p195
S'\xe0\xa4\xa8\xe0\xa4\xaf\xe0\xa4\xbe,adj,m,sg,,o,,'
p196
ssbsg24
I00
sg25
I00
sg26
Nsg27
Nsg28
I4
sg29
I0
sg30
Nsg31
Nsg32
S'JJ'
p197
sg34
g184
sg35
I00
sba(issf_api
Word
p198
(dp199
g6
I00
sg7
V\u0924\u0930\u0939
p200
sg9
(issf_api
FeatureSet
p201
(dp202
g12
(dp203
S'posn'
p204
S'100'
p205
sS'name'
p206
S'\xe0\xa4\xa4\xe0\xa4\xb0\xe0\xa4\xb9'
p207
sS'af'
p208
S'\xe0\xa4\xa4\xe0\xa4\xb0\xe0\xa4\xb9,n,f,sg,3,o,0_\xe0\xa4\x95\xe0\xa4\xbe,0'
p209
sS'chunkid'
p210
S'NP4'
p211
sS'drel'
p212
S'r6:NP5'
p213
sS'vpos'
p214
S'vib_3'
p215
sS'chunktype'
p216
S'head:NP4'
p217
ssbsg24
I00
sg25
I00
sg26
Nsg27
Nsg28
I4
sg29
I0
sg30
Nsg31
Nsg32
S'NN'
p218
sg34
g201
sg35
I00
sba(issf_api
Word
p219
(dp220
g6
I00
sg7
V\u0915\u093e
p221
sg9
(issf_api
FeatureSet
p222
(dp223
g12
(dp224
S'posn'
p225
S'110'
p226
sS'name'
p227
S'\xe0\xa4\x95\xe0\xa4\xbe'
p228
sS'drel'
p229
S'lwg__psp:NP4'
p230
sS'chunktype'
p231
S'child:NP4'
p232
sS'af'
p233
S'\xe0\xa4\x95\xe0\xa4\xbe,psp,m,sg,,d,,'
p234
ssbsg24
I00
sg25
I00
sg26
Nsg27
Nsg28
I4
sg29
I0
sg30
Nsg31
Nsg32
S'PSP'
p235
sg34
g222
sg35
I00
sba(issf_api
Word
p236
(dp237
g6
I00
sg7
V\u090f\u0915
p238
sg9
(issf_api
FeatureSet
p239
(dp240
g12
(dp241
S'posn'
p242
S'120'
p243
sS'name'
p244
S'\xe0\xa4\x8f\xe0\xa4\x95'
p245
sS'af'
p246
S'\xe0\xa4\x8f\xe0\xa4\x95,num,any,any,,any,,'
p247
sS'drel'
p248
S'nmod__adj:NP5'
p249
sS'chunktype'
p250
S'child:NP5'
p251
sS'cref'
p252
S'i2%0:t2'
p253
ssbsg24
I00
sg25
I00
sg26
Nsg27
Nsg28
I5
sg29
I0
sg30
Nsg31
Nsg32
S'QC'
p254
sg34
g239
sg35
I00
sba(issf_api
Word
p255
(dp256
g6
I00
sg7
V\u092c\u0948\u0917\u0932
p257
sg9
(issf_api
FeatureSet
p258
(dp259
g12
(dp260
S'posn'
p261
S'130'
p262
sS'name'
p263
S'\xe0\xa4\xac\xe0\xa5\x88\xe0\xa4\x97\xe0\xa4\xb2'
p264
sS'af'
p265
S'\xe0\xa4\xac\xe0\xa5\x88\xe0\xa4\x97\xe0\xa4\xb2,n,m,sg,3,d,0,0'
p266
sS'drel'
p267
S'nmod__adj:NP5'
p268
sS'chunktype'
p269
S'child:NP5'
p270
sS'cref'
p271
S'i2%0:t2'
p272
ssbsg24
I00
sg25
I00
sg26
Nsg27
Nsg28
I5
sg29
I0
sg30
Nsg31
Nsg32
S'NNP'
p273
sg34
g258
sg35
I00
sba(issf_api
Word
p274
(dp275
g6
I00
sg7
V\u0935\u093e\u092f\u0930\u0938
p276
sg9
(issf_api
FeatureSet
p277
(dp278
g12
(dp279
S'crefhead'
p280
S'\xe0\xa4\xb5\xe0\xa4\xbe\xe0\xa4\xaf\xe0\xa4\xb0\xe0\xa4\xb8:i2'
p281
sS'posn'
p282
S'140'
p283
sS'name'
p284
S'\xe0\xa4\xb5\xe0\xa4\xbe\xe0\xa4\xaf\xe0\xa4\xb0\xe0\xa4\xb8'
p285
sS'af'
p286
S'\xe0\xa4\xb5\xe0\xa4\xbe\xe0\xa4\xaf\xe0\xa4\xb0\xe0\xa4\xb8,n,m,sg,3,d,0,0'
p287
sS'chunkid'
p288
S'NP5'
p289
sS'chunktype'
p290
S'head:NP5'
p291
sS'crefchainhead'
p292
S'i2:t2'
p293
sS'cref'
p294
S'i2%1:t2'
p295
sS'drel'
p296
S'k2:VGF'
p297
ssbsg24
I00
sg25
I00
sg26
Nsg27
Nsg28
I5
sg29
I0
sg30
Nsg31
Nsg32
S'NN'
p298
sg34
g277
sg35
I00
sba(issf_api
Word
p299
(dp300
g6
I00
sg7
V\u0915\u093e\u092b\u0940
p301
sg9
(issf_api
FeatureSet
p302
(dp303
g12
(dp304
S'posn'
p305
S'150'
p306
sS'name'
p307
S'\xe0\xa4\x95\xe0\xa4\xbe\xe0\xa4\xab\xe0\xa5\x80'
p308
sS'drel'
p309
S'nmod__adj:NP6'
p310
sS'chunktype'
p311
S'child:NP6'
p312
sS'af'
p313
S'\xe0\xa4\x95\xe0\xa4\xbe\xe0\xa4\xab\xe0\xa5\x80,avy,,,,,,'
p314
ssbsg24
I00
sg25
I00
sg26
Nsg27
Nsg28
I6
sg29
I0
sg30
Nsg31
Nsg32
S'QF'
p315
sg34
g302
sg35
I00
sba(issf_api
Word
p316
(dp317
g6
I00
sg7
V\u0924\u0947\u091c\u0940
p318
sg9
(issf_api
FeatureSet
p319
(dp320
g12
(dp321
S'posn'
p322
S'160'
p323
sS'name'
p324
S'\xe0\xa4\xa4\xe0\xa5\x87\xe0\xa4\x9c\xe0\xa5\x80'
p325
sS'af'
p326
S'\xe0\xa4\xa4\xe0\xa5\x87\xe0\xa4\x9c\xe0\xa5\x80,n,f,sg,3,o,0_\xe0\xa4\xb8\xe0\xa5\x87,0'
p327
sS'chunkid'
p328
S'NP6'
p329
sS'drel'
p330
S'adv:VGF'
p331
sS'vpos'
p332
S'vib_3'
p333
sS'chunktype'
p334
S'head:NP6'
p335
ssbsg24
I00
sg25
I00
sg26
Nsg27
Nsg28
I6
sg29
I0
sg30
Nsg31
Nsg32
S'NN'
p336
sg34
g319
sg35
I00
sba(issf_api
Word
p337
(dp338
g6
I00
sg7
V\u0938\u0947
p339
sg9
(issf_api
FeatureSet
p340
(dp341
g12
(dp342
S'posn'
p343
S'170'
p344
sS'name'
p345
S'\xe0\xa4\xb8\xe0\xa5\x872'
p346
sS'drel'
p347
S'lwg__psp:NP6'
p348
sS'chunktype'
p349
S'child:NP6'
p350
sS'af'
p351
S'\xe0\xa4\xb8\xe0\xa5\x87,psp,,,,,,'
p352
ssbsg24
I00
sg25
I00
sg26
Nsg27
Nsg28
I6
sg29
I0
sg30
Nsg31
Nsg32
S'PSP'
p353
sg34
g340
sg35
I00
sba(issf_api
Word
p354
(dp355
g6
I00
sg7
V\u092b\u0948\u0932
p356
sg9
(issf_api
FeatureSet
p357
(dp358
g12
(dp359
S'posn'
p360
S'180'
p361
sS'name'
p362
S'\xe0\xa4\xab\xe0\xa5\x88\xe0\xa4\xb2'
p363
sS'af'
p364
S'\xe0\xa4\xab\xe0\xa5\x88\xe0\xa4\xb2,v,m,sg,3,,0_\xe0\xa4\xb0\xe0\xa4\xb9+\xe0\xa4\xaf\xe0\xa4\xbe_\xe0\xa4\xb9\xe0\xa5\x88,0'
p365
sS'chunkid'
p366
S'VGF'
p367
sS'chunktype'
p368
S'head:VGF'
p369
sS'voicetype'
p370
S'active'
p371
sS'vpos'
p372
S'tam_2_3'
p373
sS'stype'
p374
S'declarative'
p375
ssbsg24
I00
sg25
I00
sg26
Nsg27
Nsg28
I7
sg29
I0
sg30
Nsg31
Nsg32
S'VM'
p376
sg34
g357
sg35
I00
sba(issf_api
Word
p377
(dp378
g6
I00
sg7
V\u0930\u0939\u093e
p379
sg9
(issf_api
FeatureSet
p380
(dp381
g12
(dp382
S'posn'
p383
S'190'
p384
sS'name'
p385
S'\xe0\xa4\xb0\xe0\xa4\xb9\xe0\xa4\xbe'
p386
sS'drel'
p387
S'lwg__vaux:VGF'
p388
sS'chunktype'
p389
S'child:VGF'
p390
sS'af'
p391
S'\xe0\xa4\xb0\xe0\xa4\xb9,v,m,sg,any,,\xe0\xa4\xaf\xe0\xa4\xbe,yA'
p392
ssbsg24
I00
sg25
I00
sg26
Nsg27
Nsg28
I7
sg29
I0
sg30
Nsg31
Nsg32
S'VAUX'
p393
sg34
g380
sg35
I00
sba(issf_api
Word
p394
(dp395
g6
I00
sg7
V\u0939\u0948
p396
sg9
(issf_api
FeatureSet
p397
(dp398
g12
(dp399
S'posn'
p400
S'200'
p401
sS'name'
p402
S'\xe0\xa4\xb9\xe0\xa5\x88'
p403
sS'drel'
p404
S'lwg__vaux:VGF'
p405
sS'chunktype'
p406
S'child:VGF'
p407
sS'af'
p408
S'\xe0\xa4\xb9\xe0\xa5\x88,v,any,sg,3,,\xe0\xa4\xb9\xe0\xa5\x88,hE'
p409
ssbsg24
I00
sg25
I00
sg26
Nsg27
Nsg28
I7
sg29
I0
sg30
Nsg31
Nsg32
S'VAUX'
p410
sg34
g397
sg35
I00
sba(issf_api
Word
p411
(dp412
g6
I00
sg7
V\u0964
p413
sg9
(issf_api
FeatureSet
p414
(dp415
g12
(dp416
S'posn'
p417
S'210'
p418
sS'name'
p419
S'\xe0\xa5\xa4'
p420
sS'af'
p421
S'\xe0\xa5\xa4,punc,,,,,,'
p422
sS'chunkid'
p423
S'BLK'
p424
sS'drel'
p425
S'rsym:VGF'
p426
sS'chunktype'
p427
S'head:BLK'
p428
ssbsg24
I00
sg25
I00
sg26
Nsg27
Nsg28
I8
sg29
I0
sg30
Nsg31
Nsg32
S'SYM'
p429
sg34
g414
sg35
I00
sba(issf_api
Word
p430
(dp431
g6
I00
sg7
V\u092f\u0939
p432
sg9
(issf_api
FeatureSet
p433
(dp434
g12
(dp435
S'posn'
p436
S'10'
p437
sS'name'
p438
S'\xe0\xa4\xaf\xe0\xa4\xb9'
p439
sS'drel'
p440
S'nmod__adj:NP'
p441
sS'chunktype'
p442
S'child:NP'
p443
sS'af'
p444
S'\xe0\xa4\xaf\xe0\xa4\xb9,pn,any,sg,3,d,,'
p445
ssbsg24
I00
sg25
I00
sg26
Nsg27
Nsg28
I0
sg29
I1
sg30
Nsg31
Nsg32
S'DEM'
p446
sg34
g433
sg35
I00
sba(issf_api
Word
p447
(dp448
g6
I00
sg7
V\u091c\u093e\u0928\u0915\u093e\u0930\u0940
p449
sg9
(issf_api
FeatureSet
p450
(dp451
g12
(dp452
S'posn'
p453
S'20'
p454
sS'name'
p455
S'\xe0\xa4\x9c\xe0\xa4\xbe\xe0\xa4\xa8\xe0\xa4\x95\xe0\xa4\xbe\xe0\xa4\xb0\xe0\xa5\x80'
p456
sS'af'
p457
S'\xe0\xa4\x9c\xe0\xa4\xbe\xe0\xa4\xa8\xe0\xa4\x95\xe0\xa4\xbe\xe0\xa4\xb0\xe0\xa5\x80,n,f,sg,3,d,0,0'
p458
sS'chunkid'
p459
S'NP'
p460
sS'drel'
p461
S'k2:VGF'
p462
sS'chunktype'
p463
S'head:NP'
p464
ssbsg24
I00
sg25
I00
sg26
Nsg27
Nsg28
I0
sg29
I1
sg30
Nsg31
Nsg32
S'NN'
p465
sg34
g450
sg35
I00
sba(issf_api
Word
p466
(dp467
g6
I00
sg7
V\u092e\u094d\u092f\u0942\u0928\u093f\u0916
p468
sg9
(issf_api
FeatureSet
p469
(dp470
g12
(dp471
S'posn'
p472
S'30'
p473
sS'name'
p474
S'\xe0\xa4\xae\xe0\xa5\x8d\xe0\xa4\xaf\xe0\xa5\x82\xe0\xa4\xa8\xe0\xa4\xbf\xe0\xa4\x96'
p475
sS'af'
p476
S'\xe0\xa4\xae\xe0\xa5\x8d\xe0\xa4\xaf\xe0\xa5\x82\xe0\xa4\xa8\xe0\xa4\xbf\xe0\xa4\x96,n,m,sg,3,o,0_\xe0\xa4\x95\xe0\xa4\xbe,0'
p477
sS'chunkid'
p478
S'NP2'
p479
sS'drel'
p480
S'r6:NP3'
p481
sS'vpos'
p482
S'vib_2'
p483
sS'chunktype'
p484
S'head:NP2'
p485
ssbsg24
I00
sg25
I00
sg26
Nsg27
Nsg28
I1
sg29
I1
sg30
Nsg31
Nsg32
S'NNP'
p486
sg34
g469
sg35
I00
sba(issf_api
Word
p487
(dp488
g6
I00
sg7
V\u0915\u0940
p489
sg9
(issf_api
FeatureSet
p490
(dp491
g12
(dp492
S'posn'
p493
S'40'
p494
sS'name'
p495
S'\xe0\xa4\x95\xe0\xa5\x80'
p496
sS'drel'
p497
S'lwg__psp:NP2'
p498
sS'chunktype'
p499
S'child:NP2'
p500
sS'af'
p501
S'\xe0\xa4\x95\xe0\xa4\xbe,psp,f,sg,,o,,'
p502
ssbsg24
I00
sg25
I00
sg26
Nsg27
Nsg28
I1
sg29
I1
sg30
Nsg31
Nsg32
S'PSP'
p503
sg34
g490
sg35
I00
sba(issf_api
Word
p504
(dp505
g6
I00
sg7
V\u090f\u0915
p506
sg9
(issf_api
FeatureSet
p507
(dp508
g12
(dp509
S'posn'
p510
S'50'
p511
sS'name'
p512
S'\xe0\xa4\x8f\xe0\xa4\x95'
p513
sS'drel'
p514
S'nmod__adj:NP3'
p515
sS'chunktype'
p516
S'child:NP3'
p517
sS'af'
p518
S'\xe0\xa4\x8f\xe0\xa4\x95,num,any,any,,any,,'
p519
ssbsg24
I00
sg25
I00
sg26
Nsg27
Nsg28
I2
sg29
I1
sg30
Nsg31
Nsg32
S'QC'
p520
sg34
g507
sg35
I00
sba(issf_api
Word
p521
(dp522
g6
I00
sg7
V\u092a\u0924\u094d\u0930\u093f\u0915\u093e
p523
sg9
(issf_api
FeatureSet
p524
(dp525
g12
(dp526
S'posn'
p527
S'60'
p528
sS'name'
p529
S'\xe0\xa4\xaa\xe0\xa4\xa4\xe0\xa5\x8d\xe0\xa4\xb0\xe0\xa4\xbf\xe0\xa4\x95\xe0\xa4\xbe'
p530
sS'af'
p531
S'\xe0\xa4\xaa\xe0\xa4\xa4\xe0\xa5\x8d\xe0\xa4\xb0\xe0\xa4\xbf\xe0\xa4\x95\xe0\xa4\xbe,n,f,sg,3,o,0_\xe0\xa4\xa8\xe0\xa5\x87,0'
p532
sS'chunkid'
p533
S'NP3'
p534
sS'drel'
p535
S'k1:VGF'
p536
sS'vpos'
p537
S'vib_3'
p538
sS'chunktype'
p539
S'head:NP3'
p540
ssbsg24
I00
sg25
I00
sg26
Nsg27
Nsg28
I2
sg29
I1
sg30
Nsg31
Nsg32
S'NN'
p541
sg34
g524
sg35
I00
sba(issf_api
Word
p542
(dp543
g6
I00
sg7
V\u0928\u0947
p544
sg9
(issf_api
FeatureSet
p545
(dp546
g12
(dp547
S'posn'
p548
S'70'
p549
sS'name'
p550
S'\xe0\xa4\xa8\xe0\xa5\x87'
p551
sS'drel'
p552
S'lwg__psp:NP3'
p553
sS'chunktype'
p554
S'child:NP3'
p555
sS'af'
p556
S'\xe0\xa4\xa8\xe0\xa5\x87,psp,,,,,,'
p557
ssbsg24
I00
sg25
I00
sg26
Nsg27
Nsg28
I2
sg29
I1
sg30
Nsg31
Nsg32
S'PSP'
p558
sg34
g545
sg35
I00
sba(issf_api
Word
p559
(dp560
g6
I00
sg7
V\u0926\u0940
p561
sg9
(issf_api
FeatureSet
p562
(dp563
g12
(dp564
S'posn'
p565
S'80'
p566
sS'name'
p567
S'\xe0\xa4\xa6\xe0\xa5\x80'
p568
sS'af'
p569
S'\xe0\xa4\xa6\xe0\xa5\x87,v,f,sg,3,,\xe0\xa4\xaf\xe0\xa4\xbe_\xe0\xa4\xb9\xe0\xa5\x88,yA'
p570
sS'chunkid'
p571
S'VGF'
p572
sS'chunktype'
p573
S'head:VGF'
p574
sS'voicetype'
p575
S'active'
p576
sS'vpos'
p577
S'tam_2'
p578
sS'stype'
p579
S'declarative'
p580
ssbsg24
I00
sg25
I00
sg26
Nsg27
Nsg28
I3
sg29
I1
sg30
Nsg31
Nsg32
S'VM'
p581
sg34
g562
sg35
I00
sba(issf_api
Word
p582
(dp583
g6
I00
sg7
V\u0939\u0948
p584
sg9
(issf_api
FeatureSet
p585
(dp586
g12
(dp587
S'posn'
p588
S'90'
p589
sS'name'
p590
S'\xe0\xa4\xb9\xe0\xa5\x88'
p591
sS'drel'
p592
S'lwg__vaux:VGF'
p593
sS'chunktype'
p594
S'child:VGF'
p595
sS'af'
p596
S'\xe0\xa4\xb9\xe0\xa5\x88,v,any,sg,3,,\xe0\xa4\xb9\xe0\xa5\x88,hE'
p597
ssbsg24
I00
sg25
I00
sg26
Nsg27
Nsg28
I3
sg29
I1
sg30
Nsg31
Nsg32
S'VAUX'
p598
sg34
g585
sg35
I00
sba(issf_api
Word
p599
(dp600
g6
I00
sg7
V\u0964
p601
sg9
(issf_api
FeatureSet
p602
(dp603
g12
(dp604
S'posn'
p605
S'100'
p606
sS'name'
p607
S'\xe0\xa5\xa4'
p608
sS'af'
p609
S'\xe0\xa5\xa4,punc,,,,,,'
p610
sS'chunkid'
p611
S'BLK'
p612
sS'drel'
p613
S'rsym:VGF'
p614
sS'chunktype'
p615
S'head:BLK'
p616
ssbsg24
I00
sg25
I00
sg26
Nsg27
Nsg28
I4
sg29
I1
sg30
Nsg31
Nsg32
S'SYM'
p617
sg34
g602
sg35
I00
sba(issf_api
Word
p618
(dp619
g6
I00
sg7
V\u0928\u092f\u093e
p620
sg9
(issf_api
FeatureSet
p621
(dp622
g12
(dp623
S'posn'
p624
S'10'
p625
sS'name'
p626
S'\xe0\xa4\xa8\xe0\xa4\xaf\xe0\xa4\xbe'
p627
sS'af'
p628
S'\xe0\xa4\xa8\xe0\xa4\xaf\xe0\xa4\xbe,adj,m,sg,,d,,'
p629
sS'drel'
p630
S'nmod__adj:NP'
p631
sS'chunktype'
p632
S'child:NP'
p633
sS'cref'
p634
S'i3%0:t2'
p635
ssbsg24
I00
sg25
I00
sg26
Nsg27
Nsg28
I0
sg29
I2
sg30
Nsg31
Nsg32
S'JJ'
p636
sg34
g621
sg35
I00
sba(issf_api
Word
p637
(dp638
g6
I00
sg7
V\u0935\u093e\u092f\u0930\u0938
p639
sg9
(issf_api
FeatureSet
p640
(dp641
g12
(dp642
S'crefhead'
p643
S'\xe0\xa4\xb5\xe0\xa4\xbe\xe0\xa4\xaf\xe0\xa4\xb0\xe0\xa4\xb8:i3'
p644
sS'posn'
p645
S'20'
p646
sS'name'
p647
S'\xe0\xa4\xb5\xe0\xa4\xbe\xe0\xa4\xaf\xe0\xa4\xb0\xe0\xa4\xb8'
p648
sS'af'
p649
S'\xe0\xa4\xb5\xe0\xa4\xbe\xe0\xa4\xaf\xe0\xa4\xb0\xe0\xa4\xb8,n,m,sg,3,d,0,0'
p650
sS'chunkid'
p651
S'NP'
p652
sS'creftype'
p653
S'Coreference-Noun-Noun:i2'
p654
sS'chunktype'
p655
S'head:NP'
p656
sS'cref'
p657
S'i3%1:t2'
p658
sS'drel'
p659
S'nmod:NP2'
p660
ssbsg24
I00
sg25
I00
sg26
Nsg27
Nsg28
I0
sg29
I2
sg30
Nsg31
Nsg32
S'NN'
p661
sg34
g640
sg35
I00
sba(issf_api
Word
p662
(dp663
g6
I00
sg7
V\u092c\u0948\u0917\u0932
p664
sg9
(issf_api
FeatureSet
p665
(dp666
g12
(dp667
S'crefhead'
p668
S'\xe0\xa4\xac\xe0\xa5\x88\xe0\xa4\x97\xe0\xa4\xb2:i4'
p669
sS'posn'
p670
S'30'
p671
sS'name'
p672
S'\xe0\xa4\xac\xe0\xa5\x88\xe0\xa4\x97\xe0\xa4\xb2'
p673
sS'af'
p674
S'\xe0\xa4\xac\xe0\xa5\x88\xe0\xa4\x97\xe0\xa4\xb2,n,m,sg,3,d,0,0'
p675
sS'creftype'
p676
S'Coreference-NounComplement:i3'
p677
sS'drel'
p678
S'pof__cn:NP2'
p679
sS'chunktype'
p680
S'child:NP2'
p681
sS'cref'
p682
S'i4%1:t2'
p683
ssbsg24
I00
sg25
I00
sg26
Nsg27
Nsg28
I1
sg29
I2
sg30
Nsg31
Nsg32
S'NNPC'
p684
sg34
g665
sg35
I00
sba(issf_api
Word
p685
(dp686
g6
I00
sg7
V,
p687
sg9
(issf_api
FeatureSet
p688
(dp689
g12
(dp690
S'posn'
p691
S'40'
p692
sS'name'
p693
S','
p694
sS'drel'
p695
S'rsym:NP2'
p696
sS'chunktype'
p697
S'child:NP2'
p698
sS'af'
p699
S'COMMA,punc,,,,,,'
p700
ssbsg24
I00
sg25
I00
sg26
Nsg27
Nsg28
I1
sg29
I2
sg30
Nsg31
Nsg32
S'SYM'
p701
sg34
g688
sg35
I00
sba(issf_api
Word
p702
(dp703
g6
I00
sg7
V\u090f\u0906\u0908
p704
sg9
(issf_api
FeatureSet
p705
(dp706
g12
(dp707
S'crefhead'
p708
S'\xe0\xa4\x8f\xe0\xa4\x86\xe0\xa4\x88:i5'
p709
sS'posn'
p710
S'50'
p711
sS'name'
p712
S'\xe0\xa4\x8f\xe0\xa4\x86\xe0\xa4\x88'
p713
sS'af'
p714
S'\xe0\xa4\x8f\xe0\xa4\x86\xe0\xa4\x88,n,m,sg,3,d,0,0'
p715
sS'chunkid'
p716
S'NP2'
p717
sS'creftype'
p718
S'Coreference-Noun-Noun:i4'
p719
sS'chunktype'
p720
S'head:NP2'
p721
sS'cref'
p722
S'i5%1:t2'
p723
sS'drel'
p724
S'k1:VGF'
p725
ssbsg24
I00
sg25
I00
sg26
Nsg27
Nsg28
I1
sg29
I2
sg30
Nsg31
Nsg32
S'NNP'
p726
sg34
g705
sg35
I00
sba(issf_api
Word
p727
(dp728
g6
I00
sg7
V\u0916\u0941\u0926
p729
sg9
(issf_api
FeatureSet
p730
(dp731
g12
(dp732
S'crefhead'
p733
S'\xe0\xa4\x96\xe0\xa5\x81\xe0\xa4\xa6:i6'
p734
sS'posn'
p735
S'210'
p736
sS'name'
p737
S'\xe0\xa4\x96\xe0\xa5\x81\xe0\xa4\xa6'
p738
sS'af'
p739
S'\xe0\xa4\x96\xe0\xa5\x81\xe0\xa4\xa6,pn,,,,o,0_\xe0\xa4\x95\xe0\xa5\x8b,'
p740
sS'chunkid'
p741
S'NP3'
p742
sS'creftype'
p743
S'Anaphora-C:i5'
p744
sS'chunktype'
p745
S'head:NP3'
p746
sS'vpos'
p747
S'vib_2'
p748
sS'cref'
p749
S'i6%1:t2'
p750
sS'drel'
p751
S'k2:VGF'
p752
ssbsg24
I00
sg25
I00
sg26
Nsg27
Nsg28
I2
sg29
I2
sg30
Nsg31
Nsg32
S'PRP'
p753
sg34
g730
sg35
I00
sba(issf_api
Word
p754
(dp755
g6
I00
sg7
V\u0915\u094b
p756
sg9
(issf_api
FeatureSet
p757
(dp758
g12
(dp759
S'posn'
p760
S'70'
p761
sS'name'
p762
S'\xe0\xa4\x95\xe0\xa5\x8b'
p763
sS'drel'
p764
S'lwg__psp:NP3'
p765
sS'chunktype'
p766
S'child:NP3'
p767
sS'af'
p768
S'\xe0\xa4\x95\xe0\xa5\x8b,psp,,,,,,'
p769
ssbsg24
I00
sg25
I00
sg26
Nsg27
Nsg28
I2
sg29
I2
sg30
Nsg31
Nsg32
S'PSP'
p770
sg34
g757
sg35
I00
sba(issf_api
Word
p771
(dp772
g6
I00
sg7
V\u0938\u0902\u0915\u094d\u0930\u092e\u093f\u0924
p773
sg9
(issf_api
FeatureSet
p774
(dp775
g12
(dp776
S'posn'
p777
S'80'
p778
sS'name'
p779
S'\xe0\xa4\xb8\xe0\xa4\x82\xe0\xa4\x95\xe0\xa5\x8d\xe0\xa4\xb0\xe0\xa4\xae\xe0\xa4\xbf\xe0\xa4\xa4'
p780
sS'af'
p781
S'\xe0\xa4\xb8\xe0\xa4\x82\xe0\xa4\x95\xe0\xa5\x8d\xe0\xa4\xb0\xe0\xa4\xae\xe0\xa4\xbf\xe0\xa4\xa4,adj,any,any,,o,,'
p782
sS'acrefmod'
p783
S'm1%0:i8'
p784
sS'drel'
p785
S'nmod__adj:NP4'
p786
sS'chunktype'
p787
S'child:NP4'
p788
sS'cref'
p789
S'i7%0:t1'
p790
ssbsg24
I00
sg25
I00
sg26
Nsg27
Nsg28
I3
sg29
I2
sg30
Nsg31
Nsg32
S'JJ'
p791
sg34
g774
sg35
I00
sba(issf_api
Word
p792
(dp793
g6
I00
sg7
V\u0915\u0902\u092a\u094d\u092f\u0942\u091f\u0930
p794
sg9
(issf_api
FeatureSet
p795
(dp796
g12
(dp797
S'crefhead'
p798
S'\xe0\xa4\x95\xe0\xa4\x82\xe0\xa4\xaa\xe0\xa5\x8d\xe0\xa4\xaf\xe0\xa5\x82\xe0\xa4\x9f\xe0\xa4\xb0:i7'
p799
sS'posn'
p800
S'90'
p801
sS'name'
p802
S'\xe0\xa4\x95\xe0\xa4\x82\xe0\xa4\xaa\xe0\xa5\x8d\xe0\xa4\xaf\xe0\xa5\x82\xe0\xa4\x9f\xe0\xa4\xb0'
p803
sS'af'
p804
S'\xe0\xa4\x95\xe0\xa4\x82\xe0\xa4\xaa\xe0\xa5\x8d\xe0\xa4\xaf\xe0\xa5\x82\xe0\xa4\x9f\xe0\xa4\xb0,n,m,sg,3,o,0_\xe0\xa4\x95\xe0\xa4\xbe,0'
p805
sS'acrefmodhead'
p806
S'\xe0\xa4\x95\xe0\xa4\x82\xe0\xa4\xaa\xe0\xa5\x8d\xe0\xa4\xaf\xe0\xa5\x82\xe0\xa4\x9f\xe0\xa4\xb0:m1'
p807
sS'chunkid'
p808
S'NP4'
p809
sS'acrefmod'
p810
S'm1%1:i8'
p811
sS'creftype'
p812
S'Coreference-PartOf:i1'
p813
sS'chunktype'
p814
S'head:NP4'
p815
sS'vpos'
p816
S'vib_3'
p817
sS'cref'
p818
S'i7%1:t1'
p819
sS'drel'
p820
S'r6:NP5'
p821
ssbsg24
I00
sg25
I00
sg26
Nsg27
Nsg28
I3
sg29
I2
sg30
Nsg31
Nsg32
S'NN'
p822
sg34
g795
sg35
I00
sba(issf_api
Word
p823
(dp824
g6
I00
sg7
V\u0915\u0947
p825
sg9
(issf_api
FeatureSet
p826
(dp827
g12
(dp828
S'posn'
p829
S'100'
p830
sS'name'
p831
S'\xe0\xa4\x95\xe0\xa5\x87'
p832
sS'drel'
p833
S'lwg__psp:NP4'
p834
sS'chunktype'
p835
S'child:NP4'
p836
sS'af'
p837
S'\xe0\xa4\x95\xe0\xa4\xbe,psp,m,sg,,o,,'
p838
ssbsg24
I00
sg25
I00
sg26
Nsg27
Nsg28
I3
sg29
I2
sg30
Nsg31
Nsg32
S'PSP'
p839
sg34
g826
sg35
I00
sba(issf_api
Word
p840
(dp841
g6
I00
sg7
V\u0908
p842
sg9
(issf_api
FeatureSet
p843
(dp844
g12
(dp845
S'posn'
p846
S'110'
p847
sS'name'
p848
S'\xe0\xa4\x88'
p849
sS'af'
p850
S'\xe0\xa4\x88,n,f,sg,3,d,0,0'
p851
sS'drel'
p852
S'pof__cn:NP5'
p853
sS'chunktype'
p854
S'child:NP5'
p855
sS'cref'
p856
S'i8%0:t3'
p857
ssbsg24
I00
sg25
I00
sg26
Nsg27
Nsg28
I4
sg29
I2
sg30
Nsg31
Nsg32
S'NNC'
p858
sg34
g843
sg35
I00
sba(issf_api
Word
p859
(dp860
g6
I00
sg7
V-
p861
sg9
(issf_api
FeatureSet
p862
(dp863
g12
(dp864
S'posn'
p865
S'120'
p866
sS'name'
p867
S'-'
p868
sS'af'
p869
S'-,punc,,,,,,'
p870
sS'drel'
p871
S'pof__cn:NP5'
p872
sS'chunktype'
p873
S'child:NP5'
p874
sS'cref'
p875
S'i8%0:t3'
p876
ssbsg24
I00
sg25
I00
sg26
Nsg27
Nsg28
I4
sg29
I2
sg30
Nsg31
Nsg32
S'SYM'
p877
sg34
g862
sg35
I00
sba(issf_api
Word
p878
(dp879
g6
I00
sg7
V\u092e\u0947\u0932
p880
sg9
(issf_api
FeatureSet
p881
(dp882
g12
(dp883
S'crefhead'
p884
S'\xe0\xa4\xae\xe0\xa5\x87\xe0\xa4\xb2:i8'
p885
sS'posn'
p886
S'130'
p887
sS'name'
p888
S'\xe0\xa4\xae\xe0\xa5\x87\xe0\xa4\xb2'
p889
sS'af'
p890
S'\xe0\xa4\xae\xe0\xa5\x87\xe0\xa4\xb2,n,f,sg,3,o,0_\xe0\xa4\xb8\xe0\xa5\x87,0'
p891
sS'chunkid'
p892
S'NP5'
p893
sS'crefmod'
p894
S'm1:i8'
p895
sS'chunktype'
p896
S'head:NP5'
p897
sS'crefchainhead'
p898
S'i8:t3'
p899
sS'vpos'
p900
S'vib_4'
p901
sS'cref'
p902
S'i8%1:t3'
p903
sS'drel'
p904
S'ras-k2:VGF'
p905
ssbsg24
I00
sg25
I00
sg26
Nsg27
Nsg28
I4
sg29
I2
sg30
Nsg31
Nsg32
S'NN'
p906
sg34
g881
sg35
I00
sba(issf_api
Word
p907
(dp908
g6
I00
sg7
V\u0938\u0947
p909
sg9
(issf_api
FeatureSet
p910
(dp911
g12
(dp912
S'posn'
p913
S'140'
p914
sS'name'
p915
S'\xe0\xa4\xb8\xe0\xa5\x87'
p916
sS'drel'
p917
S'lwg__psp:NP5'
p918
sS'chunktype'
p919
S'child:NP5'
p920
sS'af'
p921
S'\xe0\xa4\xb8\xe0\xa5\x87,psp,,,,,,'
p922
ssbsg24
I00
sg25
I00
sg26
Nsg27
Nsg28
I4
sg29
I2
sg30
Nsg31
Nsg32
S'PSP'
p923
sg34
g910
sg35
I00
sba(issf_api
Word
p924
(dp925
g6
I00
sg7
V\u091c\u094b\u0921\u093c
p926
sg9
(issf_api
FeatureSet
p927
(dp928
g12
(dp929
S'posn'
p930
S'150'
p931
sS'name'
p932
S'\xe0\xa4\x9c\xe0\xa5\x8b\xe0\xa4\xa1\xe0\xa4\xbc'
p933
sS'af'
p934
S'\xe0\xa4\x9c\xe0\xa5\x8b\xe0\xa4\xa1\xe0\xa4\xbc,v,m,sg,3,,0_\xe0\xa4\xb2\xe0\xa5\x87+\xe0\xa4\xa4\xe0\xa4\xbe_\xe0\xa4\xb9\xe0\xa5\x88,0'
p935
sS'chunkid'
p936
S'VGF'
p937
sS'stype'
p938
S'declarative'
p939
sS'drel'
p940
S'ccof:CCP'
p941
sS'voicetype'
p942
S'active'
p943
sS'vpos'
p944
S'tam_2_3'
p945
sS'chunktype'
p946
S'head:VGF'
p947
ssbsg24
I00
sg25
I00
sg26
Nsg27
Nsg28
I5
sg29
I2
sg30
Nsg31
Nsg32
S'VM'
p948
sg34
g927
sg35
I00
sba(issf_api
Word
p949
(dp950
g6
I00
sg7
V\u0932\u0947\u0924\u093e
p951
sg9
(issf_api
FeatureSet
p952
(dp953
g12
(dp954
S'posn'
p955
S'160'
p956
sS'name'
p957
S'\xe0\xa4\xb2\xe0\xa5\x87\xe0\xa4\xa4\xe0\xa4\xbe'
p958
sS'drel'
p959
S'lwg__vaux:VGF'
p960
sS'chunktype'
p961
S'child:VGF'
p962
sS'af'
p963
S'\xe0\xa4\xb2\xe0\xa5\x87,v,m,sg,any,,\xe0\xa4\xa4\xe0\xa4\xbe,wA'
p964
ssbsg24
I00
sg25
I00
sg26
Nsg27
Nsg28
I5
sg29
I2
sg30
Nsg31
Nsg32
S'VAUX'
p965
sg34
g952
sg35
I00
sba(issf_api
Word
p966
(dp967
g6
I00
sg7
V\u0939\u0948
p968
sg9
(issf_api
FeatureSet
p969
(dp970
g12
(dp971
S'posn'
p972
S'170'
p973
sS'name'
p974
S'\xe0\xa4\xb9\xe0\xa5\x88'
p975
sS'drel'
p976
S'lwg__vaux:VGF'
p977
sS'chunktype'
p978
S'child:VGF'
p979
sS'af'
p980
S'\xe0\xa4\xb9\xe0\xa5\x88,v,any,sg,3,,\xe0\xa4\xb9\xe0\xa5\x88,hE'
p981
ssbsg24
I00
sg25
I00
sg26
Nsg27
Nsg28
I5
sg29
I2
sg30
Nsg31
Nsg32
S'VAUX'
p982
sg34
g969
sg35
I00
sba(issf_api
Word
p983
(dp984
g6
I00
sg7
V\u0914\u0930
p985
sg9
(issf_api
FeatureSet
p986
(dp987
g12
(dp988
S'posn'
p989
S'180'
p990
sS'chunkid'
p991
S'CCP'
p992
sS'name'
p993
S'\xe0\xa4\x94\xe0\xa4\xb0'
p994
sS'chunktype'
p995
S'head:CCP'
p996
sS'af'
p997
S'\xe0\xa4\x94\xe0\xa4\xb0,avy,,,,,,'
p998
ssbsg24
I00
sg25
I00
sg26
Nsg27
Nsg28
I6
sg29
I2
sg30
Nsg31
Nsg32
S'CC'
p999
sg34
g986
sg35
I00
sba(issf_api
Word
p1000
(dp1001
g6
I00
sg7
V\u0909\u0938\u0915\u0947
p1002
sg9
(issf_api
FeatureSet
p1003
(dp1004
g12
(dp1005
S'crefhead'
p1006
S'\xe0\xa4\x89\xe0\xa4\xb8\xe0\xa4\x95\xe0\xa5\x87:i9'
p1007
sS'posn'
p1008
S'190'
p1009
sS'name'
p1010
S'\xe0\xa4\x89\xe0\xa4\xb8\xe0\xa4\x95\xe0\xa5\x87'
p1011
sS'af'
p1012
S'\xe0\xa4\xb5\xe0\xa4\xb9,pn,m,sg,3,o,\xe0\xa4\x95\xe0\xa4\xbe,kA'
p1013
sS'chunkid'
p1014
S'NP6'
p1015
sS'creftype'
p1016
S'Anaphora-C:i8'
p1017
sS'chunktype'
p1018
S'head:NP6'
p1019
sS'cref'
p1020
S'i9%1:t3'
p1021
sS'drel'
p1022
S'r6:NP7'
p1023
ssbsg24
I00
sg25
I00
sg26
Nsg27
Nsg28
I7
sg29
I2
sg30
Nsg31
Nsg32
S'PRP'
p1024
sg34
g1003
sg35
I00
sba(issf_api
Word
p1025
(dp1026
g6
I00
sg7
V\u0910\u0921\u094d\u0930\u0938
p1027
sg9
(issf_api
FeatureSet
p1028
(dp1029
g12
(dp1030
S'posn'
p1031
S'200'
p1032
sS'name'
p1033
S'\xe0\xa4\x90\xe0\xa4\xa1\xe0\xa5\x8d\xe0\xa4\xb0\xe0\xa4\xb8'
p1034
sS'drel'
p1035
S'pof__cn:NP7'
p1036
sS'chunktype'
p1037
S'child:NP7'
p1038
sS'af'
p1039
S'\xe0\xa4\x90\xe0\xa4\xa1\xe0\xa5\x8d\xe0\xa4\xb0\xe0\xa4\xb8,n,m,sg,3,d,0,0'
p1040
ssbsg24
I00
sg25
I00
sg26
Nsg27
Nsg28
I8
sg29
I2
sg30
Nsg31
Nsg32
S'NNC'
p1041
sg34
g1028
sg35
I00
sba(issf_api
Word
p1042
(dp1043
g6
I00
sg7
V\u092c\u0941\u0915
p1044
sg9
(issf_api
FeatureSet
p1045
(dp1046
g12
(dp1047
S'posn'
p1048
S'210'
p1049
sS'name'
p1050
S'\xe0\xa4\xac\xe0\xa5\x81\xe0\xa4\x95'
p1051
sS'af'
p1052
S'\xe0\xa4\xac\xe0\xa5\x81\xe0\xa4\x95,n,f,sg,3,o,0_\xe0\xa4\xae\xe0\xa5\x87\xe0\xa4\x82,0'
p1053
sS'chunkid'
p1054
S'NP7'
p1055
sS'drel'
p1056
S'jjmod:JJP'
p1057
sS'vpos'
p1058
S'vib_3'
p1059
sS'chunktype'
p1060
S'head:NP7'
p1061
ssbsg24
I00
sg25
I00
sg26
Nsg27
Nsg28
I8
sg29
I2
sg30
Nsg31
Nsg32
S'NN'
p1062
sg34
g1045
sg35
I00
sba(issf_api
Word
p1063
(dp1064
g6
I00
sg7
V\u092e\u0947\u0902
p1065
sg9
(issf_api
FeatureSet
p1066
(dp1067
g12
(dp1068
S'posn'
p1069
S'220'
p1070
sS'name'
p1071
S'\xe0\xa4\xae\xe0\xa5\x87\xe0\xa4\x82'
p1072
sS'drel'
p1073
S'lwg__psp:NP7'
p1074
sS'chunktype'
p1075
S'child:NP7'
p1076
sS'af'
p1077
S'\xe0\xa4\xae\xe0\xa5\x87\xe0\xa4\x82,psp,,,,,,'
p1078
ssbsg24
I00
sg25
I00
sg26
Nsg27
Nsg28
I8
sg29
I2
sg30
Nsg31
Nsg32
S'PSP'
p1079
sg34
g1066
sg35
I00
sba(issf_api
Word
p1080
(dp1081
g6
I00
sg7
V\u0926\u0930\u094d\u091c
p1082
sg9
(issf_api
FeatureSet
p1083
(dp1084
g12
(dp1085
S'posn'
p1086
S'230'
p1087
sS'name'
p1088
S'\xe0\xa4\xa6\xe0\xa4\xb0\xe0\xa5\x8d\xe0\xa4\x9c'
p1089
sS'af'
p1090
S'\xe0\xa4\xa6\xe0\xa4\xb0\xe0\xa5\x8d\xe0\xa4\x9c,adj,any,any,,o,,'
p1091
sS'chunkid'
p1092
S'JJP'
p1093
sS'drel'
p1094
S'nmod:NP8'
p1095
sS'chunktype'
p1096
S'head:JJP'
p1097
ssbsg24
I00
sg25
I00
sg26
Nsg27
Nsg28
I9
sg29
I2
sg30
Nsg31
Nsg32
S'JJ'
p1098
sg34
g1083
sg35
I00
sba(issf_api
Word
p1099
(dp1100
g6
I00
sg7
V\u0938\u092d\u0940
p1101
sg9
(issf_api
FeatureSet
p1102
(dp1103
g12
(dp1104
S'posn'
p1105
S'240'
p1106
sS'name'
p1107
S'\xe0\xa4\xb8\xe0\xa4\xad\xe0\xa5\x80'
p1108
sS'drel'
p1109
S'nmod__adj:NP8'
p1110
sS'chunktype'
p1111
S'child:NP8'
p1112
sS'af'
p1113
S'\xe0\xa4\xb8\xe0\xa4\xad\xe0\xa5\x80,avy,,,,,,'
p1114
ssbsg24
I00
sg25
I00
sg26
Nsg27
Nsg28
I10
sg29
I2
sg30
Nsg31
Nsg32
S'QF'
p1115
sg34
g1102
sg35
I00
sba(issf_api
Word
p1116
(dp1117
g6
I00
sg7
V\u0908
p1118
sg9
(issf_api
FeatureSet
p1119
(dp1120
g12
(dp1121
S'posn'
p1122
S'250'
p1123
sS'name'
p1124
S'\xe0\xa4\x882'
p1125
sS'drel'
p1126
S'pof__cn:NP8'
p1127
sS'chunktype'
p1128
S'child:NP8'
p1129
sS'af'
p1130
S'\xe0\xa4\x88,n,f,sg,3,d,0,0'
p1131
ssbsg24
I00
sg25
I00
sg26
Nsg27
Nsg28
I10
sg29
I2
sg30
Nsg31
Nsg32
S'NNC'
p1132
sg34
g1119
sg35
I00
sba(issf_api
Word
p1133
(dp1134
g6
I00
sg7
V-
p1135
sg9
(issf_api
FeatureSet
p1136
(dp1137
g12
(dp1138
S'posn'
p1139
S'260'
p1140
sS'name'
p1141
S'-2'
p1142
sS'drel'
p1143
S'pof__cn:NP8'
p1144
sS'chunktype'
p1145
S'child:NP8'
p1146
sS'af'
p1147
S'-,punc,,,,,,'
p1148
ssbsg24
I00
sg25
I00
sg26
Nsg27
Nsg28
I10
sg29
I2
sg30
Nsg31
Nsg32
S'SYM'
p1149
sg34
g1136
sg35
I00
sba(issf_api
Word
p1150
(dp1151
g6
I00
sg7
V\u092e\u0947\u0932
p1152
sg9
(issf_api
FeatureSet
p1153
(dp1154
g12
(dp1155
S'posn'
p1156
S'270'
p1157
sS'name'
p1158
S'\xe0\xa4\xae\xe0\xa5\x87\xe0\xa4\xb22'
p1159
sS'drel'
p1160
S'pof__cn:NP8'
p1161
sS'chunktype'
p1162
S'child:NP8'
p1163
sS'af'
p1164
S'\xe0\xa4\xae\xe0\xa5\x87\xe0\xa4\xb2,n,f,sg,3,d,0,0'
p1165
ssbsg24
I00
sg25
I00
sg26
Nsg27
Nsg28
I10
sg29
I2
sg30
Nsg31
Nsg32
S'NNC'
p1166
sg34
g1153
sg35
I00
sba(issf_api
Word
p1167
(dp1168
g6
I00
sg7
V\u092a\u0924\u094b\u0902
p1169
sg9
(issf_api
FeatureSet
p1170
(dp1171
g12
(dp1172
S'posn'
p1173
S'280'
p1174
sS'name'
p1175
S'\xe0\xa4\xaa\xe0\xa4\xa4\xe0\xa5\x8b\xe0\xa4\x82'
p1176
sS'af'
p1177
S'\xe0\xa4\xaa\xe0\xa4\xa4\xe0\xa4\xbe,n,m,pl,3,o,0_\xe0\xa4\xaa\xe0\xa4\xb0,0'
p1178
sS'chunkid'
p1179
S'NP8'
p1180
sS'drel'
p1181
S'k7p:VGF2'
p1182
sS'vpos'
p1183
S'vib_6'
p1184
sS'chunktype'
p1185
S'head:NP8'
p1186
ssbsg24
I00
sg25
I00
sg26
Nsg27
Nsg28
I10
sg29
I2
sg30
Nsg31
Nsg32
S'NN'
p1187
sg34
g1170
sg35
I00
sba(issf_api
Word
p1188
(dp1189
g6
I00
sg7
V\u092a\u0930
p1190
sg9
(issf_api
FeatureSet
p1191
(dp1192
g12
(dp1193
S'posn'
p1194
S'290'
p1195
sS'name'
p1196
S'\xe0\xa4\xaa\xe0\xa4\xb0'
p1197
sS'drel'
p1198
S'lwg__psp:NP8'
p1199
sS'chunktype'
p1200
S'child:NP8'
p1201
sS'af'
p1202
S'\xe0\xa4\xaa\xe0\xa4\xb0,psp,,,,,,'
p1203
ssbsg24
I00
sg25
I00
sg26
Nsg27
Nsg28
I10
sg29
I2
sg30
Nsg31
Nsg32
S'PSP'
p1204
sg34
g1191
sg35
I00
sba(issf_api
Word
p1205
(dp1206
g6
I00
sg7
V\u092a\u0939\u0941\u0902\u091a
p1207
sg9
(issf_api
FeatureSet
p1208
(dp1209
g12
(dp1210
S'posn'
p1211
S'300'
p1212
sS'name'
p1213
S'\xe0\xa4\xaa\xe0\xa4\xb9\xe0\xa5\x81\xe0\xa4\x82\xe0\xa4\x9a'
p1214
sS'af'
p1215
S'\xe0\xa4\xaa\xe0\xa4\xb9\xe0\xa5\x81\xe0\xa4\x82\xe0\xa4\x9a,v,m,sg,3,,0_\xe0\xa4\x9c\xe0\xa4\xbe+\xe0\xa4\xa4\xe0\xa4\xbe_\xe0\xa4\xb9\xe0\xa5\x88,0'
p1216
sS'chunkid'
p1217
S'VGF2'
p1218
sS'stype'
p1219
S'declarative'
p1220
sS'drel'
p1221
S'ccof:CCP'
p1222
sS'voicetype'
p1223
S'active'
p1224
sS'vpos'
p1225
S'tam_2_3'
p1226
sS'chunktype'
p1227
S'head:VGF2'
p1228
ssbsg24
I00
sg25
I00
sg26
Nsg27
Nsg28
I11
sg29
I2
sg30
Nsg31
Nsg32
S'VM'
p1229
sg34
g1208
sg35
I00
sba(issf_api
Word
p1230
(dp1231
g6
I00
sg7
V\u091c\u093e\u0924\u093e
p1232
sg9
(issf_api
FeatureSet
p1233
(dp1234
g12
(dp1235
S'posn'
p1236
S'310'
p1237
sS'name'
p1238
S'\xe0\xa4\x9c\xe0\xa4\xbe\xe0\xa4\xa4\xe0\xa4\xbe'
p1239
sS'drel'
p1240
S'lwg__vaux:VGF2'
p1241
sS'chunktype'
p1242
S'child:VGF2'
p1243
sS'af'
p1244
S'\xe0\xa4\x9c\xe0\xa4\xbe,v,m,sg,any,,\xe0\xa4\xa4\xe0\xa4\xbe,wA'
p1245
ssbsg24
I00
sg25
I00
sg26
Nsg27
Nsg28
I11
sg29
I2
sg30
Nsg31
Nsg32
S'VAUX'
p1246
sg34
g1233
sg35
I00
sba(issf_api
Word
p1247
(dp1248
g6
I00
sg7
V\u0939\u0948
p1249
sg9
(issf_api
FeatureSet
p1250
(dp1251
g12
(dp1252
S'posn'
p1253
S'320'
p1254
sS'name'
p1255
S'\xe0\xa4\xb9\xe0\xa5\x882'
p1256
sS'drel'
p1257
S'lwg__vaux:VGF2'
p1258
sS'chunktype'
p1259
S'child:VGF2'
p1260
sS'af'
p1261
S'\xe0\xa4\xb9\xe0\xa5\x88,v,any,sg,3,,\xe0\xa4\xb9\xe0\xa5\x88,hE'
p1262
ssbsg24
I00
sg25
I00
sg26
Nsg27
Nsg28
I11
sg29
I2
sg30
Nsg31
Nsg32
S'VAUX'
p1263
sg34
g1250
sg35
I00
sba(issf_api
Word
p1264
(dp1265
g6
I00
sg7
V\u0964
p1266
sg9
(issf_api
FeatureSet
p1267
(dp1268
g12
(dp1269
S'posn'
p1270
S'330'
p1271
sS'name'
p1272
S'\xe0\xa5\xa4'
p1273
sS'af'
p1274
S'\xe0\xa5\xa4,punc,,,,,,'
p1275
sS'chunkid'
p1276
S'BLK'
p1277
sS'drel'
p1278
S'rsym:CCP'
p1279
sS'chunktype'
p1280
S'head:BLK'
p1281
ssbsg24
I00
sg25
I00
sg26
Nsg27
Nsg28
I12
sg29
I2
sg30
Nsg31
Nsg32
S'SYM'
p1282
sg34
g1267
sg35
I00
sba(issf_api
Word
p1283
(dp1284
g6
I00
sg7
V\u092f\u0939
p1285
sg9
(issf_api
FeatureSet
p1286
(dp1287
g12
(dp1288
S'posn'
p1289
S'10'
p1290
sS'name'
p1291
S'\xe0\xa4\xaf\xe0\xa4\xb9'
p1292
sS'af'
p1293
S'\xe0\xa4\xaf\xe0\xa4\xb9,pn,any,sg,3,d,,'
p1294
sS'drel'
p1295
S'nmod__adj:NP'
p1296
sS'chunktype'
p1297
S'child:NP'
p1298
sS'cref'
p1299
S'i10%0:t2'
p1300
ssbsg24
I00
sg25
I00
sg26
Nsg27
Nsg28
I0
sg29
I3
sg30
Nsg31
Nsg32
S'DEM'
p1301
sg34
g1286
sg35
I00
sba(issf_api
Word
p1302
(dp1303
g6
I00
sg7
V\u0935\u093e\u092f\u0930\u0938
p1304
sg9
(issf_api
FeatureSet
p1305
(dp1306
g12
(dp1307
S'crefhead'
p1308
S'\xe0\xa4\xb5\xe0\xa4\xbe\xe0\xa4\xaf\xe0\xa4\xb0\xe0\xa4\xb8:i10'
p1309
sS'posn'
p1310
S'20'
p1311
sS'name'
p1312
S'\xe0\xa4\xb5\xe0\xa4\xbe\xe0\xa4\xaf\xe0\xa4\xb0\xe0\xa4\xb8'
p1313
sS'af'
p1314
S'\xe0\xa4\xb5\xe0\xa4\xbe\xe0\xa4\xaf\xe0\xa4\xb0\xe0\xa4\xb8,n,m,sg,3,d,0,0'
p1315
sS'chunkid'
p1316
S'NP'
p1317
sS'creftype'
p1318
S'Coreference-Noun-Noun:i6'
p1319
sS'chunktype'
p1320
S'head:NP'
p1321
sS'cref'
p1322
S'i10%1:t2'
p1323
sS'drel'
p1324
S'k1:VGF'
p1325
ssbsg24
I00
sg25
I00
sg26
Nsg27
Nsg28
I0
sg29
I3
sg30
Nsg31
Nsg32
S'NN'
p1326
sg34
g1305
sg35
I00
sba(issf_api
Word
p1327
(dp1328
g6
I00
sg7
V\u0905\u0928\u094d\u092f
p1329
sg9
(issf_api
FeatureSet
p1330
(dp1331
g12
(dp1332
S'posn'
p1333
S'30'
p1334
sS'name'
p1335
S'\xe0\xa4\x85\xe0\xa4\xa8\xe0\xa5\x8d\xe0\xa4\xaf'
p1336
sS'drel'
p1337
S'nmod__adj:NP2'
p1338
sS'chunktype'
p1339
S'child:NP2'
p1340
sS'af'
p1341
S'\xe0\xa4\x85\xe0\xa4\xa8\xe0\xa5\x8d\xe0\xa4\xaf,adj,any,any,,o,,'
p1342
ssbsg24
I00
sg25
I00
sg26
Nsg27
Nsg28
I1
sg29
I3
sg30
Nsg31
Nsg32
S'JJ'
p1343
sg34
g1330
sg35
I00
sba(issf_api
Word
p1344
(dp1345
g6
I00
sg7
V\u0915\u0908
p1346
sg9
(issf_api
FeatureSet
p1347
(dp1348
g12
(dp1349
S'posn'
p1350
S'40'
p1351
sS'name'
p1352
S'\xe0\xa4\x95\xe0\xa4\x88'
p1353
sS'drel'
p1354
S'nmod__adj:NP2'
p1355
sS'chunktype'
p1356
S'child:NP2'
p1357
sS'af'
p1358
S'\xe0\xa4\x95\xe0\xa4\x88,avy,,,,,,'
p1359
ssbsg24
I00
sg25
I00
sg26
Nsg27
Nsg28
I1
sg29
I3
sg30
Nsg31
Nsg32
S'QF'
p1360
sg34
g1347
sg35
I00
sba(issf_api
Word
p1361
(dp1362
g6
I00
sg7
V\u0935\u093e\u092f\u0930\u0938\u094b\u0902
p1363
sg9
(issf_api
FeatureSet
p1364
(dp1365
g12
(dp1366
S'posn'
p1367
S'50'
p1368
sS'name'
p1369
S'\xe0\xa4\xb5\xe0\xa4\xbe\xe0\xa4\xaf\xe0\xa4\xb0\xe0\xa4\xb8\xe0\xa5\x8b\xe0\xa4\x82'
p1370
sS'af'
p1371
S'\xe0\xa4\xb5\xe0\xa4\xbe\xe0\xa4\xaf\xe0\xa4\xb0\xe0\xa4\xb8,n,m,pl,3,o,0_\xe0\xa4\xb8\xe0\xa5\x87,0'
p1372
sS'chunkid'
p1373
S'NP2'
p1374
sS'drel'
p1375
S'k5:VGF'
p1376
sS'vpos'
p1377
S'vib_4'
p1378
sS'chunktype'
p1379
S'head:NP2'
p1380
ssbsg24
I00
sg25
I00
sg26
Nsg27
Nsg28
I1
sg29
I3
sg30
Nsg31
Nsg32
S'NN'
p1381
sg34
g1364
sg35
I00
sba(issf_api
Word
p1382
(dp1383
g6
I00
sg7
V\u0938\u0947
p1384
sg9
(issf_api
FeatureSet
p1385
(dp1386
g12
(dp1387
S'posn'
p1388
S'60'
p1389
sS'name'
p1390
S'\xe0\xa4\xb8\xe0\xa5\x87'
p1391
sS'drel'
p1392
S'lwg__psp:NP2'
p1393
sS'chunktype'
p1394
S'child:NP2'
p1395
sS'af'
p1396
S'\xe0\xa4\xb8\xe0\xa5\x87,psp,,,,,,'
p1397
ssbsg24
I00
sg25
I00
sg26
Nsg27
Nsg28
I1
sg29
I3
sg30
Nsg31
Nsg32
S'PSP'
p1398
sg34
g1385
sg35
I00
sba(issf_api
Word
p1399
(dp1400
g6
I00
sg7
V\u0905\u0932\u0917
p1401
sg9
(issf_api
FeatureSet
p1402
(dp1403
g12
(dp1404
S'posn'
p1405
S'70'
p1406
sS'name'
p1407
S'\xe0\xa4\x85\xe0\xa4\xb2\xe0\xa4\x97'
p1408
sS'af'
p1409
S'\xe0\xa4\x85\xe0\xa4\xb2\xe0\xa4\x97,adj,any,any,,,,'
p1410
sS'chunkid'
p1411
S'JJP'
p1412
sS'drel'
p1413
S'k1s:VGF'
p1414
sS'chunktype'
p1415
S'head:JJP'
p1416
ssbsg24
I00
sg25
I00
sg26
Nsg27
Nsg28
I2
sg29
I3
sg30
Nsg31
Nsg32
S'JJ'
p1417
sg34
g1402
sg35
I00
sba(issf_api
Word
p1418
(dp1419
g6
I00
sg7
V\u0939\u0948
p1420
sg9
(issf_api
FeatureSet
p1421
(dp1422
g12
(dp1423
S'posn'
p1424
S'80'
p1425
sS'name'
p1426
S'\xe0\xa4\xb9\xe0\xa5\x88'
p1427
sS'af'
p1428
S'\xe0\xa4\xb9\xe0\xa5\x88,v,any,sg,3,,\xe0\xa4\xb9\xe0\xa5\x88,hE'
p1429
sS'chunkid'
p1430
S'VGF'
p1431
sS'chunktype'
p1432
S'head:VGF'
p1433
sS'voicetype'
p1434
S'active'
p1435
sS'stype'
p1436
S'declarative'
p1437
ssbsg24
I00
sg25
I00
sg26
Nsg27
Nsg28
I3
sg29
I3
sg30
Nsg31
Nsg32
S'VM'
p1438
sg34
g1421
sg35
I00
sba(issf_api
Word
p1439
(dp1440
g6
I00
sg7
V\u0964
p1441
sg9
(issf_api
FeatureSet
p1442
(dp1443
g12
(dp1444
S'posn'
p1445
S'90'
p1446
sS'name'
p1447
S'\xe0\xa5\xa4'
p1448
sS'af'
p1449
S'\xe0\xa5\xa4,punc,,,,,,'
p1450
sS'chunkid'
p1451
S'BLK'
p1452
sS'drel'
p1453
S'rsym:VGF'
p1454
sS'chunktype'
p1455
S'head:BLK'
p1456
ssbsg24
I00
sg25
I00
sg26
Nsg27
Nsg28
I4
sg29
I3
sg30
Nsg31
Nsg32
S'SYM'
p1457
sg34
g1442
sg35
I00
sba(issf_api
Word
p1458
(dp1459
g6
I00
sg7
V\u092f\u0939
p1460
sg9
(issf_api
FeatureSet
p1461
(dp1462
g12
(dp1463
S'crefhead'
p1464
S'\xe0\xa4\xaf\xe0\xa4\xb9:i11'
p1465
sS'posn'
p1466
S'10'
p1467
sS'name'
p1468
S'\xe0\xa4\xaf\xe0\xa4\xb9'
p1469
sS'af'
p1470
S'\xe0\xa4\xaf\xe0\xa4\xb9,pn,any,sg,3,d,0,0'
p1471
sS'chunkid'
p1472
S'NP'
p1473
sS'creftype'
p1474
S'Anaphora-C:i10'
p1475
sS'chunktype'
p1476
S'head:NP'
p1477
sS'cref'
p1478
S'i11%1:t2'
p1479
sS'drel'
p1480
S'k1:VGF'
p1481
ssbsg24
I00
sg25
I00
sg26
Nsg27
Nsg28
I0
sg29
I4
sg30
Nsg31
Nsg32
S'PRP'
p1482
sg34
g1461
sg35
I00
sba(issf_api
Word
p1483
(dp1484
g6
I00
sg7
V\u0915\u0941\u091b
p1485
sg9
(issf_api
FeatureSet
p1486
(dp1487
g12
(dp1488
S'posn'
p1489
S'20'
p1490
sS'name'
p1491
S'\xe0\xa4\x95\xe0\xa5\x81\xe0\xa4\x9b'
p1492
sS'af'
p1493
S'\xe0\xa4\x95\xe0\xa5\x81\xe0\xa4\x9b,avy,,,,,,'
p1494
sS'drel'
p1495
S'nmod__adj:NP2'
p1496
sS'chunktype'
p1497
S'child:NP2'
p1498
sS'cref'
p1499
S'i12%0:t4'
p1500
ssbsg24
I00
sg25
I00
sg26
Nsg27
Nsg28
I1
sg29
I4
sg30
Nsg31
Nsg32
S'QF'
p1501
sg34
g1486
sg35
I00
sba(issf_api
Word
p1502
(dp1503
g6
I00
sg7
V\u090f\u0902\u091f\u0940
p1504
sg9
(issf_api
FeatureSet
p1505
(dp1506
g12
(dp1507
S'posn'
p1508
S'30'
p1509
sS'name'
p1510
S'\xe0\xa4\x8f\xe0\xa4\x82\xe0\xa4\x9f\xe0\xa5\x80'
p1511
sS'af'
p1512
S'\xe0\xa4\x8f\xe0\xa4\x82\xe0\xa4\x9f\xe0\xa5\x80,adj,any,any,,d,,'
p1513
sS'drel'
p1514
S'nmod__adj:NP2'
p1515
sS'chunktype'
p1516
S'child:NP2'
p1517
sS'cref'
p1518
S'i12%0:t4'
p1519
ssbsg24
I00
sg25
I00
sg26
Nsg27
Nsg28
I1
sg29
I4
sg30
Nsg31
Nsg32
S'JJ'
p1520
sg34
g1505
sg35
I00
sba(issf_api
Word
p1521
(dp1522
g6
I00
sg7
V\u0935\u093e\u092f\u0930\u0938
p1523
sg9
(issf_api
FeatureSet
p1524
(dp1525
g12
(dp1526
S'posn'
p1527
S'40'
p1528
sS'name'
p1529
S'\xe0\xa4\xb5\xe0\xa4\xbe\xe0\xa4\xaf\xe0\xa4\xb0\xe0\xa4\xb8'
p1530
sS'af'
p1531
S'\xe0\xa4\xb5\xe0\xa4\xbe\xe0\xa4\xaf\xe0\xa4\xb0\xe0\xa4\xb8,n,m,sg,3,d,0,0'
p1532
sS'drel'
p1533
S'pof__cn:NP2'
p1534
sS'chunktype'
p1535
S'child:NP2'
p1536
sS'cref'
p1537
S'i12%0:t4'
p1538
ssbsg24
I00
sg25
I00
sg26
Nsg27
Nsg28
I1
sg29
I4
sg30
Nsg31
Nsg32
S'NNC'
p1539
sg34
g1524
sg35
I00
sba(issf_api
Word
p1540
(dp1541
g6
I00
sg7
V\u0938\u094d\u0915\u0948\u0928\u0930\u094b\u0902
p1542
sg9
(issf_api
FeatureSet
p1543
(dp1544
g12
(dp1545
S'crefhead'
p1546
S'\xe0\xa4\xb8\xe0\xa5\x8d\xe0\xa4\x95\xe0\xa5\x88\xe0\xa4\xa8\xe0\xa4\xb0\xe0\xa5\x8b\xe0\xa4\x82:i12'
p1547
sS'posn'
p1548
S'50'
p1549
sS'name'
p1550
S'\xe0\xa4\xb8\xe0\xa5\x8d\xe0\xa4\x95\xe0\xa5\x88\xe0\xa4\xa8\xe0\xa4\xb0\xe0\xa5\x8b\xe0\xa4\x82'
p1551
sS'af'
p1552
S'\xe0\xa4\xb8\xe0\xa5\x8d\xe0\xa4\x95\xe0\xa5\x88\xe0\xa4\xa8\xe0\xa4\xb0,n,m,pl,3,o,0_\xe0\xa4\xb8\xe0\xa4\xae\xe0\xa5\x87\xe0\xa4\xa4,0'
p1553
sS'chunkid'
p1554
S'NP2'
p1555
sS'drel'
p1556
S'vmod:VGNN'
p1557
sS'chunktype'
p1558
S'head:NP2'
p1559
sS'vpos'
p1560
S'vib_5'
p1561
sS'cref'
p1562
S'i12%1:t4'
p1563
ssbsg24
I00
sg25
I00
sg26
Nsg27
Nsg28
I1
sg29
I4
sg30
Nsg31
Nsg32
S'NN'
p1564
sg34
g1543
sg35
I00
sba(issf_api
Word
p1565
(dp1566
g6
I00
sg7
V\u0938\u092e\u0947\u0924
p1567
sg9
(issf_api
FeatureSet
p1568
(dp1569
g12
(dp1570
S'posn'
p1571
S'60'
p1572
sS'name'
p1573
S'\xe0\xa4\xb8\xe0\xa4\xae\xe0\xa5\x87\xe0\xa4\xa4'
p1574
sS'drel'
p1575
S'lwg__psp:NP2'
p1576
sS'chunktype'
p1577
S'child:NP2'
p1578
sS'af'
p1579
S'\xe0\xa4\xb8\xe0\xa4\xae\xe0\xa5\x87\xe0\xa4\xa4,psp,,,,,,'
p1580
ssbsg24
I00
sg25
I00
sg26
Nsg27
Nsg28
I1
sg29
I4
sg30
Nsg31
Nsg32
S'PSP'
p1581
sg34
g1568
sg35
I00
sba(issf_api
Word
p1582
(dp1583
g6
I00
sg7
V\u0915\u0902\u092a\u094d\u092f\u0942\u091f\u0930\u094b\u0902
p1584
sg9
(issf_api
FeatureSet
p1585
(dp1586
g12
(dp1587
S'crefhead'
p1588
S'\xe0\xa4\x95\xe0\xa4\x82\xe0\xa4\xaa\xe0\xa5\x8d\xe0\xa4\xaf\xe0\xa5\x82\xe0\xa4\x9f\xe0\xa4\xb0\xe0\xa5\x8b\xe0\xa4\x82:i13'
p1589
sS'posn'
p1590
S'70'
p1591
sS'name'
p1592
S'\xe0\xa4\x95\xe0\xa4\x82\xe0\xa4\xaa\xe0\xa5\x8d\xe0\xa4\xaf\xe0\xa5\x82\xe0\xa4\x9f\xe0\xa4\xb0\xe0\xa5\x8b\xe0\xa4\x82'
p1593
sS'af'
p1594
S'\xe0\xa4\x95\xe0\xa4\x82\xe0\xa4\xaa\xe0\xa5\x8d\xe0\xa4\xaf\xe0\xa5\x82\xe0\xa4\x9f\xe0\xa4\xb0,n,m,pl,3,o,0_\xe0\xa4\x95\xe0\xa4\xbe,0'
p1595
sS'chunkid'
p1596
S'NP3'
p1597
sS'creftype'
p1598
S'Coreference-RPartOf:i7'
p1599
sS'chunktype'
p1600
S'head:NP3'
p1601
sS'vpos'
p1602
S'vib_2'
p1603
sS'cref'
p1604
S'i13%1:t1'
p1605
sS'drel'
p1606
S'r6:NP4'
p1607
ssbsg24
I00
sg25
I00
sg26
Nsg27
Nsg28
I2
sg29
I4
sg30
Nsg31
Nsg32
S'NN'
p1608
sg34
g1585
sg35
I00
sba(issf_api
Word
p1609
(dp1610
g6
I00
sg7
V\u0915\u0947
p1611
sg9
(issf_api
FeatureSet
p1612
(dp1613
g12
(dp1614
S'posn'
p1615
S'80'
p1616
sS'name'
p1617
S'\xe0\xa4\x95\xe0\xa5\x87'
p1618
sS'drel'
p1619
S'lwg__psp:NP3'
p1620
sS'chunktype'
p1621
S'child:NP3'
p1622
sS'af'
p1623
S'\xe0\xa4\x95\xe0\xa4\xbe,psp,m,pl,,o,,'
p1624
ssbsg24
I00
sg25
I00
sg26
Nsg27
Nsg28
I2
sg29
I4
sg30
Nsg31
Nsg32
S'PSP'
p1625
sg34
g1612
sg35
I00
sba(issf_api
Word
p1626
(dp1627
g6
I00
sg7
V\u0915\u0941\u091b
p1628
sg9
(issf_api
FeatureSet
p1629
(dp1630
g12
(dp1631
S'posn'
p1632
S'90'
p1633
sS'name'
p1634
S'\xe0\xa4\x95\xe0\xa5\x81\xe0\xa4\x9b2'
p1635
sS'drel'
p1636
S'nmod__adj:NP4'
p1637
sS'chunktype'
p1638
S'child:NP4'
p1639
sS'af'
p1640
S'\xe0\xa4\x95\xe0\xa5\x81\xe0\xa4\x9b,avy,,,,,,'
p1641
ssbsg24
I00
sg25
I00
sg26
Nsg27
Nsg28
I3
sg29
I4
sg30
Nsg31
Nsg32
S'QF'
p1642
sg34
g1629
sg35
I00
sba(issf_api
Word
p1643
(dp1644
g6
I00
sg7
V\u0938\u0941\u0930\u0915\u094d\u0937\u093e
p1645
sg9
(issf_api
FeatureSet
p1646
(dp1647
g12
(dp1648
S'posn'
p1649
S'100'
p1650
sS'name'
p1651
S'\xe0\xa4\xb8\xe0\xa5\x81\xe0\xa4\xb0\xe0\xa4\x95\xe0\xa5\x8d\xe0\xa4\xb7\xe0\xa4\xbe'
p1652
sS'drel'
p1653
S'pof__cn:NP4'
p1654
sS'chunktype'
p1655
S'child:NP4'
p1656
sS'af'
p1657
S'\xe0\xa4\xb8\xe0\xa5\x81\xe0\xa4\xb0\xe0\xa4\x95\xe0\xa5\x8d\xe0\xa4\xb7\xe0\xa4\xbe,n,f,sg,3,d,0,0'
p1658
ssbsg24
I00
sg25
I00
sg26
Nsg27
Nsg28
I3
sg29
I4
sg30
Nsg31
Nsg32
S'NNC'
p1659
sg34
g1646
sg35
I00
sba(issf_api
Word
p1660
(dp1661
g6
I00
sg7
V\u0909\u092a\u093e\u092f\u094b\u0902
p1662
sg9
(issf_api
FeatureSet
p1663
(dp1664
g12
(dp1665
S'posn'
p1666
S'110'
p1667
sS'name'
p1668
S'\xe0\xa4\x89\xe0\xa4\xaa\xe0\xa4\xbe\xe0\xa4\xaf\xe0\xa5\x8b\xe0\xa4\x82'
p1669
sS'af'
p1670
S'\xe0\xa4\x89\xe0\xa4\xaa\xe0\xa4\xbe\xe0\xa4\xaf,n,m,pl,3,o,0_\xe0\xa4\x95\xe0\xa5\x8b,0'
p1671
sS'chunkid'
p1672
S'NP4'
p1673
sS'drel'
p1674
S'k2:VGNN'
p1675
sS'vpos'
p1676
S'vib_4'
p1677
sS'chunktype'
p1678
S'head:NP4'
p1679
ssbsg24
I00
sg25
I00
sg26
Nsg27
Nsg28
I3
sg29
I4
sg30
Nsg31
Nsg32
S'NN'
p1680
sg34
g1663
sg35
I00
sba(issf_api
Word
p1681
(dp1682
g6
I00
sg7
V\u0915\u094b
p1683
sg9
(issf_api
FeatureSet
p1684
(dp1685
g12
(dp1686
S'posn'
p1687
S'120'
p1688
sS'name'
p1689
S'\xe0\xa4\x95\xe0\xa5\x8b'
p1690
sS'drel'
p1691
S'lwg__psp:NP4'
p1692
sS'chunktype'
p1693
S'child:NP4'
p1694
sS'af'
p1695
S'\xe0\xa4\x95\xe0\xa5\x8b,psp,,,,,,'
p1696
ssbsg24
I00
sg25
I00
sg26
Nsg27
Nsg28
I3
sg29
I4
sg30
Nsg31
Nsg32
S'PSP'
p1697
sg34
g1684
sg35
I00
sba(issf_api
Word
p1698
(dp1699
g6
I00
sg7
V\u092c\u0902\u0926
p1700
sg9
(issf_api
FeatureSet
p1701
(dp1702
g12
(dp1703
S'posn'
p1704
S'130'
p1705
sS'name'
p1706
S'\xe0\xa4\xac\xe0\xa4\x82\xe0\xa4\xa6'
p1707
sS'af'
p1708
S'\xe0\xa4\xac\xe0\xa4\x82\xe0\xa4\xa6,adj,any,any,,,,'
p1709
sS'chunkid'
p1710
S'JJP'
p1711
sS'drel'
p1712
S'pof:VGNN'
p1713
sS'chunktype'
p1714
S'head:JJP'
p1715
ssbsg24
I00
sg25
I00
sg26
Nsg27
Nsg28
I4
sg29
I4
sg30
Nsg31
Nsg32
S'JJ'
p1716
sg34
g1701
sg35
I00
sba(issf_api
Word
p1717
(dp1718
g6
I00
sg7
V\u0915\u0930\u0928\u0947
p1719
sg9
(issf_api
FeatureSet
p1720
(dp1721
g12
(dp1722
S'posn'
p1723
S'140'
p1724
sS'name'
p1725
S'\xe0\xa4\x95\xe0\xa4\xb0\xe0\xa4\xa8\xe0\xa5\x87'
p1726
sS'af'
p1727
S'\xe0\xa4\x95\xe0\xa4\xb0,v,any,any,any,o,\xe0\xa4\xa8\xe0\xa4\xbe_\xe0\xa4\xae\xe0\xa5\x87\xe0\xa4\x82,nA'
p1728
sS'chunkid'
p1729
S'VGNN'
p1730
sS'drel'
p1731
S'k7:VGF'
p1732
sS'vpos'
p1733
S'tam_2'
p1734
sS'chunktype'
p1735
S'head:VGNN'
p1736
ssbsg24
I00
sg25
I00
sg26
Nsg27
Nsg28
I5
sg29
I4
sg30
Nsg31
Nsg32
S'VM'
p1737
sg34
g1720
sg35
I00
sba(issf_api
Word
p1738
(dp1739
g6
I00
sg7
V\u092e\u0947\u0902
p1740
sg9
(issf_api
FeatureSet
p1741
(dp1742
g12
(dp1743
S'posn'
p1744
S'150'
p1745
sS'name'
p1746
S'\xe0\xa4\xae\xe0\xa5\x87\xe0\xa4\x82'
p1747
sS'drel'
p1748
S'lwg__psp:VGNN'
p1749
sS'chunktype'
p1750
S'child:VGNN'
p1751
sS'af'
p1752
S'\xe0\xa4\xae\xe0\xa5\x87\xe0\xa4\x82,psp,,,,,,'
p1753
ssbsg24
I00
sg25
I00
sg26
Nsg27
Nsg28
I5
sg29
I4
sg30
Nsg31
Nsg32
S'PSP'
p1754
sg34
g1741
sg35
I00
sba(issf_api
Word
p1755
(dp1756
g6
I00
sg7
V\u0938\u0915\u094d\u0937\u092e
p1757
sg9
(issf_api
FeatureSet
p1758
(dp1759
g12
(dp1760
S'posn'
p1761
S'160'
p1762
sS'name'
p1763
S'\xe0\xa4\xb8\xe0\xa4\x95\xe0\xa5\x8d\xe0\xa4\xb7\xe0\xa4\xae'
p1764
sS'af'
p1765
S'\xe0\xa4\xb8\xe0\xa4\x95\xe0\xa5\x8d\xe0\xa4\xb7\xe0\xa4\xae,adj,any,any,,,,'
p1766
sS'chunkid'
p1767
S'JJP2'
p1768
sS'drel'
p1769
S'k1s:VGF'
p1770
sS'chunktype'
p1771
S'head:JJP2'
p1772
ssbsg24
I00
sg25
I00
sg26
Nsg27
Nsg28
I6
sg29
I4
sg30
Nsg31
Nsg32
S'JJ'
p1773
sg34
g1758
sg35
I00
sba(issf_api
Word
p1774
(dp1775
g6
I00
sg7
V\u0939\u0948
p1776
sg9
(issf_api
FeatureSet
p1777
(dp1778
g12
(dp1779
S'posn'
p1780
S'170'
p1781
sS'name'
p1782
S'\xe0\xa4\xb9\xe0\xa5\x88'
p1783
sS'af'
p1784
S'\xe0\xa4\xb9\xe0\xa5\x88,v,any,sg,3,,\xe0\xa4\xb9\xe0\xa5\x88,hE'
p1785
sS'chunkid'
p1786
S'VGF'
p1787
sS'chunktype'
p1788
S'head:VGF'
p1789
sS'voicetype'
p1790
S'active'
p1791
sS'stype'
p1792
S'declarative'
p1793
ssbsg24
I00
sg25
I00
sg26
Nsg27
Nsg28
I7
sg29
I4
sg30
Nsg31
Nsg32
S'VM'
p1794
sg34
g1777
sg35
I00
sba(issf_api
Word
p1795
(dp1796
g6
I00
sg7
V\u0964
p1797
sg9
(issf_api
FeatureSet
p1798
(dp1799
g12
(dp1800
S'posn'
p1801
S'180'
p1802
sS'name'
p1803
S'\xe0\xa5\xa4'
p1804
sS'af'
p1805
S'\xe0\xa5\xa4,punc,,,,,,'
p1806
sS'chunkid'
p1807
S'BLK'
p1808
sS'drel'
p1809
S'rsym:VGF'
p1810
sS'chunktype'
p1811
S'head:BLK'
p1812
ssbsg24
I00
sg25
I00
sg26
Nsg27
Nsg28
I8
sg29
I4
sg30
Nsg31
Nsg32
S'SYM'
p1813
sg34
g1798
sg35
I00
sba(issf_api
Word
p1814
(dp1815
g6
I00
sg7
V\u090f\u0902\u091f\u0940
p1816
sg9
(issf_api
FeatureSet
p1817
(dp1818
g12
(dp1819
S'posn'
p1820
S'10'
p1821
sS'name'
p1822
S'\xe0\xa4\x8f\xe0\xa4\x82\xe0\xa4\x9f\xe0\xa5\x80'
p1823
sS'af'
p1824
S'\xe0\xa4\x8f\xe0\xa4\x82\xe0\xa4\x9f\xe0\xa5\x80,adj,any,any,,d,,'
p1825
sS'drel'
p1826
S'nmod__adj:NP'
p1827
sS'chunktype'
p1828
S'child:NP'
p1829
sS'cref'
p1830
S'i14%0:t4'
p1831
ssbsg24
I00
sg25
I00
sg26
Nsg27
Nsg28
I0
sg29
I5
sg30
Nsg31
Nsg32
S'JJ'
p1832
sg34
g1817
sg35
I00
sba(issf_api
Word
p1833
(dp1834
g6
I00
sg7
V\u0935\u093e\u092f\u0930\u0938
p1835
sg9
(issf_api
FeatureSet
p1836
(dp1837
g12
(dp1838
S'crefhead'
p1839
S'\xe0\xa4\xb5\xe0\xa4\xbe\xe0\xa4\xaf\xe0\xa4\xb0\xe0\xa4\xb8:i14'
p1840
sS'posn'
p1841
S'20'
p1842
sS'name'
p1843
S'\xe0\xa4\xb5\xe0\xa4\xbe\xe0\xa4\xaf\xe0\xa4\xb0\xe0\xa4\xb8'
p1844
sS'af'
p1845
S'\xe0\xa4\xb5\xe0\xa4\xbe\xe0\xa4\xaf\xe0\xa4\xb0\xe0\xa4\xb8,n,m,sg,3,d,0,0'
p1846
sS'chunkid'
p1847
S'NP'
p1848
sS'creftype'
p1849
S'Coreference-RPartOf:i12'
p1850
sS'chunktype'
p1851
S'head:NP'
p1852
sS'crefchainhead'
p1853
S'i14:t4'
p1854
sS'cref'
p1855
S'i14%1:t4'
p1856
sS'drel'
p1857
S'k2:VGNN'
p1858
ssbsg24
I00
sg25
I00
sg26
Nsg27
Nsg28
I0
sg29
I5
sg30
Nsg31
Nsg32
S'NN'
p1859
sg34
g1836
sg35
I00
sba(issf_api
Word
p1860
(dp1861
g6
I00
sg7
V\u092c\u0928\u093e\u0928\u0947
p1862
sg9
(issf_api
FeatureSet
p1863
(dp1864
g12
(dp1865
S'posn'
p1866
S'30'
p1867
sS'name'
p1868
S'\xe0\xa4\xac\xe0\xa4\xa8\xe0\xa4\xbe\xe0\xa4\xa8\xe0\xa5\x87'
p1869
sS'af'
p1870
S'\xe0\xa4\xac\xe0\xa4\xa8\xe0\xa4\xbe,v,m,any,any,o,\xe0\xa4\xa8\xe0\xa4\xbe_\xe0\xa4\xb5\xe0\xa4\xbe\xe0\xa4\xb2\xe0\xa4\xbe_\xe0\xa4\xa6\xe0\xa5\x8d\xe0\xa4\xb5\xe0\xa4\xbe\xe0\xa4\xb0\xe0\xa4\xbe,nA'
p1871
sS'chunkid'
p1872
S'VGNN'
p1873
sS'drel'
p1874
S'k1:VGNN2'
p1875
sS'vpos'
p1876
S'tam_2_3'
p1877
sS'chunktype'
p1878
S'head:VGNN'
p1879
ssbsg24
I00
sg25
I00
sg26
Nsg27
Nsg28
I1
sg29
I5
sg30
Nsg31
Nsg32
S'VM'
p1880
sg34
g1863
sg35
I00
sba(issf_api
Word
p1881
(dp1882
g6
I00
sg7
V\u0935\u093e\u0932\u094b\u0902
p1883
sg9
(issf_api
FeatureSet
p1884
(dp1885
g12
(dp1886
S'posn'
p1887
S'40'
p1888
sS'name'
p1889
S'\xe0\xa4\xb5\xe0\xa4\xbe\xe0\xa4\xb2\xe0\xa5\x8b\xe0\xa4\x82'
p1890
sS'drel'
p1891
S'lwg__psp:VGNN'
p1892
sS'chunktype'
p1893
S'child:VGNN'
p1894
sS'af'
p1895
S'\xe0\xa4\xb5\xe0\xa4\xbe\xe0\xa4\xb2\xe0\xa4\xbe,psp,m,pl,,o,,'
p1896
ssbsg24
I00
sg25
I00
sg26
Nsg27
Nsg28
I1
sg29
I5
sg30
Nsg31
Nsg32
S'PSP'
p1897
sg34
g1884
sg35
I00
sba(issf_api
Word
p1898
(dp1899
g6
I00
sg7
V\u0926\u094d\u0935\u093e\u0930\u093e
p1900
sg9
(issf_api
FeatureSet
p1901
(dp1902
g12
(dp1903
S'posn'
p1904
S'50'
p1905
sS'name'
p1906
S'\xe0\xa4\xa6\xe0\xa5\x8d\xe0\xa4\xb5\xe0\xa4\xbe\xe0\xa4\xb0\xe0\xa4\xbe'
p1907
sS'drel'
p1908
S'lwg__psp:VGNN'
p1909
sS'chunktype'
p1910
S'child:VGNN'
p1911
sS'af'
p1912
S'\xe0\xa4\xa6\xe0\xa5\x8d\xe0\xa4\xb5\xe0\xa4\xbe\xe0\xa4\xb0\xe0\xa4\xbe,psp,,,,,,'
p1913
ssbsg24
I00
sg25
I00
sg26
Nsg27
Nsg28
I1
sg29
I5
sg30
Nsg31
Nsg32
S'PSP'
p1914
sg34
g1901
sg35
I00
sba(issf_api
Word
p1915
(dp1916
g6
I00
sg7
V\u092c\u0948\u0917\u0932
p1917
sg9
(issf_api
FeatureSet
p1918
(dp1919
g12
(dp1920
S'crefhead'
p1921
S'\xe0\xa4\xac\xe0\xa5\x88\xe0\xa4\x97\xe0\xa4\xb2:i15'
p1922
sS'posn'
p1923
S'60'
p1924
sS'name'
p1925
S'\xe0\xa4\xac\xe0\xa5\x88\xe0\xa4\x97\xe0\xa4\xb2'
p1926
sS'af'
p1927
S'\xe0\xa4\xac\xe0\xa5\x88\xe0\xa4\x97\xe0\xa4\xb2,n,m,sg,3,d,0,0'
p1928
sS'creftype'
p1929
S'Coreference-Noun-Noun:i11'
p1930
sS'drel'
p1931
S'pof__cn:NP2'
p1932
sS'chunktype'
p1933
S'child:NP2'
p1934
sS'cref'
p1935
S'i15%1:t2'
p1936
ssbsg24
I00
sg25
I00
sg26
Nsg27
Nsg28
I2
sg29
I5
sg30
Nsg31
Nsg32
S'NNPC'
p1937
sg34
g1918
sg35
I00
sba(issf_api
Word
p1938
(dp1939
g6
I00
sg7
V,
p1940
sg9
(issf_api
FeatureSet
p1941
(dp1942
g12
(dp1943
S'posn'
p1944
S'70'
p1945
sS'name'
p1946
g694
sS'drel'
p1947
S'rsym:NP2'
p1948
sS'chunktype'
p1949
S'child:NP2'
p1950
sS'af'
p1951
S'COMMA,punc,,,,,,'
p1952
ssbsg24
I00
sg25
I00
sg26
Nsg27
Nsg28
I2
sg29
I5
sg30
Nsg31
Nsg32
S'SYM'
p1953
sg34
g1941
sg35
I00
sba(issf_api
Word
p1954
(dp1955
g6
I00
sg7
V\u090f\u0906\u0908
p1956
sg9
(issf_api
FeatureSet
p1957
(dp1958
g12
(dp1959
S'crefhead'
p1960
S'\xe0\xa4\x8f\xe0\xa4\x86\xe0\xa4\x88:i16'
p1961
sS'posn'
p1962
S'80'
p1963
sS'name'
p1964
S'\xe0\xa4\x8f\xe0\xa4\x86\xe0\xa4\x88'
p1965
sS'af'
p1966
S'\xe0\xa4\x8f\xe0\xa4\x86\xe0\xa4\x88,n,m,sg,3,d,0,0'
p1967
sS'chunkid'
p1968
S'NP2'
p1969
sS'creftype'
p1970
S'Coreference-Noun-Noun:i15'
p1971
sS'chunktype'
p1972
S'head:NP2'
p1973
sS'cref'
p1974
S'i16%1:t2'
p1975
sS'drel'
p1976
S'k2:VGNN2'
p1977
ssbsg24
I00
sg25
I00
sg26
Nsg27
Nsg28
I2
sg29
I5
sg30
Nsg31
Nsg32
S'NNP'
p1978
sg34
g1957
sg35
I00
sba(issf_api
Word
p1979
(dp1980
g6
I00
sg7
V\u0915\u0939\u093e
p1981
sg9
(issf_api
FeatureSet
p1982
(dp1983
g12
(dp1984
S'posn'
p1985
S'90'
p1986
sS'name'
p1987
S'\xe0\xa4\x95\xe0\xa4\xb9\xe0\xa4\xbe'
p1988
sS'af'
p1989
S'\xe0\xa4\x95\xe0\xa4\xb9,v,any,sg,3,,\xe0\xa4\xaf\xe0\xa4\xbe_\xe0\xa4\x9c\xe0\xa4\xbe+\xe0\xa4\xa8\xe0\xa4\xbe_\xe0\xa4\xb5\xe0\xa4\xbe\xe0\xa4\xb2\xe0\xa4\xbe,yA'
p1990
sS'chunkid'
p1991
S'VGNN2'
p1992
sS'drel'
p1993
S'nmod:NP3'
p1994
sS'vpos'
p1995
S'tam_2_3'
p1996
sS'chunktype'
p1997
S'head:VGNN2'
p1998
ssbsg24
I00
sg25
I00
sg26
Nsg27
Nsg28
I3
sg29
I5
sg30
Nsg31
Nsg32
S'VM'
p1999
sg34
g1982
sg35
I00
sba(issf_api
Word
p2000
(dp2001
g6
I00
sg7
V\u091c\u093e\u0928\u0947
p2002
sg9
(issf_api
FeatureSet
p2003
(dp2004
g12
(dp2005
S'posn'
p2006
S'100'
p2007
sS'name'
p2008
S'\xe0\xa4\x9c\xe0\xa4\xbe\xe0\xa4\xa8\xe0\xa5\x87'
p2009
sS'drel'
p2010
S'lwg__vaux:VGNN2'
p2011
sS'chunktype'
p2012
S'child:VGNN2'
p2013
sS'af'
p2014
S'\xe0\xa4\x9c\xe0\xa4\xbe,v,any,any,any,o,\xe0\xa4\xa8\xe0\xa4\xbe,nA'
p2015
ssbsg24
I00
sg25
I00
sg26
Nsg27
Nsg28
I3
sg29
I5
sg30
Nsg31
Nsg32
S'VAUX'
p2016
sg34
g2003
sg35
I00
sba(issf_api
Word
p2017
(dp2018
g6
I00
sg7
V\u0935\u093e\u0932\u093e
p2019
sg9
(issf_api
FeatureSet
p2020
(dp2021
g12
(dp2022
S'posn'
p2023
S'110'
p2024
sS'name'
p2025
S'\xe0\xa4\xb5\xe0\xa4\xbe\xe0\xa4\xb2\xe0\xa4\xbe'
p2026
sS'drel'
p2027
S'lwg__psp:VGNN2'
p2028
sS'chunktype'
p2029
S'child:VGNN2'
p2030
sS'af'
p2031
S'\xe0\xa4\xb5\xe0\xa4\xbe\xe0\xa4\xb2\xe0\xa4\xbe,psp,m,sg,,d,,'
p2032
ssbsg24
I00
sg25
I00
sg26
Nsg27
Nsg28
I3
sg29
I5
sg30
Nsg31
Nsg32
S'PSP'
p2033
sg34
g2020
sg35
I00
sba(issf_api
Word
p2034
(dp2035
g6
I00
sg7
V\u092f\u0939
p2036
sg9
(issf_api
FeatureSet
p2037
(dp2038
g12
(dp2039
S'posn'
p2040
S'120'
p2041
sS'name'
p2042
S'\xe0\xa4\xaf\xe0\xa4\xb9'
p2043
sS'af'
p2044
S'\xe0\xa4\xaf\xe0\xa4\xb9,pn,any,sg,3,d,,'
p2045
sS'drel'
p2046
S'nmod__adj:NP3'
p2047
sS'chunktype'
p2048
S'child:NP3'
p2049
sS'cref'
p2050
S'i17%0:t2'
p2051
ssbsg24
I00
sg25
I00
sg26
Nsg27
Nsg28
I4
sg29
I5
sg30
Nsg31
Nsg32
S'DEM'
p2052
sg34
g2037
sg35
I00
sba(issf_api
Word
p2053
(dp2054
g6
I00
sg7
V\u0935\u093e\u092f\u0930\u0938
p2055
sg9
(issf_api
FeatureSet
p2056
(dp2057
g12
(dp2058
S'crefhead'
p2059
S'\xe0\xa4\xb5\xe0\xa4\xbe\xe0\xa4\xaf\xe0\xa4\xb0\xe0\xa4\xb8:i17'
p2060
sS'posn'
p2061
S'130'
p2062
sS'name'
p2063
S'\xe0\xa4\xb5\xe0\xa4\xbe\xe0\xa4\xaf\xe0\xa4\xb0\xe0\xa4\xb82'
p2064
sS'af'
p2065
S'\xe0\xa4\xb5\xe0\xa4\xbe\xe0\xa4\xaf\xe0\xa4\xb0\xe0\xa4\xb8,n,m,sg,3,d,0,0'
p2066
sS'chunkid'
p2067
S'NP3'
p2068
sS'creftype'
p2069
S'Coreference-Noun-Noun:i16'
p2070
sS'chunktype'
p2071
S'head:NP3'
p2072
sS'cref'
p2073
S'i17%1:t2'
p2074
sS'drel'
p2075
S'k1:VGF'
p2076
ssbsg24
I00
sg25
I00
sg26
Nsg27
Nsg28
I4
sg29
I5
sg30
Nsg31
Nsg32
S'NN'
p2077
sg34
g2056
sg35
I00
sba(issf_api
Word
p2078
(dp2079
g6
I00
sg7
V\u0924\u092c
p2080
sg9
(issf_api
FeatureSet
p2081
(dp2082
g12
(dp2083
S'crefhead'
p2084
S'\xe0\xa4\xa4\xe0\xa4\xac:i18'
p2085
sS'posn'
p2086
S'140'
p2087
sS'name'
p2088
S'\xe0\xa4\xa4\xe0\xa4\xac'
p2089
sS'af'
p2090
S'\xe0\xa4\xa4\xe0\xa4\xac,pn,,,,o,0_\xe0\xa4\xa4\xe0\xa4\x95,'
p2091
sS'chunkid'
p2092
S'NP4'
p2093
sS'creftype'
p2094
S'anaphora-?:i18'
p2095
sS'chunktype'
p2096
S'head:NP4'
p2097
sS'crefchainhead'
p2098
S'i18:t5'
p2099
sS'vpos'
p2100
S'vib_2'
p2101
sS'cref'
p2102
S'i18%1:t5'
p2103
sS'drel'
p2104
S'k7t:VGF'
p2105
ssbsg24
I00
sg25
I00
sg26
Nsg27
Nsg28
I5
sg29
I5
sg30
Nsg31
Nsg32
S'PRP'
p2106
sg34
g2081
sg35
I00
sba(issf_api
Word
p2107
(dp2108
g6
I00
sg7
V\u0924\u0915
p2109
sg9
(issf_api
FeatureSet
p2110
(dp2111
g12
(dp2112
S'posn'
p2113
S'150'
p2114
sS'name'
p2115
S'\xe0\xa4\xa4\xe0\xa4\x95'
p2116
sS'drel'
p2117
S'lwg__psp:NP4'
p2118
sS'chunktype'
p2119
S'child:NP4'
p2120
sS'af'
p2121
S'\xe0\xa4\xa4\xe0\xa4\x95,psp,,,,,,'
p2122
ssbsg24
I00
sg25
I00
sg26
Nsg27
Nsg28
I5
sg29
I5
sg30
Nsg31
Nsg32
S'PSP'
p2123
sg34
g2110
sg35
I00
sba(issf_api
Word
p2124
(dp2125
g6
I00
sg7
V\u0906\u092a\u0915\u0947
p2126
sg9
(issf_api
FeatureSet
p2127
(dp2128
g12
(dp2129
S'crefhead'
p2130
S'\xe0\xa4\x86\xe0\xa4\xaa\xe0\xa4\x95\xe0\xa5\x87:i19'
p2131
sS'posn'
p2132
S'160'
p2133
sS'name'
p2134
S'\xe0\xa4\x86\xe0\xa4\xaa\xe0\xa4\x95\xe0\xa5\x87'
p2135
sS'af'
p2136
S'\xe0\xa4\x86\xe0\xa4\xaa,pn,any,sg,2h,o,\xe0\xa4\x95\xe0\xa4\xbe,kA'
p2137
sS'acrefmodhead'
p2138
S'\xe0\xa4\x86\xe0\xa4\xaa\xe0\xa4\x95\xe0\xa5\x87:m2'
p2139
sS'chunkid'
p2140
S'NP5'
p2141
sS'acrefmod'
p2142
S'm2%1:i20'
p2143
sS'creftype'
p2144
S'anaphora-?:i19'
p2145
sS'chunktype'
p2146
S'head:NP5'
p2147
sS'crefchainhead'
p2148
S'i19:t6'
p2149
sS'cref'
p2150
S'i19%1:t6'
p2151
sS'drel'
p2152
S'r6:NP6'
p2153
ssbsg24
I00
sg25
I00
sg26
Nsg27
Nsg28
I6
sg29
I5
sg30
Nsg31
Nsg32
S'PRP'
p2154
sg34
g2127
sg35
I00
sba(issf_api
Word
p2155
(dp2156
g6
I00
sg7
V\u0915\u0902\u092a\u094d\u092f\u0942\u091f\u0930
p2157
sg9
(issf_api
FeatureSet
p2158
(dp2159
g12
(dp2160
S'crefhead'
p2161
S'\xe0\xa4\x95\xe0\xa4\x82\xe0\xa4\xaa\xe0\xa5\x8d\xe0\xa4\xaf\xe0\xa5\x82\xe0\xa4\x9f\xe0\xa4\xb0:i20'
p2162
sS'posn'
p2163
S'170'
p2164
sS'name'
p2165
S'\xe0\xa4\x95\xe0\xa4\x82\xe0\xa4\xaa\xe0\xa5\x8d\xe0\xa4\xaf\xe0\xa5\x82\xe0\xa4\x9f\xe0\xa4\xb0'
p2166
sS'af'
p2167
S'\xe0\xa4\x95\xe0\xa4\x82\xe0\xa4\xaa\xe0\xa5\x8d\xe0\xa4\xaf\xe0\xa5\x82\xe0\xa4\x9f\xe0\xa4\xb0,n,m,sg,3,o,0_\xe0\xa4\x95\xe0\xa5\x8b,0'
p2168
sS'chunkid'
p2169
S'NP6'
p2170
sS'crefmod'
p2171
S'm2:i20'
p2172
sS'creftype'
p2173
S'Coreference-PartOf:i13'
p2174
sS'chunktype'
p2175
S'head:NP6'
p2176
sS'vpos'
p2177
S'vib_2'
p2178
sS'cref'
p2179
S'i20%1:t1'
p2180
sS'drel'
p2181
S'k2:VGF'
p2182
ssbsg24
I00
sg25
I00
sg26
Nsg27
Nsg28
I7
sg29
I5
sg30
Nsg31
Nsg32
S'NN'
p2183
sg34
g2158
sg35
I00
sba(issf_api
Word
p2184
(dp2185
g6
I00
sg7
V\u0915\u094b
p2186
sg9
(issf_api
FeatureSet
p2187
(dp2188
g12
(dp2189
S'posn'
p2190
S'180'
p2191
sS'name'
p2192
S'\xe0\xa4\x95\xe0\xa5\x8b'
p2193
sS'drel'
p2194
S'lwg__psp:NP6'
p2195
sS'chunktype'
p2196
S'child:NP6'
p2197
sS'af'
p2198
S'\xe0\xa4\x95\xe0\xa5\x8b,psp,,,,,,'
p2199
ssbsg24
I00
sg25
I00
sg26
Nsg27
Nsg28
I7
sg29
I5
sg30
Nsg31
Nsg32
S'PSP'
p2200
sg34
g2187
sg35
I00
sba(issf_api
Word
p2201
(dp2202
g6
I00
sg7
V\u0938\u0902\u0915\u094d\u0930\u092e\u093f\u0924
p2203
sg9
(issf_api
FeatureSet
p2204
(dp2205
g12
(dp2206
S'posn'
p2207
S'190'
p2208
sS'name'
p2209
S'\xe0\xa4\xb8\xe0\xa4\x82\xe0\xa4\x95\xe0\xa5\x8d\xe0\xa4\xb0\xe0\xa4\xae\xe0\xa4\xbf\xe0\xa4\xa4'
p2210
sS'af'
p2211
S'\xe0\xa4\xb8\xe0\xa4\x82\xe0\xa4\x95\xe0\xa5\x8d\xe0\xa4\xb0\xe0\xa4\xae\xe0\xa4\xbf\xe0\xa4\xa4,adj,any,any,,,,'
p2212
sS'chunkid'
p2213
S'JJP'
p2214
sS'drel'
p2215
S'pof:VGF'
p2216
sS'chunktype'
p2217
S'head:JJP'
p2218
ssbsg24
I00
sg25
I00
sg26
Nsg27
Nsg28
I8
sg29
I5
sg30
Nsg31
Nsg32
S'JJ'
p2219
sg34
g2204
sg35
I00
sba(issf_api
Word
p2220
(dp2221
g6
I00
sg7
V\u0928\u0939\u0940\u0902
p2222
sg9
(issf_api
FeatureSet
p2223
(dp2224
g12
(dp2225
S'posn'
p2226
S'200'
p2227
sS'name'
p2228
S'\xe0\xa4\xa8\xe0\xa4\xb9\xe0\xa5\x80\xe0\xa4\x82'
p2229
sS'drel'
p2230
S'lwg__neg:VGF'
p2231
sS'chunktype'
p2232
S'child:VGF'
p2233
sS'af'
p2234
S'\xe0\xa4\xa8\xe0\xa4\xb9\xe0\xa5\x80\xe0\xa4\x82,avy,,,,,,'
p2235
ssbsg24
I00
sg25
I00
sg26
Nsg27
Nsg28
I9
sg29
I5
sg30
Nsg31
Nsg32
S'NEG'
p2236
sg34
g2223
sg35
I00
sba(issf_api
Word
p2237
(dp2238
g6
I00
sg7
V\u0915\u0930\u0947\u0917\u093e
p2239
sg9
(issf_api
FeatureSet
p2240
(dp2241
g12
(dp2242
S'posn'
p2243
S'210'
p2244
sS'name'
p2245
S'\xe0\xa4\x95\xe0\xa4\xb0\xe0\xa5\x87\xe0\xa4\x97\xe0\xa4\xbe'
p2246
sS'af'
p2247
S'\xe0\xa4\x95\xe0\xa4\xb0,v,m,sg,3,,\xe0\xa4\x97\xe0\xa4\xbe,gA'
p2248
sS'chunkid'
p2249
S'VGF'
p2250
sS'chunktype'
p2251
S'head:VGF'
p2252
sS'voicetype'
p2253
S'active'
p2254
sS'stype'
p2255
S'declarative'
p2256
ssbsg24
I00
sg25
I00
sg26
Nsg27
Nsg28
I9
sg29
I5
sg30
Nsg31
Nsg32
S'VM'
p2257
sg34
g2240
sg35
I00
sba(issf_api
Word
p2258
(dp2259
g6
I00
sg7
V,
p2260
sg9
(issf_api
FeatureSet
p2261
(dp2262
g12
(dp2263
S'posn'
p2264
S'220'
p2265
sS'name'
p2266
S',2'
p2267
sS'drel'
p2268
S'rsym:VGF'
p2269
sS'chunktype'
p2270
S'child:VGF'
p2271
sS'af'
p2272
S'COMMA,punc,,,,,,'
p2273
ssbsg24
I00
sg25
I00
sg26
Nsg27
Nsg28
I9
sg29
I5
sg30
Nsg31
Nsg32
S'SYM'
p2274
sg34
g2261
sg35
I00
sba(issf_api
Word
p2275
(dp2276
g6
I00
sg7
V\u091c\u092c
p2277
sg9
(issf_api
FeatureSet
p2278
(dp2279
g12
(dp2280
S'crefhead'
p2281
S'\xe0\xa4\x9c\xe0\xa4\xac:i21'
p2282
sS'posn'
p2283
S'230'
p2284
sS'name'
p2285
S'\xe0\xa4\x9c\xe0\xa4\xac'
p2286
sS'af'
p2287
S'\xe0\xa4\x9c\xe0\xa4\xac,pn,,,,o,0_\xe0\xa4\xa4\xe0\xa4\x95,'
p2288
sS'coref'
p2289
S':NP4'
p2290
sS'chunkid'
p2291
S'NP7'
p2292
sS'creftype'
p2293
S'anaphora-?:i21'
p2294
sS'chunktype'
p2295
S'head:NP7'
p2296
sS'crefchainhead'
p2297
S'i21:t7'
p2298
sS'vpos'
p2299
S'vib_2_RP'
p2300
sS'cref'
p2301
S'i21%1:t7'
p2302
sS'drel'
p2303
S'k7t:VGF2'
p2304
ssbsg24
I00
sg25
I00
sg26
Nsg27
Nsg28
I10
sg29
I5
sg30
Nsg31
Nsg32
S'PRP'
p2305
sg34
g2278
sg35
I00
sba(issf_api
Word
p2306
(dp2307
g6
I00
sg7
V\u0924\u0915
p2308
sg9
(issf_api
FeatureSet
p2309
(dp2310
g12
(dp2311
S'posn'
p2312
S'240'
p2313
sS'name'
p2314
S'\xe0\xa4\xa4\xe0\xa4\x952'
p2315
sS'drel'
p2316
S'lwg__psp:NP7'
p2317
sS'chunktype'
p2318
S'child:NP7'
p2319
sS'af'
p2320
S'\xe0\xa4\xa4\xe0\xa4\x95,psp,,,,,,'
p2321
ssbsg24
I00
sg25
I00
sg26
Nsg27
Nsg28
I10
sg29
I5
sg30
Nsg31
Nsg32
S'PSP'
p2322
sg34
g2309
sg35
I00
sba(issf_api
Word
p2323
(dp2324
g6
I00
sg7
V\u0915\u093f
p2325
sg9
(issf_api
FeatureSet
p2326
(dp2327
g12
(dp2328
S'posn'
p2329
S'250'
p2330
sS'name'
p2331
S'\xe0\xa4\x95\xe0\xa4\xbf'
p2332
sS'drel'
p2333
S'lwg__rp:NP7'
p2334
sS'chunktype'
p2335
S'child:NP7'
p2336
sS'af'
p2337
S'\xe0\xa4\x95\xe0\xa4\xbf,avy,,,,,,'
p2338
ssbsg24
I00
sg25
I00
sg26
Nsg27
Nsg28
I10
sg29
I5
sg30
Nsg31
Nsg32
S'RP'
p2339
sg34
g2326
sg35
I00
sba(issf_api
Word
p2340
(dp2341
g6
I00
sg7
V\u0906\u092a
p2342
sg9
(issf_api
FeatureSet
p2343
(dp2344
g12
(dp2345
S'crefhead'
p2346
S'\xe0\xa4\x86\xe0\xa4\xaa:i22'
p2347
sS'posn'
p2348
S'260'
p2349
sS'name'
p2350
S'\xe0\xa4\x86\xe0\xa4\xaa'
p2351
sS'af'
p2352
S'\xe0\xa4\x86\xe0\xa4\xaa,pn,any,sg,2h,d,0,0'
p2353
sS'chunkid'
p2354
S'NP8'
p2355
sS'creftype'
p2356
S'Anaphora-C:i19'
p2357
sS'chunktype'
p2358
S'head:NP8'
p2359
sS'cref'
p2360
S'i22%1:t6'
p2361
sS'drel'
p2362
S'k1:VGF2'
p2363
ssbsg24
I00
sg25
I00
sg26
Nsg27
Nsg28
I11
sg29
I5
sg30
Nsg31
Nsg32
S'PRP'
p2364
sg34
g2343
sg35
I00
sba(issf_api
Word
p2365
(dp2366
g6
I00
sg7
V\u0905\u092a\u0928\u093e
p2367
sg9
(issf_api
FeatureSet
p2368
(dp2369
g12
(dp2370
S'crefhead'
p2371
S'\xe0\xa4\x85\xe0\xa4\xaa\xe0\xa4\xa8\xe0\xa4\xbe:i23'
p2372
sS'posn'
p2373
S'270'
p2374
sS'name'
p2375
S'\xe0\xa4\x85\xe0\xa4\xaa\xe0\xa4\xa8\xe0\xa4\xbe'
p2376
sS'af'
p2377
S'\xe0\xa4\x85\xe0\xa4\xaa\xe0\xa4\xa8\xe0\xa4\xbe,pn,m,sg,any,d,0,0'
p2378
sS'chunkid'
p2379
S'NP9'
p2380
sS'creftype'
p2381
S'Anaphora-C:i22'
p2382
sS'chunktype'
p2383
S'head:NP9'
p2384
sS'cref'
p2385
S'i23%1:t6'
p2386
sS'drel'
p2387
S'r6:NP10'
p2388
ssbsg24
I00
sg25
I00
sg26
Nsg27
Nsg28
I12
sg29
I5
sg30
Nsg31
Nsg32
S'PRP'
p2389
sg34
g2368
sg35
I00
sba(issf_api
Word
p2390
(dp2391
g6
I00
sg7
V\u0908
p2392
sg9
(issf_api
FeatureSet
p2393
(dp2394
g12
(dp2395
S'posn'
p2396
S'280'
p2397
sS'name'
p2398
S'\xe0\xa4\x88'
p2399
sS'af'
p2400
S'\xe0\xa4\x88,n,f,sg,3,d,0,0'
p2401
sS'drel'
p2402
S'pof__cn:NP10'
p2403
sS'chunktype'
p2404
S'child:NP10'
p2405
sS'cref'
p2406
S'i24%0:t8'
p2407
ssbsg24
I00
sg25
I00
sg26
Nsg27
Nsg28
I13
sg29
I5
sg30
Nsg31
Nsg32
S'NNC'
p2408
sg34
g2393
sg35
I00
sba(issf_api
Word
p2409
(dp2410
g6
I00
sg7
V-
p2411
sg9
(issf_api
FeatureSet
p2412
(dp2413
g12
(dp2414
S'posn'
p2415
S'290'
p2416
sS'name'
p2417
g868
sS'af'
p2418
S'-,punc,,,,,,'
p2419
sS'drel'
p2420
S'pof__cn:NP10'
p2421
sS'chunktype'
p2422
S'child:NP10'
p2423
sS'cref'
p2424
S'i24%0:t8'
p2425
ssbsg24
I00
sg25
I00
sg26
Nsg27
Nsg28
I13
sg29
I5
sg30
Nsg31
Nsg32
S'SYM'
p2426
sg34
g2412
sg35
I00
sba(issf_api
Word
p2427
(dp2428
g6
I00
sg7
V\u092e\u0947\u0932
p2429
sg9
(issf_api
FeatureSet
p2430
(dp2431
g12
(dp2432
S'posn'
p2433
S'300'
p2434
sS'name'
p2435
S'\xe0\xa4\xae\xe0\xa5\x87\xe0\xa4\xb2'
p2436
sS'af'
p2437
S'\xe0\xa4\xae\xe0\xa5\x87\xe0\xa4\xb2,n,f,sg,3,d,0,0'
p2438
sS'creftype'
p2439
S'Coreference-Identity:i9'
p2440
sS'drel'
p2441
S'pof__cn:NP10'
p2442
sS'chunktype'
p2443
S'child:NP10'
p2444
sS'cref'
p2445
S'i24%0:t8'
p2446
ssbsg24
I00
sg25
I00
sg26
Nsg27
Nsg28
I13
sg29
I5
sg30
Nsg31
Nsg32
S'NNC'
p2447
sg34
g2430
sg35
I00
sba(issf_api
Word
p2448
(dp2449
g6
I00
sg7
V\u0905\u091f\u0948\u091a\u092e\u0947\u0902\u091f
p2450
sg9
(issf_api
FeatureSet
p2451
(dp2452
g12
(dp2453
S'crefhead'
p2454
S'\xe0\xa4\x85\xe0\xa4\x9f\xe0\xa5\x88\xe0\xa4\x9a\xe0\xa4\xae\xe0\xa5\x87\xe0\xa4\x82\xe0\xa4\x9f:i24'
p2455
sS'posn'
p2456
S'310'
p2457
sS'name'
p2458
S'\xe0\xa4\x85\xe0\xa4\x9f\xe0\xa5\x88\xe0\xa4\x9a\xe0\xa4\xae\xe0\xa5\x87\xe0\xa4\x82\xe0\xa4\x9f'
p2459
sS'af'
p2460
S'\xe0\xa4\x85\xe0\xa4\x9f\xe0\xa5\x88\xe0\xa4\x9a\xe0\xa4\xae\xe0\xa5\x87\xe0\xa4\x82\xe0\xa4\x9f,n,m,sg,3,d,0,0'
p2461
sS'chunkid'
p2462
S'NP10'
p2463
sS'chunktype'
p2464
S'head:NP10'
p2465
sS'crefchainhead'
p2466
S'i24:t8'
p2467
sS'cref'
p2468
S'i24%1:t8'
p2469
sS'drel'
p2470
S'k2:VGF2'
p2471
ssbsg24
I00
sg25
I00
sg26
Nsg27
Nsg28
I13
sg29
I5
sg30
Nsg31
Nsg32
S'NN'
p2472
sg34
g2451
sg35
I00
sba(issf_api
Word
p2473
(dp2474
g6
I00
sg7
V\u0928\u0939\u0940\u0902
p2475
sg9
(issf_api
FeatureSet
p2476
(dp2477
g12
(dp2478
S'posn'
p2479
S'320'
p2480
sS'name'
p2481
S'\xe0\xa4\xa8\xe0\xa4\xb9\xe0\xa5\x80\xe0\xa4\x822'
p2482
sS'drel'
p2483
S'lwg__neg:VGF2'
p2484
sS'chunktype'
p2485
S'child:VGF2'
p2486
sS'af'
p2487
S'\xe0\xa4\xa8\xe0\xa4\xb9\xe0\xa5\x80\xe0\xa4\x82,avy,,,,,,'
p2488
ssbsg24
I00
sg25
I00
sg26
Nsg27
Nsg28
I14
sg29
I5
sg30
Nsg31
Nsg32
S'NEG'
p2489
sg34
g2476
sg35
I00
sba(issf_api
Word
p2490
(dp2491
g6
I00
sg7
V\u0916\u094b\u0932\u0924\u0947
p2492
sg9
(issf_api
FeatureSet
p2493
(dp2494
g12
(dp2495
S'posn'
p2496
S'330'
p2497
sS'name'
p2498
S'\xe0\xa4\x96\xe0\xa5\x8b\xe0\xa4\xb2\xe0\xa4\xa4\xe0\xa5\x87'
p2499
sS'af'
p2500
S'\xe0\xa4\x96\xe0\xa5\x8b\xe0\xa4\xb2,v,m,sg,2h,,\xe0\xa4\xa4\xe0\xa4\xbe_\xe0\xa4\xb9\xe0\xa5\x88,wA'
p2501
sS'chunkid'
p2502
S'VGF2'
p2503
sS'stype'
p2504
S'declarative'
p2505
sS'drel'
p2506
S'nmod__relc:NP4'
p2507
sS'voicetype'
p2508
S'active'
p2509
sS'vpos'
p2510
S'tam_3'
p2511
sS'chunktype'
p2512
S'head:VGF2'
p2513
ssbsg24
I00
sg25
I00
sg26
Nsg27
Nsg28
I14
sg29
I5
sg30
Nsg31
Nsg32
S'VM'
p2514
sg34
g2493
sg35
I00
sba(issf_api
Word
p2515
(dp2516
g6
I00
sg7
V\u0939\u0948\u0902
p2517
sg9
(issf_api
FeatureSet
p2518
(dp2519
g12
(dp2520
S'posn'
p2521
S'340'
p2522
sS'name'
p2523
S'\xe0\xa4\xb9\xe0\xa5\x88\xe0\xa4\x82'
p2524
sS'drel'
p2525
S'lwg__vaux:VGF2'
p2526
sS'chunktype'
p2527
S'child:VGF2'
p2528
sS'af'
p2529
S'\xe0\xa4\xb9\xe0\xa5\x88,v,any,sg,2h,,\xe0\xa4\xb9\xe0\xa5\x88,hE'
p2530
ssbsg24
I00
sg25
I00
sg26
Nsg27
Nsg28
I14
sg29
I5
sg30
Nsg31
Nsg32
S'VAUX'
p2531
sg34
g2518
sg35
I00
sba(issf_api
Word
p2532
(dp2533
g6
I00
sg7
V\u0964
p2534
sg9
(issf_api
FeatureSet
p2535
(dp2536
g12
(dp2537
S'posn'
p2538
S'350'
p2539
sS'name'
p2540
S'\xe0\xa5\xa4'
p2541
sS'af'
p2542
S'\xe0\xa5\xa4,punc,,,,,,'
p2543
sS'chunkid'
p2544
S'BLK'
p2545
sS'drel'
p2546
S'rsym:VGF'
p2547
sS'chunktype'
p2548
S'head:BLK'
p2549
ssbsg24
I00
sg25
I00
sg26
Nsg27
Nsg28
I15
sg29
I5
sg30
Nsg31
Nsg32
S'SYM'
p2550
sg34
g2535
sg35
I00
sba(issf_api
Word
p2551
(dp2552
g6
I00
sg7
V\u0932\u094b\u0917\u094b\u0902
p2553
sg9
(issf_api
FeatureSet
p2554
(dp2555
g12
(dp2556
S'crefhead'
p2557
S'\xe0\xa4\xb2\xe0\xa5\x8b\xe0\xa4\x97\xe0\xa5\x8b\xe0\xa4\x82:i25'
p2558
sS'posn'
p2559
S'10'
p2560
sS'name'
p2561
S'\xe0\xa4\xb2\xe0\xa5\x8b\xe0\xa4\x97\xe0\xa5\x8b\xe0\xa4\x82'
p2562
sS'af'
p2563
S'\xe0\xa4\xb2\xe0\xa5\x8b\xe0\xa4\x97,n,m,pl,3,o,0_\xe0\xa4\x95\xe0\xa5\x8b,0'
p2564
sS'chunkid'
p2565
S'NP'
p2566
sS'chunktype'
p2567
S'head:NP'
p2568
sS'crefchainhead'
p2569
S'i25:t9'
p2570
sS'vpos'
p2571
S'vib_2'
p2572
sS'cref'
p2573
S'i25%1:t9'
p2574
sS'drel'
p2575
S'k1:VGNN'
p2576
ssbsg24
I00
sg25
I00
sg26
Nsg27
Nsg28
I0
sg29
I6
sg30
Nsg31
Nsg32
S'NN'
p2577
sg34
g2554
sg35
I00
sba(issf_api
Word
p2578
(dp2579
g6
I00
sg7
V\u0915\u094b
p2580
sg9
(issf_api
FeatureSet
p2581
(dp2582
g12
(dp2583
S'posn'
p2584
S'20'
p2585
sS'name'
p2586
S'\xe0\xa4\x95\xe0\xa5\x8b'
p2587
sS'drel'
p2588
S'lwg__psp:NP'
p2589
sS'chunktype'
p2590
S'child:NP'
p2591
sS'af'
p2592
S'\xe0\xa4\x95\xe0\xa5\x8b,psp,,,,,,'
p2593
ssbsg24
I00
sg25
I00
sg26
Nsg27
Nsg28
I0
sg29
I6
sg30
Nsg31
Nsg32
S'PSP'
p2594
sg34
g2581
sg35
I00
sba(issf_api
Word
p2595
(dp2596
g6
I00
sg7
V\u0927\u094b\u0916\u093e
p2597
sg9
(issf_api
FeatureSet
p2598
(dp2599
g12
(dp2600
S'posn'
p2601
S'30'
p2602
sS'name'
p2603
S'\xe0\xa4\xa7\xe0\xa5\x8b\xe0\xa4\x96\xe0\xa4\xbe'
p2604
sS'af'
p2605
S'\xe0\xa4\xa7\xe0\xa5\x8b\xe0\xa4\x96\xe0\xa4\xbe,n,m,sg,3,d,0,0'
p2606
sS'chunkid'
p2607
S'NP2'
p2608
sS'drel'
p2609
S'pof:VGNN'
p2610
sS'chunktype'
p2611
S'head:NP2'
p2612
ssbsg24
I00
sg25
I00
sg26
Nsg27
Nsg28
I1
sg29
I6
sg30
Nsg31
Nsg32
S'NN'
p2613
sg34
g2598
sg35
I00
sba(issf_api
Word
p2614
(dp2615
g6
I00
sg7
V\u0926\u0947\u0928\u0947
p2616
sg9
(issf_api
FeatureSet
p2617
(dp2618
g12
(dp2619
S'posn'
p2620
S'40'
p2621
sS'name'
p2622
S'\xe0\xa4\xa6\xe0\xa5\x87\xe0\xa4\xa8\xe0\xa5\x87'
p2623
sS'af'
p2624
S'\xe0\xa4\xa6\xe0\xa5\x87,v,any,any,any,o,\xe0\xa4\xa8\xe0\xa4\xbe_\xe0\xa4\x95\xe0\xa5\x87_\xe0\xa4\xb2\xe0\xa4\xbf\xe0\xa4\x8f,nA'
p2625
sS'chunkid'
p2626
S'VGNN'
p2627
sS'drel'
p2628
S'rt:VGF'
p2629
sS'vpos'
p2630
S'tam_2_3'
p2631
sS'chunktype'
p2632
S'head:VGNN'
p2633
ssbsg24
I00
sg25
I00
sg26
Nsg27
Nsg28
I2
sg29
I6
sg30
Nsg31
Nsg32
S'VM'
p2634
sg34
g2617
sg35
I00
sba(issf_api
Word
p2635
(dp2636
g6
I00
sg7
V\u0915\u0947
p2637
sg9
(issf_api
FeatureSet
p2638
(dp2639
g12
(dp2640
S'posn'
p2641
S'50'
p2642
sS'name'
p2643
S'\xe0\xa4\x95\xe0\xa5\x87'
p2644
sS'drel'
p2645
S'lwg__psp:VGNN'
p2646
sS'chunktype'
p2647
S'child:VGNN'
p2648
sS'af'
p2649
S'\xe0\xa4\x95\xe0\xa5\x87,psp,,,,,,'
p2650
ssbsg24
I00
sg25
I00
sg26
Nsg27
Nsg28
I2
sg29
I6
sg30
Nsg31
Nsg32
S'PSP'
p2651
sg34
g2638
sg35
I00
sba(issf_api
Word
p2652
(dp2653
g6
I00
sg7
V\u0932\u093f\u090f
p2654
sg9
(issf_api
FeatureSet
p2655
(dp2656
g12
(dp2657
S'posn'
p2658
S'60'
p2659
sS'name'
p2660
S'\xe0\xa4\xb2\xe0\xa4\xbf\xe0\xa4\x8f'
p2661
sS'drel'
p2662
S'lwg__psp:VGNN'
p2663
sS'chunktype'
p2664
S'child:VGNN'
p2665
sS'af'
p2666
S'\xe0\xa4\xb2\xe0\xa4\xbf\xe0\xa4\x8f,psp,,,,,,'
p2667
ssbsg24
I00
sg25
I00
sg26
Nsg27
Nsg28
I2
sg29
I6
sg30
Nsg31
Nsg32
S'PSP'
p2668
sg34
g2655
sg35
I00
sba(issf_api
Word
p2669
(dp2670
g6
I00
sg7
V\u0905\u091f\u0948\u091a\u092e\u0947\u0902\u091f
p2671
sg9
(issf_api
FeatureSet
p2672
(dp2673
g12
(dp2674
S'crefhead'
p2675
S'\xe0\xa4\x85\xe0\xa4\x9f\xe0\xa5\x88\xe0\xa4\x9a\xe0\xa4\xae\xe0\xa5\x87\xe0\xa4\x82\xe0\xa4\x9f:i26'
p2676
sS'posn'
p2677
S'70'
p2678
sS'name'
p2679
S'\xe0\xa4\x85\xe0\xa4\x9f\xe0\xa5\x88\xe0\xa4\x9a\xe0\xa4\xae\xe0\xa5\x87\xe0\xa4\x82\xe0\xa4\x9f'
p2680
sS'af'
p2681
S'\xe0\xa4\x85\xe0\xa4\x9f\xe0\xa5\x88\xe0\xa4\x9a\xe0\xa4\xae\xe0\xa5\x87\xe0\xa4\x82\xe0\xa4\x9f,n,m,sg,3,o,0_\xe0\xa4\x95\xe0\xa4\xbe,0'
p2682
sS'chunkid'
p2683
S'NP3'
p2684
sS'creftype'
p2685
S'Coreference-Identity:i24'
p2686
sS'chunktype'
p2687
S'head:NP3'
p2688
sS'vpos'
p2689
S'vib_2'
p2690
sS'cref'
p2691
S'i26%1:t8'
p2692
sS'drel'
p2693
S'r6:NP4'
p2694
ssbsg24
I00
sg25
I00
sg26
Nsg27
Nsg28
I3
sg29
I6
sg30
Nsg31
Nsg32
S'NN'
p2695
sg34
g2672
sg35
I00
sba(issf_api
Word
p2696
(dp2697
g6
I00
sg7
V\u0915\u093e
p2698
sg9
(issf_api
FeatureSet
p2699
(dp2700
g12
(dp2701
S'posn'
p2702
S'80'
p2703
sS'name'
p2704
S'\xe0\xa4\x95\xe0\xa4\xbe'
p2705
sS'drel'
p2706
S'lwg__psp:NP3'
p2707
sS'chunktype'
p2708
S'child:NP3'
p2709
sS'af'
p2710
S'\xe0\xa4\x95\xe0\xa4\xbe,psp,m,sg,,d,,'
p2711
ssbsg24
I00
sg25
I00
sg26
Nsg27
Nsg28
I3
sg29
I6
sg30
Nsg31
Nsg32
S'PSP'
p2712
sg34
g2699
sg35
I00
sba(issf_api
Word
p2713
(dp2714
g6
I00
sg7
V\u0928\u093e\u092e
p2715
sg9
(issf_api
FeatureSet
p2716
(dp2717
g12
(dp2718
S'posn'
p2719
S'90'
p2720
sS'name'
p2721
S'\xe0\xa4\xa8\xe0\xa4\xbe\xe0\xa4\xae'
p2722
sS'af'
p2723
S'\xe0\xa4\xa8\xe0\xa4\xbe\xe0\xa4\xae,n,m,sg,3,d,0,0'
p2724
sS'chunkid'
p2725
S'NP4'
p2726
sS'drel'
p2727
S'k1:VGF'
p2728
sS'chunktype'
p2729
S'head:NP4'
p2730
ssbsg24
I00
sg25
I00
sg26
Nsg27
Nsg28
I4
sg29
I6
sg30
Nsg31
Nsg32
S'NN'
p2731
sg34
g2716
sg35
I00
sba(issf_api
Word
p2732
(dp2733
g6
I00
sg7
V\u0907\u0938
p2734
sg9
(issf_api
FeatureSet
p2735
(dp2736
g12
(dp2737
S'posn'
p2738
S'100'
p2739
sS'name'
p2740
S'\xe0\xa4\x87\xe0\xa4\xb8'
p2741
sS'drel'
p2742
S'nmod__adj:NP5'
p2743
sS'chunktype'
p2744
S'child:NP5'
p2745
sS'af'
p2746
S'\xe0\xa4\xaf\xe0\xa4\xb9,pn,any,sg,3,o,,'
p2747
ssbsg24
I00
sg25
I00
sg26
Nsg27
Nsg28
I5
sg29
I6
sg30
Nsg31
Nsg32
S'DEM'
p2748
sg34
g2735
sg35
I00
sba(issf_api
Word
p2749
(dp2750
g6
I00
sg7
V\u0924\u0930\u0939
p2751
sg9
(issf_api
FeatureSet
p2752
(dp2753
g12
(dp2754
S'posn'
p2755
S'110'
p2756
sS'name'
p2757
S'\xe0\xa4\xa4\xe0\xa4\xb0\xe0\xa4\xb9'
p2758
sS'af'
p2759
S'\xe0\xa4\xa4\xe0\xa4\xb0\xe0\xa4\xb9,n,f,sg,3,o,0_\xe0\xa4\x95\xe0\xa4\xbe,0'
p2760
sS'chunkid'
p2761
S'NP5'
p2762
sS'drel'
p2763
S'k1s:VGF'
p2764
sS'vpos'
p2765
S'vib_3'
p2766
sS'chunktype'
p2767
S'head:NP5'
p2768
ssbsg24
I00
sg25
I00
sg26
Nsg27
Nsg28
I5
sg29
I6
sg30
Nsg31
Nsg32
S'NN'
p2769
sg34
g2752
sg35
I00
sba(issf_api
Word
p2770
(dp2771
g6
I00
sg7
V\u0915\u093e
p2772
sg9
(issf_api
FeatureSet
p2773
(dp2774
g12
(dp2775
S'posn'
p2776
S'120'
p2777
sS'name'
p2778
S'\xe0\xa4\x95\xe0\xa4\xbe2'
p2779
sS'drel'
p2780
S'lwg__psp:NP5'
p2781
sS'chunktype'
p2782
S'child:NP5'
p2783
sS'af'
p2784
S'\xe0\xa4\x95\xe0\xa4\xbe,psp,m,sg,,d,,'
p2785
ssbsg24
I00
sg25
I00
sg26
Nsg27
Nsg28
I5
sg29
I6
sg30
Nsg31
Nsg32
S'PSP'
p2786
sg34
g2773
sg35
I00
sba(issf_api
Word
p2787
(dp2788
g6
I00
sg7
V\u0930\u0916\u093e
p2789
sg9
(issf_api
FeatureSet
p2790
(dp2791
g12
(dp2792
S'posn'
p2793
S'130'
p2794
sS'name'
p2795
S'\xe0\xa4\xb0\xe0\xa4\x96\xe0\xa4\xbe'
p2796
sS'af'
p2797
S'\xe0\xa4\xb0\xe0\xa4\x96,v,m,sg,3,,\xe0\xa4\xaf\xe0\xa4\xbe_\xe0\xa4\x9c\xe0\xa4\xbe+\xe0\xa4\xa4\xe0\xa4\xbe_\xe0\xa4\xb9\xe0\xa5\x88,yA'
p2798
sS'chunkid'
p2799
S'VGF'
p2800
sS'chunktype'
p2801
S'head:VGF'
p2802
sS'voicetype'
p2803
S'active'
p2804
sS'vpos'
p2805
S'tam_2_3'
p2806
sS'stype'
p2807
S'declarative'
p2808
ssbsg24
I00
sg25
I00
sg26
Nsg27
Nsg28
I6
sg29
I6
sg30
Nsg31
Nsg32
S'VM'
p2809
sg34
g2790
sg35
I00
sba(issf_api
Word
p2810
(dp2811
g6
I00
sg7
V\u091c\u093e\u0924\u093e
p2812
sg9
(issf_api
FeatureSet
p2813
(dp2814
g12
(dp2815
S'posn'
p2816
S'140'
p2817
sS'name'
p2818
S'\xe0\xa4\x9c\xe0\xa4\xbe\xe0\xa4\xa4\xe0\xa4\xbe'
p2819
sS'drel'
p2820
S'lwg__vaux:VGF'
p2821
sS'chunktype'
p2822
S'child:VGF'
p2823
sS'af'
p2824
S'\xe0\xa4\x9c\xe0\xa4\xbe,v,m,sg,any,,\xe0\xa4\xa4\xe0\xa4\xbe,wA'
p2825
ssbsg24
I00
sg25
I00
sg26
Nsg27
Nsg28
I6
sg29
I6
sg30
Nsg31
Nsg32
S'VAUX'
p2826
sg34
g2813
sg35
I00
sba(issf_api
Word
p2827
(dp2828
g6
I00
sg7
V\u0939\u0948
p2829
sg9
(issf_api
FeatureSet
p2830
(dp2831
g12
(dp2832
S'posn'
p2833
S'150'
p2834
sS'name'
p2835
S'\xe0\xa4\xb9\xe0\xa5\x88'
p2836
sS'drel'
p2837
S'lwg__vaux:VGF'
p2838
sS'chunktype'
p2839
S'child:VGF'
p2840
sS'af'
p2841
S'\xe0\xa4\xb9\xe0\xa5\x88,v,any,sg,3,,\xe0\xa4\xb9\xe0\xa5\x88,hE'
p2842
ssbsg24
I00
sg25
I00
sg26
Nsg27
Nsg28
I6
sg29
I6
sg30
Nsg31
Nsg32
S'VAUX'
p2843
sg34
g2830
sg35
I00
sba(issf_api
Word
p2844
(dp2845
g6
I00
sg7
V\u0915\u093f
p2846
sg9
(issf_api
FeatureSet
p2847
(dp2848
g12
(dp2849
S'posn'
p2850
S'160'
p2851
sS'name'
p2852
S'\xe0\xa4\x95\xe0\xa4\xbf'
p2853
sS'af'
p2854
S'\xe0\xa4\x95\xe0\xa4\xbf,avy,,,,,,'
p2855
sS'chunkid'
p2856
S'CCP'
p2857
sS'drel'
p2858
S'rs:NP5'
p2859
sS'chunktype'
p2860
S'head:CCP'
p2861
ssbsg24
I00
sg25
I00
sg26
Nsg27
Nsg28
I7
sg29
I6
sg30
Nsg31
Nsg32
S'CC'
p2862
sg34
g2847
sg35
I00
sba(issf_api
Word
p2863
(dp2864
g6
I00
sg7
V\u0915\u093f\u0938\u0940
p2865
sg9
(issf_api
FeatureSet
p2866
(dp2867
g12
(dp2868
S'crefhead'
p2869
S'\xe0\xa4\x95\xe0\xa4\xbf\xe0\xa4\xb8\xe0\xa5\x80:i27,\xe0\xa4\x95\xe0\xa4\xbf\xe0\xa4\xb8\xe0\xa5\x80:i28'
p2870
sS'posn'
p2871
S'170'
p2872
sS'name'
p2873
S'\xe0\xa4\x95\xe0\xa4\xbf\xe0\xa4\xb8\xe0\xa5\x80'
p2874
sS'af'
p2875
S'\xe0\xa4\x95\xe0\xa5\x8b\xe0\xa4\x88,pn,any,sg,3,o,0_\xe0\xa4\x95\xe0\xa5\x8b,0'
p2876
sS'chunkid'
p2877
S'NP6'
p2878
sS'creftype'
p2879
S'Anaphora-C:i25'
p2880
sS'chunktype'
p2881
S'head:NP6'
p2882
sS'crefchainhead'
p2883
S'i27:t10'
p2884
sS'vpos'
p2885
S'vib_2'
p2886
sS'cref'
p2887
S'i27%1:t10,i28%1:t9'
p2888
sS'drel'
p2889
S'k4a:VGF2'
p2890
ssbsg24
I00
sg25
I00
sg26
Nsg27
Nsg28
I8
sg29
I6
sg30
Nsg31
Nsg32
S'PRP'
p2891
sg34
g2866
sg35
I00
sba(issf_api
Word
p2892
(dp2893
g6
I00
sg7
V\u0915\u094b
p2894
sg9
(issf_api
FeatureSet
p2895
(dp2896
g12
(dp2897
S'posn'
p2898
S'180'
p2899
sS'name'
p2900
S'\xe0\xa4\x95\xe0\xa5\x8b2'
p2901
sS'drel'
p2902
S'lwg__psp:NP6'
p2903
sS'chunktype'
p2904
S'child:NP6'
p2905
sS'af'
p2906
S'\xe0\xa4\x95\xe0\xa5\x8b,psp,,,,,,'
p2907
ssbsg24
I00
sg25
I00
sg26
Nsg27
Nsg28
I8
sg29
I6
sg30
Nsg31
Nsg32
S'PSP'
p2908
sg34
g2895
sg35
I00
sba(issf_api
Word
p2909
(dp2910
g6
I00
sg7
V\u0938\u0902\u0926\u0947\u0939
p2911
sg9
(issf_api
FeatureSet
p2912
(dp2913
g12
(dp2914
S'posn'
p2915
S'190'
p2916
sS'name'
p2917
S'\xe0\xa4\xb8\xe0\xa4\x82\xe0\xa4\xa6\xe0\xa5\x87\xe0\xa4\xb9'
p2918
sS'af'
p2919
S'\xe0\xa4\xb8\xe0\xa4\x82\xe0\xa4\xa6\xe0\xa5\x87\xe0\xa4\xb9,n,m,sg,3,d,0,0'
p2920
sS'chunkid'
p2921
S'NP7'
p2922
sS'drel'
p2923
S'pof:VGF2'
p2924
sS'chunktype'
p2925
S'head:NP7'
p2926
ssbsg24
I00
sg25
I00
sg26
Nsg27
Nsg28
I9
sg29
I6
sg30
Nsg31
Nsg32
S'NN'
p2927
sg34
g2912
sg35
I00
sba(issf_api
Word
p2928
(dp2929
g6
I00
sg7
V\u0928
p2930
sg9
(issf_api
FeatureSet
p2931
(dp2932
g12
(dp2933
S'posn'
p2934
S'200'
p2935
sS'name'
p2936
S'\xe0\xa4\xa8'
p2937
sS'drel'
p2938
S'lwg__neg:VGF2'
p2939
sS'chunktype'
p2940
S'child:VGF2'
p2941
sS'af'
p2942
S'\xe0\xa4\xa8,avy,,,,,,'
p2943
ssbsg24
I00
sg25
I00
sg26
Nsg27
Nsg28
I10
sg29
I6
sg30
Nsg31
Nsg32
S'NEG'
p2944
sg34
g2931
sg35
I00
sba(issf_api
Word
p2945
(dp2946
g6
I00
sg7
V\u0939\u094b
p2947
sg9
(issf_api
FeatureSet
p2948
(dp2949
g12
(dp2950
S'posn'
p2951
S'210'
p2952
sS'name'
p2953
S'\xe0\xa4\xb9\xe0\xa5\x8b'
p2954
sS'af'
p2955
S'\xe0\xa4\xb9\xe0\xa5\x8b,v,any,any,any,,0,0'
p2956
sS'chunkid'
p2957
S'VGF2'
p2958
sS'stype'
p2959
S'declarative'
p2960
sS'drel'
p2961
S'ccof:CCP'
p2962
sS'voicetype'
p2963
S'active'
p2964
sS'chunktype'
p2965
S'head:VGF2'
p2966
ssbsg24
I00
sg25
I00
sg26
Nsg27
Nsg28
I10
sg29
I6
sg30
Nsg31
Nsg32
S'VM'
p2967
sg34
g2948
sg35
I00
sba(issf_api
Word
p2968
(dp2969
g6
I00
sg7
V\u0964
p2970
sg9
(issf_api
FeatureSet
p2971
(dp2972
g12
(dp2973
S'posn'
p2974
S'220'
p2975
sS'name'
p2976
S'\xe0\xa5\xa4'
p2977
sS'af'
p2978
S'\xe0\xa5\xa4,punc,,,,,,'
p2979
sS'chunkid'
p2980
S'BLK'
p2981
sS'drel'
p2982
S'rsym:VGF'
p2983
sS'chunktype'
p2984
S'head:BLK'
p2985
ssbsg24
I00
sg25
I00
sg26
Nsg27
Nsg28
I11
sg29
I6
sg30
Nsg31
Nsg32
S'SYM'
p2986
sg34
g2971
sg35
I00
sba(issf_api
Word
p2987
(dp2988
g6
I00
sg7
V\u0905\u092a\u0928\u0947
p2989
sg9
(issf_api
FeatureSet
p2990
(dp2991
g12
(dp2992
S'crefhead'
p2993
S'\xe0\xa4\x85\xe0\xa4\xaa\xe0\xa4\xa8\xe0\xa5\x87:i29'
p2994
sS'posn'
p2995
S'10'
p2996
sS'name'
p2997
S'\xe0\xa4\x85\xe0\xa4\xaa\xe0\xa4\xa8\xe0\xa5\x87'
p2998
sS'af'
p2999
S'\xe0\xa4\x85\xe0\xa4\xaa\xe0\xa4\xa8\xe0\xa4\xbe,pn,m,any,any,o,0,0'
p3000
sS'acrefmodhead'
p3001
S'\xe0\xa4\x85\xe0\xa4\xaa\xe0\xa4\xa8\xe0\xa5\x87:m3'
p3002
sS'chunkid'
p3003
S'NP'
p3004
sS'acrefmod'
p3005
S'm3%1:i30'
p3006
sS'creftype'
p3007
S'Anaphora-C:i28'
p3008
sS'chunktype'
p3009
S'head:NP'
p3010
sS'cref'
p3011
S'i29%1:t9'
p3012
sS'drel'
p3013
S'nmod:NP2'
p3014
ssbsg24
I00
sg25
I00
sg26
Nsg27
Nsg28
I0
sg29
I7
sg30
Nsg31
Nsg32
S'PRP'
p3015
sg34
g2990
sg35
I00
sba(issf_api
Word
p3016
(dp3017
g6
I00
sg7
V\u0915\u0902\u092a\u094d\u092f\u0942\u091f\u0930
p3018
sg9
(issf_api
FeatureSet
p3019
(dp3020
g12
(dp3021
S'crefhead'
p3022
S'\xe0\xa4\x95\xe0\xa4\x82\xe0\xa4\xaa\xe0\xa5\x8d\xe0\xa4\xaf\xe0\xa5\x82\xe0\xa4\x9f\xe0\xa4\xb0:i30'
p3023
sS'posn'
p3024
S'20'
p3025
sS'name'
p3026
S'\xe0\xa4\x95\xe0\xa4\x82\xe0\xa4\xaa\xe0\xa5\x8d\xe0\xa4\xaf\xe0\xa5\x82\xe0\xa4\x9f\xe0\xa4\xb0'
p3027
sS'af'
p3028
S'\xe0\xa4\x95\xe0\xa4\x82\xe0\xa4\xaa\xe0\xa5\x8d\xe0\xa4\xaf\xe0\xa5\x82\xe0\xa4\x9f\xe0\xa4\xb0,n,m,sg,3,o,0_\xe0\xa4\x95\xe0\xa5\x8b,0'
p3029
sS'chunkid'
p3030
S'NP2'
p3031
sS'crefmod'
p3032
S'm3:i30'
p3033
sS'creftype'
p3034
S'Coreference-PartOf-WMain:i20'
p3035
sS'chunktype'
p3036
S'head:NP2'
p3037
sS'vpos'
p3038
S'vib_2'
p3039
sS'cref'
p3040
S'i30%1:t1'
p3041
sS'drel'
p3042
S'k1:VGNN2'
p3043
ssbsg24
I00
sg25
I00
sg26
Nsg27
Nsg28
I1
sg29
I7
sg30
Nsg31
Nsg32
S'NN'
p3044
sg34
g3019
sg35
I00
sba(issf_api
Word
p3045
(dp3046
g6
I00
sg7
V\u0915\u094b
p3047
sg9
(issf_api
FeatureSet
p3048
(dp3049
g12
(dp3050
S'posn'
p3051
S'30'
p3052
sS'name'
p3053
S'\xe0\xa4\x95\xe0\xa5\x8b'
p3054
sS'drel'
p3055
S'lwg__psp:NP2'
p3056
sS'chunktype'
p3057
S'child:NP2'
p3058
sS'af'
p3059
S'\xe0\xa4\x95\xe0\xa5\x8b,psp,,,,,,'
p3060
ssbsg24
I00
sg25
I00
sg26
Nsg27
Nsg28
I1
sg29
I7
sg30
Nsg31
Nsg32
S'PSP'
p3061
sg34
g3048
sg35
I00
sba(issf_api
Word
p3062
(dp3063
g6
I00
sg7
V\u0907\u0938
p3064
sg9
(issf_api
FeatureSet
p3065
(dp3066
g12
(dp3067
S'posn'
p3068
S'40'
p3069
sS'name'
p3070
S'\xe0\xa4\x87\xe0\xa4\xb8'
p3071
sS'af'
p3072
S'\xe0\xa4\xaf\xe0\xa4\xb9,pn,any,sg,3,o,,'
p3073
sS'drel'
p3074
S'nmod__adj:NP3'
p3075
sS'chunktype'
p3076
S'child:NP3'
p3077
sS'cref'
p3078
S'i31%0:t2'
p3079
ssbsg24
I00
sg25
I00
sg26
Nsg27
Nsg28
I2
sg29
I7
sg30
Nsg31
Nsg32
S'DEM'
p3080
sg34
g3065
sg35
I00
sba(issf_api
Word
p3081
(dp3082
g6
I00
sg7
V\u0935\u093e\u092f\u0930\u0938
p3083
sg9
(issf_api
FeatureSet
p3084
(dp3085
g12
(dp3086
S'crefhead'
p3087
S'\xe0\xa4\xb5\xe0\xa4\xbe\xe0\xa4\xaf\xe0\xa4\xb0\xe0\xa4\xb8:i31'
p3088
sS'posn'
p3089
S'50'
p3090
sS'name'
p3091
S'\xe0\xa4\xb5\xe0\xa4\xbe\xe0\xa4\xaf\xe0\xa4\xb0\xe0\xa4\xb8'
p3092
sS'af'
p3093
S'\xe0\xa4\xb5\xe0\xa4\xbe\xe0\xa4\xaf\xe0\xa4\xb0\xe0\xa4\xb8,n,m,sg,3,o,0_\xe0\xa4\xb8\xe0\xa5\x87,0'
p3094
sS'chunkid'
p3095
S'NP3'
p3096
sS'creftype'
p3097
S'Coreference-Identity:i17'
p3098
sS'chunktype'
p3099
S'head:NP3'
p3100
sS'vpos'
p3101
S'vib_3'
p3102
sS'cref'
p3103
S'i31%1:t2'
p3104
sS'drel'
p3105
S'k2:VGNN'
p3106
ssbsg24
I00
sg25
I00
sg26
Nsg27
Nsg28
I2
sg29
I7
sg30
Nsg31
Nsg32
S'NN'
p3107
sg34
g3084
sg35
I00
sba(issf_api
Word
p3108
(dp3109
g6
I00
sg7
V\u0938\u0947
p3110
sg9
(issf_api
FeatureSet
p3111
(dp3112
g12
(dp3113
S'posn'
p3114
S'60'
p3115
sS'name'
p3116
S'\xe0\xa4\xb8\xe0\xa5\x87'
p3117
sS'drel'
p3118
S'lwg__psp:NP3'
p3119
sS'chunktype'
p3120
S'child:NP3'
p3121
sS'af'
p3122
S'\xe0\xa4\xb8\xe0\xa5\x87,psp,,,,,,'
p3123
ssbsg24
I00
sg25
I00
sg26
Nsg27
Nsg28
I2
sg29
I7
sg30
Nsg31
Nsg32
S'PSP'
p3124
sg34
g3111
sg35
I00
sba(issf_api
Word
p3125
(dp3126
g6
I00
sg7
V\u0938\u0902\u0915\u094d\u0930\u092e\u093f\u0924
p3127
sg9
(issf_api
FeatureSet
p3128
(dp3129
g12
(dp3130
S'posn'
p3131
S'70'
p3132
sS'name'
p3133
S'\xe0\xa4\xb8\xe0\xa4\x82\xe0\xa4\x95\xe0\xa5\x8d\xe0\xa4\xb0\xe0\xa4\xae\xe0\xa4\xbf\xe0\xa4\xa4'
p3134
sS'af'
p3135
S'\xe0\xa4\xb8\xe0\xa4\x82\xe0\xa4\x95\xe0\xa5\x8d\xe0\xa4\xb0\xe0\xa4\xae\xe0\xa4\xbf\xe0\xa4\xa4,adj,any,any,,,,'
p3136
sS'chunkid'
p3137
S'JJP'
p3138
sS'drel'
p3139
S'pof:VGNN'
p3140
sS'chunktype'
p3141
S'head:JJP'
p3142
ssbsg24
I00
sg25
I00
sg26
Nsg27
Nsg28
I3
sg29
I7
sg30
Nsg31
Nsg32
S'JJ'
p3143
sg34
g3128
sg35
I00
sba(issf_api
Word
p3144
(dp3145
g6
I00
sg7
V\u0939\u094b\u0928\u0947
p3146
sg9
(issf_api
FeatureSet
p3147
(dp3148
g12
(dp3149
S'posn'
p3150
S'80'
p3151
sS'name'
p3152
S'\xe0\xa4\xb9\xe0\xa5\x8b\xe0\xa4\xa8\xe0\xa5\x87'
p3153
sS'af'
p3154
S'\xe0\xa4\xb9\xe0\xa5\x8b,v,any,any,any,o,\xe0\xa4\xa8\xe0\xa4\xbe_\xe0\xa4\xb8\xe0\xa5\x87,nA'
p3155
sS'chunkid'
p3156
S'VGNN'
p3157
sS'drel'
p3158
S'k5:VGNN2'
p3159
sS'vpos'
p3160
S'tam_2'
p3161
sS'chunktype'
p3162
S'head:VGNN'
p3163
ssbsg24
I00
sg25
I00
sg26
Nsg27
Nsg28
I4
sg29
I7
sg30
Nsg31
Nsg32
S'VM'
p3164
sg34
g3147
sg35
I00
sba(issf_api
Word
p3165
(dp3166
g6
I00
sg7
V\u0938\u0947
p3167
sg9
(issf_api
FeatureSet
p3168
(dp3169
g12
(dp3170
S'posn'
p3171
S'90'
p3172
sS'name'
p3173
S'\xe0\xa4\xb8\xe0\xa5\x872'
p3174
sS'drel'
p3175
S'lwg__psp:VGNN'
p3176
sS'chunktype'
p3177
S'child:VGNN'
p3178
sS'af'
p3179
S'\xe0\xa4\xb8\xe0\xa5\x87,psp,,,,,,'
p3180
ssbsg24
I00
sg25
I00
sg26
Nsg27
Nsg28
I4
sg29
I7
sg30
Nsg31
Nsg32
S'PSP'
p3181
sg34
g3168
sg35
I00
sba(issf_api
Word
p3182
(dp3183
g6
I00
sg7
V\u092c\u091a\u093e\u0928\u0947
p3184
sg9
(issf_api
FeatureSet
p3185
(dp3186
g12
(dp3187
S'posn'
p3188
S'100'
p3189
sS'name'
p3190
S'\xe0\xa4\xac\xe0\xa4\x9a\xe0\xa4\xbe\xe0\xa4\xa8\xe0\xa5\x87'
p3191
sS'af'
p3192
S'\xe0\xa4\xac\xe0\xa4\x9a\xe0\xa4\xbe,v,any,sg,any,o,\xe0\xa4\xa8\xe0\xa4\xbe_\xe0\xa4\x95\xe0\xa4\xbe,nA'
p3193
sS'chunkid'
p3194
S'VGNN2'
p3195
sS'drel'
p3196
S'r6:NP4'
p3197
sS'vpos'
p3198
S'tam_2'
p3199
sS'chunktype'
p3200
S'head:VGNN2'
p3201
ssbsg24
I00
sg25
I00
sg26
Nsg27
Nsg28
I5
sg29
I7
sg30
Nsg31
Nsg32
S'VM'
p3202
sg34
g3185
sg35
I00
sba(issf_api
Word
p3203
(dp3204
g6
I00
sg7
V\u0915\u093e
p3205
sg9
(issf_api
FeatureSet
p3206
(dp3207
g12
(dp3208
S'posn'
p3209
S'110'
p3210
sS'name'
p3211
S'\xe0\xa4\x95\xe0\xa4\xbe'
p3212
sS'drel'
p3213
S'lwg__psp:VGNN2'
p3214
sS'chunktype'
p3215
S'child:VGNN2'
p3216
sS'af'
p3217
S'\xe0\xa4\x95\xe0\xa4\xbe,psp,m,sg,,d,,'
p3218
ssbsg24
I00
sg25
I00
sg26
Nsg27
Nsg28
I5
sg29
I7
sg30
Nsg31
Nsg32
S'PSP'
p3219
sg34
g3206
sg35
I00
sba(issf_api
Word
p3220
(dp3221
g6
I00
sg7
V\u0938\u092c\u0938\u0947
p3222
sg9
(issf_api
FeatureSet
p3223
(dp3224
g12
(dp3225
S'posn'
p3226
S'120'
p3227
sS'name'
p3228
S'\xe0\xa4\xb8\xe0\xa4\xac\xe0\xa4\xb8\xe0\xa5\x87'
p3229
sS'drel'
p3230
S'jjmod__intf:NP4'
p3231
sS'chunktype'
p3232
S'child:NP4'
p3233
sS'af'
p3234
S'\xe0\xa4\xb8\xe0\xa4\xac\xe0\xa4\xb8\xe0\xa5\x87,avy,,,,,,'
p3235
ssbsg24
I00
sg25
I00
sg26
Nsg27
Nsg28
I6
sg29
I7
sg30
Nsg31
Nsg32
S'INTF'
p3236
sg34
g3223
sg35
I00
sba(issf_api
Word
p3237
(dp3238
g6
I00
sg7
V\u092c\u0922\u093c\u093f\u092f\u093e
p3239
sg9
(issf_api
FeatureSet
p3240
(dp3241
g12
(dp3242
S'posn'
p3243
S'130'
p3244
sS'name'
p3245
S'\xe0\xa4\xac\xe0\xa4\xa2\xe0\xa4\xbc\xe0\xa4\xbf\xe0\xa4\xaf\xe0\xa4\xbe'
p3246
sS'drel'
p3247
S'nmod__adj:NP4'
p3248
sS'chunktype'
p3249
S'child:NP4'
p3250
sS'af'
p3251
S'\xe0\xa4\xac\xe0\xa4\xa2\xe0\xa4\xbc\xe0\xa4\xbf\xe0\xa4\xaf\xe0\xa4\xbe,adj,any,any,,d,,'
p3252
ssbsg24
I00
sg25
I00
sg26
Nsg27
Nsg28
I6
sg29
I7
sg30
Nsg31
Nsg32
S'JJ'
p3253
sg34
g3240
sg35
I00
sba(issf_api
Word
p3254
(dp3255
g6
I00
sg7
V\u0924\u0930\u0940\u0915\u093e
p3256
sg9
(issf_api
FeatureSet
p3257
(dp3258
g12
(dp3259
S'posn'
p3260
S'140'
p3261
sS'name'
p3262
S'\xe0\xa4\xa4\xe0\xa4\xb0\xe0\xa5\x80\xe0\xa4\x95\xe0\xa4\xbe'
p3263
sS'af'
p3264
S'\xe0\xa4\xa4\xe0\xa4\xb0\xe0\xa5\x80\xe0\xa4\x95\xe0\xa4\xbe,n,m,sg,3,d,0,0'
p3265
sS'chunkid'
p3266
S'NP4'
p3267
sS'drel'
p3268
S'k1:VGF'
p3269
sS'chunktype'
p3270
S'head:NP4'
p3271
ssbsg24
I00
sg25
I00
sg26
Nsg27
Nsg28
I6
sg29
I7
sg30
Nsg31
Nsg32
S'NN'
p3272
sg34
g3257
sg35
I00
sba(issf_api
Word
p3273
(dp3274
g6
I00
sg7
V\u0939\u0948
p3275
sg9
(issf_api
FeatureSet
p3276
(dp3277
g12
(dp3278
S'posn'
p3279
S'150'
p3280
sS'name'
p3281
S'\xe0\xa4\xb9\xe0\xa5\x88'
p3282
sS'af'
p3283
S'\xe0\xa4\xb9\xe0\xa5\x88,v,any,sg,3,,\xe0\xa4\xb9\xe0\xa5\x88,hE'
p3284
sS'chunkid'
p3285
S'VGF'
p3286
sS'chunktype'
p3287
S'head:VGF'
p3288
sS'voicetype'
p3289
S'active'
p3290
sS'stype'
p3291
S'declarative'
p3292
ssbsg24
I00
sg25
I00
sg26
Nsg27
Nsg28
I7
sg29
I7
sg30
Nsg31
Nsg32
S'VM'
p3293
sg34
g3276
sg35
I00
sba(issf_api
Word
p3294
(dp3295
g6
I00
sg7
V\u0915\u093f
p3296
sg9
(issf_api
FeatureSet
p3297
(dp3298
g12
(dp3299
S'posn'
p3300
S'160'
p3301
sS'name'
p3302
S'\xe0\xa4\x95\xe0\xa4\xbf'
p3303
sS'af'
p3304
S'\xe0\xa4\x95\xe0\xa4\xbf,avy,,,,,,'
p3305
sS'chunkid'
p3306
S'CCP'
p3307
sS'drel'
p3308
S'rs:NP4'
p3309
sS'chunktype'
p3310
S'head:CCP'
p3311
ssbsg24
I00
sg25
I00
sg26
Nsg27
Nsg28
I8
sg29
I7
sg30
Nsg31
Nsg32
S'CC'
p3312
sg34
g3297
sg35
I00
sba(issf_api
Word
p3313
(dp3314
g6
I00
sg7
V\u0906\u092a
p3315
sg9
(issf_api
FeatureSet
p3316
(dp3317
g12
(dp3318
S'crefhead'
p3319
S'\xe0\xa4\x86\xe0\xa4\xaa:i32'
p3320
sS'posn'
p3321
S'170'
p3322
sS'name'
p3323
S'\xe0\xa4\x86\xe0\xa4\xaa'
p3324
sS'af'
p3325
S'\xe0\xa4\x86\xe0\xa4\xaa,pn,any,sg,2h,d,0,0'
p3326
sS'chunkid'
p3327
S'NP5'
p3328
sS'creftype'
p3329
S'Anaphora-C:i29'
p3330
sS'chunktype'
p3331
S'head:NP5'
p3332
sS'cref'
p3333
S'i32%1:t9'
p3334
sS'drel'
p3335
S'k1:VGF2'
p3336
ssbsg24
I00
sg25
I00
sg26
Nsg27
Nsg28
I9
sg29
I7
sg30
Nsg31
Nsg32
S'PRP'
p3337
sg34
g3316
sg35
I00
sba(issf_api
Word
p3338
(dp3339
g6
I00
sg7
V\u0924\u092c
p3340
sg9
(issf_api
FeatureSet
p3341
(dp3342
g12
(dp3343
S'crefhead'
p3344
S'\xe0\xa4\xa4\xe0\xa4\xac:i33'
p3345
sS'posn'
p3346
S'180'
p3347
sS'name'
p3348
S'\xe0\xa4\xa4\xe0\xa4\xac'
p3349
sS'af'
p3350
S'\xe0\xa4\xa4\xe0\xa4\xac,pn,,,,o,0_\xe0\xa4\xa4\xe0\xa4\x95,'
p3351
sS'chunkid'
p3352
S'NP6'
p3353
sS'creftype'
p3354
S'anaphora-?:i33'
p3355
sS'chunktype'
p3356
S'head:NP6'
p3357
sS'crefchainhead'
p3358
S'i33:t11'
p3359
sS'vpos'
p3360
S'vib_2'
p3361
sS'cref'
p3362
S'i33%1:t11'
p3363
sS'drel'
p3364
S'k7t:VGF2'
p3365
ssbsg24
I00
sg25
I00
sg26
Nsg27
Nsg28
I10
sg29
I7
sg30
Nsg31
Nsg32
S'PRP'
p3366
sg34
g3341
sg35
I00
sba(issf_api
Word
p3367
(dp3368
g6
I00
sg7
V\u0924\u0915
p3369
sg9
(issf_api
FeatureSet
p3370
(dp3371
g12
(dp3372
S'posn'
p3373
S'190'
p3374
sS'name'
p3375
S'\xe0\xa4\xa4\xe0\xa4\x95'
p3376
sS'drel'
p3377
S'lwg__psp:NP6'
p3378
sS'chunktype'
p3379
S'child:NP6'
p3380
sS'af'
p3381
S'\xe0\xa4\xa4\xe0\xa4\x95,psp,,,,,,'
p3382
ssbsg24
I00
sg25
I00
sg26
Nsg27
Nsg28
I10
sg29
I7
sg30
Nsg31
Nsg32
S'PSP'
p3383
sg34
g3370
sg35
I00
sba(issf_api
Word
p3384
(dp3385
g6
I00
sg7
V\u0905\u092a\u0928\u093e
p3386
sg9
(issf_api
FeatureSet
p3387
(dp3388
g12
(dp3389
S'crefhead'
p3390
S'\xe0\xa4\x85\xe0\xa4\xaa\xe0\xa4\xa8\xe0\xa4\xbe:i34'
p3391
sS'posn'
p3392
S'200'
p3393
sS'name'
p3394
S'\xe0\xa4\x85\xe0\xa4\xaa\xe0\xa4\xa8\xe0\xa4\xbe'
p3395
sS'af'
p3396
S'\xe0\xa4\x85\xe0\xa4\xaa\xe0\xa4\xa8\xe0\xa4\xbe,pn,m,sg,any,d,0,0'
p3397
sS'chunkid'
p3398
S'NP7'
p3399
sS'creftype'
p3400
S'Anaphora-C:i32'
p3401
sS'chunktype'
p3402
S'head:NP7'
p3403
sS'cref'
p3404
S'i34%1:t9'
p3405
sS'drel'
p3406
S'r6:NP8'
p3407
ssbsg24
I00
sg25
I00
sg26
Nsg27
Nsg28
I11
sg29
I7
sg30
Nsg31
Nsg32
S'PRP'
p3408
sg34
g3387
sg35
I00
sba(issf_api
Word
p3409
(dp3410
g6
I00
sg7
V\u0908
p3411
sg9
(issf_api
FeatureSet
p3412
(dp3413
g12
(dp3414
S'posn'
p3415
S'210'
p3416
sS'name'
p3417
S'\xe0\xa4\x88'
p3418
sS'af'
p3419
S'\xe0\xa4\x88,n,f,sg,3,d,0,0'
p3420
sS'drel'
p3421
S'pof__cn:NP8'
p3422
sS'chunktype'
p3423
S'child:NP8'
p3424
sS'cref'
p3425
S'i35%0:t8'
p3426
ssbsg24
I00
sg25
I00
sg26
Nsg27
Nsg28
I12
sg29
I7
sg30
Nsg31
Nsg32
S'NNC'
p3427
sg34
g3412
sg35
I00
sba(issf_api
Word
p3428
(dp3429
g6
I00
sg7
V-
p3430
sg9
(issf_api
FeatureSet
p3431
(dp3432
g12
(dp3433
S'posn'
p3434
S'220'
p3435
sS'name'
p3436
g868
sS'af'
p3437
S'-,punc,,,,,,'
p3438
sS'drel'
p3439
S'pof__cn:NP8'
p3440
sS'chunktype'
p3441
S'child:NP8'
p3442
sS'cref'
p3443
S'i35%0:t8'
p3444
ssbsg24
I00
sg25
I00
sg26
Nsg27
Nsg28
I12
sg29
I7
sg30
Nsg31
Nsg32
S'SYM'
p3445
sg34
g3431
sg35
I00
sba(issf_api
Word
p3446
(dp3447
g6
I00
sg7
V\u092e\u0947\u0932
p3448
sg9
(issf_api
FeatureSet
p3449
(dp3450
g12
(dp3451
S'posn'
p3452
S'230'
p3453
sS'name'
p3454
S'\xe0\xa4\xae\xe0\xa5\x87\xe0\xa4\xb2'
p3455
sS'af'
p3456
S'\xe0\xa4\xae\xe0\xa5\x87\xe0\xa4\xb2,n,f,sg,3,d,0,0'
p3457
sS'creftype'
p3458
S'Coreference-Identity:i36'
p3459
sS'drel'
p3460
S'pof__cn:NP8'
p3461
sS'chunktype'
p3462
S'child:NP8'
p3463
sS'cref'
p3464
S'i35%0:t8'
p3465
ssbsg24
I00
sg25
I00
sg26
Nsg27
Nsg28
I12
sg29
I7
sg30
Nsg31
Nsg32
S'NNC'
p3466
sg34
g3449
sg35
I00
sba(issf_api
Word
p3467
(dp3468
g6
I00
sg7
V\u0905\u091f\u0948\u091a\u092e\u0947\u0902\u091f
p3469
sg9
(issf_api
FeatureSet
p3470
(dp3471
g12
(dp3472
S'crefhead'
p3473
S'\xe0\xa4\x85\xe0\xa4\x9f\xe0\xa5\x88\xe0\xa4\x9a\xe0\xa4\xae\xe0\xa5\x87\xe0\xa4\x82\xe0\xa4\x9f:i35'
p3474
sS'posn'
p3475
S'240'
p3476
sS'name'
p3477
S'\xe0\xa4\x85\xe0\xa4\x9f\xe0\xa5\x88\xe0\xa4\x9a\xe0\xa4\xae\xe0\xa5\x87\xe0\xa4\x82\xe0\xa4\x9f'
p3478
sS'af'
p3479
S'\xe0\xa4\x85\xe0\xa4\x9f\xe0\xa5\x88\xe0\xa4\x9a\xe0\xa4\xae\xe0\xa5\x87\xe0\xa4\x82\xe0\xa4\x9f,n,m,sg,3,d,0,0'
p3480
sS'chunkid'
p3481
S'NP8'
p3482
sS'creftype'
p3483
S'Coreference-Identity:i26'
p3484
sS'chunktype'
p3485
S'head:NP8'
p3486
sS'cref'
p3487
S'i35%1:t8'
p3488
sS'drel'
p3489
S'k2:VGF2'
p3490
ssbsg24
I00
sg25
I00
sg26
Nsg27
Nsg28
I12
sg29
I7
sg30
Nsg31
Nsg32
S'NN'
p3491
sg34
g3470
sg35
I00
sba(issf_api
Word
p3492
(dp3493
g6
I00
sg7
V\u0928
p3494
sg9
(issf_api
FeatureSet
p3495
(dp3496
g12
(dp3497
S'posn'
p3498
S'250'
p3499
sS'name'
p3500
S'\xe0\xa4\xa8'
p3501
sS'drel'
p3502
S'lwg__neg:VGF2'
p3503
sS'chunktype'
p3504
S'child:VGF2'
p3505
sS'af'
p3506
S'\xe0\xa4\xa8,avy,,,,,,'
p3507
ssbsg24
I00
sg25
I00
sg26
Nsg27
Nsg28
I13
sg29
I7
sg30
Nsg31
Nsg32
S'NEG'
p3508
sg34
g3495
sg35
I00
sba(issf_api
Word
p3509
(dp3510
g6
I00
sg7
V\u0916\u094b\u0932\u0947\u0902
p3511
sg9
(issf_api
FeatureSet
p3512
(dp3513
g12
(dp3514
S'posn'
p3515
S'260'
p3516
sS'name'
p3517
S'\xe0\xa4\x96\xe0\xa5\x8b\xe0\xa4\xb2\xe0\xa5\x87\xe0\xa4\x82'
p3518
sS'af'
p3519
S'\xe0\xa4\x96\xe0\xa5\x8b\xe0\xa4\xb2,v,any,sg,2h,,\xe0\xa4\x8f\xe0\xa4\x82,eM'
p3520
sS'chunkid'
p3521
S'VGF2'
p3522
sS'stype'
p3523
S'declarative'
p3524
sS'drel'
p3525
S'ccof:CCP'
p3526
sS'voicetype'
p3527
S'active'
p3528
sS'chunktype'
p3529
S'head:VGF2'
p3530
ssbsg24
I00
sg25
I00
sg26
Nsg27
Nsg28
I13
sg29
I7
sg30
Nsg31
Nsg32
S'VM'
p3531
sg34
g3512
sg35
I00
sba(issf_api
Word
p3532
(dp3533
g6
I00
sg7
V,
p3534
sg9
(issf_api
FeatureSet
p3535
(dp3536
g12
(dp3537
S'posn'
p3538
S'270'
p3539
sS'name'
p3540
g694
sS'drel'
p3541
S'rsym:VGF2'
p3542
sS'chunktype'
p3543
S'child:VGF2'
p3544
sS'af'
p3545
S'COMMA,punc,,,,,,'
p3546
ssbsg24
I00
sg25
I00
sg26
Nsg27
Nsg28
I13
sg29
I7
sg30
Nsg31
Nsg32
S'SYM'
p3547
sg34
g3535
sg35
I00
sba(issf_api
Word
p3548
(dp3549
g6
I00
sg7
V\u091c\u092c
p3550
sg9
(issf_api
FeatureSet
p3551
(dp3552
g12
(dp3553
S'crefhead'
p3554
S'\xe0\xa4\x9c\xe0\xa4\xac:i37'
p3555
sS'posn'
p3556
S'280'
p3557
sS'name'
p3558
S'\xe0\xa4\x9c\xe0\xa4\xac'
p3559
sS'af'
p3560
S'\xe0\xa4\x9c\xe0\xa4\xac,pn,,,,o,0_\xe0\xa4\xa4\xe0\xa4\x95,'
p3561
sS'coref'
p3562
S':NP6'
p3563
sS'chunkid'
p3564
S'NP9'
p3565
sS'creftype'
p3566
S'anaphora-?:i37'
p3567
sS'chunktype'
p3568
S'head:NP9'
p3569
sS'crefchainhead'
p3570
S'i37:t12'
p3571
sS'vpos'
p3572
S'vib_2_RP'
p3573
sS'cref'
p3574
S'i37%1:t12'
p3575
sS'drel'
p3576
S'k7:VGF3'
p3577
ssbsg24
I00
sg25
I00
sg26
Nsg27
Nsg28
I14
sg29
I7
sg30
Nsg31
Nsg32
S'PRP'
p3578
sg34
g3551
sg35
I00
sba(issf_api
Word
p3579
(dp3580
g6
I00
sg7
V\u0924\u0915
p3581
sg9
(issf_api
FeatureSet
p3582
(dp3583
g12
(dp3584
S'posn'
p3585
S'290'
p3586
sS'name'
p3587
S'\xe0\xa4\xa4\xe0\xa4\x952'
p3588
sS'drel'
p3589
S'lwg__psp:NP9'
p3590
sS'chunktype'
p3591
S'child:NP9'
p3592
sS'af'
p3593
S'\xe0\xa4\xa4\xe0\xa4\x95,psp,,,,,,'
p3594
ssbsg24
I00
sg25
I00
sg26
Nsg27
Nsg28
I14
sg29
I7
sg30
Nsg31
Nsg32
S'PSP'
p3595
sg34
g3582
sg35
I00
sba(issf_api
Word
p3596
(dp3597
g6
I00
sg7
V\u0915\u093f
p3598
sg9
(issf_api
FeatureSet
p3599
(dp3600
g12
(dp3601
S'posn'
p3602
S'300'
p3603
sS'name'
p3604
S'\xe0\xa4\x95\xe0\xa4\xbf2'
p3605
sS'drel'
p3606
S'lwg__rp:NP9'
p3607
sS'chunktype'
p3608
S'child:NP9'
p3609
sS'af'
p3610
S'\xe0\xa4\x95\xe0\xa4\xbf,avy,,,,,,'
p3611
ssbsg24
I00
sg25
I00
sg26
Nsg27
Nsg28
I14
sg29
I7
sg30
Nsg31
Nsg32
S'RP'
p3612
sg34
g3599
sg35
I00
sba(issf_api
Word
p3613
(dp3614
g6
I00
sg7
V\u0906\u092a\u0915\u094b
p3615
sg9
(issf_api
FeatureSet
p3616
(dp3617
g12
(dp3618
S'crefhead'
p3619
S'\xe0\xa4\x86\xe0\xa4\xaa\xe0\xa4\x95\xe0\xa5\x8b:i38'
p3620
sS'posn'
p3621
S'310'
p3622
sS'name'
p3623
S'\xe0\xa4\x86\xe0\xa4\xaa\xe0\xa4\x95\xe0\xa5\x8b'
p3624
sS'af'
p3625
S'\xe0\xa4\x86\xe0\xa4\xaa,pn,any,sg,2h,o,\xe0\xa4\x95\xe0\xa5\x8b,ko'
p3626
sS'chunkid'
p3627
S'NP10'
p3628
sS'creftype'
p3629
S'Anaphora-C:i34'
p3630
sS'chunktype'
p3631
S'head:NP10'
p3632
sS'cref'
p3633
S'i38%1:t9'
p3634
sS'drel'
p3635
S'k4a:VGF3'
p3636
ssbsg24
I00
sg25
I00
sg26
Nsg27
Nsg28
I15
sg29
I7
sg30
Nsg31
Nsg32
S'PRP'
p3637
sg34
g3616
sg35
I00
sba(issf_api
Word
p3638
(dp3639
g6
I00
sg7
V\u0905\u091a\u094d\u091b\u0940
p3640
sg9
(issf_api
FeatureSet
p3641
(dp3642
g12
(dp3643
S'posn'
p3644
S'320'
p3645
sS'name'
p3646
S'\xe0\xa4\x85\xe0\xa4\x9a\xe0\xa5\x8d\xe0\xa4\x9b\xe0\xa5\x80'
p3647
sS'drel'
p3648
S'nmod__adj:NP11'
p3649
sS'chunktype'
p3650
S'child:NP11'
p3651
sS'af'
p3652
S'\xe0\xa4\x85\xe0\xa4\x9a\xe0\xa5\x8d\xe0\xa4\x9b\xe0\xa4\xbe,adj,f,sg,,o,,'
p3653
ssbsg24
I00
sg25
I00
sg26
Nsg27
Nsg28
I16
sg29
I7
sg30
Nsg31
Nsg32
S'JJ'
p3654
sg34
g3641
sg35
I00
sba(issf_api
Word
p3655
(dp3656
g6
I00
sg7
V\u0924\u0930\u0939
p3657
sg9
(issf_api
FeatureSet
p3658
(dp3659
g12
(dp3660
S'posn'
p3661
S'330'
p3662
sS'name'
p3663
S'\xe0\xa4\xa4\xe0\xa4\xb0\xe0\xa4\xb9'
p3664
sS'af'
p3665
S'\xe0\xa4\xa4\xe0\xa4\xb0\xe0\xa4\xb9,n,f,sg,3,o,0_\xe0\xa4\xb8\xe0\xa5\x87,0'
p3666
sS'chunkid'
p3667
S'NP11'
p3668
sS'drel'
p3669
S'adv:VGF3'
p3670
sS'vpos'
p3671
S'vib_3'
p3672
sS'chunktype'
p3673
S'head:NP11'
p3674
ssbsg24
I00
sg25
I00
sg26
Nsg27
Nsg28
I16
sg29
I7
sg30
Nsg31
Nsg32
S'NN'
p3675
sg34
g3658
sg35
I00
sba(issf_api
Word
p3676
(dp3677
g6
I00
sg7
V\u0938\u0947
p3678
sg9
(issf_api
FeatureSet
p3679
(dp3680
g12
(dp3681
S'posn'
p3682
S'340'
p3683
sS'name'
p3684
S'\xe0\xa4\xb8\xe0\xa5\x873'
p3685
sS'drel'
p3686
S'lwg__psp:NP11'
p3687
sS'chunktype'
p3688
S'child:NP11'
p3689
sS'af'
p3690
S'\xe0\xa4\xb8\xe0\xa5\x87,psp,,,,,,'
p3691
ssbsg24
I00
sg25
I00
sg26
Nsg27
Nsg28
I16
sg29
I7
sg30
Nsg31
Nsg32
S'PSP'
p3692
sg34
g3679
sg35
I00
sba(issf_api
Word
p3693
(dp3694
g6
I00
sg7
V\u092f\u0939
p3695
sg9
(issf_api
FeatureSet
p3696
(dp3697
g12
(dp3698
S'crefhead'
p3699
S'\xe0\xa4\xaf\xe0\xa4\xb9:i39'
p3700
sS'posn'
p3701
S'350'
p3702
sS'name'
p3703
S'\xe0\xa4\xaf\xe0\xa4\xb9'
p3704
sS'af'
p3705
S'\xe0\xa4\xaf\xe0\xa4\xb9,pn,any,sg,3,d,0,0'
p3706
sS'chunkid'
p3707
S'NP12'
p3708
sS'creftype'
p3709
S'anaphora-?:i39'
p3710
sS'chunktype'
p3711
S'head:NP12'
p3712
sS'cref'
p3713
S'i39%1:t13'
p3714
sS'drel'
p3715
S'k1:VGF3'
p3716
ssbsg24
I00
sg25
I00
sg26
Nsg27
Nsg28
I17
sg29
I7
sg30
Nsg31
Nsg32
S'PRP'
p3717
sg34
g3696
sg35
I00
sba(issf_api
Word
p3718
(dp3719
g6
I00
sg7
V\u092a\u0924\u093e
p3720
sg9
(issf_api
FeatureSet
p3721
(dp3722
g12
(dp3723
S'posn'
p3724
S'330'
p3725
sS'name'
p3726
S'\xe0\xa4\xaa\xe0\xa4\xa4\xe0\xa4\xbe'
p3727
sS'af'
p3728
S'\xe0\xa4\xaa\xe0\xa4\xa4\xe0\xa4\xbe,n,m,sg,3,d,0,0'
p3729
sS'chunkid'
p3730
S'NP13'
p3731
sS'drel'
p3732
S'pof:VGF3'
p3733
sS'chunktype'
p3734
S'head:NP13'
p3735
ssbsg24
I00
sg25
I00
sg26
Nsg27
Nsg28
I18
sg29
I7
sg30
Nsg31
Nsg32
S'NN'
p3736
sg34
g3721
sg35
I00
sba(issf_api
Word
p3737
(dp3738
g6
I00
sg7
V\u0928\u0939\u0940\u0902
p3739
sg9
(issf_api
FeatureSet
p3740
(dp3741
g12
(dp3742
S'posn'
p3743
S'370'
p3744
sS'name'
p3745
S'\xe0\xa4\xa8\xe0\xa4\xb9\xe0\xa5\x80\xe0\xa4\x82'
p3746
sS'drel'
p3747
S'lwg__neg:VGF3'
p3748
sS'chunktype'
p3749
S'child:VGF3'
p3750
sS'af'
p3751
S'\xe0\xa4\xa8\xe0\xa4\xb9\xe0\xa5\x80\xe0\xa4\x82,avy,,,,,,'
p3752
ssbsg24
I00
sg25
I00
sg26
Nsg27
Nsg28
I19
sg29
I7
sg30
Nsg31
Nsg32
S'NEG'
p3753
sg34
g3740
sg35
I00
sba(issf_api
Word
p3754
(dp3755
g6
I00
sg7
V\u0939\u094b
p3756
sg9
(issf_api
FeatureSet
p3757
(dp3758
g12
(dp3759
S'posn'
p3760
S'380'
p3761
sS'name'
p3762
S'\xe0\xa4\xb9\xe0\xa5\x8b'
p3763
sS'af'
p3764
S'\xe0\xa4\xb9\xe0\xa5\x8b,v,any,any,any,,0,0'
p3765
sS'chunkid'
p3766
S'VGF3'
p3767
sS'stype'
p3768
S'declarative'
p3769
sS'drel'
p3770
S'nmod__relc:NP6'
p3771
sS'voicetype'
p3772
S'active'
p3773
sS'chunktype'
p3774
S'head:VGF3'
p3775
ssbsg24
I00
sg25
I00
sg26
Nsg27
Nsg28
I19
sg29
I7
sg30
Nsg31
Nsg32
S'VM'
p3776
sg34
g3757
sg35
I00
sba(issf_api
Word
p3777
(dp3778
g6
I00
sg7
V\u0915\u093f
p3779
sg9
(issf_api
FeatureSet
p3780
(dp3781
g12
(dp3782
S'posn'
p3783
S'390'
p3784
sS'name'
p3785
S'\xe0\xa4\x95\xe0\xa4\xbf3'
p3786
sS'af'
p3787
S'\xe0\xa4\x95\xe0\xa4\xbf,avy,,,,,,'
p3788
sS'chunkid'
p3789
S'CCP2'
p3790
sS'drel'
p3791
S'rs:NP12'
p3792
sS'chunktype'
p3793
S'head:CCP2'
p3794
ssbsg24
I00
sg25
I00
sg26
Nsg27
Nsg28
I20
sg29
I7
sg30
Nsg31
Nsg32
S'CC'
p3795
sg34
g3780
sg35
I00
sba(issf_api
Word
p3796
(dp3797
g6
I00
sg7
V\u0907\u0938\u0947
p3798
sg9
(issf_api
FeatureSet
p3799
(dp3800
g12
(dp3801
S'crefhead'
p3802
S'\xe0\xa4\x87\xe0\xa4\xb8\xe0\xa5\x87:i40'
p3803
sS'posn'
p3804
S'400'
p3805
sS'name'
p3806
S'\xe0\xa4\x87\xe0\xa4\xb8\xe0\xa5\x87'
p3807
sS'af'
p3808
S'\xe0\xa4\xaf\xe0\xa4\xb9,pn,any,sg,3,o,\xe0\xa4\x95\xe0\xa5\x8b,ko'
p3809
sS'chunkid'
p3810
S'NP14'
p3811
sS'creftype'
p3812
S'Anaphora-C:i35'
p3813
sS'chunktype'
p3814
S'head:NP14'
p3815
sS'cref'
p3816
S'i40%1:t8,i41%0:t13'
p3817
sS'drel'
p3818
S'k2:VGF4'
p3819
ssbsg24
I00
sg25
I00
sg26
Nsg27
Nsg28
I21
sg29
I7
sg30
Nsg31
Nsg32
S'PRP'
p3820
sg34
g3799
sg35
I00
sba(issf_api
Word
p3821
(dp3822
g6
I00
sg7
V\u0915\u093f\u0938\u0928\u0947
p3823
sg9
(issf_api
FeatureSet
p3824
(dp3825
g12
(dp3826
S'posn'
p3827
S'410'
p3828
sS'name'
p3829
S'\xe0\xa4\x95\xe0\xa4\xbf\xe0\xa4\xb8\xe0\xa4\xa8\xe0\xa5\x87'
p3830
sS'af'
p3831
S'\xe0\xa4\x95\xe0\xa5\x8c\xe0\xa4\xa8,pn,any,sg,3,o,\xe0\xa4\xa8\xe0\xa5\x87,ne'
p3832
sS'chunkid'
p3833
S'NP15'
p3834
sS'drel'
p3835
S'k1:VGF4'
p3836
sS'chunktype'
p3837
S'head:NP15'
p3838
sS'cref'
p3839
S'i41%0:t13'
p3840
ssbsg24
I00
sg25
I00
sg26
Nsg27
Nsg28
I22
sg29
I7
sg30
Nsg31
Nsg32
S'WQ'
p3841
sg34
g3824
sg35
I00
sba(issf_api
Word
p3842
(dp3843
g6
I00
sg7
V\u092d\u0947\u091c\u093e
p3844
sg9
(issf_api
FeatureSet
p3845
(dp3846
g12
(dp3847
S'posn'
p3848
S'420'
p3849
sS'name'
p3850
S'\xe0\xa4\xad\xe0\xa5\x87\xe0\xa4\x9c\xe0\xa4\xbe'
p3851
sS'af'
p3852
S'\xe0\xa4\xad\xe0\xa5\x87\xe0\xa4\x9c,v,m,sg,3,,\xe0\xa4\xaf\xe0\xa4\xbe_\xe0\xa4\xb9\xe0\xa5\x88,yA'
p3853
sS'chunkid'
p3854
S'VGF4'
p3855
sS'stype'
p3856
S'declarative'
p3857
sS'drel'
p3858
S'ccof:CCP3'
p3859
sS'chunktype'
p3860
S'head:VGF4'
p3861
sS'voicetype'
p3862
S'active'
p3863
sS'vpos'
p3864
S'tam_2'
p3865
sS'cref'
p3866
S'i41%0:t13'
p3867
ssbsg24
I00
sg25
I00
sg26
Nsg27
Nsg28
I23
sg29
I7
sg30
Nsg31
Nsg32
S'VM'
p3868
sg34
g3845
sg35
I00
sba(issf_api
Word
p3869
(dp3870
g6
I00
sg7
V\u0939\u0948
p3871
sg9
(issf_api
FeatureSet
p3872
(dp3873
g12
(dp3874
S'posn'
p3875
S'430'
p3876
sS'name'
p3877
S'\xe0\xa4\xb9\xe0\xa5\x882'
p3878
sS'af'
p3879
S'\xe0\xa4\xb9\xe0\xa5\x88,v,any,sg,3,,\xe0\xa4\xb9\xe0\xa5\x88,hE'
p3880
sS'drel'
p3881
S'lwg__vaux:VGF4'
p3882
sS'chunktype'
p3883
S'child:VGF4'
p3884
sS'cref'
p3885
S'i41%0:t13'
p3886
ssbsg24
I00
sg25
I00
sg26
Nsg27
Nsg28
I23
sg29
I7
sg30
Nsg31
Nsg32
S'VAUX'
p3887
sg34
g3872
sg35
I00
sba(issf_api
Word
p3888
(dp3889
g6
I00
sg7
V\u0914\u0930
p3890
sg9
(issf_api
FeatureSet
p3891
(dp3892
g12
(dp3893
S'posn'
p3894
S'440'
p3895
sS'name'
p3896
S'\xe0\xa4\x94\xe0\xa4\xb0'
p3897
sS'af'
p3898
S'\xe0\xa4\x94\xe0\xa4\xb0,avy,,,,,,'
p3899
sS'chunkid'
p3900
S'CCP3'
p3901
sS'drel'
p3902
S'ccof:CCP2'
p3903
sS'chunktype'
p3904
S'head:CCP3'
p3905
sS'cref'
p3906
S'i41%0:t13'
p3907
ssbsg24
I00
sg25
I00
sg26
Nsg27
Nsg28
I24
sg29
I7
sg30
Nsg31
Nsg32
S'CC'
p3908
sg34
g3891
sg35
I00
sba(issf_api
Word
p3909
(dp3910
g6
I00
sg7
V\u0905\u091f\u0948\u091a\u092e\u0947\u0902\u091f
p3911
sg9
(issf_api
FeatureSet
p3912
(dp3913
g12
(dp3914
S'crefhead'
p3915
S'\xe0\xa4\x85\xe0\xa4\x9f\xe0\xa5\x88\xe0\xa4\x9a\xe0\xa4\xae\xe0\xa5\x87\xe0\xa4\x82\xe0\xa4\x9f:i42,\xe0\xa4\x85\xe0\xa4\x9f\xe0\xa5\x88\xe0\xa4\x9a\xe0\xa4\xae\xe0\xa5\x87\xe0\xa4\x82\xe0\xa4\x9f:i41'
p3916
sS'posn'
p3917
S'450'
p3918
sS'name'
p3919
S'\xe0\xa4\x85\xe0\xa4\x9f\xe0\xa5\x88\xe0\xa4\x9a\xe0\xa4\xae\xe0\xa5\x87\xe0\xa4\x82\xe0\xa4\x9f2'
p3920
sS'af'
p3921
S'\xe0\xa4\x85\xe0\xa4\x9f\xe0\xa5\x88\xe0\xa4\x9a\xe0\xa4\xae\xe0\xa5\x87\xe0\xa4\x82\xe0\xa4\x9f,n,m,sg,3,o,0_\xe0\xa4\xae\xe0\xa5\x87\xe0\xa4\x82,0'
p3922
sS'chunkid'
p3923
S'NP16'
p3924
sS'creftype'
p3925
S'Anaphora-RC:i39,Coreference-Identity:i40'
p3926
sS'chunktype'
p3927
S'head:NP16'
p3928
sS'crefchainhead'
p3929
S'i41:t13'
p3930
sS'vpos'
p3931
S'vib_2'
p3932
sS'cref'
p3933
S'i42%1:t8,i41%0:t13'
p3934
sS'drel'
p3935
S'k7:VGF5'
p3936
ssbsg24
I00
sg25
I00
sg26
Nsg27
Nsg28
I25
sg29
I7
sg30
Nsg31
Nsg32
S'NN'
p3937
sg34
g3912
sg35
I00
sba(issf_api
Word
p3938
(dp3939
g6
I00
sg7
V\u092e\u0947\u0902
p3940
sg9
(issf_api
FeatureSet
p3941
(dp3942
g12
(dp3943
S'posn'
p3944
S'460'
p3945
sS'name'
p3946
S'\xe0\xa4\xae\xe0\xa5\x87\xe0\xa4\x82'
p3947
sS'af'
p3948
S'\xe0\xa4\xae\xe0\xa5\x87\xe0\xa4\x82,psp,,,,,,'
p3949
sS'drel'
p3950
S'lwg__psp:NP16'
p3951
sS'chunktype'
p3952
S'child:NP16'
p3953
sS'cref'
p3954
S'i41%0:t13'
p3955
ssbsg24
I00
sg25
I00
sg26
Nsg27
Nsg28
I25
sg29
I7
sg30
Nsg31
Nsg32
S'PSP'
p3956
sg34
g3941
sg35
I00
sba(issf_api
Word
p3957
(dp3958
g6
I00
sg7
V\u0915\u094d\u092f\u093e
p3959
sg9
(issf_api
FeatureSet
p3960
(dp3961
g12
(dp3962
S'posn'
p3963
S'470'
p3964
sS'name'
p3965
S'\xe0\xa4\x95\xe0\xa5\x8d\xe0\xa4\xaf\xe0\xa4\xbe'
p3966
sS'af'
p3967
S'\xe0\xa4\x95\xe0\xa5\x8d\xe0\xa4\xaf\xe0\xa4\xbe,pn,,,,,,'
p3968
sS'chunkid'
p3969
S'NP17'
p3970
sS'drel'
p3971
S'k1:VGF5'
p3972
sS'chunktype'
p3973
S'head:NP17'
p3974
sS'cref'
p3975
S'i41%0:t13'
p3976
ssbsg24
I00
sg25
I00
sg26
Nsg27
Nsg28
I26
sg29
I7
sg30
Nsg31
Nsg32
S'WQ'
p3977
sg34
g3960
sg35
I00
sba(issf_api
Word
p3978
(dp3979
g6
I00
sg7
V\u0939\u0948
p3980
sg9
(issf_api
FeatureSet
p3981
(dp3982
g12
(dp3983
S'posn'
p3984
S'480'
p3985
sS'name'
p3986
S'\xe0\xa4\xb9\xe0\xa5\x883'
p3987
sS'af'
p3988
S'\xe0\xa4\xb9\xe0\xa5\x88,v,any,sg,3,,\xe0\xa4\xb9\xe0\xa5\x88,hE'
p3989
sS'chunkid'
p3990
S'VGF5'
p3991
sS'stype'
p3992
S'interrogative'
p3993
sS'drel'
p3994
S'ccof:CCP3'
p3995
sS'chunktype'
p3996
S'head:VGF5'
p3997
sS'voicetype'
p3998
S'active'
p3999
sS'cref'
p4000
S'i41%1:t13'
p4001
ssbsg24
I00
sg25
I00
sg26
Nsg27
Nsg28
I27
sg29
I7
sg30
Nsg31
Nsg32
S'VM'
p4002
sg34
g3981
sg35
I00
sba(issf_api
Word
p4003
(dp4004
g6
I00
sg7
V?
p4005
sg9
(issf_api
FeatureSet
p4006
(dp4007
g12
(dp4008
S'posn'
p4009
S'490'
p4010
sS'name'
p4011
S'?'
p4012
sS'af'
p4013
S'\xe0\xa5\xa4,punc,,,,,,'
p4014
sS'chunkid'
p4015
S'BLK'
p4016
sS'drel'
p4017
S'rsym:VGF'
p4018
sS'chunktype'
p4019
S'head:BLK'
p4020
ssbsg24
I00
sg25
I00
sg26
Nsg27
Nsg28
I28
sg29
I7
sg30
Nsg31
Nsg32
S'SYM'
p4021
sg34
g4006
sg35
I00
sbasS'sentenceList'
p4022
(lp4023
(issf_api
Sentence
p4024
(dp4025
S'rootNode'
p4026
(lp4027
sg29
I0
sS'wordNumList'
p4028
(lp4029
I0
aI1
aI2
aI3
aI4
aI5
aI6
aI7
aI8
aI9
aI10
aI11
aI12
aI13
aI14
aI15
aI16
aI17
aI18
aI19
aI20
asS'nodeDict'
p4030
(dp4031
S'VGNF'
p4032
(issf_api
Node
p4033
(dp4034
S'nodeRelation'
p4035
S'nmod__k1inv'
p4036
sS'nodeName'
p4037
g4032
sS'nodeParent'
p4038
S'NP3'
p4039
sS'nodeLevel'
p4040
I-1
sg28
I2
sS'childList'
p4041
(lp4042
S'NP2'
p4043
asbsS'VGF'
p4044
(issf_api
Node
p4045
(dp4046
g4035
S'None'
p4047
sg4037
g4044
sg4038
g4047
sg4040
I-1
sg28
I7
sg4041
(lp4048
S'NP5'
p4049
aS'BLK'
p4050
aS'NP'
p4051
aS'NP6'
p4052
aS'NP3'
p4053
asbsg4049
(issf_api
Node
p4054
(dp4055
g4035
S'k2'
p4056
sg4037
g4049
sg4038
S'VGF'
p4057
sg4040
I-1
sg28
I5
sg4041
(lp4058
S'NP4'
p4059
asbsg4050
(issf_api
Node
p4060
(dp4061
g4035
S'rsym'
p4062
sg4037
g4050
sg4038
S'VGF'
p4063
sg4040
I-1
sg28
I8
sg4041
(lp4064
sbsg4051
(issf_api
Node
p4065
(dp4066
g4035
S'k7p'
p4067
sg4037
g4051
sg4038
S'VGF'
p4068
sg4040
I-1
sg28
I0
sg4041
(lp4069
sbsg4059
(issf_api
Node
p4070
(dp4071
g4035
S'r6'
p4072
sg4037
g4059
sg4038
S'NP5'
p4073
sg4040
I-1
sg28
I4
sg4041
(lp4074
sbsg4052
(issf_api
Node
p4075
(dp4076
g4035
S'adv'
p4077
sg4037
g4052
sg4038
S'VGF'
p4078
sg4040
I-1
sg28
I6
sg4041
(lp4079
sbsg4053
(issf_api
Node
p4080
(dp4081
g4035
S'k7'
p4082
sg4037
g4053
sg4038
S'VGF'
p4083
sg4040
I-1
sg28
I3
sg4041
(lp4084
g4032
asbsg4043
(issf_api
Node
p4085
(dp4086
g4035
S'ras-k1'
p4087
sg4037
g4043
sg4038
S'VGNF'
p4088
sg4040
I-1
sg28
I1
sg4041
(lp4089
sbssS'chunkList'
p4090
(lp4091
(issf_api
Chunk
p4092
(dp4093
g4037
g49
sg28
I0
sS'chunkTag'
p4094
g56
sg29
I0
sg4028
(lp4095
I0
aI1
aI2
asg34
(issf_api
FeatureSet
p4096
(dp4097
g12
(dp4098
S'name'
p4099
g4051
sS'drel'
p4100
S'k7p:VGF'
p4101
ssbsba(issf_api
Chunk
p4102
(dp4103
g4037
g87
sg28
I1
sg4094
g96
sg29
I0
sg4028
(lp4104
I3
aI4
asg34
(issf_api
FeatureSet
p4105
(dp4106
g12
(dp4107
S'name'
p4108
g4043
sS'drel'
p4109
S'ras-k1:VGNF'
p4110
ssbsba(issf_api
Chunk
p4111
(dp4112
g4037
g129
sg28
I2
sg4094
g136
sg29
I0
sg4028
(lp4113
I5
asg34
(issf_api
FeatureSet
p4114
(dp4115
g12
(dp4116
S'name'
p4117
g4032
sS'drel'
p4118
S'nmod__k1inv:NP3'
p4119
ssbsba(issf_api
Chunk
p4120
(dp4121
g4037
g152
sg28
I3
sg4094
g163
sg29
I0
sg4028
(lp4122
I6
aI7
asg34
(issf_api
FeatureSet
p4123
(dp4124
g12
(dp4125
S'name'
p4126
g4053
sS'drel'
p4127
S'k7:VGF'
p4128
ssbsba(issf_api
Chunk
p4129
(dp4130
g4037
g211
sg28
I4
sg4094
g218
sg29
I0
sg4028
(lp4131
I8
aI9
aI10
asg34
(issf_api
FeatureSet
p4132
(dp4133
g12
(dp4134
S'name'
p4135
g4059
sS'drel'
p4136
S'r6:NP5'
p4137
ssbsba(issf_api
Chunk
p4138
(dp4139
g4037
g289
sg28
I5
sg4094
g298
sg29
I0
sg4028
(lp4140
I11
aI12
aI13
asg34
(issf_api
FeatureSet
p4141
(dp4142
g12
(dp4143
S'name'
p4144
g4049
sS'drel'
p4145
S'k2:VGF'
p4146
ssbsba(issf_api
Chunk
p4147
(dp4148
g4037
g329
sg28
I6
sg4094
g336
sg29
I0
sg4028
(lp4149
I14
aI15
aI16
asg34
(issf_api
FeatureSet
p4150
(dp4151
g12
(dp4152
S'name'
p4153
g4052
sS'drel'
p4154
S'adv:VGF'
p4155
ssbsba(issf_api
Chunk
p4156
(dp4157
g4037
g367
sg28
I7
sg4094
g376
sg29
I0
sg4028
(lp4158
I17
aI18
aI19
asg34
(issf_api
FeatureSet
p4159
(dp4160
g12
(dp4161
S'name'
p4162
g4044
ssbsba(issf_api
Chunk
p4163
(dp4164
g4037
g424
sg28
I8
sg4094
g429
sg29
I0
sg4028
(lp4165
I20
asg34
(issf_api
FeatureSet
p4166
(dp4167
g12
(dp4168
S'name'
p4169
g4050
sS'drel'
p4170
S'rsym:VGF'
p4171
ssbsbasba(issf_api
Sentence
p4172
(dp4173
g4026
(lp4174
sg29
I1
sg4028
(lp4175
I21
aI22
aI23
aI24
aI25
aI26
aI27
aI28
aI29
aI30
asg4030
(dp4176
S'NP'
p4177
(issf_api
Node
p4178
(dp4179
g4035
S'k2'
p4180
sg4037
g4177
sg4038
S'VGF'
p4181
sg4040
I-1
sg28
I0
sg4041
(lp4182
sbsS'VGF'
p4183
(issf_api
Node
p4184
(dp4185
g4035
g4047
sg4037
g4183
sg4038
g4047
sg4040
I-1
sg28
I3
sg4041
(lp4186
g4177
aS'BLK'
p4187
aS'NP3'
p4188
asbsg4187
(issf_api
Node
p4189
(dp4190
g4035
S'rsym'
p4191
sg4037
g4187
sg4038
S'VGF'
p4192
sg4040
I-1
sg28
I4
sg4041
(lp4193
sbsg4188
(issf_api
Node
p4194
(dp4195
g4035
S'k1'
p4196
sg4037
g4188
sg4038
S'VGF'
p4197
sg4040
I-1
sg28
I2
sg4041
(lp4198
S'NP2'
p4199
asbsg4199
(issf_api
Node
p4200
(dp4201
g4035
S'r6'
p4202
sg4037
g4199
sg4038
S'NP3'
p4203
sg4040
I-1
sg28
I1
sg4041
(lp4204
sbssg4090
(lp4205
(issf_api
Chunk
p4206
(dp4207
g4037
g460
sg28
I0
sg4094
g465
sg29
I1
sg4028
(lp4208
I21
aI22
asg34
(issf_api
FeatureSet
p4209
(dp4210
g12
(dp4211
S'name'
p4212
g4177
sS'drel'
p4213
S'k2:VGF'
p4214
ssbsba(issf_api
Chunk
p4215
(dp4216
g4037
g479
sg28
I1
sg4094
g486
sg29
I1
sg4028
(lp4217
I23
aI24
asg34
(issf_api
FeatureSet
p4218
(dp4219
g12
(dp4220
S'name'
p4221
g4199
sS'drel'
p4222
S'r6:NP3'
p4223
ssbsba(issf_api
Chunk
p4224
(dp4225
g4037
g534
sg28
I2
sg4094
g541
sg29
I1
sg4028
(lp4226
I25
aI26
aI27
asg34
(issf_api
FeatureSet
p4227
(dp4228
g12
(dp4229
S'name'
p4230
g4188
sS'drel'
p4231
S'k1:VGF'
p4232
ssbsba(issf_api
Chunk
p4233
(dp4234
g4037
g572
sg28
I3
sg4094
g581
sg29
I1
sg4028
(lp4235
I28
aI29
asg34
(issf_api
FeatureSet
p4236
(dp4237
g12
(dp4238
S'name'
p4239
g4183
ssbsba(issf_api
Chunk
p4240
(dp4241
g4037
g612
sg28
I4
sg4094
g617
sg29
I1
sg4028
(lp4242
I30
asg34
(issf_api
FeatureSet
p4243
(dp4244
g12
(dp4245
S'name'
p4246
g4187
sS'drel'
p4247
S'rsym:VGF'
p4248
ssbsbasba(issf_api
Sentence
p4249
(dp4250
g4026
(lp4251
sg29
I2
sg4028
(lp4252
I31
aI32
aI33
aI34
aI35
aI36
aI37
aI38
aI39
aI40
aI41
aI42
aI43
aI44
aI45
aI46
aI47
aI48
aI49
aI50
aI51
aI52
aI53
aI54
aI55
aI56
aI57
aI58
aI59
aI60
aI61
aI62
aI63
asg4030
(dp4253
S'VGF2'
p4254
(issf_api
Node
p4255
(dp4256
g4035
S'ccof'
p4257
sg4037
g4254
sg4038
S'CCP'
p4258
sg4040
I-1
sg28
I11
sg4041
(lp4259
S'NP8'
p4260
asbsS'VGF'
p4261
(issf_api
Node
p4262
(dp4263
g4035
S'ccof'
p4264
sg4037
g4261
sg4038
S'CCP'
p4265
sg4040
I-1
sg28
I5
sg4041
(lp4266
S'NP5'
p4267
aS'NP3'
p4268
aS'NP2'
p4269
asbsS'CCP'
p4270
(issf_api
Node
p4271
(dp4272
g4035
g4047
sg4037
g4270
sg4038
g4047
sg4040
I-1
sg28
I6
sg4041
(lp4273
g4254
ag4261
aS'BLK'
p4274
asbsS'JJP'
p4275
(issf_api
Node
p4276
(dp4277
g4035
S'nmod'
p4278
sg4037
g4275
sg4038
S'NP8'
p4279
sg4040
I-1
sg28
I9
sg4041
(lp4280
S'NP7'
p4281
asbsg4267
(issf_api
Node
p4282
(dp4283
g4035
S'ras-k2'
p4284
sg4037
g4267
sg4038
S'VGF'
p4285
sg4040
I-1
sg28
I4
sg4041
(lp4286
S'NP4'
p4287
asbsg4260
(issf_api
Node
p4288
(dp4289
g4035
S'k7p'
p4290
sg4037
g4260
sg4038
S'VGF2'
p4291
sg4040
I-1
sg28
I10
sg4041
(lp4292
g4275
asbsg4274
(issf_api
Node
p4293
(dp4294
g4035
S'rsym'
p4295
sg4037
g4274
sg4038
S'CCP'
p4296
sg4040
I-1
sg28
I12
sg4041
(lp4297
sbsS'NP'
p4298
(issf_api
Node
p4299
(dp4300
g4035
S'nmod'
p4301
sg4037
g4298
sg4038
S'NP2'
p4302
sg4040
I-1
sg28
I0
sg4041
(lp4303
sbsg4287
(issf_api
Node
p4304
(dp4305
g4035
S'r6'
p4306
sg4037
g4287
sg4038
S'NP5'
p4307
sg4040
I-1
sg28
I3
sg4041
(lp4308
sbsg4281
(issf_api
Node
p4309
(dp4310
g4035
S'jjmod'
p4311
sg4037
g4281
sg4038
S'JJP'
p4312
sg4040
I-1
sg28
I8
sg4041
(lp4313
S'NP6'
p4314
asbsg4314
(issf_api
Node
p4315
(dp4316
g4035
S'r6'
p4317
sg4037
g4314
sg4038
S'NP7'
p4318
sg4040
I-1
sg28
I7
sg4041
(lp4319
sbsg4268
(issf_api
Node
p4320
(dp4321
g4035
S'k2'
p4322
sg4037
g4268
sg4038
S'VGF'
p4323
sg4040
I-1
sg28
I2
sg4041
(lp4324
sbsg4269
(issf_api
Node
p4325
(dp4326
g4035
S'k1'
p4327
sg4037
g4269
sg4038
S'VGF'
p4328
sg4040
I-1
sg28
I1
sg4041
(lp4329
g4298
asbssg4090
(lp4330
(issf_api
Chunk
p4331
(dp4332
g4037
g652
sg28
I0
sg4094
g661
sg29
I2
sg4028
(lp4333
I31
aI32
asg34
(issf_api
FeatureSet
p4334
(dp4335
g12
(dp4336
S'name'
p4337
g4298
sS'drel'
p4338
S'nmod:NP2'
p4339
ssbsba(issf_api
Chunk
p4340
(dp4341
g4037
g717
sg28
I1
sg4094
g726
sg29
I2
sg4028
(lp4342
I33
aI34
aI35
asg34
(issf_api
FeatureSet
p4343
(dp4344
g12
(dp4345
S'name'
p4346
g4269
sS'drel'
p4347
S'k1:VGF'
p4348
ssbsba(issf_api
Chunk
p4349
(dp4350
g4037
g742
sg28
I2
sg4094
g753
sg29
I2
sg4028
(lp4351
I36
aI37
asg34
(issf_api
FeatureSet
p4352
(dp4353
g12
(dp4354
S'name'
p4355
g4268
sS'drel'
p4356
S'k2:VGF'
p4357
ssbsba(issf_api
Chunk
p4358
(dp4359
g4037
g809
sg28
I3
sg4094
g822
sg29
I2
sg4028
(lp4360
I38
aI39
aI40
asg34
(issf_api
FeatureSet
p4361
(dp4362
g12
(dp4363
S'name'
p4364
g4287
sS'drel'
p4365
S'r6:NP5'
p4366
ssbsba(issf_api
Chunk
p4367
(dp4368
g4037
g893
sg28
I4
sg4094
g906
sg29
I2
sg4028
(lp4369
I41
aI42
aI43
aI44
asg34
(issf_api
FeatureSet
p4370
(dp4371
g12
(dp4372
S'name'
p4373
g4267
sS'drel'
p4374
S'ras-k2:VGF'
p4375
ssbsba(issf_api
Chunk
p4376
(dp4377
g4037
g937
sg28
I5
sg4094
g948
sg29
I2
sg4028
(lp4378
I45
aI46
aI47
asg34
(issf_api
FeatureSet
p4379
(dp4380
g12
(dp4381
S'name'
p4382
g4261
sS'drel'
p4383
S'ccof:CCP'
p4384
ssbsba(issf_api
Chunk
p4385
(dp4386
g4037
g992
sg28
I6
sg4094
g999
sg29
I2
sg4028
(lp4387
I48
asg34
(issf_api
FeatureSet
p4388
(dp4389
g12
(dp4390
S'name'
p4391
g4270
ssbsba(issf_api
Chunk
p4392
(dp4393
g4037
g1015
sg28
I7
sg4094
g1024
sg29
I2
sg4028
(lp4394
I49
asg34
(issf_api
FeatureSet
p4395
(dp4396
g12
(dp4397
S'name'
p4398
g4314
sS'drel'
p4399
S'r6:NP7'
p4400
ssbsba(issf_api
Chunk
p4401
(dp4402
g4037
g1055
sg28
I8
sg4094
g1062
sg29
I2
sg4028
(lp4403
I50
aI51
aI52
asg34
(issf_api
FeatureSet
p4404
(dp4405
g12
(dp4406
S'name'
p4407
g4281
sS'drel'
p4408
S'jjmod:JJP'
p4409
ssbsba(issf_api
Chunk
p4410
(dp4411
g4037
g1093
sg28
I9
sg4094
g1098
sg29
I2
sg4028
(lp4412
I53
asg34
(issf_api
FeatureSet
p4413
(dp4414
g12
(dp4415
S'name'
p4416
g4275
sS'drel'
p4417
S'nmod:NP8'
p4418
ssbsba(issf_api
Chunk
p4419
(dp4420
g4037
g1180
sg28
I10
sg4094
g1187
sg29
I2
sg4028
(lp4421
I54
aI55
aI56
aI57
aI58
aI59
asg34
(issf_api
FeatureSet
p4422
(dp4423
g12
(dp4424
S'name'
p4425
g4260
sS'drel'
p4426
S'k7p:VGF2'
p4427
ssbsba(issf_api
Chunk
p4428
(dp4429
g4037
g1218
sg28
I11
sg4094
g1229
sg29
I2
sg4028
(lp4430
I60
aI61
aI62
asg34
(issf_api
FeatureSet
p4431
(dp4432
g12
(dp4433
S'name'
p4434
g4254
sS'drel'
p4435
S'ccof:CCP'
p4436
ssbsba(issf_api
Chunk
p4437
(dp4438
g4037
g1277
sg28
I12
sg4094
g1282
sg29
I2
sg4028
(lp4439
I63
asg34
(issf_api
FeatureSet
p4440
(dp4441
g12
(dp4442
S'name'
p4443
g4274
sS'drel'
p4444
S'rsym:CCP'
p4445
ssbsbasba(issf_api
Sentence
p4446
(dp4447
g4026
(lp4448
sg29
I3
sg4028
(lp4449
I64
aI65
aI66
aI67
aI68
aI69
aI70
aI71
aI72
asg4030
(dp4450
S'NP'
p4451
(issf_api
Node
p4452
(dp4453
g4035
S'k1'
p4454
sg4037
g4451
sg4038
S'VGF'
p4455
sg4040
I-1
sg28
I0
sg4041
(lp4456
sbsS'VGF'
p4457
(issf_api
Node
p4458
(dp4459
g4035
g4047
sg4037
g4457
sg4038
g4047
sg4040
I-1
sg28
I3
sg4041
(lp4460
g4451
aS'JJP'
p4461
aS'BLK'
p4462
aS'NP2'
p4463
asbsg4461
(issf_api
Node
p4464
(dp4465
g4035
S'k1s'
p4466
sg4037
g4461
sg4038
S'VGF'
p4467
sg4040
I-1
sg28
I2
sg4041
(lp4468
sbsg4462
(issf_api
Node
p4469
(dp4470
g4035
S'rsym'
p4471
sg4037
g4462
sg4038
S'VGF'
p4472
sg4040
I-1
sg28
I4
sg4041
(lp4473
sbsg4463
(issf_api
Node
p4474
(dp4475
g4035
S'k5'
p4476
sg4037
g4463
sg4038
S'VGF'
p4477
sg4040
I-1
sg28
I1
sg4041
(lp4478
sbssg4090
(lp4479
(issf_api
Chunk
p4480
(dp4481
g4037
g1317
sg28
I0
sg4094
g1326
sg29
I3
sg4028
(lp4482
I64
aI65
asg34
(issf_api
FeatureSet
p4483
(dp4484
g12
(dp4485
S'name'
p4486
g4451
sS'drel'
p4487
S'k1:VGF'
p4488
ssbsba(issf_api
Chunk
p4489
(dp4490
g4037
g1374
sg28
I1
sg4094
g1381
sg29
I3
sg4028
(lp4491
I66
aI67
aI68
aI69
asg34
(issf_api
FeatureSet
p4492
(dp4493
g12
(dp4494
S'name'
p4495
g4463
sS'drel'
p4496
S'k5:VGF'
p4497
ssbsba(issf_api
Chunk
p4498
(dp4499
g4037
g1412
sg28
I2
sg4094
g1417
sg29
I3
sg4028
(lp4500
I70
asg34
(issf_api
FeatureSet
p4501
(dp4502
g12
(dp4503
S'name'
p4504
g4461
sS'drel'
p4505
S'k1s:VGF'
p4506
ssbsba(issf_api
Chunk
p4507
(dp4508
g4037
g1431
sg28
I3
sg4094
g1438
sg29
I3
sg4028
(lp4509
I71
asg34
(issf_api
FeatureSet
p4510
(dp4511
g12
(dp4512
S'name'
p4513
g4457
ssbsba(issf_api
Chunk
p4514
(dp4515
g4037
g1452
sg28
I4
sg4094
g1457
sg29
I3
sg4028
(lp4516
I72
asg34
(issf_api
FeatureSet
p4517
(dp4518
g12
(dp4519
S'name'
p4520
g4462
sS'drel'
p4521
S'rsym:VGF'
p4522
ssbsbasba(issf_api
Sentence
p4523
(dp4524
g4026
(lp4525
sg29
I4
sg4028
(lp4526
I73
aI74
aI75
aI76
aI77
aI78
aI79
aI80
aI81
aI82
aI83
aI84
aI85
aI86
aI87
aI88
aI89
aI90
asg4030
(dp4527
S'VGNN'
p4528
(issf_api
Node
p4529
(dp4530
g4035
S'k7'
p4531
sg4037
g4528
sg4038
S'VGF'
p4532
sg4040
I-1
sg28
I5
sg4041
(lp4533
S'JJP'
p4534
aS'NP4'
p4535
aS'NP2'
p4536
asbsS'VGF'
p4537
(issf_api
Node
p4538
(dp4539
g4035
g4047
sg4037
g4537
sg4038
g4047
sg4040
I-1
sg28
I7
sg4041
(lp4540
g4528
aS'JJP2'
p4541
aS'BLK'
p4542
aS'NP'
p4543
asbsg4534
(issf_api
Node
p4544
(dp4545
g4035
S'pof'
p4546
sg4037
g4534
sg4038
S'VGNN'
p4547
sg4040
I-1
sg28
I4
sg4041
(lp4548
sbsg4541
(issf_api
Node
p4549
(dp4550
g4035
S'k1s'
p4551
sg4037
g4541
sg4038
S'VGF'
p4552
sg4040
I-1
sg28
I6
sg4041
(lp4553
sbsg4542
(issf_api
Node
p4554
(dp4555
g4035
S'rsym'
p4556
sg4037
g4542
sg4038
S'VGF'
p4557
sg4040
I-1
sg28
I8
sg4041
(lp4558
sbsg4543
(issf_api
Node
p4559
(dp4560
g4035
S'k1'
p4561
sg4037
g4543
sg4038
S'VGF'
p4562
sg4040
I-1
sg28
I0
sg4041
(lp4563
sbsg4535
(issf_api
Node
p4564
(dp4565
g4035
S'k2'
p4566
sg4037
g4535
sg4038
S'VGNN'
p4567
sg4040
I-1
sg28
I3
sg4041
(lp4568
S'NP3'
p4569
asbsg4569
(issf_api
Node
p4570
(dp4571
g4035
S'r6'
p4572
sg4037
g4569
sg4038
S'NP4'
p4573
sg4040
I-1
sg28
I2
sg4041
(lp4574
sbsg4536
(issf_api
Node
p4575
(dp4576
g4035
S'vmod'
p4577
sg4037
g4536
sg4038
S'VGNN'
p4578
sg4040
I-1
sg28
I1
sg4041
(lp4579
sbssg4090
(lp4580
(issf_api
Chunk
p4581
(dp4582
g4037
g1473
sg28
I0
sg4094
g1482
sg29
I4
sg4028
(lp4583
I73
asg34
(issf_api
FeatureSet
p4584
(dp4585
g12
(dp4586
S'name'
p4587
g4543
sS'drel'
p4588
S'k1:VGF'
p4589
ssbsba(issf_api
Chunk
p4590
(dp4591
g4037
g1555
sg28
I1
sg4094
g1564
sg29
I4
sg4028
(lp4592
I74
aI75
aI76
aI77
aI78
asg34
(issf_api
FeatureSet
p4593
(dp4594
g12
(dp4595
S'name'
p4596
g4536
sS'drel'
p4597
S'vmod:VGNN'
p4598
ssbsba(issf_api
Chunk
p4599
(dp4600
g4037
g1597
sg28
I2
sg4094
g1608
sg29
I4
sg4028
(lp4601
I79
aI80
asg34
(issf_api
FeatureSet
p4602
(dp4603
g12
(dp4604
S'name'
p4605
g4569
sS'drel'
p4606
S'r6:NP4'
p4607
ssbsba(issf_api
Chunk
p4608
(dp4609
g4037
g1673
sg28
I3
sg4094
g1680
sg29
I4
sg4028
(lp4610
I81
aI82
aI83
aI84
asg34
(issf_api
FeatureSet
p4611
(dp4612
g12
(dp4613
S'name'
p4614
g4535
sS'drel'
p4615
S'k2:VGNN'
p4616
ssbsba(issf_api
Chunk
p4617
(dp4618
g4037
g1711
sg28
I4
sg4094
g1716
sg29
I4
sg4028
(lp4619
I85
asg34
(issf_api
FeatureSet
p4620
(dp4621
g12
(dp4622
S'name'
p4623
g4534
sS'drel'
p4624
S'pof:VGNN'
p4625
ssbsba(issf_api
Chunk
p4626
(dp4627
g4037
g1730
sg28
I5
sg4094
g1737
sg29
I4
sg4028
(lp4628
I86
aI87
asg34
(issf_api
FeatureSet
p4629
(dp4630
g12
(dp4631
S'name'
p4632
g4528
sS'drel'
p4633
S'k7:VGF'
p4634
ssbsba(issf_api
Chunk
p4635
(dp4636
g4037
g1768
sg28
I6
sg4094
g1773
sg29
I4
sg4028
(lp4637
I88
asg34
(issf_api
FeatureSet
p4638
(dp4639
g12
(dp4640
S'name'
p4641
g4541
sS'drel'
p4642
S'k1s:VGF'
p4643
ssbsba(issf_api
Chunk
p4644
(dp4645
g4037
g1787
sg28
I7
sg4094
g1794
sg29
I4
sg4028
(lp4646
I89
asg34
(issf_api
FeatureSet
p4647
(dp4648
g12
(dp4649
S'name'
p4650
g4537
ssbsba(issf_api
Chunk
p4651
(dp4652
g4037
g1808
sg28
I8
sg4094
g1813
sg29
I4
sg4028
(lp4653
I90
asg34
(issf_api
FeatureSet
p4654
(dp4655
g12
(dp4656
S'name'
p4657
g4542
sS'drel'
p4658
S'rsym:VGF'
p4659
ssbsbasba(issf_api
Sentence
p4660
(dp4661
g4026
(lp4662
sg29
I5
sg4028
(lp4663
I91
aI92
aI93
aI94
aI95
aI96
aI97
aI98
aI99
aI100
aI101
aI102
aI103
aI104
aI105
aI106
aI107
aI108
aI109
aI110
aI111
aI112
aI113
aI114
aI115
aI116
aI117
aI118
aI119
aI120
aI121
aI122
aI123
aI124
aI125
asg4030
(dp4664
S'VGNN'
p4665
(issf_api
Node
p4666
(dp4667
g4035
S'k1'
p4668
sg4037
g4665
sg4038
S'VGNN2'
p4669
sg4040
I-1
sg28
I1
sg4041
(lp4670
S'NP'
p4671
asbsS'VGF'
p4672
(issf_api
Node
p4673
(dp4674
g4035
g4047
sg4037
g4672
sg4038
g4047
sg4040
I-1
sg28
I9
sg4041
(lp4675
S'JJP'
p4676
aS'BLK'
p4677
aS'NP4'
p4678
aS'NP6'
p4679
aS'NP3'
p4680
asbsS'VGF2'
p4681
(issf_api
Node
p4682
(dp4683
g4035
S'nmod__relc'
p4684
sg4037
g4681
sg4038
S'NP4'
p4685
sg4040
I-1
sg28
I14
sg4041
(lp4686
S'NP8'
p4687
aS'NP10'
p4688
aS'NP7'
p4689
asbsg4676
(issf_api
Node
p4690
(dp4691
g4035
S'pof'
p4692
sg4037
g4676
sg4038
S'VGF'
p4693
sg4040
I-1
sg28
I8
sg4041
(lp4694
sbsS'VGNN2'
p4695
(issf_api
Node
p4696
(dp4697
g4035
S'nmod'
p4698
sg4037
g4695
sg4038
S'NP3'
p4699
sg4040
I-1
sg28
I3
sg4041
(lp4700
g4665
aS'NP2'
p4701
asbsS'NP5'
p4702
(issf_api
Node
p4703
(dp4704
g4035
S'r6'
p4705
sg4037
g4702
sg4038
S'NP6'
p4706
sg4040
I-1
sg28
I6
sg4041
(lp4707
sbsS'NP9'
p4708
(issf_api
Node
p4709
(dp4710
g4035
S'r6'
p4711
sg4037
g4708
sg4038
S'NP10'
p4712
sg4040
I-1
sg28
I12
sg4041
(lp4713
sbsg4687
(issf_api
Node
p4714
(dp4715
g4035
S'k1'
p4716
sg4037
g4687
sg4038
S'VGF2'
p4717
sg4040
I-1
sg28
I11
sg4041
(lp4718
sbsg4677
(issf_api
Node
p4719
(dp4720
g4035
S'rsym'
p4721
sg4037
g4677
sg4038
S'VGF'
p4722
sg4040
I-1
sg28
I15
sg4041
(lp4723
sbsg4688
(issf_api
Node
p4724
(dp4725
g4035
S'k2'
p4726
sg4037
g4688
sg4038
S'VGF2'
p4727
sg4040
I-1
sg28
I13
sg4041
(lp4728
g4708
asbsg4671
(issf_api
Node
p4729
(dp4730
g4035
S'k2'
p4731
sg4037
g4671
sg4038
S'VGNN'
p4732
sg4040
I-1
sg28
I0
sg4041
(lp4733
sbsg4678
(issf_api
Node
p4734
(dp4735
g4035
S'k7t'
p4736
sg4037
g4678
sg4038
S'VGF'
p4737
sg4040
I-1
sg28
I5
sg4041
(lp4738
g4681
asbsg4689
(issf_api
Node
p4739
(dp4740
g4035
S'k7t'
p4741
sg4037
g4689
sg4038
S'VGF2'
p4742
sg4040
I-1
sg28
I10
sg4041
(lp4743
sbsg4679
(issf_api
Node
p4744
(dp4745
g4035
S'k2'
p4746
sg4037
g4679
sg4038
S'VGF'
p4747
sg4040
I-1
sg28
I7
sg4041
(lp4748
g4702
asbsg4680
(issf_api
Node
p4749
(dp4750
g4035
S'k1'
p4751
sg4037
g4680
sg4038
S'VGF'
p4752
sg4040
I-1
sg28
I4
sg4041
(lp4753
g4695
asbsg4701
(issf_api
Node
p4754
(dp4755
g4035
S'k2'
p4756
sg4037
g4701
sg4038
S'VGNN2'
p4757
sg4040
I-1
sg28
I2
sg4041
(lp4758
sbssg4090
(lp4759
(issf_api
Chunk
p4760
(dp4761
g4037
g1848
sg28
I0
sg4094
g1859
sg29
I5
sg4028
(lp4762
I91
aI92
asg34
(issf_api
FeatureSet
p4763
(dp4764
g12
(dp4765
S'name'
p4766
g4671
sS'drel'
p4767
S'k2:VGNN'
p4768
ssbsba(issf_api
Chunk
p4769
(dp4770
g4037
g1873
sg28
I1
sg4094
g1880
sg29
I5
sg4028
(lp4771
I93
aI94
aI95
asg34
(issf_api
FeatureSet
p4772
(dp4773
g12
(dp4774
S'name'
p4775
g4665
sS'drel'
p4776
S'k1:VGNN2'
p4777
ssbsba(issf_api
Chunk
p4778
(dp4779
g4037
g1969
sg28
I2
sg4094
g1978
sg29
I5
sg4028
(lp4780
I96
aI97
aI98
asg34
(issf_api
FeatureSet
p4781
(dp4782
g12
(dp4783
S'name'
p4784
g4701
sS'drel'
p4785
S'k2:VGNN2'
p4786
ssbsba(issf_api
Chunk
p4787
(dp4788
g4037
g1992
sg28
I3
sg4094
g1999
sg29
I5
sg4028
(lp4789
I99
aI100
aI101
asg34
(issf_api
FeatureSet
p4790
(dp4791
g12
(dp4792
S'name'
p4793
g4695
sS'drel'
p4794
S'nmod:NP3'
p4795
ssbsba(issf_api
Chunk
p4796
(dp4797
g4037
g2068
sg28
I4
sg4094
g2077
sg29
I5
sg4028
(lp4798
I102
aI103
asg34
(issf_api
FeatureSet
p4799
(dp4800
g12
(dp4801
S'name'
p4802
g4680
sS'drel'
p4803
S'k1:VGF'
p4804
ssbsba(issf_api
Chunk
p4805
(dp4806
g4037
g2093
sg28
I5
sg4094
g2106
sg29
I5
sg4028
(lp4807
I104
aI105
asg34
(issf_api
FeatureSet
p4808
(dp4809
g12
(dp4810
S'name'
p4811
g4678
sS'drel'
p4812
S'k7t:VGF'
p4813
ssbsba(issf_api
Chunk
p4814
(dp4815
g4037
g2141
sg28
I6
sg4094
g2154
sg29
I5
sg4028
(lp4816
I106
asg34
(issf_api
FeatureSet
p4817
(dp4818
g12
(dp4819
S'name'
p4820
g4702
sS'drel'
p4821
S'r6:NP6'
p4822
ssbsba(issf_api
Chunk
p4823
(dp4824
g4037
g2170
sg28
I7
sg4094
g2183
sg29
I5
sg4028
(lp4825
I107
aI108
asg34
(issf_api
FeatureSet
p4826
(dp4827
g12
(dp4828
S'name'
p4829
g4679
sS'drel'
p4830
S'k2:VGF'
p4831
ssbsba(issf_api
Chunk
p4832
(dp4833
g4037
g2214
sg28
I8
sg4094
g2219
sg29
I5
sg4028
(lp4834
I109
asg34
(issf_api
FeatureSet
p4835
(dp4836
g12
(dp4837
S'name'
p4838
g4676
sS'drel'
p4839
S'pof:VGF'
p4840
ssbsba(issf_api
Chunk
p4841
(dp4842
g4037
g2250
sg28
I9
sg4094
g2257
sg29
I5
sg4028
(lp4843
I110
aI111
aI112
asg34
(issf_api
FeatureSet
p4844
(dp4845
g12
(dp4846
S'name'
p4847
g4672
ssbsba(issf_api
Chunk
p4848
(dp4849
g4037
g2292
sg28
I10
sg4094
g2305
sg29
I5
sg4028
(lp4850
I113
aI114
aI115
asg34
(issf_api
FeatureSet
p4851
(dp4852
g12
(dp4853
S'name'
p4854
g4689
sS'drel'
p4855
S'k7t:VGF2'
p4856
ssbsba(issf_api
Chunk
p4857
(dp4858
g4037
g2355
sg28
I11
sg4094
g2364
sg29
I5
sg4028
(lp4859
I116
asg34
(issf_api
FeatureSet
p4860
(dp4861
g12
(dp4862
S'name'
p4863
g4687
sS'drel'
p4864
S'k1:VGF2'
p4865
ssbsba(issf_api
Chunk
p4866
(dp4867
g4037
g2380
sg28
I12
sg4094
g2389
sg29
I5
sg4028
(lp4868
I117
asg34
(issf_api
FeatureSet
p4869
(dp4870
g12
(dp4871
S'name'
p4872
g4708
sS'drel'
p4873
S'r6:NP10'
p4874
ssbsba(issf_api
Chunk
p4875
(dp4876
g4037
g2463
sg28
I13
sg4094
g2472
sg29
I5
sg4028
(lp4877
I118
aI119
aI120
aI121
asg34
(issf_api
FeatureSet
p4878
(dp4879
g12
(dp4880
S'name'
p4881
g4688
sS'drel'
p4882
S'k2:VGF2'
p4883
ssbsba(issf_api
Chunk
p4884
(dp4885
g4037
g2503
sg28
I14
sg4094
g2514
sg29
I5
sg4028
(lp4886
I122
aI123
aI124
asg34
(issf_api
FeatureSet
p4887
(dp4888
g12
(dp4889
S'name'
p4890
g4681
sS'drel'
p4891
S'nmod__relc:NP4'
p4892
ssbsba(issf_api
Chunk
p4893
(dp4894
g4037
g2545
sg28
I15
sg4094
g2550
sg29
I5
sg4028
(lp4895
I125
asg34
(issf_api
FeatureSet
p4896
(dp4897
g12
(dp4898
S'name'
p4899
g4677
sS'drel'
p4900
S'rsym:VGF'
p4901
ssbsbasba(issf_api
Sentence
p4902
(dp4903
g4026
(lp4904
sg29
I6
sg4028
(lp4905
I126
aI127
aI128
aI129
aI130
aI131
aI132
aI133
aI134
aI135
aI136
aI137
aI138
aI139
aI140
aI141
aI142
aI143
aI144
aI145
aI146
aI147
asg4030
(dp4906
S'VGNN'
p4907
(issf_api
Node
p4908
(dp4909
g4035
S'rt'
p4910
sg4037
g4907
sg4038
S'VGF'
p4911
sg4040
I-1
sg28
I2
sg4041
(lp4912
S'NP'
p4913
aS'NP2'
p4914
asbsS'VGF'
p4915
(issf_api
Node
p4916
(dp4917
g4035
g4047
sg4037
g4915
sg4038
g4047
sg4040
I-1
sg28
I6
sg4041
(lp4918
g4907
aS'NP5'
p4919
aS'BLK'
p4920
aS'NP4'
p4921
asbsS'CCP'
p4922
(issf_api
Node
p4923
(dp4924
g4035
S'rs'
p4925
sg4037
g4922
sg4038
S'NP5'
p4926
sg4040
I-1
sg28
I7
sg4041
(lp4927
S'VGF2'
p4928
asbsg4928
(issf_api
Node
p4929
(dp4930
g4035
S'ccof'
p4931
sg4037
g4928
sg4038
S'CCP'
p4932
sg4040
I-1
sg28
I10
sg4041
(lp4933
S'NP7'
p4934
aS'NP6'
p4935
asbsg4919
(issf_api
Node
p4936
(dp4937
g4035
S'k1s'
p4938
sg4037
g4919
sg4038
S'VGF'
p4939
sg4040
I-1
sg28
I5
sg4041
(lp4940
g4922
asbsg4920
(issf_api
Node
p4941
(dp4942
g4035
S'rsym'
p4943
sg4037
g4920
sg4038
S'VGF'
p4944
sg4040
I-1
sg28
I11
sg4041
(lp4945
sbsg4913
(issf_api
Node
p4946
(dp4947
g4035
S'k1'
p4948
sg4037
g4913
sg4038
S'VGNN'
p4949
sg4040
I-1
sg28
I0
sg4041
(lp4950
sbsg4921
(issf_api
Node
p4951
(dp4952
g4035
S'k1'
p4953
sg4037
g4921
sg4038
S'VGF'
p4954
sg4040
I-1
sg28
I4
sg4041
(lp4955
S'NP3'
p4956
asbsg4934
(issf_api
Node
p4957
(dp4958
g4035
S'pof'
p4959
sg4037
g4934
sg4038
S'VGF2'
p4960
sg4040
I-1
sg28
I9
sg4041
(lp4961
sbsg4935
(issf_api
Node
p4962
(dp4963
g4035
S'k4a'
p4964
sg4037
g4935
sg4038
S'VGF2'
p4965
sg4040
I-1
sg28
I8
sg4041
(lp4966
sbsg4956
(issf_api
Node
p4967
(dp4968
g4035
S'r6'
p4969
sg4037
g4956
sg4038
S'NP4'
p4970
sg4040
I-1
sg28
I3
sg4041
(lp4971
sbsg4914
(issf_api
Node
p4972
(dp4973
g4035
S'pof'
p4974
sg4037
g4914
sg4038
S'VGNN'
p4975
sg4040
I-1
sg28
I1
sg4041
(lp4976
sbssg4090
(lp4977
(issf_api
Chunk
p4978
(dp4979
g4037
g2566
sg28
I0
sg4094
g2577
sg29
I6
sg4028
(lp4980
I126
aI127
asg34
(issf_api
FeatureSet
p4981
(dp4982
g12
(dp4983
S'name'
p4984
g4913
sS'drel'
p4985
S'k1:VGNN'
p4986
ssbsba(issf_api
Chunk
p4987
(dp4988
g4037
g2608
sg28
I1
sg4094
g2613
sg29
I6
sg4028
(lp4989
I128
asg34
(issf_api
FeatureSet
p4990
(dp4991
g12
(dp4992
S'name'
p4993
g4914
sS'drel'
p4994
S'pof:VGNN'
p4995
ssbsba(issf_api
Chunk
p4996
(dp4997
g4037
g2627
sg28
I2
sg4094
g2634
sg29
I6
sg4028
(lp4998
I129
aI130
aI131
asg34
(issf_api
FeatureSet
p4999
(dp5000
g12
(dp5001
S'name'
p5002
g4907
sS'drel'
p5003
S'rt:VGF'
p5004
ssbsba(issf_api
Chunk
p5005
(dp5006
g4037
g2684
sg28
I3
sg4094
g2695
sg29
I6
sg4028
(lp5007
I132
aI133
asg34
(issf_api
FeatureSet
p5008
(dp5009
g12
(dp5010
S'name'
p5011
g4956
sS'drel'
p5012
S'r6:NP4'
p5013
ssbsba(issf_api
Chunk
p5014
(dp5015
g4037
g2726
sg28
I4
sg4094
g2731
sg29
I6
sg4028
(lp5016
I134
asg34
(issf_api
FeatureSet
p5017
(dp5018
g12
(dp5019
S'name'
p5020
g4921
sS'drel'
p5021
S'k1:VGF'
p5022
ssbsba(issf_api
Chunk
p5023
(dp5024
g4037
g2762
sg28
I5
sg4094
g2769
sg29
I6
sg4028
(lp5025
I135
aI136
aI137
asg34
(issf_api
FeatureSet
p5026
(dp5027
g12
(dp5028
S'name'
p5029
g4919
sS'drel'
p5030
S'k1s:VGF'
p5031
ssbsba(issf_api
Chunk
p5032
(dp5033
g4037
g2800
sg28
I6
sg4094
g2809
sg29
I6
sg4028
(lp5034
I138
aI139
aI140
asg34
(issf_api
FeatureSet
p5035
(dp5036
g12
(dp5037
S'name'
p5038
g4915
ssbsba(issf_api
Chunk
p5039
(dp5040
g4037
g2857
sg28
I7
sg4094
g2862
sg29
I6
sg4028
(lp5041
I141
asg34
(issf_api
FeatureSet
p5042
(dp5043
g12
(dp5044
S'name'
p5045
g4922
sS'drel'
p5046
S'rs:NP5'
p5047
ssbsba(issf_api
Chunk
p5048
(dp5049
g4037
g2878
sg28
I8
sg4094
g2891
sg29
I6
sg4028
(lp5050
I142
aI143
asg34
(issf_api
FeatureSet
p5051
(dp5052
g12
(dp5053
S'name'
p5054
g4935
sS'drel'
p5055
S'k4a:VGF2'
p5056
ssbsba(issf_api
Chunk
p5057
(dp5058
g4037
g2922
sg28
I9
sg4094
g2927
sg29
I6
sg4028
(lp5059
I144
asg34
(issf_api
FeatureSet
p5060
(dp5061
g12
(dp5062
S'name'
p5063
g4934
sS'drel'
p5064
S'pof:VGF2'
p5065
ssbsba(issf_api
Chunk
p5066
(dp5067
g4037
g2958
sg28
I10
sg4094
g2967
sg29
I6
sg4028
(lp5068
I145
aI146
asg34
(issf_api
FeatureSet
p5069
(dp5070
g12
(dp5071
S'name'
p5072
g4928
sS'drel'
p5073
S'ccof:CCP'
p5074
ssbsba(issf_api
Chunk
p5075
(dp5076
g4037
g2981
sg28
I11
sg4094
g2986
sg29
I6
sg4028
(lp5077
I147
asg34
(issf_api
FeatureSet
p5078
(dp5079
g12
(dp5080
S'name'
p5081
g4920
sS'drel'
p5082
S'rsym:VGF'
p5083
ssbsbasba(issf_api
Sentence
p5084
(dp5085
g4026
(lp5086
sg29
I7
sg4028
(lp5087
I148
aI149
aI150
aI151
aI152
aI153
aI154
aI155
aI156
aI157
aI158
aI159
aI160
aI161
aI162
aI163
aI164
aI165
aI166
aI167
aI168
aI169
aI170
aI171
aI172
aI173
aI174
aI175
aI176
aI177
aI178
aI179
aI180
aI181
aI182
aI183
aI184
aI185
aI186
aI187
aI188
aI189
aI190
aI191
aI192
aI193
aI194
aI195
aI196
asg4030
(dp5088
S'VGF4'
p5089
(issf_api
Node
p5090
(dp5091
g4035
S'ccof'
p5092
sg4037
g5089
sg4038
S'CCP3'
p5093
sg4040
I-1
sg28
I23
sg4041
(lp5094
S'NP15'
p5095
aS'NP14'
p5096
asbsg5095
(issf_api
Node
p5097
(dp5098
g4035
S'k1'
p5099
sg4037
g5095
sg4038
S'VGF4'
p5100
sg4040
I-1
sg28
I22
sg4041
(lp5101
sbsS'CCP'
p5102
(issf_api
Node
p5103
(dp5104
g4035
S'rs'
p5105
sg4037
g5102
sg4038
S'NP4'
p5106
sg4040
I-1
sg28
I8
sg4041
(lp5107
S'VGF2'
p5108
asbsg5096
(issf_api
Node
p5109
(dp5110
g4035
S'k2'
p5111
sg4037
g5096
sg4038
S'VGF4'
p5112
sg4040
I-1
sg28
I21
sg4041
(lp5113
sbsS'VGNN2'
p5114
(issf_api
Node
p5115
(dp5116
g4035
S'r6'
p5117
sg4037
g5114
sg4038
S'NP4'
p5118
sg4040
I-1
sg28
I5
sg4041
(lp5119
S'NP2'
p5120
aS'VGNN'
p5121
asbsS'NP9'
p5122
(issf_api
Node
p5123
(dp5124
g4035
S'k7'
p5125
sg4037
g5122
sg4038
S'VGF3'
p5126
sg4040
I-1
sg28
I14
sg4041
(lp5127
sbsS'NP8'
p5128
(issf_api
Node
p5129
(dp5130
g4035
S'k2'
p5131
sg4037
g5128
sg4038
S'VGF2'
p5132
sg4040
I-1
sg28
I12
sg4041
(lp5133
S'NP7'
p5134
asbsS'NP5'
p5135
(issf_api
Node
p5136
(dp5137
g4035
S'k1'
p5138
sg4037
g5135
sg4038
S'VGF2'
p5139
sg4040
I-1
sg28
I9
sg4041
(lp5140
sbsS'NP4'
p5141
(issf_api
Node
p5142
(dp5143
g4035
S'k1'
p5144
sg4037
g5141
sg4038
S'VGF'
p5145
sg4040
I-1
sg28
I6
sg4041
(lp5146
g5102
ag5114
asbsg5134
(issf_api
Node
p5147
(dp5148
g4035
S'r6'
p5149
sg4037
g5134
sg4038
S'NP8'
p5150
sg4040
I-1
sg28
I11
sg4041
(lp5151
sbsS'NP6'
p5152
(issf_api
Node
p5153
(dp5154
g4035
S'k7t'
p5155
sg4037
g5152
sg4038
S'VGF2'
p5156
sg4040
I-1
sg28
I10
sg4041
(lp5157
S'VGF3'
p5158
asbsS'CCP2'
p5159
(issf_api
Node
p5160
(dp5161
g4035
S'rs'
p5162
sg4037
g5159
sg4038
S'NP12'
p5163
sg4040
I-1
sg28
I20
sg4041
(lp5164
S'CCP3'
p5165
asbsg5165
(issf_api
Node
p5166
(dp5167
g4035
S'ccof'
p5168
sg4037
g5165
sg4038
S'CCP2'
p5169
sg4040
I-1
sg28
I24
sg4041
(lp5170
g5089
aS'VGF5'
p5171
asbsS'NP3'
p5172
(issf_api
Node
p5173
(dp5174
g4035
S'k2'
p5175
sg4037
g5172
sg4038
S'VGNN'
p5176
sg4040
I-1
sg28
I2
sg4041
(lp5177
sbsg5120
(issf_api
Node
p5178
(dp5179
g4035
S'k1'
p5180
sg4037
g5120
sg4038
S'VGNN2'
p5181
sg4040
I-1
sg28
I1
sg4041
(lp5182
S'NP'
p5183
asbsS'NP11'
p5184
(issf_api
Node
p5185
(dp5186
g4035
S'adv'
p5187
sg4037
g5184
sg4038
S'VGF3'
p5188
sg4040
I-1
sg28
I16
sg4041
(lp5189
sbsS'NP10'
p5190
(issf_api
Node
p5191
(dp5192
g4035
S'k4a'
p5193
sg4037
g5190
sg4038
S'VGF3'
p5194
sg4040
I-1
sg28
I15
sg4041
(lp5195
sbsS'NP13'
p5196
(issf_api
Node
p5197
(dp5198
g4035
S'pof'
p5199
sg4037
g5196
sg4038
S'VGF3'
p5200
sg4040
I-1
sg28
I18
sg4041
(lp5201
sbsS'NP12'
p5202
(issf_api
Node
p5203
(dp5204
g4035
S'k1'
p5205
sg4037
g5202
sg4038
S'VGF3'
p5206
sg4040
I-1
sg28
I17
sg4041
(lp5207
g5159
asbsg5158
(issf_api
Node
p5208
(dp5209
g4035
S'nmod__relc'
p5210
sg4037
g5158
sg4038
S'NP6'
p5211
sg4040
I-1
sg28
I19
sg4041
(lp5212
g5122
ag5184
ag5190
ag5196
ag5202
asbsg5108
(issf_api
Node
p5213
(dp5214
g4035
S'ccof'
p5215
sg4037
g5108
sg4038
S'CCP'
p5216
sg4040
I-1
sg28
I13
sg4041
(lp5217
g5128
ag5135
ag5152
asbsS'NP17'
p5218
(issf_api
Node
p5219
(dp5220
g4035
S'k1'
p5221
sg4037
g5218
sg4038
S'VGF5'
p5222
sg4040
I-1
sg28
I26
sg4041
(lp5223
sbsS'NP16'
p5224
(issf_api
Node
p5225
(dp5226
g4035
S'k7'
p5227
sg4037
g5224
sg4038
S'VGF5'
p5228
sg4040
I-1
sg28
I25
sg4041
(lp5229
sbsg5183
(issf_api
Node
p5230
(dp5231
g4035
S'nmod'
p5232
sg4037
g5183
sg4038
S'NP2'
p5233
sg4040
I-1
sg28
I0
sg4041
(lp5234
sbsg5121
(issf_api
Node
p5235
(dp5236
g4035
S'k5'
p5237
sg4037
g5121
sg4038
S'VGNN2'
p5238
sg4040
I-1
sg28
I4
sg4041
(lp5239
g5172
aS'JJP'
p5240
asbsS'VGF'
p5241
(issf_api
Node
p5242
(dp5243
g4035
g4047
sg4037
g5241
sg4038
g4047
sg4040
I-1
sg28
I7
sg4041
(lp5244
g5141
aS'BLK'
p5245
asbsg5245
(issf_api
Node
p5246
(dp5247
g4035
S'rsym'
p5248
sg4037
g5245
sg4038
S'VGF'
p5249
sg4040
I-1
sg28
I28
sg4041
(lp5250
sbsg5240
(issf_api
Node
p5251
(dp5252
g4035
S'pof'
p5253
sg4037
g5240
sg4038
S'VGNN'
p5254
sg4040
I-1
sg28
I3
sg4041
(lp5255
sbsg5171
(issf_api
Node
p5256
(dp5257
g4035
S'ccof'
p5258
sg4037
g5171
sg4038
S'CCP3'
p5259
sg4040
I-1
sg28
I27
sg4041
(lp5260
g5218
ag5224
asbssg4090
(lp5261
(issf_api
Chunk
p5262
(dp5263
g4037
g3004
sg28
I0
sg4094
g3015
sg29
I7
sg4028
(lp5264
I148
asg34
(issf_api
FeatureSet
p5265
(dp5266
g12
(dp5267
S'name'
p5268
g5183
sS'drel'
p5269
S'nmod:NP2'
p5270
ssbsba(issf_api
Chunk
p5271
(dp5272
g4037
g3031
sg28
I1
sg4094
g3044
sg29
I7
sg4028
(lp5273
I149
aI150
asg34
(issf_api
FeatureSet
p5274
(dp5275
g12
(dp5276
S'name'
p5277
g5120
sS'drel'
p5278
S'k1:VGNN2'
p5279
ssbsba(issf_api
Chunk
p5280
(dp5281
g4037
g3096
sg28
I2
sg4094
g3107
sg29
I7
sg4028
(lp5282
I151
aI152
aI153
asg34
(issf_api
FeatureSet
p5283
(dp5284
g12
(dp5285
S'name'
p5286
g5172
sS'drel'
p5287
S'k2:VGNN'
p5288
ssbsba(issf_api
Chunk
p5289
(dp5290
g4037
g3138
sg28
I3
sg4094
g3143
sg29
I7
sg4028
(lp5291
I154
asg34
(issf_api
FeatureSet
p5292
(dp5293
g12
(dp5294
S'name'
p5295
g5240
sS'drel'
p5296
S'pof:VGNN'
p5297
ssbsba(issf_api
Chunk
p5298
(dp5299
g4037
g3157
sg28
I4
sg4094
g3164
sg29
I7
sg4028
(lp5300
I155
aI156
asg34
(issf_api
FeatureSet
p5301
(dp5302
g12
(dp5303
S'name'
p5304
g5121
sS'drel'
p5305
S'k5:VGNN2'
p5306
ssbsba(issf_api
Chunk
p5307
(dp5308
g4037
g3195
sg28
I5
sg4094
g3202
sg29
I7
sg4028
(lp5309
I157
aI158
asg34
(issf_api
FeatureSet
p5310
(dp5311
g12
(dp5312
S'name'
p5313
g5114
sS'drel'
p5314
S'r6:NP4'
p5315
ssbsba(issf_api
Chunk
p5316
(dp5317
g4037
g3267
sg28
I6
sg4094
g3272
sg29
I7
sg4028
(lp5318
I159
aI160
aI161
asg34
(issf_api
FeatureSet
p5319
(dp5320
g12
(dp5321
S'name'
p5322
g5141
sS'drel'
p5323
S'k1:VGF'
p5324
ssbsba(issf_api
Chunk
p5325
(dp5326
g4037
g3286
sg28
I7
sg4094
g3293
sg29
I7
sg4028
(lp5327
I162
asg34
(issf_api
FeatureSet
p5328
(dp5329
g12
(dp5330
S'name'
p5331
g5241
ssbsba(issf_api
Chunk
p5332
(dp5333
g4037
g3307
sg28
I8
sg4094
g3312
sg29
I7
sg4028
(lp5334
I163
asg34
(issf_api
FeatureSet
p5335
(dp5336
g12
(dp5337
S'name'
p5338
g5102
sS'drel'
p5339
S'rs:NP4'
p5340
ssbsba(issf_api
Chunk
p5341
(dp5342
g4037
g3328
sg28
I9
sg4094
g3337
sg29
I7
sg4028
(lp5343
I164
asg34
(issf_api
FeatureSet
p5344
(dp5345
g12
(dp5346
S'name'
p5347
g5135
sS'drel'
p5348
S'k1:VGF2'
p5349
ssbsba(issf_api
Chunk
p5350
(dp5351
g4037
g3353
sg28
I10
sg4094
g3366
sg29
I7
sg4028
(lp5352
I165
aI166
asg34
(issf_api
FeatureSet
p5353
(dp5354
g12
(dp5355
S'name'
p5356
g5152
sS'drel'
p5357
S'k7t:VGF2'
p5358
ssbsba(issf_api
Chunk
p5359
(dp5360
g4037
g3399
sg28
I11
sg4094
g3408
sg29
I7
sg4028
(lp5361
I167
asg34
(issf_api
FeatureSet
p5362
(dp5363
g12
(dp5364
S'name'
p5365
g5134
sS'drel'
p5366
S'r6:NP8'
p5367
ssbsba(issf_api
Chunk
p5368
(dp5369
g4037
g3482
sg28
I12
sg4094
g3491
sg29
I7
sg4028
(lp5370
I168
aI169
aI170
aI171
asg34
(issf_api
FeatureSet
p5371
(dp5372
g12
(dp5373
S'name'
p5374
g5128
sS'drel'
p5375
S'k2:VGF2'
p5376
ssbsba(issf_api
Chunk
p5377
(dp5378
g4037
g3522
sg28
I13
sg4094
g3531
sg29
I7
sg4028
(lp5379
I172
aI173
aI174
asg34
(issf_api
FeatureSet
p5380
(dp5381
g12
(dp5382
S'name'
p5383
g5108
sS'drel'
p5384
S'ccof:CCP'
p5385
ssbsba(issf_api
Chunk
p5386
(dp5387
g4037
g3565
sg28
I14
sg4094
g3578
sg29
I7
sg4028
(lp5388
I175
aI176
aI177
asg34
(issf_api
FeatureSet
p5389
(dp5390
g12
(dp5391
S'name'
p5392
g5122
sS'drel'
p5393
S'k7:VGF3'
p5394
ssbsba(issf_api
Chunk
p5395
(dp5396
g4037
g3628
sg28
I15
sg4094
g3637
sg29
I7
sg4028
(lp5397
I178
asg34
(issf_api
FeatureSet
p5398
(dp5399
g12
(dp5400
S'name'
p5401
g5190
sS'drel'
p5402
S'k4a:VGF3'
p5403
ssbsba(issf_api
Chunk
p5404
(dp5405
g4037
g3668
sg28
I16
sg4094
g3675
sg29
I7
sg4028
(lp5406
I179
aI180
aI181
asg34
(issf_api
FeatureSet
p5407
(dp5408
g12
(dp5409
S'name'
p5410
g5184
sS'drel'
p5411
S'adv:VGF3'
p5412
ssbsba(issf_api
Chunk
p5413
(dp5414
g4037
g3708
sg28
I17
sg4094
g3717
sg29
I7
sg4028
(lp5415
I182
asg34
(issf_api
FeatureSet
p5416
(dp5417
g12
(dp5418
S'name'
p5419
g5202
sS'drel'
p5420
S'k1:VGF3'
p5421
ssbsba(issf_api
Chunk
p5422
(dp5423
g4037
g3731
sg28
I18
sg4094
g3736
sg29
I7
sg4028
(lp5424
I183
asg34
(issf_api
FeatureSet
p5425
(dp5426
g12
(dp5427
S'name'
p5428
g5196
sS'drel'
p5429
S'pof:VGF3'
p5430
ssbsba(issf_api
Chunk
p5431
(dp5432
g4037
g3767
sg28
I19
sg4094
g3776
sg29
I7
sg4028
(lp5433
I184
aI185
asg34
(issf_api
FeatureSet
p5434
(dp5435
g12
(dp5436
S'name'
p5437
g5158
sS'drel'
p5438
S'nmod__relc:NP6'
p5439
ssbsba(issf_api
Chunk
p5440
(dp5441
g4037
g3790
sg28
I20
sg4094
g3795
sg29
I7
sg4028
(lp5442
I186
asg34
(issf_api
FeatureSet
p5443
(dp5444
g12
(dp5445
S'name'
p5446
g5159
sS'drel'
p5447
S'rs:NP12'
p5448
ssbsba(issf_api
Chunk
p5449
(dp5450
g4037
g3811
sg28
I21
sg4094
g3820
sg29
I7
sg4028
(lp5451
I187
asg34
(issf_api
FeatureSet
p5452
(dp5453
g12
(dp5454
S'name'
p5455
g5096
sS'drel'
p5456
S'k2:VGF4'
p5457
ssbsba(issf_api
Chunk
p5458
(dp5459
g4037
g3834
sg28
I22
sg4094
g3841
sg29
I7
sg4028
(lp5460
I188
asg34
(issf_api
FeatureSet
p5461
(dp5462
g12
(dp5463
S'name'
p5464
g5095
sS'drel'
p5465
S'k1:VGF4'
p5466
ssbsba(issf_api
Chunk
p5467
(dp5468
g4037
g3855
sg28
I23
sg4094
g3868
sg29
I7
sg4028
(lp5469
I189
aI190
asg34
(issf_api
FeatureSet
p5470
(dp5471
g12
(dp5472
S'name'
p5473
g5089
sS'drel'
p5474
S'ccof:CCP3'
p5475
ssbsba(issf_api
Chunk
p5476
(dp5477
g4037
g3901
sg28
I24
sg4094
g3908
sg29
I7
sg4028
(lp5478
I191
asg34
(issf_api
FeatureSet
p5479
(dp5480
g12
(dp5481
S'name'
p5482
g5165
sS'drel'
p5483
S'ccof:CCP2'
p5484
ssbsba(issf_api
Chunk
p5485
(dp5486
g4037
g3924
sg28
I25
sg4094
g3937
sg29
I7
sg4028
(lp5487
I192
aI193
asg34
(issf_api
FeatureSet
p5488
(dp5489
g12
(dp5490
S'name'
p5491
g5224
sS'drel'
p5492
S'k7:VGF5'
p5493
ssbsba(issf_api
Chunk
p5494
(dp5495
g4037
g3970
sg28
I26
sg4094
g3977
sg29
I7
sg4028
(lp5496
I194
asg34
(issf_api
FeatureSet
p5497
(dp5498
g12
(dp5499
S'name'
p5500
g5218
sS'drel'
p5501
S'k1:VGF5'
p5502
ssbsba(issf_api
Chunk
p5503
(dp5504
g4037
g3991
sg28
I27
sg4094
g4002
sg29
I7
sg4028
(lp5505
I195
asg34
(issf_api
FeatureSet
p5506
(dp5507
g12
(dp5508
S'name'
p5509
g5171
sS'drel'
p5510
S'ccof:CCP3'
p5511
ssbsba(issf_api
Chunk
p5512
(dp5513
g4037
g4016
sg28
I28
sg4094
g4021
sg29
I7
sg4028
(lp5514
I196
asg34
(issf_api
FeatureSet
p5515
(dp5516
g12
(dp5517
S'name'
p5518
g5245
sS'drel'
p5519
S'rsym:VGF'
p5520
ssbsbasbasb.