(issf_api
SSFInfo
p0
(dp1
S'globalWordList'
p2
(lp3
(issf_api
Word
p4
(dp5
S'splitConn'
p6
I00
sS'word'
p7
V\u0915\u0948\u092c\u093f\u0928\u0947\u091f
p8
sS'extraFeatureSet'
p9
(issf_api
FeatureSet
p10
(dp11
S'featureDict'
p12
(dp13
S'posn'
p14
S'10'
p15
sS'name'
p16
S'\xe0\xa4\x95\xe0\xa5\x88\xe0\xa4\xac\xe0\xa4\xbf\xe0\xa4\xa8\xe0\xa5\x87\xe0\xa4\x9f'
p17
sS'af'
p18
S'\xe0\xa4\x95\xe0\xa5\x88\xe0\xa4\xac\xe0\xa4\xbf\xe0\xa4\xa8\xe0\xa5\x87\xe0\xa4\x9f,n,m,sg,3,d,0,0'
p19
sS'drel'
p20
S'pof__cn:NP'
p21
sS'chunktype'
p22
S'child:NP'
p23
sS'cref'
p24
S'i1%0:t1'
p25
ssbsS'arg1'
p26
I00
sS'arg2'
p27
I00
sS'sense'
p28
NsS'arg1Span'
p29
NsS'chunkNum'
p30
I0
sS'sentenceNum'
p31
I0
sS'relationNum'
p32
NsS'arg2Span'
p33
NsS'wordTag'
p34
S'NNC'
p35
sS'featureSet'
p36
g10
sS'conn'
p37
I00
sba(issf_api
Word
p38
(dp39
g6
I00
sg7
V\u0938\u091a\u093f\u0935
p40
sg9
(issf_api
FeatureSet
p41
(dp42
g12
(dp43
S'posn'
p44
S'20'
p45
sS'name'
p46
S'\xe0\xa4\xb8\xe0\xa4\x9a\xe0\xa4\xbf\xe0\xa4\xb5'
p47
sS'af'
p48
S'\xe0\xa4\xb8\xe0\xa4\x9a\xe0\xa4\xbf\xe0\xa4\xb5,n,m,sg,3,d,0,0'
p49
sS'drel'
p50
S'nmod:NP'
p51
sS'chunktype'
p52
S'child:NP'
p53
sS'cref'
p54
S'i1%0:t1'
p55
ssbsg26
I00
sg27
I00
sg28
Nsg29
Nsg30
I0
sg31
I0
sg32
Nsg33
Nsg34
S'NN'
p56
sg36
g41
sg37
I00
sba(issf_api
Word
p57
(dp58
g6
I00
sg7
V\u092c\u0940.
p59
sg9
(issf_api
FeatureSet
p60
(dp61
g12
(dp62
S'posn'
p63
S'30'
p64
sS'name'
p65
S'\xe0\xa4\xac\xe0\xa5\x80.'
p66
sS'af'
p67
S'\xe0\xa4\xac\xe0\xa5\x80.,n,m,sg,3,d,0,0'
p68
sS'drel'
p69
S'pof__cn:NP'
p70
sS'chunktype'
p71
S'child:NP'
p72
sS'cref'
p73
S'i1%0:t1'
p74
ssbsg26
I00
sg27
I00
sg28
Nsg29
Nsg30
I0
sg31
I0
sg32
Nsg33
Nsg34
S'NNPC'
p75
sg36
g60
sg37
I00
sba(issf_api
Word
p76
(dp77
g6
I00
sg7
V\u0915\u0947.
p78
sg9
(issf_api
FeatureSet
p79
(dp80
g12
(dp81
S'posn'
p82
S'40'
p83
sS'name'
p84
S'\xe0\xa4\x95\xe0\xa5\x87.'
p85
sS'af'
p86
S'\xe0\xa4\x95\xe0\xa5\x87.,n,m,sg,3,d,0,0'
p87
sS'drel'
p88
S'pof__cn:NP'
p89
sS'chunktype'
p90
S'child:NP'
p91
sS'cref'
p92
S'i1%0:t1'
p93
ssbsg26
I00
sg27
I00
sg28
Nsg29
Nsg30
I0
sg31
I0
sg32
Nsg33
Nsg34
S'NNPC'
p94
sg36
g79
sg37
I00
sba(issf_api
Word
p95
(dp96
g6
I00
sg7
V\u091a\u0924\u0941\u0930\u094d\u0935\u0947\u0926\u0940
p97
sg9
(issf_api
FeatureSet
p98
(dp99
g12
(dp100
S'crefhead'
p101
S'\xe0\xa4\x9a\xe0\xa4\xa4\xe0\xa5\x81\xe0\xa4\xb0\xe0\xa5\x8d\xe0\xa4\xb5\xe0\xa5\x87\xe0\xa4\xa6\xe0\xa5\x80:i1'
p102
sS'posn'
p103
S'50'
p104
sS'name'
p105
S'\xe0\xa4\x9a\xe0\xa4\xa4\xe0\xa5\x81\xe0\xa4\xb0\xe0\xa5\x8d\xe0\xa4\xb5\xe0\xa5\x87\xe0\xa4\xa6\xe0\xa5\x80'
p106
sS'af'
p107
S'\xe0\xa4\x9a\xe0\xa4\xa4\xe0\xa5\x81\xe0\xa4\xb0\xe0\xa5\x8d\xe0\xa4\xb5\xe0\xa5\x87\xe0\xa4\xa6\xe0\xa5\x80,n,any,sg,3,o,0_\xe0\xa4\xa8\xe0\xa5\x87,0'
p108
sS'chunkid'
p109
S'NP'
p110
sS'chunktype'
p111
S'head:NP'
p112
sS'crefchainhead'
p113
S'i1:t1'
p114
sS'vpos'
p115
S'vib_vib_6'
p116
sS'cref'
p117
S'i1%1:t1'
p118
sS'drel'
p119
S'k1:VGF'
p120
ssbsg26
I00
sg27
I00
sg28
Nsg29
Nsg30
I0
sg31
I0
sg32
Nsg33
Nsg34
S'NNP'
p121
sg36
g98
sg37
I00
sba(issf_api
Word
p122
(dp123
g6
I00
sg7
V\u0928\u0947
p124
sg9
(issf_api
FeatureSet
p125
(dp126
g12
(dp127
S'posn'
p128
S'60'
p129
sS'name'
p130
S'\xe0\xa4\xa8\xe0\xa5\x87'
p131
sS'drel'
p132
S'lwg__psp:NP'
p133
sS'chunktype'
p134
S'child:NP'
p135
sS'af'
p136
S'\xe0\xa4\xa8\xe0\xa5\x87,psp,,,,,,'
p137
ssbsg26
I00
sg27
I00
sg28
Nsg29
Nsg30
I0
sg31
I0
sg32
Nsg33
Nsg34
S'PSP'
p138
sg36
g125
sg37
I00
sba(issf_api
Word
p139
(dp140
g6
I00
sg7
V\u092e\u0947\u091f\u094d\u0930\u094b
p141
sg9
(issf_api
FeatureSet
p142
(dp143
g12
(dp144
S'posn'
p145
S'70'
p146
sS'name'
p147
S'\xe0\xa4\xae\xe0\xa5\x87\xe0\xa4\x9f\xe0\xa5\x8d\xe0\xa4\xb0\xe0\xa5\x8b'
p148
sS'af'
p149
S'\xe0\xa4\xae\xe0\xa5\x87\xe0\xa4\x9f\xe0\xa5\x8d\xe0\xa4\xb0\xe0\xa5\x8b,n,m,sg,3,d,0,0'
p150
sS'drel'
p151
S'pof__cn:NP2'
p152
sS'chunktype'
p153
S'child:NP2'
p154
sS'cref'
p155
S'i2%0:t2'
p156
ssbsg26
I00
sg27
I00
sg28
Nsg29
Nsg30
I1
sg31
I0
sg32
Nsg33
Nsg34
S'NNC'
p157
sg36
g142
sg37
I00
sba(issf_api
Word
p158
(dp159
g6
I00
sg7
V\u091a\u0940\u092b
p160
sg9
(issf_api
FeatureSet
p161
(dp162
g12
(dp163
S'posn'
p164
S'80'
p165
sS'name'
p166
S'\xe0\xa4\x9a\xe0\xa5\x80\xe0\xa4\xab'
p167
sS'af'
p168
S'\xe0\xa4\x9a\xe0\xa5\x80\xe0\xa4\xab,n,m,sg,3,d,0,0'
p169
sS'drel'
p170
S'nmod:NP2'
p171
sS'chunktype'
p172
S'child:NP2'
p173
sS'cref'
p174
S'i2%0:t2'
p175
ssbsg26
I00
sg27
I00
sg28
Nsg29
Nsg30
I1
sg31
I0
sg32
Nsg33
Nsg34
S'NN'
p176
sg36
g161
sg37
I00
sba(issf_api
Word
p177
(dp178
g6
I00
sg7
V\u0908.
p179
sg9
(issf_api
FeatureSet
p180
(dp181
g12
(dp182
S'posn'
p183
S'90'
p184
sS'name'
p185
S'\xe0\xa4\x88.'
p186
sS'af'
p187
S'\xe0\xa4\x88.,n,m,sg,3,d,0,0'
p188
sS'drel'
p189
S'pof__cn:NP2'
p190
sS'chunktype'
p191
S'child:NP2'
p192
sS'cref'
p193
S'i2%0:t2'
p194
ssbsg26
I00
sg27
I00
sg28
Nsg29
Nsg30
I1
sg31
I0
sg32
Nsg33
Nsg34
S'NNPC'
p195
sg36
g180
sg37
I00
sba(issf_api
Word
p196
(dp197
g6
I00
sg7
V\u0936\u094d\u0930\u0940\u0927\u0930\u0928
p198
sg9
(issf_api
FeatureSet
p199
(dp200
g12
(dp201
S'crefhead'
p202
S'\xe0\xa4\xb6\xe0\xa5\x8d\xe0\xa4\xb0\xe0\xa5\x80\xe0\xa4\xa7\xe0\xa4\xb0\xe0\xa4\xa8:i2'
p203
sS'posn'
p204
S'100'
p205
sS'name'
p206
S'\xe0\xa4\xb6\xe0\xa5\x8d\xe0\xa4\xb0\xe0\xa5\x80\xe0\xa4\xa7\xe0\xa4\xb0\xe0\xa4\xa8'
p207
sS'af'
p208
S'\xe0\xa4\xb6\xe0\xa5\x8d\xe0\xa4\xb0\xe0\xa5\x80\xe0\xa4\xa7\xe0\xa4\xb0\xe0\xa4\xa8,n,m,sg,3,o,0_\xe0\xa4\xb8\xe0\xa5\x87,0'
p209
sS'chunkid'
p210
S'NP2'
p211
sS'chunktype'
p212
S'head:NP2'
p213
sS'crefchainhead'
p214
S'i2:t2'
p215
sS'vpos'
p216
S'vib_vib_5'
p217
sS'cref'
p218
S'i2%1:t2'
p219
sS'drel'
p220
S'k4:VGF'
p221
ssbsg26
I00
sg27
I00
sg28
Nsg29
Nsg30
I1
sg31
I0
sg32
Nsg33
Nsg34
S'NNP'
p222
sg36
g199
sg37
I00
sba(issf_api
Word
p223
(dp224
g6
I00
sg7
V\u0938\u0947
p225
sg9
(issf_api
FeatureSet
p226
(dp227
g12
(dp228
S'posn'
p229
S'110'
p230
sS'name'
p231
S'\xe0\xa4\xb8\xe0\xa5\x87'
p232
sS'drel'
p233
S'lwg__psp:NP2'
p234
sS'chunktype'
p235
S'child:NP2'
p236
sS'af'
p237
S'\xe0\xa4\xb8\xe0\xa5\x87,psp,,,,,,'
p238
ssbsg26
I00
sg27
I00
sg28
Nsg29
Nsg30
I1
sg31
I0
sg32
Nsg33
Nsg34
S'PSP'
p239
sg36
g226
sg37
I00
sba(issf_api
Word
p240
(dp241
g6
I00
sg7
V\u0926\u093f\u0932\u094d\u0932\u0940
p242
sg9
(issf_api
FeatureSet
p243
(dp244
g12
(dp245
S'posn'
p246
S'120'
p247
sS'name'
p248
S'\xe0\xa4\xa6\xe0\xa4\xbf\xe0\xa4\xb2\xe0\xa5\x8d\xe0\xa4\xb2\xe0\xa5\x80'
p249
sS'af'
p250
S'\xe0\xa4\xa6\xe0\xa4\xbf\xe0\xa4\xb2\xe0\xa5\x8d\xe0\xa4\xb2\xe0\xa5\x80,n,f,sg,3,d,0,0'
p251
sS'chunkid'
p252
S'NP3'
p253
sS'acrefmod'
p254
S'm1%0:i4'
p255
sS'drel'
p256
S'ccof:CCP'
p257
sS'chunktype'
p258
S'head:NP3'
p259
sS'cref'
p260
S'i3%0:t3'
p261
ssbsg26
I00
sg27
I00
sg28
Nsg29
Nsg30
I2
sg31
I0
sg32
Nsg33
Nsg34
S'NNP'
p262
sg36
g243
sg37
I00
sba(issf_api
Word
p263
(dp264
g6
I00
sg7
V\u0914\u0930
p265
sg9
(issf_api
FeatureSet
p266
(dp267
g12
(dp268
S'posn'
p269
S'130'
p270
sS'name'
p271
S'\xe0\xa4\x94\xe0\xa4\xb0'
p272
sS'af'
p273
S'\xe0\xa4\x94\xe0\xa4\xb0,avy,,,,,,'
p274
sS'chunkid'
p275
S'CCP'
p276
sS'acrefmod'
p277
S'm1%0:i4'
p278
sS'drel'
p279
S'nmod:NP5'
p280
sS'chunktype'
p281
S'head:CCP'
p282
sS'cref'
p283
S'i3%0:t3'
p284
ssbsg26
I00
sg27
I00
sg28
Nsg29
Nsg30
I3
sg31
I0
sg32
Nsg33
Nsg34
S'CC'
p285
sg36
g266
sg37
I00
sba(issf_api
Word
p286
(dp287
g6
I00
sg7
V\u092e\u0941\u0902\u092c\u0908
p288
sg9
(issf_api
FeatureSet
p289
(dp290
g12
(dp291
S'posn'
p292
S'140'
p293
sS'name'
p294
S'\xe0\xa4\xae\xe0\xa5\x81\xe0\xa4\x82\xe0\xa4\xac\xe0\xa4\x88'
p295
sS'af'
p296
S'\xe0\xa4\xae\xe0\xa5\x81\xe0\xa4\x82\xe0\xa4\xac\xe0\xa4\x88,n,f,sg,3,d,0,0'
p297
sS'chunkid'
p298
S'NP4'
p299
sS'acrefmod'
p300
S'm1%0:i4'
p301
sS'drel'
p302
S'ccof:CCP'
p303
sS'chunktype'
p304
S'head:NP4'
p305
sS'cref'
p306
S'i3%0:t3'
p307
ssbsg26
I00
sg27
I00
sg28
Nsg29
Nsg30
I4
sg31
I0
sg32
Nsg33
Nsg34
S'NNP'
p308
sg36
g289
sg37
I00
sba(issf_api
Word
p309
(dp310
g6
I00
sg7
V\u0939\u0935\u093e\u0908
p311
sg9
(issf_api
FeatureSet
p312
(dp313
g12
(dp314
S'posn'
p315
S'150'
p316
sS'name'
p317
S'\xe0\xa4\xb9\xe0\xa4\xb5\xe0\xa4\xbe\xe0\xa4\x88'
p318
sS'af'
p319
S'\xe0\xa4\xb9\xe0\xa4\xb5\xe0\xa4\xbe\xe0\xa4\x88,adj,any,any,,o,,'
p320
sS'acrefmod'
p321
S'm1%0:i4'
p322
sS'drel'
p323
S'pof__cn:NP5'
p324
sS'chunktype'
p325
S'child:NP5'
p326
sS'cref'
p327
S'i3%0:t3'
p328
ssbsg26
I00
sg27
I00
sg28
Nsg29
Nsg30
I5
sg31
I0
sg32
Nsg33
Nsg34
S'NNC'
p329
sg36
g312
sg37
I00
sba(issf_api
Word
p330
(dp331
g6
I00
sg7
V\u0905\u0921\u094d\u0921\u094b\u0902
p332
sg9
(issf_api
FeatureSet
p333
(dp334
g12
(dp335
S'crefhead'
p336
S'\xe0\xa4\x85\xe0\xa4\xa1\xe0\xa5\x8d\xe0\xa4\xa1\xe0\xa5\x8b\xe0\xa4\x82:i3'
p337
sS'posn'
p338
S'160'
p339
sS'name'
p340
S'\xe0\xa4\x85\xe0\xa4\xa1\xe0\xa5\x8d\xe0\xa4\xa1\xe0\xa5\x8b\xe0\xa4\x82'
p341
sS'af'
p342
S'\xe0\xa4\x85\xe0\xa4\xa1\xe0\xa5\x8d\xe0\xa4\xa1\xe0\xa4\xbe,n,m,pl,3,o,0_\xe0\xa4\x95\xe0\xa4\xbe,0'
p343
sS'acrefmodhead'
p344
S'\xe0\xa4\x85\xe0\xa4\xa1\xe0\xa5\x8d\xe0\xa4\xa1\xe0\xa5\x8b\xe0\xa4\x82:m1'
p345
sS'chunkid'
p346
S'NP5'
p347
sS'acrefmod'
p348
S'm1%1:i4'
p349
sS'chunktype'
p350
S'head:NP5'
p351
sS'crefchainhead'
p352
S'i3:t3'
p353
sS'vpos'
p354
S'vib_3'
p355
sS'cref'
p356
S'i3%1:t3'
p357
sS'drel'
p358
S'r6:NP6'
p359
ssbsg26
I00
sg27
I00
sg28
Nsg29
Nsg30
I5
sg31
I0
sg32
Nsg33
Nsg34
S'NN'
p360
sg36
g333
sg37
I00
sba(issf_api
Word
p361
(dp362
g6
I00
sg7
V\u0915\u0947
p363
sg9
(issf_api
FeatureSet
p364
(dp365
g12
(dp366
S'posn'
p367
S'170'
p368
sS'name'
p369
S'\xe0\xa4\x95\xe0\xa5\x87'
p370
sS'drel'
p371
S'lwg__psp:NP5'
p372
sS'chunktype'
p373
S'child:NP5'
p374
sS'af'
p375
S'\xe0\xa4\x95\xe0\xa4\xbe,psp,m,sg,,o,,'
p376
ssbsg26
I00
sg27
I00
sg28
Nsg29
Nsg30
I5
sg31
I0
sg32
Nsg33
Nsg34
S'PSP'
p377
sg36
g364
sg37
I00
sba(issf_api
Word
p378
(dp379
g6
I00
sg7
V\u0906\u0927\u0941\u0928\u093f\u0915\u0940\u0915\u0930\u0923
p380
sg9
(issf_api
FeatureSet
p381
(dp382
g12
(dp383
S'crefhead'
p384
S'\xe0\xa4\x86\xe0\xa4\xa7\xe0\xa5\x81\xe0\xa4\xa8\xe0\xa4\xbf\xe0\xa4\x95\xe0\xa5\x80\xe0\xa4\x95\xe0\xa4\xb0\xe0\xa4\xa3:i4'
p385
sS'posn'
p386
S'180'
p387
sS'name'
p388
S'\xe0\xa4\x86\xe0\xa4\xa7\xe0\xa5\x81\xe0\xa4\xa8\xe0\xa4\xbf\xe0\xa4\x95\xe0\xa5\x80\xe0\xa4\x95\xe0\xa4\xb0\xe0\xa4\xa3'
p389
sS'af'
p390
S'\xe0\xa4\x86\xe0\xa4\xa7\xe0\xa5\x81\xe0\xa4\xa8\xe0\xa4\xbf\xe0\xa4\x95\xe0\xa5\x80\xe0\xa4\x95\xe0\xa4\xb0\xe0\xa4\xa3,n,m,sg,3,o,0_\xe0\xa4\x95\xe0\xa4\xbe,0'
p391
sS'chunkid'
p392
S'NP6'
p393
sS'crefmod'
p394
S'm1:i4'
p395
sS'chunktype'
p396
S'head:NP6'
p397
sS'crefchainhead'
p398
S'i4:t4'
p399
sS'vpos'
p400
S'vib_2'
p401
sS'cref'
p402
S'i4%1:t4'
p403
sS'drel'
p404
S'r6:NP7'
p405
ssbsg26
I00
sg27
I00
sg28
Nsg29
Nsg30
I6
sg31
I0
sg32
Nsg33
Nsg34
S'NN'
p406
sg36
g381
sg37
I00
sba(issf_api
Word
p407
(dp408
g6
I00
sg7
V\u0915\u0940
p409
sg9
(issf_api
FeatureSet
p410
(dp411
g12
(dp412
S'posn'
p413
S'190'
p414
sS'name'
p415
S'\xe0\xa4\x95\xe0\xa5\x80'
p416
sS'drel'
p417
S'lwg__psp:NP6'
p418
sS'chunktype'
p419
S'child:NP6'
p420
sS'af'
p421
S'\xe0\xa4\x95\xe0\xa4\xbe,psp,f,sg,,o,,'
p422
ssbsg26
I00
sg27
I00
sg28
Nsg29
Nsg30
I6
sg31
I0
sg32
Nsg33
Nsg34
S'PSP'
p423
sg36
g410
sg37
I00
sba(issf_api
Word
p424
(dp425
g6
I00
sg7
V\u092a\u094d\u0930\u0915\u094d\u0930\u093f\u092f\u093e
p426
sg9
(issf_api
FeatureSet
p427
(dp428
g12
(dp429
S'posn'
p430
S'200'
p431
sS'name'
p432
S'\xe0\xa4\xaa\xe0\xa5\x8d\xe0\xa4\xb0\xe0\xa4\x95\xe0\xa5\x8d\xe0\xa4\xb0\xe0\xa4\xbf\xe0\xa4\xaf\xe0\xa4\xbe'
p433
sS'af'
p434
S'\xe0\xa4\xaa\xe0\xa5\x8d\xe0\xa4\xb0\xe0\xa4\x95\xe0\xa5\x8d\xe0\xa4\xb0\xe0\xa4\xbf\xe0\xa4\xaf\xe0\xa4\xbe,n,f,sg,3,o,0_\xe0\xa4\x95\xe0\xa4\xbe,0'
p435
sS'chunkid'
p436
S'NP7'
p437
sS'drel'
p438
S'r6:NP8'
p439
sS'vpos'
p440
S'vib_2'
p441
sS'chunktype'
p442
S'head:NP7'
p443
ssbsg26
I00
sg27
I00
sg28
Nsg29
Nsg30
I7
sg31
I0
sg32
Nsg33
Nsg34
S'NN'
p444
sg36
g427
sg37
I00
sba(issf_api
Word
p445
(dp446
g6
I00
sg7
V\u0915\u0947
p447
sg9
(issf_api
FeatureSet
p448
(dp449
g12
(dp450
S'posn'
p451
S'210'
p452
sS'name'
p453
S'\xe0\xa4\x95\xe0\xa5\x872'
p454
sS'drel'
p455
S'lwg__psp:NP7'
p456
sS'chunktype'
p457
S'child:NP7'
p458
sS'af'
p459
S'\xe0\xa4\x95\xe0\xa4\xbe,psp,m,sg,,o,,'
p460
ssbsg26
I00
sg27
I00
sg28
Nsg29
Nsg30
I7
sg31
I0
sg32
Nsg33
Nsg34
S'PSP'
p461
sg36
g448
sg37
I00
sba(issf_api
Word
p462
(dp463
g6
I00
sg7
V\u092e\u0942\u0932\u094d\u092f\u093e\u0902\u0915\u0928
p464
sg9
(issf_api
FeatureSet
p465
(dp466
g12
(dp467
S'posn'
p468
S'220'
p469
sS'name'
p470
S'\xe0\xa4\xae\xe0\xa5\x82\xe0\xa4\xb2\xe0\xa5\x8d\xe0\xa4\xaf\xe0\xa4\xbe\xe0\xa4\x82\xe0\xa4\x95\xe0\xa4\xa8'
p471
sS'af'
p472
S'\xe0\xa4\xae\xe0\xa5\x82\xe0\xa4\xb2\xe0\xa5\x8d\xe0\xa4\xaf\xe0\xa4\xbe\xe0\xa4\x82\xe0\xa4\x95\xe0\xa4\xa8,n,m,sg,3,o,0_\xe0\xa4\x95\xe0\xa5\x87_\xe0\xa4\xb2\xe0\xa4\xbf\xe0\xa4\x8f,0'
p473
sS'chunkid'
p474
S'NP8'
p475
sS'drel'
p476
S'jjmod:JJP'
p477
sS'vpos'
p478
S'vib_2_3'
p479
sS'chunktype'
p480
S'head:NP8'
p481
ssbsg26
I00
sg27
I00
sg28
Nsg29
Nsg30
I8
sg31
I0
sg32
Nsg33
Nsg34
S'NN'
p482
sg36
g465
sg37
I00
sba(issf_api
Word
p483
(dp484
g6
I00
sg7
V\u0915\u0947
p485
sg9
(issf_api
FeatureSet
p486
(dp487
g12
(dp488
S'posn'
p489
S'230'
p490
sS'name'
p491
S'\xe0\xa4\x95\xe0\xa5\x873'
p492
sS'drel'
p493
S'lwg__psp:NP8'
p494
sS'chunktype'
p495
S'child:NP8'
p496
sS'af'
p497
S'\xe0\xa4\x95\xe0\xa5\x87,psp,,,,,,'
p498
ssbsg26
I00
sg27
I00
sg28
Nsg29
Nsg30
I8
sg31
I0
sg32
Nsg33
Nsg34
S'PSP'
p499
sg36
g486
sg37
I00
sba(issf_api
Word
p500
(dp501
g6
I00
sg7
V\u0932\u093f\u090f
p502
sg9
(issf_api
FeatureSet
p503
(dp504
g12
(dp505
S'posn'
p506
S'240'
p507
sS'name'
p508
S'\xe0\xa4\xb2\xe0\xa4\xbf\xe0\xa4\x8f'
p509
sS'drel'
p510
S'lwg__psp:NP8'
p511
sS'chunktype'
p512
S'child:NP8'
p513
sS'af'
p514
S'\xe0\xa4\xb2\xe0\xa4\xbf\xe0\xa4\x8f,psp,,,,,,'
p515
ssbsg26
I00
sg27
I00
sg28
Nsg29
Nsg30
I8
sg31
I0
sg32
Nsg33
Nsg34
S'PSP'
p516
sg36
g503
sg37
I00
sba(issf_api
Word
p517
(dp518
g6
I00
sg7
V\u0917\u0920\u093f\u0924
p519
sg9
(issf_api
FeatureSet
p520
(dp521
g12
(dp522
S'posn'
p523
S'250'
p524
sS'name'
p525
S'\xe0\xa4\x97\xe0\xa4\xa0\xe0\xa4\xbf\xe0\xa4\xa4'
p526
sS'af'
p527
S'\xe0\xa4\x97\xe0\xa4\xa0\xe0\xa4\xbf\xe0\xa4\xa4,adj,any,any,,,,'
p528
sS'chunkid'
p529
S'JJP'
p530
sS'drel'
p531
S'nmod:NP9'
p532
sS'chunktype'
p533
S'head:JJP'
p534
ssbsg26
I00
sg27
I00
sg28
Nsg29
Nsg30
I9
sg31
I0
sg32
Nsg33
Nsg34
S'JJ'
p535
sg36
g520
sg37
I00
sba(issf_api
Word
p536
(dp537
g6
I00
sg7
V\u0909\u091a\u094d\u091a
p538
sg9
(issf_api
FeatureSet
p539
(dp540
g12
(dp541
S'posn'
p542
S'260'
p543
sS'name'
p544
S'\xe0\xa4\x89\xe0\xa4\x9a\xe0\xa5\x8d\xe0\xa4\x9a'
p545
sS'drel'
p546
S'mod:NP9'
p547
sS'chunktype'
p548
S'child:NP9'
p549
sS'af'
p550
S'\xe0\xa4\x89\xe0\xa4\x9a\xe0\xa5\x8d\xe0\xa4\x9a,adj,any,any,,d,,'
p551
ssbsg26
I00
sg27
I00
sg28
Nsg29
Nsg30
I10
sg31
I0
sg32
Nsg33
Nsg34
S'JJC'
p552
sg36
g539
sg37
I00
sba(issf_api
Word
p553
(dp554
g6
I00
sg7
V\u0938\u094d\u0924\u0930\u0940\u092f
p555
sg9
(issf_api
FeatureSet
p556
(dp557
g12
(dp558
S'posn'
p559
S'270'
p560
sS'name'
p561
S'\xe0\xa4\xb8\xe0\xa5\x8d\xe0\xa4\xa4\xe0\xa4\xb0\xe0\xa5\x80\xe0\xa4\xaf'
p562
sS'drel'
p563
S'nmod__adj:NP9'
p564
sS'chunktype'
p565
S'child:NP9'
p566
sS'af'
p567
S'\xe0\xa4\xb8\xe0\xa5\x8d\xe0\xa4\xa4\xe0\xa4\xb0\xe0\xa5\x80\xe0\xa4\xaf,adj,any,any,,o,,'
p568
ssbsg26
I00
sg27
I00
sg28
Nsg29
Nsg30
I10
sg31
I0
sg32
Nsg33
Nsg34
S'JJ'
p569
sg36
g556
sg37
I00
sba(issf_api
Word
p570
(dp571
g6
I00
sg7
V\u092a\u0948\u0928\u0932
p572
sg9
(issf_api
FeatureSet
p573
(dp574
g12
(dp575
S'posn'
p576
S'280'
p577
sS'name'
p578
S'\xe0\xa4\xaa\xe0\xa5\x88\xe0\xa4\xa8\xe0\xa4\xb2'
p579
sS'af'
p580
S'\xe0\xa4\xaa\xe0\xa5\x88\xe0\xa4\xa8\xe0\xa4\xb2,n,m,sg,3,o,0_\xe0\xa4\x95\xe0\xa4\xbe,0'
p581
sS'chunkid'
p582
S'NP9'
p583
sS'drel'
p584
S'r6-k2:NP10'
p585
sS'vpos'
p586
S'vib_4'
p587
sS'chunktype'
p588
S'head:NP9'
p589
ssbsg26
I00
sg27
I00
sg28
Nsg29
Nsg30
I10
sg31
I0
sg32
Nsg33
Nsg34
S'NN'
p590
sg36
g573
sg37
I00
sba(issf_api
Word
p591
(dp592
g6
I00
sg7
V\u0915\u0940
p593
sg9
(issf_api
FeatureSet
p594
(dp595
g12
(dp596
S'posn'
p597
S'290'
p598
sS'name'
p599
S'\xe0\xa4\x95\xe0\xa5\x802'
p600
sS'drel'
p601
S'lwg__psp:NP9'
p602
sS'chunktype'
p603
S'child:NP9'
p604
sS'af'
p605
S'\xe0\xa4\x95\xe0\xa4\xbe,psp,f,sg,,d,,'
p606
ssbsg26
I00
sg27
I00
sg28
Nsg29
Nsg30
I10
sg31
I0
sg32
Nsg33
Nsg34
S'PSP'
p607
sg36
g594
sg37
I00
sba(issf_api
Word
p608
(dp609
g6
I00
sg7
V\u092e\u0926\u0926
p610
sg9
(issf_api
FeatureSet
p611
(dp612
g12
(dp613
S'posn'
p614
S'300'
p615
sS'name'
p616
S'\xe0\xa4\xae\xe0\xa4\xa6\xe0\xa4\xa6'
p617
sS'af'
p618
S'\xe0\xa4\xae\xe0\xa4\xa6\xe0\xa4\xa6,n,f,sg,3,d,0,0'
p619
sS'chunkid'
p620
S'NP10'
p621
sS'drel'
p622
S'pof:VGNN'
p623
sS'chunktype'
p624
S'head:NP10'
p625
ssbsg26
I00
sg27
I00
sg28
Nsg29
Nsg30
I11
sg31
I0
sg32
Nsg33
Nsg34
S'NN'
p626
sg36
g611
sg37
I00
sba(issf_api
Word
p627
(dp628
g6
I00
sg7
V\u0915\u0930\u0928\u0947
p629
sg9
(issf_api
FeatureSet
p630
(dp631
g12
(dp632
S'posn'
p633
S'310'
p634
sS'name'
p635
S'\xe0\xa4\x95\xe0\xa4\xb0\xe0\xa4\xa8\xe0\xa5\x87'
p636
sS'af'
p637
S'\xe0\xa4\x95\xe0\xa4\xb0,v,any,any,any,o,\xe0\xa4\xa8\xe0\xa4\xbe_\xe0\xa4\x95\xe0\xa5\x8b,nA'
p638
sS'chunkid'
p639
S'VGNN'
p640
sS'drel'
p641
S'rt:VGF'
p642
sS'vpos'
p643
S'tam_2'
p644
sS'chunktype'
p645
S'head:VGNN'
p646
ssbsg26
I00
sg27
I00
sg28
Nsg29
Nsg30
I12
sg31
I0
sg32
Nsg33
Nsg34
S'VM'
p647
sg36
g630
sg37
I00
sba(issf_api
Word
p648
(dp649
g6
I00
sg7
V\u0915\u094b
p650
sg9
(issf_api
FeatureSet
p651
(dp652
g12
(dp653
S'posn'
p654
S'320'
p655
sS'name'
p656
S'\xe0\xa4\x95\xe0\xa5\x8b'
p657
sS'drel'
p658
S'lwg__psp:VGNN'
p659
sS'chunktype'
p660
S'child:VGNN'
p661
sS'af'
p662
S'\xe0\xa4\x95\xe0\xa5\x8b,psp,,,,,,'
p663
ssbsg26
I00
sg27
I00
sg28
Nsg29
Nsg30
I12
sg31
I0
sg32
Nsg33
Nsg34
S'PSP'
p664
sg36
g651
sg37
I00
sba(issf_api
Word
p665
(dp666
g6
I00
sg7
V\u0915\u0939\u093e
p667
sg9
(issf_api
FeatureSet
p668
(dp669
g12
(dp670
S'posn'
p671
S'330'
p672
sS'name'
p673
S'\xe0\xa4\x95\xe0\xa4\xb9\xe0\xa4\xbe'
p674
sS'af'
p675
S'\xe0\xa4\x95\xe0\xa4\xb9,v,m,sg,3,,\xe0\xa4\xaf\xe0\xa4\xbe_\xe0\xa4\xb9\xe0\xa5\x88,yA'
p676
sS'chunkid'
p677
S'VGF'
p678
sS'chunktype'
p679
S'head:VGF'
p680
sS'voicetype'
p681
S'active'
p682
sS'vpos'
p683
S'tam_2'
p684
sS'stype'
p685
S'declarative'
p686
ssbsg26
I00
sg27
I00
sg28
Nsg29
Nsg30
I13
sg31
I0
sg32
Nsg33
Nsg34
S'VM'
p687
sg36
g668
sg37
I00
sba(issf_api
Word
p688
(dp689
g6
I00
sg7
V\u0939\u0948
p690
sg9
(issf_api
FeatureSet
p691
(dp692
g12
(dp693
S'posn'
p694
S'340'
p695
sS'name'
p696
S'\xe0\xa4\xb9\xe0\xa5\x88'
p697
sS'drel'
p698
S'lwg__vaux:VGF'
p699
sS'chunktype'
p700
S'child:VGF'
p701
sS'af'
p702
S'\xe0\xa4\xb9\xe0\xa5\x88,v,any,sg,3,,\xe0\xa4\xb9\xe0\xa5\x88,hE'
p703
ssbsg26
I00
sg27
I00
sg28
Nsg29
Nsg30
I13
sg31
I0
sg32
Nsg33
Nsg34
S'VAUX'
p704
sg36
g691
sg37
I00
sba(issf_api
Word
p705
(dp706
g6
I00
sg7
V\u0964
p707
sg9
(issf_api
FeatureSet
p708
(dp709
g12
(dp710
S'posn'
p711
S'350'
p712
sS'name'
p713
S'\xe0\xa5\xa4'
p714
sS'af'
p715
S'\xe0\xa5\xa4,punc,,,,,,'
p716
sS'chunkid'
p717
S'BLK'
p718
sS'drel'
p719
S'rsym:VGF'
p720
sS'chunktype'
p721
S'head:BLK'
p722
ssbsg26
I00
sg27
I00
sg28
Nsg29
Nsg30
I14
sg31
I0
sg32
Nsg33
Nsg34
S'SYM'
p723
sg36
g708
sg37
I00
sba(issf_api
Word
p724
(dp725
g6
I00
sg7
V\u0938\u0930\u0915\u093e\u0930\u0940
p726
sg9
(issf_api
FeatureSet
p727
(dp728
g12
(dp729
S'posn'
p730
S'10'
p731
sS'name'
p732
S'\xe0\xa4\xb8\xe0\xa4\xb0\xe0\xa4\x95\xe0\xa4\xbe\xe0\xa4\xb0\xe0\xa5\x80'
p733
sS'drel'
p734
S'nmod__adj:NP'
p735
sS'chunktype'
p736
S'child:NP'
p737
sS'af'
p738
S'\xe0\xa4\xb8\xe0\xa4\xb0\xe0\xa4\x95\xe0\xa4\xbe\xe0\xa4\xb0\xe0\xa5\x80,adj,any,any,,o,,'
p739
ssbsg26
I00
sg27
I00
sg28
Nsg29
Nsg30
I0
sg31
I1
sg32
Nsg33
Nsg34
S'JJ'
p740
sg36
g727
sg37
I00
sba(issf_api
Word
p741
(dp742
g6
I00
sg7
V\u0938\u0942\u0924\u094d\u0930\u094b\u0902
p743
sg9
(issf_api
FeatureSet
p744
(dp745
g12
(dp746
S'posn'
p747
S'20'
p748
sS'name'
p749
S'\xe0\xa4\xb8\xe0\xa5\x82\xe0\xa4\xa4\xe0\xa5\x8d\xe0\xa4\xb0\xe0\xa5\x8b\xe0\xa4\x82'
p750
sS'af'
p751
S'\xe0\xa4\xb8\xe0\xa5\x82\xe0\xa4\xa4\xe0\xa5\x8d\xe0\xa4\xb0,n,m,pl,3,o,0_\xe0\xa4\xa8\xe0\xa5\x87,0'
p752
sS'chunkid'
p753
S'NP'
p754
sS'drel'
p755
S'k1:VGF'
p756
sS'vpos'
p757
S'vib_3'
p758
sS'chunktype'
p759
S'head:NP'
p760
ssbsg26
I00
sg27
I00
sg28
Nsg29
Nsg30
I0
sg31
I1
sg32
Nsg33
Nsg34
S'NN'
p761
sg36
g744
sg37
I00
sba(issf_api
Word
p762
(dp763
g6
I00
sg7
V\u0928\u0947
p764
sg9
(issf_api
FeatureSet
p765
(dp766
g12
(dp767
S'posn'
p768
S'30'
p769
sS'name'
p770
S'\xe0\xa4\xa8\xe0\xa5\x87'
p771
sS'drel'
p772
S'lwg__psp:NP'
p773
sS'chunktype'
p774
S'child:NP'
p775
sS'af'
p776
S'\xe0\xa4\xa8\xe0\xa5\x87,psp,,,,,,'
p777
ssbsg26
I00
sg27
I00
sg28
Nsg29
Nsg30
I0
sg31
I1
sg32
Nsg33
Nsg34
S'PSP'
p778
sg36
g765
sg37
I00
sba(issf_api
Word
p779
(dp780
g6
I00
sg7
V\u092c\u0941\u0927\u0935\u093e\u0930
p781
sg9
(issf_api
FeatureSet
p782
(dp783
g12
(dp784
S'posn'
p785
S'40'
p786
sS'name'
p787
S'\xe0\xa4\xac\xe0\xa5\x81\xe0\xa4\xa7\xe0\xa4\xb5\xe0\xa4\xbe\xe0\xa4\xb0'
p788
sS'af'
p789
S'\xe0\xa4\xac\xe0\xa5\x81\xe0\xa4\xa7\xe0\xa4\xb5\xe0\xa4\xbe\xe0\xa4\xb0,n,m,sg,3,o,0_\xe0\xa4\x95\xe0\xa5\x8b,0'
p790
sS'chunkid'
p791
S'NP2'
p792
sS'drel'
p793
S'k7t:VGF'
p794
sS'vpos'
p795
S'vib_2'
p796
sS'chunktype'
p797
S'head:NP2'
p798
ssbsg26
I00
sg27
I00
sg28
Nsg29
Nsg30
I1
sg31
I1
sg32
Nsg33
Nsg34
S'NNP'
p799
sg36
g782
sg37
I00
sba(issf_api
Word
p800
(dp801
g6
I00
sg7
V\u0915\u094b
p802
sg9
(issf_api
FeatureSet
p803
(dp804
g12
(dp805
S'posn'
p806
S'50'
p807
sS'name'
p808
S'\xe0\xa4\x95\xe0\xa5\x8b'
p809
sS'drel'
p810
S'lwg__psp:NP2'
p811
sS'chunktype'
p812
S'child:NP2'
p813
sS'af'
p814
S'\xe0\xa4\x95\xe0\xa5\x8b,psp,,,,,,'
p815
ssbsg26
I00
sg27
I00
sg28
Nsg29
Nsg30
I1
sg31
I1
sg32
Nsg33
Nsg34
S'PSP'
p816
sg36
g803
sg37
I00
sba(issf_api
Word
p817
(dp818
g6
I00
sg7
V\u092f\u0939
p819
sg9
(issf_api
FeatureSet
p820
(dp821
g12
(dp822
S'posn'
p823
S'60'
p824
sS'name'
p825
S'\xe0\xa4\xaf\xe0\xa4\xb9'
p826
sS'drel'
p827
S'nmod__adj:NP3'
p828
sS'chunktype'
p829
S'child:NP3'
p830
sS'af'
p831
S'\xe0\xa4\xaf\xe0\xa4\xb9,pn,any,sg,3,d,,'
p832
ssbsg26
I00
sg27
I00
sg28
Nsg29
Nsg30
I2
sg31
I1
sg32
Nsg33
Nsg34
S'DEM'
p833
sg36
g820
sg37
I00
sba(issf_api
Word
p834
(dp835
g6
I00
sg7
V\u091c\u093e\u0928\u0915\u093e\u0930\u0940
p836
sg9
(issf_api
FeatureSet
p837
(dp838
g12
(dp839
S'posn'
p840
S'70'
p841
sS'name'
p842
S'\xe0\xa4\x9c\xe0\xa4\xbe\xe0\xa4\xa8\xe0\xa4\x95\xe0\xa4\xbe\xe0\xa4\xb0\xe0\xa5\x80'
p843
sS'af'
p844
S'\xe0\xa4\x9c\xe0\xa4\xbe\xe0\xa4\xa8\xe0\xa4\x95\xe0\xa4\xbe\xe0\xa4\xb0\xe0\xa5\x80,n,f,sg,3,d,0,0'
p845
sS'chunkid'
p846
S'NP3'
p847
sS'drel'
p848
S'k2:VGNF'
p849
sS'chunktype'
p850
S'head:NP3'
p851
ssbsg26
I00
sg27
I00
sg28
Nsg29
Nsg30
I2
sg31
I1
sg32
Nsg33
Nsg34
S'NN'
p852
sg36
g837
sg37
I00
sba(issf_api
Word
p853
(dp854
g6
I00
sg7
V\u0926\u0947\u0924\u0947
p855
sg9
(issf_api
FeatureSet
p856
(dp857
g12
(dp858
S'posn'
p859
S'80'
p860
sS'name'
p861
S'\xe0\xa4\xa6\xe0\xa5\x87\xe0\xa4\xa4\xe0\xa5\x87'
p862
sS'af'
p863
S'\xe0\xa4\xa6\xe0\xa5\x87,v,m,sg,any,,\xe0\xa4\xa4\xe0\xa4\xbe_\xe0\xa4\xb9\xe0\xa5\x8b+\xe0\xa4\xaf\xe0\xa4\xbe,wA'
p864
sS'chunkid'
p865
S'VGNF'
p866
sS'drel'
p867
S'vmod:VGF'
p868
sS'vpos'
p869
S'tam_2'
p870
sS'chunktype'
p871
S'head:VGNF'
p872
ssbsg26
I00
sg27
I00
sg28
Nsg29
Nsg30
I3
sg31
I1
sg32
Nsg33
Nsg34
S'VM'
p873
sg36
g856
sg37
I00
sba(issf_api
Word
p874
(dp875
g6
I00
sg7
V\u0939\u0941\u090f
p876
sg9
(issf_api
FeatureSet
p877
(dp878
g12
(dp879
S'posn'
p880
S'90'
p881
sS'name'
p882
S'\xe0\xa4\xb9\xe0\xa5\x81\xe0\xa4\x8f'
p883
sS'drel'
p884
S'lwg__vaux:VGNF'
p885
sS'chunktype'
p886
S'child:VGNF'
p887
sS'af'
p888
S'\xe0\xa4\xb9\xe0\xa5\x8b,v,m,sg,any,,\xe0\xa4\xaf\xe0\xa4\xbe,yA'
p889
ssbsg26
I00
sg27
I00
sg28
Nsg29
Nsg30
I3
sg31
I1
sg32
Nsg33
Nsg34
S'VAUX'
p890
sg36
g877
sg37
I00
sba(issf_api
Word
p891
(dp892
g6
I00
sg7
V\u0915\u0939\u093e
p893
sg9
(issf_api
FeatureSet
p894
(dp895
g12
(dp896
S'posn'
p897
S'100'
p898
sS'name'
p899
S'\xe0\xa4\x95\xe0\xa4\xb9\xe0\xa4\xbe'
p900
sS'af'
p901
S'\xe0\xa4\x95\xe0\xa4\xb9,v,m,sg,any,,\xe0\xa4\xaf\xe0\xa4\xbe,yA'
p902
sS'chunkid'
p903
S'VGF'
p904
sS'chunktype'
p905
S'head:VGF'
p906
sS'voicetype'
p907
S'active'
p908
sS'stype'
p909
S'declarative'
p910
ssbsg26
I00
sg27
I00
sg28
Nsg29
Nsg30
I4
sg31
I1
sg32
Nsg33
Nsg34
S'VM'
p911
sg36
g894
sg37
I00
sba(issf_api
Word
p912
(dp913
g6
I00
sg7
V\u0915\u093f
p914
sg9
(issf_api
FeatureSet
p915
(dp916
g12
(dp917
S'posn'
p918
S'110'
p919
sS'name'
p920
S'\xe0\xa4\x95\xe0\xa4\xbf'
p921
sS'af'
p922
S'\xe0\xa4\x95\xe0\xa4\xbf,avy,,,,,,'
p923
sS'chunkid'
p924
S'CCP'
p925
sS'drel'
p926
S'k2:VGF'
p927
sS'chunktype'
p928
S'head:CCP'
p929
ssbsg26
I00
sg27
I00
sg28
Nsg29
Nsg30
I5
sg31
I1
sg32
Nsg33
Nsg34
S'CC'
p930
sg36
g915
sg37
I00
sba(issf_api
Word
p931
(dp932
g6
I00
sg7
V\u0926\u094b\u0928\u094b\u0902
p933
sg9
(issf_api
FeatureSet
p934
(dp935
g12
(dp936
S'posn'
p937
S'120'
p938
sS'name'
p939
S'\xe0\xa4\xa6\xe0\xa5\x8b\xe0\xa4\xa8\xe0\xa5\x8b\xe0\xa4\x82'
p940
sS'af'
p941
S'\xe0\xa4\xa6\xe0\xa5\x8b,num,any,pl,,any,,'
p942
sS'drel'
p943
S'nmod__adj:NP4'
p944
sS'chunktype'
p945
S'child:NP4'
p946
sS'cref'
p947
S'i5%0:t3'
p948
ssbsg26
I00
sg27
I00
sg28
Nsg29
Nsg30
I6
sg31
I1
sg32
Nsg33
Nsg34
S'QC'
p949
sg36
g934
sg37
I00
sba(issf_api
Word
p950
(dp951
g6
I00
sg7
V\u0939\u0935\u093e\u0908\u0905\u0921\u094d\u0921\u094b\u0902
p952
sg9
(issf_api
FeatureSet
p953
(dp954
g12
(dp955
S'crefhead'
p956
S'\xe0\xa4\xb9\xe0\xa4\xb5\xe0\xa4\xbe\xe0\xa4\x88\xe0\xa4\x85\xe0\xa4\xa1\xe0\xa5\x8d\xe0\xa4\xa1\xe0\xa5\x8b\xe0\xa4\x82:i5'
p957
sS'posn'
p958
S'130'
p959
sS'name'
p960
S'\xe0\xa4\xb9\xe0\xa4\xb5\xe0\xa4\xbe\xe0\xa4\x88\xe0\xa4\x85\xe0\xa4\xa1\xe0\xa5\x8d\xe0\xa4\xa1\xe0\xa5\x8b\xe0\xa4\x82'
p961
sS'af'
p962
S'\xe0\xa4\xb9\xe0\xa4\xb5\xe0\xa4\xbe\xe0\xa4\x88\xe0\xa4\x85\xe0\xa4\xa1\xe0\xa5\x8d\xe0\xa4\xa1\xe0\xa4\xbe,n,m,pl,3,o,0_\xe0\xa4\x95\xe0\xa4\xbe,0'
p963
sS'chunkid'
p964
S'NP4'
p965
sS'creftype'
p966
S'Coreference-Identity:i3'
p967
sS'chunktype'
p968
S'head:NP4'
p969
sS'vpos'
p970
S'vib_3'
p971
sS'cref'
p972
S'i5%1:t3'
p973
sS'drel'
p974
S'r6:NP5'
p975
ssbsg26
I00
sg27
I00
sg28
Nsg29
Nsg30
I6
sg31
I1
sg32
Nsg33
Nsg34
S'NN'
p976
sg36
g953
sg37
I00
sba(issf_api
Word
p977
(dp978
g6
I00
sg7
V\u0915\u0940
p979
sg9
(issf_api
FeatureSet
p980
(dp981
g12
(dp982
S'posn'
p983
S'140'
p984
sS'name'
p985
S'\xe0\xa4\x95\xe0\xa5\x80'
p986
sS'drel'
p987
S'lwg__psp:NP4'
p988
sS'chunktype'
p989
S'child:NP4'
p990
sS'af'
p991
S'\xe0\xa4\x95\xe0\xa4\xbe,psp,f,sg,,d,,'
p992
ssbsg26
I00
sg27
I00
sg28
Nsg29
Nsg30
I6
sg31
I1
sg32
Nsg33
Nsg34
S'PSP'
p993
sg36
g980
sg37
I00
sba(issf_api
Word
p994
(dp995
g6
I00
sg7
V\u0928\u093f\u0935\u093f\u0926\u093e
p996
sg9
(issf_api
FeatureSet
p997
(dp998
g12
(dp999
S'posn'
p1000
S'150'
p1001
sS'name'
p1002
S'\xe0\xa4\xa8\xe0\xa4\xbf\xe0\xa4\xb5\xe0\xa4\xbf\xe0\xa4\xa6\xe0\xa4\xbe'
p1003
sS'drel'
p1004
S'pof__cn:NP5'
p1005
sS'chunktype'
p1006
S'child:NP5'
p1007
sS'af'
p1008
S'\xe0\xa4\xa8\xe0\xa4\xbf\xe0\xa4\xb5\xe0\xa4\xbf\xe0\xa4\xa6\xe0\xa4\xbe,n,f,sg,3,d,0,0'
p1009
ssbsg26
I00
sg27
I00
sg28
Nsg29
Nsg30
I7
sg31
I1
sg32
Nsg33
Nsg34
S'NNC'
p1010
sg36
g997
sg37
I00
sba(issf_api
Word
p1011
(dp1012
g6
I00
sg7
V\u092a\u094d\u0930\u0915\u094d\u0930\u093f\u092f\u093e
p1013
sg9
(issf_api
FeatureSet
p1014
(dp1015
g12
(dp1016
S'posn'
p1017
S'160'
p1018
sS'name'
p1019
S'\xe0\xa4\xaa\xe0\xa5\x8d\xe0\xa4\xb0\xe0\xa4\x95\xe0\xa5\x8d\xe0\xa4\xb0\xe0\xa4\xbf\xe0\xa4\xaf\xe0\xa4\xbe'
p1020
sS'af'
p1021
S'\xe0\xa4\xaa\xe0\xa5\x8d\xe0\xa4\xb0\xe0\xa4\x95\xe0\xa5\x8d\xe0\xa4\xb0\xe0\xa4\xbf\xe0\xa4\xaf\xe0\xa4\xbe,n,f,sg,3,o,0_\xe0\xa4\xaa\xe0\xa4\xb0,0'
p1022
sS'chunkid'
p1023
S'NP5'
p1024
sS'drel'
p1025
S'k7:VGF2'
p1026
sS'vpos'
p1027
S'vib_3_RP'
p1028
sS'chunktype'
p1029
S'head:NP5'
p1030
ssbsg26
I00
sg27
I00
sg28
Nsg29
Nsg30
I7
sg31
I1
sg32
Nsg33
Nsg34
S'NN'
p1031
sg36
g1014
sg37
I00
sba(issf_api
Word
p1032
(dp1033
g6
I00
sg7
V\u092a\u0930
p1034
sg9
(issf_api
FeatureSet
p1035
(dp1036
g12
(dp1037
S'posn'
p1038
S'170'
p1039
sS'name'
p1040
S'\xe0\xa4\xaa\xe0\xa4\xb0'
p1041
sS'drel'
p1042
S'lwg__psp:NP5'
p1043
sS'chunktype'
p1044
S'child:NP5'
p1045
sS'af'
p1046
S'\xe0\xa4\xaa\xe0\xa4\xb0,psp,,,,,,'
p1047
ssbsg26
I00
sg27
I00
sg28
Nsg29
Nsg30
I7
sg31
I1
sg32
Nsg33
Nsg34
S'PSP'
p1048
sg36
g1035
sg37
I00
sba(issf_api
Word
p1049
(dp1050
g6
I00
sg7
V\u092d\u0940
p1051
sg9
(issf_api
FeatureSet
p1052
(dp1053
g12
(dp1054
S'posn'
p1055
S'180'
p1056
sS'name'
p1057
S'\xe0\xa4\xad\xe0\xa5\x80'
p1058
sS'drel'
p1059
S'lwg__rp:NP5'
p1060
sS'chunktype'
p1061
S'child:NP5'
p1062
sS'af'
p1063
S'\xe0\xa4\xad\xe0\xa5\x80,avy,,,,,,'
p1064
ssbsg26
I00
sg27
I00
sg28
Nsg29
Nsg30
I7
sg31
I1
sg32
Nsg33
Nsg34
S'RP'
p1065
sg36
g1052
sg37
I00
sba(issf_api
Word
p1066
(dp1067
g6
I00
sg7
V\u0936\u094d\u0930\u0940\u0927\u0930\u0928
p1068
sg9
(issf_api
FeatureSet
p1069
(dp1070
g12
(dp1071
S'crefhead'
p1072
S'\xe0\xa4\xb6\xe0\xa5\x8d\xe0\xa4\xb0\xe0\xa5\x80\xe0\xa4\xa7\xe0\xa4\xb0\xe0\xa4\xa8:i6'
p1073
sS'posn'
p1074
S'190'
p1075
sS'name'
p1076
S'\xe0\xa4\xb6\xe0\xa5\x8d\xe0\xa4\xb0\xe0\xa5\x80\xe0\xa4\xa7\xe0\xa4\xb0\xe0\xa4\xa8'
p1077
sS'af'
p1078
S'\xe0\xa4\xb6\xe0\xa5\x8d\xe0\xa4\xb0\xe0\xa5\x80\xe0\xa4\xa7\xe0\xa4\xb0\xe0\xa4\xa8,n,m,sg,3,o,0_\xe0\xa4\x95\xe0\xa4\xbe,0'
p1079
sS'chunkid'
p1080
S'NP6'
p1081
sS'creftype'
p1082
S'Coreference-Identity:i16:i7'
p1083
sS'chunktype'
p1084
S'head:NP6'
p1085
sS'vpos'
p1086
S'vib_2'
p1087
sS'cref'
p1088
S'i6%1:t2'
p1089
sS'drel'
p1090
S'r6:NP7'
p1091
ssbsg26
I00
sg27
I00
sg28
Nsg29
Nsg30
I8
sg31
I1
sg32
Nsg33
Nsg34
S'NNP'
p1092
sg36
g1069
sg37
I00
sba(issf_api
Word
p1093
(dp1094
g6
I00
sg7
V\u0915\u0940
p1095
sg9
(issf_api
FeatureSet
p1096
(dp1097
g12
(dp1098
S'posn'
p1099
S'200'
p1100
sS'name'
p1101
S'\xe0\xa4\x95\xe0\xa5\x802'
p1102
sS'drel'
p1103
S'lwg__psp:NP6'
p1104
sS'chunktype'
p1105
S'child:NP6'
p1106
sS'af'
p1107
S'\xe0\xa4\x95\xe0\xa4\xbe,psp,f,sg,,d,,'
p1108
ssbsg26
I00
sg27
I00
sg28
Nsg29
Nsg30
I8
sg31
I1
sg32
Nsg33
Nsg34
S'PSP'
p1109
sg36
g1096
sg37
I00
sba(issf_api
Word
p1110
(dp1111
g6
I00
sg7
V\u0930\u093e\u092f
p1112
sg9
(issf_api
FeatureSet
p1113
(dp1114
g12
(dp1115
S'posn'
p1116
S'210'
p1117
sS'name'
p1118
S'\xe0\xa4\xb0\xe0\xa4\xbe\xe0\xa4\xaf'
p1119
sS'af'
p1120
S'\xe0\xa4\xb0\xe0\xa4\xbe\xe0\xa4\xaf,n,f,sg,3,d,0,0'
p1121
sS'chunkid'
p1122
S'NP7'
p1123
sS'drel'
p1124
S'k2:VGF2'
p1125
sS'chunktype'
p1126
S'head:NP7'
p1127
ssbsg26
I00
sg27
I00
sg28
Nsg29
Nsg30
I9
sg31
I1
sg32
Nsg33
Nsg34
S'NN'
p1128
sg36
g1113
sg37
I00
sba(issf_api
Word
p1129
(dp1130
g6
I00
sg7
V\u092e\u093e\u0901\u0917\u0940
p1131
sg9
(issf_api
FeatureSet
p1132
(dp1133
g12
(dp1134
S'posn'
p1135
S'220'
p1136
sS'name'
p1137
S'\xe0\xa4\xae\xe0\xa4\xbe\xe0\xa4\x81\xe0\xa4\x97\xe0\xa5\x80'
p1138
sS'af'
p1139
S'\xe0\xa4\xae\xe0\xa4\xbe\xe0\xa4\x81\xe0\xa4\x97,v,f,sg,3,,\xe0\xa4\xaf\xe0\xa4\xbe_\xe0\xa4\x9c\xe0\xa4\xbe+\xe0\xa4\xaf\xe0\xa4\xbe\xe0\xa5\xa7_\xe0\xa4\xb9\xe0\xa5\x88,yA'
p1140
sS'chunkid'
p1141
S'VGF2'
p1142
sS'stype'
p1143
S'declarative'
p1144
sS'drel'
p1145
S'ccof:CCP'
p1146
sS'voicetype'
p1147
S'passive'
p1148
sS'vpos'
p1149
S'tam_2_3'
p1150
sS'chunktype'
p1151
S'head:VGF2'
p1152
ssbsg26
I00
sg27
I00
sg28
Nsg29
Nsg30
I10
sg31
I1
sg32
Nsg33
Nsg34
S'VM'
p1153
sg36
g1132
sg37
I00
sba(issf_api
Word
p1154
(dp1155
g6
I00
sg7
V\u0917\u0908
p1156
sg9
(issf_api
FeatureSet
p1157
(dp1158
g12
(dp1159
S'posn'
p1160
S'230'
p1161
sS'name'
p1162
S'\xe0\xa4\x97\xe0\xa4\x88'
p1163
sS'drel'
p1164
S'lwg__vaux:VGF2'
p1165
sS'chunktype'
p1166
S'child:VGF2'
p1167
sS'af'
p1168
S'\xe0\xa4\x9c\xe0\xa4\xbe,v,f,sg,any,,\xe0\xa4\xaf\xe0\xa4\xbe\xe0\xa5\xa7,yA1'
p1169
ssbsg26
I00
sg27
I00
sg28
Nsg29
Nsg30
I10
sg31
I1
sg32
Nsg33
Nsg34
S'VAUX'
p1170
sg36
g1157
sg37
I00
sba(issf_api
Word
p1171
(dp1172
g6
I00
sg7
V\u0939\u0948
p1173
sg9
(issf_api
FeatureSet
p1174
(dp1175
g12
(dp1176
S'posn'
p1177
S'240'
p1178
sS'name'
p1179
S'\xe0\xa4\xb9\xe0\xa5\x88'
p1180
sS'drel'
p1181
S'lwg__vaux:VGF2'
p1182
sS'chunktype'
p1183
S'child:VGF2'
p1184
sS'af'
p1185
S'\xe0\xa4\xb9\xe0\xa5\x88,v,any,sg,3,,\xe0\xa4\xb9\xe0\xa5\x88,hE'
p1186
ssbsg26
I00
sg27
I00
sg28
Nsg29
Nsg30
I10
sg31
I1
sg32
Nsg33
Nsg34
S'VAUX'
p1187
sg36
g1174
sg37
I00
sba(issf_api
Word
p1188
(dp1189
g6
I00
sg7
V\u0964
p1190
sg9
(issf_api
FeatureSet
p1191
(dp1192
g12
(dp1193
S'posn'
p1194
S'250'
p1195
sS'name'
p1196
S'\xe0\xa5\xa4'
p1197
sS'af'
p1198
S'\xe0\xa5\xa4,punc,,,,,,'
p1199
sS'chunkid'
p1200
S'BLK'
p1201
sS'drel'
p1202
S'rsym:VGF'
p1203
sS'chunktype'
p1204
S'head:BLK'
p1205
ssbsg26
I00
sg27
I00
sg28
Nsg29
Nsg30
I11
sg31
I1
sg32
Nsg33
Nsg34
S'SYM'
p1206
sg36
g1191
sg37
I00
sba(issf_api
Word
p1207
(dp1208
g6
I00
sg7
V\u0917\u094c\u0930\u0924\u0932\u092c
p1209
sg9
(issf_api
FeatureSet
p1210
(dp1211
g12
(dp1212
S'posn'
p1213
S'10'
p1214
sS'name'
p1215
S'\xe0\xa4\x97\xe0\xa5\x8c\xe0\xa4\xb0\xe0\xa4\xa4\xe0\xa4\xb2\xe0\xa4\xac'
p1216
sS'af'
p1217
S'\xe0\xa4\x97\xe0\xa5\x8c\xe0\xa4\xb0\xe0\xa4\xa4\xe0\xa4\xb2\xe0\xa4\xac,adj,any,any,,,,'
p1218
sS'chunkid'
p1219
S'JJP'
p1220
sS'drel'
p1221
S'k1:VGF'
p1222
sS'chunktype'
p1223
S'head:JJP'
p1224
ssbsg26
I00
sg27
I00
sg28
Nsg29
Nsg30
I0
sg31
I2
sg32
Nsg33
Nsg34
S'JJ'
p1225
sg36
g1210
sg37
I00
sba(issf_api
Word
p1226
(dp1227
g6
I00
sg7
V\u0939\u0948
p1228
sg9
(issf_api
FeatureSet
p1229
(dp1230
g12
(dp1231
S'posn'
p1232
S'20'
p1233
sS'name'
p1234
S'\xe0\xa4\xb9\xe0\xa5\x88'
p1235
sS'af'
p1236
S'\xe0\xa4\xb9\xe0\xa5\x88,v,any,sg,3,,\xe0\xa4\xb9\xe0\xa5\x88,hE'
p1237
sS'chunkid'
p1238
S'VGF'
p1239
sS'chunktype'
p1240
S'head:VGF'
p1241
sS'voicetype'
p1242
S'active'
p1243
sS'stype'
p1244
S'declarative'
p1245
ssbsg26
I00
sg27
I00
sg28
Nsg29
Nsg30
I1
sg31
I2
sg32
Nsg33
Nsg34
S'VM'
p1246
sg36
g1229
sg37
I00
sba(issf_api
Word
p1247
(dp1248
g6
I00
sg7
V\u0915\u093f
p1249
sg9
(issf_api
FeatureSet
p1250
(dp1251
g12
(dp1252
S'posn'
p1253
S'30'
p1254
sS'name'
p1255
S'\xe0\xa4\x95\xe0\xa4\xbf'
p1256
sS'af'
p1257
S'\xe0\xa4\x95\xe0\xa4\xbf,avy,,,,,,'
p1258
sS'chunkid'
p1259
S'CCP'
p1260
sS'drel'
p1261
S'rs:NULL__NP'
p1262
sS'chunktype'
p1263
S'head:CCP'
p1264
ssbsg26
I00
sg27
I00
sg28
Nsg29
Nsg30
I2
sg31
I2
sg32
Nsg33
Nsg34
S'CC'
p1265
sg36
g1250
sg37
I00
sba(issf_api
Word
p1266
(dp1267
g6
I00
sg7
V\u0939\u0935\u093e\u0908
p1268
sg9
(issf_api
FeatureSet
p1269
(dp1270
g12
(dp1271
S'posn'
p1272
S'40'
p1273
sS'name'
p1274
S'\xe0\xa4\xb9\xe0\xa4\xb5\xe0\xa4\xbe\xe0\xa4\x88'
p1275
sS'af'
p1276
S'\xe0\xa4\xb9\xe0\xa4\xb5\xe0\xa4\xbe\xe0\xa4\x88,adj,any,any,,d,,'
p1277
sS'acrefmod'
p1278
S'm2%0:i9'
p1279
sS'drel'
p1280
S'pof__cn:NP'
p1281
sS'chunktype'
p1282
S'child:NP'
p1283
sS'cref'
p1284
S'i8%0:t3'
p1285
ssbsg26
I00
sg27
I00
sg28
Nsg29
Nsg30
I3
sg31
I2
sg32
Nsg33
Nsg34
S'NNC'
p1286
sg36
g1269
sg37
I00
sba(issf_api
Word
p1287
(dp1288
g6
I00
sg7
V\u0905\u0921\u094d\u0921\u094b\u0902
p1289
sg9
(issf_api
FeatureSet
p1290
(dp1291
g12
(dp1292
S'crefhead'
p1293
S'\xe0\xa4\x85\xe0\xa4\xa1\xe0\xa5\x8d\xe0\xa4\xa1\xe0\xa5\x8b\xe0\xa4\x82:i8'
p1294
sS'posn'
p1295
S'50'
p1296
sS'name'
p1297
S'\xe0\xa4\x85\xe0\xa4\xa1\xe0\xa5\x8d\xe0\xa4\xa1\xe0\xa5\x8b\xe0\xa4\x82'
p1298
sS'af'
p1299
S'\xe0\xa4\x85\xe0\xa4\xa1\xe0\xa5\x8d\xe0\xa4\xa1\xe0\xa4\xbe,n,m,pl,3,o,0_\xe0\xa4\x95\xe0\xa4\xbe,0'
p1300
sS'acrefmodhead'
p1301
S'\xe0\xa4\x85\xe0\xa4\xa1\xe0\xa5\x8d\xe0\xa4\xa1\xe0\xa5\x8b\xe0\xa4\x82:m2'
p1302
sS'chunkid'
p1303
S'NP'
p1304
sS'acrefmod'
p1305
S'm2%1:i9'
p1306
sS'creftype'
p1307
S'Coreference-Identity:i5'
p1308
sS'chunktype'
p1309
S'head:NP'
p1310
sS'vpos'
p1311
S'vib_3'
p1312
sS'cref'
p1313
S'i8%1:t3'
p1314
sS'drel'
p1315
S'r6:NP2'
p1316
ssbsg26
I00
sg27
I00
sg28
Nsg29
Nsg30
I3
sg31
I2
sg32
Nsg33
Nsg34
S'NN'
p1317
sg36
g1290
sg37
I00
sba(issf_api
Word
p1318
(dp1319
g6
I00
sg7
V\u0915\u0947
p1320
sg9
(issf_api
FeatureSet
p1321
(dp1322
g12
(dp1323
S'posn'
p1324
S'60'
p1325
sS'name'
p1326
S'\xe0\xa4\x95\xe0\xa5\x87'
p1327
sS'drel'
p1328
S'lwg__psp:NP'
p1329
sS'chunktype'
p1330
S'child:NP'
p1331
sS'af'
p1332
S'\xe0\xa4\x95\xe0\xa4\xbe,psp,m,sg,,o,,'
p1333
ssbsg26
I00
sg27
I00
sg28
Nsg29
Nsg30
I3
sg31
I2
sg32
Nsg33
Nsg34
S'PSP'
p1334
sg36
g1321
sg37
I00
sba(issf_api
Word
p1335
(dp1336
g6
I00
sg7
V\u0906\u0927\u0941\u0928\u093f\u0915\u0940\u0915\u0930\u0923
p1337
sg9
(issf_api
FeatureSet
p1338
(dp1339
g12
(dp1340
S'crefhead'
p1341
S'\xe0\xa4\x86\xe0\xa4\xa7\xe0\xa5\x81\xe0\xa4\xa8\xe0\xa4\xbf\xe0\xa4\x95\xe0\xa5\x80\xe0\xa4\x95\xe0\xa4\xb0\xe0\xa4\xa3:i9'
p1342
sS'posn'
p1343
S'70'
p1344
sS'name'
p1345
S'\xe0\xa4\x86\xe0\xa4\xa7\xe0\xa5\x81\xe0\xa4\xa8\xe0\xa4\xbf\xe0\xa4\x95\xe0\xa5\x80\xe0\xa4\x95\xe0\xa4\xb0\xe0\xa4\xa3'
p1346
sS'af'
p1347
S'\xe0\xa4\x86\xe0\xa4\xa7\xe0\xa5\x81\xe0\xa4\xa8\xe0\xa4\xbf\xe0\xa4\x95\xe0\xa5\x80\xe0\xa4\x95\xe0\xa4\xb0\xe0\xa4\xa3,n,m,sg,3,o,0_\xe0\xa4\x95\xe0\xa4\xbe,0'
p1348
sS'chunkid'
p1349
S'NP2'
p1350
sS'crefmod'
p1351
S'm2:i9'
p1352
sS'creftype'
p1353
S'Coreference-Identity:i4'
p1354
sS'chunktype'
p1355
S'head:NP2'
p1356
sS'vpos'
p1357
S'vib_2'
p1358
sS'cref'
p1359
S'i9%1:t4'
p1360
sS'drel'
p1361
S'r6:NP3'
p1362
ssbsg26
I00
sg27
I00
sg28
Nsg29
Nsg30
I4
sg31
I2
sg32
Nsg33
Nsg34
S'NN'
p1363
sg36
g1338
sg37
I00
sba(issf_api
Word
p1364
(dp1365
g6
I00
sg7
V\u0915\u0940
p1366
sg9
(issf_api
FeatureSet
p1367
(dp1368
g12
(dp1369
S'posn'
p1370
S'80'
p1371
sS'name'
p1372
S'\xe0\xa4\x95\xe0\xa5\x80'
p1373
sS'drel'
p1374
S'lwg__psp:NP2'
p1375
sS'chunktype'
p1376
S'child:NP2'
p1377
sS'af'
p1378
S'\xe0\xa4\x95\xe0\xa4\xbe,psp,f,sg,,o,,'
p1379
ssbsg26
I00
sg27
I00
sg28
Nsg29
Nsg30
I4
sg31
I2
sg32
Nsg33
Nsg34
S'PSP'
p1380
sg36
g1367
sg37
I00
sba(issf_api
Word
p1381
(dp1382
g6
I00
sg7
V\u092a\u094d\u0930\u0915\u094d\u0930\u093f\u092f\u093e
p1383
sg9
(issf_api
FeatureSet
p1384
(dp1385
g12
(dp1386
S'posn'
p1387
S'90'
p1388
sS'name'
p1389
S'\xe0\xa4\xaa\xe0\xa5\x8d\xe0\xa4\xb0\xe0\xa4\x95\xe0\xa5\x8d\xe0\xa4\xb0\xe0\xa4\xbf\xe0\xa4\xaf\xe0\xa4\xbe'
p1390
sS'af'
p1391
S'\xe0\xa4\xaa\xe0\xa5\x8d\xe0\xa4\xb0\xe0\xa4\x95\xe0\xa5\x8d\xe0\xa4\xb0\xe0\xa4\xbf\xe0\xa4\xaf\xe0\xa4\xbe,n,f,sg,3,o,0_\xe0\xa4\x95\xe0\xa4\xbe,0'
p1392
sS'chunkid'
p1393
S'NP3'
p1394
sS'drel'
p1395
S'r6:NP4'
p1396
sS'vpos'
p1397
S'vib_2'
p1398
sS'chunktype'
p1399
S'head:NP3'
p1400
ssbsg26
I00
sg27
I00
sg28
Nsg29
Nsg30
I5
sg31
I2
sg32
Nsg33
Nsg34
S'NN'
p1401
sg36
g1384
sg37
I00
sba(issf_api
Word
p1402
(dp1403
g6
I00
sg7
V\u0915\u0947
p1404
sg9
(issf_api
FeatureSet
p1405
(dp1406
g12
(dp1407
S'posn'
p1408
S'100'
p1409
sS'name'
p1410
S'\xe0\xa4\x95\xe0\xa5\x872'
p1411
sS'drel'
p1412
S'lwg__psp:NP3'
p1413
sS'chunktype'
p1414
S'child:NP3'
p1415
sS'af'
p1416
S'\xe0\xa4\x95\xe0\xa4\xbe,psp,m,sg,,o,,'
p1417
ssbsg26
I00
sg27
I00
sg28
Nsg29
Nsg30
I5
sg31
I2
sg32
Nsg33
Nsg34
S'PSP'
p1418
sg36
g1405
sg37
I00
sba(issf_api
Word
p1419
(dp1420
g6
I00
sg7
V\u092e\u0942\u0932\u094d\u092f\u093e\u0902\u0915\u0928
p1421
sg9
(issf_api
FeatureSet
p1422
(dp1423
g12
(dp1424
S'posn'
p1425
S'110'
p1426
sS'name'
p1427
S'\xe0\xa4\xae\xe0\xa5\x82\xe0\xa4\xb2\xe0\xa5\x8d\xe0\xa4\xaf\xe0\xa4\xbe\xe0\xa4\x82\xe0\xa4\x95\xe0\xa4\xa8'
p1428
sS'af'
p1429
S'\xe0\xa4\xae\xe0\xa5\x82\xe0\xa4\xb2\xe0\xa5\x8d\xe0\xa4\xaf\xe0\xa4\xbe\xe0\xa4\x82\xe0\xa4\x95\xe0\xa4\xa8,n,m,sg,3,o,0_\xe0\xa4\x95\xe0\xa5\x87_\xe0\xa4\xb2\xe0\xa4\xbf\xe0\xa4\x8f,0'
p1430
sS'chunkid'
p1431
S'NP4'
p1432
sS'drel'
p1433
S'rt:VGF2'
p1434
sS'vpos'
p1435
S'vib_2_3'
p1436
sS'chunktype'
p1437
S'head:NP4'
p1438
ssbsg26
I00
sg27
I00
sg28
Nsg29
Nsg30
I6
sg31
I2
sg32
Nsg33
Nsg34
S'NN'
p1439
sg36
g1422
sg37
I00
sba(issf_api
Word
p1440
(dp1441
g6
I00
sg7
V\u0915\u0947
p1442
sg9
(issf_api
FeatureSet
p1443
(dp1444
g12
(dp1445
S'posn'
p1446
S'120'
p1447
sS'name'
p1448
S'\xe0\xa4\x95\xe0\xa5\x873'
p1449
sS'drel'
p1450
S'lwg__psp:NP4'
p1451
sS'chunktype'
p1452
S'child:NP4'
p1453
sS'af'
p1454
S'\xe0\xa4\x95\xe0\xa5\x87,psp,,,,,,'
p1455
ssbsg26
I00
sg27
I00
sg28
Nsg29
Nsg30
I6
sg31
I2
sg32
Nsg33
Nsg34
S'PSP'
p1456
sg36
g1443
sg37
I00
sba(issf_api
Word
p1457
(dp1458
g6
I00
sg7
V\u0932\u093f\u090f
p1459
sg9
(issf_api
FeatureSet
p1460
(dp1461
g12
(dp1462
S'posn'
p1463
S'130'
p1464
sS'name'
p1465
S'\xe0\xa4\xb2\xe0\xa4\xbf\xe0\xa4\x8f'
p1466
sS'drel'
p1467
S'lwg__psp:NP4'
p1468
sS'chunktype'
p1469
S'child:NP4'
p1470
sS'af'
p1471
S'\xe0\xa4\xb2\xe0\xa4\xbf\xe0\xa4\x8f,psp,,,,,,'
p1472
ssbsg26
I00
sg27
I00
sg28
Nsg29
Nsg30
I6
sg31
I2
sg32
Nsg33
Nsg34
S'PSP'
p1473
sg36
g1460
sg37
I00
sba(issf_api
Word
p1474
(dp1475
g6
I00
sg7
V\u0905\u0902\u0924\u0930
p1476
sg9
(issf_api
FeatureSet
p1477
(dp1478
g12
(dp1479
S'posn'
p1480
S'140'
p1481
sS'name'
p1482
S'\xe0\xa4\x85\xe0\xa4\x82\xe0\xa4\xa4\xe0\xa4\xb0'
p1483
sS'drel'
p1484
S'pof__cn:NP5'
p1485
sS'chunktype'
p1486
S'child:NP5'
p1487
sS'af'
p1488
S'\xe0\xa4\x85\xe0\xa4\x82\xe0\xa4\xa4\xe0\xa4\xb0,n,m,sg,3,d,0,0'
p1489
ssbsg26
I00
sg27
I00
sg28
Nsg29
Nsg30
I7
sg31
I2
sg32
Nsg33
Nsg34
S'NNC'
p1490
sg36
g1477
sg37
I00
sba(issf_api
Word
p1491
(dp1492
g6
I00
sg7
V-
p1493
sg9
(issf_api
FeatureSet
p1494
(dp1495
g12
(dp1496
S'posn'
p1497
S'150'
p1498
sS'name'
p1499
S'-'
p1500
sS'drel'
p1501
S'pof__cn:NP5'
p1502
sS'chunktype'
p1503
S'child:NP5'
p1504
sS'af'
p1505
S'-,punc,,,,,,'
p1506
ssbsg26
I00
sg27
I00
sg28
Nsg29
Nsg30
I7
sg31
I2
sg32
Nsg33
Nsg34
S'SYM'
p1507
sg36
g1494
sg37
I00
sba(issf_api
Word
p1508
(dp1509
g6
I00
sg7
V\u092e\u0902\u0924\u094d\u0930\u093e\u0932\u092f
p1510
sg9
(issf_api
FeatureSet
p1511
(dp1512
g12
(dp1513
S'posn'
p1514
S'160'
p1515
sS'name'
p1516
S'\xe0\xa4\xae\xe0\xa4\x82\xe0\xa4\xa4\xe0\xa5\x8d\xe0\xa4\xb0\xe0\xa4\xbe\xe0\xa4\xb2\xe0\xa4\xaf'
p1517
sS'drel'
p1518
S'pof__cn:NP5'
p1519
sS'chunktype'
p1520
S'child:NP5'
p1521
sS'af'
p1522
S'\xe0\xa4\xae\xe0\xa4\x82\xe0\xa4\xa4\xe0\xa5\x8d\xe0\xa4\xb0\xe0\xa4\xbe\xe0\xa4\xb2\xe0\xa4\xaf,n,m,sg,3,d,0,0'
p1523
ssbsg26
I00
sg27
I00
sg28
Nsg29
Nsg30
I7
sg31
I2
sg32
Nsg33
Nsg34
S'NNC'
p1524
sg36
g1511
sg37
I00
sba(issf_api
Word
p1525
(dp1526
g6
I00
sg7
V\u0938\u092e\u0942\u0939
p1527
sg9
(issf_api
FeatureSet
p1528
(dp1529
g12
(dp1530
S'posn'
p1531
S'170'
p1532
sS'name'
p1533
S'\xe0\xa4\xb8\xe0\xa4\xae\xe0\xa5\x82\xe0\xa4\xb9'
p1534
sS'af'
p1535
S'\xe0\xa4\xb8\xe0\xa4\xae\xe0\xa5\x82\xe0\xa4\xb9,n,m,sg,3,o,0_\xe0\xa4\xae\xe0\xa5\x87\xe0\xa4\x82,0'
p1536
sS'chunkid'
p1537
S'NP5'
p1538
sS'drel'
p1539
S'k7:VGNN'
p1540
sS'vpos'
p1541
S'vib_5'
p1542
sS'chunktype'
p1543
S'head:NP5'
p1544
ssbsg26
I00
sg27
I00
sg28
Nsg29
Nsg30
I7
sg31
I2
sg32
Nsg33
Nsg34
S'NN'
p1545
sg36
g1528
sg37
I00
sba(issf_api
Word
p1546
(dp1547
g6
I00
sg7
V\u092e\u0947\u0902
p1548
sg9
(issf_api
FeatureSet
p1549
(dp1550
g12
(dp1551
S'posn'
p1552
S'180'
p1553
sS'name'
p1554
S'\xe0\xa4\xae\xe0\xa5\x87\xe0\xa4\x82'
p1555
sS'drel'
p1556
S'lwg__psp:NP5'
p1557
sS'chunktype'
p1558
S'child:NP5'
p1559
sS'af'
p1560
S'\xe0\xa4\xae\xe0\xa5\x87\xe0\xa4\x82,psp,,,,,,'
p1561
ssbsg26
I00
sg27
I00
sg28
Nsg29
Nsg30
I7
sg31
I2
sg32
Nsg33
Nsg34
S'PSP'
p1562
sg36
g1549
sg37
I00
sba(issf_api
Word
p1563
(dp1564
g6
I00
sg7
V\u092e\u0924\u092d\u0947\u0926
p1565
sg9
(issf_api
FeatureSet
p1566
(dp1567
g12
(dp1568
S'posn'
p1569
S'190'
p1570
sS'name'
p1571
S'\xe0\xa4\xae\xe0\xa4\xa4\xe0\xa4\xad\xe0\xa5\x87\xe0\xa4\xa6'
p1572
sS'af'
p1573
S'\xe0\xa4\xae\xe0\xa4\xa4\xe0\xa4\xad\xe0\xa5\x87\xe0\xa4\xa6,n,m,sg,3,d,0,0'
p1574
sS'chunkid'
p1575
S'NP6'
p1576
sS'drel'
p1577
S'k2:VGNN'
p1578
sS'chunktype'
p1579
S'head:NP6'
p1580
ssbsg26
I00
sg27
I00
sg28
Nsg29
Nsg30
I8
sg31
I2
sg32
Nsg33
Nsg34
S'NN'
p1581
sg36
g1566
sg37
I00
sba(issf_api
Word
p1582
(dp1583
g6
I00
sg7
V\u092a\u0948\u0926\u093e
p1584
sg9
(issf_api
FeatureSet
p1585
(dp1586
g12
(dp1587
S'posn'
p1588
S'200'
p1589
sS'name'
p1590
S'\xe0\xa4\xaa\xe0\xa5\x88\xe0\xa4\xa6\xe0\xa4\xbe'
p1591
sS'af'
p1592
S'\xe0\xa4\xaa\xe0\xa5\x88\xe0\xa4\xa6\xe0\xa4\xbe,adj,any,any,,,,'
p1593
sS'chunkid'
p1594
S'JJP2'
p1595
sS'drel'
p1596
S'pof:VGNN'
p1597
sS'chunktype'
p1598
S'head:JJP2'
p1599
ssbsg26
I00
sg27
I00
sg28
Nsg29
Nsg30
I9
sg31
I2
sg32
Nsg33
Nsg34
S'JJ'
p1600
sg36
g1585
sg37
I00
sba(issf_api
Word
p1601
(dp1602
g6
I00
sg7
V\u0939\u094b\u0928\u0947
p1603
sg9
(issf_api
FeatureSet
p1604
(dp1605
g12
(dp1606
S'posn'
p1607
S'210'
p1608
sS'name'
p1609
S'\xe0\xa4\xb9\xe0\xa5\x8b\xe0\xa4\xa8\xe0\xa5\x87'
p1610
sS'af'
p1611
S'\xe0\xa4\xb9\xe0\xa5\x8b,v,any,sg,3,o,\xe0\xa4\xa8\xe0\xa4\xbe_\xe0\xa4\x95\xe0\xa5\x87_\xe0\xa4\xac\xe0\xa4\xbe\xe0\xa4\xa6,nA'
p1612
sS'chunkid'
p1613
S'VGNN'
p1614
sS'drel'
p1615
S'k7t:VGF2'
p1616
sS'vpos'
p1617
S'tam_2_3'
p1618
sS'chunktype'
p1619
S'head:VGNN'
p1620
ssbsg26
I00
sg27
I00
sg28
Nsg29
Nsg30
I10
sg31
I2
sg32
Nsg33
Nsg34
S'VM'
p1621
sg36
g1604
sg37
I00
sba(issf_api
Word
p1622
(dp1623
g6
I00
sg7
V\u0915\u0947
p1624
sg9
(issf_api
FeatureSet
p1625
(dp1626
g12
(dp1627
S'posn'
p1628
S'220'
p1629
sS'name'
p1630
S'\xe0\xa4\x95\xe0\xa5\x874'
p1631
sS'drel'
p1632
S'lwg__psp:VGNN'
p1633
sS'chunktype'
p1634
S'child:VGNN'
p1635
sS'af'
p1636
S'\xe0\xa4\x95\xe0\xa5\x87,psp,,,,,,'
p1637
ssbsg26
I00
sg27
I00
sg28
Nsg29
Nsg30
I10
sg31
I2
sg32
Nsg33
Nsg34
S'PSP'
p1638
sg36
g1625
sg37
I00
sba(issf_api
Word
p1639
(dp1640
g6
I00
sg7
V\u092c\u093e\u0926
p1641
sg9
(issf_api
FeatureSet
p1642
(dp1643
g12
(dp1644
S'posn'
p1645
S'230'
p1646
sS'name'
p1647
S'\xe0\xa4\xac\xe0\xa4\xbe\xe0\xa4\xa6'
p1648
sS'drel'
p1649
S'lwg__nst:VGNN'
p1650
sS'chunktype'
p1651
S'child:VGNN'
p1652
sS'af'
p1653
S'\xe0\xa4\xac\xe0\xa4\xbe\xe0\xa4\xa6,nst,m,sg,3,d,,'
p1654
ssbsg26
I00
sg27
I00
sg28
Nsg29
Nsg30
I10
sg31
I2
sg32
Nsg33
Nsg34
S'NST'
p1655
sg36
g1642
sg37
I00
sba(issf_api
Word
p1656
(dp1657
g6
I00
sg7
V\u092a\u093f\u091b\u0932\u0947
p1658
sg9
(issf_api
FeatureSet
p1659
(dp1660
g12
(dp1661
S'posn'
p1662
S'240'
p1663
sS'name'
p1664
S'\xe0\xa4\xaa\xe0\xa4\xbf\xe0\xa4\x9b\xe0\xa4\xb2\xe0\xa5\x87'
p1665
sS'drel'
p1666
S'nmod__adj:NP7'
p1667
sS'chunktype'
p1668
S'child:NP7'
p1669
sS'af'
p1670
S'\xe0\xa4\xaa\xe0\xa4\xbf\xe0\xa4\x9b\xe0\xa4\xb2\xe0\xa4\xbe,adj,m,sg,,o,,'
p1671
ssbsg26
I00
sg27
I00
sg28
Nsg29
Nsg30
I11
sg31
I2
sg32
Nsg33
Nsg34
S'JJ'
p1672
sg36
g1659
sg37
I00
sba(issf_api
Word
p1673
(dp1674
g6
I00
sg7
V\u0938\u092a\u094d\u0924\u093e\u0939
p1675
sg9
(issf_api
FeatureSet
p1676
(dp1677
g12
(dp1678
S'posn'
p1679
S'250'
p1680
sS'name'
p1681
S'\xe0\xa4\xb8\xe0\xa4\xaa\xe0\xa5\x8d\xe0\xa4\xa4\xe0\xa4\xbe\xe0\xa4\xb9'
p1682
sS'af'
p1683
S'\xe0\xa4\xb8\xe0\xa4\xaa\xe0\xa5\x8d\xe0\xa4\xa4\xe0\xa4\xbe\xe0\xa4\xb9,n,m,sg,3,o,0,0'
p1684
sS'chunkid'
p1685
S'NP7'
p1686
sS'drel'
p1687
S'k7t:VGF2'
p1688
sS'chunktype'
p1689
S'head:NP7'
p1690
ssbsg26
I00
sg27
I00
sg28
Nsg29
Nsg30
I11
sg31
I2
sg32
Nsg33
Nsg34
S'NN'
p1691
sg36
g1676
sg37
I00
sba(issf_api
Word
p1692
(dp1693
g6
I00
sg7
V\u0915\u0948\u092c\u093f\u0928\u0947\u091f
p1694
sg9
(issf_api
FeatureSet
p1695
(dp1696
g12
(dp1697
S'posn'
p1698
S'260'
p1699
sS'name'
p1700
S'\xe0\xa4\x95\xe0\xa5\x88\xe0\xa4\xac\xe0\xa4\xbf\xe0\xa4\xa8\xe0\xa5\x87\xe0\xa4\x9f'
p1701
sS'af'
p1702
S'\xe0\xa4\x95\xe0\xa5\x88\xe0\xa4\xac\xe0\xa4\xbf\xe0\xa4\xa8\xe0\xa5\x87\xe0\xa4\x9f,n,m,sg,3,d,0,0'
p1703
sS'drel'
p1704
S'pof__cn:NP8'
p1705
sS'chunktype'
p1706
S'child:NP8'
p1707
sS'cref'
p1708
S'i10%0:t1'
p1709
ssbsg26
I00
sg27
I00
sg28
Nsg29
Nsg30
I12
sg31
I2
sg32
Nsg33
Nsg34
S'NNC'
p1710
sg36
g1695
sg37
I00
sba(issf_api
Word
p1711
(dp1712
g6
I00
sg7
V\u0938\u091a\u093f\u0935
p1713
sg9
(issf_api
FeatureSet
p1714
(dp1715
g12
(dp1716
S'crefhead'
p1717
S'\xe0\xa4\xb8\xe0\xa4\x9a\xe0\xa4\xbf\xe0\xa4\xb5:i10'
p1718
sS'posn'
p1719
S'270'
p1720
sS'name'
p1721
S'\xe0\xa4\xb8\xe0\xa4\x9a\xe0\xa4\xbf\xe0\xa4\xb5'
p1722
sS'af'
p1723
S'\xe0\xa4\xb8\xe0\xa4\x9a\xe0\xa4\xbf\xe0\xa4\xb5,n,m,sg,3,o,0_\xe0\xa4\x95\xe0\xa4\xbe,0'
p1724
sS'chunkid'
p1725
S'NP8'
p1726
sS'creftype'
p1727
S'Coreference-Identity:i15:i11'
p1728
sS'chunktype'
p1729
S'head:NP8'
p1730
sS'vpos'
p1731
S'vib_3'
p1732
sS'cref'
p1733
S'i10%1:t1'
p1734
sS'drel'
p1735
S'r6:NP9'
p1736
ssbsg26
I00
sg27
I00
sg28
Nsg29
Nsg30
I12
sg31
I2
sg32
Nsg33
Nsg34
S'NN'
p1737
sg36
g1714
sg37
I00
sba(issf_api
Word
p1738
(dp1739
g6
I00
sg7
V\u0915\u0947
p1740
sg9
(issf_api
FeatureSet
p1741
(dp1742
g12
(dp1743
S'posn'
p1744
S'280'
p1745
sS'name'
p1746
S'\xe0\xa4\x95\xe0\xa5\x875'
p1747
sS'drel'
p1748
S'lwg__psp:NP8'
p1749
sS'chunktype'
p1750
S'child:NP8'
p1751
sS'af'
p1752
S'\xe0\xa4\x95\xe0\xa4\xbe,psp,m,sg,,o,,'
p1753
ssbsg26
I00
sg27
I00
sg28
Nsg29
Nsg30
I12
sg31
I2
sg32
Nsg33
Nsg34
S'PSP'
p1754
sg36
g1741
sg37
I00
sba(issf_api
Word
p1755
(dp1756
g6
I00
sg7
V\u0928\u0947\u0924\u0943\u0924\u094d\u0935
p1757
sg9
(issf_api
FeatureSet
p1758
(dp1759
g12
(dp1760
S'posn'
p1761
S'290'
p1762
sS'name'
p1763
S'\xe0\xa4\xa8\xe0\xa5\x87\xe0\xa4\xa4\xe0\xa5\x83\xe0\xa4\xa4\xe0\xa5\x8d\xe0\xa4\xb5'
p1764
sS'af'
p1765
S'\xe0\xa4\xa8\xe0\xa5\x87\xe0\xa4\xa4\xe0\xa5\x83\xe0\xa4\xa4\xe0\xa5\x8d\xe0\xa4\xb5,n,m,sg,3,o,0_\xe0\xa4\xae\xe0\xa5\x87\xe0\xa4\x82,0'
p1766
sS'chunkid'
p1767
S'NP9'
p1768
sS'drel'
p1769
S'k7:VGF2'
p1770
sS'vpos'
p1771
S'vib_2'
p1772
sS'chunktype'
p1773
S'head:NP9'
p1774
ssbsg26
I00
sg27
I00
sg28
Nsg29
Nsg30
I13
sg31
I2
sg32
Nsg33
Nsg34
S'NN'
p1775
sg36
g1758
sg37
I00
sba(issf_api
Word
p1776
(dp1777
g6
I00
sg7
V\u092e\u0947\u0902
p1778
sg9
(issf_api
FeatureSet
p1779
(dp1780
g12
(dp1781
S'posn'
p1782
S'300'
p1783
sS'name'
p1784
S'\xe0\xa4\xae\xe0\xa5\x87\xe0\xa4\x822'
p1785
sS'drel'
p1786
S'lwg__psp:NP9'
p1787
sS'chunktype'
p1788
S'child:NP9'
p1789
sS'af'
p1790
S'\xe0\xa4\xae\xe0\xa5\x87\xe0\xa4\x82,psp,,,,,,'
p1791
ssbsg26
I00
sg27
I00
sg28
Nsg29
Nsg30
I13
sg31
I2
sg32
Nsg33
Nsg34
S'PSP'
p1792
sg36
g1779
sg37
I00
sba(issf_api
Word
p1793
(dp1794
g6
I00
sg7
V\u0938\u092e\u093f\u0924\u093f
p1795
sg9
(issf_api
FeatureSet
p1796
(dp1797
g12
(dp1798
S'crefhead'
p1799
S'\xe0\xa4\xb8\xe0\xa4\xae\xe0\xa4\xbf\xe0\xa4\xa4\xe0\xa4\xbf:i12'
p1800
sS'posn'
p1801
S'310'
p1802
sS'name'
p1803
S'\xe0\xa4\xb8\xe0\xa4\xae\xe0\xa4\xbf\xe0\xa4\xa4\xe0\xa4\xbf'
p1804
sS'af'
p1805
S'\xe0\xa4\xb8\xe0\xa4\xae\xe0\xa4\xbf\xe0\xa4\xa4\xe0\xa4\xbf,n,f,sg,3,d,0,0'
p1806
sS'chunkid'
p1807
S'NP10'
p1808
sS'chunktype'
p1809
S'head:NP10'
p1810
sS'crefchainhead'
p1811
S'i12:t5'
p1812
sS'cref'
p1813
S'i12%1:t5'
p1814
sS'drel'
p1815
S'k2:VGF2'
p1816
ssbsg26
I00
sg27
I00
sg28
Nsg29
Nsg30
I14
sg31
I2
sg32
Nsg33
Nsg34
S'NN'
p1817
sg36
g1796
sg37
I00
sba(issf_api
Word
p1818
(dp1819
g6
I00
sg7
V\u0917\u0920\u093f\u0924
p1820
sg9
(issf_api
FeatureSet
p1821
(dp1822
g12
(dp1823
S'posn'
p1824
S'320'
p1825
sS'name'
p1826
S'\xe0\xa4\x97\xe0\xa4\xa0\xe0\xa4\xbf\xe0\xa4\xa4'
p1827
sS'af'
p1828
S'\xe0\xa4\x97\xe0\xa4\xa0\xe0\xa4\xbf\xe0\xa4\xa4,adj,any,any,,,,'
p1829
sS'chunkid'
p1830
S'JJP3'
p1831
sS'drel'
p1832
S'pof:VGF2'
p1833
sS'chunktype'
p1834
S'head:JJP3'
p1835
ssbsg26
I00
sg27
I00
sg28
Nsg29
Nsg30
I15
sg31
I2
sg32
Nsg33
Nsg34
S'JJ'
p1836
sg36
g1821
sg37
I00
sba(issf_api
Word
p1837
(dp1838
g6
I00
sg7
V\u0915\u0940
p1839
sg9
(issf_api
FeatureSet
p1840
(dp1841
g12
(dp1842
S'posn'
p1843
S'330'
p1844
sS'name'
p1845
S'\xe0\xa4\x95\xe0\xa5\x802'
p1846
sS'af'
p1847
S'\xe0\xa4\x95\xe0\xa4\xb0,v,f,sg,any,,\xe0\xa4\xaf\xe0\xa4\xbe_\xe0\xa4\x9c\xe0\xa4\xbe+\xe0\xa4\xaf\xe0\xa4\xbe\xe0\xa5\xa7_\xe0\xa4\xa5\xe0\xa4\xbe,yA'
p1848
sS'chunkid'
p1849
S'VGF2'
p1850
sS'stype'
p1851
S'declarative'
p1852
sS'drel'
p1853
S'ccof:CCP'
p1854
sS'voicetype'
p1855
S'passive'
p1856
sS'vpos'
p1857
S'tam_2_3'
p1858
sS'chunktype'
p1859
S'head:VGF2'
p1860
ssbsg26
I00
sg27
I00
sg28
Nsg29
Nsg30
I16
sg31
I2
sg32
Nsg33
Nsg34
S'VM'
p1861
sg36
g1840
sg37
I00
sba(issf_api
Word
p1862
(dp1863
g6
I00
sg7
V\u0917\u0908
p1864
sg9
(issf_api
FeatureSet
p1865
(dp1866
g12
(dp1867
S'posn'
p1868
S'340'
p1869
sS'name'
p1870
S'\xe0\xa4\x97\xe0\xa4\x88'
p1871
sS'drel'
p1872
S'lwg__vaux:VGF2'
p1873
sS'chunktype'
p1874
S'child:VGF2'
p1875
sS'af'
p1876
S'\xe0\xa4\x9c\xe0\xa4\xbe,v,f,sg,any,,\xe0\xa4\xaf\xe0\xa4\xbe\xe0\xa5\xa7,yA1'
p1877
ssbsg26
I00
sg27
I00
sg28
Nsg29
Nsg30
I16
sg31
I2
sg32
Nsg33
Nsg34
S'VAUX'
p1878
sg36
g1865
sg37
I00
sba(issf_api
Word
p1879
(dp1880
g6
I00
sg7
V\u0925\u0940
p1881
sg9
(issf_api
FeatureSet
p1882
(dp1883
g12
(dp1884
S'posn'
p1885
S'350'
p1886
sS'name'
p1887
S'\xe0\xa4\xa5\xe0\xa5\x80'
p1888
sS'drel'
p1889
S'lwg__vaux:VGF2'
p1890
sS'chunktype'
p1891
S'child:VGF2'
p1892
sS'af'
p1893
S'\xe0\xa4\xa5\xe0\xa4\xbe,v,f,sg,any,,\xe0\xa4\xa5\xe0\xa4\xbe,WA'
p1894
ssbsg26
I00
sg27
I00
sg28
Nsg29
Nsg30
I16
sg31
I2
sg32
Nsg33
Nsg34
S'VAUX'
p1895
sg36
g1882
sg37
I00
sba(issf_api
Word
p1896
(dp1897
g6
I00
sg7
V\u0964
p1898
sg9
(issf_api
FeatureSet
p1899
(dp1900
g12
(dp1901
S'posn'
p1902
S'360'
p1903
sS'name'
p1904
S'\xe0\xa5\xa4'
p1905
sS'af'
p1906
S'\xe0\xa5\xa4,punc,,,,,,'
p1907
sS'chunkid'
p1908
S'BLK'
p1909
sS'drel'
p1910
S'rsym:VGF'
p1911
sS'chunktype'
p1912
S'head:BLK'
p1913
ssbsg26
I00
sg27
I00
sg28
Nsg29
Nsg30
I17
sg31
I2
sg32
Nsg33
Nsg34
S'SYM'
p1914
sg36
g1899
sg37
I00
sba(issf_api
Word
p1915
(dp1916
g6
I00
sg7
V\u0907\u0938
p1917
sg9
(issf_api
FeatureSet
p1918
(dp1919
g12
(dp1920
S'posn'
p1921
S'10'
p1922
sS'name'
p1923
S'\xe0\xa4\x87\xe0\xa4\xb8'
p1924
sS'af'
p1925
S'\xe0\xa4\xaf\xe0\xa4\xb9,pn,any,sg,3,o,,'
p1926
sS'drel'
p1927
S'nmod__adj:NP'
p1928
sS'chunktype'
p1929
S'child:NP'
p1930
sS'cref'
p1931
S'i13%0:t5'
p1932
ssbsg26
I00
sg27
I00
sg28
Nsg29
Nsg30
I0
sg31
I3
sg32
Nsg33
Nsg34
S'DEM'
p1933
sg36
g1918
sg37
I00
sba(issf_api
Word
p1934
(dp1935
g6
I00
sg7
V\u0938\u092e\u093f\u0924\u093f
p1936
sg9
(issf_api
FeatureSet
p1937
(dp1938
g12
(dp1939
S'crefhead'
p1940
S'\xe0\xa4\xb8\xe0\xa4\xae\xe0\xa4\xbf\xe0\xa4\xa4\xe0\xa4\xbf:i13'
p1941
sS'posn'
p1942
S'20'
p1943
sS'name'
p1944
S'\xe0\xa4\xb8\xe0\xa4\xae\xe0\xa4\xbf\xe0\xa4\xa4\xe0\xa4\xbf'
p1945
sS'af'
p1946
S'\xe0\xa4\xb8\xe0\xa4\xae\xe0\xa4\xbf\xe0\xa4\xa4\xe0\xa4\xbf,n,f,sg,3,o,0_\xe0\xa4\x95\xe0\xa4\xbe,0'
p1947
sS'chunkid'
p1948
S'NP'
p1949
sS'creftype'
p1950
S'Coreference-Identity:i12'
p1951
sS'chunktype'
p1952
S'head:NP'
p1953
sS'vpos'
p1954
S'vib_3'
p1955
sS'cref'
p1956
S'i13%1:t5'
p1957
sS'drel'
p1958
S'r6:NP2'
p1959
ssbsg26
I00
sg27
I00
sg28
Nsg29
Nsg30
I0
sg31
I3
sg32
Nsg33
Nsg34
S'NN'
p1960
sg36
g1937
sg37
I00
sba(issf_api
Word
p1961
(dp1962
g6
I00
sg7
V\u0915\u0947
p1963
sg9
(issf_api
FeatureSet
p1964
(dp1965
g12
(dp1966
S'posn'
p1967
S'30'
p1968
sS'name'
p1969
S'\xe0\xa4\x95\xe0\xa5\x87'
p1970
sS'drel'
p1971
S'lwg__psp:NP'
p1972
sS'chunktype'
p1973
S'child:NP'
p1974
sS'af'
p1975
S'\xe0\xa4\x95\xe0\xa4\xbe,psp,m,pl,,o,,'
p1976
ssbsg26
I00
sg27
I00
sg28
Nsg29
Nsg30
I0
sg31
I3
sg32
Nsg33
Nsg34
S'PSP'
p1977
sg36
g1964
sg37
I00
sba(issf_api
Word
p1978
(dp1979
g6
I00
sg7
V\u0905\u0928\u094d\u092f
p1980
sg9
(issf_api
FeatureSet
p1981
(dp1982
g12
(dp1983
S'posn'
p1984
S'40'
p1985
sS'name'
p1986
S'\xe0\xa4\x85\xe0\xa4\xa8\xe0\xa5\x8d\xe0\xa4\xaf'
p1987
sS'drel'
p1988
S'nmod__adj:NP2'
p1989
sS'chunktype'
p1990
S'child:NP2'
p1991
sS'af'
p1992
S'\xe0\xa4\x85\xe0\xa4\xa8\xe0\xa5\x8d\xe0\xa4\xaf,adj,any,any,,o,,'
p1993
ssbsg26
I00
sg27
I00
sg28
Nsg29
Nsg30
I1
sg31
I3
sg32
Nsg33
Nsg34
S'JJ'
p1994
sg36
g1981
sg37
I00
sba(issf_api
Word
p1995
(dp1996
g6
I00
sg7
V\u0938\u0926\u0938\u094d\u092f\u094b\u0902
p1997
sg9
(issf_api
FeatureSet
p1998
(dp1999
g12
(dp2000
S'posn'
p2001
S'50'
p2002
sS'name'
p2003
S'\xe0\xa4\xb8\xe0\xa4\xa6\xe0\xa4\xb8\xe0\xa5\x8d\xe0\xa4\xaf\xe0\xa5\x8b\xe0\xa4\x82'
p2004
sS'af'
p2005
S'\xe0\xa4\xb8\xe0\xa4\xa6\xe0\xa4\xb8\xe0\xa5\x8d\xe0\xa4\xaf,n,m,pl,3,o,0_\xe0\xa4\xae\xe0\xa5\x87\xe0\xa4\x82,0'
p2006
sS'chunkid'
p2007
S'NP2'
p2008
sS'drel'
p2009
S'k7:VGF'
p2010
sS'vpos'
p2011
S'vib_3'
p2012
sS'chunktype'
p2013
S'head:NP2'
p2014
ssbsg26
I00
sg27
I00
sg28
Nsg29
Nsg30
I1
sg31
I3
sg32
Nsg33
Nsg34
S'NN'
p2015
sg36
g1998
sg37
I00
sba(issf_api
Word
p2016
(dp2017
g6
I00
sg7
V\u092e\u0947\u0902
p2018
sg9
(issf_api
FeatureSet
p2019
(dp2020
g12
(dp2021
S'posn'
p2022
S'60'
p2023
sS'name'
p2024
S'\xe0\xa4\xae\xe0\xa5\x87\xe0\xa4\x82'
p2025
sS'drel'
p2026
S'lwg__psp:NP2'
p2027
sS'chunktype'
p2028
S'child:NP2'
p2029
sS'af'
p2030
S'\xe0\xa4\xae\xe0\xa5\x87\xe0\xa4\x82,psp,,,,,,'
p2031
ssbsg26
I00
sg27
I00
sg28
Nsg29
Nsg30
I1
sg31
I3
sg32
Nsg33
Nsg34
S'PSP'
p2032
sg36
g2019
sg37
I00
sba(issf_api
Word
p2033
(dp2034
g6
I00
sg7
V\u0928\u093e\u0917\u0930\u093f\u0915
p2035
sg9
(issf_api
FeatureSet
p2036
(dp2037
g12
(dp2038
S'posn'
p2039
S'70'
p2040
sS'name'
p2041
S'\xe0\xa4\xa8\xe0\xa4\xbe\xe0\xa4\x97\xe0\xa4\xb0\xe0\xa4\xbf\xe0\xa4\x95'
p2042
sS'drel'
p2043
S'pof__cn:NP3'
p2044
sS'chunktype'
p2045
S'child:NP3'
p2046
sS'af'
p2047
S'\xe0\xa4\xa8\xe0\xa4\xbe\xe0\xa4\x97\xe0\xa4\xb0\xe0\xa4\xbf\xe0\xa4\x95,n,m,sg,3,d,0,0'
p2048
ssbsg26
I00
sg27
I00
sg28
Nsg29
Nsg30
I2
sg31
I3
sg32
Nsg33
Nsg34
S'NNPC'
p2049
sg36
g2036
sg37
I00
sba(issf_api
Word
p2050
(dp2051
g6
I00
sg7
V\u0909\u0921\u094d\u0921\u092f\u0928
p2052
sg9
(issf_api
FeatureSet
p2053
(dp2054
g12
(dp2055
S'posn'
p2056
S'80'
p2057
sS'name'
p2058
S'\xe0\xa4\x89\xe0\xa4\xa1\xe0\xa5\x8d\xe0\xa4\xa1\xe0\xa4\xaf\xe0\xa4\xa8'
p2059
sS'af'
p2060
S'\xe0\xa4\x89\xe0\xa4\xa1\xe0\xa5\x8d\xe0\xa4\xa1\xe0\xa4\xaf\xe0\xa4\xa8,n,m,sg,3,d,0,0'
p2061
sS'chunkid'
p2062
S'NP3'
p2063
sS'drel'
p2064
S'ccof:CCP'
p2065
sS'chunktype'
p2066
S'head:NP3'
p2067
ssbsg26
I00
sg27
I00
sg28
Nsg29
Nsg30
I2
sg31
I3
sg32
Nsg33
Nsg34
S'NNP'
p2068
sg36
g2053
sg37
I00
sba(issf_api
Word
p2069
(dp2070
g6
I00
sg7
V,
p2071
sg9
(issf_api
FeatureSet
p2072
(dp2073
g12
(dp2074
S'posn'
p2075
S'90'
p2076
sS'name'
p2077
S','
p2078
sS'drel'
p2079
S'rsym:NP3'
p2080
sS'chunktype'
p2081
S'child:NP3'
p2082
sS'af'
p2083
S'COMMA,punc,,,,,,'
p2084
ssbsg26
I00
sg27
I00
sg28
Nsg29
Nsg30
I2
sg31
I3
sg32
Nsg33
Nsg34
S'SYM'
p2085
sg36
g2072
sg37
I00
sba(issf_api
Word
p2086
(dp2087
g6
I00
sg7
V\u0906\u0930\u094d\u0925\u093f\u0915
p2088
sg9
(issf_api
FeatureSet
p2089
(dp2090
g12
(dp2091
S'posn'
p2092
S'100'
p2093
sS'name'
p2094
S'\xe0\xa4\x86\xe0\xa4\xb0\xe0\xa5\x8d\xe0\xa4\xa5\xe0\xa4\xbf\xe0\xa4\x95'
p2095
sS'drel'
p2096
S'pof__cn:NP4'
p2097
sS'chunktype'
p2098
S'child:NP4'
p2099
sS'af'
p2100
S'\xe0\xa4\x86\xe0\xa4\xb0\xe0\xa5\x8d\xe0\xa4\xa5\xe0\xa4\xbf\xe0\xa4\x95,adj,any,any,,d,0,'
p2101
ssbsg26
I00
sg27
I00
sg28
Nsg29
Nsg30
I3
sg31
I3
sg32
Nsg33
Nsg34
S'NNPC'
p2102
sg36
g2089
sg37
I00
sba(issf_api
Word
p2103
(dp2104
g6
I00
sg7
V\u092e\u093e\u092e\u0932\u094b\u0902
p2105
sg9
(issf_api
FeatureSet
p2106
(dp2107
g12
(dp2108
S'posn'
p2109
S'110'
p2110
sS'name'
p2111
S'\xe0\xa4\xae\xe0\xa4\xbe\xe0\xa4\xae\xe0\xa4\xb2\xe0\xa5\x8b\xe0\xa4\x82'
p2112
sS'af'
p2113
S'\xe0\xa4\xae\xe0\xa4\xbe\xe0\xa4\xae\xe0\xa4\xb2\xe0\xa4\xbe,n,m,pl,3,d,0,0'
p2114
sS'chunkid'
p2115
S'NP4'
p2116
sS'drel'
p2117
S'ccof:CCP'
p2118
sS'chunktype'
p2119
S'head:NP4'
p2120
ssbsg26
I00
sg27
I00
sg28
Nsg29
Nsg30
I3
sg31
I3
sg32
Nsg33
Nsg34
S'NNPC'
p2121
sg36
g2106
sg37
I00
sba(issf_api
Word
p2122
(dp2123
g6
I00
sg7
V\u0914\u0930
p2124
sg9
(issf_api
FeatureSet
p2125
(dp2126
g12
(dp2127
S'posn'
p2128
S'120'
p2129
sS'name'
p2130
S'\xe0\xa4\x94\xe0\xa4\xb0'
p2131
sS'af'
p2132
S'\xe0\xa4\x94\xe0\xa4\xb0,avy,,,,,,'
p2133
sS'chunkid'
p2134
S'CCP'
p2135
sS'drel'
p2136
S'nmod:NP6'
p2137
sS'chunktype'
p2138
S'head:CCP'
p2139
ssbsg26
I00
sg27
I00
sg28
Nsg29
Nsg30
I4
sg31
I3
sg32
Nsg33
Nsg34
S'CC'
p2140
sg36
g2125
sg37
I00
sba(issf_api
Word
p2141
(dp2142
g6
I00
sg7
V\u0935\u093f\u0927\u093f
p2143
sg9
(issf_api
FeatureSet
p2144
(dp2145
g12
(dp2146
S'posn'
p2147
S'130'
p2148
sS'name'
p2149
S'\xe0\xa4\xb5\xe0\xa4\xbf\xe0\xa4\xa7\xe0\xa4\xbf'
p2150
sS'af'
p2151
S'\xe0\xa4\xb5\xe0\xa4\xbf\xe0\xa4\xa7\xe0\xa4\xbf,n,f,sg,3,d,0,0'
p2152
sS'chunkid'
p2153
S'NP5'
p2154
sS'drel'
p2155
S'ccof:CCP'
p2156
sS'chunktype'
p2157
S'head:NP5'
p2158
ssbsg26
I00
sg27
I00
sg28
Nsg29
Nsg30
I5
sg31
I3
sg32
Nsg33
Nsg34
S'NNP'
p2159
sg36
g2144
sg37
I00
sba(issf_api
Word
p2160
(dp2161
g6
I00
sg7
V\u092e\u0902\u0924\u094d\u0930\u093e\u0932\u092f\u094b\u0902
p2162
sg9
(issf_api
FeatureSet
p2163
(dp2164
g12
(dp2165
S'posn'
p2166
S'140'
p2167
sS'name'
p2168
S'\xe0\xa4\xae\xe0\xa4\x82\xe0\xa4\xa4\xe0\xa5\x8d\xe0\xa4\xb0\xe0\xa4\xbe\xe0\xa4\xb2\xe0\xa4\xaf\xe0\xa5\x8b\xe0\xa4\x82'
p2169
sS'af'
p2170
S'\xe0\xa4\xae\xe0\xa4\x82\xe0\xa4\xa4\xe0\xa5\x8d\xe0\xa4\xb0\xe0\xa4\xbe\xe0\xa4\xb2\xe0\xa4\xaf,n,m,pl,3,o,0_\xe0\xa4\x95\xe0\xa4\xbe,0'
p2171
sS'chunkid'
p2172
S'NP6'
p2173
sS'drel'
p2174
S'r6:NP7'
p2175
sS'vpos'
p2176
S'vib_2'
p2177
sS'chunktype'
p2178
S'head:NP6'
p2179
ssbsg26
I00
sg27
I00
sg28
Nsg29
Nsg30
I6
sg31
I3
sg32
Nsg33
Nsg34
S'NN'
p2180
sg36
g2163
sg37
I00
sba(issf_api
Word
p2181
(dp2182
g6
I00
sg7
V\u0915\u0947
p2183
sg9
(issf_api
FeatureSet
p2184
(dp2185
g12
(dp2186
S'posn'
p2187
S'150'
p2188
sS'name'
p2189
S'\xe0\xa4\x95\xe0\xa5\x872'
p2190
sS'drel'
p2191
S'lwg__psp:NP6'
p2192
sS'chunktype'
p2193
S'child:NP6'
p2194
sS'af'
p2195
S'\xe0\xa4\x95\xe0\xa4\xbe,psp,m,pl,,d,,'
p2196
ssbsg26
I00
sg27
I00
sg28
Nsg29
Nsg30
I6
sg31
I3
sg32
Nsg33
Nsg34
S'PSP'
p2197
sg36
g2184
sg37
I00
sba(issf_api
Word
p2198
(dp2199
g6
I00
sg7
V\u0938\u091a\u093f\u0935
p2200
sg9
(issf_api
FeatureSet
p2201
(dp2202
g12
(dp2203
S'posn'
p2204
S'160'
p2205
sS'name'
p2206
S'\xe0\xa4\xb8\xe0\xa4\x9a\xe0\xa4\xbf\xe0\xa4\xb5'
p2207
sS'af'
p2208
S'\xe0\xa4\xb8\xe0\xa4\x9a\xe0\xa4\xbf\xe0\xa4\xb5,n,m,pl,3,d,0,0'
p2209
sS'chunkid'
p2210
S'NP7'
p2211
sS'drel'
p2212
S'ccof:CCP2'
p2213
sS'chunktype'
p2214
S'head:NP7'
p2215
ssbsg26
I00
sg27
I00
sg28
Nsg29
Nsg30
I7
sg31
I3
sg32
Nsg33
Nsg34
S'NN'
p2216
sg36
g2201
sg37
I00
sba(issf_api
Word
p2217
(dp2218
g6
I00
sg7
V\u0914\u0930
p2219
sg9
(issf_api
FeatureSet
p2220
(dp2221
g12
(dp2222
S'posn'
p2223
S'170'
p2224
sS'name'
p2225
S'\xe0\xa4\x94\xe0\xa4\xb02'
p2226
sS'af'
p2227
S'\xe0\xa4\x94\xe0\xa4\xb0,avy,,,,,,'
p2228
sS'chunkid'
p2229
S'CCP2'
p2230
sS'drel'
p2231
S'k1:VGF'
p2232
sS'chunktype'
p2233
S'head:CCP2'
p2234
ssbsg26
I00
sg27
I00
sg28
Nsg29
Nsg30
I8
sg31
I3
sg32
Nsg33
Nsg34
S'CC'
p2235
sg36
g2220
sg37
I00
sba(issf_api
Word
p2236
(dp2237
g6
I00
sg7
V\u092f\u094b\u091c\u0928\u093e
p2238
sg9
(issf_api
FeatureSet
p2239
(dp2240
g12
(dp2241
S'posn'
p2242
S'180'
p2243
sS'name'
p2244
S'\xe0\xa4\xaf\xe0\xa5\x8b\xe0\xa4\x9c\xe0\xa4\xa8\xe0\xa4\xbe'
p2245
sS'drel'
p2246
S'pof__cn:NP8'
p2247
sS'chunktype'
p2248
S'child:NP8'
p2249
sS'af'
p2250
S'\xe0\xa4\xaf\xe0\xa5\x8b\xe0\xa4\x9c\xe0\xa4\xa8\xe0\xa4\xbe,n,f,sg,3,d,0,0'
p2251
ssbsg26
I00
sg27
I00
sg28
Nsg29
Nsg30
I9
sg31
I3
sg32
Nsg33
Nsg34
S'NNPC'
p2252
sg36
g2239
sg37
I00
sba(issf_api
Word
p2253
(dp2254
g6
I00
sg7
V\u0906\u092f\u094b\u0917
p2255
sg9
(issf_api
FeatureSet
p2256
(dp2257
g12
(dp2258
S'posn'
p2259
S'190'
p2260
sS'name'
p2261
S'\xe0\xa4\x86\xe0\xa4\xaf\xe0\xa5\x8b\xe0\xa4\x97'
p2262
sS'af'
p2263
S'\xe0\xa4\x86\xe0\xa4\xaf\xe0\xa5\x8b\xe0\xa4\x97,n,m,sg,3,o,0_\xe0\xa4\x95\xe0\xa4\xbe,0'
p2264
sS'chunkid'
p2265
S'NP8'
p2266
sS'drel'
p2267
S'r6:NP9'
p2268
sS'vpos'
p2269
S'vib_3'
p2270
sS'chunktype'
p2271
S'head:NP8'
p2272
ssbsg26
I00
sg27
I00
sg28
Nsg29
Nsg30
I9
sg31
I3
sg32
Nsg33
Nsg34
S'NNP'
p2273
sg36
g2256
sg37
I00
sba(issf_api
Word
p2274
(dp2275
g6
I00
sg7
V\u0915\u0947
p2276
sg9
(issf_api
FeatureSet
p2277
(dp2278
g12
(dp2279
S'posn'
p2280
S'200'
p2281
sS'name'
p2282
S'\xe0\xa4\x95\xe0\xa5\x873'
p2283
sS'drel'
p2284
S'lwg__psp:NP8'
p2285
sS'chunktype'
p2286
S'child:NP8'
p2287
sS'af'
p2288
S'\xe0\xa4\x95\xe0\xa4\xbe,psp,m,pl,,d,,'
p2289
ssbsg26
I00
sg27
I00
sg28
Nsg29
Nsg30
I9
sg31
I3
sg32
Nsg33
Nsg34
S'PSP'
p2290
sg36
g2277
sg37
I00
sba(issf_api
Word
p2291
(dp2292
g6
I00
sg7
V\u0938\u0926\u0938\u094d\u092f
p2293
sg9
(issf_api
FeatureSet
p2294
(dp2295
g12
(dp2296
S'posn'
p2297
S'210'
p2298
sS'name'
p2299
S'\xe0\xa4\xb8\xe0\xa4\xa6\xe0\xa4\xb8\xe0\xa5\x8d\xe0\xa4\xaf'
p2300
sS'drel'
p2301
S'pof__cn:NP9'
p2302
sS'chunktype'
p2303
S'child:NP9'
p2304
sS'af'
p2305
S'\xe0\xa4\xb8\xe0\xa4\xa6\xe0\xa4\xb8\xe0\xa5\x8d\xe0\xa4\xaf,n,m,sg,3,d,0,0'
p2306
ssbsg26
I00
sg27
I00
sg28
Nsg29
Nsg30
I10
sg31
I3
sg32
Nsg33
Nsg34
S'NNC'
p2307
sg36
g2294
sg37
I00
sba(issf_api
Word
p2308
(dp2309
g6
I00
sg7
V\u0938\u091a\u093f\u0935
p2310
sg9
(issf_api
FeatureSet
p2311
(dp2312
g12
(dp2313
S'posn'
p2314
S'220'
p2315
sS'name'
p2316
S'\xe0\xa4\xb8\xe0\xa4\x9a\xe0\xa4\xbf\xe0\xa4\xb52'
p2317
sS'af'
p2318
S'\xe0\xa4\xb8\xe0\xa4\x9a\xe0\xa4\xbf\xe0\xa4\xb5,n,m,pl,3,d,0,0'
p2319
sS'chunkid'
p2320
S'NP9'
p2321
sS'drel'
p2322
S'ccof:CCP2'
p2323
sS'chunktype'
p2324
S'head:NP9'
p2325
ssbsg26
I00
sg27
I00
sg28
Nsg29
Nsg30
I10
sg31
I3
sg32
Nsg33
Nsg34
S'NN'
p2326
sg36
g2311
sg37
I00
sba(issf_api
Word
p2327
(dp2328
g6
I00
sg7
V\u0936\u093e\u092e\u093f\u0932
p2329
sg9
(issf_api
FeatureSet
p2330
(dp2331
g12
(dp2332
S'posn'
p2333
S'230'
p2334
sS'name'
p2335
S'\xe0\xa4\xb6\xe0\xa4\xbe\xe0\xa4\xae\xe0\xa4\xbf\xe0\xa4\xb2'
p2336
sS'af'
p2337
S'\xe0\xa4\xb6\xe0\xa4\xbe\xe0\xa4\xae\xe0\xa4\xbf\xe0\xa4\xb2,adj,any,any,,,,'
p2338
sS'chunkid'
p2339
S'JJP'
p2340
sS'drel'
p2341
S'k1s:VGF'
p2342
sS'chunktype'
p2343
S'head:JJP'
p2344
ssbsg26
I00
sg27
I00
sg28
Nsg29
Nsg30
I11
sg31
I3
sg32
Nsg33
Nsg34
S'JJ'
p2345
sg36
g2330
sg37
I00
sba(issf_api
Word
p2346
(dp2347
g6
I00
sg7
V\u0939\u0948\u0902
p2348
sg9
(issf_api
FeatureSet
p2349
(dp2350
g12
(dp2351
S'posn'
p2352
S'240'
p2353
sS'name'
p2354
S'\xe0\xa4\xb9\xe0\xa5\x88\xe0\xa4\x82'
p2355
sS'af'
p2356
S'\xe0\xa4\xb9\xe0\xa5\x88,v,any,pl,3,,\xe0\xa4\xb9\xe0\xa5\x88,hE'
p2357
sS'chunkid'
p2358
S'VGF'
p2359
sS'chunktype'
p2360
S'head:VGF'
p2361
sS'voicetype'
p2362
S'active'
p2363
sS'stype'
p2364
S'declarative'
p2365
ssbsg26
I00
sg27
I00
sg28
Nsg29
Nsg30
I12
sg31
I3
sg32
Nsg33
Nsg34
S'VM'
p2366
sg36
g2349
sg37
I00
sba(issf_api
Word
p2367
(dp2368
g6
I00
sg7
V\u0964
p2369
sg9
(issf_api
FeatureSet
p2370
(dp2371
g12
(dp2372
S'posn'
p2373
S'250'
p2374
sS'name'
p2375
S'\xe0\xa5\xa4'
p2376
sS'af'
p2377
S'\xe0\xa5\xa4,punc,,,,,,'
p2378
sS'chunkid'
p2379
S'BLK'
p2380
sS'drel'
p2381
S'rsym:VGF'
p2382
sS'chunktype'
p2383
S'head:BLK'
p2384
ssbsg26
I00
sg27
I00
sg28
Nsg29
Nsg30
I13
sg31
I3
sg32
Nsg33
Nsg34
S'SYM'
p2385
sg36
g2370
sg37
I00
sba(issf_api
Word
p2386
(dp2387
g6
I00
sg7
V\u092f\u0939
p2388
sg9
(issf_api
FeatureSet
p2389
(dp2390
g12
(dp2391
S'posn'
p2392
S'10'
p2393
sS'name'
p2394
S'\xe0\xa4\xaf\xe0\xa4\xb9'
p2395
sS'af'
p2396
S'\xe0\xa4\xaf\xe0\xa4\xb9,pn,any,sg,3,d,,'
p2397
sS'drel'
p2398
S'nmod__adj:NP'
p2399
sS'chunktype'
p2400
S'child:NP'
p2401
sS'cref'
p2402
S'i14%0:t5'
p2403
ssbsg26
I00
sg27
I00
sg28
Nsg29
Nsg30
I0
sg31
I4
sg32
Nsg33
Nsg34
S'DEM'
p2404
sg36
g2389
sg37
I00
sba(issf_api
Word
p2405
(dp2406
g6
I00
sg7
V\u0938\u092e\u093f\u0924\u093f
p2407
sg9
(issf_api
FeatureSet
p2408
(dp2409
g12
(dp2410
S'crefhead'
p2411
S'\xe0\xa4\xb8\xe0\xa4\xae\xe0\xa4\xbf\xe0\xa4\xa4\xe0\xa4\xbf:i14'
p2412
sS'posn'
p2413
S'20'
p2414
sS'name'
p2415
S'\xe0\xa4\xb8\xe0\xa4\xae\xe0\xa4\xbf\xe0\xa4\xa4\xe0\xa4\xbf'
p2416
sS'af'
p2417
S'\xe0\xa4\xb8\xe0\xa4\xae\xe0\xa4\xbf\xe0\xa4\xa4\xe0\xa4\xbf,n,f,sg,3,d,0,0'
p2418
sS'chunkid'
p2419
S'NP'
p2420
sS'creftype'
p2421
S'Coreference-Identity:i13'
p2422
sS'chunktype'
p2423
S'head:NP'
p2424
sS'cref'
p2425
S'i14%1:t5'
p2426
sS'drel'
p2427
S'k1:VGF'
p2428
ssbsg26
I00
sg27
I00
sg28
Nsg29
Nsg30
I0
sg31
I4
sg32
Nsg33
Nsg34
S'NN'
p2429
sg36
g2408
sg37
I00
sba(issf_api
Word
p2430
(dp2431
g6
I00
sg7
V\u0930\u0915\u094d\u0937\u093e
p2432
sg9
(issf_api
FeatureSet
p2433
(dp2434
g12
(dp2435
S'posn'
p2436
S'30'
p2437
sS'name'
p2438
S'\xe0\xa4\xb0\xe0\xa4\x95\xe0\xa5\x8d\xe0\xa4\xb7\xe0\xa4\xbe'
p2439
sS'af'
p2440
S'\xe0\xa4\xb0\xe0\xa4\x95\xe0\xa5\x8d\xe0\xa4\xb7\xe0\xa4\xbe,n,f,sg,3,d,0,0'
p2441
sS'drel'
p2442
S'pof__cn:NP2'
p2443
sS'chunktype'
p2444
S'child:NP2'
p2445
sS'cref'
p2446
S'i15%0:t6'
p2447
ssbsg26
I00
sg27
I00
sg28
Nsg29
Nsg30
I1
sg31
I4
sg32
Nsg33
Nsg34
S'NNPC'
p2448
sg36
g2433
sg37
I00
sba(issf_api
Word
p2449
(dp2450
g6
I00
sg7
V\u092e\u0902\u0924\u094d\u0930\u0940
p2451
sg9
(issf_api
FeatureSet
p2452
(dp2453
g12
(dp2454
S'posn'
p2455
S'40'
p2456
sS'name'
p2457
S'\xe0\xa4\xae\xe0\xa4\x82\xe0\xa4\xa4\xe0\xa5\x8d\xe0\xa4\xb0\xe0\xa5\x80'
p2458
sS'af'
p2459
S'\xe0\xa4\xae\xe0\xa4\x82\xe0\xa4\xa4\xe0\xa5\x8d\xe0\xa4\xb0\xe0\xa5\x80,n,m,sg,3,d,0,0'
p2460
sS'drel'
p2461
S'nmod__adj:NP2'
p2462
sS'chunktype'
p2463
S'child:NP2'
p2464
sS'cref'
p2465
S'i15%0:t6'
p2466
ssbsg26
I00
sg27
I00
sg28
Nsg29
Nsg30
I1
sg31
I4
sg32
Nsg33
Nsg34
S'NNP'
p2467
sg36
g2452
sg37
I00
sba(issf_api
Word
p2468
(dp2469
g6
I00
sg7
V\u092a\u094d\u0930\u0923\u092c
p2470
sg9
(issf_api
FeatureSet
p2471
(dp2472
g12
(dp2473
S'posn'
p2474
S'50'
p2475
sS'name'
p2476
S'\xe0\xa4\xaa\xe0\xa5\x8d\xe0\xa4\xb0\xe0\xa4\xa3\xe0\xa4\xac'
p2477
sS'af'
p2478
S'\xe0\xa4\xaa\xe0\xa5\x8d\xe0\xa4\xb0\xe0\xa4\xa3\xe0\xa4\xac,n,m,sg,3,d,0,0'
p2479
sS'drel'
p2480
S'pof__cn:NP2'
p2481
sS'chunktype'
p2482
S'child:NP2'
p2483
sS'cref'
p2484
S'i15%0:t6'
p2485
ssbsg26
I00
sg27
I00
sg28
Nsg29
Nsg30
I1
sg31
I4
sg32
Nsg33
Nsg34
S'NNPC'
p2486
sg36
g2471
sg37
I00
sba(issf_api
Word
p2487
(dp2488
g6
I00
sg7
V\u092e\u0941\u0916\u0930\u094d\u091c\u0940
p2489
sg9
(issf_api
FeatureSet
p2490
(dp2491
g12
(dp2492
S'crefhead'
p2493
S'\xe0\xa4\xae\xe0\xa5\x81\xe0\xa4\x96\xe0\xa4\xb0\xe0\xa5\x8d\xe0\xa4\x9c\xe0\xa5\x80:i15'
p2494
sS'posn'
p2495
S'60'
p2496
sS'name'
p2497
S'\xe0\xa4\xae\xe0\xa5\x81\xe0\xa4\x96\xe0\xa4\xb0\xe0\xa5\x8d\xe0\xa4\x9c\xe0\xa5\x80'
p2498
sS'af'
p2499
S'\xe0\xa4\xae\xe0\xa5\x81\xe0\xa4\x96\xe0\xa4\xb0\xe0\xa5\x8d\xe0\xa4\x9c\xe0\xa5\x80,n,any,sg,3,o,0_\xe0\xa4\x95\xe0\xa4\xbe,0'
p2500
sS'chunkid'
p2501
S'NP2'
p2502
sS'chunktype'
p2503
S'head:NP2'
p2504
sS'crefchainhead'
p2505
S'i15:t6'
p2506
sS'vpos'
p2507
S'vib_vib_5'
p2508
sS'cref'
p2509
S'i15%1:t6'
p2510
sS'drel'
p2511
S'r6:NP3'
p2512
ssbsg26
I00
sg27
I00
sg28
Nsg29
Nsg30
I1
sg31
I4
sg32
Nsg33
Nsg34
S'NNP'
p2513
sg36
g2490
sg37
I00
sba(issf_api
Word
p2514
(dp2515
g6
I00
sg7
V\u0915\u0947
p2516
sg9
(issf_api
FeatureSet
p2517
(dp2518
g12
(dp2519
S'posn'
p2520
S'70'
p2521
sS'name'
p2522
S'\xe0\xa4\x95\xe0\xa5\x87'
p2523
sS'drel'
p2524
S'lwg__psp:NP2'
p2525
sS'chunktype'
p2526
S'child:NP2'
p2527
sS'af'
p2528
S'\xe0\xa4\x95\xe0\xa4\xbe,psp,m,sg,,o,,'
p2529
ssbsg26
I00
sg27
I00
sg28
Nsg29
Nsg30
I1
sg31
I4
sg32
Nsg33
Nsg34
S'PSP'
p2530
sg36
g2517
sg37
I00
sba(issf_api
Word
p2531
(dp2532
g6
I00
sg7
V\u0928\u0947\u0924\u0943\u0924\u094d\u0935
p2533
sg9
(issf_api
FeatureSet
p2534
(dp2535
g12
(dp2536
S'posn'
p2537
S'80'
p2538
sS'name'
p2539
S'\xe0\xa4\xa8\xe0\xa5\x87\xe0\xa4\xa4\xe0\xa5\x83\xe0\xa4\xa4\xe0\xa5\x8d\xe0\xa4\xb5'
p2540
sS'af'
p2541
S'\xe0\xa4\xa8\xe0\xa5\x87\xe0\xa4\xa4\xe0\xa5\x83\xe0\xa4\xa4\xe0\xa5\x8d\xe0\xa4\xb5,n,m,sg,3,o,0_\xe0\xa4\xae\xe0\xa5\x87\xe0\xa4\x82,0'
p2542
sS'chunkid'
p2543
S'NP3'
p2544
sS'drel'
p2545
S'k7:VGF'
p2546
sS'vpos'
p2547
S'vib_2'
p2548
sS'chunktype'
p2549
S'head:NP3'
p2550
ssbsg26
I00
sg27
I00
sg28
Nsg29
Nsg30
I2
sg31
I4
sg32
Nsg33
Nsg34
S'NN'
p2551
sg36
g2534
sg37
I00
sba(issf_api
Word
p2552
(dp2553
g6
I00
sg7
V\u092e\u0947\u0902
p2554
sg9
(issf_api
FeatureSet
p2555
(dp2556
g12
(dp2557
S'posn'
p2558
S'90'
p2559
sS'name'
p2560
S'\xe0\xa4\xae\xe0\xa5\x87\xe0\xa4\x82'
p2561
sS'drel'
p2562
S'lwg__psp:NP3'
p2563
sS'chunktype'
p2564
S'child:NP3'
p2565
sS'af'
p2566
S'\xe0\xa4\xae\xe0\xa5\x87\xe0\xa4\x82,psp,,,,,,'
p2567
ssbsg26
I00
sg27
I00
sg28
Nsg29
Nsg30
I2
sg31
I4
sg32
Nsg33
Nsg34
S'PSP'
p2568
sg36
g2555
sg37
I00
sba(issf_api
Word
p2569
(dp2570
g6
I00
sg7
V\u092e\u0902\u0924\u094d\u0930\u093f\u092f\u094b\u0902
p2571
sg9
(issf_api
FeatureSet
p2572
(dp2573
g12
(dp2574
S'posn'
p2575
S'100'
p2576
sS'name'
p2577
S'\xe0\xa4\xae\xe0\xa4\x82\xe0\xa4\xa4\xe0\xa5\x8d\xe0\xa4\xb0\xe0\xa4\xbf\xe0\xa4\xaf\xe0\xa5\x8b\xe0\xa4\x82'
p2578
sS'af'
p2579
S'\xe0\xa4\xae\xe0\xa4\x82\xe0\xa4\xa4\xe0\xa5\x8d\xe0\xa4\xb0\xe0\xa5\x80,n,m,pl,3,o,0_\xe0\xa4\x95\xe0\xa4\xbe,0'
p2580
sS'chunkid'
p2581
S'NP4'
p2582
sS'drel'
p2583
S'r6:NP5'
p2584
sS'vpos'
p2585
S'vib_2'
p2586
sS'chunktype'
p2587
S'head:NP4'
p2588
ssbsg26
I00
sg27
I00
sg28
Nsg29
Nsg30
I3
sg31
I4
sg32
Nsg33
Nsg34
S'NN'
p2589
sg36
g2572
sg37
I00
sba(issf_api
Word
p2590
(dp2591
g6
I00
sg7
V\u0915\u0947
p2592
sg9
(issf_api
FeatureSet
p2593
(dp2594
g12
(dp2595
S'posn'
p2596
S'110'
p2597
sS'name'
p2598
S'\xe0\xa4\x95\xe0\xa5\x872'
p2599
sS'drel'
p2600
S'lwg__psp:NP4'
p2601
sS'chunktype'
p2602
S'child:NP4'
p2603
sS'af'
p2604
S'\xe0\xa4\x95\xe0\xa4\xbe,psp,m,sg,,o,,'
p2605
ssbsg26
I00
sg27
I00
sg28
Nsg29
Nsg30
I3
sg31
I4
sg32
Nsg33
Nsg34
S'PSP'
p2606
sg36
g2593
sg37
I00
sba(issf_api
Word
p2607
(dp2608
g6
I00
sg7
V\u0938\u092e\u0942\u0939
p2609
sg9
(issf_api
FeatureSet
p2610
(dp2611
g12
(dp2612
S'posn'
p2613
S'120'
p2614
sS'name'
p2615
S'\xe0\xa4\xb8\xe0\xa4\xae\xe0\xa5\x82\xe0\xa4\xb9'
p2616
sS'af'
p2617
S'\xe0\xa4\xb8\xe0\xa4\xae\xe0\xa5\x82\xe0\xa4\xb9,n,m,sg,3,o,0_\xe0\xa4\x95\xe0\xa5\x8b,0'
p2618
sS'chunkid'
p2619
S'NP5'
p2620
sS'drel'
p2621
S'k4:VGF'
p2622
sS'vpos'
p2623
S'vib_2'
p2624
sS'chunktype'
p2625
S'head:NP5'
p2626
ssbsg26
I00
sg27
I00
sg28
Nsg29
Nsg30
I4
sg31
I4
sg32
Nsg33
Nsg34
S'NN'
p2627
sg36
g2610
sg37
I00
sba(issf_api
Word
p2628
(dp2629
g6
I00
sg7
V\u0915\u094b
p2630
sg9
(issf_api
FeatureSet
p2631
(dp2632
g12
(dp2633
S'posn'
p2634
S'130'
p2635
sS'name'
p2636
S'\xe0\xa4\x95\xe0\xa5\x8b'
p2637
sS'drel'
p2638
S'lwg__psp:NP5'
p2639
sS'chunktype'
p2640
S'child:NP5'
p2641
sS'af'
p2642
S'\xe0\xa4\x95\xe0\xa5\x8b,psp,,,,,,'
p2643
ssbsg26
I00
sg27
I00
sg28
Nsg29
Nsg30
I4
sg31
I4
sg32
Nsg33
Nsg34
S'PSP'
p2644
sg36
g2631
sg37
I00
sba(issf_api
Word
p2645
(dp2646
g6
I00
sg7
V\u0928\u093f\u0935\u0947\u0926\u0915\u094b\u0902
p2647
sg9
(issf_api
FeatureSet
p2648
(dp2649
g12
(dp2650
S'posn'
p2651
S'140'
p2652
sS'name'
p2653
S'\xe0\xa4\xa8\xe0\xa4\xbf\xe0\xa4\xb5\xe0\xa5\x87\xe0\xa4\xa6\xe0\xa4\x95\xe0\xa5\x8b\xe0\xa4\x82'
p2654
sS'af'
p2655
S'\xe0\xa4\xa8\xe0\xa4\xbf\xe0\xa4\xb5\xe0\xa5\x87\xe0\xa4\xa6\xe0\xa4\x95,n,m,pl,3,o,0_\xe0\xa4\x95\xe0\xa4\xbe,0'
p2656
sS'chunkid'
p2657
S'NP6'
p2658
sS'drel'
p2659
S'r6:NP7'
p2660
sS'vpos'
p2661
S'vib_2'
p2662
sS'chunktype'
p2663
S'head:NP6'
p2664
ssbsg26
I00
sg27
I00
sg28
Nsg29
Nsg30
I5
sg31
I4
sg32
Nsg33
Nsg34
S'NN'
p2665
sg36
g2648
sg37
I00
sba(issf_api
Word
p2666
(dp2667
g6
I00
sg7
V\u0915\u0947
p2668
sg9
(issf_api
FeatureSet
p2669
(dp2670
g12
(dp2671
S'posn'
p2672
S'150'
p2673
sS'name'
p2674
S'\xe0\xa4\x95\xe0\xa5\x873'
p2675
sS'drel'
p2676
S'lwg__psp:NP6'
p2677
sS'chunktype'
p2678
S'child:NP6'
p2679
sS'af'
p2680
S'\xe0\xa4\x95\xe0\xa4\xbe,psp,m,sg,,o,,'
p2681
ssbsg26
I00
sg27
I00
sg28
Nsg29
Nsg30
I5
sg31
I4
sg32
Nsg33
Nsg34
S'PSP'
p2682
sg36
g2669
sg37
I00
sba(issf_api
Word
p2683
(dp2684
g6
I00
sg7
V\u0905\u0902\u0924\u093f\u092e
p2685
sg9
(issf_api
FeatureSet
p2686
(dp2687
g12
(dp2688
S'posn'
p2689
S'160'
p2690
sS'name'
p2691
S'\xe0\xa4\x85\xe0\xa4\x82\xe0\xa4\xa4\xe0\xa4\xbf\xe0\xa4\xae'
p2692
sS'drel'
p2693
S'nmod__adj:NP7'
p2694
sS'chunktype'
p2695
S'child:NP7'
p2696
sS'af'
p2697
S'\xe0\xa4\x85\xe0\xa4\x82\xe0\xa4\xa4\xe0\xa4\xbf\xe0\xa4\xae,adj,any,any,,o,,'
p2698
ssbsg26
I00
sg27
I00
sg28
Nsg29
Nsg30
I6
sg31
I4
sg32
Nsg33
Nsg34
S'JJ'
p2699
sg36
g2686
sg37
I00
sba(issf_api
Word
p2700
(dp2701
g6
I00
sg7
V\u091a\u092f\u0928
p2702
sg9
(issf_api
FeatureSet
p2703
(dp2704
g12
(dp2705
S'posn'
p2706
S'170'
p2707
sS'name'
p2708
S'\xe0\xa4\x9a\xe0\xa4\xaf\xe0\xa4\xa8'
p2709
sS'af'
p2710
S'\xe0\xa4\x9a\xe0\xa4\xaf\xe0\xa4\xa8,n,m,sg,3,o,0_\xe0\xa4\x95\xe0\xa5\x87_\xe0\xa4\xb2\xe0\xa4\xbf\xe0\xa4\x8f,0'
p2711
sS'chunkid'
p2712
S'NP7'
p2713
sS'drel'
p2714
S'rt:VGF'
p2715
sS'vpos'
p2716
S'vib_3_4'
p2717
sS'chunktype'
p2718
S'head:NP7'
p2719
ssbsg26
I00
sg27
I00
sg28
Nsg29
Nsg30
I6
sg31
I4
sg32
Nsg33
Nsg34
S'NN'
p2720
sg36
g2703
sg37
I00
sba(issf_api
Word
p2721
(dp2722
g6
I00
sg7
V\u0915\u0947
p2723
sg9
(issf_api
FeatureSet
p2724
(dp2725
g12
(dp2726
S'posn'
p2727
S'180'
p2728
sS'name'
p2729
S'\xe0\xa4\x95\xe0\xa5\x874'
p2730
sS'drel'
p2731
S'lwg__psp:NP7'
p2732
sS'chunktype'
p2733
S'child:NP7'
p2734
sS'af'
p2735
S'\xe0\xa4\x95\xe0\xa5\x87,psp,,,,,,'
p2736
ssbsg26
I00
sg27
I00
sg28
Nsg29
Nsg30
I6
sg31
I4
sg32
Nsg33
Nsg34
S'PSP'
p2737
sg36
g2724
sg37
I00
sba(issf_api
Word
p2738
(dp2739
g6
I00
sg7
V\u0932\u093f\u090f
p2740
sg9
(issf_api
FeatureSet
p2741
(dp2742
g12
(dp2743
S'posn'
p2744
S'190'
p2745
sS'name'
p2746
S'\xe0\xa4\xb2\xe0\xa4\xbf\xe0\xa4\x8f'
p2747
sS'drel'
p2748
S'lwg__psp:NP7'
p2749
sS'chunktype'
p2750
S'child:NP7'
p2751
sS'af'
p2752
S'\xe0\xa4\xb2\xe0\xa4\xbf\xe0\xa4\x8f,psp,,,,,,'
p2753
ssbsg26
I00
sg27
I00
sg28
Nsg29
Nsg30
I6
sg31
I4
sg32
Nsg33
Nsg34
S'PSP'
p2754
sg36
g2741
sg37
I00
sba(issf_api
Word
p2755
(dp2756
g6
I00
sg7
V\u0924\u092f
p2757
sg9
(issf_api
FeatureSet
p2758
(dp2759
g12
(dp2760
S'posn'
p2761
S'200'
p2762
sS'name'
p2763
S'\xe0\xa4\xa4\xe0\xa4\xaf'
p2764
sS'drel'
p2765
S'nmod__adj:NP8'
p2766
sS'chunktype'
p2767
S'child:NP8'
p2768
sS'af'
p2769
S'\xe0\xa4\xa4\xe0\xa4\xaf,adj,any,any,,o,,'
p2770
ssbsg26
I00
sg27
I00
sg28
Nsg29
Nsg30
I7
sg31
I4
sg32
Nsg33
Nsg34
S'JJ'
p2771
sg36
g2758
sg37
I00
sba(issf_api
Word
p2772
(dp2773
g6
I00
sg7
V\u0928\u093f\u092f\u092e\u094b\u0902
p2774
sg9
(issf_api
FeatureSet
p2775
(dp2776
g12
(dp2777
S'posn'
p2778
S'210'
p2779
sS'name'
p2780
S'\xe0\xa4\xa8\xe0\xa4\xbf\xe0\xa4\xaf\xe0\xa4\xae\xe0\xa5\x8b\xe0\xa4\x82'
p2781
sS'af'
p2782
S'\xe0\xa4\xa8\xe0\xa4\xbf\xe0\xa4\xaf\xe0\xa4\xae,n,m,pl,3,o,0_\xe0\xa4\x95\xe0\xa5\x87_\xe0\xa4\xac\xe0\xa4\xbe\xe0\xa4\xb0\xe0\xa5\x87_\xe0\xa4\xae\xe0\xa5\x87\xe0\xa4\x82,0'
p2783
sS'chunkid'
p2784
S'NP8'
p2785
sS'drel'
p2786
S'ccof:CCP'
p2787
sS'vpos'
p2788
S'vib_3_4_5'
p2789
sS'chunktype'
p2790
S'head:NP8'
p2791
ssbsg26
I00
sg27
I00
sg28
Nsg29
Nsg30
I7
sg31
I4
sg32
Nsg33
Nsg34
S'NN'
p2792
sg36
g2775
sg37
I00
sba(issf_api
Word
p2793
(dp2794
g6
I00
sg7
V\u0915\u0947
p2795
sg9
(issf_api
FeatureSet
p2796
(dp2797
g12
(dp2798
S'posn'
p2799
S'220'
p2800
sS'name'
p2801
S'\xe0\xa4\x95\xe0\xa5\x875'
p2802
sS'drel'
p2803
S'lwg__psp:NP8'
p2804
sS'chunktype'
p2805
S'child:NP8'
p2806
sS'af'
p2807
S'\xe0\xa4\x95\xe0\xa5\x87,psp,,,,,,'
p2808
ssbsg26
I00
sg27
I00
sg28
Nsg29
Nsg30
I7
sg31
I4
sg32
Nsg33
Nsg34
S'PSP'
p2809
sg36
g2796
sg37
I00
sba(issf_api
Word
p2810
(dp2811
g6
I00
sg7
V\u092c\u093e\u0930\u0947
p2812
sg9
(issf_api
FeatureSet
p2813
(dp2814
g12
(dp2815
S'posn'
p2816
S'230'
p2817
sS'name'
p2818
S'\xe0\xa4\xac\xe0\xa4\xbe\xe0\xa4\xb0\xe0\xa5\x87'
p2819
sS'drel'
p2820
S'lwg__psp:NP8'
p2821
sS'chunktype'
p2822
S'child:NP8'
p2823
sS'af'
p2824
S'\xe0\xa4\xac\xe0\xa4\xbe\xe0\xa4\xb0\xe0\xa5\x87,psp,,,,,,'
p2825
ssbsg26
I00
sg27
I00
sg28
Nsg29
Nsg30
I7
sg31
I4
sg32
Nsg33
Nsg34
S'PSP'
p2826
sg36
g2813
sg37
I00
sba(issf_api
Word
p2827
(dp2828
g6
I00
sg7
V\u092e\u0947\u0902
p2829
sg9
(issf_api
FeatureSet
p2830
(dp2831
g12
(dp2832
S'posn'
p2833
S'240'
p2834
sS'name'
p2835
S'\xe0\xa4\xae\xe0\xa5\x87\xe0\xa4\x822'
p2836
sS'drel'
p2837
S'lwg__psp:NP8'
p2838
sS'chunktype'
p2839
S'child:NP8'
p2840
sS'af'
p2841
S'\xe0\xa4\xae\xe0\xa5\x87\xe0\xa4\x82,psp,,,,,,'
p2842
ssbsg26
I00
sg27
I00
sg28
Nsg29
Nsg30
I7
sg31
I4
sg32
Nsg33
Nsg34
S'PSP'
p2843
sg36
g2830
sg37
I00
sba(issf_api
Word
p2844
(dp2845
g6
I00
sg7
V\u0914\u0930
p2846
sg9
(issf_api
FeatureSet
p2847
(dp2848
g12
(dp2849
S'posn'
p2850
S'250'
p2851
sS'name'
p2852
S'\xe0\xa4\x94\xe0\xa4\xb0'
p2853
sS'af'
p2854
S'\xe0\xa4\x94\xe0\xa4\xb0,avy,,,,,,'
p2855
sS'chunkid'
p2856
S'CCP'
p2857
sS'drel'
p2858
S'k7:VGF'
p2859
sS'chunktype'
p2860
S'head:CCP'
p2861
ssbsg26
I00
sg27
I00
sg28
Nsg29
Nsg30
I8
sg31
I4
sg32
Nsg33
Nsg34
S'CC'
p2862
sg36
g2847
sg37
I00
sba(issf_api
Word
p2863
(dp2864
g6
I00
sg7
V\u091c\u0930\u0942\u0930\u0924
p2865
sg9
(issf_api
FeatureSet
p2866
(dp2867
g12
(dp2868
S'posn'
p2869
S'260'
p2870
sS'name'
p2871
S'\xe0\xa4\x9c\xe0\xa4\xb0\xe0\xa5\x82\xe0\xa4\xb0\xe0\xa4\xa4'
p2872
sS'af'
p2873
S'\xe0\xa4\x9c\xe0\xa4\xb0\xe0\xa5\x82\xe0\xa4\xb0\xe0\xa4\xa4,n,f,sg,3,d,0,0'
p2874
sS'chunkid'
p2875
S'NP9'
p2876
sS'drel'
p2877
S'k2:VGNN'
p2878
sS'chunktype'
p2879
S'head:NP9'
p2880
ssbsg26
I00
sg27
I00
sg28
Nsg29
Nsg30
I9
sg31
I4
sg32
Nsg33
Nsg34
S'NN'
p2881
sg36
g2866
sg37
I00
sba(issf_api
Word
p2882
(dp2883
g6
I00
sg7
V\u092a\u0921\u093c\u0928\u0947
p2884
sg9
(issf_api
FeatureSet
p2885
(dp2886
g12
(dp2887
S'posn'
p2888
S'270'
p2889
sS'name'
p2890
S'\xe0\xa4\xaa\xe0\xa4\xa1\xe0\xa4\xbc\xe0\xa4\xa8\xe0\xa5\x87'
p2891
sS'af'
p2892
S'\xe0\xa4\xaa\xe0\xa4\xa1\xe0\xa4\xbc,v,any,any,any,o,\xe0\xa4\xa8\xe0\xa4\xbe_\xe0\xa4\xaa\xe0\xa4\xb0,nA'
p2893
sS'chunkid'
p2894
S'VGNN'
p2895
sS'drel'
p2896
S'k7:VGNN2'
p2897
sS'vpos'
p2898
S'tam_2'
p2899
sS'chunktype'
p2900
S'head:VGNN'
p2901
ssbsg26
I00
sg27
I00
sg28
Nsg29
Nsg30
I10
sg31
I4
sg32
Nsg33
Nsg34
S'VM'
p2902
sg36
g2885
sg37
I00
sba(issf_api
Word
p2903
(dp2904
g6
I00
sg7
V\u092a\u0930
p2905
sg9
(issf_api
FeatureSet
p2906
(dp2907
g12
(dp2908
S'posn'
p2909
S'280'
p2910
sS'name'
p2911
S'\xe0\xa4\xaa\xe0\xa4\xb0'
p2912
sS'drel'
p2913
S'lwg__psp:VGNN'
p2914
sS'chunktype'
p2915
S'child:VGNN'
p2916
sS'af'
p2917
S'\xe0\xa4\xaa\xe0\xa4\xb0,psp,,,,,,'
p2918
ssbsg26
I00
sg27
I00
sg28
Nsg29
Nsg30
I10
sg31
I4
sg32
Nsg33
Nsg34
S'PSP'
p2919
sg36
g2906
sg37
I00
sba(issf_api
Word
p2920
(dp2921
g6
I00
sg7
V\u0907\u0938\u0915\u0947
p2922
sg9
(issf_api
FeatureSet
p2923
(dp2924
g12
(dp2925
S'crefhead'
p2926
S'\xe0\xa4\x87\xe0\xa4\xb8\xe0\xa4\x95\xe0\xa5\x87:i16'
p2927
sS'posn'
p2928
S'290'
p2929
sS'name'
p2930
S'\xe0\xa4\x87\xe0\xa4\xb8\xe0\xa4\x95\xe0\xa5\x87'
p2931
sS'af'
p2932
S'\xe0\xa4\xaf\xe0\xa4\xb9,pn,m,pl,3,o,\xe0\xa4\x95\xe0\xa4\xbe,kA'
p2933
sS'chunkid'
p2934
S'NP10'
p2935
sS'creftype'
p2936
S'anaphora-?:i16'
p2937
sS'chunktype'
p2938
S'head:NP10'
p2939
sS'crefchainhead'
p2940
S'i16:t7'
p2941
sS'cref'
p2942
S'i16%1:t7'
p2943
sS'drel'
p2944
S'r6:NP11'
p2945
ssbsg26
I00
sg27
I00
sg28
Nsg29
Nsg30
I11
sg31
I4
sg32
Nsg33
Nsg34
S'PRP'
p2946
sg36
g2923
sg37
I00
sba(issf_api
Word
p2947
(dp2948
g6
I00
sg7
V\u0935\u093f\u0915\u0932\u094d\u092a
p2949
sg9
(issf_api
FeatureSet
p2950
(dp2951
g12
(dp2952
S'posn'
p2953
S'300'
p2954
sS'name'
p2955
S'\xe0\xa4\xb5\xe0\xa4\xbf\xe0\xa4\x95\xe0\xa4\xb2\xe0\xa5\x8d\xe0\xa4\xaa'
p2956
sS'af'
p2957
S'\xe0\xa4\xb5\xe0\xa4\xbf\xe0\xa4\x95\xe0\xa4\xb2\xe0\xa5\x8d\xe0\xa4\xaa,n,m,pl,3,d,0,0'
p2958
sS'chunkid'
p2959
S'NP11'
p2960
sS'drel'
p2961
S'k2:VGNN2'
p2962
sS'chunktype'
p2963
S'head:NP11'
p2964
ssbsg26
I00
sg27
I00
sg28
Nsg29
Nsg30
I12
sg31
I4
sg32
Nsg33
Nsg34
S'NN'
p2965
sg36
g2950
sg37
I00
sba(issf_api
Word
p2966
(dp2967
g6
I00
sg7
V\u0938\u0941\u091d\u093e\u0928\u0947
p2968
sg9
(issf_api
FeatureSet
p2969
(dp2970
g12
(dp2971
S'posn'
p2972
S'310'
p2973
sS'name'
p2974
S'\xe0\xa4\xb8\xe0\xa5\x81\xe0\xa4\x9d\xe0\xa4\xbe\xe0\xa4\xa8\xe0\xa5\x87'
p2975
sS'af'
p2976
S'\xe0\xa4\xb8\xe0\xa5\x81\xe0\xa4\x9d\xe0\xa4\xbe,v,any,any,any,o,\xe0\xa4\xa8\xe0\xa4\xbe_\xe0\xa4\xae\xe0\xa5\x87\xe0\xa4\x82,nA'
p2977
sS'chunkid'
p2978
S'VGNN2'
p2979
sS'drel'
p2980
S'ccof:CCP'
p2981
sS'vpos'
p2982
S'tam_2'
p2983
sS'chunktype'
p2984
S'head:VGNN2'
p2985
ssbsg26
I00
sg27
I00
sg28
Nsg29
Nsg30
I13
sg31
I4
sg32
Nsg33
Nsg34
S'VM'
p2986
sg36
g2969
sg37
I00
sba(issf_api
Word
p2987
(dp2988
g6
I00
sg7
V\u092e\u0947\u0902
p2989
sg9
(issf_api
FeatureSet
p2990
(dp2991
g12
(dp2992
S'posn'
p2993
S'320'
p2994
sS'name'
p2995
S'\xe0\xa4\xae\xe0\xa5\x87\xe0\xa4\x823'
p2996
sS'drel'
p2997
S'lwg__psp:VGNN2'
p2998
sS'chunktype'
p2999
S'child:VGNN2'
p3000
sS'af'
p3001
S'\xe0\xa4\xae\xe0\xa5\x87\xe0\xa4\x82,psp,,,,,,'
p3002
ssbsg26
I00
sg27
I00
sg28
Nsg29
Nsg30
I13
sg31
I4
sg32
Nsg33
Nsg34
S'PSP'
p3003
sg36
g2990
sg37
I00
sba(issf_api
Word
p3004
(dp3005
g6
I00
sg7
V\u0938\u0932\u093e\u0939
p3006
sg9
(issf_api
FeatureSet
p3007
(dp3008
g12
(dp3009
S'posn'
p3010
S'330'
p3011
sS'name'
p3012
S'\xe0\xa4\xb8\xe0\xa4\xb2\xe0\xa4\xbe\xe0\xa4\xb9'
p3013
sS'af'
p3014
S'\xe0\xa4\xb8\xe0\xa4\xb2\xe0\xa4\xbe\xe0\xa4\xb9,n,f,sg,3,d,0,0'
p3015
sS'chunkid'
p3016
S'NP12'
p3017
sS'drel'
p3018
S'k2:VGF'
p3019
sS'chunktype'
p3020
S'head:NP12'
p3021
ssbsg26
I00
sg27
I00
sg28
Nsg29
Nsg30
I14
sg31
I4
sg32
Nsg33
Nsg34
S'NN'
p3022
sg36
g3007
sg37
I00
sba(issf_api
Word
p3023
(dp3024
g6
I00
sg7
V\u0926\u0947\u0917\u0940
p3025
sg9
(issf_api
FeatureSet
p3026
(dp3027
g12
(dp3028
S'posn'
p3029
S'340'
p3030
sS'name'
p3031
S'\xe0\xa4\xa6\xe0\xa5\x87\xe0\xa4\x97\xe0\xa5\x80'
p3032
sS'af'
p3033
S'\xe0\xa4\xa6\xe0\xa5\x87,v,f,sg,3,,\xe0\xa4\x97\xe0\xa4\xbe,gA'
p3034
sS'chunkid'
p3035
S'VGF'
p3036
sS'chunktype'
p3037
S'head:VGF'
p3038
sS'voicetype'
p3039
S'active'
p3040
sS'stype'
p3041
S'declarative'
p3042
ssbsg26
I00
sg27
I00
sg28
Nsg29
Nsg30
I15
sg31
I4
sg32
Nsg33
Nsg34
S'VM'
p3043
sg36
g3026
sg37
I00
sba(issf_api
Word
p3044
(dp3045
g6
I00
sg7
V\u0964
p3046
sg9
(issf_api
FeatureSet
p3047
(dp3048
g12
(dp3049
S'posn'
p3050
S'350'
p3051
sS'name'
p3052
S'\xe0\xa5\xa4'
p3053
sS'af'
p3054
S'\xe0\xa5\xa4,punc,,,,,,'
p3055
sS'chunkid'
p3056
S'BLK'
p3057
sS'drel'
p3058
S'rsym:VGF'
p3059
sS'chunktype'
p3060
S'head:BLK'
p3061
ssbsg26
I00
sg27
I00
sg28
Nsg29
Nsg30
I16
sg31
I4
sg32
Nsg33
Nsg34
S'SYM'
p3062
sg36
g3047
sg37
I00
sba(issf_api
Word
p3063
(dp3064
g6
I00
sg7
V\u0926\u094b\u0928\u094b\u0902
p3065
sg9
(issf_api
FeatureSet
p3066
(dp3067
g12
(dp3068
S'posn'
p3069
S'10'
p3070
sS'name'
p3071
S'\xe0\xa4\xa6\xe0\xa5\x8b\xe0\xa4\xa8\xe0\xa5\x8b\xe0\xa4\x82'
p3072
sS'af'
p3073
S'\xe0\xa4\xa6\xe0\xa5\x8b,num,any,pl,,any,,'
p3074
sS'acrefmod'
p3075
S'm3%0:i18'
p3076
sS'drel'
p3077
S'nmod__adj:NP'
p3078
sS'chunktype'
p3079
S'child:NP'
p3080
sS'cref'
p3081
S'i17%0:t3'
p3082
ssbsg26
I00
sg27
I00
sg28
Nsg29
Nsg30
I0
sg31
I5
sg32
Nsg33
Nsg34
S'QC'
p3083
sg36
g3066
sg37
I00
sba(issf_api
Word
p3084
(dp3085
g6
I00
sg7
V\u0939\u0935\u093e\u0908
p3086
sg9
(issf_api
FeatureSet
p3087
(dp3088
g12
(dp3089
S'posn'
p3090
S'20'
p3091
sS'name'
p3092
S'\xe0\xa4\xb9\xe0\xa4\xb5\xe0\xa4\xbe\xe0\xa4\x88'
p3093
sS'af'
p3094
S'\xe0\xa4\xb9\xe0\xa4\xb5\xe0\xa4\xbe\xe0\xa4\x88,adj,any,any,,o,,'
p3095
sS'acrefmod'
p3096
S'm3%0:i18'
p3097
sS'drel'
p3098
S'pof__cn:NP'
p3099
sS'chunktype'
p3100
S'child:NP'
p3101
sS'cref'
p3102
S'i17%0:t3'
p3103
ssbsg26
I00
sg27
I00
sg28
Nsg29
Nsg30
I0
sg31
I5
sg32
Nsg33
Nsg34
S'NNC'
p3104
sg36
g3087
sg37
I00
sba(issf_api
Word
p3105
(dp3106
g6
I00
sg7
V\u0905\u0921\u094d\u0921\u094b\u0902
p3107
sg9
(issf_api
FeatureSet
p3108
(dp3109
g12
(dp3110
S'crefhead'
p3111
S'\xe0\xa4\x85\xe0\xa4\xa1\xe0\xa5\x8d\xe0\xa4\xa1\xe0\xa5\x8b\xe0\xa4\x82:i17'
p3112
sS'posn'
p3113
S'30'
p3114
sS'name'
p3115
S'\xe0\xa4\x85\xe0\xa4\xa1\xe0\xa5\x8d\xe0\xa4\xa1\xe0\xa5\x8b\xe0\xa4\x82'
p3116
sS'af'
p3117
S'\xe0\xa4\x85\xe0\xa4\xa1\xe0\xa5\x8d\xe0\xa4\xa1\xe0\xa4\xbe,n,m,pl,3,o,0_\xe0\xa4\x95\xe0\xa4\xbe,0'
p3118
sS'acrefmodhead'
p3119
S'\xe0\xa4\x85\xe0\xa4\xa1\xe0\xa5\x8d\xe0\xa4\xa1\xe0\xa5\x8b\xe0\xa4\x82:m3'
p3120
sS'chunkid'
p3121
S'NP'
p3122
sS'acrefmod'
p3123
S'm3%1:i18'
p3124
sS'creftype'
p3125
S'Coreference-Identity:i8'
p3126
sS'chunktype'
p3127
S'head:NP'
p3128
sS'vpos'
p3129
S'vib_4'
p3130
sS'cref'
p3131
S'i17%1:t3'
p3132
sS'drel'
p3133
S'r6:NP2'
p3134
ssbsg26
I00
sg27
I00
sg28
Nsg29
Nsg30
I0
sg31
I5
sg32
Nsg33
Nsg34
S'NN'
p3135
sg36
g3108
sg37
I00
sba(issf_api
Word
p3136
(dp3137
g6
I00
sg7
V\u0915\u0947
p3138
sg9
(issf_api
FeatureSet
p3139
(dp3140
g12
(dp3141
S'posn'
p3142
S'40'
p3143
sS'name'
p3144
S'\xe0\xa4\x95\xe0\xa5\x87'
p3145
sS'drel'
p3146
S'lwg__psp:NP'
p3147
sS'chunktype'
p3148
S'child:NP'
p3149
sS'af'
p3150
S'\xe0\xa4\x95\xe0\xa4\xbe,psp,m,sg,,o,,'
p3151
ssbsg26
I00
sg27
I00
sg28
Nsg29
Nsg30
I0
sg31
I5
sg32
Nsg33
Nsg34
S'PSP'
p3152
sg36
g3139
sg37
I00
sba(issf_api
Word
p3153
(dp3154
g6
I00
sg7
V\u0906\u0927\u0941\u0928\u093f\u0915\u0940\u0915\u0930\u0923
p3155
sg9
(issf_api
FeatureSet
p3156
(dp3157
g12
(dp3158
S'crefhead'
p3159
S'\xe0\xa4\x86\xe0\xa4\xa7\xe0\xa5\x81\xe0\xa4\xa8\xe0\xa4\xbf\xe0\xa4\x95\xe0\xa5\x80\xe0\xa4\x95\xe0\xa4\xb0\xe0\xa4\xa3:i18'
p3160
sS'posn'
p3161
S'50'
p3162
sS'name'
p3163
S'\xe0\xa4\x86\xe0\xa4\xa7\xe0\xa5\x81\xe0\xa4\xa8\xe0\xa4\xbf\xe0\xa4\x95\xe0\xa5\x80\xe0\xa4\x95\xe0\xa4\xb0\xe0\xa4\xa3'
p3164
sS'af'
p3165
S'\xe0\xa4\x86\xe0\xa4\xa7\xe0\xa5\x81\xe0\xa4\xa8\xe0\xa4\xbf\xe0\xa4\x95\xe0\xa5\x80\xe0\xa4\x95\xe0\xa4\xb0\xe0\xa4\xa3,n,m,sg,3,o,0_\xe0\xa4\x95\xe0\xa5\x87_\xe0\xa4\xb2\xe0\xa4\xbf\xe0\xa4\x8f,0'
p3166
sS'chunkid'
p3167
S'NP2'
p3168
sS'crefmod'
p3169
S'm3:i18'
p3170
sS'creftype'
p3171
S'Coreference-Identity:i9'
p3172
sS'chunktype'
p3173
S'head:NP2'
p3174
sS'vpos'
p3175
S'vib_2_3'
p3176
sS'cref'
p3177
S'i18%1:t4'
p3178
sS'drel'
p3179
S'rt:VGF'
p3180
ssbsg26
I00
sg27
I00
sg28
Nsg29
Nsg30
I1
sg31
I5
sg32
Nsg33
Nsg34
S'NN'
p3181
sg36
g3156
sg37
I00
sba(issf_api
Word
p3182
(dp3183
g6
I00
sg7
V\u0915\u0947
p3184
sg9
(issf_api
FeatureSet
p3185
(dp3186
g12
(dp3187
S'posn'
p3188
S'60'
p3189
sS'name'
p3190
S'\xe0\xa4\x95\xe0\xa5\x872'
p3191
sS'drel'
p3192
S'lwg__psp:NP2'
p3193
sS'chunktype'
p3194
S'child:NP2'
p3195
sS'af'
p3196
S'\xe0\xa4\x95\xe0\xa5\x87,psp,,,,,,'
p3197
ssbsg26
I00
sg27
I00
sg28
Nsg29
Nsg30
I1
sg31
I5
sg32
Nsg33
Nsg34
S'PSP'
p3198
sg36
g3185
sg37
I00
sba(issf_api
Word
p3199
(dp3200
g6
I00
sg7
V\u0932\u093f\u090f
p3201
sg9
(issf_api
FeatureSet
p3202
(dp3203
g12
(dp3204
S'posn'
p3205
S'70'
p3206
sS'name'
p3207
S'\xe0\xa4\xb2\xe0\xa4\xbf\xe0\xa4\x8f'
p3208
sS'drel'
p3209
S'lwg__psp:NP2'
p3210
sS'chunktype'
p3211
S'child:NP2'
p3212
sS'af'
p3213
S'\xe0\xa4\xb2\xe0\xa4\xbf\xe0\xa4\x8f,psp,,,,,,'
p3214
ssbsg26
I00
sg27
I00
sg28
Nsg29
Nsg30
I1
sg31
I5
sg32
Nsg33
Nsg34
S'PSP'
p3215
sg36
g3202
sg37
I00
sba(issf_api
Word
p3216
(dp3217
g6
I00
sg7
V\u0907\u0938
p3218
sg9
(issf_api
FeatureSet
p3219
(dp3220
g12
(dp3221
S'posn'
p3222
S'80'
p3223
sS'name'
p3224
S'\xe0\xa4\x87\xe0\xa4\xb8'
p3225
sS'drel'
p3226
S'nmod__adj:NP3'
p3227
sS'chunktype'
p3228
S'child:NP3'
p3229
sS'af'
p3230
S'\xe0\xa4\xaf\xe0\xa4\xb9,pn,any,sg,3,o,,'
p3231
ssbsg26
I00
sg27
I00
sg28
Nsg29
Nsg30
I2
sg31
I5
sg32
Nsg33
Nsg34
S'DEM'
p3232
sg36
g3219
sg37
I00
sba(issf_api
Word
p3233
(dp3234
g6
I00
sg7
V\u0938\u092e\u092f
p3235
sg9
(issf_api
FeatureSet
p3236
(dp3237
g12
(dp3238
S'posn'
p3239
S'90'
p3240
sS'name'
p3241
S'\xe0\xa4\xb8\xe0\xa4\xae\xe0\xa4\xaf'
p3242
sS'af'
p3243
S'\xe0\xa4\xb8\xe0\xa4\xae\xe0\xa4\xaf,n,m,sg,3,d,0,0'
p3244
sS'chunkid'
p3245
S'NP3'
p3246
sS'drel'
p3247
S'k7t:VGF'
p3248
sS'chunktype'
p3249
S'head:NP3'
p3250
ssbsg26
I00
sg27
I00
sg28
Nsg29
Nsg30
I2
sg31
I5
sg32
Nsg33
Nsg34
S'NN'
p3251
sg36
g3236
sg37
I00
sba(issf_api
Word
p3252
(dp3253
g6
I00
sg7
V\u0930\u093f\u0932\u093e\u092f\u0902\u0938
p3254
sg9
(issf_api
FeatureSet
p3255
(dp3256
g12
(dp3257
S'posn'
p3258
S'100'
p3259
sS'name'
p3260
S'\xe0\xa4\xb0\xe0\xa4\xbf\xe0\xa4\xb2\xe0\xa4\xbe\xe0\xa4\xaf\xe0\xa4\x82\xe0\xa4\xb8'
p3261
sS'af'
p3262
S'\xe0\xa4\xb0\xe0\xa4\xbf\xe0\xa4\xb2\xe0\xa4\xbe\xe0\xa4\xaf\xe0\xa4\x82\xe0\xa4\xb8,n,m,sg,3,o,0,0'
p3263
sS'chunkid'
p3264
S'NP4'
p3265
sS'drel'
p3266
S'ccof:CCP'
p3267
sS'chunktype'
p3268
S'head:NP4'
p3269
ssbsg26
I00
sg27
I00
sg28
Nsg29
Nsg30
I3
sg31
I5
sg32
Nsg33
Nsg34
S'NNP'
p3270
sg36
g3255
sg37
I00
sba(issf_api
Word
p3271
(dp3272
g6
I00
sg7
V\u0914\u0930
p3273
sg9
(issf_api
FeatureSet
p3274
(dp3275
g12
(dp3276
S'posn'
p3277
S'110'
p3278
sS'name'
p3279
S'\xe0\xa4\x94\xe0\xa4\xb0'
p3280
sS'af'
p3281
S'\xe0\xa4\x94\xe0\xa4\xb0,avy,,,,,,'
p3282
sS'chunkid'
p3283
S'CCP'
p3284
sS'drel'
p3285
S'r6:NP6'
p3286
sS'chunktype'
p3287
S'head:CCP'
p3288
ssbsg26
I00
sg27
I00
sg28
Nsg29
Nsg30
I4
sg31
I5
sg32
Nsg33
Nsg34
S'CC'
p3289
sg36
g3274
sg37
I00
sba(issf_api
Word
p3290
(dp3291
g6
I00
sg7
V\u091c\u0940\u090f\u092e\u0906\u0930
p3292
sg9
(issf_api
FeatureSet
p3293
(dp3294
g12
(dp3295
S'posn'
p3296
S'120'
p3297
sS'name'
p3298
S'\xe0\xa4\x9c\xe0\xa5\x80\xe0\xa4\x8f\xe0\xa4\xae\xe0\xa4\x86\xe0\xa4\xb0'
p3299
sS'af'
p3300
S'\xe0\xa4\x9c\xe0\xa5\x80\xe0\xa4\x8f\xe0\xa4\xae\xe0\xa4\x86\xe0\xa4\xb0,n,m,sg,3,o,0_\xe0\xa4\x95\xe0\xa4\xbe,0'
p3301
sS'chunkid'
p3302
S'NP5'
p3303
sS'drel'
p3304
S'ccof:CCP'
p3305
sS'vpos'
p3306
S'vib_2'
p3307
sS'chunktype'
p3308
S'head:NP5'
p3309
ssbsg26
I00
sg27
I00
sg28
Nsg29
Nsg30
I5
sg31
I5
sg32
Nsg33
Nsg34
S'NNP'
p3310
sg36
g3293
sg37
I00
sba(issf_api
Word
p3311
(dp3312
g6
I00
sg7
V\u0915\u0947
p3313
sg9
(issf_api
FeatureSet
p3314
(dp3315
g12
(dp3316
S'posn'
p3317
S'130'
p3318
sS'name'
p3319
S'\xe0\xa4\x95\xe0\xa5\x873'
p3320
sS'drel'
p3321
S'lwg__psp:NP5'
p3322
sS'chunktype'
p3323
S'child:NP5'
p3324
sS'af'
p3325
S'\xe0\xa4\x95\xe0\xa4\xbe,psp,m,sg,,o,,'
p3326
ssbsg26
I00
sg27
I00
sg28
Nsg29
Nsg30
I5
sg31
I5
sg32
Nsg33
Nsg34
S'PSP'
p3327
sg36
g3314
sg37
I00
sba(issf_api
Word
p3328
(dp3329
g6
I00
sg7
V\u0928\u0947\u0924\u0943\u0924\u094d\u0935
p3330
sg9
(issf_api
FeatureSet
p3331
(dp3332
g12
(dp3333
S'posn'
p3334
S'140'
p3335
sS'name'
p3336
S'\xe0\xa4\xa8\xe0\xa5\x87\xe0\xa4\xa4\xe0\xa5\x83\xe0\xa4\xa4\xe0\xa5\x8d\xe0\xa4\xb5'
p3337
sS'af'
p3338
S'\xe0\xa4\xa8\xe0\xa5\x87\xe0\xa4\xa4\xe0\xa5\x83\xe0\xa4\xa4\xe0\xa5\x8d\xe0\xa4\xb5,n,m,sg,3,o,0_\xe0\xa4\xae\xe0\xa5\x87\xe0\xa4\x82,0'
p3339
sS'chunkid'
p3340
S'NP6'
p3341
sS'drel'
p3342
S'k7:VGF'
p3343
sS'vpos'
p3344
S'vib_2'
p3345
sS'chunktype'
p3346
S'head:NP6'
p3347
ssbsg26
I00
sg27
I00
sg28
Nsg29
Nsg30
I6
sg31
I5
sg32
Nsg33
Nsg34
S'NN'
p3348
sg36
g3331
sg37
I00
sba(issf_api
Word
p3349
(dp3350
g6
I00
sg7
V\u092e\u0947\u0902
p3351
sg9
(issf_api
FeatureSet
p3352
(dp3353
g12
(dp3354
S'posn'
p3355
S'150'
p3356
sS'name'
p3357
S'\xe0\xa4\xae\xe0\xa5\x87\xe0\xa4\x82'
p3358
sS'drel'
p3359
S'lwg__psp:NP6'
p3360
sS'chunktype'
p3361
S'child:NP6'
p3362
sS'af'
p3363
S'\xe0\xa4\xae\xe0\xa5\x87\xe0\xa4\x82,psp,,,,,,'
p3364
ssbsg26
I00
sg27
I00
sg28
Nsg29
Nsg30
I6
sg31
I5
sg32
Nsg33
Nsg34
S'PSP'
p3365
sg36
g3352
sg37
I00
sba(issf_api
Word
p3366
(dp3367
g6
I00
sg7
V\u090f\u0915
p3368
sg9
(issf_api
FeatureSet
p3369
(dp3370
g12
(dp3371
S'posn'
p3372
S'160'
p3373
sS'name'
p3374
S'\xe0\xa4\x8f\xe0\xa4\x95'
p3375
sS'drel'
p3376
S'nmod__adj:NP7'
p3377
sS'chunktype'
p3378
S'child:NP7'
p3379
sS'af'
p3380
S'\xe0\xa4\x8f\xe0\xa4\x95,num,any,any,,any,,'
p3381
ssbsg26
I00
sg27
I00
sg28
Nsg29
Nsg30
I7
sg31
I5
sg32
Nsg33
Nsg34
S'QC'
p3382
sg36
g3369
sg37
I00
sba(issf_api
Word
p3383
(dp3384
g6
I00
sg7
V\u0938\u092e\u0942\u0939
p3385
sg9
(issf_api
FeatureSet
p3386
(dp3387
g12
(dp3388
S'posn'
p3389
S'170'
p3390
sS'name'
p3391
S'\xe0\xa4\xb8\xe0\xa4\xae\xe0\xa5\x82\xe0\xa4\xb9'
p3392
sS'af'
p3393
S'\xe0\xa4\xb8\xe0\xa4\xae\xe0\xa5\x82\xe0\xa4\xb9,n,m,sg,3,o,0_\xe0\xa4\xb8\xe0\xa4\xae\xe0\xa5\x87\xe0\xa4\xa4,0'
p3394
sS'chunkid'
p3395
S'NP7'
p3396
sS'drel'
p3397
S'vmod:VGF'
p3398
sS'vpos'
p3399
S'vib_3'
p3400
sS'chunktype'
p3401
S'head:NP7'
p3402
ssbsg26
I00
sg27
I00
sg28
Nsg29
Nsg30
I7
sg31
I5
sg32
Nsg33
Nsg34
S'NN'
p3403
sg36
g3386
sg37
I00
sba(issf_api
Word
p3404
(dp3405
g6
I00
sg7
V\u0938\u092e\u0947\u0924
p3406
sg9
(issf_api
FeatureSet
p3407
(dp3408
g12
(dp3409
S'posn'
p3410
S'180'
p3411
sS'name'
p3412
S'\xe0\xa4\xb8\xe0\xa4\xae\xe0\xa5\x87\xe0\xa4\xa4'
p3413
sS'drel'
p3414
S'lwg__psp:NP7'
p3415
sS'chunktype'
p3416
S'child:NP7'
p3417
sS'af'
p3418
S'\xe0\xa4\xb8\xe0\xa4\xae\xe0\xa5\x87\xe0\xa4\xa4,psp,,,,,,'
p3419
ssbsg26
I00
sg27
I00
sg28
Nsg29
Nsg30
I7
sg31
I5
sg32
Nsg33
Nsg34
S'PSP'
p3420
sg36
g3407
sg37
I00
sba(issf_api
Word
p3421
(dp3422
g6
I00
sg7
V\u091b\u0939
p3423
sg9
(issf_api
FeatureSet
p3424
(dp3425
g12
(dp3426
S'posn'
p3427
S'190'
p3428
sS'name'
p3429
S'\xe0\xa4\x9b\xe0\xa4\xb9'
p3430
sS'af'
p3431
S'\xe0\xa4\x9b\xe0\xa4\xb9,num,any,any,,any,,'
p3432
sS'drel'
p3433
S'nmod__adj:NP8'
p3434
sS'chunktype'
p3435
S'child:NP8'
p3436
sS'cref'
p3437
S'i19%0:t8'
p3438
ssbsg26
I00
sg27
I00
sg28
Nsg29
Nsg30
I8
sg31
I5
sg32
Nsg33
Nsg34
S'QC'
p3439
sg36
g3424
sg37
I00
sba(issf_api
Word
p3440
(dp3441
g6
I00
sg7
V\u0928\u093f\u0935\u0947\u0926\u0915
p3442
sg9
(issf_api
FeatureSet
p3443
(dp3444
g12
(dp3445
S'crefhead'
p3446
S'\xe0\xa4\xa8\xe0\xa4\xbf\xe0\xa4\xb5\xe0\xa5\x87\xe0\xa4\xa6\xe0\xa4\x95:i19'
p3447
sS'posn'
p3448
S'200'
p3449
sS'name'
p3450
S'\xe0\xa4\xa8\xe0\xa4\xbf\xe0\xa4\xb5\xe0\xa5\x87\xe0\xa4\xa6\xe0\xa4\x95'
p3451
sS'af'
p3452
S'\xe0\xa4\xa8\xe0\xa4\xbf\xe0\xa4\xb5\xe0\xa5\x87\xe0\xa4\xa6\xe0\xa4\x95,n,m,pl,3,d,0,0'
p3453
sS'chunkid'
p3454
S'NP8'
p3455
sS'chunktype'
p3456
S'head:NP8'
p3457
sS'crefchainhead'
p3458
S'i19:t8'
p3459
sS'cref'
p3460
S'i19%1:t8'
p3461
sS'drel'
p3462
S'k1:VGF'
p3463
ssbsg26
I00
sg27
I00
sg28
Nsg29
Nsg30
I8
sg31
I5
sg32
Nsg33
Nsg34
S'NN'
p3464
sg36
g3443
sg37
I00
sba(issf_api
Word
p3465
(dp3466
g6
I00
sg7
V\u0939\u0948\u0902
p3467
sg9
(issf_api
FeatureSet
p3468
(dp3469
g12
(dp3470
S'posn'
p3471
S'210'
p3472
sS'name'
p3473
S'\xe0\xa4\xb9\xe0\xa5\x88\xe0\xa4\x82'
p3474
sS'af'
p3475
S'\xe0\xa4\xb9\xe0\xa5\x88,v,any,pl,3,,\xe0\xa4\xb9\xe0\xa5\x88,hE'
p3476
sS'chunkid'
p3477
S'VGF'
p3478
sS'chunktype'
p3479
S'head:VGF'
p3480
sS'voicetype'
p3481
S'active'
p3482
sS'stype'
p3483
S'declarative'
p3484
ssbsg26
I00
sg27
I00
sg28
Nsg29
Nsg30
I9
sg31
I5
sg32
Nsg33
Nsg34
S'VM'
p3485
sg36
g3468
sg37
I00
sba(issf_api
Word
p3486
(dp3487
g6
I00
sg7
V\u0964
p3488
sg9
(issf_api
FeatureSet
p3489
(dp3490
g12
(dp3491
S'posn'
p3492
S'220'
p3493
sS'name'
p3494
S'\xe0\xa5\xa4'
p3495
sS'af'
p3496
S'\xe0\xa5\xa4,punc,,,,,,'
p3497
sS'chunkid'
p3498
S'BLK'
p3499
sS'drel'
p3500
S'rsym:VGF'
p3501
sS'chunktype'
p3502
S'head:BLK'
p3503
ssbsg26
I00
sg27
I00
sg28
Nsg29
Nsg30
I10
sg31
I5
sg32
Nsg33
Nsg34
S'SYM'
p3504
sg36
g3489
sg37
I00
sba(issf_api
Word
p3505
(dp3506
g6
I00
sg7
V\u091a\u092f\u0928
p3507
sg9
(issf_api
FeatureSet
p3508
(dp3509
g12
(dp3510
S'posn'
p3511
S'10'
p3512
sS'name'
p3513
S'\xe0\xa4\x9a\xe0\xa4\xaf\xe0\xa4\xa8'
p3514
sS'af'
p3515
S'\xe0\xa4\x9a\xe0\xa4\xaf\xe0\xa4\xa8,n,m,sg,3,o,0_\xe0\xa4\x95\xe0\xa4\xbe,0'
p3516
sS'chunkid'
p3517
S'NP'
p3518
sS'drel'
p3519
S'r6:NP2'
p3520
sS'vpos'
p3521
S'vib_2'
p3522
sS'chunktype'
p3523
S'head:NP'
p3524
ssbsg26
I00
sg27
I00
sg28
Nsg29
Nsg30
I0
sg31
I6
sg32
Nsg33
Nsg34
S'NN'
p3525
sg36
g3508
sg37
I00
sba(issf_api
Word
p3526
(dp3527
g6
I00
sg7
V\u0915\u0947
p3528
sg9
(issf_api
FeatureSet
p3529
(dp3530
g12
(dp3531
S'posn'
p3532
S'20'
p3533
sS'name'
p3534
S'\xe0\xa4\x95\xe0\xa5\x87'
p3535
sS'drel'
p3536
S'lwg__psp:NP'
p3537
sS'chunktype'
p3538
S'child:NP'
p3539
sS'af'
p3540
S'\xe0\xa4\x95\xe0\xa4\xbe,psp,m,pl,,d,,'
p3541
ssbsg26
I00
sg27
I00
sg28
Nsg29
Nsg30
I0
sg31
I6
sg32
Nsg33
Nsg34
S'PSP'
p3542
sg36
g3529
sg37
I00
sba(issf_api
Word
p3543
(dp3544
g6
I00
sg7
V\u0926\u094b
p3545
sg9
(issf_api
FeatureSet
p3546
(dp3547
g12
(dp3548
S'posn'
p3549
S'30'
p3550
sS'name'
p3551
S'\xe0\xa4\xa6\xe0\xa5\x8b'
p3552
sS'af'
p3553
S'\xe0\xa4\xa6\xe0\xa5\x8b,num,any,any,,any,,'
p3554
sS'drel'
p3555
S'nmod__adj:NP2'
p3556
sS'chunktype'
p3557
S'child:NP2'
p3558
sS'cref'
p3559
S'i20%0:t8'
p3560
ssbsg26
I00
sg27
I00
sg28
Nsg29
Nsg30
I1
sg31
I6
sg32
Nsg33
Nsg34
S'QC'
p3561
sg36
g3546
sg37
I00
sba(issf_api
Word
p3562
(dp3563
g6
I00
sg7
V\u0928\u093f\u0935\u0947\u0926\u0915
p3564
sg9
(issf_api
FeatureSet
p3565
(dp3566
g12
(dp3567
S'crefhead'
p3568
S'\xe0\xa4\xa8\xe0\xa4\xbf\xe0\xa4\xb5\xe0\xa5\x87\xe0\xa4\xa6\xe0\xa4\x95:i20'
p3569
sS'posn'
p3570
S'40'
p3571
sS'name'
p3572
S'\xe0\xa4\xa8\xe0\xa4\xbf\xe0\xa4\xb5\xe0\xa5\x87\xe0\xa4\xa6\xe0\xa4\x95'
p3573
sS'af'
p3574
S'\xe0\xa4\xa8\xe0\xa4\xbf\xe0\xa4\xb5\xe0\xa5\x87\xe0\xa4\xa6\xe0\xa4\x95,n,m,pl,3,d,0,0'
p3575
sS'chunkid'
p3576
S'NP2'
p3577
sS'creftype'
p3578
S'Coreference-PartOf:i19'
p3579
sS'chunktype'
p3580
S'head:NP2'
p3581
sS'cref'
p3582
S'i20%1:t8'
p3583
sS'drel'
p3584
S'k1:VGF'
p3585
ssbsg26
I00
sg27
I00
sg28
Nsg29
Nsg30
I1
sg31
I6
sg32
Nsg33
Nsg34
S'NN'
p3586
sg36
g3565
sg37
I00
sba(issf_api
Word
p3587
(dp3588
g6
I00
sg7
V\u092d\u093e\u0930\u0924\u0940\u092f
p3589
sg9
(issf_api
FeatureSet
p3590
(dp3591
g12
(dp3592
S'posn'
p3593
S'180'
p3594
sS'name'
p3595
S'\xe0\xa4\xad\xe0\xa4\xbe\xe0\xa4\xb0\xe0\xa4\xa4\xe0\xa5\x80\xe0\xa4\xaf'
p3596
sS'drel'
p3597
S'pof__cn:NP3'
p3598
sS'chunktype'
p3599
S'child:NP3'
p3600
sS'af'
p3601
S'\xe0\xa4\xad\xe0\xa4\xbe\xe0\xa4\xb0\xe0\xa4\xa4\xe0\xa5\x80\xe0\xa4\xaf,adj,any,any,,o,,'
p3602
ssbsg26
I00
sg27
I00
sg28
Nsg29
Nsg30
I2
sg31
I6
sg32
Nsg33
Nsg34
S'NNPC'
p3603
sg36
g3590
sg37
I00
sba(issf_api
Word
p3604
(dp3605
g6
I00
sg7
V\u0939\u0935\u093e\u0908\u0905\u0921\u094d\u0921\u093e
p3606
sg9
(issf_api
FeatureSet
p3607
(dp3608
g12
(dp3609
S'posn'
p3610
S'60'
p3611
sS'name'
p3612
S'\xe0\xa4\xb9\xe0\xa4\xb5\xe0\xa4\xbe\xe0\xa4\x88\xe0\xa4\x85\xe0\xa4\xa1\xe0\xa5\x8d\xe0\xa4\xa1\xe0\xa4\xbe'
p3613
sS'drel'
p3614
S'pof__cn:NP3'
p3615
sS'chunktype'
p3616
S'child:NP3'
p3617
sS'af'
p3618
S'\xe0\xa4\xb9\xe0\xa4\xb5\xe0\xa4\xbe\xe0\xa4\x88\xe0\xa4\x85\xe0\xa4\xa1\xe0\xa5\x8d\xe0\xa4\xa1\xe0\xa4\xbe,n,m,sg,3,d,0,0'
p3619
ssbsg26
I00
sg27
I00
sg28
Nsg29
Nsg30
I2
sg31
I6
sg32
Nsg33
Nsg34
S'NNPC'
p3620
sg36
g3607
sg37
I00
sba(issf_api
Word
p3621
(dp3622
g6
I00
sg7
V\u092a\u094d\u0930\u093e\u0927\u093f\u0915\u0930\u0923
p3623
sg9
(issf_api
FeatureSet
p3624
(dp3625
g12
(dp3626
S'posn'
p3627
S'70'
p3628
sS'name'
p3629
S'\xe0\xa4\xaa\xe0\xa5\x8d\xe0\xa4\xb0\xe0\xa4\xbe\xe0\xa4\xa7\xe0\xa4\xbf\xe0\xa4\x95\xe0\xa4\xb0\xe0\xa4\xa3'
p3630
sS'af'
p3631
S'\xe0\xa4\xaa\xe0\xa5\x8d\xe0\xa4\xb0\xe0\xa4\xbe\xe0\xa4\xa7\xe0\xa4\xbf\xe0\xa4\x95\xe0\xa4\xb0\xe0\xa4\xa3,n,m,sg,3,o,0_\xe0\xa4\x95\xe0\xa5\x87_\xe0\xa4\xb8\xe0\xa4\xbe\xe0\xa4\xa5,0'
p3632
sS'chunkid'
p3633
S'NP3'
p3634
sS'drel'
p3635
S'ras-k1:VGF'
p3636
sS'vpos'
p3637
S'vib_4_5'
p3638
sS'chunktype'
p3639
S'head:NP3'
p3640
ssbsg26
I00
sg27
I00
sg28
Nsg29
Nsg30
I2
sg31
I6
sg32
Nsg33
Nsg34
S'NNP'
p3641
sg36
g3624
sg37
I00
sba(issf_api
Word
p3642
(dp3643
g6
I00
sg7
V\u0915\u0947
p3644
sg9
(issf_api
FeatureSet
p3645
(dp3646
g12
(dp3647
S'posn'
p3648
S'80'
p3649
sS'name'
p3650
S'\xe0\xa4\x95\xe0\xa5\x872'
p3651
sS'drel'
p3652
S'lwg__psp:NP3'
p3653
sS'chunktype'
p3654
S'child:NP3'
p3655
sS'af'
p3656
S'\xe0\xa4\x95\xe0\xa5\x87,psp,,,,,,'
p3657
ssbsg26
I00
sg27
I00
sg28
Nsg29
Nsg30
I2
sg31
I6
sg32
Nsg33
Nsg34
S'PSP'
p3658
sg36
g3645
sg37
I00
sba(issf_api
Word
p3659
(dp3660
g6
I00
sg7
V\u0938\u093e\u0925
p3661
sg9
(issf_api
FeatureSet
p3662
(dp3663
g12
(dp3664
S'posn'
p3665
S'90'
p3666
sS'name'
p3667
S'\xe0\xa4\xb8\xe0\xa4\xbe\xe0\xa4\xa5'
p3668
sS'drel'
p3669
S'lwg__psp:NP3'
p3670
sS'chunktype'
p3671
S'child:NP3'
p3672
sS'af'
p3673
S'\xe0\xa4\xb8\xe0\xa4\xbe\xe0\xa4\xa5,nst,m,sg,3,d,,'
p3674
ssbsg26
I00
sg27
I00
sg28
Nsg29
Nsg30
I2
sg31
I6
sg32
Nsg33
Nsg34
S'NST'
p3675
sg36
g3662
sg37
I00
sba(issf_api
Word
p3676
(dp3677
g6
I00
sg7
V\u0926\u094b
p3678
sg9
(issf_api
FeatureSet
p3679
(dp3680
g12
(dp3681
S'posn'
p3682
S'100'
p3683
sS'name'
p3684
S'\xe0\xa4\xa6\xe0\xa5\x8b2'
p3685
sS'drel'
p3686
S'nmod__adj:NP4'
p3687
sS'chunktype'
p3688
S'child:NP4'
p3689
sS'af'
p3690
S'\xe0\xa4\xa6\xe0\xa5\x8b,num,any,any,,any,,'
p3691
ssbsg26
I00
sg27
I00
sg28
Nsg29
Nsg30
I3
sg31
I6
sg32
Nsg33
Nsg34
S'QC'
p3692
sg36
g3679
sg37
I00
sba(issf_api
Word
p3693
(dp3694
g6
I00
sg7
V\u0938\u0902\u092f\u0941\u0915\u094d\u0924
p3695
sg9
(issf_api
FeatureSet
p3696
(dp3697
g12
(dp3698
S'posn'
p3699
S'110'
p3700
sS'name'
p3701
S'\xe0\xa4\xb8\xe0\xa4\x82\xe0\xa4\xaf\xe0\xa5\x81\xe0\xa4\x95\xe0\xa5\x8d\xe0\xa4\xa4'
p3702
sS'drel'
p3703
S'nmod__adj:NP4'
p3704
sS'chunktype'
p3705
S'child:NP4'
p3706
sS'af'
p3707
S'\xe0\xa4\xb8\xe0\xa4\x82\xe0\xa4\xaf\xe0\xa5\x81\xe0\xa4\x95\xe0\xa5\x8d\xe0\xa4\xa4,adj,any,any,,d,,'
p3708
ssbsg26
I00
sg27
I00
sg28
Nsg29
Nsg30
I3
sg31
I6
sg32
Nsg33
Nsg34
S'JJ'
p3709
sg36
g3696
sg37
I00
sba(issf_api
Word
p3710
(dp3711
g6
I00
sg7
V\u0909\u0926\u094d\u092f\u092e
p3712
sg9
(issf_api
FeatureSet
p3713
(dp3714
g12
(dp3715
S'posn'
p3716
S'120'
p3717
sS'name'
p3718
S'\xe0\xa4\x89\xe0\xa4\xa6\xe0\xa5\x8d\xe0\xa4\xaf\xe0\xa4\xae'
p3719
sS'af'
p3720
S'\xe0\xa4\x89\xe0\xa4\xa6\xe0\xa5\x8d\xe0\xa4\xaf\xe0\xa4\xae,n,m,pl,3,d,0,0'
p3721
sS'chunkid'
p3722
S'NP4'
p3723
sS'drel'
p3724
S'k2:VGNF'
p3725
sS'chunktype'
p3726
S'head:NP4'
p3727
ssbsg26
I00
sg27
I00
sg28
Nsg29
Nsg30
I3
sg31
I6
sg32
Nsg33
Nsg34
S'NN'
p3728
sg36
g3713
sg37
I00
sba(issf_api
Word
p3729
(dp3730
g6
I00
sg7
V\u0917\u0920\u093f\u0924
p3731
sg9
(issf_api
FeatureSet
p3732
(dp3733
g12
(dp3734
S'posn'
p3735
S'130'
p3736
sS'name'
p3737
S'\xe0\xa4\x97\xe0\xa4\xa0\xe0\xa4\xbf\xe0\xa4\xa4'
p3738
sS'af'
p3739
S'\xe0\xa4\x97\xe0\xa4\xa0\xe0\xa4\xbf\xe0\xa4\xa4,adj,any,any,,,,'
p3740
sS'chunkid'
p3741
S'JJP'
p3742
sS'drel'
p3743
S'pof:VGNF'
p3744
sS'chunktype'
p3745
S'head:JJP'
p3746
ssbsg26
I00
sg27
I00
sg28
Nsg29
Nsg30
I4
sg31
I6
sg32
Nsg33
Nsg34
S'JJ'
p3747
sg36
g3732
sg37
I00
sba(issf_api
Word
p3748
(dp3749
g6
I00
sg7
V\u0915\u0930
p3750
sg9
(issf_api
FeatureSet
p3751
(dp3752
g12
(dp3753
S'posn'
p3754
S'140'
p3755
sS'name'
p3756
S'\xe0\xa4\x95\xe0\xa4\xb0'
p3757
sS'af'
p3758
S'\xe0\xa4\x95\xe0\xa4\xb0,v,any,any,any,,0,0'
p3759
sS'chunkid'
p3760
S'VGNF'
p3761
sS'drel'
p3762
S'vmod:VGF'
p3763
sS'chunktype'
p3764
S'head:VGNF'
p3765
ssbsg26
I00
sg27
I00
sg28
Nsg29
Nsg30
I5
sg31
I6
sg32
Nsg33
Nsg34
S'VM'
p3766
sg36
g3751
sg37
I00
sba(issf_api
Word
p3767
(dp3768
g6
I00
sg7
V\u0926\u094b\u0928\u094b\u0902
p3769
sg9
(issf_api
FeatureSet
p3770
(dp3771
g12
(dp3772
S'posn'
p3773
S'150'
p3774
sS'name'
p3775
S'\xe0\xa4\xa6\xe0\xa5\x8b\xe0\xa4\xa8\xe0\xa5\x8b\xe0\xa4\x82'
p3776
sS'af'
p3777
S'\xe0\xa4\xa6\xe0\xa5\x8b,num,any,pl,,any,,'
p3778
sS'acrefmod'
p3779
S'm4%0:i22'
p3780
sS'drel'
p3781
S'nmod__adj:NP5'
p3782
sS'chunktype'
p3783
S'child:NP5'
p3784
sS'cref'
p3785
S'i21%0:t3'
p3786
ssbsg26
I00
sg27
I00
sg28
Nsg29
Nsg30
I6
sg31
I6
sg32
Nsg33
Nsg34
S'QC'
p3787
sg36
g3770
sg37
I00
sba(issf_api
Word
p3788
(dp3789
g6
I00
sg7
V\u0939\u0935\u093e\u0908
p3790
sg9
(issf_api
FeatureSet
p3791
(dp3792
g12
(dp3793
S'posn'
p3794
S'160'
p3795
sS'name'
p3796
S'\xe0\xa4\xb9\xe0\xa4\xb5\xe0\xa4\xbe\xe0\xa4\x88'
p3797
sS'af'
p3798
S'\xe0\xa4\xb9\xe0\xa4\xb5\xe0\xa4\xbe\xe0\xa4\x88,adj,any,any,,o,,'
p3799
sS'acrefmod'
p3800
S'm4%0:i22'
p3801
sS'drel'
p3802
S'pof__cn:NP5'
p3803
sS'chunktype'
p3804
S'child:NP5'
p3805
sS'cref'
p3806
S'i21%0:t3'
p3807
ssbsg26
I00
sg27
I00
sg28
Nsg29
Nsg30
I6
sg31
I6
sg32
Nsg33
Nsg34
S'NNC'
p3808
sg36
g3791
sg37
I00
sba(issf_api
Word
p3809
(dp3810
g6
I00
sg7
V\u0905\u0921\u094d\u0921\u094b\u0902
p3811
sg9
(issf_api
FeatureSet
p3812
(dp3813
g12
(dp3814
S'crefhead'
p3815
S'\xe0\xa4\x85\xe0\xa4\xa1\xe0\xa5\x8d\xe0\xa4\xa1\xe0\xa5\x8b\xe0\xa4\x82:i21'
p3816
sS'posn'
p3817
S'170'
p3818
sS'name'
p3819
S'\xe0\xa4\x85\xe0\xa4\xa1\xe0\xa5\x8d\xe0\xa4\xa1\xe0\xa5\x8b\xe0\xa4\x82'
p3820
sS'af'
p3821
S'\xe0\xa4\x85\xe0\xa4\xa1\xe0\xa5\x8d\xe0\xa4\xa1\xe0\xa4\xbe,n,m,pl,3,o,0_\xe0\xa4\x95\xe0\xa4\xbe,0'
p3822
sS'acrefmodhead'
p3823
S'\xe0\xa4\x85\xe0\xa4\xa1\xe0\xa5\x8d\xe0\xa4\xa1\xe0\xa5\x8b\xe0\xa4\x82:m4'
p3824
sS'chunkid'
p3825
S'NP5'
p3826
sS'acrefmod'
p3827
S'm4%1:i22'
p3828
sS'creftype'
p3829
S'Coreference-Identity:i17'
p3830
sS'chunktype'
p3831
S'head:NP5'
p3832
sS'vpos'
p3833
S'vib_4'
p3834
sS'cref'
p3835
S'i21%1:t3'
p3836
sS'drel'
p3837
S'r6-k2:NP6'
p3838
ssbsg26
I00
sg27
I00
sg28
Nsg29
Nsg30
I6
sg31
I6
sg32
Nsg33
Nsg34
S'NN'
p3839
sg36
g3812
sg37
I00
sba(issf_api
Word
p3840
(dp3841
g6
I00
sg7
V\u0915\u093e
p3842
sg9
(issf_api
FeatureSet
p3843
(dp3844
g12
(dp3845
S'posn'
p3846
S'180'
p3847
sS'name'
p3848
S'\xe0\xa4\x95\xe0\xa4\xbe'
p3849
sS'drel'
p3850
S'lwg__psp:NP5'
p3851
sS'chunktype'
p3852
S'child:NP5'
p3853
sS'af'
p3854
S'\xe0\xa4\x95\xe0\xa4\xbe,psp,m,sg,,d,,'
p3855
ssbsg26
I00
sg27
I00
sg28
Nsg29
Nsg30
I6
sg31
I6
sg32
Nsg33
Nsg34
S'PSP'
p3856
sg36
g3843
sg37
I00
sba(issf_api
Word
p3857
(dp3858
g6
I00
sg7
V\u0906\u0927\u0941\u0928\u093f\u0915\u0940\u0915\u0930\u0923
p3859
sg9
(issf_api
FeatureSet
p3860
(dp3861
g12
(dp3862
S'crefhead'
p3863
S'\xe0\xa4\x86\xe0\xa4\xa7\xe0\xa5\x81\xe0\xa4\xa8\xe0\xa4\xbf\xe0\xa4\x95\xe0\xa5\x80\xe0\xa4\x95\xe0\xa4\xb0\xe0\xa4\xa3:i22'
p3864
sS'posn'
p3865
S'190'
p3866
sS'name'
p3867
S'\xe0\xa4\x86\xe0\xa4\xa7\xe0\xa5\x81\xe0\xa4\xa8\xe0\xa4\xbf\xe0\xa4\x95\xe0\xa5\x80\xe0\xa4\x95\xe0\xa4\xb0\xe0\xa4\xa3'
p3868
sS'af'
p3869
S'\xe0\xa4\x86\xe0\xa4\xa7\xe0\xa5\x81\xe0\xa4\xa8\xe0\xa4\xbf\xe0\xa4\x95\xe0\xa5\x80\xe0\xa4\x95\xe0\xa4\xb0\xe0\xa4\xa3,n,m,sg,3,d,0,0'
p3870
sS'chunkid'
p3871
S'NP6'
p3872
sS'crefmod'
p3873
S'm4:i22'
p3874
sS'creftype'
p3875
S'Coreference-Identity:i18'
p3876
sS'chunktype'
p3877
S'head:NP6'
p3878
sS'cref'
p3879
S'i22%1:t4'
p3880
sS'drel'
p3881
S'pof:VGF'
p3882
ssbsg26
I00
sg27
I00
sg28
Nsg29
Nsg30
I7
sg31
I6
sg32
Nsg33
Nsg34
S'NN'
p3883
sg36
g3860
sg37
I00
sba(issf_api
Word
p3884
(dp3885
g6
I00
sg7
V\u0915\u0930\u0947\u0902\u0917\u0947
p3886
sg9
(issf_api
FeatureSet
p3887
(dp3888
g12
(dp3889
S'posn'
p3890
S'200'
p3891
sS'name'
p3892
S'\xe0\xa4\x95\xe0\xa4\xb0\xe0\xa5\x87\xe0\xa4\x82\xe0\xa4\x97\xe0\xa5\x87'
p3893
sS'af'
p3894
S'\xe0\xa4\x95\xe0\xa4\xb0,v,m,pl,3,,\xe0\xa4\x97\xe0\xa4\xbe,gA'
p3895
sS'chunkid'
p3896
S'VGF'
p3897
sS'chunktype'
p3898
S'head:VGF'
p3899
sS'voicetype'
p3900
S'active'
p3901
sS'stype'
p3902
S'declarative'
p3903
ssbsg26
I00
sg27
I00
sg28
Nsg29
Nsg30
I8
sg31
I6
sg32
Nsg33
Nsg34
S'VM'
p3904
sg36
g3887
sg37
I00
sba(issf_api
Word
p3905
(dp3906
g6
I00
sg7
V\u0964
p3907
sg9
(issf_api
FeatureSet
p3908
(dp3909
g12
(dp3910
S'posn'
p3911
S'210'
p3912
sS'name'
p3913
S'\xe0\xa5\xa4'
p3914
sS'af'
p3915
S'\xe0\xa5\xa4,punc,,,,,,'
p3916
sS'chunkid'
p3917
S'BLK'
p3918
sS'drel'
p3919
S'rsym:VGF'
p3920
sS'chunktype'
p3921
S'head:BLK'
p3922
ssbsg26
I00
sg27
I00
sg28
Nsg29
Nsg30
I9
sg31
I6
sg32
Nsg33
Nsg34
S'SYM'
p3923
sg36
g3908
sg37
I00
sbasS'sentenceList'
p3924
(lp3925
(issf_api
Sentence
p3926
(dp3927
S'rootNode'
p3928
(lp3929
sg31
I0
sS'wordNumList'
p3930
(lp3931
I0
aI1
aI2
aI3
aI4
aI5
aI6
aI7
aI8
aI9
aI10
aI11
aI12
aI13
aI14
aI15
aI16
aI17
aI18
aI19
aI20
aI21
aI22
aI23
aI24
aI25
aI26
aI27
aI28
aI29
aI30
aI31
aI32
aI33
aI34
asS'nodeDict'
p3932
(dp3933
S'NP10'
p3934
(issf_api
Node
p3935
(dp3936
S'nodeRelation'
p3937
S'pof'
p3938
sS'nodeName'
p3939
g3934
sS'nodeParent'
p3940
S'VGNN'
p3941
sS'nodeLevel'
p3942
I-1
sg30
I11
sS'childList'
p3943
(lp3944
S'NP9'
p3945
asbsS'VGF'
p3946
(issf_api
Node
p3947
(dp3948
g3937
S'None'
p3949
sg3939
g3946
sg3940
g3949
sg3942
I-1
sg30
I13
sg3943
(lp3950
S'BLK'
p3951
aS'VGNN'
p3952
aS'NP'
p3953
aS'NP2'
p3954
asbsS'CCP'
p3955
(issf_api
Node
p3956
(dp3957
g3937
S'nmod'
p3958
sg3939
g3955
sg3940
S'NP5'
p3959
sg3942
I-1
sg30
I3
sg3943
(lp3960
S'NP4'
p3961
aS'NP3'
p3962
asbsS'JJP'
p3963
(issf_api
Node
p3964
(dp3965
g3937
S'nmod'
p3966
sg3939
g3963
sg3940
S'NP9'
p3967
sg3942
I-1
sg30
I9
sg3943
(lp3968
S'NP8'
p3969
asbsS'NP5'
p3970
(issf_api
Node
p3971
(dp3972
g3937
S'r6'
p3973
sg3939
g3970
sg3940
S'NP6'
p3974
sg3942
I-1
sg30
I5
sg3943
(lp3975
g3955
asbsg3945
(issf_api
Node
p3976
(dp3977
g3937
S'r6-k2'
p3978
sg3939
g3945
sg3940
S'NP10'
p3979
sg3942
I-1
sg30
I10
sg3943
(lp3980
g3963
asbsg3969
(issf_api
Node
p3981
(dp3982
g3937
S'jjmod'
p3983
sg3939
g3969
sg3940
S'JJP'
p3984
sg3942
I-1
sg30
I8
sg3943
(lp3985
S'NP7'
p3986
asbsg3951
(issf_api
Node
p3987
(dp3988
g3937
S'rsym'
p3989
sg3939
g3951
sg3940
S'VGF'
p3990
sg3942
I-1
sg30
I14
sg3943
(lp3991
sbsg3952
(issf_api
Node
p3992
(dp3993
g3937
S'rt'
p3994
sg3939
g3952
sg3940
S'VGF'
p3995
sg3942
I-1
sg30
I12
sg3943
(lp3996
g3934
asbsg3953
(issf_api
Node
p3997
(dp3998
g3937
S'k1'
p3999
sg3939
g3953
sg3940
S'VGF'
p4000
sg3942
I-1
sg30
I0
sg3943
(lp4001
sbsg3961
(issf_api
Node
p4002
(dp4003
g3937
S'ccof'
p4004
sg3939
g3961
sg3940
S'CCP'
p4005
sg3942
I-1
sg30
I4
sg3943
(lp4006
sbsg3986
(issf_api
Node
p4007
(dp4008
g3937
S'r6'
p4009
sg3939
g3986
sg3940
S'NP8'
p4010
sg3942
I-1
sg30
I7
sg3943
(lp4011
S'NP6'
p4012
asbsg4012
(issf_api
Node
p4013
(dp4014
g3937
S'r6'
p4015
sg3939
g4012
sg3940
S'NP7'
p4016
sg3942
I-1
sg30
I6
sg3943
(lp4017
g3970
asbsg3962
(issf_api
Node
p4018
(dp4019
g3937
S'ccof'
p4020
sg3939
g3962
sg3940
S'CCP'
p4021
sg3942
I-1
sg30
I2
sg3943
(lp4022
sbsg3954
(issf_api
Node
p4023
(dp4024
g3937
S'k4'
p4025
sg3939
g3954
sg3940
S'VGF'
p4026
sg3942
I-1
sg30
I1
sg3943
(lp4027
sbssS'chunkList'
p4028
(lp4029
(issf_api
Chunk
p4030
(dp4031
g3939
g110
sg30
I0
sS'chunkTag'
p4032
g121
sg31
I0
sg3930
(lp4033
I0
aI1
aI2
aI3
aI4
aI5
asg36
(issf_api
FeatureSet
p4034
(dp4035
g12
(dp4036
S'name'
p4037
g3953
sS'drel'
p4038
S'k1:VGF'
p4039
ssbsba(issf_api
Chunk
p4040
(dp4041
g3939
g211
sg30
I1
sg4032
g222
sg31
I0
sg3930
(lp4042
I6
aI7
aI8
aI9
aI10
asg36
(issf_api
FeatureSet
p4043
(dp4044
g12
(dp4045
S'name'
p4046
g3954
sS'drel'
p4047
S'k4:VGF'
p4048
ssbsba(issf_api
Chunk
p4049
(dp4050
g3939
g253
sg30
I2
sg4032
g262
sg31
I0
sg3930
(lp4051
I11
asg36
(issf_api
FeatureSet
p4052
(dp4053
g12
(dp4054
S'name'
p4055
g3962
sS'drel'
p4056
S'ccof:CCP'
p4057
ssbsba(issf_api
Chunk
p4058
(dp4059
g3939
g276
sg30
I3
sg4032
g285
sg31
I0
sg3930
(lp4060
I12
asg36
(issf_api
FeatureSet
p4061
(dp4062
g12
(dp4063
S'name'
p4064
g3955
sS'drel'
p4065
S'nmod:NP5'
p4066
ssbsba(issf_api
Chunk
p4067
(dp4068
g3939
g299
sg30
I4
sg4032
g308
sg31
I0
sg3930
(lp4069
I13
asg36
(issf_api
FeatureSet
p4070
(dp4071
g12
(dp4072
S'name'
p4073
g3961
sS'drel'
p4074
S'ccof:CCP'
p4075
ssbsba(issf_api
Chunk
p4076
(dp4077
g3939
g347
sg30
I5
sg4032
g360
sg31
I0
sg3930
(lp4078
I14
aI15
aI16
asg36
(issf_api
FeatureSet
p4079
(dp4080
g12
(dp4081
S'name'
p4082
g3970
sS'drel'
p4083
S'r6:NP6'
p4084
ssbsba(issf_api
Chunk
p4085
(dp4086
g3939
g393
sg30
I6
sg4032
g406
sg31
I0
sg3930
(lp4087
I17
aI18
asg36
(issf_api
FeatureSet
p4088
(dp4089
g12
(dp4090
S'name'
p4091
g4012
sS'drel'
p4092
S'r6:NP7'
p4093
ssbsba(issf_api
Chunk
p4094
(dp4095
g3939
g437
sg30
I7
sg4032
g444
sg31
I0
sg3930
(lp4096
I19
aI20
asg36
(issf_api
FeatureSet
p4097
(dp4098
g12
(dp4099
S'name'
p4100
g3986
sS'drel'
p4101
S'r6:NP8'
p4102
ssbsba(issf_api
Chunk
p4103
(dp4104
g3939
g475
sg30
I8
sg4032
g482
sg31
I0
sg3930
(lp4105
I21
aI22
aI23
asg36
(issf_api
FeatureSet
p4106
(dp4107
g12
(dp4108
S'name'
p4109
g3969
sS'drel'
p4110
S'jjmod:JJP'
p4111
ssbsba(issf_api
Chunk
p4112
(dp4113
g3939
g530
sg30
I9
sg4032
g535
sg31
I0
sg3930
(lp4114
I24
asg36
(issf_api
FeatureSet
p4115
(dp4116
g12
(dp4117
S'name'
p4118
g3963
sS'drel'
p4119
S'nmod:NP9'
p4120
ssbsba(issf_api
Chunk
p4121
(dp4122
g3939
g583
sg30
I10
sg4032
g590
sg31
I0
sg3930
(lp4123
I25
aI26
aI27
aI28
asg36
(issf_api
FeatureSet
p4124
(dp4125
g12
(dp4126
S'name'
p4127
g3945
sS'drel'
p4128
S'r6-k2:NP10'
p4129
ssbsba(issf_api
Chunk
p4130
(dp4131
g3939
g621
sg30
I11
sg4032
g626
sg31
I0
sg3930
(lp4132
I29
asg36
(issf_api
FeatureSet
p4133
(dp4134
g12
(dp4135
S'name'
p4136
g3934
sS'drel'
p4137
S'pof:VGNN'
p4138
ssbsba(issf_api
Chunk
p4139
(dp4140
g3939
g640
sg30
I12
sg4032
g647
sg31
I0
sg3930
(lp4141
I30
aI31
asg36
(issf_api
FeatureSet
p4142
(dp4143
g12
(dp4144
S'name'
p4145
g3952
sS'drel'
p4146
S'rt:VGF'
p4147
ssbsba(issf_api
Chunk
p4148
(dp4149
g3939
g678
sg30
I13
sg4032
g687
sg31
I0
sg3930
(lp4150
I32
aI33
asg36
(issf_api
FeatureSet
p4151
(dp4152
g12
(dp4153
S'name'
p4154
g3946
ssbsba(issf_api
Chunk
p4155
(dp4156
g3939
g718
sg30
I14
sg4032
g723
sg31
I0
sg3930
(lp4157
I34
asg36
(issf_api
FeatureSet
p4158
(dp4159
g12
(dp4160
S'name'
p4161
g3951
sS'drel'
p4162
S'rsym:VGF'
p4163
ssbsbasba(issf_api
Sentence
p4164
(dp4165
g3928
(lp4166
sg31
I1
sg3930
(lp4167
I35
aI36
aI37
aI38
aI39
aI40
aI41
aI42
aI43
aI44
aI45
aI46
aI47
aI48
aI49
aI50
aI51
aI52
aI53
aI54
aI55
aI56
aI57
aI58
aI59
asg3932
(dp4168
S'VGNF'
p4169
(issf_api
Node
p4170
(dp4171
g3937
S'vmod'
p4172
sg3939
g4169
sg3940
S'VGF'
p4173
sg3942
I-1
sg30
I3
sg3943
(lp4174
S'NP3'
p4175
asbsS'VGF'
p4176
(issf_api
Node
p4177
(dp4178
g3937
g3949
sg3939
g4176
sg3940
g3949
sg3942
I-1
sg30
I4
sg3943
(lp4179
g4169
aS'CCP'
p4180
aS'BLK'
p4181
aS'NP'
p4182
aS'NP2'
p4183
asbsg4180
(issf_api
Node
p4184
(dp4185
g3937
S'k2'
p4186
sg3939
g4180
sg3940
S'VGF'
p4187
sg3942
I-1
sg30
I5
sg3943
(lp4188
S'VGF2'
p4189
asbsg4189
(issf_api
Node
p4190
(dp4191
g3937
S'ccof'
p4192
sg3939
g4189
sg3940
S'CCP'
p4193
sg3942
I-1
sg30
I10
sg3943
(lp4194
S'NP5'
p4195
aS'NP7'
p4196
asbsg4195
(issf_api
Node
p4197
(dp4198
g3937
S'k7'
p4199
sg3939
g4195
sg3940
S'VGF2'
p4200
sg3942
I-1
sg30
I7
sg3943
(lp4201
S'NP4'
p4202
asbsg4181
(issf_api
Node
p4203
(dp4204
g3937
S'rsym'
p4205
sg3939
g4181
sg3940
S'VGF'
p4206
sg3942
I-1
sg30
I11
sg3943
(lp4207
sbsg4182
(issf_api
Node
p4208
(dp4209
g3937
S'k1'
p4210
sg3939
g4182
sg3940
S'VGF'
p4211
sg3942
I-1
sg30
I0
sg3943
(lp4212
sbsg4202
(issf_api
Node
p4213
(dp4214
g3937
S'r6'
p4215
sg3939
g4202
sg3940
S'NP5'
p4216
sg3942
I-1
sg30
I6
sg3943
(lp4217
sbsg4196
(issf_api
Node
p4218
(dp4219
g3937
S'k2'
p4220
sg3939
g4196
sg3940
S'VGF2'
p4221
sg3942
I-1
sg30
I9
sg3943
(lp4222
S'NP6'
p4223
asbsg4223
(issf_api
Node
p4224
(dp4225
g3937
S'r6'
p4226
sg3939
g4223
sg3940
S'NP7'
p4227
sg3942
I-1
sg30
I8
sg3943
(lp4228
sbsg4175
(issf_api
Node
p4229
(dp4230
g3937
S'k2'
p4231
sg3939
g4175
sg3940
S'VGNF'
p4232
sg3942
I-1
sg30
I2
sg3943
(lp4233
sbsg4183
(issf_api
Node
p4234
(dp4235
g3937
S'k7t'
p4236
sg3939
g4183
sg3940
S'VGF'
p4237
sg3942
I-1
sg30
I1
sg3943
(lp4238
sbssg4028
(lp4239
(issf_api
Chunk
p4240
(dp4241
g3939
g754
sg30
I0
sg4032
g761
sg31
I1
sg3930
(lp4242
I35
aI36
aI37
asg36
(issf_api
FeatureSet
p4243
(dp4244
g12
(dp4245
S'name'
p4246
g4182
sS'drel'
p4247
S'k1:VGF'
p4248
ssbsba(issf_api
Chunk
p4249
(dp4250
g3939
g792
sg30
I1
sg4032
g799
sg31
I1
sg3930
(lp4251
I38
aI39
asg36
(issf_api
FeatureSet
p4252
(dp4253
g12
(dp4254
S'name'
p4255
g4183
sS'drel'
p4256
S'k7t:VGF'
p4257
ssbsba(issf_api
Chunk
p4258
(dp4259
g3939
g847
sg30
I2
sg4032
g852
sg31
I1
sg3930
(lp4260
I40
aI41
asg36
(issf_api
FeatureSet
p4261
(dp4262
g12
(dp4263
S'name'
p4264
g4175
sS'drel'
p4265
S'k2:VGNF'
p4266
ssbsba(issf_api
Chunk
p4267
(dp4268
g3939
g866
sg30
I3
sg4032
g873
sg31
I1
sg3930
(lp4269
I42
aI43
asg36
(issf_api
FeatureSet
p4270
(dp4271
g12
(dp4272
S'name'
p4273
g4169
sS'drel'
p4274
S'vmod:VGF'
p4275
ssbsba(issf_api
Chunk
p4276
(dp4277
g3939
g904
sg30
I4
sg4032
g911
sg31
I1
sg3930
(lp4278
I44
asg36
(issf_api
FeatureSet
p4279
(dp4280
g12
(dp4281
S'name'
p4282
g4176
ssbsba(issf_api
Chunk
p4283
(dp4284
g3939
g925
sg30
I5
sg4032
g930
sg31
I1
sg3930
(lp4285
I45
asg36
(issf_api
FeatureSet
p4286
(dp4287
g12
(dp4288
S'name'
p4289
g4180
sS'drel'
p4290
S'k2:VGF'
p4291
ssbsba(issf_api
Chunk
p4292
(dp4293
g3939
g965
sg30
I6
sg4032
g976
sg31
I1
sg3930
(lp4294
I46
aI47
aI48
asg36
(issf_api
FeatureSet
p4295
(dp4296
g12
(dp4297
S'name'
p4298
g4202
sS'drel'
p4299
S'r6:NP5'
p4300
ssbsba(issf_api
Chunk
p4301
(dp4302
g3939
g1024
sg30
I7
sg4032
g1031
sg31
I1
sg3930
(lp4303
I49
aI50
aI51
aI52
asg36
(issf_api
FeatureSet
p4304
(dp4305
g12
(dp4306
S'name'
p4307
g4195
sS'drel'
p4308
S'k7:VGF2'
p4309
ssbsba(issf_api
Chunk
p4310
(dp4311
g3939
g1081
sg30
I8
sg4032
g1092
sg31
I1
sg3930
(lp4312
I53
aI54
asg36
(issf_api
FeatureSet
p4313
(dp4314
g12
(dp4315
S'name'
p4316
g4223
sS'drel'
p4317
S'r6:NP7'
p4318
ssbsba(issf_api
Chunk
p4319
(dp4320
g3939
g1123
sg30
I9
sg4032
g1128
sg31
I1
sg3930
(lp4321
I55
asg36
(issf_api
FeatureSet
p4322
(dp4323
g12
(dp4324
S'name'
p4325
g4196
sS'drel'
p4326
S'k2:VGF2'
p4327
ssbsba(issf_api
Chunk
p4328
(dp4329
g3939
g1142
sg30
I10
sg4032
g1153
sg31
I1
sg3930
(lp4330
I56
aI57
aI58
asg36
(issf_api
FeatureSet
p4331
(dp4332
g12
(dp4333
S'name'
p4334
g4189
sS'drel'
p4335
S'ccof:CCP'
p4336
ssbsba(issf_api
Chunk
p4337
(dp4338
g3939
g1201
sg30
I11
sg4032
g1206
sg31
I1
sg3930
(lp4339
I59
asg36
(issf_api
FeatureSet
p4340
(dp4341
g12
(dp4342
S'name'
p4343
g4181
sS'drel'
p4344
S'rsym:VGF'
p4345
ssbsbasba(issf_api
Sentence
p4346
(dp4347
g3928
(lp4348
sg31
I2
sg3930
(lp4349
I60
aI61
aI62
aI63
aI64
aI65
aI66
aI67
aI68
aI69
aI70
aI71
aI72
aI73
aI74
aI75
aI76
aI77
aI78
aI79
aI80
aI81
aI82
aI83
aI84
aI85
aI86
aI87
aI88
aI89
aI90
aI91
aI92
aI93
aI94
aI95
asg3932
(dp4350
S'VGF2'
p4351
(issf_api
Node
p4352
(dp4353
g3937
S'ccof'
p4354
sg3939
g4351
sg3940
S'CCP'
p4355
sg3942
I-1
sg30
I16
sg3943
(lp4356
S'NP10'
p4357
aS'VGNN'
p4358
aS'JJP3'
p4359
aS'NP9'
p4360
aS'NP4'
p4361
aS'NP7'
p4362
asbsg4357
(issf_api
Node
p4363
(dp4364
g3937
S'k2'
p4365
sg3939
g4357
sg3940
S'VGF2'
p4366
sg3942
I-1
sg30
I14
sg3943
(lp4367
sbsg4358
(issf_api
Node
p4368
(dp4369
g3937
S'k7t'
p4370
sg3939
g4358
sg3940
S'VGF2'
p4371
sg3942
I-1
sg30
I10
sg3943
(lp4372
S'NP5'
p4373
aS'JJP2'
p4374
aS'NP6'
p4375
asbsS'VGF'
p4376
(issf_api
Node
p4377
(dp4378
g3937
g3949
sg3939
g4376
sg3940
g3949
sg3942
I-1
sg30
I1
sg3943
(lp4379
S'JJP'
p4380
aS'BLK'
p4381
asbsS'CCP'
p4382
(issf_api
Node
p4383
(dp4384
g3937
S'rs'
p4385
sg3939
g4382
sg3940
S'NULL__NP'
p4386
sg3942
I-1
sg30
I2
sg3943
(lp4387
g4351
asbsg4380
(issf_api
Node
p4388
(dp4389
g3937
S'k1'
p4390
sg3939
g4380
sg3940
S'VGF'
p4391
sg3942
I-1
sg30
I0
sg3943
(lp4392
sbsg4373
(issf_api
Node
p4393
(dp4394
g3937
S'k7'
p4395
sg3939
g4373
sg3940
S'VGNN'
p4396
sg3942
I-1
sg30
I7
sg3943
(lp4397
sbsg4374
(issf_api
Node
p4398
(dp4399
g3937
S'pof'
p4400
sg3939
g4374
sg3940
S'VGNN'
p4401
sg3942
I-1
sg30
I9
sg3943
(lp4402
sbsg4359
(issf_api
Node
p4403
(dp4404
g3937
S'pof'
p4405
sg3939
g4359
sg3940
S'VGF2'
p4406
sg3942
I-1
sg30
I15
sg3943
(lp4407
sbsg4360
(issf_api
Node
p4408
(dp4409
g3937
S'k7'
p4410
sg3939
g4360
sg3940
S'VGF2'
p4411
sg3942
I-1
sg30
I13
sg3943
(lp4412
S'NP8'
p4413
asbsg4413
(issf_api
Node
p4414
(dp4415
g3937
S'r6'
p4416
sg3939
g4413
sg3940
S'NP9'
p4417
sg3942
I-1
sg30
I12
sg3943
(lp4418
sbsg4381
(issf_api
Node
p4419
(dp4420
g3937
S'rsym'
p4421
sg3939
g4381
sg3940
S'VGF'
p4422
sg3942
I-1
sg30
I17
sg3943
(lp4423
sbsS'NULL__NP'
p4424
(issf_api
Node
p4425
(dp4426
g3937
g3949
sg3939
g4424
sg3940
g3949
sg3942
I-1
sg30
I-1
sg3943
(lp4427
g4382
asbsS'NP'
p4428
(issf_api
Node
p4429
(dp4430
g3937
S'r6'
p4431
sg3939
g4428
sg3940
S'NP2'
p4432
sg3942
I-1
sg30
I3
sg3943
(lp4433
sbsg4361
(issf_api
Node
p4434
(dp4435
g3937
S'rt'
p4436
sg3939
g4361
sg3940
S'VGF2'
p4437
sg3942
I-1
sg30
I6
sg3943
(lp4438
S'NP3'
p4439
asbsg4362
(issf_api
Node
p4440
(dp4441
g3937
S'k7t'
p4442
sg3939
g4362
sg3940
S'VGF2'
p4443
sg3942
I-1
sg30
I11
sg3943
(lp4444
sbsg4375
(issf_api
Node
p4445
(dp4446
g3937
S'k2'
p4447
sg3939
g4375
sg3940
S'VGNN'
p4448
sg3942
I-1
sg30
I8
sg3943
(lp4449
sbsg4439
(issf_api
Node
p4450
(dp4451
g3937
S'r6'
p4452
sg3939
g4439
sg3940
S'NP4'
p4453
sg3942
I-1
sg30
I5
sg3943
(lp4454
S'NP2'
p4455
asbsg4455
(issf_api
Node
p4456
(dp4457
g3937
S'r6'
p4458
sg3939
g4455
sg3940
S'NP3'
p4459
sg3942
I-1
sg30
I4
sg3943
(lp4460
g4428
asbssg4028
(lp4461
(issf_api
Chunk
p4462
(dp4463
g3939
g1220
sg30
I0
sg4032
g1225
sg31
I2
sg3930
(lp4464
I60
asg36
(issf_api
FeatureSet
p4465
(dp4466
g12
(dp4467
S'name'
p4468
g4380
sS'drel'
p4469
S'k1:VGF'
p4470
ssbsba(issf_api
Chunk
p4471
(dp4472
g3939
g1239
sg30
I1
sg4032
g1246
sg31
I2
sg3930
(lp4473
I61
asg36
(issf_api
FeatureSet
p4474
(dp4475
g12
(dp4476
S'name'
p4477
g4376
ssbsba(issf_api
Chunk
p4478
(dp4479
g3939
g1260
sg30
I2
sg4032
g1265
sg31
I2
sg3930
(lp4480
I62
asg36
(issf_api
FeatureSet
p4481
(dp4482
g12
(dp4483
S'name'
p4484
g4382
sS'drel'
p4485
S'rs:NULL__NP'
p4486
ssbsba(issf_api
Chunk
p4487
(dp4488
g3939
g1304
sg30
I3
sg4032
g1317
sg31
I2
sg3930
(lp4489
I63
aI64
aI65
asg36
(issf_api
FeatureSet
p4490
(dp4491
g12
(dp4492
S'name'
p4493
g4428
sS'drel'
p4494
S'r6:NP2'
p4495
ssbsba(issf_api
Chunk
p4496
(dp4497
g3939
g1350
sg30
I4
sg4032
g1363
sg31
I2
sg3930
(lp4498
I66
aI67
asg36
(issf_api
FeatureSet
p4499
(dp4500
g12
(dp4501
S'name'
p4502
g4455
sS'drel'
p4503
S'r6:NP3'
p4504
ssbsba(issf_api
Chunk
p4505
(dp4506
g3939
g1394
sg30
I5
sg4032
g1401
sg31
I2
sg3930
(lp4507
I68
aI69
asg36
(issf_api
FeatureSet
p4508
(dp4509
g12
(dp4510
S'name'
p4511
g4439
sS'drel'
p4512
S'r6:NP4'
p4513
ssbsba(issf_api
Chunk
p4514
(dp4515
g3939
g1432
sg30
I6
sg4032
g1439
sg31
I2
sg3930
(lp4516
I70
aI71
aI72
asg36
(issf_api
FeatureSet
p4517
(dp4518
g12
(dp4519
S'name'
p4520
g4361
sS'drel'
p4521
S'rt:VGF2'
p4522
ssbsba(issf_api
Chunk
p4523
(dp4524
g3939
g1538
sg30
I7
sg4032
g1545
sg31
I2
sg3930
(lp4525
I73
aI74
aI75
aI76
aI77
asg36
(issf_api
FeatureSet
p4526
(dp4527
g12
(dp4528
S'name'
p4529
g4373
sS'drel'
p4530
S'k7:VGNN'
p4531
ssbsba(issf_api
Chunk
p4532
(dp4533
g3939
g1576
sg30
I8
sg4032
g1581
sg31
I2
sg3930
(lp4534
I78
asg36
(issf_api
FeatureSet
p4535
(dp4536
g12
(dp4537
S'name'
p4538
g4375
sS'drel'
p4539
S'k2:VGNN'
p4540
ssbsba(issf_api
Chunk
p4541
(dp4542
g3939
g1595
sg30
I9
sg4032
g1600
sg31
I2
sg3930
(lp4543
I79
asg36
(issf_api
FeatureSet
p4544
(dp4545
g12
(dp4546
S'name'
p4547
g4374
sS'drel'
p4548
S'pof:VGNN'
p4549
ssbsba(issf_api
Chunk
p4550
(dp4551
g3939
g1614
sg30
I10
sg4032
g1621
sg31
I2
sg3930
(lp4552
I80
aI81
aI82
asg36
(issf_api
FeatureSet
p4553
(dp4554
g12
(dp4555
S'name'
p4556
g4358
sS'drel'
p4557
S'k7t:VGF2'
p4558
ssbsba(issf_api
Chunk
p4559
(dp4560
g3939
g1686
sg30
I11
sg4032
g1691
sg31
I2
sg3930
(lp4561
I83
aI84
asg36
(issf_api
FeatureSet
p4562
(dp4563
g12
(dp4564
S'name'
p4565
g4362
sS'drel'
p4566
S'k7t:VGF2'
p4567
ssbsba(issf_api
Chunk
p4568
(dp4569
g3939
g1726
sg30
I12
sg4032
g1737
sg31
I2
sg3930
(lp4570
I85
aI86
aI87
asg36
(issf_api
FeatureSet
p4571
(dp4572
g12
(dp4573
S'name'
p4574
g4413
sS'drel'
p4575
S'r6:NP9'
p4576
ssbsba(issf_api
Chunk
p4577
(dp4578
g3939
g1768
sg30
I13
sg4032
g1775
sg31
I2
sg3930
(lp4579
I88
aI89
asg36
(issf_api
FeatureSet
p4580
(dp4581
g12
(dp4582
S'name'
p4583
g4360
sS'drel'
p4584
S'k7:VGF2'
p4585
ssbsba(issf_api
Chunk
p4586
(dp4587
g3939
g1808
sg30
I14
sg4032
g1817
sg31
I2
sg3930
(lp4588
I90
asg36
(issf_api
FeatureSet
p4589
(dp4590
g12
(dp4591
S'name'
p4592
g4357
sS'drel'
p4593
S'k2:VGF2'
p4594
ssbsba(issf_api
Chunk
p4595
(dp4596
g3939
g1831
sg30
I15
sg4032
g1836
sg31
I2
sg3930
(lp4597
I91
asg36
(issf_api
FeatureSet
p4598
(dp4599
g12
(dp4600
S'name'
p4601
g4359
sS'drel'
p4602
S'pof:VGF2'
p4603
ssbsba(issf_api
Chunk
p4604
(dp4605
g3939
g1850
sg30
I16
sg4032
g1861
sg31
I2
sg3930
(lp4606
I92
aI93
aI94
asg36
(issf_api
FeatureSet
p4607
(dp4608
g12
(dp4609
S'name'
p4610
g4351
sS'drel'
p4611
S'ccof:CCP'
p4612
ssbsba(issf_api
Chunk
p4613
(dp4614
g3939
g1909
sg30
I17
sg4032
g1914
sg31
I2
sg3930
(lp4615
I95
asg36
(issf_api
FeatureSet
p4616
(dp4617
g12
(dp4618
S'name'
p4619
g4381
sS'drel'
p4620
S'rsym:VGF'
p4621
ssbsbasba(issf_api
Sentence
p4622
(dp4623
g3928
(lp4624
sg31
I3
sg3930
(lp4625
I96
aI97
aI98
aI99
aI100
aI101
aI102
aI103
aI104
aI105
aI106
aI107
aI108
aI109
aI110
aI111
aI112
aI113
aI114
aI115
aI116
aI117
aI118
aI119
aI120
asg3932
(dp4626
S'VGF'
p4627
(issf_api
Node
p4628
(dp4629
g3937
g3949
sg3939
g4627
sg3940
g3949
sg3942
I-1
sg30
I12
sg3943
(lp4630
S'JJP'
p4631
aS'BLK'
p4632
aS'CCP2'
p4633
aS'NP2'
p4634
asbsS'CCP'
p4635
(issf_api
Node
p4636
(dp4637
g3937
S'nmod'
p4638
sg3939
g4635
sg3940
S'NP6'
p4639
sg3942
I-1
sg30
I4
sg3943
(lp4640
S'NP5'
p4641
aS'NP4'
p4642
aS'NP3'
p4643
asbsg4631
(issf_api
Node
p4644
(dp4645
g3937
S'k1s'
p4646
sg3939
g4631
sg3940
S'VGF'
p4647
sg3942
I-1
sg30
I11
sg3943
(lp4648
sbsg4641
(issf_api
Node
p4649
(dp4650
g3937
S'ccof'
p4651
sg3939
g4641
sg3940
S'CCP'
p4652
sg3942
I-1
sg30
I5
sg3943
(lp4653
sbsS'NP9'
p4654
(issf_api
Node
p4655
(dp4656
g3937
S'ccof'
p4657
sg3939
g4654
sg3940
S'CCP2'
p4658
sg3942
I-1
sg30
I10
sg3943
(lp4659
S'NP8'
p4660
asbsg4660
(issf_api
Node
p4661
(dp4662
g3937
S'r6'
p4663
sg3939
g4660
sg3940
S'NP9'
p4664
sg3942
I-1
sg30
I9
sg3943
(lp4665
sbsg4632
(issf_api
Node
p4666
(dp4667
g3937
S'rsym'
p4668
sg3939
g4632
sg3940
S'VGF'
p4669
sg3942
I-1
sg30
I13
sg3943
(lp4670
sbsS'NP'
p4671
(issf_api
Node
p4672
(dp4673
g3937
S'r6'
p4674
sg3939
g4671
sg3940
S'NP2'
p4675
sg3942
I-1
sg30
I0
sg3943
(lp4676
sbsg4642
(issf_api
Node
p4677
(dp4678
g3937
S'ccof'
p4679
sg3939
g4642
sg3940
S'CCP'
p4680
sg3942
I-1
sg30
I3
sg3943
(lp4681
sbsS'NP7'
p4682
(issf_api
Node
p4683
(dp4684
g3937
S'ccof'
p4685
sg3939
g4682
sg3940
S'CCP2'
p4686
sg3942
I-1
sg30
I7
sg3943
(lp4687
S'NP6'
p4688
asbsg4688
(issf_api
Node
p4689
(dp4690
g3937
S'r6'
p4691
sg3939
g4688
sg3940
S'NP7'
p4692
sg3942
I-1
sg30
I6
sg3943
(lp4693
g4635
asbsg4633
(issf_api
Node
p4694
(dp4695
g3937
S'k1'
p4696
sg3939
g4633
sg3940
S'VGF'
p4697
sg3942
I-1
sg30
I8
sg3943
(lp4698
g4654
ag4682
asbsg4643
(issf_api
Node
p4699
(dp4700
g3937
S'ccof'
p4701
sg3939
g4643
sg3940
S'CCP'
p4702
sg3942
I-1
sg30
I2
sg3943
(lp4703
sbsg4634
(issf_api
Node
p4704
(dp4705
g3937
S'k7'
p4706
sg3939
g4634
sg3940
S'VGF'
p4707
sg3942
I-1
sg30
I1
sg3943
(lp4708
g4671
asbssg4028
(lp4709
(issf_api
Chunk
p4710
(dp4711
g3939
g1949
sg30
I0
sg4032
g1960
sg31
I3
sg3930
(lp4712
I96
aI97
aI98
asg36
(issf_api
FeatureSet
p4713
(dp4714
g12
(dp4715
S'name'
p4716
g4671
sS'drel'
p4717
S'r6:NP2'
p4718
ssbsba(issf_api
Chunk
p4719
(dp4720
g3939
g2008
sg30
I1
sg4032
g2015
sg31
I3
sg3930
(lp4721
I99
aI100
aI101
asg36
(issf_api
FeatureSet
p4722
(dp4723
g12
(dp4724
S'name'
p4725
g4634
sS'drel'
p4726
S'k7:VGF'
p4727
ssbsba(issf_api
Chunk
p4728
(dp4729
g3939
g2063
sg30
I2
sg4032
g2068
sg31
I3
sg3930
(lp4730
I102
aI103
aI104
asg36
(issf_api
FeatureSet
p4731
(dp4732
g12
(dp4733
S'name'
p4734
g4643
sS'drel'
p4735
S'ccof:CCP'
p4736
ssbsba(issf_api
Chunk
p4737
(dp4738
g3939
g2116
sg30
I3
sg4032
g2121
sg31
I3
sg3930
(lp4739
I105
aI106
asg36
(issf_api
FeatureSet
p4740
(dp4741
g12
(dp4742
S'name'
p4743
g4642
sS'drel'
p4744
S'ccof:CCP'
p4745
ssbsba(issf_api
Chunk
p4746
(dp4747
g3939
g2135
sg30
I4
sg4032
g2140
sg31
I3
sg3930
(lp4748
I107
asg36
(issf_api
FeatureSet
p4749
(dp4750
g12
(dp4751
S'name'
p4752
g4635
sS'drel'
p4753
S'nmod:NP6'
p4754
ssbsba(issf_api
Chunk
p4755
(dp4756
g3939
g2154
sg30
I5
sg4032
g2159
sg31
I3
sg3930
(lp4757
I108
asg36
(issf_api
FeatureSet
p4758
(dp4759
g12
(dp4760
S'name'
p4761
g4641
sS'drel'
p4762
S'ccof:CCP'
p4763
ssbsba(issf_api
Chunk
p4764
(dp4765
g3939
g2173
sg30
I6
sg4032
g2180
sg31
I3
sg3930
(lp4766
I109
aI110
asg36
(issf_api
FeatureSet
p4767
(dp4768
g12
(dp4769
S'name'
p4770
g4688
sS'drel'
p4771
S'r6:NP7'
p4772
ssbsba(issf_api
Chunk
p4773
(dp4774
g3939
g2211
sg30
I7
sg4032
g2216
sg31
I3
sg3930
(lp4775
I111
asg36
(issf_api
FeatureSet
p4776
(dp4777
g12
(dp4778
S'name'
p4779
g4682
sS'drel'
p4780
S'ccof:CCP2'
p4781
ssbsba(issf_api
Chunk
p4782
(dp4783
g3939
g2230
sg30
I8
sg4032
g2235
sg31
I3
sg3930
(lp4784
I112
asg36
(issf_api
FeatureSet
p4785
(dp4786
g12
(dp4787
S'name'
p4788
g4633
sS'drel'
p4789
S'k1:VGF'
p4790
ssbsba(issf_api
Chunk
p4791
(dp4792
g3939
g2266
sg30
I9
sg4032
g2273
sg31
I3
sg3930
(lp4793
I113
aI114
aI115
asg36
(issf_api
FeatureSet
p4794
(dp4795
g12
(dp4796
S'name'
p4797
g4660
sS'drel'
p4798
S'r6:NP9'
p4799
ssbsba(issf_api
Chunk
p4800
(dp4801
g3939
g2321
sg30
I10
sg4032
g2326
sg31
I3
sg3930
(lp4802
I116
aI117
asg36
(issf_api
FeatureSet
p4803
(dp4804
g12
(dp4805
S'name'
p4806
g4654
sS'drel'
p4807
S'ccof:CCP2'
p4808
ssbsba(issf_api
Chunk
p4809
(dp4810
g3939
g2340
sg30
I11
sg4032
g2345
sg31
I3
sg3930
(lp4811
I118
asg36
(issf_api
FeatureSet
p4812
(dp4813
g12
(dp4814
S'name'
p4815
g4631
sS'drel'
p4816
S'k1s:VGF'
p4817
ssbsba(issf_api
Chunk
p4818
(dp4819
g3939
g2359
sg30
I12
sg4032
g2366
sg31
I3
sg3930
(lp4820
I119
asg36
(issf_api
FeatureSet
p4821
(dp4822
g12
(dp4823
S'name'
p4824
g4627
ssbsba(issf_api
Chunk
p4825
(dp4826
g3939
g2380
sg30
I13
sg4032
g2385
sg31
I3
sg3930
(lp4827
I120
asg36
(issf_api
FeatureSet
p4828
(dp4829
g12
(dp4830
S'name'
p4831
g4632
sS'drel'
p4832
S'rsym:VGF'
p4833
ssbsbasba(issf_api
Sentence
p4834
(dp4835
g3928
(lp4836
sg31
I4
sg3930
(lp4837
I121
aI122
aI123
aI124
aI125
aI126
aI127
aI128
aI129
aI130
aI131
aI132
aI133
aI134
aI135
aI136
aI137
aI138
aI139
aI140
aI141
aI142
aI143
aI144
aI145
aI146
aI147
aI148
aI149
aI150
aI151
aI152
aI153
aI154
aI155
asg3932
(dp4838
S'NP11'
p4839
(issf_api
Node
p4840
(dp4841
g3937
S'k2'
p4842
sg3939
g4839
sg3940
S'VGNN2'
p4843
sg3942
I-1
sg30
I12
sg3943
(lp4844
S'NP10'
p4845
asbsS'VGNN'
p4846
(issf_api
Node
p4847
(dp4848
g3937
S'k7'
p4849
sg3939
g4846
sg3940
S'VGNN2'
p4850
sg3942
I-1
sg30
I10
sg3943
(lp4851
S'NP9'
p4852
asbsS'VGF'
p4853
(issf_api
Node
p4854
(dp4855
g3937
g3949
sg3939
g4853
sg3940
g3949
sg3942
I-1
sg30
I15
sg3943
(lp4856
S'NP12'
p4857
aS'CCP'
p4858
aS'NP5'
p4859
aS'BLK'
p4860
aS'NP'
p4861
aS'NP7'
p4862
aS'NP3'
p4863
asbsg4857
(issf_api
Node
p4864
(dp4865
g3937
S'k2'
p4866
sg3939
g4857
sg3940
S'VGF'
p4867
sg3942
I-1
sg30
I14
sg3943
(lp4868
sbsg4858
(issf_api
Node
p4869
(dp4870
g3937
S'k7'
p4871
sg3939
g4858
sg3940
S'VGF'
p4872
sg3942
I-1
sg30
I8
sg3943
(lp4873
S'VGNN2'
p4874
aS'NP8'
p4875
asbsg4874
(issf_api
Node
p4876
(dp4877
g3937
S'ccof'
p4878
sg3939
g4874
sg3940
S'CCP'
p4879
sg3942
I-1
sg30
I13
sg3943
(lp4880
g4839
ag4846
asbsg4859
(issf_api
Node
p4881
(dp4882
g3937
S'k4'
p4883
sg3939
g4859
sg3940
S'VGF'
p4884
sg3942
I-1
sg30
I4
sg3943
(lp4885
S'NP4'
p4886
asbsg4852
(issf_api
Node
p4887
(dp4888
g3937
S'k2'
p4889
sg3939
g4852
sg3940
S'VGNN'
p4890
sg3942
I-1
sg30
I9
sg3943
(lp4891
sbsg4875
(issf_api
Node
p4892
(dp4893
g3937
S'ccof'
p4894
sg3939
g4875
sg3940
S'CCP'
p4895
sg3942
I-1
sg30
I7
sg3943
(lp4896
sbsg4860
(issf_api
Node
p4897
(dp4898
g3937
S'rsym'
p4899
sg3939
g4860
sg3940
S'VGF'
p4900
sg3942
I-1
sg30
I16
sg3943
(lp4901
sbsg4845
(issf_api
Node
p4902
(dp4903
g3937
S'r6'
p4904
sg3939
g4845
sg3940
S'NP11'
p4905
sg3942
I-1
sg30
I11
sg3943
(lp4906
sbsg4861
(issf_api
Node
p4907
(dp4908
g3937
S'k1'
p4909
sg3939
g4861
sg3940
S'VGF'
p4910
sg3942
I-1
sg30
I0
sg3943
(lp4911
sbsg4886
(issf_api
Node
p4912
(dp4913
g3937
S'r6'
p4914
sg3939
g4886
sg3940
S'NP5'
p4915
sg3942
I-1
sg30
I3
sg3943
(lp4916
sbsg4862
(issf_api
Node
p4917
(dp4918
g3937
S'rt'
p4919
sg3939
g4862
sg3940
S'VGF'
p4920
sg3942
I-1
sg30
I6
sg3943
(lp4921
S'NP6'
p4922
asbsg4922
(issf_api
Node
p4923
(dp4924
g3937
S'r6'
p4925
sg3939
g4922
sg3940
S'NP7'
p4926
sg3942
I-1
sg30
I5
sg3943
(lp4927
sbsg4863
(issf_api
Node
p4928
(dp4929
g3937
S'k7'
p4930
sg3939
g4863
sg3940
S'VGF'
p4931
sg3942
I-1
sg30
I2
sg3943
(lp4932
S'NP2'
p4933
asbsg4933
(issf_api
Node
p4934
(dp4935
g3937
S'r6'
p4936
sg3939
g4933
sg3940
S'NP3'
p4937
sg3942
I-1
sg30
I1
sg3943
(lp4938
sbssg4028
(lp4939
(issf_api
Chunk
p4940
(dp4941
g3939
g2420
sg30
I0
sg4032
g2429
sg31
I4
sg3930
(lp4942
I121
aI122
asg36
(issf_api
FeatureSet
p4943
(dp4944
g12
(dp4945
S'name'
p4946
g4861
sS'drel'
p4947
S'k1:VGF'
p4948
ssbsba(issf_api
Chunk
p4949
(dp4950
g3939
g2502
sg30
I1
sg4032
g2513
sg31
I4
sg3930
(lp4951
I123
aI124
aI125
aI126
aI127
asg36
(issf_api
FeatureSet
p4952
(dp4953
g12
(dp4954
S'name'
p4955
g4933
sS'drel'
p4956
S'r6:NP3'
p4957
ssbsba(issf_api
Chunk
p4958
(dp4959
g3939
g2544
sg30
I2
sg4032
g2551
sg31
I4
sg3930
(lp4960
I128
aI129
asg36
(issf_api
FeatureSet
p4961
(dp4962
g12
(dp4963
S'name'
p4964
g4863
sS'drel'
p4965
S'k7:VGF'
p4966
ssbsba(issf_api
Chunk
p4967
(dp4968
g3939
g2582
sg30
I3
sg4032
g2589
sg31
I4
sg3930
(lp4969
I130
aI131
asg36
(issf_api
FeatureSet
p4970
(dp4971
g12
(dp4972
S'name'
p4973
g4886
sS'drel'
p4974
S'r6:NP5'
p4975
ssbsba(issf_api
Chunk
p4976
(dp4977
g3939
g2620
sg30
I4
sg4032
g2627
sg31
I4
sg3930
(lp4978
I132
aI133
asg36
(issf_api
FeatureSet
p4979
(dp4980
g12
(dp4981
S'name'
p4982
g4859
sS'drel'
p4983
S'k4:VGF'
p4984
ssbsba(issf_api
Chunk
p4985
(dp4986
g3939
g2658
sg30
I5
sg4032
g2665
sg31
I4
sg3930
(lp4987
I134
aI135
asg36
(issf_api
FeatureSet
p4988
(dp4989
g12
(dp4990
S'name'
p4991
g4922
sS'drel'
p4992
S'r6:NP7'
p4993
ssbsba(issf_api
Chunk
p4994
(dp4995
g3939
g2713
sg30
I6
sg4032
g2720
sg31
I4
sg3930
(lp4996
I136
aI137
aI138
aI139
asg36
(issf_api
FeatureSet
p4997
(dp4998
g12
(dp4999
S'name'
p5000
g4862
sS'drel'
p5001
S'rt:VGF'
p5002
ssbsba(issf_api
Chunk
p5003
(dp5004
g3939
g2785
sg30
I7
sg4032
g2792
sg31
I4
sg3930
(lp5005
I140
aI141
aI142
aI143
aI144
asg36
(issf_api
FeatureSet
p5006
(dp5007
g12
(dp5008
S'name'
p5009
g4875
sS'drel'
p5010
S'ccof:CCP'
p5011
ssbsba(issf_api
Chunk
p5012
(dp5013
g3939
g2857
sg30
I8
sg4032
g2862
sg31
I4
sg3930
(lp5014
I145
asg36
(issf_api
FeatureSet
p5015
(dp5016
g12
(dp5017
S'name'
p5018
g4858
sS'drel'
p5019
S'k7:VGF'
p5020
ssbsba(issf_api
Chunk
p5021
(dp5022
g3939
g2876
sg30
I9
sg4032
g2881
sg31
I4
sg3930
(lp5023
I146
asg36
(issf_api
FeatureSet
p5024
(dp5025
g12
(dp5026
S'name'
p5027
g4852
sS'drel'
p5028
S'k2:VGNN'
p5029
ssbsba(issf_api
Chunk
p5030
(dp5031
g3939
g2895
sg30
I10
sg4032
g2902
sg31
I4
sg3930
(lp5032
I147
aI148
asg36
(issf_api
FeatureSet
p5033
(dp5034
g12
(dp5035
S'name'
p5036
g4846
sS'drel'
p5037
S'k7:VGNN2'
p5038
ssbsba(issf_api
Chunk
p5039
(dp5040
g3939
g2935
sg30
I11
sg4032
g2946
sg31
I4
sg3930
(lp5041
I149
asg36
(issf_api
FeatureSet
p5042
(dp5043
g12
(dp5044
S'name'
p5045
g4845
sS'drel'
p5046
S'r6:NP11'
p5047
ssbsba(issf_api
Chunk
p5048
(dp5049
g3939
g2960
sg30
I12
sg4032
g2965
sg31
I4
sg3930
(lp5050
I150
asg36
(issf_api
FeatureSet
p5051
(dp5052
g12
(dp5053
S'name'
p5054
g4839
sS'drel'
p5055
S'k2:VGNN2'
p5056
ssbsba(issf_api
Chunk
p5057
(dp5058
g3939
g2979
sg30
I13
sg4032
g2986
sg31
I4
sg3930
(lp5059
I151
aI152
asg36
(issf_api
FeatureSet
p5060
(dp5061
g12
(dp5062
S'name'
p5063
g4874
sS'drel'
p5064
S'ccof:CCP'
p5065
ssbsba(issf_api
Chunk
p5066
(dp5067
g3939
g3017
sg30
I14
sg4032
g3022
sg31
I4
sg3930
(lp5068
I153
asg36
(issf_api
FeatureSet
p5069
(dp5070
g12
(dp5071
S'name'
p5072
g4857
sS'drel'
p5073
S'k2:VGF'
p5074
ssbsba(issf_api
Chunk
p5075
(dp5076
g3939
g3036
sg30
I15
sg4032
g3043
sg31
I4
sg3930
(lp5077
I154
asg36
(issf_api
FeatureSet
p5078
(dp5079
g12
(dp5080
S'name'
p5081
g4853
ssbsba(issf_api
Chunk
p5082
(dp5083
g3939
g3057
sg30
I16
sg4032
g3062
sg31
I4
sg3930
(lp5084
I155
asg36
(issf_api
FeatureSet
p5085
(dp5086
g12
(dp5087
S'name'
p5088
g4860
sS'drel'
p5089
S'rsym:VGF'
p5090
ssbsbasba(issf_api
Sentence
p5091
(dp5092
g3928
(lp5093
sg31
I5
sg3930
(lp5094
I156
aI157
aI158
aI159
aI160
aI161
aI162
aI163
aI164
aI165
aI166
aI167
aI168
aI169
aI170
aI171
aI172
aI173
aI174
aI175
aI176
aI177
asg3932
(dp5095
S'VGF'
p5096
(issf_api
Node
p5097
(dp5098
g3937
g3949
sg3939
g5096
sg3940
g3949
sg3942
I-1
sg30
I9
sg3943
(lp5099
S'NP8'
p5100
aS'BLK'
p5101
aS'NP7'
p5102
aS'NP6'
p5103
aS'NP3'
p5104
aS'NP2'
p5105
asbsS'CCP'
p5106
(issf_api
Node
p5107
(dp5108
g3937
S'r6'
p5109
sg3939
g5106
sg3940
S'NP6'
p5110
sg3942
I-1
sg30
I4
sg3943
(lp5111
S'NP5'
p5112
aS'NP4'
p5113
asbsg5112
(issf_api
Node
p5114
(dp5115
g3937
S'ccof'
p5116
sg3939
g5112
sg3940
S'CCP'
p5117
sg3942
I-1
sg30
I5
sg3943
(lp5118
sbsg5100
(issf_api
Node
p5119
(dp5120
g3937
S'k1'
p5121
sg3939
g5100
sg3940
S'VGF'
p5122
sg3942
I-1
sg30
I8
sg3943
(lp5123
sbsg5101
(issf_api
Node
p5124
(dp5125
g3937
S'rsym'
p5126
sg3939
g5101
sg3940
S'VGF'
p5127
sg3942
I-1
sg30
I10
sg3943
(lp5128
sbsS'NP'
p5129
(issf_api
Node
p5130
(dp5131
g3937
S'r6'
p5132
sg3939
g5129
sg3940
S'NP2'
p5133
sg3942
I-1
sg30
I0
sg3943
(lp5134
sbsg5113
(issf_api
Node
p5135
(dp5136
g3937
S'ccof'
p5137
sg3939
g5113
sg3940
S'CCP'
p5138
sg3942
I-1
sg30
I3
sg3943
(lp5139
sbsg5102
(issf_api
Node
p5140
(dp5141
g3937
S'vmod'
p5142
sg3939
g5102
sg3940
S'VGF'
p5143
sg3942
I-1
sg30
I7
sg3943
(lp5144
sbsg5103
(issf_api
Node
p5145
(dp5146
g3937
S'k7'
p5147
sg3939
g5103
sg3940
S'VGF'
p5148
sg3942
I-1
sg30
I6
sg3943
(lp5149
g5106
asbsg5104
(issf_api
Node
p5150
(dp5151
g3937
S'k7t'
p5152
sg3939
g5104
sg3940
S'VGF'
p5153
sg3942
I-1
sg30
I2
sg3943
(lp5154
sbsg5105
(issf_api
Node
p5155
(dp5156
g3937
S'rt'
p5157
sg3939
g5105
sg3940
S'VGF'
p5158
sg3942
I-1
sg30
I1
sg3943
(lp5159
g5129
asbssg4028
(lp5160
(issf_api
Chunk
p5161
(dp5162
g3939
g3122
sg30
I0
sg4032
g3135
sg31
I5
sg3930
(lp5163
I156
aI157
aI158
aI159
asg36
(issf_api
FeatureSet
p5164
(dp5165
g12
(dp5166
S'name'
p5167
g5129
sS'drel'
p5168
S'r6:NP2'
p5169
ssbsba(issf_api
Chunk
p5170
(dp5171
g3939
g3168
sg30
I1
sg4032
g3181
sg31
I5
sg3930
(lp5172
I160
aI161
aI162
asg36
(issf_api
FeatureSet
p5173
(dp5174
g12
(dp5175
S'name'
p5176
g5105
sS'drel'
p5177
S'rt:VGF'
p5178
ssbsba(issf_api
Chunk
p5179
(dp5180
g3939
g3246
sg30
I2
sg4032
g3251
sg31
I5
sg3930
(lp5181
I163
aI164
asg36
(issf_api
FeatureSet
p5182
(dp5183
g12
(dp5184
S'name'
p5185
g5104
sS'drel'
p5186
S'k7t:VGF'
p5187
ssbsba(issf_api
Chunk
p5188
(dp5189
g3939
g3265
sg30
I3
sg4032
g3270
sg31
I5
sg3930
(lp5190
I165
asg36
(issf_api
FeatureSet
p5191
(dp5192
g12
(dp5193
S'name'
p5194
g5113
sS'drel'
p5195
S'ccof:CCP'
p5196
ssbsba(issf_api
Chunk
p5197
(dp5198
g3939
g3284
sg30
I4
sg4032
g3289
sg31
I5
sg3930
(lp5199
I166
asg36
(issf_api
FeatureSet
p5200
(dp5201
g12
(dp5202
S'name'
p5203
g5106
sS'drel'
p5204
S'r6:NP6'
p5205
ssbsba(issf_api
Chunk
p5206
(dp5207
g3939
g3303
sg30
I5
sg4032
g3310
sg31
I5
sg3930
(lp5208
I167
aI168
asg36
(issf_api
FeatureSet
p5209
(dp5210
g12
(dp5211
S'name'
p5212
g5112
sS'drel'
p5213
S'ccof:CCP'
p5214
ssbsba(issf_api
Chunk
p5215
(dp5216
g3939
g3341
sg30
I6
sg4032
g3348
sg31
I5
sg3930
(lp5217
I169
aI170
asg36
(issf_api
FeatureSet
p5218
(dp5219
g12
(dp5220
S'name'
p5221
g5103
sS'drel'
p5222
S'k7:VGF'
p5223
ssbsba(issf_api
Chunk
p5224
(dp5225
g3939
g3396
sg30
I7
sg4032
g3403
sg31
I5
sg3930
(lp5226
I171
aI172
aI173
asg36
(issf_api
FeatureSet
p5227
(dp5228
g12
(dp5229
S'name'
p5230
g5102
sS'drel'
p5231
S'vmod:VGF'
p5232
ssbsba(issf_api
Chunk
p5233
(dp5234
g3939
g3455
sg30
I8
sg4032
g3464
sg31
I5
sg3930
(lp5235
I174
aI175
asg36
(issf_api
FeatureSet
p5236
(dp5237
g12
(dp5238
S'name'
p5239
g5100
sS'drel'
p5240
S'k1:VGF'
p5241
ssbsba(issf_api
Chunk
p5242
(dp5243
g3939
g3478
sg30
I9
sg4032
g3485
sg31
I5
sg3930
(lp5244
I176
asg36
(issf_api
FeatureSet
p5245
(dp5246
g12
(dp5247
S'name'
p5248
g5096
ssbsba(issf_api
Chunk
p5249
(dp5250
g3939
g3499
sg30
I10
sg4032
g3504
sg31
I5
sg3930
(lp5251
I177
asg36
(issf_api
FeatureSet
p5252
(dp5253
g12
(dp5254
S'name'
p5255
g5101
sS'drel'
p5256
S'rsym:VGF'
p5257
ssbsbasba(issf_api
Sentence
p5258
(dp5259
g3928
(lp5260
sg31
I6
sg3930
(lp5261
I178
aI179
aI180
aI181
aI182
aI183
aI184
aI185
aI186
aI187
aI188
aI189
aI190
aI191
aI192
aI193
aI194
aI195
aI196
aI197
aI198
asg3932
(dp5262
S'VGNF'
p5263
(issf_api
Node
p5264
(dp5265
g3937
S'vmod'
p5266
sg3939
g5263
sg3940
S'VGF'
p5267
sg3942
I-1
sg30
I5
sg3943
(lp5268
S'JJP'
p5269
aS'NP4'
p5270
asbsS'VGF'
p5271
(issf_api
Node
p5272
(dp5273
g3937
g3949
sg3939
g5271
sg3940
g3949
sg3942
I-1
sg30
I8
sg3943
(lp5274
g5263
aS'BLK'
p5275
aS'NP6'
p5276
aS'NP3'
p5277
aS'NP2'
p5278
asbsg5269
(issf_api
Node
p5279
(dp5280
g3937
S'pof'
p5281
sg3939
g5269
sg3940
S'VGNF'
p5282
sg3942
I-1
sg30
I4
sg3943
(lp5283
sbsS'NP5'
p5284
(issf_api
Node
p5285
(dp5286
g3937
S'r6-k2'
p5287
sg3939
g5284
sg3940
S'NP6'
p5288
sg3942
I-1
sg30
I6
sg3943
(lp5289
sbsg5275
(issf_api
Node
p5290
(dp5291
g3937
S'rsym'
p5292
sg3939
g5275
sg3940
S'VGF'
p5293
sg3942
I-1
sg30
I9
sg3943
(lp5294
sbsS'NP'
p5295
(issf_api
Node
p5296
(dp5297
g3937
S'r6'
p5298
sg3939
g5295
sg3940
S'NP2'
p5299
sg3942
I-1
sg30
I0
sg3943
(lp5300
sbsg5270
(issf_api
Node
p5301
(dp5302
g3937
S'k2'
p5303
sg3939
g5270
sg3940
S'VGNF'
p5304
sg3942
I-1
sg30
I3
sg3943
(lp5305
sbsg5276
(issf_api
Node
p5306
(dp5307
g3937
S'pof'
p5308
sg3939
g5276
sg3940
S'VGF'
p5309
sg3942
I-1
sg30
I7
sg3943
(lp5310
g5284
asbsg5277
(issf_api
Node
p5311
(dp5312
g3937
S'ras-k1'
p5313
sg3939
g5277
sg3940
S'VGF'
p5314
sg3942
I-1
sg30
I2
sg3943
(lp5315
sbsg5278
(issf_api
Node
p5316
(dp5317
g3937
S'k1'
p5318
sg3939
g5278
sg3940
S'VGF'
p5319
sg3942
I-1
sg30
I1
sg3943
(lp5320
g5295
asbssg4028
(lp5321
(issf_api
Chunk
p5322
(dp5323
g3939
g3518
sg30
I0
sg4032
g3525
sg31
I6
sg3930
(lp5324
I178
aI179
asg36
(issf_api
FeatureSet
p5325
(dp5326
g12
(dp5327
S'name'
p5328
g5295
sS'drel'
p5329
S'r6:NP2'
p5330
ssbsba(issf_api
Chunk
p5331
(dp5332
g3939
g3577
sg30
I1
sg4032
g3586
sg31
I6
sg3930
(lp5333
I180
aI181
asg36
(issf_api
FeatureSet
p5334
(dp5335
g12
(dp5336
S'name'
p5337
g5278
sS'drel'
p5338
S'k1:VGF'
p5339
ssbsba(issf_api
Chunk
p5340
(dp5341
g3939
g3634
sg30
I2
sg4032
g3641
sg31
I6
sg3930
(lp5342
I182
aI183
aI184
aI185
aI186
asg36
(issf_api
FeatureSet
p5343
(dp5344
g12
(dp5345
S'name'
p5346
g5277
sS'drel'
p5347
S'ras-k1:VGF'
p5348
ssbsba(issf_api
Chunk
p5349
(dp5350
g3939
g3723
sg30
I3
sg4032
g3728
sg31
I6
sg3930
(lp5351
I187
aI188
aI189
asg36
(issf_api
FeatureSet
p5352
(dp5353
g12
(dp5354
S'name'
p5355
g5270
sS'drel'
p5356
S'k2:VGNF'
p5357
ssbsba(issf_api
Chunk
p5358
(dp5359
g3939
g3742
sg30
I4
sg4032
g3747
sg31
I6
sg3930
(lp5360
I190
asg36
(issf_api
FeatureSet
p5361
(dp5362
g12
(dp5363
S'name'
p5364
g5269
sS'drel'
p5365
S'pof:VGNF'
p5366
ssbsba(issf_api
Chunk
p5367
(dp5368
g3939
g3761
sg30
I5
sg4032
g3766
sg31
I6
sg3930
(lp5369
I191
asg36
(issf_api
FeatureSet
p5370
(dp5371
g12
(dp5372
S'name'
p5373
g5263
sS'drel'
p5374
S'vmod:VGF'
p5375
ssbsba(issf_api
Chunk
p5376
(dp5377
g3939
g3826
sg30
I6
sg4032
g3839
sg31
I6
sg3930
(lp5378
I192
aI193
aI194
aI195
asg36
(issf_api
FeatureSet
p5379
(dp5380
g12
(dp5381
S'name'
p5382
g5284
sS'drel'
p5383
S'r6-k2:NP6'
p5384
ssbsba(issf_api
Chunk
p5385
(dp5386
g3939
g3872
sg30
I7
sg4032
g3883
sg31
I6
sg3930
(lp5387
I196
asg36
(issf_api
FeatureSet
p5388
(dp5389
g12
(dp5390
S'name'
p5391
g5276
sS'drel'
p5392
S'pof:VGF'
p5393
ssbsba(issf_api
Chunk
p5394
(dp5395
g3939
g3897
sg30
I8
sg4032
g3904
sg31
I6
sg3930
(lp5396
I197
asg36
(issf_api
FeatureSet
p5397
(dp5398
g12
(dp5399
S'name'
p5400
g5271
ssbsba(issf_api
Chunk
p5401
(dp5402
g3939
g3918
sg30
I9
sg4032
g3923
sg31
I6
sg3930
(lp5403
I198
asg36
(issf_api
FeatureSet
p5404
(dp5405
g12
(dp5406
S'name'
p5407
g5275
sS'drel'
p5408
S'rsym:VGF'
p5409
ssbsbasbasb.