(issf_api
SSFInfo
p0
(dp1
S'globalWordList'
p2
(lp3
(issf_api
Word
p4
(dp5
S'splitConn'
p6
I00
sS'word'
p7
V\u092a\u094d\u0930\u0927\u093e\u0928\u092e\u0902\u0924\u094d\u0930\u0940
p8
sS'extraFeatureSet'
p9
(issf_api
FeatureSet
p10
(dp11
S'featureDict'
p12
(dp13
S'posn'
p14
S'10'
p15
sS'name'
p16
S'\xe0\xa4\xaa\xe0\xa5\x8d\xe0\xa4\xb0\xe0\xa4\xa7\xe0\xa4\xbe\xe0\xa4\xa8\xe0\xa4\xae\xe0\xa4\x82\xe0\xa4\xa4\xe0\xa5\x8d\xe0\xa4\xb0\xe0\xa5\x80'
p17
sS'af'
p18
S'\xe0\xa4\xaa\xe0\xa5\x8d\xe0\xa4\xb0\xe0\xa4\xa7\xe0\xa4\xbe\xe0\xa4\xa8\xe0\xa4\xae\xe0\xa4\x82\xe0\xa4\xa4\xe0\xa5\x8d\xe0\xa4\xb0\xe0\xa5\x80,n,m,sg,3,d,0,0'
p19
sS'drel'
p20
S'nmod__adj:NP'
p21
sS'chunktype'
p22
S'child:NP'
p23
sS'cref'
p24
S'i1%0:t1'
p25
ssbsS'arg1'
p26
I00
sS'arg2'
p27
I00
sS'sense'
p28
NsS'arg1Span'
p29
NsS'chunkNum'
p30
I0
sS'sentenceNum'
p31
I0
sS'relationNum'
p32
NsS'arg2Span'
p33
NsS'wordTag'
p34
S'NNP'
p35
sS'featureSet'
p36
g10
sS'conn'
p37
I00
sba(issf_api
Word
p38
(dp39
g6
I00
sg7
V\u092e\u0928\u092e\u094b\u0939\u0928
p40
sg9
(issf_api
FeatureSet
p41
(dp42
g12
(dp43
S'posn'
p44
S'20'
p45
sS'name'
p46
S'\xe0\xa4\xae\xe0\xa4\xa8\xe0\xa4\xae\xe0\xa5\x8b\xe0\xa4\xb9\xe0\xa4\xa8'
p47
sS'af'
p48
S'\xe0\xa4\xae\xe0\xa4\xa8\xe0\xa4\xae\xe0\xa5\x8b\xe0\xa4\xb9\xe0\xa4\xa8,n,m,sg,3,d,0,0'
p49
sS'drel'
p50
S'pof__cn:NP'
p51
sS'chunktype'
p52
S'child:NP'
p53
sS'cref'
p54
S'i1%0:t1'
p55
ssbsg26
I00
sg27
I00
sg28
Nsg29
Nsg30
I0
sg31
I0
sg32
Nsg33
Nsg34
S'NNPC'
p56
sg36
g41
sg37
I00
sba(issf_api
Word
p57
(dp58
g6
I00
sg7
V\u0938\u093f\u0902\u0939
p59
sg9
(issf_api
FeatureSet
p60
(dp61
g12
(dp62
S'crefhead'
p63
S'\xe0\xa4\xb8\xe0\xa4\xbf\xe0\xa4\x82\xe0\xa4\xb9:i1'
p64
sS'posn'
p65
S'30'
p66
sS'name'
p67
S'\xe0\xa4\xb8\xe0\xa4\xbf\xe0\xa4\x82\xe0\xa4\xb9'
p68
sS'af'
p69
S'\xe0\xa4\xb8\xe0\xa4\xbf\xe0\xa4\x82\xe0\xa4\xb9,n,m,sg,3,o,0_\xe0\xa4\xa8\xe0\xa5\x87,0'
p70
sS'chunkid'
p71
S'NP'
p72
sS'chunktype'
p73
S'head:NP'
p74
sS'crefchainhead'
p75
S'i1:t1'
p76
sS'vpos'
p77
S'vib_vib_4'
p78
sS'cref'
p79
S'i1%1:t1'
p80
sS'drel'
p81
S'k1:VGF'
p82
ssbsg26
I00
sg27
I00
sg28
Nsg29
Nsg30
I0
sg31
I0
sg32
Nsg33
Nsg34
S'NNP'
p83
sg36
g60
sg37
I00
sba(issf_api
Word
p84
(dp85
g6
I00
sg7
V\u0928\u0947
p86
sg9
(issf_api
FeatureSet
p87
(dp88
g12
(dp89
S'posn'
p90
S'40'
p91
sS'name'
p92
S'\xe0\xa4\xa8\xe0\xa5\x87'
p93
sS'drel'
p94
S'lwg__psp:NP'
p95
sS'chunktype'
p96
S'child:NP'
p97
sS'af'
p98
S'\xe0\xa4\xa8\xe0\xa5\x87,psp,,,,,,'
p99
ssbsg26
I00
sg27
I00
sg28
Nsg29
Nsg30
I0
sg31
I0
sg32
Nsg33
Nsg34
S'PSP'
p100
sg36
g87
sg37
I00
sba(issf_api
Word
p101
(dp102
g6
I00
sg7
V\u0936\u0941\u0915\u094d\u0930\u0935\u093e\u0930
p103
sg9
(issf_api
FeatureSet
p104
(dp105
g12
(dp106
S'posn'
p107
S'50'
p108
sS'name'
p109
S'\xe0\xa4\xb6\xe0\xa5\x81\xe0\xa4\x95\xe0\xa5\x8d\xe0\xa4\xb0\xe0\xa4\xb5\xe0\xa4\xbe\xe0\xa4\xb0'
p110
sS'af'
p111
S'\xe0\xa4\xb6\xe0\xa5\x81\xe0\xa4\x95\xe0\xa5\x8d\xe0\xa4\xb0\xe0\xa4\xb5\xe0\xa4\xbe\xe0\xa4\xb0,n,m,sg,3,o,0_\xe0\xa4\x95\xe0\xa5\x8b,0'
p112
sS'chunkid'
p113
S'NP2'
p114
sS'drel'
p115
S'k7t:VGF'
p116
sS'vpos'
p117
S'vib_2'
p118
sS'chunktype'
p119
S'head:NP2'
p120
ssbsg26
I00
sg27
I00
sg28
Nsg29
Nsg30
I1
sg31
I0
sg32
Nsg33
Nsg34
S'NNP'
p121
sg36
g104
sg37
I00
sba(issf_api
Word
p122
(dp123
g6
I00
sg7
V\u0915\u094b
p124
sg9
(issf_api
FeatureSet
p125
(dp126
g12
(dp127
S'posn'
p128
S'60'
p129
sS'name'
p130
S'\xe0\xa4\x95\xe0\xa5\x8b'
p131
sS'drel'
p132
S'lwg__psp:NP2'
p133
sS'chunktype'
p134
S'child:NP2'
p135
sS'af'
p136
S'\xe0\xa4\x95\xe0\xa5\x8b,psp,,,,,,'
p137
ssbsg26
I00
sg27
I00
sg28
Nsg29
Nsg30
I1
sg31
I0
sg32
Nsg33
Nsg34
S'PSP'
p138
sg36
g125
sg37
I00
sba(issf_api
Word
p139
(dp140
g6
I00
sg7
V\u0906\u0924\u0902\u0915\u0935\u093e\u0926
p141
sg9
(issf_api
FeatureSet
p142
(dp143
g12
(dp144
S'crefhead'
p145
S'\xe0\xa4\x86\xe0\xa4\xa4\xe0\xa4\x82\xe0\xa4\x95\xe0\xa4\xb5\xe0\xa4\xbe\xe0\xa4\xa6:i2'
p146
sS'posn'
p147
S'70'
p148
sS'name'
p149
S'\xe0\xa4\x86\xe0\xa4\xa4\xe0\xa4\x82\xe0\xa4\x95\xe0\xa4\xb5\xe0\xa4\xbe\xe0\xa4\xa6'
p150
sS'af'
p151
S'\xe0\xa4\x86\xe0\xa4\xa4\xe0\xa4\x82\xe0\xa4\x95\xe0\xa4\xb5\xe0\xa4\xbe\xe0\xa4\xa6,n,m,sg,3,o,0_\xe0\xa4\x95\xe0\xa5\x8b,0'
p152
sS'chunkid'
p153
S'NP3'
p154
sS'chunktype'
p155
S'head:NP3'
p156
sS'crefchainhead'
p157
S'i2:t2'
p158
sS'vpos'
p159
S'vib_2'
p160
sS'cref'
p161
S'i2%1:t2'
p162
sS'drel'
p163
S'k2:VGNF'
p164
ssbsg26
I00
sg27
I00
sg28
Nsg29
Nsg30
I2
sg31
I0
sg32
Nsg33
Nsg34
S'NN'
p165
sg36
g142
sg37
I00
sba(issf_api
Word
p166
(dp167
g6
I00
sg7
V\u0915\u094b
p168
sg9
(issf_api
FeatureSet
p169
(dp170
g12
(dp171
S'posn'
p172
S'80'
p173
sS'name'
p174
S'\xe0\xa4\x95\xe0\xa5\x8b2'
p175
sS'drel'
p176
S'lwg__psp:NP3'
p177
sS'chunktype'
p178
S'child:NP3'
p179
sS'af'
p180
S'\xe0\xa4\x95\xe0\xa5\x8b,psp,,,,,,'
p181
ssbsg26
I00
sg27
I00
sg28
Nsg29
Nsg30
I2
sg31
I0
sg32
Nsg33
Nsg34
S'PSP'
p182
sg36
g169
sg37
I00
sba(issf_api
Word
p183
(dp184
g6
I00
sg7
V\u0915\u093e\u092f\u0930\u0924\u093e\u092a\u0942\u0930\u094d\u0923
p185
sg9
(issf_api
FeatureSet
p186
(dp187
g12
(dp188
S'posn'
p189
S'90'
p190
sS'name'
p191
S'\xe0\xa4\x95\xe0\xa4\xbe\xe0\xa4\xaf\xe0\xa4\xb0\xe0\xa4\xa4\xe0\xa4\xbe\xe0\xa4\xaa\xe0\xa5\x82\xe0\xa4\xb0\xe0\xa5\x8d\xe0\xa4\xa3'
p192
sS'af'
p193
S'\xe0\xa4\x95\xe0\xa4\xbe\xe0\xa4\xaf\xe0\xa4\xb0\xe0\xa4\xa4\xe0\xa4\xbe\xe0\xa4\xaa\xe0\xa5\x82\xe0\xa4\xb0\xe0\xa5\x8d\xe0\xa4\xa3,adj,any,any,,d,,'
p194
sS'drel'
p195
S'nmod__adj:NP4'
p196
sS'chunktype'
p197
S'child:NP4'
p198
sS'cref'
p199
S'i3%0:t2'
p200
ssbsg26
I00
sg27
I00
sg28
Nsg29
Nsg30
I3
sg31
I0
sg32
Nsg33
Nsg34
S'JJ'
p201
sg36
g186
sg37
I00
sba(issf_api
Word
p202
(dp203
g6
I00
sg7
V\u0915\u0943\u0924
p204
sg9
(issf_api
FeatureSet
p205
(dp206
g12
(dp207
S'crefhead'
p208
S'\xe0\xa4\x95\xe0\xa5\x83\xe0\xa4\xa4:i3'
p209
sS'posn'
p210
S'100'
p211
sS'name'
p212
S'\xe0\xa4\x95\xe0\xa5\x83\xe0\xa4\xa4'
p213
sS'af'
p214
S'\xe0\xa4\x95\xe0\xa5\x83\xe0\xa4\xa4,n,m,sg,3,d,0,0'
p215
sS'chunkid'
p216
S'NP4'
p217
sS'creftype'
p218
S'Coreference-Apposition:i2'
p219
sS'chunktype'
p220
S'head:NP4'
p221
sS'cref'
p222
S'i3%1:t2'
p223
sS'drel'
p224
S'k2s:VGNF'
p225
ssbsg26
I00
sg27
I00
sg28
Nsg29
Nsg30
I3
sg31
I0
sg32
Nsg33
Nsg34
S'NN'
p226
sg36
g205
sg37
I00
sba(issf_api
Word
p227
(dp228
g6
I00
sg7
V\u0915\u0930\u093e\u0930
p229
sg9
(issf_api
FeatureSet
p230
(dp231
g12
(dp232
S'posn'
p233
S'110'
p234
sS'name'
p235
S'\xe0\xa4\x95\xe0\xa4\xb0\xe0\xa4\xbe\xe0\xa4\xb0'
p236
sS'af'
p237
S'\xe0\xa4\x95\xe0\xa4\xb0\xe0\xa4\xbe\xe0\xa4\xb0,n,m,sg,3,d,0,0'
p238
sS'chunkid'
p239
S'NP5'
p240
sS'drel'
p241
S'pof:VGNF'
p242
sS'chunktype'
p243
S'head:NP5'
p244
ssbsg26
I00
sg27
I00
sg28
Nsg29
Nsg30
I4
sg31
I0
sg32
Nsg33
Nsg34
S'NN'
p245
sg36
g230
sg37
I00
sba(issf_api
Word
p246
(dp247
g6
I00
sg7
V\u0926\u0947\u0924\u0947
p248
sg9
(issf_api
FeatureSet
p249
(dp250
g12
(dp251
S'posn'
p252
S'120'
p253
sS'name'
p254
S'\xe0\xa4\xa6\xe0\xa5\x87\xe0\xa4\xa4\xe0\xa5\x87'
p255
sS'af'
p256
S'\xe0\xa4\xa6\xe0\xa5\x87,v,m,sg,any,,\xe0\xa4\xa4\xe0\xa4\xbe_\xe0\xa4\xb9\xe0\xa5\x8b+\xe0\xa4\xaf\xe0\xa4\xbe,wA'
p257
sS'chunkid'
p258
S'VGNF'
p259
sS'drel'
p260
S'vmod:VGF'
p261
sS'vpos'
p262
S'tam_2'
p263
sS'chunktype'
p264
S'head:VGNF'
p265
ssbsg26
I00
sg27
I00
sg28
Nsg29
Nsg30
I5
sg31
I0
sg32
Nsg33
Nsg34
S'VM'
p266
sg36
g249
sg37
I00
sba(issf_api
Word
p267
(dp268
g6
I00
sg7
V\u0939\u0941\u090f
p269
sg9
(issf_api
FeatureSet
p270
(dp271
g12
(dp272
S'posn'
p273
S'130'
p274
sS'name'
p275
S'\xe0\xa4\xb9\xe0\xa5\x81\xe0\xa4\x8f'
p276
sS'drel'
p277
S'lwg__vaux:VGNF'
p278
sS'chunktype'
p279
S'child:VGNF'
p280
sS'af'
p281
S'\xe0\xa4\xb9\xe0\xa5\x8b,v,m,sg,any,,\xe0\xa4\xaf\xe0\xa4\xbe,yA'
p282
ssbsg26
I00
sg27
I00
sg28
Nsg29
Nsg30
I5
sg31
I0
sg32
Nsg33
Nsg34
S'VAUX'
p283
sg36
g270
sg37
I00
sba(issf_api
Word
p284
(dp285
g6
I00
sg7
V\u0915\u0939\u093e
p286
sg9
(issf_api
FeatureSet
p287
(dp288
g12
(dp289
S'posn'
p290
S'140'
p291
sS'name'
p292
S'\xe0\xa4\x95\xe0\xa4\xb9\xe0\xa4\xbe'
p293
sS'af'
p294
S'\xe0\xa4\x95\xe0\xa4\xb9,v,m,sg,any,,\xe0\xa4\xaf\xe0\xa4\xbe,yA'
p295
sS'chunkid'
p296
S'VGF'
p297
sS'chunktype'
p298
S'head:VGF'
p299
sS'voicetype'
p300
S'active'
p301
sS'stype'
p302
S'declarative'
p303
ssbsg26
I00
sg27
I00
sg28
Nsg29
Nsg30
I6
sg31
I0
sg32
Nsg33
Nsg34
S'VM'
p304
sg36
g287
sg37
I00
sba(issf_api
Word
p305
(dp306
g6
I00
sg7
V\u0915\u093f
p307
sg9
(issf_api
FeatureSet
p308
(dp309
g12
(dp310
S'posn'
p311
S'150'
p312
sS'name'
p313
S'\xe0\xa4\x95\xe0\xa4\xbf'
p314
sS'af'
p315
S'\xe0\xa4\x95\xe0\xa4\xbf,avy,,,,,,'
p316
sS'chunkid'
p317
S'CCP'
p318
sS'drel'
p319
S'k2:VGF'
p320
sS'chunktype'
p321
S'head:CCP'
p322
ssbsg26
I00
sg27
I00
sg28
Nsg29
Nsg30
I7
sg31
I0
sg32
Nsg33
Nsg34
S'CC'
p323
sg36
g308
sg37
I00
sba(issf_api
Word
p324
(dp325
g6
I00
sg7
V\u0932\u094b\u0915\u0924\u0902\u0924\u094d\u0930
p326
sg9
(issf_api
FeatureSet
p327
(dp328
g12
(dp329
S'crefhead'
p330
S'\xe0\xa4\xb2\xe0\xa5\x8b\xe0\xa4\x95\xe0\xa4\xa4\xe0\xa4\x82\xe0\xa4\xa4\xe0\xa5\x8d\xe0\xa4\xb0:i4'
p331
sS'posn'
p332
S'160'
p333
sS'name'
p334
S'\xe0\xa4\xb2\xe0\xa5\x8b\xe0\xa4\x95\xe0\xa4\xa4\xe0\xa4\x82\xe0\xa4\xa4\xe0\xa5\x8d\xe0\xa4\xb0'
p335
sS'af'
p336
S'\xe0\xa4\xb2\xe0\xa5\x8b\xe0\xa4\x95\xe0\xa4\xa4\xe0\xa4\x82\xe0\xa4\xa4\xe0\xa5\x8d\xe0\xa4\xb0,n,m,sg,3,o,0_\xe0\xa4\xae\xe0\xa5\x87\xe0\xa4\x82,0'
p337
sS'chunkid'
p338
S'NP6'
p339
sS'chunktype'
p340
S'head:NP6'
p341
sS'crefchainhead'
p342
S'i4:t3'
p343
sS'vpos'
p344
S'vib_2'
p345
sS'cref'
p346
S'i4%1:t3'
p347
sS'drel'
p348
S'k7:VGF2'
p349
ssbsg26
I00
sg27
I00
sg28
Nsg29
Nsg30
I8
sg31
I0
sg32
Nsg33
Nsg34
S'NN'
p350
sg36
g327
sg37
I00
sba(issf_api
Word
p351
(dp352
g6
I00
sg7
V\u092e\u0947\u0902
p353
sg9
(issf_api
FeatureSet
p354
(dp355
g12
(dp356
S'posn'
p357
S'170'
p358
sS'name'
p359
S'\xe0\xa4\xae\xe0\xa5\x87\xe0\xa4\x82'
p360
sS'drel'
p361
S'lwg__psp:NP6'
p362
sS'chunktype'
p363
S'child:NP6'
p364
sS'af'
p365
S'\xe0\xa4\xae\xe0\xa5\x87\xe0\xa4\x82,psp,,,,,,'
p366
ssbsg26
I00
sg27
I00
sg28
Nsg29
Nsg30
I8
sg31
I0
sg32
Nsg33
Nsg34
S'PSP'
p367
sg36
g354
sg37
I00
sba(issf_api
Word
p368
(dp369
g6
I00
sg7
V\u0906\u0938\u094d\u0925\u093e
p370
sg9
(issf_api
FeatureSet
p371
(dp372
g12
(dp373
S'posn'
p374
S'180'
p375
sS'name'
p376
S'\xe0\xa4\x86\xe0\xa4\xb8\xe0\xa5\x8d\xe0\xa4\xa5\xe0\xa4\xbe'
p377
sS'af'
p378
S'\xe0\xa4\x86\xe0\xa4\xb8\xe0\xa5\x8d\xe0\xa4\xa5\xe0\xa4\xbe,n,f,sg,3,d,0,0'
p379
sS'chunkid'
p380
S'NP7'
p381
sS'drel'
p382
S'k2:VGNN'
p383
sS'chunktype'
p384
S'head:NP7'
p385
ssbsg26
I00
sg27
I00
sg28
Nsg29
Nsg30
I9
sg31
I0
sg32
Nsg33
Nsg34
S'NN'
p386
sg36
g371
sg37
I00
sba(issf_api
Word
p387
(dp388
g6
I00
sg7
V\u0930\u0916\u0928\u0947
p389
sg9
(issf_api
FeatureSet
p390
(dp391
g12
(dp392
S'posn'
p393
S'190'
p394
sS'name'
p395
S'\xe0\xa4\xb0\xe0\xa4\x96\xe0\xa4\xa8\xe0\xa5\x87'
p396
sS'af'
p397
S'\xe0\xa4\xb0\xe0\xa4\x96,v,any,pl,any,o,\xe0\xa4\xa8\xe0\xa4\xbe_\xe0\xa4\xb5\xe0\xa4\xbe\xe0\xa4\xb2\xe0\xa4\xbe,nA'
p398
sS'chunkid'
p399
S'VGNN'
p400
sS'drel'
p401
S'nmod:NP8'
p402
sS'vpos'
p403
S'tam_2'
p404
sS'chunktype'
p405
S'head:VGNN'
p406
ssbsg26
I00
sg27
I00
sg28
Nsg29
Nsg30
I10
sg31
I0
sg32
Nsg33
Nsg34
S'VM'
p407
sg36
g390
sg37
I00
sba(issf_api
Word
p408
(dp409
g6
I00
sg7
V\u0935\u093e\u0932\u0947
p410
sg9
(issf_api
FeatureSet
p411
(dp412
g12
(dp413
S'posn'
p414
S'200'
p415
sS'name'
p416
S'\xe0\xa4\xb5\xe0\xa4\xbe\xe0\xa4\xb2\xe0\xa5\x87'
p417
sS'drel'
p418
S'lwg__psp:VGNN'
p419
sS'chunktype'
p420
S'child:VGNN'
p421
sS'af'
p422
S'\xe0\xa4\xb5\xe0\xa4\xbe\xe0\xa4\xb2\xe0\xa4\xbe,psp,m,pl,,o,,'
p423
ssbsg26
I00
sg27
I00
sg28
Nsg29
Nsg30
I10
sg31
I0
sg32
Nsg33
Nsg34
S'PSP'
p424
sg36
g411
sg37
I00
sba(issf_api
Word
p425
(dp426
g6
I00
sg7
V\u0926\u0947\u0936\u094b\u0902
p427
sg9
(issf_api
FeatureSet
p428
(dp429
g12
(dp430
S'posn'
p431
S'210'
p432
sS'name'
p433
S'\xe0\xa4\xa6\xe0\xa5\x87\xe0\xa4\xb6\xe0\xa5\x8b\xe0\xa4\x82'
p434
sS'af'
p435
S'\xe0\xa4\xa6\xe0\xa5\x87\xe0\xa4\xb6,n,m,pl,3,o,0_\xe0\xa4\x95\xe0\xa5\x8b,0'
p436
sS'chunkid'
p437
S'NP8'
p438
sS'drel'
p439
S'k1:VGF2'
p440
sS'vpos'
p441
S'vib_2'
p442
sS'chunktype'
p443
S'head:NP8'
p444
ssbsg26
I00
sg27
I00
sg28
Nsg29
Nsg30
I11
sg31
I0
sg32
Nsg33
Nsg34
S'NN'
p445
sg36
g428
sg37
I00
sba(issf_api
Word
p446
(dp447
g6
I00
sg7
V\u0915\u094b
p448
sg9
(issf_api
FeatureSet
p449
(dp450
g12
(dp451
S'posn'
p452
S'220'
p453
sS'name'
p454
S'\xe0\xa4\x95\xe0\xa5\x8b3'
p455
sS'drel'
p456
S'lwg__psp:NP8'
p457
sS'chunktype'
p458
S'child:NP8'
p459
sS'af'
p460
S'\xe0\xa4\x95\xe0\xa5\x8b,psp,,,,,,'
p461
ssbsg26
I00
sg27
I00
sg28
Nsg29
Nsg30
I11
sg31
I0
sg32
Nsg33
Nsg34
S'PSP'
p462
sg36
g449
sg37
I00
sba(issf_api
Word
p463
(dp464
g6
I00
sg7
V\u092e\u093f\u0932\u0915\u0930
p465
sg9
(issf_api
FeatureSet
p466
(dp467
g12
(dp468
S'posn'
p469
S'230'
p470
sS'name'
p471
S'\xe0\xa4\xae\xe0\xa4\xbf\xe0\xa4\xb2\xe0\xa4\x95\xe0\xa4\xb0'
p472
sS'af'
p473
S'\xe0\xa4\xae\xe0\xa4\xbf\xe0\xa4\xb2,v,any,any,any,,\xe0\xa4\x95\xe0\xa4\xb0,kara'
p474
sS'chunkid'
p475
S'VGNF2'
p476
sS'drel'
p477
S'vmod:VGF2'
p478
sS'chunktype'
p479
S'head:VGNF2'
p480
ssbsg26
I00
sg27
I00
sg28
Nsg29
Nsg30
I12
sg31
I0
sg32
Nsg33
Nsg34
S'VM'
p481
sg36
g466
sg37
I00
sba(issf_api
Word
p482
(dp483
g6
I00
sg7
V\u0907\u0938\u0915\u093e
p484
sg9
(issf_api
FeatureSet
p485
(dp486
g12
(dp487
S'crefhead'
p488
S'\xe0\xa4\x87\xe0\xa4\xb8\xe0\xa4\x95\xe0\xa4\xbe:i5'
p489
sS'posn'
p490
S'240'
p491
sS'name'
p492
S'\xe0\xa4\x87\xe0\xa4\xb8\xe0\xa4\x95\xe0\xa4\xbe'
p493
sS'af'
p494
S'\xe0\xa4\xaf\xe0\xa4\xb9,pn,m,sg,3,o,\xe0\xa4\x95\xe0\xa4\xbe,kA'
p495
sS'chunkid'
p496
S'NP9'
p497
sS'creftype'
p498
S'Anaphora-C:i3'
p499
sS'chunktype'
p500
S'head:NP9'
p501
sS'cref'
p502
S'i5%1:t2'
p503
sS'drel'
p504
S'r6-k2:NP10'
p505
ssbsg26
I00
sg27
I00
sg28
Nsg29
Nsg30
I13
sg31
I0
sg32
Nsg33
Nsg34
S'PRP'
p506
sg36
g485
sg37
I00
sba(issf_api
Word
p507
(dp508
g6
I00
sg7
V\u092e\u0941\u0915\u093e\u092c\u0932\u093e
p509
sg9
(issf_api
FeatureSet
p510
(dp511
g12
(dp512
S'posn'
p513
S'250'
p514
sS'name'
p515
S'\xe0\xa4\xae\xe0\xa5\x81\xe0\xa4\x95\xe0\xa4\xbe\xe0\xa4\xac\xe0\xa4\xb2\xe0\xa4\xbe'
p516
sS'af'
p517
S'\xe0\xa4\xae\xe0\xa5\x81\xe0\xa4\x95\xe0\xa4\xbe\xe0\xa4\xac\xe0\xa4\xb2\xe0\xa4\xbe,n,m,sg,3,d,0,0'
p518
sS'chunkid'
p519
S'NP10'
p520
sS'drel'
p521
S'pof:VGF2'
p522
sS'chunktype'
p523
S'head:NP10'
p524
ssbsg26
I00
sg27
I00
sg28
Nsg29
Nsg30
I14
sg31
I0
sg32
Nsg33
Nsg34
S'NN'
p525
sg36
g510
sg37
I00
sba(issf_api
Word
p526
(dp527
g6
I00
sg7
V\u0915\u0930\u0928\u093e
p528
sg9
(issf_api
FeatureSet
p529
(dp530
g12
(dp531
S'posn'
p532
S'260'
p533
sS'name'
p534
S'\xe0\xa4\x95\xe0\xa4\xb0\xe0\xa4\xa8\xe0\xa4\xbe'
p535
sS'af'
p536
S'\xe0\xa4\x95\xe0\xa4\xb0,v,m,any,any,,\xe0\xa4\xa8\xe0\xa4\xbe_\xe0\xa4\x9a\xe0\xa4\xbe\xe0\xa4\xb9\xe0\xa4\xbf\xe0\xa4\x8f,nA'
p537
sS'chunkid'
p538
S'VGF2'
p539
sS'stype'
p540
S'declarative'
p541
sS'drel'
p542
S'ccof:CCP'
p543
sS'voicetype'
p544
S'active'
p545
sS'vpos'
p546
S'tam_2'
p547
sS'chunktype'
p548
S'head:VGF2'
p549
ssbsg26
I00
sg27
I00
sg28
Nsg29
Nsg30
I15
sg31
I0
sg32
Nsg33
Nsg34
S'VM'
p550
sg36
g529
sg37
I00
sba(issf_api
Word
p551
(dp552
g6
I00
sg7
V\u091a\u093e\u0939\u093f\u090f
p553
sg9
(issf_api
FeatureSet
p554
(dp555
g12
(dp556
S'posn'
p557
S'270'
p558
sS'name'
p559
S'\xe0\xa4\x9a\xe0\xa4\xbe\xe0\xa4\xb9\xe0\xa4\xbf\xe0\xa4\x8f'
p560
sS'drel'
p561
S'lwg__vaux:VGF2'
p562
sS'chunktype'
p563
S'child:VGF2'
p564
sS'af'
p565
S'\xe0\xa4\x9a\xe0\xa4\xbe\xe0\xa4\xb9\xe0\xa4\xbf\xe0\xa4\x8f,v,any,any,any,,0,0'
p566
ssbsg26
I00
sg27
I00
sg28
Nsg29
Nsg30
I15
sg31
I0
sg32
Nsg33
Nsg34
S'VAUX'
p567
sg36
g554
sg37
I00
sba(issf_api
Word
p568
(dp569
g6
I00
sg7
V\u0964
p570
sg9
(issf_api
FeatureSet
p571
(dp572
g12
(dp573
S'posn'
p574
S'280'
p575
sS'name'
p576
S'\xe0\xa5\xa4'
p577
sS'af'
p578
S'\xe0\xa5\xa4,punc,,,,,,'
p579
sS'chunkid'
p580
S'BLK'
p581
sS'drel'
p582
S'rsym:VGF'
p583
sS'chunktype'
p584
S'head:BLK'
p585
ssbsg26
I00
sg27
I00
sg28
Nsg29
Nsg30
I16
sg31
I0
sg32
Nsg33
Nsg34
S'SYM'
p586
sg36
g571
sg37
I00
sba(issf_api
Word
p587
(dp588
g6
I00
sg7
V\u0911\u0915\u094d\u0938\u092b\u094b\u0930\u094d\u0921
p589
sg9
(issf_api
FeatureSet
p590
(dp591
g12
(dp592
S'posn'
p593
S'10'
p594
sS'name'
p595
S'\xe0\xa4\x91\xe0\xa4\x95\xe0\xa5\x8d\xe0\xa4\xb8\xe0\xa4\xab\xe0\xa5\x8b\xe0\xa4\xb0\xe0\xa5\x8d\xe0\xa4\xa1'
p596
sS'af'
p597
S'\xe0\xa4\x91\xe0\xa4\x95\xe0\xa5\x8d\xe0\xa4\xb8\xe0\xa4\xab\xe0\xa5\x8b\xe0\xa4\xb0\xe0\xa5\x8d\xe0\xa4\xa1,n,m,sg,3,d,0,0'
p598
sS'drel'
p599
S'pof__cn:NP'
p600
sS'chunktype'
p601
S'child:NP'
p602
sS'cref'
p603
S'i6%0:t4'
p604
ssbsg26
I00
sg27
I00
sg28
Nsg29
Nsg30
I0
sg31
I1
sg32
Nsg33
Nsg34
S'NNPC'
p605
sg36
g590
sg37
I00
sba(issf_api
Word
p606
(dp607
g6
I00
sg7
V\u0935\u093f\u0936\u094d\u0935\u0935\u093f\u0926\u094d\u092f\u093e\u0932\u092f
p608
sg9
(issf_api
FeatureSet
p609
(dp610
g12
(dp611
S'crefhead'
p612
S'\xe0\xa4\xb5\xe0\xa4\xbf\xe0\xa4\xb6\xe0\xa5\x8d\xe0\xa4\xb5\xe0\xa4\xb5\xe0\xa4\xbf\xe0\xa4\xa6\xe0\xa5\x8d\xe0\xa4\xaf\xe0\xa4\xbe\xe0\xa4\xb2\xe0\xa4\xaf:i6'
p613
sS'posn'
p614
S'20'
p615
sS'name'
p616
S'\xe0\xa4\xb5\xe0\xa4\xbf\xe0\xa4\xb6\xe0\xa5\x8d\xe0\xa4\xb5\xe0\xa4\xb5\xe0\xa4\xbf\xe0\xa4\xa6\xe0\xa5\x8d\xe0\xa4\xaf\xe0\xa4\xbe\xe0\xa4\xb2\xe0\xa4\xaf'
p617
sS'af'
p618
S'\xe0\xa4\xb5\xe0\xa4\xbf\xe0\xa4\xb6\xe0\xa5\x8d\xe0\xa4\xb5\xe0\xa4\xb5\xe0\xa4\xbf\xe0\xa4\xa6\xe0\xa5\x8d\xe0\xa4\xaf\xe0\xa4\xbe\xe0\xa4\xb2\xe0\xa4\xaf,n,m,sg,3,o,0_\xe0\xa4\xa8\xe0\xa5\x87,0'
p619
sS'chunkid'
p620
S'NP'
p621
sS'chunktype'
p622
S'head:NP'
p623
sS'crefchainhead'
p624
S'i6:t4'
p625
sS'vpos'
p626
S'vib_3'
p627
sS'cref'
p628
S'i6%1:t4'
p629
sS'drel'
p630
S'k1:VGF'
p631
ssbsg26
I00
sg27
I00
sg28
Nsg29
Nsg30
I0
sg31
I1
sg32
Nsg33
Nsg34
S'NNP'
p632
sg36
g609
sg37
I00
sba(issf_api
Word
p633
(dp634
g6
I00
sg7
V\u0928\u0947
p635
sg9
(issf_api
FeatureSet
p636
(dp637
g12
(dp638
S'posn'
p639
S'30'
p640
sS'name'
p641
S'\xe0\xa4\xa8\xe0\xa5\x87'
p642
sS'drel'
p643
S'lwg__psp:NP'
p644
sS'chunktype'
p645
S'child:NP'
p646
sS'af'
p647
S'\xe0\xa4\xa8\xe0\xa5\x87,psp,,,,,,'
p648
ssbsg26
I00
sg27
I00
sg28
Nsg29
Nsg30
I0
sg31
I1
sg32
Nsg33
Nsg34
S'PSP'
p649
sg36
g636
sg37
I00
sba(issf_api
Word
p650
(dp651
g6
I00
sg7
V\u0906\u091c
p652
sg9
(issf_api
FeatureSet
p653
(dp654
g12
(dp655
S'posn'
p656
S'40'
p657
sS'name'
p658
S'\xe0\xa4\x86\xe0\xa4\x9c'
p659
sS'af'
p660
S'\xe0\xa4\x86\xe0\xa4\x9c,n,m,sg,3,d,0,0'
p661
sS'chunkid'
p662
S'NP2'
p663
sS'drel'
p664
S'k7t:VGF'
p665
sS'chunktype'
p666
S'head:NP2'
p667
ssbsg26
I00
sg27
I00
sg28
Nsg29
Nsg30
I1
sg31
I1
sg32
Nsg33
Nsg34
S'NN'
p668
sg36
g653
sg37
I00
sba(issf_api
Word
p669
(dp670
g6
I00
sg7
V\u092e\u0928\u092e\u094b\u0939\u0928
p671
sg9
(issf_api
FeatureSet
p672
(dp673
g12
(dp674
S'posn'
p675
S'50'
p676
sS'name'
p677
S'\xe0\xa4\xae\xe0\xa4\xa8\xe0\xa4\xae\xe0\xa5\x8b\xe0\xa4\xb9\xe0\xa4\xa8'
p678
sS'af'
p679
S'\xe0\xa4\xae\xe0\xa4\xa8\xe0\xa4\xae\xe0\xa5\x8b\xe0\xa4\xb9\xe0\xa4\xa8,n,m,sg,3,d,0,0'
p680
sS'drel'
p681
S'pof__cn:NP3'
p682
sS'chunktype'
p683
S'child:NP3'
p684
sS'cref'
p685
S'i7%0:t1'
p686
ssbsg26
I00
sg27
I00
sg28
Nsg29
Nsg30
I2
sg31
I1
sg32
Nsg33
Nsg34
S'NNPC'
p687
sg36
g672
sg37
I00
sba(issf_api
Word
p688
(dp689
g6
I00
sg7
V\u0938\u093f\u0902\u0939
p690
sg9
(issf_api
FeatureSet
p691
(dp692
g12
(dp693
S'crefhead'
p694
S'\xe0\xa4\xb8\xe0\xa4\xbf\xe0\xa4\x82\xe0\xa4\xb9:i7'
p695
sS'posn'
p696
S'60'
p697
sS'name'
p698
S'\xe0\xa4\xb8\xe0\xa4\xbf\xe0\xa4\x82\xe0\xa4\xb9'
p699
sS'af'
p700
S'\xe0\xa4\xb8\xe0\xa4\xbf\xe0\xa4\x82\xe0\xa4\xb9,n,m,sg,3,o,0_\xe0\xa4\x95\xe0\xa5\x8b,0'
p701
sS'chunkid'
p702
S'NP3'
p703
sS'creftype'
p704
S'Coreference-Identity:i1'
p705
sS'chunktype'
p706
S'head:NP3'
p707
sS'vpos'
p708
S'vib_3'
p709
sS'cref'
p710
S'i7%1:t1'
p711
sS'drel'
p712
S'k4:VGF'
p713
ssbsg26
I00
sg27
I00
sg28
Nsg29
Nsg30
I2
sg31
I1
sg32
Nsg33
Nsg34
S'NNP'
p714
sg36
g691
sg37
I00
sba(issf_api
Word
p715
(dp716
g6
I00
sg7
V\u0915\u094b
p717
sg9
(issf_api
FeatureSet
p718
(dp719
g12
(dp720
S'posn'
p721
S'70'
p722
sS'name'
p723
S'\xe0\xa4\x95\xe0\xa5\x8b'
p724
sS'drel'
p725
S'lwg__psp:NP3'
p726
sS'chunktype'
p727
S'child:NP3'
p728
sS'af'
p729
S'\xe0\xa4\x95\xe0\xa5\x8b,psp,,,,,,'
p730
ssbsg26
I00
sg27
I00
sg28
Nsg29
Nsg30
I2
sg31
I1
sg32
Nsg33
Nsg34
S'PSP'
p731
sg36
g718
sg37
I00
sba(issf_api
Word
p732
(dp733
g6
I00
sg7
V\u0928\u093e\u0917\u0930\u093f\u0915
p734
sg9
(issf_api
FeatureSet
p735
(dp736
g12
(dp737
S'posn'
p738
S'80'
p739
sS'name'
p740
S'\xe0\xa4\xa8\xe0\xa4\xbe\xe0\xa4\x97\xe0\xa4\xb0\xe0\xa4\xbf\xe0\xa4\x95'
p741
sS'af'
p742
S'\xe0\xa4\xa8\xe0\xa4\xbe\xe0\xa4\x97\xe0\xa4\xb0\xe0\xa4\xbf\xe0\xa4\x95,n,m,sg,3,d,0,0'
p743
sS'acrefmod'
p744
S'm1%0:i8'
p745
sS'drel'
p746
S'pof__cn:NP4'
p747
sS'chunktype'
p748
S'child:NP4'
p749
ssbsg26
I00
sg27
I00
sg28
Nsg29
Nsg30
I3
sg31
I1
sg32
Nsg33
Nsg34
S'NNPC'
p750
sg36
g735
sg37
I00
sba(issf_api
Word
p751
(dp752
g6
I00
sg7
V\u0915\u093e\u0928\u0942\u0928
p753
sg9
(issf_api
FeatureSet
p754
(dp755
g12
(dp756
S'posn'
p757
S'90'
p758
sS'name'
p759
S'\xe0\xa4\x95\xe0\xa4\xbe\xe0\xa4\xa8\xe0\xa5\x82\xe0\xa4\xa8'
p760
sS'af'
p761
S'\xe0\xa4\x95\xe0\xa4\xbe\xe0\xa4\xa8\xe0\xa5\x82\xe0\xa4\xa8,n,m,sg,3,o,0_\xe0\xa4\xae\xe0\xa5\x87\xe0\xa4\x82,0'
p762
sS'chunkid'
p763
S'NP4'
p764
sS'acrefmod'
p765
S'm1%0:i8'
p766
sS'drel'
p767
S'k7:VGF'
p768
sS'vpos'
p769
S'vib_3'
p770
sS'chunktype'
p771
S'head:NP4'
p772
ssbsg26
I00
sg27
I00
sg28
Nsg29
Nsg30
I3
sg31
I1
sg32
Nsg33
Nsg34
S'NNP'
p773
sg36
g754
sg37
I00
sba(issf_api
Word
p774
(dp775
g6
I00
sg7
V\u092e\u0947\u0902
p776
sg9
(issf_api
FeatureSet
p777
(dp778
g12
(dp779
S'posn'
p780
S'100'
p781
sS'name'
p782
S'\xe0\xa4\xae\xe0\xa5\x87\xe0\xa4\x82'
p783
sS'af'
p784
S'\xe0\xa4\xae\xe0\xa5\x87\xe0\xa4\x82,psp,,,,,,'
p785
sS'acrefmod'
p786
S'm1%0:i8'
p787
sS'drel'
p788
S'lwg__psp:NP4'
p789
sS'chunktype'
p790
S'child:NP4'
p791
ssbsg26
I00
sg27
I00
sg28
Nsg29
Nsg30
I3
sg31
I1
sg32
Nsg33
Nsg34
S'PSP'
p792
sg36
g777
sg37
I00
sba(issf_api
Word
p793
(dp794
g6
I00
sg7
V\u0921\u0949\u0915\u094d\u091f\u0930\u0947\u091f
p795
sg9
(issf_api
FeatureSet
p796
(dp797
g12
(dp798
S'posn'
p799
S'110'
p800
sS'name'
p801
S'\xe0\xa4\xa1\xe0\xa5\x89\xe0\xa4\x95\xe0\xa5\x8d\xe0\xa4\x9f\xe0\xa4\xb0\xe0\xa5\x87\xe0\xa4\x9f'
p802
sS'af'
p803
S'\xe0\xa4\xa1\xe0\xa5\x89\xe0\xa4\x95\xe0\xa5\x8d\xe0\xa4\x9f\xe0\xa4\xb0\xe0\xa5\x87\xe0\xa4\x9f,n,m,sg,3,o,0_\xe0\xa4\x95\xe0\xa4\xbe,0'
p804
sS'acrefmodhead'
p805
S'\xe0\xa4\xa1\xe0\xa5\x89\xe0\xa4\x95\xe0\xa5\x8d\xe0\xa4\x9f\xe0\xa4\xb0\xe0\xa5\x87\xe0\xa4\x9f:m1'
p806
sS'chunkid'
p807
S'NP5'
p808
sS'acrefmod'
p809
S'm1%1:i8'
p810
sS'drel'
p811
S'r6:NP6'
p812
sS'vpos'
p813
S'vib_2'
p814
sS'chunktype'
p815
S'head:NP5'
p816
ssbsg26
I00
sg27
I00
sg28
Nsg29
Nsg30
I4
sg31
I1
sg32
Nsg33
Nsg34
S'NN'
p817
sg36
g796
sg37
I00
sba(issf_api
Word
p818
(dp819
g6
I00
sg7
V\u0915\u0940
p820
sg9
(issf_api
FeatureSet
p821
(dp822
g12
(dp823
S'posn'
p824
S'120'
p825
sS'name'
p826
S'\xe0\xa4\x95\xe0\xa5\x80'
p827
sS'drel'
p828
S'lwg__psp:NP5'
p829
sS'chunktype'
p830
S'child:NP5'
p831
sS'af'
p832
S'\xe0\xa4\x95\xe0\xa4\xbe,psp,f,sg,,d,,'
p833
ssbsg26
I00
sg27
I00
sg28
Nsg29
Nsg30
I4
sg31
I1
sg32
Nsg33
Nsg34
S'PSP'
p834
sg36
g821
sg37
I00
sba(issf_api
Word
p835
(dp836
g6
I00
sg7
V\u092e\u093e\u0928\u0926
p837
sg9
(issf_api
FeatureSet
p838
(dp839
g12
(dp840
S'posn'
p841
S'90'
p842
sS'name'
p843
S'\xe0\xa4\xae\xe0\xa4\xbe\xe0\xa4\xa8\xe0\xa4\xa6'
p844
sS'af'
p845
S'\xe0\xa4\xae\xe0\xa4\xbe\xe0\xa4\xa8\xe0\xa4\xa6,adj,any,any,,d,,'
p846
sS'drel'
p847
S'pof__cn:NP6'
p848
sS'chunktype'
p849
S'child:NP6'
p850
sS'cref'
p851
S'i8%0:t5'
p852
ssbsg26
I00
sg27
I00
sg28
Nsg29
Nsg30
I5
sg31
I1
sg32
Nsg33
Nsg34
S'NNC'
p853
sg36
g838
sg37
I00
sba(issf_api
Word
p854
(dp855
g6
I00
sg7
V\u0909\u092a\u093e\u0927\u093f
p856
sg9
(issf_api
FeatureSet
p857
(dp858
g12
(dp859
S'crefhead'
p860
S'\xe0\xa4\x89\xe0\xa4\xaa\xe0\xa4\xbe\xe0\xa4\xa7\xe0\xa4\xbf:i8'
p861
sS'posn'
p862
S'140'
p863
sS'name'
p864
S'\xe0\xa4\x89\xe0\xa4\xaa\xe0\xa4\xbe\xe0\xa4\xa7\xe0\xa4\xbf'
p865
sS'af'
p866
S'\xe0\xa4\x89\xe0\xa4\xaa\xe0\xa4\xbe\xe0\xa4\xa7\xe0\xa4\xbf,n,f,sg,3,d,0,0'
p867
sS'chunkid'
p868
S'NP6'
p869
sS'crefmod'
p870
S'm1:i8'
p871
sS'chunktype'
p872
S'head:NP6'
p873
sS'crefchainhead'
p874
S'i8:t5'
p875
sS'cref'
p876
S'i8%1:t5'
p877
sS'drel'
p878
S'k2:VGF'
p879
ssbsg26
I00
sg27
I00
sg28
Nsg29
Nsg30
I5
sg31
I1
sg32
Nsg33
Nsg34
S'NN'
p880
sg36
g857
sg37
I00
sba(issf_api
Word
p881
(dp882
g6
I00
sg7
V\u092a\u094d\u0930\u0926\u093e\u0928
p883
sg9
(issf_api
FeatureSet
p884
(dp885
g12
(dp886
S'posn'
p887
S'150'
p888
sS'name'
p889
S'\xe0\xa4\xaa\xe0\xa5\x8d\xe0\xa4\xb0\xe0\xa4\xa6\xe0\xa4\xbe\xe0\xa4\xa8'
p890
sS'af'
p891
S'\xe0\xa4\xaa\xe0\xa5\x8d\xe0\xa4\xb0\xe0\xa4\xa6\xe0\xa4\xbe\xe0\xa4\xa8,n,m,sg,3,d,0,0'
p892
sS'chunkid'
p893
S'NP7'
p894
sS'drel'
p895
S'pof:VGF'
p896
sS'chunktype'
p897
S'head:NP7'
p898
ssbsg26
I00
sg27
I00
sg28
Nsg29
Nsg30
I6
sg31
I1
sg32
Nsg33
Nsg34
S'NN'
p899
sg36
g884
sg37
I00
sba(issf_api
Word
p900
(dp901
g6
I00
sg7
V\u0915\u0940
p902
sg9
(issf_api
FeatureSet
p903
(dp904
g12
(dp905
S'posn'
p906
S'160'
p907
sS'name'
p908
S'\xe0\xa4\x95\xe0\xa5\x802'
p909
sS'af'
p910
S'\xe0\xa4\x95\xe0\xa4\xb0,v,f,sg,any,,\xe0\xa4\xaf\xe0\xa4\xbe,yA'
p911
sS'chunkid'
p912
S'VGF'
p913
sS'chunktype'
p914
S'head:VGF'
p915
sS'voicetype'
p916
S'active'
p917
sS'stype'
p918
S'declarative'
p919
ssbsg26
I00
sg27
I00
sg28
Nsg29
Nsg30
I7
sg31
I1
sg32
Nsg33
Nsg34
S'VM'
p920
sg36
g903
sg37
I00
sba(issf_api
Word
p921
(dp922
g6
I00
sg7
V\u0964
p923
sg9
(issf_api
FeatureSet
p924
(dp925
g12
(dp926
S'posn'
p927
S'170'
p928
sS'name'
p929
S'\xe0\xa5\xa4'
p930
sS'af'
p931
S'\xe0\xa5\xa4,punc,,,,,,'
p932
sS'chunkid'
p933
S'BLK'
p934
sS'drel'
p935
S'rsym:VGF'
p936
sS'chunktype'
p937
S'head:BLK'
p938
ssbsg26
I00
sg27
I00
sg28
Nsg29
Nsg30
I8
sg31
I1
sg32
Nsg33
Nsg34
S'SYM'
p939
sg36
g924
sg37
I00
sba(issf_api
Word
p940
(dp941
g6
I00
sg7
V\u0907\u0938
p942
sg9
(issf_api
FeatureSet
p943
(dp944
g12
(dp945
S'posn'
p946
S'10'
p947
sS'name'
p948
S'\xe0\xa4\x87\xe0\xa4\xb8'
p949
sS'drel'
p950
S'nmod__adj:NP'
p951
sS'chunktype'
p952
S'child:NP'
p953
sS'af'
p954
S'\xe0\xa4\xaf\xe0\xa4\xb9,pn,any,sg,3,o,,'
p955
ssbsg26
I00
sg27
I00
sg28
Nsg29
Nsg30
I0
sg31
I2
sg32
Nsg33
Nsg34
S'DEM'
p956
sg36
g943
sg37
I00
sba(issf_api
Word
p957
(dp958
g6
I00
sg7
V\u0905\u0935\u0938\u0930
p959
sg9
(issf_api
FeatureSet
p960
(dp961
g12
(dp962
S'posn'
p963
S'20'
p964
sS'name'
p965
S'\xe0\xa4\x85\xe0\xa4\xb5\xe0\xa4\xb8\xe0\xa4\xb0'
p966
sS'af'
p967
S'\xe0\xa4\x85\xe0\xa4\xb5\xe0\xa4\xb8\xe0\xa4\xb0,n,m,sg,3,o,0_\xe0\xa4\xaa\xe0\xa4\xb0,0'
p968
sS'chunkid'
p969
S'NP'
p970
sS'drel'
p971
S'jjmod:JJP'
p972
sS'vpos'
p973
S'vib_3'
p974
sS'chunktype'
p975
S'head:NP'
p976
ssbsg26
I00
sg27
I00
sg28
Nsg29
Nsg30
I0
sg31
I2
sg32
Nsg33
Nsg34
S'NN'
p977
sg36
g960
sg37
I00
sba(issf_api
Word
p978
(dp979
g6
I00
sg7
V\u092a\u0930
p980
sg9
(issf_api
FeatureSet
p981
(dp982
g12
(dp983
S'posn'
p984
S'30'
p985
sS'name'
p986
S'\xe0\xa4\xaa\xe0\xa4\xb0'
p987
sS'drel'
p988
S'lwg__psp:NP'
p989
sS'chunktype'
p990
S'child:NP'
p991
sS'af'
p992
S'\xe0\xa4\xaa\xe0\xa4\xb0,psp,,,,,,'
p993
ssbsg26
I00
sg27
I00
sg28
Nsg29
Nsg30
I0
sg31
I2
sg32
Nsg33
Nsg34
S'PSP'
p994
sg36
g981
sg37
I00
sba(issf_api
Word
p995
(dp996
g6
I00
sg7
V\u0906\u092f\u094b\u091c\u093f\u0924
p997
sg9
(issf_api
FeatureSet
p998
(dp999
g12
(dp1000
S'posn'
p1001
S'40'
p1002
sS'name'
p1003
S'\xe0\xa4\x86\xe0\xa4\xaf\xe0\xa5\x8b\xe0\xa4\x9c\xe0\xa4\xbf\xe0\xa4\xa4'
p1004
sS'af'
p1005
S'\xe0\xa4\x86\xe0\xa4\xaf\xe0\xa5\x8b\xe0\xa4\x9c\xe0\xa4\xbf\xe0\xa4\xa4,adj,any,any,,o,,'
p1006
sS'chunkid'
p1007
S'JJP'
p1008
sS'drel'
p1009
S'nmod:NP2'
p1010
sS'chunktype'
p1011
S'head:JJP'
p1012
ssbsg26
I00
sg27
I00
sg28
Nsg29
Nsg30
I1
sg31
I2
sg32
Nsg33
Nsg34
S'JJ'
p1013
sg36
g998
sg37
I00
sba(issf_api
Word
p1014
(dp1015
g6
I00
sg7
V\u0938\u092e\u093e\u0930\u094b\u0939
p1016
sg9
(issf_api
FeatureSet
p1017
(dp1018
g12
(dp1019
S'posn'
p1020
S'50'
p1021
sS'name'
p1022
S'\xe0\xa4\xb8\xe0\xa4\xae\xe0\xa4\xbe\xe0\xa4\xb0\xe0\xa5\x8b\xe0\xa4\xb9'
p1023
sS'af'
p1024
S'\xe0\xa4\xb8\xe0\xa4\xae\xe0\xa4\xbe\xe0\xa4\xb0\xe0\xa5\x8b\xe0\xa4\xb9,n,m,sg,3,o,0_\xe0\xa4\x95\xe0\xa5\x8b,0'
p1025
sS'chunkid'
p1026
S'NP2'
p1027
sS'drel'
p1028
S'k4:VGF'
p1029
sS'vpos'
p1030
S'vib_2'
p1031
sS'chunktype'
p1032
S'head:NP2'
p1033
ssbsg26
I00
sg27
I00
sg28
Nsg29
Nsg30
I2
sg31
I2
sg32
Nsg33
Nsg34
S'NN'
p1034
sg36
g1017
sg37
I00
sba(issf_api
Word
p1035
(dp1036
g6
I00
sg7
V\u0915\u094b
p1037
sg9
(issf_api
FeatureSet
p1038
(dp1039
g12
(dp1040
S'posn'
p1041
S'60'
p1042
sS'name'
p1043
S'\xe0\xa4\x95\xe0\xa5\x8b'
p1044
sS'drel'
p1045
S'lwg__psp:NP2'
p1046
sS'chunktype'
p1047
S'child:NP2'
p1048
sS'af'
p1049
S'\xe0\xa4\x95\xe0\xa5\x8b,psp,,,,,,'
p1050
ssbsg26
I00
sg27
I00
sg28
Nsg29
Nsg30
I2
sg31
I2
sg32
Nsg33
Nsg34
S'PSP'
p1051
sg36
g1038
sg37
I00
sba(issf_api
Word
p1052
(dp1053
g6
I00
sg7
V\u0938\u0902\u092c\u094b\u0927\u093f\u0924
p1054
sg9
(issf_api
FeatureSet
p1055
(dp1056
g12
(dp1057
S'posn'
p1058
S'70'
p1059
sS'name'
p1060
S'\xe0\xa4\xb8\xe0\xa4\x82\xe0\xa4\xac\xe0\xa5\x8b\xe0\xa4\xa7\xe0\xa4\xbf\xe0\xa4\xa4'
p1061
sS'af'
p1062
S'\xe0\xa4\xb8\xe0\xa4\x82\xe0\xa4\xac\xe0\xa5\x8b\xe0\xa4\xa7\xe0\xa4\xbf\xe0\xa4\xa4,adj,any,any,,,,'
p1063
sS'chunkid'
p1064
S'JJP2'
p1065
sS'drel'
p1066
S'pof:VGNF'
p1067
sS'chunktype'
p1068
S'head:JJP2'
p1069
ssbsg26
I00
sg27
I00
sg28
Nsg29
Nsg30
I3
sg31
I2
sg32
Nsg33
Nsg34
S'JJ'
p1070
sg36
g1055
sg37
I00
sba(issf_api
Word
p1071
(dp1072
g6
I00
sg7
V\u0915\u0930\u0924\u0947
p1073
sg9
(issf_api
FeatureSet
p1074
(dp1075
g12
(dp1076
S'posn'
p1077
S'80'
p1078
sS'name'
p1079
S'\xe0\xa4\x95\xe0\xa4\xb0\xe0\xa4\xa4\xe0\xa5\x87'
p1080
sS'af'
p1081
S'\xe0\xa4\x95\xe0\xa4\xb0,v,m,sg,any,,\xe0\xa4\xa4\xe0\xa4\xbe_\xe0\xa4\xb9\xe0\xa5\x8b+\xe0\xa4\xaf\xe0\xa4\xbe,wA'
p1082
sS'chunkid'
p1083
S'VGNF'
p1084
sS'drel'
p1085
S'vmod:VGF'
p1086
sS'vpos'
p1087
S'tam_2'
p1088
sS'chunktype'
p1089
S'head:VGNF'
p1090
ssbsg26
I00
sg27
I00
sg28
Nsg29
Nsg30
I4
sg31
I2
sg32
Nsg33
Nsg34
S'VM'
p1091
sg36
g1074
sg37
I00
sba(issf_api
Word
p1092
(dp1093
g6
I00
sg7
V\u0939\u0941\u090f
p1094
sg9
(issf_api
FeatureSet
p1095
(dp1096
g12
(dp1097
S'posn'
p1098
S'90'
p1099
sS'name'
p1100
S'\xe0\xa4\xb9\xe0\xa5\x81\xe0\xa4\x8f'
p1101
sS'drel'
p1102
S'lwg__vaux:VGNF'
p1103
sS'chunktype'
p1104
S'child:VGNF'
p1105
sS'af'
p1106
S'\xe0\xa4\xb9\xe0\xa5\x8b,v,m,sg,any,,\xe0\xa4\xaf\xe0\xa4\xbe,yA'
p1107
ssbsg26
I00
sg27
I00
sg28
Nsg29
Nsg30
I4
sg31
I2
sg32
Nsg33
Nsg34
S'VAUX'
p1108
sg36
g1095
sg37
I00
sba(issf_api
Word
p1109
(dp1110
g6
I00
sg7
V\u0938\u093f\u0902\u0939
p1111
sg9
(issf_api
FeatureSet
p1112
(dp1113
g12
(dp1114
S'crefhead'
p1115
S'\xe0\xa4\xb8\xe0\xa4\xbf\xe0\xa4\x82\xe0\xa4\xb9:i9'
p1116
sS'posn'
p1117
S'100'
p1118
sS'name'
p1119
S'\xe0\xa4\xb8\xe0\xa4\xbf\xe0\xa4\x82\xe0\xa4\xb9'
p1120
sS'af'
p1121
S'\xe0\xa4\xb8\xe0\xa4\xbf\xe0\xa4\x82\xe0\xa4\xb9,n,m,sg,3,o,0_\xe0\xa4\xa8\xe0\xa5\x87,0'
p1122
sS'chunkid'
p1123
S'NP3'
p1124
sS'creftype'
p1125
S'Coreference-Identity:i7'
p1126
sS'chunktype'
p1127
S'head:NP3'
p1128
sS'vpos'
p1129
S'vib_2'
p1130
sS'cref'
p1131
S'i9%1:t1'
p1132
sS'drel'
p1133
S'k1:VGF'
p1134
ssbsg26
I00
sg27
I00
sg28
Nsg29
Nsg30
I5
sg31
I2
sg32
Nsg33
Nsg34
S'NNP'
p1135
sg36
g1112
sg37
I00
sba(issf_api
Word
p1136
(dp1137
g6
I00
sg7
V\u0928\u0947
p1138
sg9
(issf_api
FeatureSet
p1139
(dp1140
g12
(dp1141
S'posn'
p1142
S'110'
p1143
sS'name'
p1144
S'\xe0\xa4\xa8\xe0\xa5\x87'
p1145
sS'drel'
p1146
S'lwg__psp:NP3'
p1147
sS'chunktype'
p1148
S'child:NP3'
p1149
sS'af'
p1150
S'\xe0\xa4\xa8\xe0\xa5\x87,psp,,,,,,'
p1151
ssbsg26
I00
sg27
I00
sg28
Nsg29
Nsg30
I5
sg31
I2
sg32
Nsg33
Nsg34
S'PSP'
p1152
sg36
g1139
sg37
I00
sba(issf_api
Word
p1153
(dp1154
g6
I00
sg7
V\u0915\u0939\u093e
p1155
sg9
(issf_api
FeatureSet
p1156
(dp1157
g12
(dp1158
S'posn'
p1159
S'120'
p1160
sS'name'
p1161
S'\xe0\xa4\x95\xe0\xa4\xb9\xe0\xa4\xbe'
p1162
sS'af'
p1163
S'\xe0\xa4\x95\xe0\xa4\xb9,v,m,sg,any,,\xe0\xa4\xaf\xe0\xa4\xbe,yA'
p1164
sS'chunkid'
p1165
S'VGF'
p1166
sS'chunktype'
p1167
S'head:VGF'
p1168
sS'voicetype'
p1169
S'active'
p1170
sS'stype'
p1171
S'declarative'
p1172
ssbsg26
I00
sg27
I00
sg28
Nsg29
Nsg30
I6
sg31
I2
sg32
Nsg33
Nsg34
S'VM'
p1173
sg36
g1156
sg37
I00
sba(issf_api
Word
p1174
(dp1175
g6
I00
sg7
V\u0915\u093f
p1176
sg9
(issf_api
FeatureSet
p1177
(dp1178
g12
(dp1179
S'posn'
p1180
S'130'
p1181
sS'name'
p1182
S'\xe0\xa4\x95\xe0\xa4\xbf'
p1183
sS'af'
p1184
S'\xe0\xa4\x95\xe0\xa4\xbf,avy,,,,,,'
p1185
sS'chunkid'
p1186
S'CCP'
p1187
sS'drel'
p1188
S'k2:VGF'
p1189
sS'chunktype'
p1190
S'head:CCP'
p1191
ssbsg26
I00
sg27
I00
sg28
Nsg29
Nsg30
I7
sg31
I2
sg32
Nsg33
Nsg34
S'CC'
p1192
sg36
g1177
sg37
I00
sba(issf_api
Word
p1193
(dp1194
g6
I00
sg7
V\u0932\u094b\u0915\u0924\u0902\u0924\u094d\u0930
p1195
sg9
(issf_api
FeatureSet
p1196
(dp1197
g12
(dp1198
S'crefhead'
p1199
S'\xe0\xa4\xb2\xe0\xa5\x8b\xe0\xa4\x95\xe0\xa4\xa4\xe0\xa4\x82\xe0\xa4\xa4\xe0\xa5\x8d\xe0\xa4\xb0:i10'
p1200
sS'posn'
p1201
S'140'
p1202
sS'name'
p1203
S'\xe0\xa4\xb2\xe0\xa5\x8b\xe0\xa4\x95\xe0\xa4\xa4\xe0\xa4\x82\xe0\xa4\xa4\xe0\xa5\x8d\xe0\xa4\xb0'
p1204
sS'af'
p1205
S'\xe0\xa4\xb2\xe0\xa5\x8b\xe0\xa4\x95\xe0\xa4\xa4\xe0\xa4\x82\xe0\xa4\xa4\xe0\xa5\x8d\xe0\xa4\xb0,n,m,sg,3,o,0,0'
p1206
sS'chunkid'
p1207
S'NP4'
p1208
sS'creftype'
p1209
S'Coreference-Identity:i4'
p1210
sS'chunktype'
p1211
S'head:NP4'
p1212
sS'cref'
p1213
S'i10%1:t3,i11%0:t6'
p1214
sS'drel'
p1215
S'ccof:CCP2'
p1216
ssbsg26
I00
sg27
I00
sg28
Nsg29
Nsg30
I8
sg31
I2
sg32
Nsg33
Nsg34
S'NN'
p1217
sg36
g1196
sg37
I00
sba(issf_api
Word
p1218
(dp1219
g6
I00
sg7
V\u0914\u0930
p1220
sg9
(issf_api
FeatureSet
p1221
(dp1222
g12
(dp1223
S'posn'
p1224
S'150'
p1225
sS'name'
p1226
S'\xe0\xa4\x94\xe0\xa4\xb0'
p1227
sS'af'
p1228
S'\xe0\xa4\x94\xe0\xa4\xb0,avy,,,,,,'
p1229
sS'chunkid'
p1230
S'CCP2'
p1231
sS'drel'
p1232
S'k7:VGF2'
p1233
sS'chunktype'
p1234
S'head:CCP2'
p1235
sS'cref'
p1236
S'i11%0:t6'
p1237
ssbsg26
I00
sg27
I00
sg28
Nsg29
Nsg30
I9
sg31
I2
sg32
Nsg33
Nsg34
S'CC'
p1238
sg36
g1221
sg37
I00
sba(issf_api
Word
p1239
(dp1240
g6
I00
sg7
V\u0915\u093e\u0928\u0942\u0928
p1241
sg9
(issf_api
FeatureSet
p1242
(dp1243
g12
(dp1244
S'posn'
p1245
S'160'
p1246
sS'name'
p1247
S'\xe0\xa4\x95\xe0\xa4\xbe\xe0\xa4\xa8\xe0\xa5\x82\xe0\xa4\xa8'
p1248
sS'af'
p1249
S'\xe0\xa4\x95\xe0\xa4\xbe\xe0\xa4\xa8\xe0\xa5\x82\xe0\xa4\xa8,n,m,sg,3,o,0_\xe0\xa4\x95\xe0\xa4\xbe,0'
p1250
sS'chunkid'
p1251
S'NP5'
p1252
sS'drel'
p1253
S'r6:NP6'
p1254
sS'chunktype'
p1255
S'head:NP5'
p1256
sS'vpos'
p1257
S'vib_2'
p1258
sS'cref'
p1259
S'i11%0:t6'
p1260
ssbsg26
I00
sg27
I00
sg28
Nsg29
Nsg30
I10
sg31
I2
sg32
Nsg33
Nsg34
S'NN'
p1261
sg36
g1242
sg37
I00
sba(issf_api
Word
p1262
(dp1263
g6
I00
sg7
V\u0915\u0947
p1264
sg9
(issf_api
FeatureSet
p1265
(dp1266
g12
(dp1267
S'posn'
p1268
S'170'
p1269
sS'name'
p1270
S'\xe0\xa4\x95\xe0\xa5\x87'
p1271
sS'af'
p1272
S'\xe0\xa4\x95\xe0\xa4\xbe,psp,m,sg,,o,,'
p1273
sS'drel'
p1274
S'lwg__psp:NP5'
p1275
sS'chunktype'
p1276
S'child:NP5'
p1277
sS'cref'
p1278
S'i11%0:t6'
p1279
ssbsg26
I00
sg27
I00
sg28
Nsg29
Nsg30
I10
sg31
I2
sg32
Nsg33
Nsg34
S'PSP'
p1280
sg36
g1265
sg37
I00
sba(issf_api
Word
p1281
(dp1282
g6
I00
sg7
V\u0936\u093e\u0938\u0928
p1283
sg9
(issf_api
FeatureSet
p1284
(dp1285
g12
(dp1286
S'posn'
p1287
S'180'
p1288
sS'name'
p1289
S'\xe0\xa4\xb6\xe0\xa4\xbe\xe0\xa4\xb8\xe0\xa4\xa8'
p1290
sS'af'
p1291
S'\xe0\xa4\xb6\xe0\xa4\xbe\xe0\xa4\xb8\xe0\xa4\xa8,n,m,sg,3,o,0_\xe0\xa4\xae\xe0\xa5\x87\xe0\xa4\x82,0'
p1292
sS'chunkid'
p1293
S'NP6'
p1294
sS'drel'
p1295
S'ccof:CCP2'
p1296
sS'chunktype'
p1297
S'head:NP6'
p1298
sS'vpos'
p1299
S'vib_2'
p1300
sS'cref'
p1301
S'i11%0:t6'
p1302
ssbsg26
I00
sg27
I00
sg28
Nsg29
Nsg30
I11
sg31
I2
sg32
Nsg33
Nsg34
S'NN'
p1303
sg36
g1284
sg37
I00
sba(issf_api
Word
p1304
(dp1305
g6
I00
sg7
V\u092e\u0947\u0902
p1306
sg9
(issf_api
FeatureSet
p1307
(dp1308
g12
(dp1309
S'posn'
p1310
S'190'
p1311
sS'name'
p1312
S'\xe0\xa4\xae\xe0\xa5\x87\xe0\xa4\x82'
p1313
sS'af'
p1314
S'\xe0\xa4\xae\xe0\xa5\x87\xe0\xa4\x82,psp,,,,,,'
p1315
sS'drel'
p1316
S'lwg__psp:NP6'
p1317
sS'chunktype'
p1318
S'child:NP6'
p1319
sS'cref'
p1320
S'i11%0:t6'
p1321
ssbsg26
I00
sg27
I00
sg28
Nsg29
Nsg30
I11
sg31
I2
sg32
Nsg33
Nsg34
S'PSP'
p1322
sg36
g1307
sg37
I00
sba(issf_api
Word
p1323
(dp1324
g6
I00
sg7
V\u0906\u0938\u094d\u0925\u093e
p1325
sg9
(issf_api
FeatureSet
p1326
(dp1327
g12
(dp1328
S'posn'
p1329
S'200'
p1330
sS'name'
p1331
S'\xe0\xa4\x86\xe0\xa4\xb8\xe0\xa5\x8d\xe0\xa4\xa5\xe0\xa4\xbe'
p1332
sS'af'
p1333
S'\xe0\xa4\x86\xe0\xa4\xb8\xe0\xa5\x8d\xe0\xa4\xa5\xe0\xa4\xbe,n,f,sg,3,d,0,0'
p1334
sS'chunkid'
p1335
S'NP7'
p1336
sS'drel'
p1337
S'k2:VGNN'
p1338
sS'chunktype'
p1339
S'head:NP7'
p1340
sS'cref'
p1341
S'i11%0:t6'
p1342
ssbsg26
I00
sg27
I00
sg28
Nsg29
Nsg30
I12
sg31
I2
sg32
Nsg33
Nsg34
S'NN'
p1343
sg36
g1326
sg37
I00
sba(issf_api
Word
p1344
(dp1345
g6
I00
sg7
V\u0930\u0916\u0928\u0947
p1346
sg9
(issf_api
FeatureSet
p1347
(dp1348
g12
(dp1349
S'crefhead'
p1350
S'\xe0\xa4\xb0\xe0\xa4\x96\xe0\xa4\xa8\xe0\xa5\x87:i11'
p1351
sS'posn'
p1352
S'210'
p1353
sS'name'
p1354
S'\xe0\xa4\xb0\xe0\xa4\x96\xe0\xa4\xa8\xe0\xa5\x87'
p1355
sS'af'
p1356
S'\xe0\xa4\xb0\xe0\xa4\x96,v,m,any,any,o,\xe0\xa4\xa8\xe0\xa4\xbe_\xe0\xa4\xb5\xe0\xa4\xbe\xe0\xa4\xb2\xe0\xa4\xbe_\xe0\xa4\x95\xe0\xa5\x8b,nA'
p1357
sS'chunkid'
p1358
S'VGNN'
p1359
sS'chunktype'
p1360
S'head:VGNN'
p1361
sS'crefchainhead'
p1362
S'i11:t6'
p1363
sS'vpos'
p1364
S'tam_2_3'
p1365
sS'cref'
p1366
S'i11%0:t6'
p1367
sS'drel'
p1368
S'k4:VGF2'
p1369
ssbsg26
I00
sg27
I00
sg28
Nsg29
Nsg30
I13
sg31
I2
sg32
Nsg33
Nsg34
S'VM'
p1370
sg36
g1347
sg37
I00
sba(issf_api
Word
p1371
(dp1372
g6
I00
sg7
V\u0935\u093e\u0932\u094b\u0902
p1373
sg9
(issf_api
FeatureSet
p1374
(dp1375
g12
(dp1376
S'posn'
p1377
S'220'
p1378
sS'name'
p1379
S'\xe0\xa4\xb5\xe0\xa4\xbe\xe0\xa4\xb2\xe0\xa5\x8b\xe0\xa4\x82'
p1380
sS'af'
p1381
S'\xe0\xa4\xb5\xe0\xa4\xbe\xe0\xa4\xb2\xe0\xa4\xbe,psp,m,pl,,o,,'
p1382
sS'drel'
p1383
S'lwg__psp:VGNN'
p1384
sS'chunktype'
p1385
S'child:VGNN'
p1386
sS'cref'
p1387
S'i11%1:t6'
p1388
ssbsg26
I00
sg27
I00
sg28
Nsg29
Nsg30
I13
sg31
I2
sg32
Nsg33
Nsg34
S'PSP'
p1389
sg36
g1374
sg37
I00
sba(issf_api
Word
p1390
(dp1391
g6
I00
sg7
V\u0915\u094b
p1392
sg9
(issf_api
FeatureSet
p1393
(dp1394
g12
(dp1395
S'posn'
p1396
S'230'
p1397
sS'name'
p1398
S'\xe0\xa4\x95\xe0\xa5\x8b2'
p1399
sS'drel'
p1400
S'lwg__psp:VGNN'
p1401
sS'chunktype'
p1402
S'child:VGNN'
p1403
sS'af'
p1404
S'\xe0\xa4\x95\xe0\xa5\x8b,psp,,,,,,'
p1405
ssbsg26
I00
sg27
I00
sg28
Nsg29
Nsg30
I13
sg31
I2
sg32
Nsg33
Nsg34
S'PSP'
p1406
sg36
g1393
sg37
I00
sba(issf_api
Word
p1407
(dp1408
g6
I00
sg7
V\u091a\u093e\u0939\u093f\u090f
p1409
sg9
(issf_api
FeatureSet
p1410
(dp1411
g12
(dp1412
S'posn'
p1413
S'240'
p1414
sS'name'
p1415
S'\xe0\xa4\x9a\xe0\xa4\xbe\xe0\xa4\xb9\xe0\xa4\xbf\xe0\xa4\x8f'
p1416
sS'af'
p1417
S'\xe0\xa4\x9a\xe0\xa4\xbe\xe0\xa4\xb9\xe0\xa4\xbf\xe0\xa4\x8f,v,any,any,any,,0,0'
p1418
sS'chunkid'
p1419
S'VGF2'
p1420
sS'stype'
p1421
S'declarative'
p1422
sS'drel'
p1423
S'ccof:CCP'
p1424
sS'voicetype'
p1425
S'active'
p1426
sS'chunktype'
p1427
S'head:VGF2'
p1428
ssbsg26
I00
sg27
I00
sg28
Nsg29
Nsg30
I14
sg31
I2
sg32
Nsg33
Nsg34
S'VM'
p1429
sg36
g1410
sg37
I00
sba(issf_api
Word
p1430
(dp1431
g6
I00
sg7
V\u0915\u093f
p1432
sg9
(issf_api
FeatureSet
p1433
(dp1434
g12
(dp1435
S'posn'
p1436
S'250'
p1437
sS'name'
p1438
S'\xe0\xa4\x95\xe0\xa4\xbf2'
p1439
sS'af'
p1440
S'\xe0\xa4\x95\xe0\xa4\xbf,avy,,,,,,'
p1441
sS'chunkid'
p1442
S'CCP3'
p1443
sS'drel'
p1444
S'k2:VGF2'
p1445
sS'chunktype'
p1446
S'head:CCP3'
p1447
ssbsg26
I00
sg27
I00
sg28
Nsg29
Nsg30
I15
sg31
I2
sg32
Nsg33
Nsg34
S'CC'
p1448
sg36
g1433
sg37
I00
sba(issf_api
Word
p1449
(dp1450
g6
I00
sg7
V\u0935\u0947
p1451
sg9
(issf_api
FeatureSet
p1452
(dp1453
g12
(dp1454
S'crefhead'
p1455
S'\xe0\xa4\xb5\xe0\xa5\x87:i12'
p1456
sS'posn'
p1457
S'260'
p1458
sS'name'
p1459
S'\xe0\xa4\xb5\xe0\xa5\x87'
p1460
sS'af'
p1461
S'\xe0\xa4\xb5\xe0\xa4\xb9,pn,any,pl,3,d,0,0'
p1462
sS'chunkid'
p1463
S'NP8'
p1464
sS'creftype'
p1465
S'Anaphora-C:i11'
p1466
sS'chunktype'
p1467
S'head:NP8'
p1468
sS'cref'
p1469
S'i12%1:t6'
p1470
sS'drel'
p1471
S'k1:VGF3'
p1472
ssbsg26
I00
sg27
I00
sg28
Nsg29
Nsg30
I16
sg31
I2
sg32
Nsg33
Nsg34
S'PRP'
p1473
sg36
g1452
sg37
I00
sba(issf_api
Word
p1474
(dp1475
g6
I00
sg7
V\u092e\u093f\u0932\u0915\u0930
p1476
sg9
(issf_api
FeatureSet
p1477
(dp1478
g12
(dp1479
S'posn'
p1480
S'270'
p1481
sS'name'
p1482
S'\xe0\xa4\xae\xe0\xa4\xbf\xe0\xa4\xb2\xe0\xa4\x95\xe0\xa4\xb0'
p1483
sS'af'
p1484
S'\xe0\xa4\xae\xe0\xa4\xbf\xe0\xa4\xb2,v,any,any,any,,\xe0\xa4\x95\xe0\xa4\xb0,kara'
p1485
sS'chunkid'
p1486
S'VGNF2'
p1487
sS'drel'
p1488
S'vmod:VGF3'
p1489
sS'chunktype'
p1490
S'head:VGNF2'
p1491
ssbsg26
I00
sg27
I00
sg28
Nsg29
Nsg30
I17
sg31
I2
sg32
Nsg33
Nsg34
S'VM'
p1492
sg36
g1477
sg37
I00
sba(issf_api
Word
p1493
(dp1494
g6
I00
sg7
V\u0906\u0924\u0902\u0915\u0935\u093e\u0926
p1495
sg9
(issf_api
FeatureSet
p1496
(dp1497
g12
(dp1498
S'crefhead'
p1499
S'\xe0\xa4\x86\xe0\xa4\xa4\xe0\xa4\x82\xe0\xa4\x95\xe0\xa4\xb5\xe0\xa4\xbe\xe0\xa4\xa6:i13'
p1500
sS'posn'
p1501
S'280'
p1502
sS'name'
p1503
S'\xe0\xa4\x86\xe0\xa4\xa4\xe0\xa4\x82\xe0\xa4\x95\xe0\xa4\xb5\xe0\xa4\xbe\xe0\xa4\xa6'
p1504
sS'af'
p1505
S'\xe0\xa4\x86\xe0\xa4\xa4\xe0\xa4\x82\xe0\xa4\x95\xe0\xa4\xb5\xe0\xa4\xbe\xe0\xa4\xa6,n,m,sg,3,o,0_\xe0\xa4\x95\xe0\xa4\xbe,0'
p1506
sS'chunkid'
p1507
S'NP9'
p1508
sS'creftype'
p1509
S'Coreference-Noun-Noun:i5'
p1510
sS'chunktype'
p1511
S'head:NP9'
p1512
sS'vpos'
p1513
S'vib_2'
p1514
sS'cref'
p1515
S'i13%1:t2'
p1516
sS'drel'
p1517
S'r6-k2:NP10'
p1518
ssbsg26
I00
sg27
I00
sg28
Nsg29
Nsg30
I18
sg31
I2
sg32
Nsg33
Nsg34
S'NN'
p1519
sg36
g1496
sg37
I00
sba(issf_api
Word
p1520
(dp1521
g6
I00
sg7
V\u0915\u093e
p1522
sg9
(issf_api
FeatureSet
p1523
(dp1524
g12
(dp1525
S'posn'
p1526
S'290'
p1527
sS'name'
p1528
S'\xe0\xa4\x95\xe0\xa4\xbe'
p1529
sS'drel'
p1530
S'lwg__psp:NP9'
p1531
sS'chunktype'
p1532
S'child:NP9'
p1533
sS'af'
p1534
S'\xe0\xa4\x95\xe0\xa4\xbe,psp,m,sg,,d,,'
p1535
ssbsg26
I00
sg27
I00
sg28
Nsg29
Nsg30
I18
sg31
I2
sg32
Nsg33
Nsg34
S'PSP'
p1536
sg36
g1523
sg37
I00
sba(issf_api
Word
p1537
(dp1538
g6
I00
sg7
V\u092e\u0941\u0915\u093e\u092c\u0932\u093e
p1539
sg9
(issf_api
FeatureSet
p1540
(dp1541
g12
(dp1542
S'posn'
p1543
S'300'
p1544
sS'name'
p1545
S'\xe0\xa4\xae\xe0\xa5\x81\xe0\xa4\x95\xe0\xa4\xbe\xe0\xa4\xac\xe0\xa4\xb2\xe0\xa4\xbe'
p1546
sS'af'
p1547
S'\xe0\xa4\xae\xe0\xa5\x81\xe0\xa4\x95\xe0\xa4\xbe\xe0\xa4\xac\xe0\xa4\xb2\xe0\xa4\xbe,n,m,sg,3,d,0,0'
p1548
sS'chunkid'
p1549
S'NP10'
p1550
sS'drel'
p1551
S'pof:VGF3'
p1552
sS'chunktype'
p1553
S'head:NP10'
p1554
ssbsg26
I00
sg27
I00
sg28
Nsg29
Nsg30
I19
sg31
I2
sg32
Nsg33
Nsg34
S'NN'
p1555
sg36
g1540
sg37
I00
sba(issf_api
Word
p1556
(dp1557
g6
I00
sg7
V\u0915\u0930\u0947\u0902
p1558
sg9
(issf_api
FeatureSet
p1559
(dp1560
g12
(dp1561
S'posn'
p1562
S'310'
p1563
sS'name'
p1564
S'\xe0\xa4\x95\xe0\xa4\xb0\xe0\xa5\x87\xe0\xa4\x82'
p1565
sS'af'
p1566
S'\xe0\xa4\x95\xe0\xa4\xb0,v,any,pl,3,,\xe0\xa4\x8f\xe0\xa4\x82,eM'
p1567
sS'chunkid'
p1568
S'VGF3'
p1569
sS'stype'
p1570
S'imperative'
p1571
sS'drel'
p1572
S'ccof:CCP3'
p1573
sS'voicetype'
p1574
S'active'
p1575
sS'chunktype'
p1576
S'head:VGF3'
p1577
ssbsg26
I00
sg27
I00
sg28
Nsg29
Nsg30
I20
sg31
I2
sg32
Nsg33
Nsg34
S'VM'
p1578
sg36
g1559
sg37
I00
sba(issf_api
Word
p1579
(dp1580
g6
I00
sg7
V\u0964
p1581
sg9
(issf_api
FeatureSet
p1582
(dp1583
g12
(dp1584
S'posn'
p1585
S'320'
p1586
sS'name'
p1587
S'\xe0\xa5\xa4'
p1588
sS'af'
p1589
S'\xe0\xa5\xa4,punc,,,,,,'
p1590
sS'chunkid'
p1591
S'BLK'
p1592
sS'drel'
p1593
S'rsym:VGF'
p1594
sS'chunktype'
p1595
S'head:BLK'
p1596
ssbsg26
I00
sg27
I00
sg28
Nsg29
Nsg30
I21
sg31
I2
sg32
Nsg33
Nsg34
S'SYM'
p1597
sg36
g1582
sg37
I00
sba(issf_api
Word
p1598
(dp1599
g6
I00
sg7
V\u0909\u0928\u094d\u0939\u094b\u0902\u0928\u0947
p1600
sg9
(issf_api
FeatureSet
p1601
(dp1602
g12
(dp1603
S'crefhead'
p1604
S'\xe0\xa4\x89\xe0\xa4\xa8\xe0\xa5\x8d\xe0\xa4\xb9\xe0\xa5\x8b\xe0\xa4\x82\xe0\xa4\xa8\xe0\xa5\x87:i14,\xe0\xa4\x89\xe0\xa4\xa8\xe0\xa5\x8d\xe0\xa4\xb9\xe0\xa5\x8b\xe0\xa4\x82\xe0\xa4\xa8\xe0\xa5\x87:i15'
p1605
sS'posn'
p1606
S'10'
p1607
sS'name'
p1608
S'\xe0\xa4\x89\xe0\xa4\xa8\xe0\xa5\x8d\xe0\xa4\xb9\xe0\xa5\x8b\xe0\xa4\x82\xe0\xa4\xa8\xe0\xa5\x87'
p1609
sS'af'
p1610
S'\xe0\xa4\xb5\xe0\xa4\xb9,pn,any,sg,3,o,\xe0\xa4\xa8\xe0\xa5\x87,ne'
p1611
sS'chunkid'
p1612
S'NP'
p1613
sS'creftype'
p1614
S'Anaphora-C:i9'
p1615
sS'chunktype'
p1616
S'head:NP'
p1617
sS'cref'
p1618
S'i14%1:t1,i15%1:t1'
p1619
sS'drel'
p1620
S'k1:VGF'
p1621
ssbsg26
I00
sg27
I00
sg28
Nsg29
Nsg30
I0
sg31
I3
sg32
Nsg33
Nsg34
S'PRP'
p1622
sg36
g1601
sg37
I00
sba(issf_api
Word
p1623
(dp1624
g6
I00
sg7
V\u0915\u0939\u093e
p1625
sg9
(issf_api
FeatureSet
p1626
(dp1627
g12
(dp1628
S'posn'
p1629
S'20'
p1630
sS'name'
p1631
S'\xe0\xa4\x95\xe0\xa4\xb9\xe0\xa4\xbe'
p1632
sS'af'
p1633
S'\xe0\xa4\x95\xe0\xa4\xb9,v,m,sg,any,,\xe0\xa4\xaf\xe0\xa4\xbe,yA'
p1634
sS'chunkid'
p1635
S'VGF'
p1636
sS'chunktype'
p1637
S'head:VGF'
p1638
sS'voicetype'
p1639
S'active'
p1640
sS'stype'
p1641
S'declarative'
p1642
ssbsg26
I00
sg27
I00
sg28
Nsg29
Nsg30
I1
sg31
I3
sg32
Nsg33
Nsg34
S'VM'
p1643
sg36
g1626
sg37
I00
sba(issf_api
Word
p1644
(dp1645
g6
I00
sg7
V\u0915\u093f
p1646
sg9
(issf_api
FeatureSet
p1647
(dp1648
g12
(dp1649
S'posn'
p1650
S'30'
p1651
sS'name'
p1652
S'\xe0\xa4\x95\xe0\xa4\xbf'
p1653
sS'af'
p1654
S'\xe0\xa4\x95\xe0\xa4\xbf,avy,,,,,,'
p1655
sS'chunkid'
p1656
S'CCP'
p1657
sS'drel'
p1658
S'k2:VGF'
p1659
sS'chunktype'
p1660
S'head:CCP'
p1661
ssbsg26
I00
sg27
I00
sg28
Nsg29
Nsg30
I2
sg31
I3
sg32
Nsg33
Nsg34
S'CC'
p1662
sg36
g1647
sg37
I00
sba(issf_api
Word
p1663
(dp1664
g6
I00
sg7
V\u0906\u0924\u0902\u0915\u0935\u093e\u0926
p1665
sg9
(issf_api
FeatureSet
p1666
(dp1667
g12
(dp1668
S'crefhead'
p1669
S'\xe0\xa4\x86\xe0\xa4\xa4\xe0\xa4\x82\xe0\xa4\x95\xe0\xa4\xb5\xe0\xa4\xbe\xe0\xa4\xa6:i16'
p1670
sS'posn'
p1671
S'40'
p1672
sS'name'
p1673
S'\xe0\xa4\x86\xe0\xa4\xa4\xe0\xa4\x82\xe0\xa4\x95\xe0\xa4\xb5\xe0\xa4\xbe\xe0\xa4\xa6'
p1674
sS'af'
p1675
S'\xe0\xa4\x86\xe0\xa4\xa4\xe0\xa4\x82\xe0\xa4\x95\xe0\xa4\xb5\xe0\xa4\xbe\xe0\xa4\xa6,n,m,sg,3,d,0,0'
p1676
sS'chunkid'
p1677
S'NP2'
p1678
sS'creftype'
p1679
S'Coreference-Identity:i13'
p1680
sS'chunktype'
p1681
S'head:NP2'
p1682
sS'cref'
p1683
S'i16%1:t2'
p1684
sS'drel'
p1685
S'k1:VGF2'
p1686
ssbsg26
I00
sg27
I00
sg28
Nsg29
Nsg30
I3
sg31
I3
sg32
Nsg33
Nsg34
S'NN'
p1687
sg36
g1666
sg37
I00
sba(issf_api
Word
p1688
(dp1689
g6
I00
sg7
V\u0915\u093e\u092f\u0930\u0924\u093e\u092a\u0942\u0930\u094d\u0923
p1690
sg9
(issf_api
FeatureSet
p1691
(dp1692
g12
(dp1693
S'posn'
p1694
S'50'
p1695
sS'name'
p1696
S'\xe0\xa4\x95\xe0\xa4\xbe\xe0\xa4\xaf\xe0\xa4\xb0\xe0\xa4\xa4\xe0\xa4\xbe\xe0\xa4\xaa\xe0\xa5\x82\xe0\xa4\xb0\xe0\xa5\x8d\xe0\xa4\xa3'
p1697
sS'af'
p1698
S'\xe0\xa4\x95\xe0\xa4\xbe\xe0\xa4\xaf\xe0\xa4\xb0\xe0\xa4\xa4\xe0\xa4\xbe\xe0\xa4\xaa\xe0\xa5\x82\xe0\xa4\xb0\xe0\xa5\x8d\xe0\xa4\xa3,adj,any,any,,d,,'
p1699
sS'drel'
p1700
S'nmod__adj:JJP'
p1701
sS'chunktype'
p1702
S'child:JJP'
p1703
sS'cref'
p1704
S'i17%0:t2'
p1705
ssbsg26
I00
sg27
I00
sg28
Nsg29
Nsg30
I4
sg31
I3
sg32
Nsg33
Nsg34
S'JJ'
p1706
sg36
g1691
sg37
I00
sba(issf_api
Word
p1707
(dp1708
g6
I00
sg7
V\u0915\u0943\u0924
p1709
sg9
(issf_api
FeatureSet
p1710
(dp1711
g12
(dp1712
S'crefhead'
p1713
S'\xe0\xa4\x95\xe0\xa5\x83\xe0\xa4\xa4:i17'
p1714
sS'posn'
p1715
S'50'
p1716
sS'name'
p1717
S'\xe0\xa4\x95\xe0\xa5\x83\xe0\xa4\xa4'
p1718
sS'af'
p1719
S'\xe0\xa4\x95\xe0\xa5\x83\xe0\xa4\xa4,adj,any,any,,d,,'
p1720
sS'chunkid'
p1721
S'JJP'
p1722
sS'creftype'
p1723
S'Coreference-Apposition:i16'
p1724
sS'chunktype'
p1725
S'head:JJP'
p1726
sS'cref'
p1727
S'i17%1:t2'
p1728
sS'drel'
p1729
S'k1s:VGF2'
p1730
ssbsg26
I00
sg27
I00
sg28
Nsg29
Nsg30
I4
sg31
I3
sg32
Nsg33
Nsg34
S'JJ'
p1731
sg36
g1710
sg37
I00
sba(issf_api
Word
p1732
(dp1733
g6
I00
sg7
V\u0939\u0948
p1734
sg9
(issf_api
FeatureSet
p1735
(dp1736
g12
(dp1737
S'posn'
p1738
S'70'
p1739
sS'name'
p1740
S'\xe0\xa4\xb9\xe0\xa5\x88'
p1741
sS'af'
p1742
S'\xe0\xa4\xb9\xe0\xa5\x88,v,any,sg,3,,\xe0\xa4\xb9\xe0\xa5\x88,hE'
p1743
sS'chunkid'
p1744
S'VGF2'
p1745
sS'stype'
p1746
S'declarative'
p1747
sS'drel'
p1748
S'ccof:CCP2'
p1749
sS'voicetype'
p1750
S'active'
p1751
sS'chunktype'
p1752
S'head:VGF2'
p1753
ssbsg26
I00
sg27
I00
sg28
Nsg29
Nsg30
I5
sg31
I3
sg32
Nsg33
Nsg34
S'VM'
p1754
sg36
g1735
sg37
I00
sba(issf_api
Word
p1755
(dp1756
g6
I00
sg7
V\u0914\u0930
p1757
sg9
(issf_api
FeatureSet
p1758
(dp1759
g12
(dp1760
S'posn'
p1761
S'80'
p1762
sS'name'
p1763
S'\xe0\xa4\x94\xe0\xa4\xb0'
p1764
sS'af'
p1765
S'\xe0\xa4\x94\xe0\xa4\xb0,avy,,,,,,'
p1766
sS'chunkid'
p1767
S'CCP2'
p1768
sS'drel'
p1769
S'ccof:CCP'
p1770
sS'chunktype'
p1771
S'head:CCP2'
p1772
ssbsg26
I00
sg27
I00
sg28
Nsg29
Nsg30
I6
sg31
I3
sg32
Nsg33
Nsg34
S'CC'
p1773
sg36
g1758
sg37
I00
sba(issf_api
Word
p1774
(dp1775
g6
I00
sg7
V\u092f\u0939
p1776
sg9
(issf_api
FeatureSet
p1777
(dp1778
g12
(dp1779
S'crefhead'
p1780
S'\xe0\xa4\xaf\xe0\xa4\xb9:i18'
p1781
sS'posn'
p1782
S'90'
p1783
sS'name'
p1784
S'\xe0\xa4\xaf\xe0\xa4\xb9'
p1785
sS'af'
p1786
S'\xe0\xa4\xaf\xe0\xa4\xb9,pn,any,sg,3,d,0,0'
p1787
sS'chunkid'
p1788
S'NP3'
p1789
sS'creftype'
p1790
S'Anaphora-C:i17'
p1791
sS'chunktype'
p1792
S'head:NP3'
p1793
sS'cref'
p1794
S'i18%1:t2'
p1795
sS'drel'
p1796
S'k1:VGF3'
p1797
ssbsg26
I00
sg27
I00
sg28
Nsg29
Nsg30
I7
sg31
I3
sg32
Nsg33
Nsg34
S'PRP'
p1798
sg36
g1777
sg37
I00
sba(issf_api
Word
p1799
(dp1800
g6
I00
sg7
V\u0928\u092b\u093c\u0930\u0924
p1801
sg9
(issf_api
FeatureSet
p1802
(dp1803
g12
(dp1804
S'posn'
p1805
S'100'
p1806
sS'name'
p1807
S'\xe0\xa4\xa8\xe0\xa4\xab\xe0\xa4\xbc\xe0\xa4\xb0\xe0\xa4\xa4'
p1808
sS'af'
p1809
S'\xe0\xa4\xa8\xe0\xa4\xab\xe0\xa4\xb0\xe0\xa4\xa4,n,f,sg,3,d,0,0'
p1810
sS'chunkid'
p1811
S'NP4'
p1812
sS'drel'
p1813
S'k2:VGF3'
p1814
sS'chunktype'
p1815
S'head:NP4'
p1816
ssbsg26
I00
sg27
I00
sg28
Nsg29
Nsg30
I8
sg31
I3
sg32
Nsg33
Nsg34
S'NN'
p1817
sg36
g1802
sg37
I00
sba(issf_api
Word
p1818
(dp1819
g6
I00
sg7
V\u092b\u0948\u0932\u093e\u0924\u093e
p1820
sg9
(issf_api
FeatureSet
p1821
(dp1822
g12
(dp1823
S'posn'
p1824
S'110'
p1825
sS'name'
p1826
S'\xe0\xa4\xab\xe0\xa5\x88\xe0\xa4\xb2\xe0\xa4\xbe\xe0\xa4\xa4\xe0\xa4\xbe'
p1827
sS'af'
p1828
S'\xe0\xa4\xab\xe0\xa5\x88\xe0\xa4\xb2\xe0\xa4\xbe,v,m,sg,3,,\xe0\xa4\xa4\xe0\xa4\xbe_\xe0\xa4\xb9\xe0\xa5\x88,wA'
p1829
sS'chunkid'
p1830
S'VGF3'
p1831
sS'stype'
p1832
S'declarative'
p1833
sS'drel'
p1834
S'ccof:CCP2'
p1835
sS'voicetype'
p1836
S'active'
p1837
sS'vpos'
p1838
S'tam_2'
p1839
sS'chunktype'
p1840
S'head:VGF3'
p1841
ssbsg26
I00
sg27
I00
sg28
Nsg29
Nsg30
I9
sg31
I3
sg32
Nsg33
Nsg34
S'VM'
p1842
sg36
g1821
sg37
I00
sba(issf_api
Word
p1843
(dp1844
g6
I00
sg7
V\u0939\u0948
p1845
sg9
(issf_api
FeatureSet
p1846
(dp1847
g12
(dp1848
S'posn'
p1849
S'120'
p1850
sS'name'
p1851
S'\xe0\xa4\xb9\xe0\xa5\x882'
p1852
sS'drel'
p1853
S'lwg__vaux:VGF3'
p1854
sS'chunktype'
p1855
S'child:VGF3'
p1856
sS'af'
p1857
S'\xe0\xa4\xb9\xe0\xa5\x88,v,any,sg,3,,\xe0\xa4\xb9\xe0\xa5\x88,hE'
p1858
ssbsg26
I00
sg27
I00
sg28
Nsg29
Nsg30
I9
sg31
I3
sg32
Nsg33
Nsg34
S'VAUX'
p1859
sg36
g1846
sg37
I00
sba(issf_api
Word
p1860
(dp1861
g6
I00
sg7
V\u0964
p1862
sg9
(issf_api
FeatureSet
p1863
(dp1864
g12
(dp1865
S'posn'
p1866
S'130'
p1867
sS'name'
p1868
S'\xe0\xa5\xa4'
p1869
sS'af'
p1870
S'\xe0\xa5\xa4,punc,,,,,,'
p1871
sS'chunkid'
p1872
S'BLK'
p1873
sS'drel'
p1874
S'rsym:VGF'
p1875
sS'chunktype'
p1876
S'head:BLK'
p1877
ssbsg26
I00
sg27
I00
sg28
Nsg29
Nsg30
I10
sg31
I3
sg32
Nsg33
Nsg34
S'SYM'
p1878
sg36
g1863
sg37
I00
sba(issf_api
Word
p1879
(dp1880
g6
I00
sg7
V\u0917\u094c\u0930\u0924\u0932\u092c
p1881
sg9
(issf_api
FeatureSet
p1882
(dp1883
g12
(dp1884
S'posn'
p1885
S'10'
p1886
sS'name'
p1887
S'\xe0\xa4\x97\xe0\xa5\x8c\xe0\xa4\xb0\xe0\xa4\xa4\xe0\xa4\xb2\xe0\xa4\xac'
p1888
sS'af'
p1889
S'\xe0\xa4\x97\xe0\xa5\x8c\xe0\xa4\xb0\xe0\xa4\xa4\xe0\xa4\xb2\xe0\xa4\xac,adj,any,any,,,,'
p1890
sS'chunkid'
p1891
S'JJP'
p1892
sS'drel'
p1893
S'k1s:VGF'
p1894
sS'chunktype'
p1895
S'head:JJP'
p1896
ssbsg26
I00
sg27
I00
sg28
Nsg29
Nsg30
I0
sg31
I4
sg32
Nsg33
Nsg34
S'JJ'
p1897
sg36
g1882
sg37
I00
sba(issf_api
Word
p1898
(dp1899
g6
I00
sg7
V\u0939\u0948
p1900
sg9
(issf_api
FeatureSet
p1901
(dp1902
g12
(dp1903
S'posn'
p1904
S'20'
p1905
sS'name'
p1906
S'\xe0\xa4\xb9\xe0\xa5\x88'
p1907
sS'af'
p1908
S'\xe0\xa4\xb9\xe0\xa5\x88,v,any,sg,3,,\xe0\xa4\xb9\xe0\xa5\x88,hE'
p1909
sS'chunkid'
p1910
S'VGF'
p1911
sS'chunktype'
p1912
S'head:VGF'
p1913
sS'voicetype'
p1914
S'active'
p1915
sS'stype'
p1916
S'declarative'
p1917
ssbsg26
I00
sg27
I00
sg28
Nsg29
Nsg30
I1
sg31
I4
sg32
Nsg33
Nsg34
S'VM'
p1918
sg36
g1901
sg37
I00
sba(issf_api
Word
p1919
(dp1920
g6
I00
sg7
V\u0915\u093f
p1921
sg9
(issf_api
FeatureSet
p1922
(dp1923
g12
(dp1924
S'posn'
p1925
S'30'
p1926
sS'name'
p1927
S'\xe0\xa4\x95\xe0\xa4\xbf'
p1928
sS'af'
p1929
S'\xe0\xa4\x95\xe0\xa4\xbf,avy,,,,,,'
p1930
sS'chunkid'
p1931
S'CCP'
p1932
sS'drel'
p1933
S'rs:NULL__NP'
p1934
sS'chunktype'
p1935
S'head:CCP'
p1936
ssbsg26
I00
sg27
I00
sg28
Nsg29
Nsg30
I2
sg31
I4
sg32
Nsg33
Nsg34
S'CC'
p1937
sg36
g1922
sg37
I00
sba(issf_api
Word
p1938
(dp1939
g6
I00
sg7
V\u092c\u0943\u0939\u0938\u094d\u092a\u0924\u093f\u0935\u093e\u0930
p1940
sg9
(issf_api
FeatureSet
p1941
(dp1942
g12
(dp1943
S'posn'
p1944
S'40'
p1945
sS'name'
p1946
S'\xe0\xa4\xac\xe0\xa5\x83\xe0\xa4\xb9\xe0\xa4\xb8\xe0\xa5\x8d\xe0\xa4\xaa\xe0\xa4\xa4\xe0\xa4\xbf\xe0\xa4\xb5\xe0\xa4\xbe\xe0\xa4\xb0'
p1947
sS'af'
p1948
S'\xe0\xa4\xac\xe0\xa5\x83\xe0\xa4\xb9\xe0\xa4\xb8\xe0\xa5\x8d\xe0\xa4\xaa\xe0\xa4\xa4\xe0\xa4\xbf\xe0\xa4\xb5\xe0\xa4\xbe\xe0\xa4\xb0,n,m,sg,3,o,0_\xe0\xa4\x95\xe0\xa5\x8b,0'
p1949
sS'chunkid'
p1950
S'NP'
p1951
sS'drel'
p1952
S'k7t:VGF2'
p1953
sS'vpos'
p1954
S'vib_2'
p1955
sS'chunktype'
p1956
S'head:NP'
p1957
ssbsg26
I00
sg27
I00
sg28
Nsg29
Nsg30
I3
sg31
I4
sg32
Nsg33
Nsg34
S'NNP'
p1958
sg36
g1941
sg37
I00
sba(issf_api
Word
p1959
(dp1960
g6
I00
sg7
V\u0915\u094b
p1961
sg9
(issf_api
FeatureSet
p1962
(dp1963
g12
(dp1964
S'posn'
p1965
S'50'
p1966
sS'name'
p1967
S'\xe0\xa4\x95\xe0\xa5\x8b'
p1968
sS'drel'
p1969
S'lwg__psp:NP'
p1970
sS'chunktype'
p1971
S'child:NP'
p1972
sS'af'
p1973
S'\xe0\xa4\x95\xe0\xa5\x8b,psp,,,,,,'
p1974
ssbsg26
I00
sg27
I00
sg28
Nsg29
Nsg30
I3
sg31
I4
sg32
Nsg33
Nsg34
S'PSP'
p1975
sg36
g1962
sg37
I00
sba(issf_api
Word
p1976
(dp1977
g6
I00
sg7
V\u0932\u0902\u0926\u0928
p1978
sg9
(issf_api
FeatureSet
p1979
(dp1980
g12
(dp1981
S'crefhead'
p1982
S'\xe0\xa4\xb2\xe0\xa4\x82\xe0\xa4\xa6\xe0\xa4\xa8:i19'
p1983
sS'posn'
p1984
S'60'
p1985
sS'name'
p1986
S'\xe0\xa4\xb2\xe0\xa4\x82\xe0\xa4\xa6\xe0\xa4\xa8'
p1987
sS'af'
p1988
S'\xe0\xa4\xb2\xe0\xa4\x82\xe0\xa4\xa6\xe0\xa4\xa8,n,m,sg,3,o,0_\xe0\xa4\xae\xe0\xa5\x87\xe0\xa4\x82,0'
p1989
sS'chunkid'
p1990
S'NP2'
p1991
sS'chunktype'
p1992
S'head:NP2'
p1993
sS'crefchainhead'
p1994
S'i19:t7'
p1995
sS'vpos'
p1996
S'vib_2'
p1997
sS'cref'
p1998
S'i19%1:t7'
p1999
sS'drel'
p2000
S'k7p:VGF2'
p2001
ssbsg26
I00
sg27
I00
sg28
Nsg29
Nsg30
I4
sg31
I4
sg32
Nsg33
Nsg34
S'NNP'
p2002
sg36
g1979
sg37
I00
sba(issf_api
Word
p2003
(dp2004
g6
I00
sg7
V\u092e\u0947\u0902
p2005
sg9
(issf_api
FeatureSet
p2006
(dp2007
g12
(dp2008
S'posn'
p2009
S'70'
p2010
sS'name'
p2011
S'\xe0\xa4\xae\xe0\xa5\x87\xe0\xa4\x82'
p2012
sS'drel'
p2013
S'lwg__psp:NP2'
p2014
sS'chunktype'
p2015
S'child:NP2'
p2016
sS'af'
p2017
S'\xe0\xa4\xae\xe0\xa5\x87\xe0\xa4\x82,psp,,,,,,'
p2018
ssbsg26
I00
sg27
I00
sg28
Nsg29
Nsg30
I4
sg31
I4
sg32
Nsg33
Nsg34
S'PSP'
p2019
sg36
g2006
sg37
I00
sba(issf_api
Word
p2020
(dp2021
g6
I00
sg7
V\u0906\u0924\u0902\u0915\u0940
p2022
sg9
(issf_api
FeatureSet
p2023
(dp2024
g12
(dp2025
S'posn'
p2026
S'80'
p2027
sS'name'
p2028
S'\xe0\xa4\x86\xe0\xa4\xa4\xe0\xa4\x82\xe0\xa4\x95\xe0\xa5\x80'
p2029
sS'drel'
p2030
S'nmod__adj:NP3'
p2031
sS'chunktype'
p2032
S'child:NP3'
p2033
sS'af'
p2034
S'\xe0\xa4\x86\xe0\xa4\xa4\xe0\xa4\x82\xe0\xa4\x95\xe0\xa5\x80,adj,any,any,,d,,'
p2035
ssbsg26
I00
sg27
I00
sg28
Nsg29
Nsg30
I5
sg31
I4
sg32
Nsg33
Nsg34
S'JJ'
p2036
sg36
g2023
sg37
I00
sba(issf_api
Word
p2037
(dp2038
g6
I00
sg7
V\u0939\u092e\u0932\u093e
p2039
sg9
(issf_api
FeatureSet
p2040
(dp2041
g12
(dp2042
S'posn'
p2043
S'90'
p2044
sS'name'
p2045
S'\xe0\xa4\xb9\xe0\xa4\xae\xe0\xa4\xb2\xe0\xa4\xbe'
p2046
sS'af'
p2047
S'\xe0\xa4\xb9\xe0\xa4\xae\xe0\xa4\xb2\xe0\xa4\xbe,n,m,sg,3,d,0,0'
p2048
sS'chunkid'
p2049
S'NP3'
p2050
sS'drel'
p2051
S'pof:VGF2'
p2052
sS'chunktype'
p2053
S'head:NP3'
p2054
ssbsg26
I00
sg27
I00
sg28
Nsg29
Nsg30
I5
sg31
I4
sg32
Nsg33
Nsg34
S'NN'
p2055
sg36
g2040
sg37
I00
sba(issf_api
Word
p2056
(dp2057
g6
I00
sg7
V\u0939\u0941\u0906
p2058
sg9
(issf_api
FeatureSet
p2059
(dp2060
g12
(dp2061
S'posn'
p2062
S'100'
p2063
sS'name'
p2064
S'\xe0\xa4\xb9\xe0\xa5\x81\xe0\xa4\x86'
p2065
sS'af'
p2066
S'\xe0\xa4\xb9\xe0\xa5\x8b,v,m,sg,any,,\xe0\xa4\xaf\xe0\xa4\xbe_\xe0\xa4\xa5\xe0\xa4\xbe,yA'
p2067
sS'chunkid'
p2068
S'VGF2'
p2069
sS'stype'
p2070
S'declarative'
p2071
sS'drel'
p2072
S'ccof:CCP'
p2073
sS'voicetype'
p2074
S'active'
p2075
sS'vpos'
p2076
S'tam_2'
p2077
sS'chunktype'
p2078
S'head:VGF2'
p2079
ssbsg26
I00
sg27
I00
sg28
Nsg29
Nsg30
I6
sg31
I4
sg32
Nsg33
Nsg34
S'VM'
p2080
sg36
g2059
sg37
I00
sba(issf_api
Word
p2081
(dp2082
g6
I00
sg7
V\u0925\u093e
p2083
sg9
(issf_api
FeatureSet
p2084
(dp2085
g12
(dp2086
S'posn'
p2087
S'110'
p2088
sS'name'
p2089
S'\xe0\xa4\xa5\xe0\xa4\xbe'
p2090
sS'drel'
p2091
S'lwg__vaux:VGF2'
p2092
sS'chunktype'
p2093
S'child:VGF2'
p2094
sS'af'
p2095
S'\xe0\xa4\xa5\xe0\xa4\xbe,v,m,sg,any,,\xe0\xa4\xa5\xe0\xa4\xbe,WA'
p2096
ssbsg26
I00
sg27
I00
sg28
Nsg29
Nsg30
I6
sg31
I4
sg32
Nsg33
Nsg34
S'VAUX'
p2097
sg36
g2084
sg37
I00
sba(issf_api
Word
p2098
(dp2099
g6
I00
sg7
V\u0964
p2100
sg9
(issf_api
FeatureSet
p2101
(dp2102
g12
(dp2103
S'posn'
p2104
S'120'
p2105
sS'name'
p2106
S'\xe0\xa5\xa4'
p2107
sS'af'
p2108
S'\xe0\xa5\xa4,punc,,,,,,'
p2109
sS'chunkid'
p2110
S'BLK'
p2111
sS'drel'
p2112
S'rsym:VGF'
p2113
sS'chunktype'
p2114
S'head:BLK'
p2115
ssbsg26
I00
sg27
I00
sg28
Nsg29
Nsg30
I7
sg31
I4
sg32
Nsg33
Nsg34
S'SYM'
p2116
sg36
g2101
sg37
I00
sba(issf_api
Word
p2117
(dp2118
g6
I00
sg7
V\u090f\u0915
p2119
sg9
(issf_api
FeatureSet
p2120
(dp2121
g12
(dp2122
S'posn'
p2123
S'10'
p2124
sS'name'
p2125
S'\xe0\xa4\x8f\xe0\xa4\x95'
p2126
sS'af'
p2127
S'\xe0\xa4\x8f\xe0\xa4\x95,num,any,any,,o,0_\xe0\xa4\x95\xe0\xa5\x87,'
p2128
sS'chunkid'
p2129
S'NP'
p2130
sS'drel'
p2131
S'nmod:NP2'
p2132
sS'vpos'
p2133
S'2'
p2134
sS'chunktype'
p2135
S'head:NP'
p2136
ssbsg26
I00
sg27
I00
sg28
Nsg29
Nsg30
I0
sg31
I5
sg32
Nsg33
Nsg34
S'QC'
p2137
sg36
g2120
sg37
I00
sba(issf_api
Word
p2138
(dp2139
g6
I00
sg7
V\u0915\u0947
p2140
sg9
(issf_api
FeatureSet
p2141
(dp2142
g12
(dp2143
S'posn'
p2144
S'20'
p2145
sS'name'
p2146
S'\xe0\xa4\x95\xe0\xa5\x87'
p2147
sS'drel'
p2148
S'lwg__psp:NP'
p2149
sS'chunktype'
p2150
S'child:NP'
p2151
sS'af'
p2152
S'\xe0\xa4\x95\xe0\xa5\x87,psp,,,,,,'
p2153
ssbsg26
I00
sg27
I00
sg28
Nsg29
Nsg30
I0
sg31
I5
sg32
Nsg33
Nsg34
S'PSP'
p2154
sg36
g2141
sg37
I00
sba(issf_api
Word
p2155
(dp2156
g6
I00
sg7
V\u092c\u093e\u0926
p2157
sg9
(issf_api
FeatureSet
p2158
(dp2159
g12
(dp2160
S'posn'
p2161
S'30'
p2162
sS'name'
p2163
S'\xe0\xa4\xac\xe0\xa4\xbe\xe0\xa4\xa6'
p2164
sS'drel'
p2165
S'lwg__psp:NP'
p2166
sS'chunktype'
p2167
S'child:NP'
p2168
sS'af'
p2169
S'\xe0\xa4\xac\xe0\xa4\xbe\xe0\xa4\xa6,nst,m,sg,3,d,,'
p2170
ssbsg26
I00
sg27
I00
sg28
Nsg29
Nsg30
I0
sg31
I5
sg32
Nsg33
Nsg34
S'NST'
p2171
sg36
g2158
sg37
I00
sba(issf_api
Word
p2172
(dp2173
g6
I00
sg7
V\u090f\u0915
p2174
sg9
(issf_api
FeatureSet
p2175
(dp2176
g12
(dp2177
S'posn'
p2178
S'40'
p2179
sS'name'
p2180
S'\xe0\xa4\x8f\xe0\xa4\x952'
p2181
sS'af'
p2182
S'\xe0\xa4\x8f\xe0\xa4\x95,num,any,any,,any,,'
p2183
sS'chunkid'
p2184
S'NP2'
p2185
sS'drel'
p2186
S'nmod:NP3'
p2187
sS'chunktype'
p2188
S'head:NP2'
p2189
ssbsg26
I00
sg27
I00
sg28
Nsg29
Nsg30
I1
sg31
I5
sg32
Nsg33
Nsg34
S'QC'
p2190
sg36
g2175
sg37
I00
sba(issf_api
Word
p2191
(dp2192
g6
I00
sg7
V\u0915\u0908
p2193
sg9
(issf_api
FeatureSet
p2194
(dp2195
g12
(dp2196
S'posn'
p2197
S'50'
p2198
sS'name'
p2199
S'\xe0\xa4\x95\xe0\xa4\x88'
p2200
sS'drel'
p2201
S'nmod__adj:NP3'
p2202
sS'chunktype'
p2203
S'child:NP3'
p2204
sS'af'
p2205
S'\xe0\xa4\x95\xe0\xa4\x88,avy,,,,,,'
p2206
ssbsg26
I00
sg27
I00
sg28
Nsg29
Nsg30
I2
sg31
I5
sg32
Nsg33
Nsg34
S'QF'
p2207
sg36
g2194
sg37
I00
sba(issf_api
Word
p2208
(dp2209
g6
I00
sg7
V\u0935\u093f\u0938\u094d\u092b\u094b\u091f\u094b\u0902
p2210
sg9
(issf_api
FeatureSet
p2211
(dp2212
g12
(dp2213
S'posn'
p2214
S'60'
p2215
sS'name'
p2216
S'\xe0\xa4\xb5\xe0\xa4\xbf\xe0\xa4\xb8\xe0\xa5\x8d\xe0\xa4\xab\xe0\xa5\x8b\xe0\xa4\x9f\xe0\xa5\x8b\xe0\xa4\x82'
p2217
sS'af'
p2218
S'\xe0\xa4\xb5\xe0\xa4\xbf\xe0\xa4\xb8\xe0\xa5\x8d\xe0\xa4\xab\xe0\xa5\x8b\xe0\xa4\x9f,n,m,pl,3,o,0_\xe0\xa4\xae\xe0\xa5\x87\xe0\xa4\x82,0'
p2219
sS'chunkid'
p2220
S'NP3'
p2221
sS'drel'
p2222
S'k7:VGF'
p2223
sS'vpos'
p2224
S'vib_3'
p2225
sS'chunktype'
p2226
S'head:NP3'
p2227
ssbsg26
I00
sg27
I00
sg28
Nsg29
Nsg30
I2
sg31
I5
sg32
Nsg33
Nsg34
S'NN'
p2228
sg36
g2211
sg37
I00
sba(issf_api
Word
p2229
(dp2230
g6
I00
sg7
V\u092e\u0947\u0902
p2231
sg9
(issf_api
FeatureSet
p2232
(dp2233
g12
(dp2234
S'posn'
p2235
S'70'
p2236
sS'name'
p2237
S'\xe0\xa4\xae\xe0\xa5\x87\xe0\xa4\x82'
p2238
sS'drel'
p2239
S'lwg__psp:NP3'
p2240
sS'chunktype'
p2241
S'child:NP3'
p2242
sS'af'
p2243
S'\xe0\xa4\xae\xe0\xa5\x87\xe0\xa4\x82,psp,,,,,,'
p2244
ssbsg26
I00
sg27
I00
sg28
Nsg29
Nsg30
I2
sg31
I5
sg32
Nsg33
Nsg34
S'PSP'
p2245
sg36
g2232
sg37
I00
sba(issf_api
Word
p2246
(dp2247
g6
I00
sg7
V\u092f\u0939\u093e\u0901
p2248
sg9
(issf_api
FeatureSet
p2249
(dp2250
g12
(dp2251
S'crefhead'
p2252
S'\xe0\xa4\xaf\xe0\xa4\xb9\xe0\xa4\xbe\xe0\xa4\x81:i20'
p2253
sS'posn'
p2254
S'80'
p2255
sS'name'
p2256
S'\xe0\xa4\xaf\xe0\xa4\xb9\xe0\xa4\xbe\xe0\xa4\x81'
p2257
sS'af'
p2258
S'\xe0\xa4\xaf\xe0\xa4\xb9\xe0\xa4\xbe\xe0\xa4\x81,pn,,,,d,,'
p2259
sS'chunkid'
p2260
S'NP4'
p2261
sS'creftype'
p2262
S'Anaphora-C:i19'
p2263
sS'chunktype'
p2264
S'head:NP4'
p2265
sS'cref'
p2266
S'i20%1:t7'
p2267
sS'drel'
p2268
S'k7p:VGF'
p2269
ssbsg26
I00
sg27
I00
sg28
Nsg29
Nsg30
I3
sg31
I5
sg32
Nsg33
Nsg34
S'PRP'
p2270
sg36
g2249
sg37
I00
sba(issf_api
Word
p2271
(dp2272
g6
I00
sg7
V\u096b\u0966
p2273
sg9
(issf_api
FeatureSet
p2274
(dp2275
g12
(dp2276
S'posn'
p2277
S'90'
p2278
sS'name'
p2279
S'\xe0\xa5\xab\xe0\xa5\xa6'
p2280
sS'drel'
p2281
S'nmod__adj:NP5'
p2282
sS'chunktype'
p2283
S'child:NP5'
p2284
sS'af'
p2285
S'\xe0\xa5\xab\xe0\xa5\xa6,num,any,any,,any,,'
p2286
ssbsg26
I00
sg27
I00
sg28
Nsg29
Nsg30
I4
sg31
I5
sg32
Nsg33
Nsg34
S'QC'
p2287
sg36
g2274
sg37
I00
sba(issf_api
Word
p2288
(dp2289
g6
I00
sg7
V\u0932\u094b\u0917
p2290
sg9
(issf_api
FeatureSet
p2291
(dp2292
g12
(dp2293
S'posn'
p2294
S'100'
p2295
sS'name'
p2296
S'\xe0\xa4\xb2\xe0\xa5\x8b\xe0\xa4\x97'
p2297
sS'af'
p2298
S'\xe0\xa4\xb2\xe0\xa5\x8b\xe0\xa4\x97,n,m,pl,3,d,0,0'
p2299
sS'chunkid'
p2300
S'NP5'
p2301
sS'drel'
p2302
S'k2:VGF'
p2303
sS'chunktype'
p2304
S'head:NP5'
p2305
ssbsg26
I00
sg27
I00
sg28
Nsg29
Nsg30
I4
sg31
I5
sg32
Nsg33
Nsg34
S'NN'
p2306
sg36
g2291
sg37
I00
sba(issf_api
Word
p2307
(dp2308
g6
I00
sg7
V\u092e\u093e\u0930\u0947
p2309
sg9
(issf_api
FeatureSet
p2310
(dp2311
g12
(dp2312
S'posn'
p2313
S'110'
p2314
sS'name'
p2315
S'\xe0\xa4\xae\xe0\xa4\xbe\xe0\xa4\xb0\xe0\xa5\x87'
p2316
sS'af'
p2317
S'\xe0\xa4\xae\xe0\xa4\xbe\xe0\xa4\xb0,v,m,pl,3,,\xe0\xa4\xaf\xe0\xa4\xbe_\xe0\xa4\x9c\xe0\xa4\xbe+\xe0\xa4\xaf\xe0\xa4\xbe\xe0\xa5\xa7_\xe0\xa4\xb9\xe0\xa5\x88,yA'
p2318
sS'chunkid'
p2319
S'VGF'
p2320
sS'stype'
p2321
S'declarative'
p2322
sS'drel'
p2323
S'ccof:CCP'
p2324
sS'voicetype'
p2325
S'passive'
p2326
sS'vpos'
p2327
S'tam_2_3'
p2328
sS'chunktype'
p2329
S'head:VGF'
p2330
ssbsg26
I00
sg27
I00
sg28
Nsg29
Nsg30
I5
sg31
I5
sg32
Nsg33
Nsg34
S'VM'
p2331
sg36
g2310
sg37
I00
sba(issf_api
Word
p2332
(dp2333
g6
I00
sg7
V\u0917\u090f
p2334
sg9
(issf_api
FeatureSet
p2335
(dp2336
g12
(dp2337
S'posn'
p2338
S'120'
p2339
sS'name'
p2340
S'\xe0\xa4\x97\xe0\xa4\x8f'
p2341
sS'drel'
p2342
S'lwg__vaux:VGF'
p2343
sS'chunktype'
p2344
S'child:VGF'
p2345
sS'af'
p2346
S'\xe0\xa4\x9c\xe0\xa4\xbe,v,m,pl,any,,\xe0\xa4\xaf\xe0\xa4\xbe\xe0\xa5\xa7,yA1'
p2347
ssbsg26
I00
sg27
I00
sg28
Nsg29
Nsg30
I5
sg31
I5
sg32
Nsg33
Nsg34
S'VAUX'
p2348
sg36
g2335
sg37
I00
sba(issf_api
Word
p2349
(dp2350
g6
I00
sg7
V\u0939\u0948\u0902
p2351
sg9
(issf_api
FeatureSet
p2352
(dp2353
g12
(dp2354
S'posn'
p2355
S'130'
p2356
sS'name'
p2357
S'\xe0\xa4\xb9\xe0\xa5\x88\xe0\xa4\x82'
p2358
sS'drel'
p2359
S'lwg__vaux:VGF'
p2360
sS'chunktype'
p2361
S'child:VGF'
p2362
sS'af'
p2363
S'\xe0\xa4\xb9\xe0\xa5\x88,v,any,pl,3,,\xe0\xa4\xb9\xe0\xa5\x88,hE'
p2364
ssbsg26
I00
sg27
I00
sg28
Nsg29
Nsg30
I5
sg31
I5
sg32
Nsg33
Nsg34
S'VAUX'
p2365
sg36
g2352
sg37
I00
sba(issf_api
Word
p2366
(dp2367
g6
I00
sg7
V\u0914\u0930
p2368
sg9
(issf_api
FeatureSet
p2369
(dp2370
g12
(dp2371
S'posn'
p2372
S'140'
p2373
sS'chunkid'
p2374
S'CCP'
p2375
sS'name'
p2376
S'\xe0\xa4\x94\xe0\xa4\xb0'
p2377
sS'chunktype'
p2378
S'head:CCP'
p2379
sS'af'
p2380
S'\xe0\xa4\x94\xe0\xa4\xb0,avy,,,,,,'
p2381
ssbsg26
I00
sg27
I00
sg28
Nsg29
Nsg30
I6
sg31
I5
sg32
Nsg33
Nsg34
S'CC'
p2382
sg36
g2369
sg37
I00
sba(issf_api
Word
p2383
(dp2384
g6
I00
sg7
V\u090f\u0915
p2385
sg9
(issf_api
FeatureSet
p2386
(dp2387
g12
(dp2388
S'posn'
p2389
S'150'
p2390
sS'name'
p2391
S'\xe0\xa4\x8f\xe0\xa4\x953'
p2392
sS'af'
p2393
S'\xe0\xa4\x8f\xe0\xa4\x95,num,any,any,,any,0_\xe0\xa4\x95\xe0\xa5\x87,'
p2394
sS'chunkid'
p2395
S'NP6'
p2396
sS'drel'
p2397
S'k7:VGF2'
p2398
sS'vpos'
p2399
S'3_RP'
p2400
sS'chunktype'
p2401
S'head:NP6'
p2402
ssbsg26
I00
sg27
I00
sg28
Nsg29
Nsg30
I7
sg31
I5
sg32
Nsg33
Nsg34
S'QCC'
p2403
sg36
g2386
sg37
I00
sba(issf_api
Word
p2404
(dp2405
g6
I00
sg7
V\u0939\u091c\u093e\u0930
p2406
sg9
(issf_api
FeatureSet
p2407
(dp2408
g12
(dp2409
S'posn'
p2410
S'160'
p2411
sS'name'
p2412
S'\xe0\xa4\xb9\xe0\xa4\x9c\xe0\xa4\xbe\xe0\xa4\xb0'
p2413
sS'drel'
p2414
S'ccof:NP6'
p2415
sS'chunktype'
p2416
S'child:NP6'
p2417
sS'af'
p2418
S'\xe0\xa4\xb9\xe0\xa4\x9c\xe0\xa4\xbe\xe0\xa4\xb0,num,any,any,,o,,'
p2419
ssbsg26
I00
sg27
I00
sg28
Nsg29
Nsg30
I7
sg31
I5
sg32
Nsg33
Nsg34
S'QC'
p2420
sg36
g2407
sg37
I00
sba(issf_api
Word
p2421
(dp2422
g6
I00
sg7
V\u0915\u0947
p2423
sg9
(issf_api
FeatureSet
p2424
(dp2425
g12
(dp2426
S'posn'
p2427
S'170'
p2428
sS'name'
p2429
S'\xe0\xa4\x95\xe0\xa5\x872'
p2430
sS'drel'
p2431
S'lwg__psp:NP6'
p2432
sS'chunktype'
p2433
S'child:NP6'
p2434
sS'af'
p2435
S'\xe0\xa4\x95\xe0\xa5\x87,psp,,,,,,'
p2436
ssbsg26
I00
sg27
I00
sg28
Nsg29
Nsg30
I7
sg31
I5
sg32
Nsg33
Nsg34
S'PSP'
p2437
sg36
g2424
sg37
I00
sba(issf_api
Word
p2438
(dp2439
g6
I00
sg7
V\u0915\u0930\u0940\u092c
p2440
sg9
(issf_api
FeatureSet
p2441
(dp2442
g12
(dp2443
S'posn'
p2444
S'180'
p2445
sS'name'
p2446
S'\xe0\xa4\x95\xe0\xa4\xb0\xe0\xa5\x80\xe0\xa4\xac'
p2447
sS'drel'
p2448
S'ccof:NP6'
p2449
sS'chunktype'
p2450
S'child:NP6'
p2451
sS'af'
p2452
S'\xe0\xa4\x95\xe0\xa4\xb0\xe0\xa5\x80\xe0\xa4\xac,avy,,,,,,'
p2453
ssbsg26
I00
sg27
I00
sg28
Nsg29
Nsg30
I7
sg31
I5
sg32
Nsg33
Nsg34
S'RP'
p2454
sg36
g2441
sg37
I00
sba(issf_api
Word
p2455
(dp2456
g6
I00
sg7
V\u0918\u093e\u092f\u0932
p2457
sg9
(issf_api
FeatureSet
p2458
(dp2459
g12
(dp2460
S'posn'
p2461
S'190'
p2462
sS'name'
p2463
S'\xe0\xa4\x98\xe0\xa4\xbe\xe0\xa4\xaf\xe0\xa4\xb2'
p2464
sS'af'
p2465
S'\xe0\xa4\x98\xe0\xa4\xbe\xe0\xa4\xaf\xe0\xa4\xb2,adj,any,any,,,,'
p2466
sS'chunkid'
p2467
S'JJP'
p2468
sS'drel'
p2469
S'pof:VGF2'
p2470
sS'chunktype'
p2471
S'head:JJP'
p2472
ssbsg26
I00
sg27
I00
sg28
Nsg29
Nsg30
I8
sg31
I5
sg32
Nsg33
Nsg34
S'JJ'
p2473
sg36
g2458
sg37
I00
sba(issf_api
Word
p2474
(dp2475
g6
I00
sg7
V\u0939\u0941\u090f
p2476
sg9
(issf_api
FeatureSet
p2477
(dp2478
g12
(dp2479
S'posn'
p2480
S'200'
p2481
sS'name'
p2482
S'\xe0\xa4\xb9\xe0\xa5\x81\xe0\xa4\x8f'
p2483
sS'af'
p2484
S'\xe0\xa4\xb9\xe0\xa5\x8b,v,m,pl,3,,\xe0\xa4\xaf\xe0\xa4\xbe_\xe0\xa4\xb9\xe0\xa5\x88,yA'
p2485
sS'chunkid'
p2486
S'VGF2'
p2487
sS'stype'
p2488
S'declarative'
p2489
sS'drel'
p2490
S'ccof:CCP'
p2491
sS'voicetype'
p2492
S'active'
p2493
sS'vpos'
p2494
S'tam_2'
p2495
sS'chunktype'
p2496
S'head:VGF2'
p2497
ssbsg26
I00
sg27
I00
sg28
Nsg29
Nsg30
I9
sg31
I5
sg32
Nsg33
Nsg34
S'VM'
p2498
sg36
g2477
sg37
I00
sba(issf_api
Word
p2499
(dp2500
g6
I00
sg7
V\u0939\u0948\u0902
p2501
sg9
(issf_api
FeatureSet
p2502
(dp2503
g12
(dp2504
S'posn'
p2505
S'210'
p2506
sS'name'
p2507
S'\xe0\xa4\xb9\xe0\xa5\x88\xe0\xa4\x822'
p2508
sS'drel'
p2509
S'lwg__vaux:VGF2'
p2510
sS'chunktype'
p2511
S'child:VGF2'
p2512
sS'af'
p2513
S'\xe0\xa4\xb9\xe0\xa5\x88,v,any,pl,3,,\xe0\xa4\xb9\xe0\xa5\x88,hE'
p2514
ssbsg26
I00
sg27
I00
sg28
Nsg29
Nsg30
I9
sg31
I5
sg32
Nsg33
Nsg34
S'VAUX'
p2515
sg36
g2502
sg37
I00
sba(issf_api
Word
p2516
(dp2517
g6
I00
sg7
V\u0964
p2518
sg9
(issf_api
FeatureSet
p2519
(dp2520
g12
(dp2521
S'posn'
p2522
S'220'
p2523
sS'name'
p2524
S'\xe0\xa5\xa4'
p2525
sS'af'
p2526
S'\xe0\xa5\xa4,punc,,,,,,'
p2527
sS'chunkid'
p2528
S'BLK'
p2529
sS'drel'
p2530
S'rsym:CCP'
p2531
sS'chunktype'
p2532
S'head:BLK'
p2533
ssbsg26
I00
sg27
I00
sg28
Nsg29
Nsg30
I10
sg31
I5
sg32
Nsg33
Nsg34
S'SYM'
p2534
sg36
g2519
sg37
I00
sba(issf_api
Word
p2535
(dp2536
g6
I00
sg7
V\u0907\u0938
p2537
sg9
(issf_api
FeatureSet
p2538
(dp2539
g12
(dp2540
S'posn'
p2541
S'10'
p2542
sS'name'
p2543
S'\xe0\xa4\x87\xe0\xa4\xb8'
p2544
sS'drel'
p2545
S'nmod__adj:NP'
p2546
sS'chunktype'
p2547
S'child:NP'
p2548
sS'af'
p2549
S'\xe0\xa4\xaf\xe0\xa4\xb9,pn,any,sg,3,o,,'
p2550
ssbsg26
I00
sg27
I00
sg28
Nsg29
Nsg30
I0
sg31
I6
sg32
Nsg33
Nsg34
S'DEM'
p2551
sg36
g2538
sg37
I00
sba(issf_api
Word
p2552
(dp2553
g6
I00
sg7
V\u0918\u091f\u0928\u093e
p2554
sg9
(issf_api
FeatureSet
p2555
(dp2556
g12
(dp2557
S'posn'
p2558
S'20'
p2559
sS'name'
p2560
S'\xe0\xa4\x98\xe0\xa4\x9f\xe0\xa4\xa8\xe0\xa4\xbe'
p2561
sS'af'
p2562
S'\xe0\xa4\x98\xe0\xa4\x9f\xe0\xa4\xa8\xe0\xa4\xbe,n,f,sg,3,o,0_\xe0\xa4\xaa\xe0\xa4\xb0,0'
p2563
sS'chunkid'
p2564
S'NP'
p2565
sS'drel'
p2566
S'k7:VGNF'
p2567
sS'vpos'
p2568
S'vib_3'
p2569
sS'chunktype'
p2570
S'head:NP'
p2571
ssbsg26
I00
sg27
I00
sg28
Nsg29
Nsg30
I0
sg31
I6
sg32
Nsg33
Nsg34
S'NN'
p2572
sg36
g2555
sg37
I00
sba(issf_api
Word
p2573
(dp2574
g6
I00
sg7
V\u092a\u0930
p2575
sg9
(issf_api
FeatureSet
p2576
(dp2577
g12
(dp2578
S'posn'
p2579
S'30'
p2580
sS'name'
p2581
S'\xe0\xa4\xaa\xe0\xa4\xb0'
p2582
sS'drel'
p2583
S'lwg__psp:NP'
p2584
sS'chunktype'
p2585
S'child:NP'
p2586
sS'af'
p2587
S'\xe0\xa4\xaa\xe0\xa4\xb0,psp,,,,,,'
p2588
ssbsg26
I00
sg27
I00
sg28
Nsg29
Nsg30
I0
sg31
I6
sg32
Nsg33
Nsg34
S'PSP'
p2589
sg36
g2576
sg37
I00
sba(issf_api
Word
p2590
(dp2591
g6
I00
sg7
V\u0936\u094b\u0915
p2592
sg9
(issf_api
FeatureSet
p2593
(dp2594
g12
(dp2595
S'posn'
p2596
S'40'
p2597
sS'name'
p2598
S'\xe0\xa4\xb6\xe0\xa5\x8b\xe0\xa4\x95'
p2599
sS'af'
p2600
S'\xe0\xa4\xb6\xe0\xa5\x8b\xe0\xa4\x95,n,m,sg,3,d,0,0'
p2601
sS'chunkid'
p2602
S'NP2'
p2603
sS'drel'
p2604
S'k2:VGNF'
p2605
sS'chunktype'
p2606
S'head:NP2'
p2607
ssbsg26
I00
sg27
I00
sg28
Nsg29
Nsg30
I1
sg31
I6
sg32
Nsg33
Nsg34
S'NN'
p2608
sg36
g2593
sg37
I00
sba(issf_api
Word
p2609
(dp2610
g6
I00
sg7
V\u091c\u0924\u093e\u0924\u0947
p2611
sg9
(issf_api
FeatureSet
p2612
(dp2613
g12
(dp2614
S'posn'
p2615
S'50'
p2616
sS'name'
p2617
S'\xe0\xa4\x9c\xe0\xa4\xa4\xe0\xa4\xbe\xe0\xa4\xa4\xe0\xa5\x87'
p2618
sS'af'
p2619
S'\xe0\xa4\x9c\xe0\xa4\xa4\xe0\xa4\xbe,v,m,sg,3,,\xe0\xa4\xa4\xe0\xa4\xbe_\xe0\xa4\xb9\xe0\xa5\x8b+\xe0\xa4\xaf\xe0\xa4\xbe,wA'
p2620
sS'chunkid'
p2621
S'VGNF'
p2622
sS'drel'
p2623
S'vmod:VGF'
p2624
sS'vpos'
p2625
S'tam_2'
p2626
sS'chunktype'
p2627
S'head:VGNF'
p2628
ssbsg26
I00
sg27
I00
sg28
Nsg29
Nsg30
I2
sg31
I6
sg32
Nsg33
Nsg34
S'VM'
p2629
sg36
g2612
sg37
I00
sba(issf_api
Word
p2630
(dp2631
g6
I00
sg7
V\u0939\u0941\u090f
p2632
sg9
(issf_api
FeatureSet
p2633
(dp2634
g12
(dp2635
S'posn'
p2636
S'60'
p2637
sS'name'
p2638
S'\xe0\xa4\xb9\xe0\xa5\x81\xe0\xa4\x8f'
p2639
sS'drel'
p2640
S'lwg__vaux:VGNF'
p2641
sS'chunktype'
p2642
S'child:VGNF'
p2643
sS'af'
p2644
S'\xe0\xa4\xb9\xe0\xa5\x8b,v,m,sg,3,,\xe0\xa4\xaf\xe0\xa4\xbe,yA'
p2645
ssbsg26
I00
sg27
I00
sg28
Nsg29
Nsg30
I2
sg31
I6
sg32
Nsg33
Nsg34
S'VAUX'
p2646
sg36
g2633
sg37
I00
sba(issf_api
Word
p2647
(dp2648
g6
I00
sg7
V\u092a\u094d\u0930\u0927\u093e\u0928\u092e\u0902\u0924\u094d\u0930\u0940
p2649
sg9
(issf_api
FeatureSet
p2650
(dp2651
g12
(dp2652
S'crefhead'
p2653
S'\xe0\xa4\xaa\xe0\xa5\x8d\xe0\xa4\xb0\xe0\xa4\xa7\xe0\xa4\xbe\xe0\xa4\xa8\xe0\xa4\xae\xe0\xa4\x82\xe0\xa4\xa4\xe0\xa5\x8d\xe0\xa4\xb0\xe0\xa5\x80:i21'
p2654
sS'posn'
p2655
S'70'
p2656
sS'name'
p2657
S'\xe0\xa4\xaa\xe0\xa5\x8d\xe0\xa4\xb0\xe0\xa4\xa7\xe0\xa4\xbe\xe0\xa4\xa8\xe0\xa4\xae\xe0\xa4\x82\xe0\xa4\xa4\xe0\xa5\x8d\xe0\xa4\xb0\xe0\xa5\x80'
p2658
sS'af'
p2659
S'\xe0\xa4\xaa\xe0\xa5\x8d\xe0\xa4\xb0\xe0\xa4\xa7\xe0\xa4\xbe\xe0\xa4\xa8\xe0\xa4\xae\xe0\xa4\x82\xe0\xa4\xa4\xe0\xa5\x8d\xe0\xa4\xb0\xe0\xa5\x80,n,m,sg,3,o,0_\xe0\xa4\xa8\xe0\xa5\x87,0'
p2660
sS'chunkid'
p2661
S'NP3'
p2662
sS'creftype'
p2663
S'Coreference-Noun-Noun:i15'
p2664
sS'chunktype'
p2665
S'head:NP3'
p2666
sS'vpos'
p2667
S'vib_2'
p2668
sS'cref'
p2669
S'i21%1:t1'
p2670
sS'drel'
p2671
S'k1:VGF'
p2672
ssbsg26
I00
sg27
I00
sg28
Nsg29
Nsg30
I3
sg31
I6
sg32
Nsg33
Nsg34
S'NNP'
p2673
sg36
g2650
sg37
I00
sba(issf_api
Word
p2674
(dp2675
g6
I00
sg7
V\u0928\u0947
p2676
sg9
(issf_api
FeatureSet
p2677
(dp2678
g12
(dp2679
S'posn'
p2680
S'80'
p2681
sS'name'
p2682
S'\xe0\xa4\xa8\xe0\xa5\x87'
p2683
sS'drel'
p2684
S'lwg__psp:NP3'
p2685
sS'chunktype'
p2686
S'child:NP3'
p2687
sS'af'
p2688
S'\xe0\xa4\xa8\xe0\xa5\x87,psp,,,,,,'
p2689
ssbsg26
I00
sg27
I00
sg28
Nsg29
Nsg30
I3
sg31
I6
sg32
Nsg33
Nsg34
S'PSP'
p2690
sg36
g2677
sg37
I00
sba(issf_api
Word
p2691
(dp2692
g6
I00
sg7
V\u0915\u0939\u093e
p2693
sg9
(issf_api
FeatureSet
p2694
(dp2695
g12
(dp2696
S'posn'
p2697
S'90'
p2698
sS'name'
p2699
S'\xe0\xa4\x95\xe0\xa4\xb9\xe0\xa4\xbe'
p2700
sS'af'
p2701
S'\xe0\xa4\x95\xe0\xa4\xb9,v,m,sg,any,,\xe0\xa4\xaf\xe0\xa4\xbe,yA'
p2702
sS'chunkid'
p2703
S'VGF'
p2704
sS'chunktype'
p2705
S'head:VGF'
p2706
sS'voicetype'
p2707
S'active'
p2708
sS'stype'
p2709
S'declarative'
p2710
ssbsg26
I00
sg27
I00
sg28
Nsg29
Nsg30
I4
sg31
I6
sg32
Nsg33
Nsg34
S'VM'
p2711
sg36
g2694
sg37
I00
sba(issf_api
Word
p2712
(dp2713
g6
I00
sg7
V\u0915\u093f
p2714
sg9
(issf_api
FeatureSet
p2715
(dp2716
g12
(dp2717
S'posn'
p2718
S'100'
p2719
sS'name'
p2720
S'\xe0\xa4\x95\xe0\xa4\xbf'
p2721
sS'af'
p2722
S'\xe0\xa4\x95\xe0\xa4\xbf,avy,,,,,,'
p2723
sS'chunkid'
p2724
S'CCP'
p2725
sS'drel'
p2726
S'k2:VGF'
p2727
sS'chunktype'
p2728
S'head:CCP'
p2729
ssbsg26
I00
sg27
I00
sg28
Nsg29
Nsg30
I5
sg31
I6
sg32
Nsg33
Nsg34
S'CC'
p2730
sg36
g2715
sg37
I00
sba(issf_api
Word
p2731
(dp2732
g6
I00
sg7
V\u0938\u0902\u0915\u091f
p2733
sg9
(issf_api
FeatureSet
p2734
(dp2735
g12
(dp2736
S'posn'
p2737
S'110'
p2738
sS'name'
p2739
S'\xe0\xa4\xb8\xe0\xa4\x82\xe0\xa4\x95\xe0\xa4\x9f'
p2740
sS'af'
p2741
S'\xe0\xa4\xb8\xe0\xa4\x82\xe0\xa4\x95\xe0\xa4\x9f,n,m,sg,3,o,0_\xe0\xa4\x95\xe0\xa4\xbe,0'
p2742
sS'chunkid'
p2743
S'NP4'
p2744
sS'drel'
p2745
S'r6:NP5'
p2746
sS'vpos'
p2747
S'vib_2'
p2748
sS'chunktype'
p2749
S'head:NP4'
p2750
ssbsg26
I00
sg27
I00
sg28
Nsg29
Nsg30
I6
sg31
I6
sg32
Nsg33
Nsg34
S'NN'
p2751
sg36
g2734
sg37
I00
sba(issf_api
Word
p2752
(dp2753
g6
I00
sg7
V\u0915\u0940
p2754
sg9
(issf_api
FeatureSet
p2755
(dp2756
g12
(dp2757
S'posn'
p2758
S'120'
p2759
sS'name'
p2760
S'\xe0\xa4\x95\xe0\xa5\x80'
p2761
sS'drel'
p2762
S'lwg__psp:NP4'
p2763
sS'chunktype'
p2764
S'child:NP4'
p2765
sS'af'
p2766
S'\xe0\xa4\x95\xe0\xa4\xbe,psp,f,sg,,o,,'
p2767
ssbsg26
I00
sg27
I00
sg28
Nsg29
Nsg30
I6
sg31
I6
sg32
Nsg33
Nsg34
S'PSP'
p2768
sg36
g2755
sg37
I00
sba(issf_api
Word
p2769
(dp2770
g6
I00
sg7
V\u0907\u0938
p2771
sg9
(issf_api
FeatureSet
p2772
(dp2773
g12
(dp2774
S'posn'
p2775
S'130'
p2776
sS'name'
p2777
S'\xe0\xa4\x87\xe0\xa4\xb82'
p2778
sS'drel'
p2779
S'nmod__adj:NP5'
p2780
sS'chunktype'
p2781
S'child:NP5'
p2782
sS'af'
p2783
S'\xe0\xa4\xaf\xe0\xa4\xb9,pn,any,sg,3,o,,'
p2784
ssbsg26
I00
sg27
I00
sg28
Nsg29
Nsg30
I7
sg31
I6
sg32
Nsg33
Nsg34
S'DEM'
p2785
sg36
g2772
sg37
I00
sba(issf_api
Word
p2786
(dp2787
g6
I00
sg7
V\u0918\u0921\u093c\u0940
p2788
sg9
(issf_api
FeatureSet
p2789
(dp2790
g12
(dp2791
S'posn'
p2792
S'140'
p2793
sS'name'
p2794
S'\xe0\xa4\x98\xe0\xa4\xa1\xe0\xa4\xbc\xe0\xa5\x80'
p2795
sS'af'
p2796
S'\xe0\xa4\x98\xe0\xa4\xa1\xe0\xa4\xbc\xe0\xa5\x80,n,f,sg,3,o,0_\xe0\xa4\xae\xe0\xa5\x87\xe0\xa4\x82,0'
p2797
sS'chunkid'
p2798
S'NP5'
p2799
sS'drel'
p2800
S'k7:VGF2'
p2801
sS'vpos'
p2802
S'vib_3'
p2803
sS'chunktype'
p2804
S'head:NP5'
p2805
ssbsg26
I00
sg27
I00
sg28
Nsg29
Nsg30
I7
sg31
I6
sg32
Nsg33
Nsg34
S'NN'
p2806
sg36
g2789
sg37
I00
sba(issf_api
Word
p2807
(dp2808
g6
I00
sg7
V\u092e\u0947\u0902
p2809
sg9
(issf_api
FeatureSet
p2810
(dp2811
g12
(dp2812
S'posn'
p2813
S'150'
p2814
sS'name'
p2815
S'\xe0\xa4\xae\xe0\xa5\x87\xe0\xa4\x82'
p2816
sS'drel'
p2817
S'lwg__psp:NP5'
p2818
sS'chunktype'
p2819
S'child:NP5'
p2820
sS'af'
p2821
S'\xe0\xa4\xae\xe0\xa5\x87\xe0\xa4\x82,psp,,,,,,'
p2822
ssbsg26
I00
sg27
I00
sg28
Nsg29
Nsg30
I7
sg31
I6
sg32
Nsg33
Nsg34
S'PSP'
p2823
sg36
g2810
sg37
I00
sba(issf_api
Word
p2824
(dp2825
g6
I00
sg7
V\u092d\u093e\u0930\u0924\u0940\u092f
p2826
sg9
(issf_api
FeatureSet
p2827
(dp2828
g12
(dp2829
S'posn'
p2830
S'160'
p2831
sS'name'
p2832
S'\xe0\xa4\xad\xe0\xa4\xbe\xe0\xa4\xb0\xe0\xa4\xa4\xe0\xa5\x80\xe0\xa4\xaf'
p2833
sS'af'
p2834
S'\xe0\xa4\xad\xe0\xa4\xbe\xe0\xa4\xb0\xe0\xa4\xa4\xe0\xa5\x80\xe0\xa4\xaf,n,m,pl,3,d,0,0'
p2835
sS'chunkid'
p2836
S'NP6'
p2837
sS'drel'
p2838
S'k1:VGF2'
p2839
sS'chunktype'
p2840
S'head:NP6'
p2841
ssbsg26
I00
sg27
I00
sg28
Nsg29
Nsg30
I8
sg31
I6
sg32
Nsg33
Nsg34
S'NN'
p2842
sg36
g2827
sg37
I00
sba(issf_api
Word
p2843
(dp2844
g6
I00
sg7
V\u092c\u094d\u0930\u093f\u091f\u0947\u0928
p2845
sg9
(issf_api
FeatureSet
p2846
(dp2847
g12
(dp2848
S'posn'
p2849
S'170'
p2850
sS'name'
p2851
S'\xe0\xa4\xac\xe0\xa5\x8d\xe0\xa4\xb0\xe0\xa4\xbf\xe0\xa4\x9f\xe0\xa5\x87\xe0\xa4\xa8'
p2852
sS'af'
p2853
S'\xe0\xa4\xac\xe0\xa5\x8d\xe0\xa4\xb0\xe0\xa4\xbf\xe0\xa4\x9f\xe0\xa5\x87\xe0\xa4\xa8,n,m,sg,3,o,0_\xe0\xa4\x95\xe0\xa5\x87_\xe0\xa4\xb8\xe0\xa4\xbe\xe0\xa4\xa5,0'
p2854
sS'chunkid'
p2855
S'NP7'
p2856
sS'drel'
p2857
S'ras-k1:VGF2'
p2858
sS'vpos'
p2859
S'vib_2_3'
p2860
sS'chunktype'
p2861
S'head:NP7'
p2862
ssbsg26
I00
sg27
I00
sg28
Nsg29
Nsg30
I9
sg31
I6
sg32
Nsg33
Nsg34
S'NNP'
p2863
sg36
g2846
sg37
I00
sba(issf_api
Word
p2864
(dp2865
g6
I00
sg7
V\u0915\u0947
p2866
sg9
(issf_api
FeatureSet
p2867
(dp2868
g12
(dp2869
S'posn'
p2870
S'180'
p2871
sS'name'
p2872
S'\xe0\xa4\x95\xe0\xa5\x87'
p2873
sS'drel'
p2874
S'lwg__psp:NP7'
p2875
sS'chunktype'
p2876
S'child:NP7'
p2877
sS'af'
p2878
S'\xe0\xa4\x95\xe0\xa5\x87,psp,,,,,,'
p2879
ssbsg26
I00
sg27
I00
sg28
Nsg29
Nsg30
I9
sg31
I6
sg32
Nsg33
Nsg34
S'PSP'
p2880
sg36
g2867
sg37
I00
sba(issf_api
Word
p2881
(dp2882
g6
I00
sg7
V\u0938\u093e\u0925
p2883
sg9
(issf_api
FeatureSet
p2884
(dp2885
g12
(dp2886
S'posn'
p2887
S'190'
p2888
sS'name'
p2889
S'\xe0\xa4\xb8\xe0\xa4\xbe\xe0\xa4\xa5'
p2890
sS'drel'
p2891
S'lwg__psp:NP7'
p2892
sS'chunktype'
p2893
S'child:NP7'
p2894
sS'af'
p2895
S'\xe0\xa4\xb8\xe0\xa4\xbe\xe0\xa4\xa5,nst,m,sg,3,d,,'
p2896
ssbsg26
I00
sg27
I00
sg28
Nsg29
Nsg30
I9
sg31
I6
sg32
Nsg33
Nsg34
S'NST'
p2897
sg36
g2884
sg37
I00
sba(issf_api
Word
p2898
(dp2899
g6
I00
sg7
V\u0939\u0948\u0902
p2900
sg9
(issf_api
FeatureSet
p2901
(dp2902
g12
(dp2903
S'posn'
p2904
S'200'
p2905
sS'name'
p2906
S'\xe0\xa4\xb9\xe0\xa5\x88\xe0\xa4\x82'
p2907
sS'af'
p2908
S'\xe0\xa4\xb9\xe0\xa5\x88,v,any,pl,3,,\xe0\xa4\xb9\xe0\xa5\x88,hE'
p2909
sS'chunkid'
p2910
S'VGF2'
p2911
sS'stype'
p2912
S'declarative'
p2913
sS'drel'
p2914
S'ccof:CCP'
p2915
sS'voicetype'
p2916
S'active'
p2917
sS'chunktype'
p2918
S'head:VGF2'
p2919
ssbsg26
I00
sg27
I00
sg28
Nsg29
Nsg30
I10
sg31
I6
sg32
Nsg33
Nsg34
S'VM'
p2920
sg36
g2901
sg37
I00
sba(issf_api
Word
p2921
(dp2922
g6
I00
sg7
V\u0964
p2923
sg9
(issf_api
FeatureSet
p2924
(dp2925
g12
(dp2926
S'posn'
p2927
S'210'
p2928
sS'name'
p2929
S'\xe0\xa5\xa4'
p2930
sS'af'
p2931
S'\xe0\xa5\xa4,punc,,,,,,'
p2932
sS'chunkid'
p2933
S'BLK'
p2934
sS'drel'
p2935
S'rsym:VGF'
p2936
sS'chunktype'
p2937
S'head:BLK'
p2938
ssbsg26
I00
sg27
I00
sg28
Nsg29
Nsg30
I11
sg31
I6
sg32
Nsg33
Nsg34
S'SYM'
p2939
sg36
g2924
sg37
I00
sba(issf_api
Word
p2940
(dp2941
g6
I00
sg7
V\u0905\u092f\u094b\u0927\u094d\u092f\u093e
p2942
sg9
(issf_api
FeatureSet
p2943
(dp2944
g12
(dp2945
S'posn'
p2946
S'10'
p2947
sS'name'
p2948
S'\xe0\xa4\x85\xe0\xa4\xaf\xe0\xa5\x8b\xe0\xa4\xa7\xe0\xa5\x8d\xe0\xa4\xaf\xe0\xa4\xbe'
p2949
sS'af'
p2950
S'\xe0\xa4\x85\xe0\xa4\xaf\xe0\xa5\x8b\xe0\xa4\xa7\xe0\xa5\x8d\xe0\xa4\xaf\xe0\xa4\xbe,n,m,sg,3,o,0_\xe0\xa4\xae\xe0\xa5\x87\xe0\xa4\x82,0'
p2951
sS'chunkid'
p2952
S'NP'
p2953
sS'drel'
p2954
S'k7p:VGF'
p2955
sS'vpos'
p2956
S'vib_2'
p2957
sS'chunktype'
p2958
S'head:NP'
p2959
ssbsg26
I00
sg27
I00
sg28
Nsg29
Nsg30
I0
sg31
I7
sg32
Nsg33
Nsg34
S'NNP'
p2960
sg36
g2943
sg37
I00
sba(issf_api
Word
p2961
(dp2962
g6
I00
sg7
V\u092e\u0947\u0902
p2963
sg9
(issf_api
FeatureSet
p2964
(dp2965
g12
(dp2966
S'posn'
p2967
S'20'
p2968
sS'name'
p2969
S'\xe0\xa4\xae\xe0\xa5\x87\xe0\xa4\x82'
p2970
sS'drel'
p2971
S'lwg__psp:NP'
p2972
sS'chunktype'
p2973
S'child:NP'
p2974
sS'af'
p2975
S'\xe0\xa4\xae\xe0\xa5\x87\xe0\xa4\x82,psp,,,,,,'
p2976
ssbsg26
I00
sg27
I00
sg28
Nsg29
Nsg30
I0
sg31
I7
sg32
Nsg33
Nsg34
S'PSP'
p2977
sg36
g2964
sg37
I00
sba(issf_api
Word
p2978
(dp2979
g6
I00
sg7
V\u0906\u0924\u0902\u0915\u0940
p2980
sg9
(issf_api
FeatureSet
p2981
(dp2982
g12
(dp2983
S'posn'
p2984
S'30'
p2985
sS'name'
p2986
S'\xe0\xa4\x86\xe0\xa4\xa4\xe0\xa4\x82\xe0\xa4\x95\xe0\xa5\x80'
p2987
sS'drel'
p2988
S'nmod__adj:NP2'
p2989
sS'chunktype'
p2990
S'child:NP2'
p2991
sS'af'
p2992
S'\xe0\xa4\x86\xe0\xa4\xa4\xe0\xa4\x82\xe0\xa4\x95\xe0\xa5\x80,adj,any,any,,o,,'
p2993
ssbsg26
I00
sg27
I00
sg28
Nsg29
Nsg30
I1
sg31
I7
sg32
Nsg33
Nsg34
S'JJ'
p2994
sg36
g2981
sg37
I00
sba(issf_api
Word
p2995
(dp2996
g6
I00
sg7
V\u0939\u092e\u0932\u0947
p2997
sg9
(issf_api
FeatureSet
p2998
(dp2999
g12
(dp3000
S'posn'
p3001
S'40'
p3002
sS'name'
p3003
S'\xe0\xa4\xb9\xe0\xa4\xae\xe0\xa4\xb2\xe0\xa5\x87'
p3004
sS'af'
p3005
S'\xe0\xa4\xb9\xe0\xa4\xae\xe0\xa4\xb2\xe0\xa4\xbe,n,m,sg,3,o,0_\xe0\xa4\x95\xe0\xa4\xbe,0'
p3006
sS'chunkid'
p3007
S'NP2'
p3008
sS'drel'
p3009
S'r6-k2:NP3'
p3010
sS'vpos'
p3011
S'vib_3'
p3012
sS'chunktype'
p3013
S'head:NP2'
p3014
ssbsg26
I00
sg27
I00
sg28
Nsg29
Nsg30
I1
sg31
I7
sg32
Nsg33
Nsg34
S'NN'
p3015
sg36
g2998
sg37
I00
sba(issf_api
Word
p3016
(dp3017
g6
I00
sg7
V\u0915\u093e
p3018
sg9
(issf_api
FeatureSet
p3019
(dp3020
g12
(dp3021
S'posn'
p3022
S'50'
p3023
sS'name'
p3024
S'\xe0\xa4\x95\xe0\xa4\xbe'
p3025
sS'drel'
p3026
S'lwg__psp:NP2'
p3027
sS'chunktype'
p3028
S'child:NP2'
p3029
sS'af'
p3030
S'\xe0\xa4\x95\xe0\xa4\xbe,psp,m,sg,,d,,'
p3031
ssbsg26
I00
sg27
I00
sg28
Nsg29
Nsg30
I1
sg31
I7
sg32
Nsg33
Nsg34
S'PSP'
p3032
sg36
g3019
sg37
I00
sba(issf_api
Word
p3033
(dp3034
g6
I00
sg7
V\u091c\u093f\u0915\u094d\u0930
p3035
sg9
(issf_api
FeatureSet
p3036
(dp3037
g12
(dp3038
S'posn'
p3039
S'60'
p3040
sS'name'
p3041
S'\xe0\xa4\x9c\xe0\xa4\xbf\xe0\xa4\x95\xe0\xa5\x8d\xe0\xa4\xb0'
p3042
sS'af'
p3043
S'\xe0\xa4\x9c\xe0\xa4\xbf\xe0\xa4\x95\xe0\xa5\x8d\xe0\xa4\xb0,n,m,sg,3,d,0,0'
p3044
sS'chunkid'
p3045
S'NP3'
p3046
sS'drel'
p3047
S'pof:VGNF'
p3048
sS'chunktype'
p3049
S'head:NP3'
p3050
ssbsg26
I00
sg27
I00
sg28
Nsg29
Nsg30
I2
sg31
I7
sg32
Nsg33
Nsg34
S'NN'
p3051
sg36
g3036
sg37
I00
sba(issf_api
Word
p3052
(dp3053
g6
I00
sg7
V\u0915\u0930\u0924\u0947
p3054
sg9
(issf_api
FeatureSet
p3055
(dp3056
g12
(dp3057
S'posn'
p3058
S'70'
p3059
sS'name'
p3060
S'\xe0\xa4\x95\xe0\xa4\xb0\xe0\xa4\xa4\xe0\xa5\x87'
p3061
sS'af'
p3062
S'\xe0\xa4\x95\xe0\xa4\xb0,v,m,sg,3,,\xe0\xa4\xa4\xe0\xa4\xbe_\xe0\xa4\xb9\xe0\xa5\x8b+\xe0\xa4\xaf\xe0\xa4\xbe,wA'
p3063
sS'chunkid'
p3064
S'VGNF'
p3065
sS'drel'
p3066
S'vmod:VGF'
p3067
sS'vpos'
p3068
S'tam_2'
p3069
sS'chunktype'
p3070
S'head:VGNF'
p3071
ssbsg26
I00
sg27
I00
sg28
Nsg29
Nsg30
I3
sg31
I7
sg32
Nsg33
Nsg34
S'VM'
p3072
sg36
g3055
sg37
I00
sba(issf_api
Word
p3073
(dp3074
g6
I00
sg7
V\u0939\u0941\u090f
p3075
sg9
(issf_api
FeatureSet
p3076
(dp3077
g12
(dp3078
S'posn'
p3079
S'80'
p3080
sS'name'
p3081
S'\xe0\xa4\xb9\xe0\xa5\x81\xe0\xa4\x8f'
p3082
sS'drel'
p3083
S'lwg__vaux:VGNF'
p3084
sS'chunktype'
p3085
S'child:VGNF'
p3086
sS'af'
p3087
S'\xe0\xa4\xb9\xe0\xa5\x8b,v,m,sg,3,,\xe0\xa4\xaf\xe0\xa4\xbe,yA'
p3088
ssbsg26
I00
sg27
I00
sg28
Nsg29
Nsg30
I3
sg31
I7
sg32
Nsg33
Nsg34
S'VAUX'
p3089
sg36
g3076
sg37
I00
sba(issf_api
Word
p3090
(dp3091
g6
I00
sg7
V\u092e\u0928\u092e\u094b\u0939\u0928
p3092
sg9
(issf_api
FeatureSet
p3093
(dp3094
g12
(dp3095
S'posn'
p3096
S'90'
p3097
sS'name'
p3098
S'\xe0\xa4\xae\xe0\xa4\xa8\xe0\xa4\xae\xe0\xa5\x8b\xe0\xa4\xb9\xe0\xa4\xa8'
p3099
sS'af'
p3100
S'\xe0\xa4\xae\xe0\xa4\xa8\xe0\xa4\xae\xe0\xa5\x8b\xe0\xa4\xb9\xe0\xa4\xa8,n,m,sg,3,d,0,0'
p3101
sS'drel'
p3102
S'pof__cn:NP4'
p3103
sS'chunktype'
p3104
S'child:NP4'
p3105
sS'cref'
p3106
S'i22%0:t1'
p3107
ssbsg26
I00
sg27
I00
sg28
Nsg29
Nsg30
I4
sg31
I7
sg32
Nsg33
Nsg34
S'NNPC'
p3108
sg36
g3093
sg37
I00
sba(issf_api
Word
p3109
(dp3110
g6
I00
sg7
V\u0938\u093f\u0902\u0939
p3111
sg9
(issf_api
FeatureSet
p3112
(dp3113
g12
(dp3114
S'crefhead'
p3115
S'\xe0\xa4\xb8\xe0\xa4\xbf\xe0\xa4\x82\xe0\xa4\xb9:i22'
p3116
sS'posn'
p3117
S'100'
p3118
sS'name'
p3119
S'\xe0\xa4\xb8\xe0\xa4\xbf\xe0\xa4\x82\xe0\xa4\xb9'
p3120
sS'af'
p3121
S'\xe0\xa4\xb8\xe0\xa4\xbf\xe0\xa4\x82\xe0\xa4\xb9,n,m,sg,3,o,0_\xe0\xa4\xa8\xe0\xa5\x87,0'
p3122
sS'chunkid'
p3123
S'NP4'
p3124
sS'creftype'
p3125
S'Coreference-Noun-Noun:i21'
p3126
sS'chunktype'
p3127
S'head:NP4'
p3128
sS'vpos'
p3129
S'vib_3'
p3130
sS'cref'
p3131
S'i22%1:t1'
p3132
sS'drel'
p3133
S'k1:VGF'
p3134
ssbsg26
I00
sg27
I00
sg28
Nsg29
Nsg30
I4
sg31
I7
sg32
Nsg33
Nsg34
S'NNP'
p3135
sg36
g3112
sg37
I00
sba(issf_api
Word
p3136
(dp3137
g6
I00
sg7
V\u0928\u0947
p3138
sg9
(issf_api
FeatureSet
p3139
(dp3140
g12
(dp3141
S'posn'
p3142
S'110'
p3143
sS'name'
p3144
S'\xe0\xa4\xa8\xe0\xa5\x87'
p3145
sS'drel'
p3146
S'lwg__psp:NP4'
p3147
sS'chunktype'
p3148
S'child:NP4'
p3149
sS'af'
p3150
S'\xe0\xa4\xa8\xe0\xa5\x87,psp,,,,,,'
p3151
ssbsg26
I00
sg27
I00
sg28
Nsg29
Nsg30
I4
sg31
I7
sg32
Nsg33
Nsg34
S'PSP'
p3152
sg36
g3139
sg37
I00
sba(issf_api
Word
p3153
(dp3154
g6
I00
sg7
V\u0915\u0939\u093e
p3155
sg9
(issf_api
FeatureSet
p3156
(dp3157
g12
(dp3158
S'posn'
p3159
S'120'
p3160
sS'name'
p3161
S'\xe0\xa4\x95\xe0\xa4\xb9\xe0\xa4\xbe'
p3162
sS'af'
p3163
S'\xe0\xa4\x95\xe0\xa4\xb9,v,m,sg,any,,\xe0\xa4\xaf\xe0\xa4\xbe,yA'
p3164
sS'chunkid'
p3165
S'VGF'
p3166
sS'chunktype'
p3167
S'head:VGF'
p3168
sS'voicetype'
p3169
S'active'
p3170
sS'stype'
p3171
S'declarative'
p3172
ssbsg26
I00
sg27
I00
sg28
Nsg29
Nsg30
I5
sg31
I7
sg32
Nsg33
Nsg34
S'VM'
p3173
sg36
g3156
sg37
I00
sba(issf_api
Word
p3174
(dp3175
g6
I00
sg7
V\u0915\u093f
p3176
sg9
(issf_api
FeatureSet
p3177
(dp3178
g12
(dp3179
S'posn'
p3180
S'130'
p3181
sS'name'
p3182
S'\xe0\xa4\x95\xe0\xa4\xbf'
p3183
sS'af'
p3184
S'\xe0\xa4\x95\xe0\xa4\xbf,avy,,,,,,'
p3185
sS'chunkid'
p3186
S'CCP'
p3187
sS'drel'
p3188
S'k2:VGF'
p3189
sS'chunktype'
p3190
S'head:CCP'
p3191
ssbsg26
I00
sg27
I00
sg28
Nsg29
Nsg30
I6
sg31
I7
sg32
Nsg33
Nsg34
S'CC'
p3192
sg36
g3177
sg37
I00
sba(issf_api
Word
p3193
(dp3194
g6
I00
sg7
V\u0906\u0924\u0902\u0915\u0935\u093e\u0926
p3195
sg9
(issf_api
FeatureSet
p3196
(dp3197
g12
(dp3198
S'crefhead'
p3199
S'\xe0\xa4\x86\xe0\xa4\xa4\xe0\xa4\x82\xe0\xa4\x95\xe0\xa4\xb5\xe0\xa4\xbe\xe0\xa4\xa6:i23'
p3200
sS'posn'
p3201
S'140'
p3202
sS'name'
p3203
S'\xe0\xa4\x86\xe0\xa4\xa4\xe0\xa4\x82\xe0\xa4\x95\xe0\xa4\xb5\xe0\xa4\xbe\xe0\xa4\xa6'
p3204
sS'af'
p3205
S'\xe0\xa4\x86\xe0\xa4\xa4\xe0\xa4\x82\xe0\xa4\x95\xe0\xa4\xb5\xe0\xa4\xbe\xe0\xa4\xa6,n,m,sg,3,d,0,0'
p3206
sS'chunkid'
p3207
S'NP5'
p3208
sS'creftype'
p3209
S'Coreference-Noun-Noun:i18'
p3210
sS'chunktype'
p3211
S'head:NP5'
p3212
sS'cref'
p3213
S'i23%1:t2'
p3214
sS'drel'
p3215
S'k1:VGF2'
p3216
ssbsg26
I00
sg27
I00
sg28
Nsg29
Nsg30
I7
sg31
I7
sg32
Nsg33
Nsg34
S'NN'
p3217
sg36
g3196
sg37
I00
sba(issf_api
Word
p3218
(dp3219
g6
I00
sg7
V\u0935\u093f\u0936\u094d\u0935
p3220
sg9
(issf_api
FeatureSet
p3221
(dp3222
g12
(dp3223
S'posn'
p3224
S'150'
p3225
sS'name'
p3226
S'\xe0\xa4\xb5\xe0\xa4\xbf\xe0\xa4\xb6\xe0\xa5\x8d\xe0\xa4\xb5'
p3227
sS'af'
p3228
S'\xe0\xa4\xb5\xe0\xa4\xbf\xe0\xa4\xb6\xe0\xa5\x8d\xe0\xa4\xb5,n,m,sg,3,o,0_\xe0\xa4\x95\xe0\xa4\xbe,0'
p3229
sS'chunkid'
p3230
S'NP6'
p3231
sS'drel'
p3232
S'r6:NP7'
p3233
sS'vpos'
p3234
S'vib_2'
p3235
sS'chunktype'
p3236
S'head:NP6'
p3237
ssbsg26
I00
sg27
I00
sg28
Nsg29
Nsg30
I8
sg31
I7
sg32
Nsg33
Nsg34
S'NN'
p3238
sg36
g3221
sg37
I00
sba(issf_api
Word
p3239
(dp3240
g6
I00
sg7
V\u0915\u0947
p3241
sg9
(issf_api
FeatureSet
p3242
(dp3243
g12
(dp3244
S'posn'
p3245
S'160'
p3246
sS'name'
p3247
S'\xe0\xa4\x95\xe0\xa5\x87'
p3248
sS'drel'
p3249
S'lwg__psp:NP6'
p3250
sS'chunktype'
p3251
S'child:NP6'
p3252
sS'af'
p3253
S'\xe0\xa4\x95\xe0\xa4\xbe,psp,m,pl,,o,,'
p3254
ssbsg26
I00
sg27
I00
sg28
Nsg29
Nsg30
I8
sg31
I7
sg32
Nsg33
Nsg34
S'PSP'
p3255
sg36
g3242
sg37
I00
sba(issf_api
Word
p3256
(dp3257
g6
I00
sg7
V\u0938\u092d\u0940
p3258
sg9
(issf_api
FeatureSet
p3259
(dp3260
g12
(dp3261
S'posn'
p3262
S'170'
p3263
sS'name'
p3264
S'\xe0\xa4\xb8\xe0\xa4\xad\xe0\xa5\x80'
p3265
sS'drel'
p3266
S'nmod__adj:NP7'
p3267
sS'chunktype'
p3268
S'child:NP7'
p3269
sS'af'
p3270
S'\xe0\xa4\xb8\xe0\xa4\xad\xe0\xa5\x80,avy,,,,,,'
p3271
ssbsg26
I00
sg27
I00
sg28
Nsg29
Nsg30
I9
sg31
I7
sg32
Nsg33
Nsg34
S'QF'
p3272
sg36
g3259
sg37
I00
sba(issf_api
Word
p3273
(dp3274
g6
I00
sg7
V\u0926\u0947\u0936\u094b\u0902
p3275
sg9
(issf_api
FeatureSet
p3276
(dp3277
g12
(dp3278
S'posn'
p3279
S'180'
p3280
sS'name'
p3281
S'\xe0\xa4\xa6\xe0\xa5\x87\xe0\xa4\xb6\xe0\xa5\x8b\xe0\xa4\x82'
p3282
sS'af'
p3283
S'\xe0\xa4\xa6\xe0\xa5\x87\xe0\xa4\xb6,n,m,pl,3,o,0_\xe0\xa4\x95\xe0\xa5\x87_\xe0\xa4\xb2\xe0\xa4\xbf\xe0\xa4\x8f,0'
p3284
sS'chunkid'
p3285
S'NP7'
p3286
sS'drel'
p3287
S'rt:VGF2'
p3288
sS'vpos'
p3289
S'vib_3_4'
p3290
sS'chunktype'
p3291
S'head:NP7'
p3292
ssbsg26
I00
sg27
I00
sg28
Nsg29
Nsg30
I9
sg31
I7
sg32
Nsg33
Nsg34
S'NN'
p3293
sg36
g3276
sg37
I00
sba(issf_api
Word
p3294
(dp3295
g6
I00
sg7
V\u0915\u0947
p3296
sg9
(issf_api
FeatureSet
p3297
(dp3298
g12
(dp3299
S'posn'
p3300
S'190'
p3301
sS'name'
p3302
S'\xe0\xa4\x95\xe0\xa5\x872'
p3303
sS'drel'
p3304
S'lwg__psp:NP7'
p3305
sS'chunktype'
p3306
S'child:NP7'
p3307
sS'af'
p3308
S'\xe0\xa4\x95\xe0\xa5\x87,psp,,,,,,'
p3309
ssbsg26
I00
sg27
I00
sg28
Nsg29
Nsg30
I9
sg31
I7
sg32
Nsg33
Nsg34
S'PSP'
p3310
sg36
g3297
sg37
I00
sba(issf_api
Word
p3311
(dp3312
g6
I00
sg7
V\u0932\u093f\u090f
p3313
sg9
(issf_api
FeatureSet
p3314
(dp3315
g12
(dp3316
S'posn'
p3317
S'200'
p3318
sS'name'
p3319
S'\xe0\xa4\xb2\xe0\xa4\xbf\xe0\xa4\x8f'
p3320
sS'drel'
p3321
S'lwg__psp:NP7'
p3322
sS'chunktype'
p3323
S'child:NP7'
p3324
sS'af'
p3325
S'\xe0\xa4\xb2\xe0\xa4\xbf\xe0\xa4\x8f,psp,,,,,,'
p3326
ssbsg26
I00
sg27
I00
sg28
Nsg29
Nsg30
I9
sg31
I7
sg32
Nsg33
Nsg34
S'PSP'
p3327
sg36
g3314
sg37
I00
sba(issf_api
Word
p3328
(dp3329
g6
I00
sg7
V\u0916\u0924\u0930\u093e
p3330
sg9
(issf_api
FeatureSet
p3331
(dp3332
g12
(dp3333
S'posn'
p3334
S'210'
p3335
sS'name'
p3336
S'\xe0\xa4\x96\xe0\xa4\xa4\xe0\xa4\xb0\xe0\xa4\xbe'
p3337
sS'af'
p3338
S'\xe0\xa4\x96\xe0\xa4\xa4\xe0\xa4\xb0\xe0\xa4\xbe,n,m,sg,3,d,0,0'
p3339
sS'chunkid'
p3340
S'NP8'
p3341
sS'drel'
p3342
S'k2:VGF2'
p3343
sS'chunktype'
p3344
S'head:NP8'
p3345
ssbsg26
I00
sg27
I00
sg28
Nsg29
Nsg30
I10
sg31
I7
sg32
Nsg33
Nsg34
S'NN'
p3346
sg36
g3331
sg37
I00
sba(issf_api
Word
p3347
(dp3348
g6
I00
sg7
V\u092c\u0928
p3349
sg9
(issf_api
FeatureSet
p3350
(dp3351
g12
(dp3352
S'posn'
p3353
S'220'
p3354
sS'name'
p3355
S'\xe0\xa4\xac\xe0\xa4\xa8'
p3356
sS'af'
p3357
S'\xe0\xa4\xac\xe0\xa4\xa8,v,m,sg,3,,0_\xe0\xa4\x9c\xe0\xa4\xbe+\xe0\xa4\xaf\xe0\xa4\xbe\xe0\xa5\xa7_\xe0\xa4\xb9\xe0\xa5\x88,0'
p3358
sS'chunkid'
p3359
S'VGF2'
p3360
sS'stype'
p3361
S'declarative'
p3362
sS'drel'
p3363
S'ccof:CCP'
p3364
sS'voicetype'
p3365
S'active'
p3366
sS'vpos'
p3367
S'tam_2_3'
p3368
sS'chunktype'
p3369
S'head:VGF2'
p3370
ssbsg26
I00
sg27
I00
sg28
Nsg29
Nsg30
I11
sg31
I7
sg32
Nsg33
Nsg34
S'VM'
p3371
sg36
g3350
sg37
I00
sba(issf_api
Word
p3372
(dp3373
g6
I00
sg7
V\u0917\u092f\u093e
p3374
sg9
(issf_api
FeatureSet
p3375
(dp3376
g12
(dp3377
S'posn'
p3378
S'230'
p3379
sS'name'
p3380
S'\xe0\xa4\x97\xe0\xa4\xaf\xe0\xa4\xbe'
p3381
sS'drel'
p3382
S'lwg__vaux:VGF2'
p3383
sS'chunktype'
p3384
S'child:VGF2'
p3385
sS'af'
p3386
S'\xe0\xa4\x9c\xe0\xa4\xbe,v,m,sg,any,,\xe0\xa4\xaf\xe0\xa4\xbe\xe0\xa5\xa7,yA1'
p3387
ssbsg26
I00
sg27
I00
sg28
Nsg29
Nsg30
I11
sg31
I7
sg32
Nsg33
Nsg34
S'VAUX'
p3388
sg36
g3375
sg37
I00
sba(issf_api
Word
p3389
(dp3390
g6
I00
sg7
V\u0939\u0948
p3391
sg9
(issf_api
FeatureSet
p3392
(dp3393
g12
(dp3394
S'posn'
p3395
S'240'
p3396
sS'name'
p3397
S'\xe0\xa4\xb9\xe0\xa5\x88'
p3398
sS'drel'
p3399
S'lwg__vaux:VGF2'
p3400
sS'chunktype'
p3401
S'child:VGF2'
p3402
sS'af'
p3403
S'\xe0\xa4\xb9\xe0\xa5\x88,v,any,sg,3,,\xe0\xa4\xb9\xe0\xa5\x88,hE'
p3404
ssbsg26
I00
sg27
I00
sg28
Nsg29
Nsg30
I11
sg31
I7
sg32
Nsg33
Nsg34
S'VAUX'
p3405
sg36
g3392
sg37
I00
sba(issf_api
Word
p3406
(dp3407
g6
I00
sg7
V\u0964
p3408
sg9
(issf_api
FeatureSet
p3409
(dp3410
g12
(dp3411
S'posn'
p3412
S'250'
p3413
sS'name'
p3414
S'\xe0\xa5\xa4'
p3415
sS'af'
p3416
S'\xe0\xa5\xa4,punc,,,,,,'
p3417
sS'chunkid'
p3418
S'BLK'
p3419
sS'drel'
p3420
S'rsym:VGF'
p3421
sS'chunktype'
p3422
S'head:BLK'
p3423
ssbsg26
I00
sg27
I00
sg28
Nsg29
Nsg30
I12
sg31
I7
sg32
Nsg33
Nsg34
S'SYM'
p3424
sg36
g3409
sg37
I00
sba(issf_api
Word
p3425
(dp3426
g6
I00
sg7
V\u092f\u0939
p3427
sg9
(issf_api
FeatureSet
p3428
(dp3429
g12
(dp3430
S'crefhead'
p3431
S'\xe0\xa4\xaf\xe0\xa4\xb9:i24'
p3432
sS'posn'
p3433
S'10'
p3434
sS'name'
p3435
S'\xe0\xa4\xaf\xe0\xa4\xb9'
p3436
sS'af'
p3437
S'\xe0\xa4\xaf\xe0\xa4\xb9,pn,any,sg,3,d,0,0'
p3438
sS'chunkid'
p3439
S'NP'
p3440
sS'creftype'
p3441
S'Anaphora-C:i23'
p3442
sS'chunktype'
p3443
S'head:NP'
p3444
sS'cref'
p3445
S'i24%1:t2'
p3446
sS'drel'
p3447
S'k1:VGF'
p3448
ssbsg26
I00
sg27
I00
sg28
Nsg29
Nsg30
I0
sg31
I8
sg32
Nsg33
Nsg34
S'PRP'
p3449
sg36
g3428
sg37
I00
sba(issf_api
Word
p3450
(dp3451
g6
I00
sg7
V\u0936\u093e\u0902\u0924\u093f
p3452
sg9
(issf_api
FeatureSet
p3453
(dp3454
g12
(dp3455
S'posn'
p3456
S'20'
p3457
sS'name'
p3458
S'\xe0\xa4\xb6\xe0\xa4\xbe\xe0\xa4\x82\xe0\xa4\xa4\xe0\xa4\xbf'
p3459
sS'af'
p3460
S'\xe0\xa4\xb6\xe0\xa4\xbe\xe0\xa4\xa8\xe0\xa5\x8d\xe0\xa4\xa4\xe0\xa4\xbf,n,f,sg,3,o,0,0'
p3461
sS'chunkid'
p3462
S'NP2'
p3463
sS'drel'
p3464
S'ccof:CCP'
p3465
sS'chunktype'
p3466
S'head:NP2'
p3467
ssbsg26
I00
sg27
I00
sg28
Nsg29
Nsg30
I1
sg31
I8
sg32
Nsg33
Nsg34
S'NN'
p3468
sg36
g3453
sg37
I00
sba(issf_api
Word
p3469
(dp3470
g6
I00
sg7
V\u0914\u0930
p3471
sg9
(issf_api
FeatureSet
p3472
(dp3473
g12
(dp3474
S'posn'
p3475
S'30'
p3476
sS'name'
p3477
S'\xe0\xa4\x94\xe0\xa4\xb0'
p3478
sS'af'
p3479
S'\xe0\xa4\x94\xe0\xa4\xb0,avy,,,,,,'
p3480
sS'chunkid'
p3481
S'CCP'
p3482
sS'drel'
p3483
S'k2:VGF'
p3484
sS'chunktype'
p3485
S'head:CCP'
p3486
ssbsg26
I00
sg27
I00
sg28
Nsg29
Nsg30
I2
sg31
I8
sg32
Nsg33
Nsg34
S'CC'
p3487
sg36
g3472
sg37
I00
sba(issf_api
Word
p3488
(dp3489
g6
I00
sg7
V\u092e\u093e\u0928\u0935\u0940\u092f\u0924\u093e
p3490
sg9
(issf_api
FeatureSet
p3491
(dp3492
g12
(dp3493
S'posn'
p3494
S'40'
p3495
sS'name'
p3496
S'\xe0\xa4\xae\xe0\xa4\xbe\xe0\xa4\xa8\xe0\xa4\xb5\xe0\xa5\x80\xe0\xa4\xaf\xe0\xa4\xa4\xe0\xa4\xbe'
p3497
sS'af'
p3498
S'\xe0\xa4\xae\xe0\xa4\xbe\xe0\xa4\xa8\xe0\xa4\xb5\xe0\xa5\x80\xe0\xa4\xaf\xe0\xa4\xa4\xe0\xa4\xbe,n,f,sg,3,o,0_\xe0\xa4\x95\xe0\xa5\x8b,0'
p3499
sS'chunkid'
p3500
S'NP3'
p3501
sS'drel'
p3502
S'ccof:CCP'
p3503
sS'vpos'
p3504
S'vib_2'
p3505
sS'chunktype'
p3506
S'head:NP3'
p3507
ssbsg26
I00
sg27
I00
sg28
Nsg29
Nsg30
I3
sg31
I8
sg32
Nsg33
Nsg34
S'NN'
p3508
sg36
g3491
sg37
I00
sba(issf_api
Word
p3509
(dp3510
g6
I00
sg7
V\u0915\u094b
p3511
sg9
(issf_api
FeatureSet
p3512
(dp3513
g12
(dp3514
S'posn'
p3515
S'50'
p3516
sS'name'
p3517
S'\xe0\xa4\x95\xe0\xa5\x8b'
p3518
sS'drel'
p3519
S'lwg__psp:NP3'
p3520
sS'chunktype'
p3521
S'child:NP3'
p3522
sS'af'
p3523
S'\xe0\xa4\x95\xe0\xa5\x8b,psp,,,,,,'
p3524
ssbsg26
I00
sg27
I00
sg28
Nsg29
Nsg30
I3
sg31
I8
sg32
Nsg33
Nsg34
S'PSP'
p3525
sg36
g3512
sg37
I00
sba(issf_api
Word
p3526
(dp3527
g6
I00
sg7
V\u0924\u0939\u0938
p3528
sg9
(issf_api
FeatureSet
p3529
(dp3530
g12
(dp3531
S'posn'
p3532
S'60'
p3533
sS'name'
p3534
S'\xe0\xa4\xa4\xe0\xa4\xb9\xe0\xa4\xb8'
p3535
sS'drel'
p3536
S'pof__cn:NP4'
p3537
sS'chunktype'
p3538
S'child:NP4'
p3539
sS'af'
p3540
S'\xe0\xa4\xa4\xe0\xa4\xb9\xe0\xa4\xb8,n,m,sg,3,d,0,0'
p3541
ssbsg26
I00
sg27
I00
sg28
Nsg29
Nsg30
I4
sg31
I8
sg32
Nsg33
Nsg34
S'NNC'
p3542
sg36
g3529
sg37
I00
sba(issf_api
Word
p3543
(dp3544
g6
I00
sg7
V-
p3545
sg9
(issf_api
FeatureSet
p3546
(dp3547
g12
(dp3548
S'posn'
p3549
S'70'
p3550
sS'name'
p3551
S'-'
p3552
sS'drel'
p3553
S'pof__cn:NP4'
p3554
sS'chunktype'
p3555
S'child:NP4'
p3556
sS'af'
p3557
S'-,punc,,,,,,'
p3558
ssbsg26
I00
sg27
I00
sg28
Nsg29
Nsg30
I4
sg31
I8
sg32
Nsg33
Nsg34
S'SYM'
p3559
sg36
g3546
sg37
I00
sba(issf_api
Word
p3560
(dp3561
g6
I00
sg7
V\u0928\u0939\u0938
p3562
sg9
(issf_api
FeatureSet
p3563
(dp3564
g12
(dp3565
S'posn'
p3566
S'80'
p3567
sS'name'
p3568
S'\xe0\xa4\xa8\xe0\xa4\xb9\xe0\xa4\xb8'
p3569
sS'af'
p3570
S'\xe0\xa4\xa8\xe0\xa4\xb9\xe0\xa4\xb8,n,m,sg,3,d,0,0'
p3571
sS'chunkid'
p3572
S'NP4'
p3573
sS'drel'
p3574
S'pof:VGF'
p3575
sS'chunktype'
p3576
S'head:NP4'
p3577
ssbsg26
I00
sg27
I00
sg28
Nsg29
Nsg30
I4
sg31
I8
sg32
Nsg33
Nsg34
S'NN'
p3578
sg36
g3563
sg37
I00
sba(issf_api
Word
p3579
(dp3580
g6
I00
sg7
V\u0915\u0930
p3581
sg9
(issf_api
FeatureSet
p3582
(dp3583
g12
(dp3584
S'posn'
p3585
S'90'
p3586
sS'name'
p3587
S'\xe0\xa4\x95\xe0\xa4\xb0'
p3588
sS'af'
p3589
S'\xe0\xa4\x95\xe0\xa4\xb0,v,m,sg,3,,0_\xe0\xa4\xb0\xe0\xa4\xb9+\xe0\xa4\xaf\xe0\xa4\xbe_\xe0\xa4\xb9\xe0\xa5\x88,0'
p3590
sS'chunkid'
p3591
S'VGF'
p3592
sS'stype'
p3593
S'declarative'
p3594
sS'drel'
p3595
S'ccof:CCP2'
p3596
sS'voicetype'
p3597
S'active'
p3598
sS'vpos'
p3599
S'tam_2_3'
p3600
sS'chunktype'
p3601
S'head:VGF'
p3602
ssbsg26
I00
sg27
I00
sg28
Nsg29
Nsg30
I5
sg31
I8
sg32
Nsg33
Nsg34
S'VM'
p3603
sg36
g3582
sg37
I00
sba(issf_api
Word
p3604
(dp3605
g6
I00
sg7
V\u0930\u0939\u093e
p3606
sg9
(issf_api
FeatureSet
p3607
(dp3608
g12
(dp3609
S'posn'
p3610
S'100'
p3611
sS'name'
p3612
S'\xe0\xa4\xb0\xe0\xa4\xb9\xe0\xa4\xbe'
p3613
sS'drel'
p3614
S'lwg__vaux:VGF'
p3615
sS'chunktype'
p3616
S'child:VGF'
p3617
sS'af'
p3618
S'\xe0\xa4\xb0\xe0\xa4\xb9,v,m,sg,any,,\xe0\xa4\xaf\xe0\xa4\xbe,yA'
p3619
ssbsg26
I00
sg27
I00
sg28
Nsg29
Nsg30
I5
sg31
I8
sg32
Nsg33
Nsg34
S'VAUX'
p3620
sg36
g3607
sg37
I00
sba(issf_api
Word
p3621
(dp3622
g6
I00
sg7
V\u0939\u0948
p3623
sg9
(issf_api
FeatureSet
p3624
(dp3625
g12
(dp3626
S'posn'
p3627
S'110'
p3628
sS'name'
p3629
S'\xe0\xa4\xb9\xe0\xa5\x88'
p3630
sS'drel'
p3631
S'lwg__vaux:VGF'
p3632
sS'chunktype'
p3633
S'child:VGF'
p3634
sS'af'
p3635
S'\xe0\xa4\xb9\xe0\xa5\x88,v,any,sg,3,,\xe0\xa4\xb9\xe0\xa5\x88,hE'
p3636
ssbsg26
I00
sg27
I00
sg28
Nsg29
Nsg30
I5
sg31
I8
sg32
Nsg33
Nsg34
S'VAUX'
p3637
sg36
g3624
sg37
I00
sba(issf_api
Word
p3638
(dp3639
g6
I00
sg7
V\u0914\u0930
p3640
sg9
(issf_api
FeatureSet
p3641
(dp3642
g12
(dp3643
S'posn'
p3644
S'120'
p3645
sS'chunkid'
p3646
S'CCP2'
p3647
sS'name'
p3648
S'\xe0\xa4\x94\xe0\xa4\xb02'
p3649
sS'chunktype'
p3650
S'head:CCP2'
p3651
sS'af'
p3652
S'\xe0\xa4\x94\xe0\xa4\xb0,avy,,,,,,'
p3653
ssbsg26
I00
sg27
I00
sg28
Nsg29
Nsg30
I6
sg31
I8
sg32
Nsg33
Nsg34
S'CC'
p3654
sg36
g3641
sg37
I00
sba(issf_api
Word
p3655
(dp3656
g6
I00
sg7
V\u0939\u092e\u0947\u0902
p3657
sg9
(issf_api
FeatureSet
p3658
(dp3659
g12
(dp3660
S'crefhead'
p3661
S'\xe0\xa4\xb9\xe0\xa4\xae\xe0\xa5\x87\xe0\xa4\x82:i25'
p3662
sS'posn'
p3663
S'130'
p3664
sS'name'
p3665
S'\xe0\xa4\xb9\xe0\xa4\xae\xe0\xa5\x87\xe0\xa4\x82'
p3666
sS'af'
p3667
S'\xe0\xa4\xb9\xe0\xa4\xae,pn,any,pl,1,o,\xe0\xa4\x95\xe0\xa5\x8b,ko'
p3668
sS'chunkid'
p3669
S'NP5'
p3670
sS'chunktype'
p3671
S'head:NP5'
p3672
sS'crefchainhead'
p3673
S'i25:t8'
p3674
sS'cref'
p3675
S'i25%1:t8'
p3676
sS'drel'
p3677
S'k1:VGF2'
p3678
ssbsg26
I00
sg27
I00
sg28
Nsg29
Nsg30
I7
sg31
I8
sg32
Nsg33
Nsg34
S'PRP'
p3679
sg36
g3658
sg37
I00
sba(issf_api
Word
p3680
(dp3681
g6
I00
sg7
V\u0907\u0938\u0915\u093e
p3682
sg9
(issf_api
FeatureSet
p3683
(dp3684
g12
(dp3685
S'crefhead'
p3686
S'\xe0\xa4\x87\xe0\xa4\xb8\xe0\xa4\x95\xe0\xa4\xbe:i26'
p3687
sS'posn'
p3688
S'140'
p3689
sS'name'
p3690
S'\xe0\xa4\x87\xe0\xa4\xb8\xe0\xa4\x95\xe0\xa4\xbe'
p3691
sS'af'
p3692
S'\xe0\xa4\xaf\xe0\xa4\xb9,pn,m,sg,3,o,\xe0\xa4\x95\xe0\xa4\xbe,kA'
p3693
sS'chunkid'
p3694
S'NP6'
p3695
sS'creftype'
p3696
S'Anaphora-C:i24'
p3697
sS'chunktype'
p3698
S'head:NP6'
p3699
sS'cref'
p3700
S'i26%1:t2'
p3701
sS'drel'
p3702
S'r6-k2:NP7'
p3703
ssbsg26
I00
sg27
I00
sg28
Nsg29
Nsg30
I8
sg31
I8
sg32
Nsg33
Nsg34
S'PRP'
p3704
sg36
g3683
sg37
I00
sba(issf_api
Word
p3705
(dp3706
g6
I00
sg7
V\u092e\u0941\u0915\u093e\u092c\u0932\u093e
p3707
sg9
(issf_api
FeatureSet
p3708
(dp3709
g12
(dp3710
S'posn'
p3711
S'150'
p3712
sS'name'
p3713
S'\xe0\xa4\xae\xe0\xa5\x81\xe0\xa4\x95\xe0\xa4\xbe\xe0\xa4\xac\xe0\xa4\xb2\xe0\xa4\xbe'
p3714
sS'af'
p3715
S'\xe0\xa4\xae\xe0\xa5\x81\xe0\xa4\x95\xe0\xa4\xbe\xe0\xa4\xac\xe0\xa4\xb2\xe0\xa4\xbe,n,m,sg,3,d,0,0'
p3716
sS'chunkid'
p3717
S'NP7'
p3718
sS'drel'
p3719
S'pof:VGF2'
p3720
sS'chunktype'
p3721
S'head:NP7'
p3722
ssbsg26
I00
sg27
I00
sg28
Nsg29
Nsg30
I9
sg31
I8
sg32
Nsg33
Nsg34
S'NN'
p3723
sg36
g3708
sg37
I00
sba(issf_api
Word
p3724
(dp3725
g6
I00
sg7
V\u092e\u093f\u0932\u0915\u0930
p3726
sg9
(issf_api
FeatureSet
p3727
(dp3728
g12
(dp3729
S'posn'
p3730
S'160'
p3731
sS'name'
p3732
S'\xe0\xa4\xae\xe0\xa4\xbf\xe0\xa4\xb2\xe0\xa4\x95\xe0\xa4\xb0'
p3733
sS'af'
p3734
S'\xe0\xa4\xae\xe0\xa4\xbf\xe0\xa4\xb2\xe0\xa4\x95\xe0\xa4\xb0,adv,,,,,,'
p3735
sS'chunkid'
p3736
S'RBP'
p3737
sS'drel'
p3738
S'vmod:VGF2'
p3739
sS'chunktype'
p3740
S'head:RBP'
p3741
ssbsg26
I00
sg27
I00
sg28
Nsg29
Nsg30
I10
sg31
I8
sg32
Nsg33
Nsg34
S'RB'
p3742
sg36
g3727
sg37
I00
sba(issf_api
Word
p3743
(dp3744
g6
I00
sg7
V\u0915\u0930\u0928\u093e
p3745
sg9
(issf_api
FeatureSet
p3746
(dp3747
g12
(dp3748
S'posn'
p3749
S'170'
p3750
sS'name'
p3751
S'\xe0\xa4\x95\xe0\xa4\xb0\xe0\xa4\xa8\xe0\xa4\xbe'
p3752
sS'af'
p3753
S'\xe0\xa4\x95\xe0\xa4\xb0,v,m,any,any,,\xe0\xa4\xa8\xe0\xa4\xbe_\xe0\xa4\x9a\xe0\xa4\xbe\xe0\xa4\xb9\xe0\xa4\xbf\xe0\xa4\x8f,nA'
p3754
sS'chunkid'
p3755
S'VGF2'
p3756
sS'stype'
p3757
S'declarative'
p3758
sS'drel'
p3759
S'ccof:CCP2'
p3760
sS'voicetype'
p3761
S'active'
p3762
sS'vpos'
p3763
S'tam_2'
p3764
sS'chunktype'
p3765
S'head:VGF2'
p3766
ssbsg26
I00
sg27
I00
sg28
Nsg29
Nsg30
I11
sg31
I8
sg32
Nsg33
Nsg34
S'VM'
p3767
sg36
g3746
sg37
I00
sba(issf_api
Word
p3768
(dp3769
g6
I00
sg7
V\u091a\u093e\u0939\u093f\u090f
p3770
sg9
(issf_api
FeatureSet
p3771
(dp3772
g12
(dp3773
S'posn'
p3774
S'180'
p3775
sS'name'
p3776
S'\xe0\xa4\x9a\xe0\xa4\xbe\xe0\xa4\xb9\xe0\xa4\xbf\xe0\xa4\x8f'
p3777
sS'drel'
p3778
S'lwg__vaux:VGF2'
p3779
sS'chunktype'
p3780
S'child:VGF2'
p3781
sS'af'
p3782
S'\xe0\xa4\x9a\xe0\xa4\xbe\xe0\xa4\xb9\xe0\xa4\xbf\xe0\xa4\x8f,v,any,any,any,,0,0'
p3783
ssbsg26
I00
sg27
I00
sg28
Nsg29
Nsg30
I11
sg31
I8
sg32
Nsg33
Nsg34
S'VAUX'
p3784
sg36
g3771
sg37
I00
sba(issf_api
Word
p3785
(dp3786
g6
I00
sg7
V\u0964
p3787
sg9
(issf_api
FeatureSet
p3788
(dp3789
g12
(dp3790
S'posn'
p3791
S'190'
p3792
sS'name'
p3793
S'\xe0\xa5\xa4'
p3794
sS'af'
p3795
S'\xe0\xa5\xa4,punc,,,,,,'
p3796
sS'chunkid'
p3797
S'BLK'
p3798
sS'drel'
p3799
S'rsym:CCP2'
p3800
sS'chunktype'
p3801
S'head:BLK'
p3802
ssbsg26
I00
sg27
I00
sg28
Nsg29
Nsg30
I12
sg31
I8
sg32
Nsg33
Nsg34
S'SYM'
p3803
sg36
g3788
sg37
I00
sba(issf_api
Word
p3804
(dp3805
g6
I00
sg7
V\u0909\u0927\u0930
p3806
sg9
(issf_api
FeatureSet
p3807
(dp3808
g12
(dp3809
S'posn'
p3810
S'10'
p3811
sS'name'
p3812
S'\xe0\xa4\x89\xe0\xa4\xa7\xe0\xa4\xb0'
p3813
sS'af'
p3814
S'\xe0\xa4\x89\xe0\xa4\xa7\xe0\xa4\xb0,nst,m,sg,3,d,,'
p3815
sS'chunkid'
p3816
S'NP'
p3817
sS'drel'
p3818
S'sent-adv:VGF'
p3819
sS'chunktype'
p3820
S'head:NP'
p3821
ssbsg26
I00
sg27
I00
sg28
Nsg29
Nsg30
I0
sg31
I9
sg32
Nsg33
Nsg34
S'NST'
p3822
sg36
g3807
sg37
I00
sba(issf_api
Word
p3823
(dp3824
g6
I00
sg7
V,
p3825
sg9
(issf_api
FeatureSet
p3826
(dp3827
g12
(dp3828
S'posn'
p3829
S'20'
p3830
sS'name'
p3831
S','
p3832
sS'drel'
p3833
S'rsym:NP'
p3834
sS'chunktype'
p3835
S'child:NP'
p3836
sS'af'
p3837
S'COMMA,punc,,,,,,'
p3838
ssbsg26
I00
sg27
I00
sg28
Nsg29
Nsg30
I0
sg31
I9
sg32
Nsg33
Nsg34
S'SYM'
p3839
sg36
g3826
sg37
I00
sba(issf_api
Word
p3840
(dp3841
g6
I00
sg7
V\u0911\u0915\u094d\u0938\u092b\u094b\u0930\u094d\u0921
p3842
sg9
(issf_api
FeatureSet
p3843
(dp3844
g12
(dp3845
S'posn'
p3846
S'30'
p3847
sS'name'
p3848
S'\xe0\xa4\x91\xe0\xa4\x95\xe0\xa5\x8d\xe0\xa4\xb8\xe0\xa4\xab\xe0\xa5\x8b\xe0\xa4\xb0\xe0\xa5\x8d\xe0\xa4\xa1'
p3849
sS'af'
p3850
S'\xe0\xa4\x91\xe0\xa4\x95\xe0\xa5\x8d\xe0\xa4\xb8\xe0\xa4\xab\xe0\xa5\x8b\xe0\xa4\xb0\xe0\xa5\x8d\xe0\xa4\xa1,n,m,sg,3,d,0,0'
p3851
sS'drel'
p3852
S'pof__cn:NP2'
p3853
sS'chunktype'
p3854
S'child:NP2'
p3855
sS'cref'
p3856
S'i27%0:t4'
p3857
ssbsg26
I00
sg27
I00
sg28
Nsg29
Nsg30
I1
sg31
I9
sg32
Nsg33
Nsg34
S'NNPC'
p3858
sg36
g3843
sg37
I00
sba(issf_api
Word
p3859
(dp3860
g6
I00
sg7
V\u0935\u093f\u0936\u094d\u0935\u0935\u093f\u0926\u094d\u092f\u093e\u0932\u092f
p3861
sg9
(issf_api
FeatureSet
p3862
(dp3863
g12
(dp3864
S'crefhead'
p3865
S'\xe0\xa4\xb5\xe0\xa4\xbf\xe0\xa4\xb6\xe0\xa5\x8d\xe0\xa4\xb5\xe0\xa4\xb5\xe0\xa4\xbf\xe0\xa4\xa6\xe0\xa5\x8d\xe0\xa4\xaf\xe0\xa4\xbe\xe0\xa4\xb2\xe0\xa4\xaf:i27'
p3866
sS'posn'
p3867
S'40'
p3868
sS'name'
p3869
S'\xe0\xa4\xb5\xe0\xa4\xbf\xe0\xa4\xb6\xe0\xa5\x8d\xe0\xa4\xb5\xe0\xa4\xb5\xe0\xa4\xbf\xe0\xa4\xa6\xe0\xa5\x8d\xe0\xa4\xaf\xe0\xa4\xbe\xe0\xa4\xb2\xe0\xa4\xaf'
p3870
sS'af'
p3871
S'\xe0\xa4\xb5\xe0\xa4\xbf\xe0\xa4\xb6\xe0\xa5\x8d\xe0\xa4\xb5\xe0\xa4\xb5\xe0\xa4\xbf\xe0\xa4\xa6\xe0\xa5\x8d\xe0\xa4\xaf\xe0\xa4\xbe\xe0\xa4\xb2\xe0\xa4\xaf,n,m,sg,3,o,0_\xe0\xa4\x95\xe0\xa4\xbe_\xe0\xa4\x93\xe0\xa4\xb0_\xe0\xa4\xb8\xe0\xa5\x87,0'
p3872
sS'chunkid'
p3873
S'NP2'
p3874
sS'creftype'
p3875
S'Coreference-Identity:i6'
p3876
sS'chunktype'
p3877
S'head:NP2'
p3878
sS'vpos'
p3879
S'vib_3_4_5'
p3880
sS'cref'
p3881
S'i27%1:t4'
p3882
sS'drel'
p3883
S'rd:VGF'
p3884
ssbsg26
I00
sg27
I00
sg28
Nsg29
Nsg30
I1
sg31
I9
sg32
Nsg33
Nsg34
S'NNP'
p3885
sg36
g3862
sg37
I00
sba(issf_api
Word
p3886
(dp3887
g6
I00
sg7
V\u0915\u0940
p3888
sg9
(issf_api
FeatureSet
p3889
(dp3890
g12
(dp3891
S'posn'
p3892
S'50'
p3893
sS'name'
p3894
S'\xe0\xa4\x95\xe0\xa5\x80'
p3895
sS'drel'
p3896
S'lwg__psp:NP2'
p3897
sS'chunktype'
p3898
S'child:NP2'
p3899
sS'af'
p3900
S'\xe0\xa4\x95\xe0\xa4\xbe,psp,f,sg,,o,,'
p3901
ssbsg26
I00
sg27
I00
sg28
Nsg29
Nsg30
I1
sg31
I9
sg32
Nsg33
Nsg34
S'PSP'
p3902
sg36
g3889
sg37
I00
sba(issf_api
Word
p3903
(dp3904
g6
I00
sg7
V\u0913\u0930
p3905
sg9
(issf_api
FeatureSet
p3906
(dp3907
g12
(dp3908
S'posn'
p3909
S'60'
p3910
sS'name'
p3911
S'\xe0\xa4\x93\xe0\xa4\xb0'
p3912
sS'drel'
p3913
S'lwg__psp:NP2'
p3914
sS'chunktype'
p3915
S'child:NP2'
p3916
sS'af'
p3917
S'\xe0\xa4\x93\xe0\xa4\xb0,nst,f,sg,3,o,,'
p3918
ssbsg26
I00
sg27
I00
sg28
Nsg29
Nsg30
I1
sg31
I9
sg32
Nsg33
Nsg34
S'NST'
p3919
sg36
g3906
sg37
I00
sba(issf_api
Word
p3920
(dp3921
g6
I00
sg7
V\u0938\u0947
p3922
sg9
(issf_api
FeatureSet
p3923
(dp3924
g12
(dp3925
S'posn'
p3926
S'70'
p3927
sS'name'
p3928
S'\xe0\xa4\xb8\xe0\xa5\x87'
p3929
sS'drel'
p3930
S'lwg__psp:NP2'
p3931
sS'chunktype'
p3932
S'child:NP2'
p3933
sS'af'
p3934
S'\xe0\xa4\xb8\xe0\xa5\x87,psp,,,,,,'
p3935
ssbsg26
I00
sg27
I00
sg28
Nsg29
Nsg30
I1
sg31
I9
sg32
Nsg33
Nsg34
S'PSP'
p3936
sg36
g3923
sg37
I00
sba(issf_api
Word
p3937
(dp3938
g6
I00
sg7
V\u0906\u091c
p3939
sg9
(issf_api
FeatureSet
p3940
(dp3941
g12
(dp3942
S'posn'
p3943
S'80'
p3944
sS'name'
p3945
S'\xe0\xa4\x86\xe0\xa4\x9c'
p3946
sS'af'
p3947
S'\xe0\xa4\x86\xe0\xa4\x9c,n,m,sg,3,d,0,0'
p3948
sS'chunkid'
p3949
S'NP3'
p3950
sS'drel'
p3951
S'k7t:VGF'
p3952
sS'chunktype'
p3953
S'head:NP3'
p3954
ssbsg26
I00
sg27
I00
sg28
Nsg29
Nsg30
I2
sg31
I9
sg32
Nsg33
Nsg34
S'NN'
p3955
sg36
g3940
sg37
I00
sba(issf_api
Word
p3956
(dp3957
g6
I00
sg7
V\u092e\u0928\u092e\u094b\u0939\u0928
p3958
sg9
(issf_api
FeatureSet
p3959
(dp3960
g12
(dp3961
S'posn'
p3962
S'90'
p3963
sS'name'
p3964
S'\xe0\xa4\xae\xe0\xa4\xa8\xe0\xa4\xae\xe0\xa5\x8b\xe0\xa4\xb9\xe0\xa4\xa8'
p3965
sS'af'
p3966
S'\xe0\xa4\xae\xe0\xa4\xa8\xe0\xa4\xae\xe0\xa5\x8b\xe0\xa4\xb9\xe0\xa4\xa8,n,m,sg,3,d,0,0'
p3967
sS'drel'
p3968
S'pof__cn:NP4'
p3969
sS'chunktype'
p3970
S'child:NP4'
p3971
sS'cref'
p3972
S'i28%0:t1'
p3973
ssbsg26
I00
sg27
I00
sg28
Nsg29
Nsg30
I3
sg31
I9
sg32
Nsg33
Nsg34
S'NNPC'
p3974
sg36
g3959
sg37
I00
sba(issf_api
Word
p3975
(dp3976
g6
I00
sg7
V\u0938\u093f\u0902\u0939
p3977
sg9
(issf_api
FeatureSet
p3978
(dp3979
g12
(dp3980
S'crefhead'
p3981
S'\xe0\xa4\xb8\xe0\xa4\xbf\xe0\xa4\x82\xe0\xa4\xb9:i28'
p3982
sS'posn'
p3983
S'100'
p3984
sS'name'
p3985
S'\xe0\xa4\xb8\xe0\xa4\xbf\xe0\xa4\x82\xe0\xa4\xb9'
p3986
sS'af'
p3987
S'\xe0\xa4\xb8\xe0\xa4\xbf\xe0\xa4\x82\xe0\xa4\xb9,n,m,sg,3,o,0_\xe0\xa4\x95\xe0\xa5\x8b,0'
p3988
sS'chunkid'
p3989
S'NP4'
p3990
sS'creftype'
p3991
S'Coreference-Identity:i22'
p3992
sS'chunktype'
p3993
S'head:NP4'
p3994
sS'vpos'
p3995
S'vib_3'
p3996
sS'cref'
p3997
S'i28%1:t1'
p3998
sS'drel'
p3999
S'k4:VGF'
p4000
ssbsg26
I00
sg27
I00
sg28
Nsg29
Nsg30
I3
sg31
I9
sg32
Nsg33
Nsg34
S'NNP'
p4001
sg36
g3978
sg37
I00
sba(issf_api
Word
p4002
(dp4003
g6
I00
sg7
V\u0915\u094b
p4004
sg9
(issf_api
FeatureSet
p4005
(dp4006
g12
(dp4007
S'posn'
p4008
S'110'
p4009
sS'name'
p4010
S'\xe0\xa4\x95\xe0\xa5\x8b'
p4011
sS'drel'
p4012
S'lwg__psp:NP4'
p4013
sS'chunktype'
p4014
S'child:NP4'
p4015
sS'af'
p4016
S'\xe0\xa4\x95\xe0\xa5\x8b,psp,,,,,,'
p4017
ssbsg26
I00
sg27
I00
sg28
Nsg29
Nsg30
I3
sg31
I9
sg32
Nsg33
Nsg34
S'PSP'
p4018
sg36
g4005
sg37
I00
sba(issf_api
Word
p4019
(dp4020
g6
I00
sg7
V\u0928\u093e\u0917\u0930\u093f\u0915
p4021
sg9
(issf_api
FeatureSet
p4022
(dp4023
g12
(dp4024
S'posn'
p4025
S'120'
p4026
sS'name'
p4027
S'\xe0\xa4\xa8\xe0\xa4\xbe\xe0\xa4\x97\xe0\xa4\xb0\xe0\xa4\xbf\xe0\xa4\x95'
p4028
sS'af'
p4029
S'\xe0\xa4\xa8\xe0\xa4\xbe\xe0\xa4\x97\xe0\xa4\xb0\xe0\xa4\xbf\xe0\xa4\x95,n,m,sg,3,d,0,0'
p4030
sS'acrefmod'
p4031
S'm2%0:i29'
p4032
sS'drel'
p4033
S'pof__cn:NP5'
p4034
sS'chunktype'
p4035
S'child:NP5'
p4036
ssbsg26
I00
sg27
I00
sg28
Nsg29
Nsg30
I4
sg31
I9
sg32
Nsg33
Nsg34
S'NNPC'
p4037
sg36
g4022
sg37
I00
sba(issf_api
Word
p4038
(dp4039
g6
I00
sg7
V\u0915\u093e\u0928\u0942\u0928
p4040
sg9
(issf_api
FeatureSet
p4041
(dp4042
g12
(dp4043
S'posn'
p4044
S'130'
p4045
sS'name'
p4046
S'\xe0\xa4\x95\xe0\xa4\xbe\xe0\xa4\xa8\xe0\xa5\x82\xe0\xa4\xa8'
p4047
sS'af'
p4048
S'\xe0\xa4\x95\xe0\xa4\xbe\xe0\xa4\xa8\xe0\xa5\x82\xe0\xa4\xa8,n,m,sg,3,o,0_\xe0\xa4\xae\xe0\xa5\x87\xe0\xa4\x82,0'
p4049
sS'chunkid'
p4050
S'NP5'
p4051
sS'acrefmod'
p4052
S'm2%0:i29'
p4053
sS'drel'
p4054
S'k7:VGF'
p4055
sS'vpos'
p4056
S'vib_3'
p4057
sS'chunktype'
p4058
S'head:NP5'
p4059
ssbsg26
I00
sg27
I00
sg28
Nsg29
Nsg30
I4
sg31
I9
sg32
Nsg33
Nsg34
S'NNP'
p4060
sg36
g4041
sg37
I00
sba(issf_api
Word
p4061
(dp4062
g6
I00
sg7
V\u092e\u0947\u0902
p4063
sg9
(issf_api
FeatureSet
p4064
(dp4065
g12
(dp4066
S'posn'
p4067
S'140'
p4068
sS'name'
p4069
S'\xe0\xa4\xae\xe0\xa5\x87\xe0\xa4\x82'
p4070
sS'af'
p4071
S'\xe0\xa4\xae\xe0\xa5\x87\xe0\xa4\x82,psp,,,,,,'
p4072
sS'acrefmod'
p4073
S'm2%0:i29'
p4074
sS'drel'
p4075
S'lwg__psp:NP5'
p4076
sS'chunktype'
p4077
S'child:NP5'
p4078
ssbsg26
I00
sg27
I00
sg28
Nsg29
Nsg30
I4
sg31
I9
sg32
Nsg33
Nsg34
S'PSP'
p4079
sg36
g4064
sg37
I00
sba(issf_api
Word
p4080
(dp4081
g6
I00
sg7
V\u0921\u0949\u0915\u094d\u091f\u0930\u0947\u091f
p4082
sg9
(issf_api
FeatureSet
p4083
(dp4084
g12
(dp4085
S'posn'
p4086
S'150'
p4087
sS'name'
p4088
S'\xe0\xa4\xa1\xe0\xa5\x89\xe0\xa4\x95\xe0\xa5\x8d\xe0\xa4\x9f\xe0\xa4\xb0\xe0\xa5\x87\xe0\xa4\x9f'
p4089
sS'af'
p4090
S'\xe0\xa4\xa1\xe0\xa5\x89\xe0\xa4\x95\xe0\xa5\x8d\xe0\xa4\x9f\xe0\xa4\xb0\xe0\xa5\x87\xe0\xa4\x9f,n,f,sg,3,o,0_\xe0\xa4\x95\xe0\xa4\xbe,0'
p4091
sS'acrefmodhead'
p4092
S'\xe0\xa4\xa1\xe0\xa5\x89\xe0\xa4\x95\xe0\xa5\x8d\xe0\xa4\x9f\xe0\xa4\xb0\xe0\xa5\x87\xe0\xa4\x9f:m2'
p4093
sS'chunkid'
p4094
S'NP6'
p4095
sS'acrefmod'
p4096
S'm2%1:i29'
p4097
sS'drel'
p4098
S'r6:NP7'
p4099
sS'vpos'
p4100
S'vib_2'
p4101
sS'chunktype'
p4102
S'head:NP6'
p4103
ssbsg26
I00
sg27
I00
sg28
Nsg29
Nsg30
I5
sg31
I9
sg32
Nsg33
Nsg34
S'NN'
p4104
sg36
g4083
sg37
I00
sba(issf_api
Word
p4105
(dp4106
g6
I00
sg7
V\u0915\u0940
p4107
sg9
(issf_api
FeatureSet
p4108
(dp4109
g12
(dp4110
S'posn'
p4111
S'160'
p4112
sS'name'
p4113
S'\xe0\xa4\x95\xe0\xa5\x802'
p4114
sS'drel'
p4115
S'lwg__psp:NP6'
p4116
sS'chunktype'
p4117
S'child:NP6'
p4118
sS'af'
p4119
S'\xe0\xa4\x95\xe0\xa4\xbe,psp,f,sg,,d,,'
p4120
ssbsg26
I00
sg27
I00
sg28
Nsg29
Nsg30
I5
sg31
I9
sg32
Nsg33
Nsg34
S'PSP'
p4121
sg36
g4108
sg37
I00
sba(issf_api
Word
p4122
(dp4123
g6
I00
sg7
V\u092e\u093e\u0928\u0926
p4124
sg9
(issf_api
FeatureSet
p4125
(dp4126
g12
(dp4127
S'posn'
p4128
S'90'
p4129
sS'name'
p4130
S'\xe0\xa4\xae\xe0\xa4\xbe\xe0\xa4\xa8\xe0\xa4\xa6'
p4131
sS'af'
p4132
S'\xe0\xa4\xae\xe0\xa4\xbe\xe0\xa4\xa8\xe0\xa4\xa6,adj,any,any,,d,,'
p4133
sS'drel'
p4134
S'pof__cn:NP7'
p4135
sS'chunktype'
p4136
S'child:NP7'
p4137
sS'cref'
p4138
S'i29%0:t5'
p4139
ssbsg26
I00
sg27
I00
sg28
Nsg29
Nsg30
I6
sg31
I9
sg32
Nsg33
Nsg34
S'NNC'
p4140
sg36
g4125
sg37
I00
sba(issf_api
Word
p4141
(dp4142
g6
I00
sg7
V\u0909\u092a\u093e\u0927\u093f
p4143
sg9
(issf_api
FeatureSet
p4144
(dp4145
g12
(dp4146
S'crefhead'
p4147
S'\xe0\xa4\x89\xe0\xa4\xaa\xe0\xa4\xbe\xe0\xa4\xa7\xe0\xa4\xbf:i29'
p4148
sS'posn'
p4149
S'180'
p4150
sS'name'
p4151
S'\xe0\xa4\x89\xe0\xa4\xaa\xe0\xa4\xbe\xe0\xa4\xa7\xe0\xa4\xbf'
p4152
sS'af'
p4153
S'\xe0\xa4\x89\xe0\xa4\xaa\xe0\xa4\xbe\xe0\xa4\xa7\xe0\xa4\xbf,n,f,sg,3,d,0,0'
p4154
sS'chunkid'
p4155
S'NP7'
p4156
sS'crefmod'
p4157
S'm2:i29'
p4158
sS'creftype'
p4159
S'Coreference-Identity:i8'
p4160
sS'chunktype'
p4161
S'head:NP7'
p4162
sS'cref'
p4163
S'i29%1:t5'
p4164
sS'drel'
p4165
S'k2:VGF'
p4166
ssbsg26
I00
sg27
I00
sg28
Nsg29
Nsg30
I6
sg31
I9
sg32
Nsg33
Nsg34
S'NN'
p4167
sg36
g4144
sg37
I00
sba(issf_api
Word
p4168
(dp4169
g6
I00
sg7
V\u092a\u094d\u0930\u0926\u093e\u0928
p4170
sg9
(issf_api
FeatureSet
p4171
(dp4172
g12
(dp4173
S'posn'
p4174
S'190'
p4175
sS'name'
p4176
S'\xe0\xa4\xaa\xe0\xa5\x8d\xe0\xa4\xb0\xe0\xa4\xa6\xe0\xa4\xbe\xe0\xa4\xa8'
p4177
sS'af'
p4178
S'\xe0\xa4\xaa\xe0\xa5\x8d\xe0\xa4\xb0\xe0\xa4\xa6\xe0\xa4\xbe\xe0\xa4\xa8,n,m,sg,3,d,0,0'
p4179
sS'chunkid'
p4180
S'NP8'
p4181
sS'drel'
p4182
S'pof:VGF'
p4183
sS'chunktype'
p4184
S'head:NP8'
p4185
ssbsg26
I00
sg27
I00
sg28
Nsg29
Nsg30
I7
sg31
I9
sg32
Nsg33
Nsg34
S'NN'
p4186
sg36
g4171
sg37
I00
sba(issf_api
Word
p4187
(dp4188
g6
I00
sg7
V\u0915\u0940
p4189
sg9
(issf_api
FeatureSet
p4190
(dp4191
g12
(dp4192
S'posn'
p4193
S'200'
p4194
sS'name'
p4195
S'\xe0\xa4\x95\xe0\xa5\x803'
p4196
sS'af'
p4197
S'\xe0\xa4\x95\xe0\xa4\xb0,v,f,sg,any,,\xe0\xa4\xaf\xe0\xa4\xbe_\xe0\xa4\x9c\xe0\xa4\xbe+\xe0\xa4\xaf\xe0\xa4\xbe\xe0\xa5\xa7,yA'
p4198
sS'chunkid'
p4199
S'VGF'
p4200
sS'chunktype'
p4201
S'head:VGF'
p4202
sS'voicetype'
p4203
S'active'
p4204
sS'vpos'
p4205
S'tam_2'
p4206
sS'stype'
p4207
S'declarative'
p4208
ssbsg26
I00
sg27
I00
sg28
Nsg29
Nsg30
I8
sg31
I9
sg32
Nsg33
Nsg34
S'VM'
p4209
sg36
g4190
sg37
I00
sba(issf_api
Word
p4210
(dp4211
g6
I00
sg7
V\u0917\u0908
p4212
sg9
(issf_api
FeatureSet
p4213
(dp4214
g12
(dp4215
S'posn'
p4216
S'210'
p4217
sS'name'
p4218
S'\xe0\xa4\x97\xe0\xa4\x88'
p4219
sS'drel'
p4220
S'lwg__vaux:VGF'
p4221
sS'chunktype'
p4222
S'child:VGF'
p4223
sS'af'
p4224
S'\xe0\xa4\x9c\xe0\xa4\xbe,v,f,sg,any,,\xe0\xa4\xaf\xe0\xa4\xbe\xe0\xa5\xa7,yA1'
p4225
ssbsg26
I00
sg27
I00
sg28
Nsg29
Nsg30
I8
sg31
I9
sg32
Nsg33
Nsg34
S'VAUX'
p4226
sg36
g4213
sg37
I00
sba(issf_api
Word
p4227
(dp4228
g6
I00
sg7
V\u0964
p4229
sg9
(issf_api
FeatureSet
p4230
(dp4231
g12
(dp4232
S'posn'
p4233
S'220'
p4234
sS'name'
p4235
S'\xe0\xa5\xa4'
p4236
sS'af'
p4237
S'\xe0\xa5\xa4,punc,,,,,,'
p4238
sS'chunkid'
p4239
S'BLK'
p4240
sS'drel'
p4241
S'rsym:VGF'
p4242
sS'chunktype'
p4243
S'head:BLK'
p4244
ssbsg26
I00
sg27
I00
sg28
Nsg29
Nsg30
I9
sg31
I9
sg32
Nsg33
Nsg34
S'SYM'
p4245
sg36
g4230
sg37
I00
sba(issf_api
Word
p4246
(dp4247
g6
I00
sg7
V\u0938\u093f\u0902\u0939
p4248
sg9
(issf_api
FeatureSet
p4249
(dp4250
g12
(dp4251
S'crefhead'
p4252
S'\xe0\xa4\xb8\xe0\xa4\xbf\xe0\xa4\x82\xe0\xa4\xb9:i30'
p4253
sS'posn'
p4254
S'10'
p4255
sS'name'
p4256
S'\xe0\xa4\xb8\xe0\xa4\xbf\xe0\xa4\x82\xe0\xa4\xb9'
p4257
sS'af'
p4258
S'\xe0\xa4\xb8\xe0\xa4\xbf\xe0\xa4\x82\xe0\xa4\xb9,n,m,sg,3,d,0,0'
p4259
sS'chunkid'
p4260
S'NP'
p4261
sS'creftype'
p4262
S'Coreference-Identity:i28'
p4263
sS'chunktype'
p4264
S'head:NP'
p4265
sS'cref'
p4266
S'i30%1:t1'
p4267
sS'drel'
p4268
S'k1:VGF'
p4269
ssbsg26
I00
sg27
I00
sg28
Nsg29
Nsg30
I0
sg31
I10
sg32
Nsg33
Nsg34
S'NNP'
p4270
sg36
g4249
sg37
I00
sba(issf_api
Word
p4271
(dp4272
g6
I00
sg7
V\u092a\u093e\u0902\u091a
p4273
sg9
(issf_api
FeatureSet
p4274
(dp4275
g12
(dp4276
S'posn'
p4277
S'20'
p4278
sS'name'
p4279
S'\xe0\xa4\xaa\xe0\xa4\xbe\xe0\xa4\x82\xe0\xa4\x9a'
p4280
sS'drel'
p4281
S'nmod__adj:NP2'
p4282
sS'chunktype'
p4283
S'child:NP2'
p4284
sS'af'
p4285
S'\xe0\xa4\xaa\xe0\xa4\xbe\xe0\xa4\x82\xe0\xa4\x9a,num,any,any,,any,,'
p4286
ssbsg26
I00
sg27
I00
sg28
Nsg29
Nsg30
I1
sg31
I10
sg32
Nsg33
Nsg34
S'QC'
p4287
sg36
g4274
sg37
I00
sba(issf_api
Word
p4288
(dp4289
g6
I00
sg7
V\u0926\u0936\u0915
p4290
sg9
(issf_api
FeatureSet
p4291
(dp4292
g12
(dp4293
S'posn'
p4294
S'30'
p4295
sS'name'
p4296
S'\xe0\xa4\xa6\xe0\xa4\xb6\xe0\xa4\x95'
p4297
sS'af'
p4298
S'\xe0\xa4\xa6\xe0\xa4\xb6\xe0\xa4\x95,n,m,sg,3,d,0_\xe0\xa4\xaa\xe0\xa5\x82\xe0\xa4\xb0\xe0\xa5\x8d\xe0\xa4\xb5,0'
p4299
sS'chunkid'
p4300
S'NP2'
p4301
sS'drel'
p4302
S'k7t:VGF'
p4303
sS'vpos'
p4304
S'vib_3'
p4305
sS'chunktype'
p4306
S'head:NP2'
p4307
ssbsg26
I00
sg27
I00
sg28
Nsg29
Nsg30
I1
sg31
I10
sg32
Nsg33
Nsg34
S'NN'
p4308
sg36
g4291
sg37
I00
sba(issf_api
Word
p4309
(dp4310
g6
I00
sg7
V\u092a\u0942\u0930\u094d\u0935
p4311
sg9
(issf_api
FeatureSet
p4312
(dp4313
g12
(dp4314
S'posn'
p4315
S'40'
p4316
sS'name'
p4317
S'\xe0\xa4\xaa\xe0\xa5\x82\xe0\xa4\xb0\xe0\xa5\x8d\xe0\xa4\xb5'
p4318
sS'drel'
p4319
S'lwg__psp:NP2'
p4320
sS'chunktype'
p4321
S'child:NP2'
p4322
sS'af'
p4323
S'\xe0\xa4\xaa\xe0\xa5\x82\xe0\xa4\xb0\xe0\xa5\x8d\xe0\xa4\xb5,nst,m,sg,3,d,,'
p4324
ssbsg26
I00
sg27
I00
sg28
Nsg29
Nsg30
I1
sg31
I10
sg32
Nsg33
Nsg34
S'NST'
p4325
sg36
g4312
sg37
I00
sba(issf_api
Word
p4326
(dp4327
g6
I00
sg7
V\u0935\u093f\u0936\u094d\u0935\u0935\u093f\u0926\u094d\u092f\u093e\u0932\u092f
p4328
sg9
(issf_api
FeatureSet
p4329
(dp4330
g12
(dp4331
S'crefhead'
p4332
S'\xe0\xa4\xb5\xe0\xa4\xbf\xe0\xa4\xb6\xe0\xa5\x8d\xe0\xa4\xb5\xe0\xa4\xb5\xe0\xa4\xbf\xe0\xa4\xa6\xe0\xa5\x8d\xe0\xa4\xaf\xe0\xa4\xbe\xe0\xa4\xb2\xe0\xa4\xaf:i31'
p4333
sS'posn'
p4334
S'50'
p4335
sS'name'
p4336
S'\xe0\xa4\xb5\xe0\xa4\xbf\xe0\xa4\xb6\xe0\xa5\x8d\xe0\xa4\xb5\xe0\xa4\xb5\xe0\xa4\xbf\xe0\xa4\xa6\xe0\xa5\x8d\xe0\xa4\xaf\xe0\xa4\xbe\xe0\xa4\xb2\xe0\xa4\xaf'
p4337
sS'af'
p4338
S'\xe0\xa4\xb5\xe0\xa4\xbf\xe0\xa4\xb6\xe0\xa5\x8d\xe0\xa4\xb5\xe0\xa4\xb5\xe0\xa4\xbf\xe0\xa4\xa6\xe0\xa5\x8d\xe0\xa4\xaf\xe0\xa4\xbe\xe0\xa4\xb2\xe0\xa4\xaf,n,m,sg,3,o,0_\xe0\xa4\x95\xe0\xa4\xbe,0'
p4339
sS'chunkid'
p4340
S'NP3'
p4341
sS'creftype'
p4342
S'Coreference-Identity:i27'
p4343
sS'chunktype'
p4344
S'head:NP3'
p4345
sS'vpos'
p4346
S'vib_2'
p4347
sS'cref'
p4348
S'i31%1:t4'
p4349
sS'drel'
p4350
S'r6:NP4'
p4351
ssbsg26
I00
sg27
I00
sg28
Nsg29
Nsg30
I2
sg31
I10
sg32
Nsg33
Nsg34
S'NN'
p4352
sg36
g4329
sg37
I00
sba(issf_api
Word
p4353
(dp4354
g6
I00
sg7
V\u0915\u0947
p4355
sg9
(issf_api
FeatureSet
p4356
(dp4357
g12
(dp4358
S'posn'
p4359
S'60'
p4360
sS'name'
p4361
S'\xe0\xa4\x95\xe0\xa5\x87'
p4362
sS'drel'
p4363
S'lwg__psp:NP3'
p4364
sS'chunktype'
p4365
S'child:NP3'
p4366
sS'af'
p4367
S'\xe0\xa4\x95\xe0\xa4\xbe,psp,m,sg,3h,d,,'
p4368
ssbsg26
I00
sg27
I00
sg28
Nsg29
Nsg30
I2
sg31
I10
sg32
Nsg33
Nsg34
S'PSP'
p4369
sg36
g4356
sg37
I00
sba(issf_api
Word
p4370
(dp4371
g6
I00
sg7
V\u091b\u093e\u0924\u094d\u0930
p4372
sg9
(issf_api
FeatureSet
p4373
(dp4374
g12
(dp4375
S'posn'
p4376
S'70'
p4377
sS'name'
p4378
S'\xe0\xa4\x9b\xe0\xa4\xbe\xe0\xa4\xa4\xe0\xa5\x8d\xe0\xa4\xb0'
p4379
sS'af'
p4380
S'\xe0\xa4\x9b\xe0\xa4\xbe\xe0\xa4\xa4\xe0\xa5\x8d\xe0\xa4\xb0,n,m,sg,3,d,0,0'
p4381
sS'chunkid'
p4382
S'NP4'
p4383
sS'drel'
p4384
S'k1s:VGF'
p4385
sS'chunktype'
p4386
S'head:NP4'
p4387
ssbsg26
I00
sg27
I00
sg28
Nsg29
Nsg30
I3
sg31
I10
sg32
Nsg33
Nsg34
S'NN'
p4388
sg36
g4373
sg37
I00
sba(issf_api
Word
p4389
(dp4390
g6
I00
sg7
V\u0930\u0939\u0947
p4391
sg9
(issf_api
FeatureSet
p4392
(dp4393
g12
(dp4394
S'posn'
p4395
S'80'
p4396
sS'name'
p4397
S'\xe0\xa4\xb0\xe0\xa4\xb9\xe0\xa5\x87'
p4398
sS'af'
p4399
S'\xe0\xa4\xb0\xe0\xa4\xb9,v,m,sg,3h,,\xe0\xa4\xaf\xe0\xa4\xbe_\xe0\xa4\xa5\xe0\xa4\xbe,yA'
p4400
sS'chunkid'
p4401
S'VGF'
p4402
sS'chunktype'
p4403
S'head:VGF'
p4404
sS'voicetype'
p4405
S'active'
p4406
sS'vpos'
p4407
S'tam_2'
p4408
sS'stype'
p4409
S'declarative'
p4410
ssbsg26
I00
sg27
I00
sg28
Nsg29
Nsg30
I4
sg31
I10
sg32
Nsg33
Nsg34
S'VM'
p4411
sg36
g4392
sg37
I00
sba(issf_api
Word
p4412
(dp4413
g6
I00
sg7
V\u0925\u0947
p4414
sg9
(issf_api
FeatureSet
p4415
(dp4416
g12
(dp4417
S'posn'
p4418
S'90'
p4419
sS'name'
p4420
S'\xe0\xa4\xa5\xe0\xa5\x87'
p4421
sS'drel'
p4422
S'lwg__vaux:VGF'
p4423
sS'chunktype'
p4424
S'child:VGF'
p4425
sS'af'
p4426
S'\xe0\xa4\xa5\xe0\xa4\xbe,v,m,sg,3h,,\xe0\xa4\xa5\xe0\xa4\xbe,WA'
p4427
ssbsg26
I00
sg27
I00
sg28
Nsg29
Nsg30
I4
sg31
I10
sg32
Nsg33
Nsg34
S'VAUX'
p4428
sg36
g4415
sg37
I00
sba(issf_api
Word
p4429
(dp4430
g6
I00
sg7
V\u0964
p4431
sg9
(issf_api
FeatureSet
p4432
(dp4433
g12
(dp4434
S'posn'
p4435
S'100'
p4436
sS'name'
p4437
S'\xe0\xa5\xa4'
p4438
sS'af'
p4439
S'\xe0\xa5\xa4,punc,,,,,,'
p4440
sS'chunkid'
p4441
S'BLK'
p4442
sS'drel'
p4443
S'rsym:VGF'
p4444
sS'chunktype'
p4445
S'head:BLK'
p4446
ssbsg26
I00
sg27
I00
sg28
Nsg29
Nsg30
I5
sg31
I10
sg32
Nsg33
Nsg34
S'SYM'
p4447
sg36
g4432
sg37
I00
sba(issf_api
Word
p4448
(dp4449
g6
I00
sg7
V\u0938\u093f\u0902\u0939
p4450
sg9
(issf_api
FeatureSet
p4451
(dp4452
g12
(dp4453
S'crefhead'
p4454
S'\xe0\xa4\xb8\xe0\xa4\xbf\xe0\xa4\x82\xe0\xa4\xb9:i32'
p4455
sS'posn'
p4456
S'10'
p4457
sS'name'
p4458
S'\xe0\xa4\xb8\xe0\xa4\xbf\xe0\xa4\x82\xe0\xa4\xb9'
p4459
sS'af'
p4460
S'\xe0\xa4\xb8\xe0\xa4\xbf\xe0\xa4\x82\xe0\xa4\xb9,n,m,sg,3,o,0_\xe0\xa4\xa8\xe0\xa5\x87,0'
p4461
sS'chunkid'
p4462
S'NP'
p4463
sS'creftype'
p4464
S'Coreference-Identity:i30'
p4465
sS'chunktype'
p4466
S'head:NP'
p4467
sS'vpos'
p4468
S'vib_2'
p4469
sS'cref'
p4470
S'i32%1:t1'
p4471
sS'drel'
p4472
S'k1:VGF'
p4473
ssbsg26
I00
sg27
I00
sg28
Nsg29
Nsg30
I0
sg31
I11
sg32
Nsg33
Nsg34
S'NNP'
p4474
sg36
g4451
sg37
I00
sba(issf_api
Word
p4475
(dp4476
g6
I00
sg7
V\u0928\u0947
p4477
sg9
(issf_api
FeatureSet
p4478
(dp4479
g12
(dp4480
S'posn'
p4481
S'20'
p4482
sS'name'
p4483
S'\xe0\xa4\xa8\xe0\xa5\x87'
p4484
sS'drel'
p4485
S'lwg__psp:NP'
p4486
sS'chunktype'
p4487
S'child:NP'
p4488
sS'af'
p4489
S'\xe0\xa4\xa8\xe0\xa5\x87,psp,,,,,,'
p4490
ssbsg26
I00
sg27
I00
sg28
Nsg29
Nsg30
I0
sg31
I11
sg32
Nsg33
Nsg34
S'PSP'
p4491
sg36
g4478
sg37
I00
sba(issf_api
Word
p4492
(dp4493
g6
I00
sg7
V\u0967\u096f\u096b\u096d
p4494
sg9
(issf_api
FeatureSet
p4495
(dp4496
g12
(dp4497
S'posn'
p4498
S'30'
p4499
sS'name'
p4500
S'\xe0\xa5\xa7\xe0\xa5\xaf\xe0\xa5\xab\xe0\xa5\xad'
p4501
sS'af'
p4502
S'\xe0\xa5\xa7\xe0\xa5\xaf\xe0\xa5\xab\xe0\xa5\xad,n,any,sg,3,o,0_\xe0\xa4\xae\xe0\xa5\x87\xe0\xa4\x82,0'
p4503
sS'chunkid'
p4504
S'NP2'
p4505
sS'drel'
p4506
S'k7t:VGF'
p4507
sS'vpos'
p4508
S'vib_2'
p4509
sS'chunktype'
p4510
S'head:NP2'
p4511
ssbsg26
I00
sg27
I00
sg28
Nsg29
Nsg30
I1
sg31
I11
sg32
Nsg33
Nsg34
S'NNP'
p4512
sg36
g4495
sg37
I00
sba(issf_api
Word
p4513
(dp4514
g6
I00
sg7
V\u092e\u0947\u0902
p4515
sg9
(issf_api
FeatureSet
p4516
(dp4517
g12
(dp4518
S'posn'
p4519
S'40'
p4520
sS'name'
p4521
S'\xe0\xa4\xae\xe0\xa5\x87\xe0\xa4\x82'
p4522
sS'drel'
p4523
S'lwg__psp:NP2'
p4524
sS'chunktype'
p4525
S'child:NP2'
p4526
sS'af'
p4527
S'\xe0\xa4\xae\xe0\xa5\x87\xe0\xa4\x82,psp,,,,,,'
p4528
ssbsg26
I00
sg27
I00
sg28
Nsg29
Nsg30
I1
sg31
I11
sg32
Nsg33
Nsg34
S'PSP'
p4529
sg36
g4516
sg37
I00
sba(issf_api
Word
p4530
(dp4531
g6
I00
sg7
V\u0935\u093f\u0936\u094d\u0935\u0935\u093f\u0926\u094d\u092f\u093e\u0932\u092f
p4532
sg9
(issf_api
FeatureSet
p4533
(dp4534
g12
(dp4535
S'crefhead'
p4536
S'\xe0\xa4\xb5\xe0\xa4\xbf\xe0\xa4\xb6\xe0\xa5\x8d\xe0\xa4\xb5\xe0\xa4\xb5\xe0\xa4\xbf\xe0\xa4\xa6\xe0\xa5\x8d\xe0\xa4\xaf\xe0\xa4\xbe\xe0\xa4\xb2\xe0\xa4\xaf:i33'
p4537
sS'posn'
p4538
S'50'
p4539
sS'name'
p4540
S'\xe0\xa4\xb5\xe0\xa4\xbf\xe0\xa4\xb6\xe0\xa5\x8d\xe0\xa4\xb5\xe0\xa4\xb5\xe0\xa4\xbf\xe0\xa4\xa6\xe0\xa5\x8d\xe0\xa4\xaf\xe0\xa4\xbe\xe0\xa4\xb2\xe0\xa4\xaf'
p4541
sS'af'
p4542
S'\xe0\xa4\xb5\xe0\xa4\xbf\xe0\xa4\xb6\xe0\xa5\x8d\xe0\xa4\xb5\xe0\xa4\xb5\xe0\xa4\xbf\xe0\xa4\xa6\xe0\xa5\x8d\xe0\xa4\xaf\xe0\xa4\xbe\xe0\xa4\xb2\xe0\xa4\xaf,n,m,sg,3,o,0_\xe0\xa4\x95\xe0\xa4\xbe,0'
p4543
sS'chunkid'
p4544
S'NP3'
p4545
sS'creftype'
p4546
S'Coreference-Identity:i31'
p4547
sS'chunktype'
p4548
S'head:NP3'
p4549
sS'vpos'
p4550
S'vib_2'
p4551
sS'cref'
p4552
S'i33%1:t4'
p4553
sS'drel'
p4554
S'r6:NP4'
p4555
ssbsg26
I00
sg27
I00
sg28
Nsg29
Nsg30
I2
sg31
I11
sg32
Nsg33
Nsg34
S'NN'
p4556
sg36
g4533
sg37
I00
sba(issf_api
Word
p4557
(dp4558
g6
I00
sg7
V\u0915\u0947
p4559
sg9
(issf_api
FeatureSet
p4560
(dp4561
g12
(dp4562
S'posn'
p4563
S'60'
p4564
sS'name'
p4565
S'\xe0\xa4\x95\xe0\xa5\x87'
p4566
sS'drel'
p4567
S'lwg__psp:NP3'
p4568
sS'chunktype'
p4569
S'child:NP3'
p4570
sS'af'
p4571
S'\xe0\xa4\x95\xe0\xa4\xbe,psp,m,sg,,o,,'
p4572
ssbsg26
I00
sg27
I00
sg28
Nsg29
Nsg30
I2
sg31
I11
sg32
Nsg33
Nsg34
S'PSP'
p4573
sg36
g4560
sg37
I00
sba(issf_api
Word
p4574
(dp4575
g6
I00
sg7
V\u0928\u092b\u0940\u0932\u094d\u0921
p4576
sg9
(issf_api
FeatureSet
p4577
(dp4578
g12
(dp4579
S'posn'
p4580
S'70'
p4581
sS'name'
p4582
S'\xe0\xa4\xa8\xe0\xa4\xab\xe0\xa5\x80\xe0\xa4\xb2\xe0\xa5\x8d\xe0\xa4\xa1'
p4583
sS'drel'
p4584
S'pof__cn:NP4'
p4585
sS'chunktype'
p4586
S'child:NP4'
p4587
sS'af'
p4588
S'\xe0\xa4\xa8\xe0\xa4\xab\xe0\xa5\x80\xe0\xa4\xb2\xe0\xa5\x8d\xe0\xa4\xa1,n,m,sg,3,d,0,0'
p4589
ssbsg26
I00
sg27
I00
sg28
Nsg29
Nsg30
I3
sg31
I11
sg32
Nsg33
Nsg34
S'NNPC'
p4590
sg36
g4577
sg37
I00
sba(issf_api
Word
p4591
(dp4592
g6
I00
sg7
V\u0915\u0949\u0932\u0947\u091c
p4593
sg9
(issf_api
FeatureSet
p4594
(dp4595
g12
(dp4596
S'posn'
p4597
S'80'
p4598
sS'name'
p4599
S'\xe0\xa4\x95\xe0\xa5\x89\xe0\xa4\xb2\xe0\xa5\x87\xe0\xa4\x9c'
p4600
sS'af'
p4601
S'\xe0\xa4\x95\xe0\xa5\x89\xe0\xa4\xb2\xe0\xa5\x87\xe0\xa4\x9c,n,m,sg,3,o,0_\xe0\xa4\xb8\xe0\xa5\x87,0'
p4602
sS'chunkid'
p4603
S'NP4'
p4604
sS'drel'
p4605
S'k5:VGF'
p4606
sS'vpos'
p4607
S'vib_3'
p4608
sS'chunktype'
p4609
S'head:NP4'
p4610
ssbsg26
I00
sg27
I00
sg28
Nsg29
Nsg30
I3
sg31
I11
sg32
Nsg33
Nsg34
S'NNP'
p4611
sg36
g4594
sg37
I00
sba(issf_api
Word
p4612
(dp4613
g6
I00
sg7
V\u0938\u0947
p4614
sg9
(issf_api
FeatureSet
p4615
(dp4616
g12
(dp4617
S'posn'
p4618
S'90'
p4619
sS'name'
p4620
S'\xe0\xa4\xb8\xe0\xa5\x87'
p4621
sS'drel'
p4622
S'lwg__psp:NP4'
p4623
sS'chunktype'
p4624
S'child:NP4'
p4625
sS'af'
p4626
S'\xe0\xa4\xb8\xe0\xa5\x87,psp,,,,,,'
p4627
ssbsg26
I00
sg27
I00
sg28
Nsg29
Nsg30
I3
sg31
I11
sg32
Nsg33
Nsg34
S'PSP'
p4628
sg36
g4615
sg37
I00
sba(issf_api
Word
p4629
(dp4630
g6
I00
sg7
V\u0905\u0930\u094d\u0925\u0936\u093e\u0938\u094d\u0924\u094d\u0930
p4631
sg9
(issf_api
FeatureSet
p4632
(dp4633
g12
(dp4634
S'posn'
p4635
S'100'
p4636
sS'name'
p4637
S'\xe0\xa4\x85\xe0\xa4\xb0\xe0\xa5\x8d\xe0\xa4\xa5\xe0\xa4\xb6\xe0\xa4\xbe\xe0\xa4\xb8\xe0\xa5\x8d\xe0\xa4\xa4\xe0\xa5\x8d\xe0\xa4\xb0'
p4638
sS'af'
p4639
S'\xe0\xa4\x85\xe0\xa4\xb0\xe0\xa5\x8d\xe0\xa4\xa5\xe0\xa4\xb6\xe0\xa4\xbe\xe0\xa4\xb8\xe0\xa5\x8d\xe0\xa4\xa4\xe0\xa5\x8d\xe0\xa4\xb0,n,m,sg,3,o,0_\xe0\xa4\xae\xe0\xa5\x87\xe0\xa4\x82,0'
p4640
sS'chunkid'
p4641
S'NP5'
p4642
sS'drel'
p4643
S'k7:VGF'
p4644
sS'vpos'
p4645
S'vib_2'
p4646
sS'chunktype'
p4647
S'head:NP5'
p4648
ssbsg26
I00
sg27
I00
sg28
Nsg29
Nsg30
I4
sg31
I11
sg32
Nsg33
Nsg34
S'NNP'
p4649
sg36
g4632
sg37
I00
sba(issf_api
Word
p4650
(dp4651
g6
I00
sg7
V\u092e\u0947\u0902
p4652
sg9
(issf_api
FeatureSet
p4653
(dp4654
g12
(dp4655
S'posn'
p4656
S'110'
p4657
sS'name'
p4658
S'\xe0\xa4\xae\xe0\xa5\x87\xe0\xa4\x822'
p4659
sS'drel'
p4660
S'lwg__psp:NP5'
p4661
sS'chunktype'
p4662
S'child:NP5'
p4663
sS'af'
p4664
S'\xe0\xa4\xae\xe0\xa5\x87\xe0\xa4\x82,psp,,,,,,'
p4665
ssbsg26
I00
sg27
I00
sg28
Nsg29
Nsg30
I4
sg31
I11
sg32
Nsg33
Nsg34
S'PSP'
p4666
sg36
g4653
sg37
I00
sba(issf_api
Word
p4667
(dp4668
g6
I00
sg7
V\u0921\u0940.
p4669
sg9
(issf_api
FeatureSet
p4670
(dp4671
g12
(dp4672
S'posn'
p4673
S'120'
p4674
sS'name'
p4675
S'\xe0\xa4\xa1\xe0\xa5\x80.'
p4676
sS'drel'
p4677
S'pof__cn:NP6'
p4678
sS'chunktype'
p4679
S'child:NP6'
p4680
sS'af'
p4681
S'\xe0\xa4\xa1\xe0\xa5\x80.,n,m,sg,3,d,0,0'
p4682
ssbsg26
I00
sg27
I00
sg28
Nsg29
Nsg30
I5
sg31
I11
sg32
Nsg33
Nsg34
S'NNPC'
p4683
sg36
g4670
sg37
I00
sba(issf_api
Word
p4684
(dp4685
g6
I00
sg7
V\u092b\u093f\u0932.
p4686
sg9
(issf_api
FeatureSet
p4687
(dp4688
g12
(dp4689
S'posn'
p4690
S'130'
p4691
sS'name'
p4692
S'\xe0\xa4\xab\xe0\xa4\xbf\xe0\xa4\xb2.'
p4693
sS'af'
p4694
S'\xe0\xa4\xab\xe0\xa4\xbf\xe0\xa4\xb2.,n,m,sg,3,o,0_\xe0\xa4\x95\xe0\xa4\xbe,0'
p4695
sS'chunkid'
p4696
S'NP6'
p4697
sS'drel'
p4698
S'r6:NP7'
p4699
sS'vpos'
p4700
S'vib_3'
p4701
sS'chunktype'
p4702
S'head:NP6'
p4703
ssbsg26
I00
sg27
I00
sg28
Nsg29
Nsg30
I5
sg31
I11
sg32
Nsg33
Nsg34
S'NNP'
p4704
sg36
g4687
sg37
I00
sba(issf_api
Word
p4705
(dp4706
g6
I00
sg7
V\u0915\u0940
p4707
sg9
(issf_api
FeatureSet
p4708
(dp4709
g12
(dp4710
S'posn'
p4711
S'140'
p4712
sS'name'
p4713
S'\xe0\xa4\x95\xe0\xa5\x80'
p4714
sS'drel'
p4715
S'lwg__psp:NP6'
p4716
sS'chunktype'
p4717
S'child:NP6'
p4718
sS'af'
p4719
S'\xe0\xa4\x95\xe0\xa4\xbe,psp,f,sg,,d,,'
p4720
ssbsg26
I00
sg27
I00
sg28
Nsg29
Nsg30
I5
sg31
I11
sg32
Nsg33
Nsg34
S'PSP'
p4721
sg36
g4708
sg37
I00
sba(issf_api
Word
p4722
(dp4723
g6
I00
sg7
V\u0921\u093f\u0917\u094d\u0930\u0940
p4724
sg9
(issf_api
FeatureSet
p4725
(dp4726
g12
(dp4727
S'posn'
p4728
S'150'
p4729
sS'name'
p4730
S'\xe0\xa4\xa1\xe0\xa4\xbf\xe0\xa4\x97\xe0\xa5\x8d\xe0\xa4\xb0\xe0\xa5\x80'
p4731
sS'af'
p4732
S'\xe0\xa4\xa1\xe0\xa4\xbf\xe0\xa4\x97\xe0\xa5\x8d\xe0\xa4\xb0\xe0\xa5\x80,n,f,sg,3,d,0,0'
p4733
sS'chunkid'
p4734
S'NP7'
p4735
sS'drel'
p4736
S'k2:VGF'
p4737
sS'chunktype'
p4738
S'head:NP7'
p4739
ssbsg26
I00
sg27
I00
sg28
Nsg29
Nsg30
I6
sg31
I11
sg32
Nsg33
Nsg34
S'NN'
p4740
sg36
g4725
sg37
I00
sba(issf_api
Word
p4741
(dp4742
g6
I00
sg7
V\u0939\u093e\u0938\u093f\u0932
p4743
sg9
(issf_api
FeatureSet
p4744
(dp4745
g12
(dp4746
S'posn'
p4747
S'160'
p4748
sS'name'
p4749
S'\xe0\xa4\xb9\xe0\xa4\xbe\xe0\xa4\xb8\xe0\xa4\xbf\xe0\xa4\xb2'
p4750
sS'af'
p4751
S'\xe0\xa4\xb9\xe0\xa4\xbe\xe0\xa4\xb8\xe0\xa4\xbf\xe0\xa4\xb2,adj,any,any,,,,'
p4752
sS'chunkid'
p4753
S'JJP'
p4754
sS'drel'
p4755
S'pof:VGF'
p4756
sS'chunktype'
p4757
S'head:JJP'
p4758
ssbsg26
I00
sg27
I00
sg28
Nsg29
Nsg30
I7
sg31
I11
sg32
Nsg33
Nsg34
S'JJ'
p4759
sg36
g4744
sg37
I00
sba(issf_api
Word
p4760
(dp4761
g6
I00
sg7
V\u0915\u0940
p4762
sg9
(issf_api
FeatureSet
p4763
(dp4764
g12
(dp4765
S'posn'
p4766
S'170'
p4767
sS'name'
p4768
S'\xe0\xa4\x95\xe0\xa5\x802'
p4769
sS'af'
p4770
S'\xe0\xa4\x95\xe0\xa4\xb0,v,f,sg,any,,\xe0\xa4\xaf\xe0\xa4\xbe_\xe0\xa4\xa5\xe0\xa4\xbe,yA'
p4771
sS'chunkid'
p4772
S'VGF'
p4773
sS'chunktype'
p4774
S'head:VGF'
p4775
sS'voicetype'
p4776
S'active'
p4777
sS'vpos'
p4778
S'tam_2'
p4779
sS'stype'
p4780
S'declarative'
p4781
ssbsg26
I00
sg27
I00
sg28
Nsg29
Nsg30
I8
sg31
I11
sg32
Nsg33
Nsg34
S'VM'
p4782
sg36
g4763
sg37
I00
sba(issf_api
Word
p4783
(dp4784
g6
I00
sg7
V\u0925\u0940
p4785
sg9
(issf_api
FeatureSet
p4786
(dp4787
g12
(dp4788
S'posn'
p4789
S'180'
p4790
sS'name'
p4791
S'\xe0\xa4\xa5\xe0\xa5\x80'
p4792
sS'drel'
p4793
S'lwg__vaux:VGF'
p4794
sS'chunktype'
p4795
S'child:VGF'
p4796
sS'af'
p4797
S'\xe0\xa4\xa5\xe0\xa4\xbe,v,f,sg,any,,\xe0\xa4\xa5\xe0\xa4\xbe,WA'
p4798
ssbsg26
I00
sg27
I00
sg28
Nsg29
Nsg30
I8
sg31
I11
sg32
Nsg33
Nsg34
S'VAUX'
p4799
sg36
g4786
sg37
I00
sba(issf_api
Word
p4800
(dp4801
g6
I00
sg7
V\u0964
p4802
sg9
(issf_api
FeatureSet
p4803
(dp4804
g12
(dp4805
S'posn'
p4806
S'190'
p4807
sS'name'
p4808
S'\xe0\xa5\xa4'
p4809
sS'af'
p4810
S'\xe0\xa5\xa4,punc,,,,,,'
p4811
sS'chunkid'
p4812
S'BLK'
p4813
sS'drel'
p4814
S'rsym:VGF'
p4815
sS'chunktype'
p4816
S'head:BLK'
p4817
ssbsg26
I00
sg27
I00
sg28
Nsg29
Nsg30
I9
sg31
I11
sg32
Nsg33
Nsg34
S'SYM'
p4818
sg36
g4803
sg37
I00
sbasS'sentenceList'
p4819
(lp4820
(issf_api
Sentence
p4821
(dp4822
S'rootNode'
p4823
(lp4824
sg31
I0
sS'wordNumList'
p4825
(lp4826
I0
aI1
aI2
aI3
aI4
aI5
aI6
aI7
aI8
aI9
aI10
aI11
aI12
aI13
aI14
aI15
aI16
aI17
aI18
aI19
aI20
aI21
aI22
aI23
aI24
aI25
aI26
aI27
asS'nodeDict'
p4827
(dp4828
S'VGNF'
p4829
(issf_api
Node
p4830
(dp4831
S'nodeRelation'
p4832
S'vmod'
p4833
sS'nodeName'
p4834
g4829
sS'nodeParent'
p4835
S'VGF'
p4836
sS'nodeLevel'
p4837
I-1
sg30
I5
sS'childList'
p4838
(lp4839
S'NP5'
p4840
aS'NP4'
p4841
aS'NP3'
p4842
asbsS'VGNF2'
p4843
(issf_api
Node
p4844
(dp4845
g4832
S'vmod'
p4846
sg4834
g4843
sg4835
S'VGF2'
p4847
sg4837
I-1
sg30
I12
sg4838
(lp4848
sbsS'VGNN'
p4849
(issf_api
Node
p4850
(dp4851
g4832
S'nmod'
p4852
sg4834
g4849
sg4835
S'NP8'
p4853
sg4837
I-1
sg30
I10
sg4838
(lp4854
S'NP7'
p4855
asbsS'VGF'
p4856
(issf_api
Node
p4857
(dp4858
g4832
S'None'
p4859
sg4834
g4856
sg4835
g4859
sg4837
I-1
sg30
I6
sg4838
(lp4860
g4829
aS'CCP'
p4861
aS'BLK'
p4862
aS'NP'
p4863
aS'NP2'
p4864
asbsg4861
(issf_api
Node
p4865
(dp4866
g4832
S'k2'
p4867
sg4834
g4861
sg4835
S'VGF'
p4868
sg4837
I-1
sg30
I7
sg4838
(lp4869
S'VGF2'
p4870
asbsg4870
(issf_api
Node
p4871
(dp4872
g4832
S'ccof'
p4873
sg4834
g4870
sg4835
S'CCP'
p4874
sg4837
I-1
sg30
I15
sg4838
(lp4875
g4843
aS'NP8'
p4876
aS'NP10'
p4877
aS'NP6'
p4878
asbsg4840
(issf_api
Node
p4879
(dp4880
g4832
S'pof'
p4881
sg4834
g4840
sg4835
S'VGNF'
p4882
sg4837
I-1
sg30
I4
sg4838
(lp4883
sbsS'NP9'
p4884
(issf_api
Node
p4885
(dp4886
g4832
S'r6-k2'
p4887
sg4834
g4884
sg4835
S'NP10'
p4888
sg4837
I-1
sg30
I13
sg4838
(lp4889
sbsg4876
(issf_api
Node
p4890
(dp4891
g4832
S'k1'
p4892
sg4834
g4876
sg4835
S'VGF2'
p4893
sg4837
I-1
sg30
I11
sg4838
(lp4894
g4849
asbsg4862
(issf_api
Node
p4895
(dp4896
g4832
S'rsym'
p4897
sg4834
g4862
sg4835
S'VGF'
p4898
sg4837
I-1
sg30
I16
sg4838
(lp4899
sbsg4877
(issf_api
Node
p4900
(dp4901
g4832
S'pof'
p4902
sg4834
g4877
sg4835
S'VGF2'
p4903
sg4837
I-1
sg30
I14
sg4838
(lp4904
g4884
asbsg4863
(issf_api
Node
p4905
(dp4906
g4832
S'k1'
p4907
sg4834
g4863
sg4835
S'VGF'
p4908
sg4837
I-1
sg30
I0
sg4838
(lp4909
sbsg4841
(issf_api
Node
p4910
(dp4911
g4832
S'k2s'
p4912
sg4834
g4841
sg4835
S'VGNF'
p4913
sg4837
I-1
sg30
I3
sg4838
(lp4914
sbsg4855
(issf_api
Node
p4915
(dp4916
g4832
S'k2'
p4917
sg4834
g4855
sg4835
S'VGNN'
p4918
sg4837
I-1
sg30
I9
sg4838
(lp4919
sbsg4878
(issf_api
Node
p4920
(dp4921
g4832
S'k7'
p4922
sg4834
g4878
sg4835
S'VGF2'
p4923
sg4837
I-1
sg30
I8
sg4838
(lp4924
sbsg4842
(issf_api
Node
p4925
(dp4926
g4832
S'k2'
p4927
sg4834
g4842
sg4835
S'VGNF'
p4928
sg4837
I-1
sg30
I2
sg4838
(lp4929
sbsg4864
(issf_api
Node
p4930
(dp4931
g4832
S'k7t'
p4932
sg4834
g4864
sg4835
S'VGF'
p4933
sg4837
I-1
sg30
I1
sg4838
(lp4934
sbssS'chunkList'
p4935
(lp4936
(issf_api
Chunk
p4937
(dp4938
g4834
g72
sg30
I0
sS'chunkTag'
p4939
g83
sg31
I0
sg4825
(lp4940
I0
aI1
aI2
aI3
asg36
(issf_api
FeatureSet
p4941
(dp4942
g12
(dp4943
S'name'
p4944
g4863
sS'drel'
p4945
S'k1:VGF'
p4946
ssbsba(issf_api
Chunk
p4947
(dp4948
g4834
g114
sg30
I1
sg4939
g121
sg31
I0
sg4825
(lp4949
I4
aI5
asg36
(issf_api
FeatureSet
p4950
(dp4951
g12
(dp4952
S'name'
p4953
g4864
sS'drel'
p4954
S'k7t:VGF'
p4955
ssbsba(issf_api
Chunk
p4956
(dp4957
g4834
g154
sg30
I2
sg4939
g165
sg31
I0
sg4825
(lp4958
I6
aI7
asg36
(issf_api
FeatureSet
p4959
(dp4960
g12
(dp4961
S'name'
p4962
g4842
sS'drel'
p4963
S'k2:VGNF'
p4964
ssbsba(issf_api
Chunk
p4965
(dp4966
g4834
g217
sg30
I3
sg4939
g226
sg31
I0
sg4825
(lp4967
I8
aI9
asg36
(issf_api
FeatureSet
p4968
(dp4969
g12
(dp4970
S'name'
p4971
g4841
sS'drel'
p4972
S'k2s:VGNF'
p4973
ssbsba(issf_api
Chunk
p4974
(dp4975
g4834
g240
sg30
I4
sg4939
g245
sg31
I0
sg4825
(lp4976
I10
asg36
(issf_api
FeatureSet
p4977
(dp4978
g12
(dp4979
S'name'
p4980
g4840
sS'drel'
p4981
S'pof:VGNF'
p4982
ssbsba(issf_api
Chunk
p4983
(dp4984
g4834
g259
sg30
I5
sg4939
g266
sg31
I0
sg4825
(lp4985
I11
aI12
asg36
(issf_api
FeatureSet
p4986
(dp4987
g12
(dp4988
S'name'
p4989
g4829
sS'drel'
p4990
S'vmod:VGF'
p4991
ssbsba(issf_api
Chunk
p4992
(dp4993
g4834
g297
sg30
I6
sg4939
g304
sg31
I0
sg4825
(lp4994
I13
asg36
(issf_api
FeatureSet
p4995
(dp4996
g12
(dp4997
S'name'
p4998
g4856
ssbsba(issf_api
Chunk
p4999
(dp5000
g4834
g318
sg30
I7
sg4939
g323
sg31
I0
sg4825
(lp5001
I14
asg36
(issf_api
FeatureSet
p5002
(dp5003
g12
(dp5004
S'name'
p5005
g4861
sS'drel'
p5006
S'k2:VGF'
p5007
ssbsba(issf_api
Chunk
p5008
(dp5009
g4834
g339
sg30
I8
sg4939
g350
sg31
I0
sg4825
(lp5010
I15
aI16
asg36
(issf_api
FeatureSet
p5011
(dp5012
g12
(dp5013
S'name'
p5014
g4878
sS'drel'
p5015
S'k7:VGF2'
p5016
ssbsba(issf_api
Chunk
p5017
(dp5018
g4834
g381
sg30
I9
sg4939
g386
sg31
I0
sg4825
(lp5019
I17
asg36
(issf_api
FeatureSet
p5020
(dp5021
g12
(dp5022
S'name'
p5023
g4855
sS'drel'
p5024
S'k2:VGNN'
p5025
ssbsba(issf_api
Chunk
p5026
(dp5027
g4834
g400
sg30
I10
sg4939
g407
sg31
I0
sg4825
(lp5028
I18
aI19
asg36
(issf_api
FeatureSet
p5029
(dp5030
g12
(dp5031
S'name'
p5032
g4849
sS'drel'
p5033
S'nmod:NP8'
p5034
ssbsba(issf_api
Chunk
p5035
(dp5036
g4834
g438
sg30
I11
sg4939
g445
sg31
I0
sg4825
(lp5037
I20
aI21
asg36
(issf_api
FeatureSet
p5038
(dp5039
g12
(dp5040
S'name'
p5041
g4876
sS'drel'
p5042
S'k1:VGF2'
p5043
ssbsba(issf_api
Chunk
p5044
(dp5045
g4834
g476
sg30
I12
sg4939
g481
sg31
I0
sg4825
(lp5046
I22
asg36
(issf_api
FeatureSet
p5047
(dp5048
g12
(dp5049
S'name'
p5050
g4843
sS'drel'
p5051
S'vmod:VGF2'
p5052
ssbsba(issf_api
Chunk
p5053
(dp5054
g4834
g497
sg30
I13
sg4939
g506
sg31
I0
sg4825
(lp5055
I23
asg36
(issf_api
FeatureSet
p5056
(dp5057
g12
(dp5058
S'name'
p5059
g4884
sS'drel'
p5060
S'r6-k2:NP10'
p5061
ssbsba(issf_api
Chunk
p5062
(dp5063
g4834
g520
sg30
I14
sg4939
g525
sg31
I0
sg4825
(lp5064
I24
asg36
(issf_api
FeatureSet
p5065
(dp5066
g12
(dp5067
S'name'
p5068
g4877
sS'drel'
p5069
S'pof:VGF2'
p5070
ssbsba(issf_api
Chunk
p5071
(dp5072
g4834
g539
sg30
I15
sg4939
g550
sg31
I0
sg4825
(lp5073
I25
aI26
asg36
(issf_api
FeatureSet
p5074
(dp5075
g12
(dp5076
S'name'
p5077
g4870
sS'drel'
p5078
S'ccof:CCP'
p5079
ssbsba(issf_api
Chunk
p5080
(dp5081
g4834
g581
sg30
I16
sg4939
g586
sg31
I0
sg4825
(lp5082
I27
asg36
(issf_api
FeatureSet
p5083
(dp5084
g12
(dp5085
S'name'
p5086
g4862
sS'drel'
p5087
S'rsym:VGF'
p5088
ssbsbasba(issf_api
Sentence
p5089
(dp5090
g4823
(lp5091
sg31
I1
sg4825
(lp5092
I28
aI29
aI30
aI31
aI32
aI33
aI34
aI35
aI36
aI37
aI38
aI39
aI40
aI41
aI42
aI43
aI44
asg4827
(dp5093
S'VGF'
p5094
(issf_api
Node
p5095
(dp5096
g4832
g4859
sg4834
g5094
sg4835
g4859
sg4837
I-1
sg30
I7
sg4838
(lp5097
S'BLK'
p5098
aS'NP'
p5099
aS'NP4'
p5100
aS'NP7'
p5101
aS'NP6'
p5102
aS'NP3'
p5103
aS'NP2'
p5104
asbsS'NP5'
p5105
(issf_api
Node
p5106
(dp5107
g4832
S'r6'
p5108
sg4834
g5105
sg4835
S'NP6'
p5109
sg4837
I-1
sg30
I4
sg4838
(lp5110
sbsg5098
(issf_api
Node
p5111
(dp5112
g4832
S'rsym'
p5113
sg4834
g5098
sg4835
S'VGF'
p5114
sg4837
I-1
sg30
I8
sg4838
(lp5115
sbsg5099
(issf_api
Node
p5116
(dp5117
g4832
S'k1'
p5118
sg4834
g5099
sg4835
S'VGF'
p5119
sg4837
I-1
sg30
I0
sg4838
(lp5120
sbsg5100
(issf_api
Node
p5121
(dp5122
g4832
S'k7'
p5123
sg4834
g5100
sg4835
S'VGF'
p5124
sg4837
I-1
sg30
I3
sg4838
(lp5125
sbsg5101
(issf_api
Node
p5126
(dp5127
g4832
S'pof'
p5128
sg4834
g5101
sg4835
S'VGF'
p5129
sg4837
I-1
sg30
I6
sg4838
(lp5130
sbsg5102
(issf_api
Node
p5131
(dp5132
g4832
S'k2'
p5133
sg4834
g5102
sg4835
S'VGF'
p5134
sg4837
I-1
sg30
I5
sg4838
(lp5135
g5105
asbsg5103
(issf_api
Node
p5136
(dp5137
g4832
S'k4'
p5138
sg4834
g5103
sg4835
S'VGF'
p5139
sg4837
I-1
sg30
I2
sg4838
(lp5140
sbsg5104
(issf_api
Node
p5141
(dp5142
g4832
S'k7t'
p5143
sg4834
g5104
sg4835
S'VGF'
p5144
sg4837
I-1
sg30
I1
sg4838
(lp5145
sbssg4935
(lp5146
(issf_api
Chunk
p5147
(dp5148
g4834
g621
sg30
I0
sg4939
g632
sg31
I1
sg4825
(lp5149
I28
aI29
aI30
asg36
(issf_api
FeatureSet
p5150
(dp5151
g12
(dp5152
S'name'
p5153
g5099
sS'drel'
p5154
S'k1:VGF'
p5155
ssbsba(issf_api
Chunk
p5156
(dp5157
g4834
g663
sg30
I1
sg4939
g668
sg31
I1
sg4825
(lp5158
I31
asg36
(issf_api
FeatureSet
p5159
(dp5160
g12
(dp5161
S'name'
p5162
g5104
sS'drel'
p5163
S'k7t:VGF'
p5164
ssbsba(issf_api
Chunk
p5165
(dp5166
g4834
g703
sg30
I2
sg4939
g714
sg31
I1
sg4825
(lp5167
I32
aI33
aI34
asg36
(issf_api
FeatureSet
p5168
(dp5169
g12
(dp5170
S'name'
p5171
g5103
sS'drel'
p5172
S'k4:VGF'
p5173
ssbsba(issf_api
Chunk
p5174
(dp5175
g4834
g764
sg30
I3
sg4939
g773
sg31
I1
sg4825
(lp5176
I35
aI36
aI37
asg36
(issf_api
FeatureSet
p5177
(dp5178
g12
(dp5179
S'name'
p5180
g5100
sS'drel'
p5181
S'k7:VGF'
p5182
ssbsba(issf_api
Chunk
p5183
(dp5184
g4834
g808
sg30
I4
sg4939
g817
sg31
I1
sg4825
(lp5185
I38
aI39
asg36
(issf_api
FeatureSet
p5186
(dp5187
g12
(dp5188
S'name'
p5189
g5105
sS'drel'
p5190
S'r6:NP6'
p5191
ssbsba(issf_api
Chunk
p5192
(dp5193
g4834
g869
sg30
I5
sg4939
g880
sg31
I1
sg4825
(lp5194
I40
aI41
asg36
(issf_api
FeatureSet
p5195
(dp5196
g12
(dp5197
S'name'
p5198
g5102
sS'drel'
p5199
S'k2:VGF'
p5200
ssbsba(issf_api
Chunk
p5201
(dp5202
g4834
g894
sg30
I6
sg4939
g899
sg31
I1
sg4825
(lp5203
I42
asg36
(issf_api
FeatureSet
p5204
(dp5205
g12
(dp5206
S'name'
p5207
g5101
sS'drel'
p5208
S'pof:VGF'
p5209
ssbsba(issf_api
Chunk
p5210
(dp5211
g4834
g913
sg30
I7
sg4939
g920
sg31
I1
sg4825
(lp5212
I43
asg36
(issf_api
FeatureSet
p5213
(dp5214
g12
(dp5215
S'name'
p5216
g5094
ssbsba(issf_api
Chunk
p5217
(dp5218
g4834
g934
sg30
I8
sg4939
g939
sg31
I1
sg4825
(lp5219
I44
asg36
(issf_api
FeatureSet
p5220
(dp5221
g12
(dp5222
S'name'
p5223
g5098
sS'drel'
p5224
S'rsym:VGF'
p5225
ssbsbasba(issf_api
Sentence
p5226
(dp5227
g4823
(lp5228
sg31
I2
sg4825
(lp5229
I45
aI46
aI47
aI48
aI49
aI50
aI51
aI52
aI53
aI54
aI55
aI56
aI57
aI58
aI59
aI60
aI61
aI62
aI63
aI64
aI65
aI66
aI67
aI68
aI69
aI70
aI71
aI72
aI73
aI74
aI75
aI76
asg4827
(dp5230
S'CCP'
p5231
(issf_api
Node
p5232
(dp5233
g4832
S'k2'
p5234
sg4834
g5231
sg4835
S'VGF'
p5235
sg4837
I-1
sg30
I7
sg4838
(lp5236
S'VGF2'
p5237
asbsS'NP9'
p5238
(issf_api
Node
p5239
(dp5240
g4832
S'r6-k2'
p5241
sg4834
g5238
sg4835
S'NP10'
p5242
sg4837
I-1
sg30
I18
sg4838
(lp5243
sbsS'NP8'
p5244
(issf_api
Node
p5245
(dp5246
g4832
S'k1'
p5247
sg4834
g5244
sg4835
S'VGF3'
p5248
sg4837
I-1
sg30
I16
sg4838
(lp5249
sbsS'NP5'
p5250
(issf_api
Node
p5251
(dp5252
g4832
S'r6'
p5253
sg4834
g5250
sg4835
S'NP6'
p5254
sg4837
I-1
sg30
I10
sg4838
(lp5255
sbsS'NP4'
p5256
(issf_api
Node
p5257
(dp5258
g4832
S'ccof'
p5259
sg4834
g5256
sg4835
S'CCP2'
p5260
sg4837
I-1
sg30
I8
sg4838
(lp5261
sbsS'NP7'
p5262
(issf_api
Node
p5263
(dp5264
g4832
S'k2'
p5265
sg4834
g5262
sg4835
S'VGNN'
p5266
sg4837
I-1
sg30
I12
sg4838
(lp5267
sbsS'NP6'
p5268
(issf_api
Node
p5269
(dp5270
g4832
S'ccof'
p5271
sg4834
g5268
sg4835
S'CCP2'
p5272
sg4837
I-1
sg30
I11
sg4838
(lp5273
g5250
asbsS'CCP2'
p5274
(issf_api
Node
p5275
(dp5276
g4832
S'k7'
p5277
sg4834
g5274
sg4835
S'VGF2'
p5278
sg4837
I-1
sg30
I9
sg4838
(lp5279
g5256
ag5268
asbsS'CCP3'
p5280
(issf_api
Node
p5281
(dp5282
g4832
S'k2'
p5283
sg4834
g5280
sg4835
S'VGF2'
p5284
sg4837
I-1
sg30
I15
sg4838
(lp5285
S'VGF3'
p5286
asbsS'NP3'
p5287
(issf_api
Node
p5288
(dp5289
g4832
S'k1'
p5290
sg4834
g5287
sg4835
S'VGF'
p5291
sg4837
I-1
sg30
I5
sg4838
(lp5292
sbsS'NP2'
p5293
(issf_api
Node
p5294
(dp5295
g4832
S'k4'
p5296
sg4834
g5293
sg4835
S'VGF'
p5297
sg4837
I-1
sg30
I2
sg4838
(lp5298
S'JJP'
p5299
asbsS'NP10'
p5300
(issf_api
Node
p5301
(dp5302
g4832
S'pof'
p5303
sg4834
g5300
sg4835
S'VGF3'
p5304
sg4837
I-1
sg30
I19
sg4838
(lp5305
g5238
asbsg5286
(issf_api
Node
p5306
(dp5307
g4832
S'ccof'
p5308
sg4834
g5286
sg4835
S'CCP3'
p5309
sg4837
I-1
sg30
I20
sg4838
(lp5310
g5244
ag5300
aS'VGNF2'
p5311
asbsg5237
(issf_api
Node
p5312
(dp5313
g4832
S'ccof'
p5314
sg4834
g5237
sg4835
S'CCP'
p5315
sg4837
I-1
sg30
I14
sg4838
(lp5316
g5274
ag5280
aS'VGNN'
p5317
asbsg5311
(issf_api
Node
p5318
(dp5319
g4832
S'vmod'
p5320
sg4834
g5311
sg4835
S'VGF3'
p5321
sg4837
I-1
sg30
I17
sg4838
(lp5322
sbsS'VGNF'
p5323
(issf_api
Node
p5324
(dp5325
g4832
S'vmod'
p5326
sg4834
g5323
sg4835
S'VGF'
p5327
sg4837
I-1
sg30
I4
sg4838
(lp5328
S'JJP2'
p5329
asbsg5317
(issf_api
Node
p5330
(dp5331
g4832
S'k4'
p5332
sg4834
g5317
sg4835
S'VGF2'
p5333
sg4837
I-1
sg30
I13
sg4838
(lp5334
g5262
asbsS'VGF'
p5335
(issf_api
Node
p5336
(dp5337
g4832
g4859
sg4834
g5335
sg4835
g4859
sg4837
I-1
sg30
I6
sg4838
(lp5338
g5231
ag5287
ag5293
ag5323
aS'BLK'
p5339
asbsS'NP'
p5340
(issf_api
Node
p5341
(dp5342
g4832
S'jjmod'
p5343
sg4834
g5340
sg4835
S'JJP'
p5344
sg4837
I-1
sg30
I0
sg4838
(lp5345
sbsg5339
(issf_api
Node
p5346
(dp5347
g4832
S'rsym'
p5348
sg4834
g5339
sg4835
S'VGF'
p5349
sg4837
I-1
sg30
I21
sg4838
(lp5350
sbsg5299
(issf_api
Node
p5351
(dp5352
g4832
S'nmod'
p5353
sg4834
g5299
sg4835
S'NP2'
p5354
sg4837
I-1
sg30
I1
sg4838
(lp5355
g5340
asbsg5329
(issf_api
Node
p5356
(dp5357
g4832
S'pof'
p5358
sg4834
g5329
sg4835
S'VGNF'
p5359
sg4837
I-1
sg30
I3
sg4838
(lp5360
sbssg4935
(lp5361
(issf_api
Chunk
p5362
(dp5363
g4834
g970
sg30
I0
sg4939
g977
sg31
I2
sg4825
(lp5364
I45
aI46
aI47
asg36
(issf_api
FeatureSet
p5365
(dp5366
g12
(dp5367
S'name'
p5368
g5340
sS'drel'
p5369
S'jjmod:JJP'
p5370
ssbsba(issf_api
Chunk
p5371
(dp5372
g4834
g1008
sg30
I1
sg4939
g1013
sg31
I2
sg4825
(lp5373
I48
asg36
(issf_api
FeatureSet
p5374
(dp5375
g12
(dp5376
S'name'
p5377
g5299
sS'drel'
p5378
S'nmod:NP2'
p5379
ssbsba(issf_api
Chunk
p5380
(dp5381
g4834
g1027
sg30
I2
sg4939
g1034
sg31
I2
sg4825
(lp5382
I49
aI50
asg36
(issf_api
FeatureSet
p5383
(dp5384
g12
(dp5385
S'name'
p5386
g5293
sS'drel'
p5387
S'k4:VGF'
p5388
ssbsba(issf_api
Chunk
p5389
(dp5390
g4834
g1065
sg30
I3
sg4939
g1070
sg31
I2
sg4825
(lp5391
I51
asg36
(issf_api
FeatureSet
p5392
(dp5393
g12
(dp5394
S'name'
p5395
g5329
sS'drel'
p5396
S'pof:VGNF'
p5397
ssbsba(issf_api
Chunk
p5398
(dp5399
g4834
g1084
sg30
I4
sg4939
g1091
sg31
I2
sg4825
(lp5400
I52
aI53
asg36
(issf_api
FeatureSet
p5401
(dp5402
g12
(dp5403
S'name'
p5404
g5323
sS'drel'
p5405
S'vmod:VGF'
p5406
ssbsba(issf_api
Chunk
p5407
(dp5408
g4834
g1124
sg30
I5
sg4939
g1135
sg31
I2
sg4825
(lp5409
I54
aI55
asg36
(issf_api
FeatureSet
p5410
(dp5411
g12
(dp5412
S'name'
p5413
g5287
sS'drel'
p5414
S'k1:VGF'
p5415
ssbsba(issf_api
Chunk
p5416
(dp5417
g4834
g1166
sg30
I6
sg4939
g1173
sg31
I2
sg4825
(lp5418
I56
asg36
(issf_api
FeatureSet
p5419
(dp5420
g12
(dp5421
S'name'
p5422
g5335
ssbsba(issf_api
Chunk
p5423
(dp5424
g4834
g1187
sg30
I7
sg4939
g1192
sg31
I2
sg4825
(lp5425
I57
asg36
(issf_api
FeatureSet
p5426
(dp5427
g12
(dp5428
S'name'
p5429
g5231
sS'drel'
p5430
S'k2:VGF'
p5431
ssbsba(issf_api
Chunk
p5432
(dp5433
g4834
g1208
sg30
I8
sg4939
g1217
sg31
I2
sg4825
(lp5434
I58
asg36
(issf_api
FeatureSet
p5435
(dp5436
g12
(dp5437
S'name'
p5438
g5256
sS'drel'
p5439
S'ccof:CCP2'
p5440
ssbsba(issf_api
Chunk
p5441
(dp5442
g4834
g1231
sg30
I9
sg4939
g1238
sg31
I2
sg4825
(lp5443
I59
asg36
(issf_api
FeatureSet
p5444
(dp5445
g12
(dp5446
S'name'
p5447
g5274
sS'drel'
p5448
S'k7:VGF2'
p5449
ssbsba(issf_api
Chunk
p5450
(dp5451
g4834
g1252
sg30
I10
sg4939
g1261
sg31
I2
sg4825
(lp5452
I60
aI61
asg36
(issf_api
FeatureSet
p5453
(dp5454
g12
(dp5455
S'name'
p5456
g5250
sS'drel'
p5457
S'r6:NP6'
p5458
ssbsba(issf_api
Chunk
p5459
(dp5460
g4834
g1294
sg30
I11
sg4939
g1303
sg31
I2
sg4825
(lp5461
I62
aI63
asg36
(issf_api
FeatureSet
p5462
(dp5463
g12
(dp5464
S'name'
p5465
g5268
sS'drel'
p5466
S'ccof:CCP2'
p5467
ssbsba(issf_api
Chunk
p5468
(dp5469
g4834
g1336
sg30
I12
sg4939
g1343
sg31
I2
sg4825
(lp5470
I64
asg36
(issf_api
FeatureSet
p5471
(dp5472
g12
(dp5473
S'name'
p5474
g5262
sS'drel'
p5475
S'k2:VGNN'
p5476
ssbsba(issf_api
Chunk
p5477
(dp5478
g4834
g1359
sg30
I13
sg4939
g1370
sg31
I2
sg4825
(lp5479
I65
aI66
aI67
asg36
(issf_api
FeatureSet
p5480
(dp5481
g12
(dp5482
S'name'
p5483
g5317
sS'drel'
p5484
S'k4:VGF2'
p5485
ssbsba(issf_api
Chunk
p5486
(dp5487
g4834
g1420
sg30
I14
sg4939
g1429
sg31
I2
sg4825
(lp5488
I68
asg36
(issf_api
FeatureSet
p5489
(dp5490
g12
(dp5491
S'name'
p5492
g5237
sS'drel'
p5493
S'ccof:CCP'
p5494
ssbsba(issf_api
Chunk
p5495
(dp5496
g4834
g1443
sg30
I15
sg4939
g1448
sg31
I2
sg4825
(lp5497
I69
asg36
(issf_api
FeatureSet
p5498
(dp5499
g12
(dp5500
S'name'
p5501
g5280
sS'drel'
p5502
S'k2:VGF2'
p5503
ssbsba(issf_api
Chunk
p5504
(dp5505
g4834
g1464
sg30
I16
sg4939
g1473
sg31
I2
sg4825
(lp5506
I70
asg36
(issf_api
FeatureSet
p5507
(dp5508
g12
(dp5509
S'name'
p5510
g5244
sS'drel'
p5511
S'k1:VGF3'
p5512
ssbsba(issf_api
Chunk
p5513
(dp5514
g4834
g1487
sg30
I17
sg4939
g1492
sg31
I2
sg4825
(lp5515
I71
asg36
(issf_api
FeatureSet
p5516
(dp5517
g12
(dp5518
S'name'
p5519
g5311
sS'drel'
p5520
S'vmod:VGF3'
p5521
ssbsba(issf_api
Chunk
p5522
(dp5523
g4834
g1508
sg30
I18
sg4939
g1519
sg31
I2
sg4825
(lp5524
I72
aI73
asg36
(issf_api
FeatureSet
p5525
(dp5526
g12
(dp5527
S'name'
p5528
g5238
sS'drel'
p5529
S'r6-k2:NP10'
p5530
ssbsba(issf_api
Chunk
p5531
(dp5532
g4834
g1550
sg30
I19
sg4939
g1555
sg31
I2
sg4825
(lp5533
I74
asg36
(issf_api
FeatureSet
p5534
(dp5535
g12
(dp5536
S'name'
p5537
g5300
sS'drel'
p5538
S'pof:VGF3'
p5539
ssbsba(issf_api
Chunk
p5540
(dp5541
g4834
g1569
sg30
I20
sg4939
g1578
sg31
I2
sg4825
(lp5542
I75
asg36
(issf_api
FeatureSet
p5543
(dp5544
g12
(dp5545
S'name'
p5546
g5286
sS'drel'
p5547
S'ccof:CCP3'
p5548
ssbsba(issf_api
Chunk
p5549
(dp5550
g4834
g1592
sg30
I21
sg4939
g1597
sg31
I2
sg4825
(lp5551
I76
asg36
(issf_api
FeatureSet
p5552
(dp5553
g12
(dp5554
S'name'
p5555
g5339
sS'drel'
p5556
S'rsym:VGF'
p5557
ssbsbasba(issf_api
Sentence
p5558
(dp5559
g4823
(lp5560
sg31
I3
sg4825
(lp5561
I77
aI78
aI79
aI80
aI81
aI82
aI83
aI84
aI85
aI86
aI87
aI88
aI89
asg4827
(dp5562
S'CCP2'
p5563
(issf_api
Node
p5564
(dp5565
g4832
S'ccof'
p5566
sg4834
g5563
sg4835
S'CCP'
p5567
sg4837
I-1
sg30
I6
sg4838
(lp5568
S'VGF3'
p5569
aS'VGF2'
p5570
asbsS'VGF'
p5571
(issf_api
Node
p5572
(dp5573
g4832
g4859
sg4834
g5571
sg4835
g4859
sg4837
I-1
sg30
I1
sg4838
(lp5574
S'BLK'
p5575
aS'NP'
p5576
aS'CCP'
p5577
asbsg5569
(issf_api
Node
p5578
(dp5579
g4832
S'ccof'
p5580
sg4834
g5569
sg4835
S'CCP2'
p5581
sg4837
I-1
sg30
I9
sg4838
(lp5582
S'NP4'
p5583
aS'NP3'
p5584
asbsg5570
(issf_api
Node
p5585
(dp5586
g4832
S'ccof'
p5587
sg4834
g5570
sg4835
S'CCP2'
p5588
sg4837
I-1
sg30
I5
sg4838
(lp5589
S'JJP'
p5590
aS'NP2'
p5591
asbsg5590
(issf_api
Node
p5592
(dp5593
g4832
S'k1s'
p5594
sg4834
g5590
sg4835
S'VGF2'
p5595
sg4837
I-1
sg30
I4
sg4838
(lp5596
sbsg5575
(issf_api
Node
p5597
(dp5598
g4832
S'rsym'
p5599
sg4834
g5575
sg4835
S'VGF'
p5600
sg4837
I-1
sg30
I10
sg4838
(lp5601
sbsg5576
(issf_api
Node
p5602
(dp5603
g4832
S'k1'
p5604
sg4834
g5576
sg4835
S'VGF'
p5605
sg4837
I-1
sg30
I0
sg4838
(lp5606
sbsg5583
(issf_api
Node
p5607
(dp5608
g4832
S'k2'
p5609
sg4834
g5583
sg4835
S'VGF3'
p5610
sg4837
I-1
sg30
I8
sg4838
(lp5611
sbsg5577
(issf_api
Node
p5612
(dp5613
g4832
S'k2'
p5614
sg4834
g5577
sg4835
S'VGF'
p5615
sg4837
I-1
sg30
I2
sg4838
(lp5616
g5563
asbsg5584
(issf_api
Node
p5617
(dp5618
g4832
S'k1'
p5619
sg4834
g5584
sg4835
S'VGF3'
p5620
sg4837
I-1
sg30
I7
sg4838
(lp5621
sbsg5591
(issf_api
Node
p5622
(dp5623
g4832
S'k1'
p5624
sg4834
g5591
sg4835
S'VGF2'
p5625
sg4837
I-1
sg30
I3
sg4838
(lp5626
sbssg4935
(lp5627
(issf_api
Chunk
p5628
(dp5629
g4834
g1613
sg30
I0
sg4939
g1622
sg31
I3
sg4825
(lp5630
I77
asg36
(issf_api
FeatureSet
p5631
(dp5632
g12
(dp5633
S'name'
p5634
g5576
sS'drel'
p5635
S'k1:VGF'
p5636
ssbsba(issf_api
Chunk
p5637
(dp5638
g4834
g1636
sg30
I1
sg4939
g1643
sg31
I3
sg4825
(lp5639
I78
asg36
(issf_api
FeatureSet
p5640
(dp5641
g12
(dp5642
S'name'
p5643
g5571
ssbsba(issf_api
Chunk
p5644
(dp5645
g4834
g1657
sg30
I2
sg4939
g1662
sg31
I3
sg4825
(lp5646
I79
asg36
(issf_api
FeatureSet
p5647
(dp5648
g12
(dp5649
S'name'
p5650
g5577
sS'drel'
p5651
S'k2:VGF'
p5652
ssbsba(issf_api
Chunk
p5653
(dp5654
g4834
g1678
sg30
I3
sg4939
g1687
sg31
I3
sg4825
(lp5655
I80
asg36
(issf_api
FeatureSet
p5656
(dp5657
g12
(dp5658
S'name'
p5659
g5591
sS'drel'
p5660
S'k1:VGF2'
p5661
ssbsba(issf_api
Chunk
p5662
(dp5663
g4834
g1722
sg30
I4
sg4939
g1731
sg31
I3
sg4825
(lp5664
I81
aI82
asg36
(issf_api
FeatureSet
p5665
(dp5666
g12
(dp5667
S'name'
p5668
g5590
sS'drel'
p5669
S'k1s:VGF2'
p5670
ssbsba(issf_api
Chunk
p5671
(dp5672
g4834
g1745
sg30
I5
sg4939
g1754
sg31
I3
sg4825
(lp5673
I83
asg36
(issf_api
FeatureSet
p5674
(dp5675
g12
(dp5676
S'name'
p5677
g5570
sS'drel'
p5678
S'ccof:CCP2'
p5679
ssbsba(issf_api
Chunk
p5680
(dp5681
g4834
g1768
sg30
I6
sg4939
g1773
sg31
I3
sg4825
(lp5682
I84
asg36
(issf_api
FeatureSet
p5683
(dp5684
g12
(dp5685
S'name'
p5686
g5563
sS'drel'
p5687
S'ccof:CCP'
p5688
ssbsba(issf_api
Chunk
p5689
(dp5690
g4834
g1789
sg30
I7
sg4939
g1798
sg31
I3
sg4825
(lp5691
I85
asg36
(issf_api
FeatureSet
p5692
(dp5693
g12
(dp5694
S'name'
p5695
g5584
sS'drel'
p5696
S'k1:VGF3'
p5697
ssbsba(issf_api
Chunk
p5698
(dp5699
g4834
g1812
sg30
I8
sg4939
g1817
sg31
I3
sg4825
(lp5700
I86
asg36
(issf_api
FeatureSet
p5701
(dp5702
g12
(dp5703
S'name'
p5704
g5583
sS'drel'
p5705
S'k2:VGF3'
p5706
ssbsba(issf_api
Chunk
p5707
(dp5708
g4834
g1831
sg30
I9
sg4939
g1842
sg31
I3
sg4825
(lp5709
I87
aI88
asg36
(issf_api
FeatureSet
p5710
(dp5711
g12
(dp5712
S'name'
p5713
g5569
sS'drel'
p5714
S'ccof:CCP2'
p5715
ssbsba(issf_api
Chunk
p5716
(dp5717
g4834
g1873
sg30
I10
sg4939
g1878
sg31
I3
sg4825
(lp5718
I89
asg36
(issf_api
FeatureSet
p5719
(dp5720
g12
(dp5721
S'name'
p5722
g5575
sS'drel'
p5723
S'rsym:VGF'
p5724
ssbsbasba(issf_api
Sentence
p5725
(dp5726
g4823
(lp5727
sg31
I4
sg4825
(lp5728
I90
aI91
aI92
aI93
aI94
aI95
aI96
aI97
aI98
aI99
aI100
aI101
asg4827
(dp5729
S'VGF2'
p5730
(issf_api
Node
p5731
(dp5732
g4832
S'ccof'
p5733
sg4834
g5730
sg4835
S'CCP'
p5734
sg4837
I-1
sg30
I6
sg4838
(lp5735
S'NP'
p5736
aS'NP3'
p5737
aS'NP2'
p5738
asbsS'VGF'
p5739
(issf_api
Node
p5740
(dp5741
g4832
g4859
sg4834
g5739
sg4835
g4859
sg4837
I-1
sg30
I1
sg4838
(lp5742
S'JJP'
p5743
aS'BLK'
p5744
asbsS'CCP'
p5745
(issf_api
Node
p5746
(dp5747
g4832
S'rs'
p5748
sg4834
g5745
sg4835
S'NULL__NP'
p5749
sg4837
I-1
sg30
I2
sg4838
(lp5750
g5730
asbsg5743
(issf_api
Node
p5751
(dp5752
g4832
S'k1s'
p5753
sg4834
g5743
sg4835
S'VGF'
p5754
sg4837
I-1
sg30
I0
sg4838
(lp5755
sbsg5744
(issf_api
Node
p5756
(dp5757
g4832
S'rsym'
p5758
sg4834
g5744
sg4835
S'VGF'
p5759
sg4837
I-1
sg30
I7
sg4838
(lp5760
sbsS'NULL__NP'
p5761
(issf_api
Node
p5762
(dp5763
g4832
g4859
sg4834
g5761
sg4835
g4859
sg4837
I-1
sg30
I-1
sg4838
(lp5764
g5745
asbsg5736
(issf_api
Node
p5765
(dp5766
g4832
S'k7t'
p5767
sg4834
g5736
sg4835
S'VGF2'
p5768
sg4837
I-1
sg30
I3
sg4838
(lp5769
sbsg5737
(issf_api
Node
p5770
(dp5771
g4832
S'pof'
p5772
sg4834
g5737
sg4835
S'VGF2'
p5773
sg4837
I-1
sg30
I5
sg4838
(lp5774
sbsg5738
(issf_api
Node
p5775
(dp5776
g4832
S'k7p'
p5777
sg4834
g5738
sg4835
S'VGF2'
p5778
sg4837
I-1
sg30
I4
sg4838
(lp5779
sbssg4935
(lp5780
(issf_api
Chunk
p5781
(dp5782
g4834
g1892
sg30
I0
sg4939
g1897
sg31
I4
sg4825
(lp5783
I90
asg36
(issf_api
FeatureSet
p5784
(dp5785
g12
(dp5786
S'name'
p5787
g5743
sS'drel'
p5788
S'k1s:VGF'
p5789
ssbsba(issf_api
Chunk
p5790
(dp5791
g4834
g1911
sg30
I1
sg4939
g1918
sg31
I4
sg4825
(lp5792
I91
asg36
(issf_api
FeatureSet
p5793
(dp5794
g12
(dp5795
S'name'
p5796
g5739
ssbsba(issf_api
Chunk
p5797
(dp5798
g4834
g1932
sg30
I2
sg4939
g1937
sg31
I4
sg4825
(lp5799
I92
asg36
(issf_api
FeatureSet
p5800
(dp5801
g12
(dp5802
S'name'
p5803
g5745
sS'drel'
p5804
S'rs:NULL__NP'
p5805
ssbsba(issf_api
Chunk
p5806
(dp5807
g4834
g1951
sg30
I3
sg4939
g1958
sg31
I4
sg4825
(lp5808
I93
aI94
asg36
(issf_api
FeatureSet
p5809
(dp5810
g12
(dp5811
S'name'
p5812
g5736
sS'drel'
p5813
S'k7t:VGF2'
p5814
ssbsba(issf_api
Chunk
p5815
(dp5816
g4834
g1991
sg30
I4
sg4939
g2002
sg31
I4
sg4825
(lp5817
I95
aI96
asg36
(issf_api
FeatureSet
p5818
(dp5819
g12
(dp5820
S'name'
p5821
g5738
sS'drel'
p5822
S'k7p:VGF2'
p5823
ssbsba(issf_api
Chunk
p5824
(dp5825
g4834
g2050
sg30
I5
sg4939
g2055
sg31
I4
sg4825
(lp5826
I97
aI98
asg36
(issf_api
FeatureSet
p5827
(dp5828
g12
(dp5829
S'name'
p5830
g5737
sS'drel'
p5831
S'pof:VGF2'
p5832
ssbsba(issf_api
Chunk
p5833
(dp5834
g4834
g2069
sg30
I6
sg4939
g2080
sg31
I4
sg4825
(lp5835
I99
aI100
asg36
(issf_api
FeatureSet
p5836
(dp5837
g12
(dp5838
S'name'
p5839
g5730
sS'drel'
p5840
S'ccof:CCP'
p5841
ssbsba(issf_api
Chunk
p5842
(dp5843
g4834
g2111
sg30
I7
sg4939
g2116
sg31
I4
sg4825
(lp5844
I101
asg36
(issf_api
FeatureSet
p5845
(dp5846
g12
(dp5847
S'name'
p5848
g5744
sS'drel'
p5849
S'rsym:VGF'
p5850
ssbsbasba(issf_api
Sentence
p5851
(dp5852
g4823
(lp5853
sg31
I5
sg4825
(lp5854
I102
aI103
aI104
aI105
aI106
aI107
aI108
aI109
aI110
aI111
aI112
aI113
aI114
aI115
aI116
aI117
aI118
aI119
aI120
aI121
aI122
aI123
asg4827
(dp5855
S'VGF2'
p5856
(issf_api
Node
p5857
(dp5858
g4832
S'ccof'
p5859
sg4834
g5856
sg4835
S'CCP'
p5860
sg4837
I-1
sg30
I9
sg4838
(lp5861
S'JJP'
p5862
aS'NP6'
p5863
asbsS'VGF'
p5864
(issf_api
Node
p5865
(dp5866
g4832
S'ccof'
p5867
sg4834
g5864
sg4835
S'CCP'
p5868
sg4837
I-1
sg30
I5
sg4838
(lp5869
S'NP5'
p5870
aS'NP4'
p5871
aS'NP3'
p5872
asbsS'CCP'
p5873
(issf_api
Node
p5874
(dp5875
g4832
g4859
sg4834
g5873
sg4835
g4859
sg4837
I-1
sg30
I6
sg4838
(lp5876
g5856
ag5864
aS'BLK'
p5877
asbsg5862
(issf_api
Node
p5878
(dp5879
g4832
S'pof'
p5880
sg4834
g5862
sg4835
S'VGF2'
p5881
sg4837
I-1
sg30
I8
sg4838
(lp5882
sbsg5870
(issf_api
Node
p5883
(dp5884
g4832
S'k2'
p5885
sg4834
g5870
sg4835
S'VGF'
p5886
sg4837
I-1
sg30
I4
sg4838
(lp5887
sbsg5877
(issf_api
Node
p5888
(dp5889
g4832
S'rsym'
p5890
sg4834
g5877
sg4835
S'CCP'
p5891
sg4837
I-1
sg30
I10
sg4838
(lp5892
sbsS'NP'
p5893
(issf_api
Node
p5894
(dp5895
g4832
S'nmod'
p5896
sg4834
g5893
sg4835
S'NP2'
p5897
sg4837
I-1
sg30
I0
sg4838
(lp5898
sbsg5871
(issf_api
Node
p5899
(dp5900
g4832
S'k7p'
p5901
sg4834
g5871
sg4835
S'VGF'
p5902
sg4837
I-1
sg30
I3
sg4838
(lp5903
sbsg5863
(issf_api
Node
p5904
(dp5905
g4832
S'k7'
p5906
sg4834
g5863
sg4835
S'VGF2'
p5907
sg4837
I-1
sg30
I7
sg4838
(lp5908
sbsg5872
(issf_api
Node
p5909
(dp5910
g4832
S'k7'
p5911
sg4834
g5872
sg4835
S'VGF'
p5912
sg4837
I-1
sg30
I2
sg4838
(lp5913
S'NP2'
p5914
asbsg5914
(issf_api
Node
p5915
(dp5916
g4832
S'nmod'
p5917
sg4834
g5914
sg4835
S'NP3'
p5918
sg4837
I-1
sg30
I1
sg4838
(lp5919
g5893
asbssg4935
(lp5920
(issf_api
Chunk
p5921
(dp5922
g4834
g2130
sg30
I0
sg4939
g2137
sg31
I5
sg4825
(lp5923
I102
aI103
aI104
asg36
(issf_api
FeatureSet
p5924
(dp5925
g12
(dp5926
S'name'
p5927
g5893
sS'drel'
p5928
S'nmod:NP2'
p5929
ssbsba(issf_api
Chunk
p5930
(dp5931
g4834
g2185
sg30
I1
sg4939
g2190
sg31
I5
sg4825
(lp5932
I105
asg36
(issf_api
FeatureSet
p5933
(dp5934
g12
(dp5935
S'name'
p5936
g5914
sS'drel'
p5937
S'nmod:NP3'
p5938
ssbsba(issf_api
Chunk
p5939
(dp5940
g4834
g2221
sg30
I2
sg4939
g2228
sg31
I5
sg4825
(lp5941
I106
aI107
aI108
asg36
(issf_api
FeatureSet
p5942
(dp5943
g12
(dp5944
S'name'
p5945
g5872
sS'drel'
p5946
S'k7:VGF'
p5947
ssbsba(issf_api
Chunk
p5948
(dp5949
g4834
g2261
sg30
I3
sg4939
g2270
sg31
I5
sg4825
(lp5950
I109
asg36
(issf_api
FeatureSet
p5951
(dp5952
g12
(dp5953
S'name'
p5954
g5871
sS'drel'
p5955
S'k7p:VGF'
p5956
ssbsba(issf_api
Chunk
p5957
(dp5958
g4834
g2301
sg30
I4
sg4939
g2306
sg31
I5
sg4825
(lp5959
I110
aI111
asg36
(issf_api
FeatureSet
p5960
(dp5961
g12
(dp5962
S'name'
p5963
g5870
sS'drel'
p5964
S'k2:VGF'
p5965
ssbsba(issf_api
Chunk
p5966
(dp5967
g4834
g2320
sg30
I5
sg4939
g2331
sg31
I5
sg4825
(lp5968
I112
aI113
aI114
asg36
(issf_api
FeatureSet
p5969
(dp5970
g12
(dp5971
S'name'
p5972
g5864
sS'drel'
p5973
S'ccof:CCP'
p5974
ssbsba(issf_api
Chunk
p5975
(dp5976
g4834
g2375
sg30
I6
sg4939
g2382
sg31
I5
sg4825
(lp5977
I115
asg36
(issf_api
FeatureSet
p5978
(dp5979
g12
(dp5980
S'name'
p5981
g5873
ssbsba(issf_api
Chunk
p5982
(dp5983
g4834
g2396
sg30
I7
sg4939
g2403
sg31
I5
sg4825
(lp5984
I116
aI117
aI118
aI119
asg36
(issf_api
FeatureSet
p5985
(dp5986
g12
(dp5987
S'name'
p5988
g5863
sS'drel'
p5989
S'k7:VGF2'
p5990
ssbsba(issf_api
Chunk
p5991
(dp5992
g4834
g2468
sg30
I8
sg4939
g2473
sg31
I5
sg4825
(lp5993
I120
asg36
(issf_api
FeatureSet
p5994
(dp5995
g12
(dp5996
S'name'
p5997
g5862
sS'drel'
p5998
S'pof:VGF2'
p5999
ssbsba(issf_api
Chunk
p6000
(dp6001
g4834
g2487
sg30
I9
sg4939
g2498
sg31
I5
sg4825
(lp6002
I121
aI122
asg36
(issf_api
FeatureSet
p6003
(dp6004
g12
(dp6005
S'name'
p6006
g5856
sS'drel'
p6007
S'ccof:CCP'
p6008
ssbsba(issf_api
Chunk
p6009
(dp6010
g4834
g2529
sg30
I10
sg4939
g2534
sg31
I5
sg4825
(lp6011
I123
asg36
(issf_api
FeatureSet
p6012
(dp6013
g12
(dp6014
S'name'
p6015
g5877
sS'drel'
p6016
S'rsym:CCP'
p6017
ssbsbasba(issf_api
Sentence
p6018
(dp6019
g4823
(lp6020
sg31
I6
sg4825
(lp6021
I124
aI125
aI126
aI127
aI128
aI129
aI130
aI131
aI132
aI133
aI134
aI135
aI136
aI137
aI138
aI139
aI140
aI141
aI142
aI143
aI144
asg4827
(dp6022
S'VGNF'
p6023
(issf_api
Node
p6024
(dp6025
g4832
S'vmod'
p6026
sg4834
g6023
sg4835
S'VGF'
p6027
sg4837
I-1
sg30
I2
sg4838
(lp6028
S'NP'
p6029
aS'NP2'
p6030
asbsS'VGF'
p6031
(issf_api
Node
p6032
(dp6033
g4832
g4859
sg4834
g6031
sg4835
g4859
sg4837
I-1
sg30
I4
sg4838
(lp6034
g6023
aS'CCP'
p6035
aS'BLK'
p6036
aS'NP3'
p6037
asbsg6035
(issf_api
Node
p6038
(dp6039
g4832
S'k2'
p6040
sg4834
g6035
sg4835
S'VGF'
p6041
sg4837
I-1
sg30
I5
sg4838
(lp6042
S'VGF2'
p6043
asbsg6043
(issf_api
Node
p6044
(dp6045
g4832
S'ccof'
p6046
sg4834
g6043
sg4835
S'CCP'
p6047
sg4837
I-1
sg30
I10
sg4838
(lp6048
S'NP5'
p6049
aS'NP7'
p6050
aS'NP6'
p6051
asbsg6049
(issf_api
Node
p6052
(dp6053
g4832
S'k7'
p6054
sg4834
g6049
sg4835
S'VGF2'
p6055
sg4837
I-1
sg30
I7
sg4838
(lp6056
S'NP4'
p6057
asbsg6036
(issf_api
Node
p6058
(dp6059
g4832
S'rsym'
p6060
sg4834
g6036
sg4835
S'VGF'
p6061
sg4837
I-1
sg30
I11
sg4838
(lp6062
sbsg6029
(issf_api
Node
p6063
(dp6064
g4832
S'k7'
p6065
sg4834
g6029
sg4835
S'VGNF'
p6066
sg4837
I-1
sg30
I0
sg4838
(lp6067
sbsg6057
(issf_api
Node
p6068
(dp6069
g4832
S'r6'
p6070
sg4834
g6057
sg4835
S'NP5'
p6071
sg4837
I-1
sg30
I6
sg4838
(lp6072
sbsg6050
(issf_api
Node
p6073
(dp6074
g4832
S'ras-k1'
p6075
sg4834
g6050
sg4835
S'VGF2'
p6076
sg4837
I-1
sg30
I9
sg4838
(lp6077
sbsg6051
(issf_api
Node
p6078
(dp6079
g4832
S'k1'
p6080
sg4834
g6051
sg4835
S'VGF2'
p6081
sg4837
I-1
sg30
I8
sg4838
(lp6082
sbsg6037
(issf_api
Node
p6083
(dp6084
g4832
S'k1'
p6085
sg4834
g6037
sg4835
S'VGF'
p6086
sg4837
I-1
sg30
I3
sg4838
(lp6087
sbsg6030
(issf_api
Node
p6088
(dp6089
g4832
S'k2'
p6090
sg4834
g6030
sg4835
S'VGNF'
p6091
sg4837
I-1
sg30
I1
sg4838
(lp6092
sbssg4935
(lp6093
(issf_api
Chunk
p6094
(dp6095
g4834
g2565
sg30
I0
sg4939
g2572
sg31
I6
sg4825
(lp6096
I124
aI125
aI126
asg36
(issf_api
FeatureSet
p6097
(dp6098
g12
(dp6099
S'name'
p6100
g6029
sS'drel'
p6101
S'k7:VGNF'
p6102
ssbsba(issf_api
Chunk
p6103
(dp6104
g4834
g2603
sg30
I1
sg4939
g2608
sg31
I6
sg4825
(lp6105
I127
asg36
(issf_api
FeatureSet
p6106
(dp6107
g12
(dp6108
S'name'
p6109
g6030
sS'drel'
p6110
S'k2:VGNF'
p6111
ssbsba(issf_api
Chunk
p6112
(dp6113
g4834
g2622
sg30
I2
sg4939
g2629
sg31
I6
sg4825
(lp6114
I128
aI129
asg36
(issf_api
FeatureSet
p6115
(dp6116
g12
(dp6117
S'name'
p6118
g6023
sS'drel'
p6119
S'vmod:VGF'
p6120
ssbsba(issf_api
Chunk
p6121
(dp6122
g4834
g2662
sg30
I3
sg4939
g2673
sg31
I6
sg4825
(lp6123
I130
aI131
asg36
(issf_api
FeatureSet
p6124
(dp6125
g12
(dp6126
S'name'
p6127
g6037
sS'drel'
p6128
S'k1:VGF'
p6129
ssbsba(issf_api
Chunk
p6130
(dp6131
g4834
g2704
sg30
I4
sg4939
g2711
sg31
I6
sg4825
(lp6132
I132
asg36
(issf_api
FeatureSet
p6133
(dp6134
g12
(dp6135
S'name'
p6136
g6031
ssbsba(issf_api
Chunk
p6137
(dp6138
g4834
g2725
sg30
I5
sg4939
g2730
sg31
I6
sg4825
(lp6139
I133
asg36
(issf_api
FeatureSet
p6140
(dp6141
g12
(dp6142
S'name'
p6143
g6035
sS'drel'
p6144
S'k2:VGF'
p6145
ssbsba(issf_api
Chunk
p6146
(dp6147
g4834
g2744
sg30
I6
sg4939
g2751
sg31
I6
sg4825
(lp6148
I134
aI135
asg36
(issf_api
FeatureSet
p6149
(dp6150
g12
(dp6151
S'name'
p6152
g6057
sS'drel'
p6153
S'r6:NP5'
p6154
ssbsba(issf_api
Chunk
p6155
(dp6156
g4834
g2799
sg30
I7
sg4939
g2806
sg31
I6
sg4825
(lp6157
I136
aI137
aI138
asg36
(issf_api
FeatureSet
p6158
(dp6159
g12
(dp6160
S'name'
p6161
g6049
sS'drel'
p6162
S'k7:VGF2'
p6163
ssbsba(issf_api
Chunk
p6164
(dp6165
g4834
g2837
sg30
I8
sg4939
g2842
sg31
I6
sg4825
(lp6166
I139
asg36
(issf_api
FeatureSet
p6167
(dp6168
g12
(dp6169
S'name'
p6170
g6051
sS'drel'
p6171
S'k1:VGF2'
p6172
ssbsba(issf_api
Chunk
p6173
(dp6174
g4834
g2856
sg30
I9
sg4939
g2863
sg31
I6
sg4825
(lp6175
I140
aI141
aI142
asg36
(issf_api
FeatureSet
p6176
(dp6177
g12
(dp6178
S'name'
p6179
g6050
sS'drel'
p6180
S'ras-k1:VGF2'
p6181
ssbsba(issf_api
Chunk
p6182
(dp6183
g4834
g2911
sg30
I10
sg4939
g2920
sg31
I6
sg4825
(lp6184
I143
asg36
(issf_api
FeatureSet
p6185
(dp6186
g12
(dp6187
S'name'
p6188
g6043
sS'drel'
p6189
S'ccof:CCP'
p6190
ssbsba(issf_api
Chunk
p6191
(dp6192
g4834
g2934
sg30
I11
sg4939
g2939
sg31
I6
sg4825
(lp6193
I144
asg36
(issf_api
FeatureSet
p6194
(dp6195
g12
(dp6196
S'name'
p6197
g6036
sS'drel'
p6198
S'rsym:VGF'
p6199
ssbsbasba(issf_api
Sentence
p6200
(dp6201
g4823
(lp6202
sg31
I7
sg4825
(lp6203
I145
aI146
aI147
aI148
aI149
aI150
aI151
aI152
aI153
aI154
aI155
aI156
aI157
aI158
aI159
aI160
aI161
aI162
aI163
aI164
aI165
aI166
aI167
aI168
aI169
asg4827
(dp6204
S'VGNF'
p6205
(issf_api
Node
p6206
(dp6207
g4832
S'vmod'
p6208
sg4834
g6205
sg4835
S'VGF'
p6209
sg4837
I-1
sg30
I3
sg4838
(lp6210
S'NP3'
p6211
asbsS'VGF'
p6212
(issf_api
Node
p6213
(dp6214
g4832
g4859
sg4834
g6212
sg4835
g4859
sg4837
I-1
sg30
I5
sg4838
(lp6215
g6205
aS'CCP'
p6216
aS'BLK'
p6217
aS'NP'
p6218
aS'NP4'
p6219
asbsg6216
(issf_api
Node
p6220
(dp6221
g4832
S'k2'
p6222
sg4834
g6216
sg4835
S'VGF'
p6223
sg4837
I-1
sg30
I6
sg4838
(lp6224
S'VGF2'
p6225
asbsg6225
(issf_api
Node
p6226
(dp6227
g4832
S'ccof'
p6228
sg4834
g6225
sg4835
S'CCP'
p6229
sg4837
I-1
sg30
I11
sg4838
(lp6230
S'NP5'
p6231
aS'NP8'
p6232
aS'NP7'
p6233
asbsg6231
(issf_api
Node
p6234
(dp6235
g4832
S'k1'
p6236
sg4834
g6231
sg4835
S'VGF2'
p6237
sg4837
I-1
sg30
I7
sg4838
(lp6238
sbsg6232
(issf_api
Node
p6239
(dp6240
g4832
S'k2'
p6241
sg4834
g6232
sg4835
S'VGF2'
p6242
sg4837
I-1
sg30
I10
sg4838
(lp6243
sbsg6217
(issf_api
Node
p6244
(dp6245
g4832
S'rsym'
p6246
sg4834
g6217
sg4835
S'VGF'
p6247
sg4837
I-1
sg30
I12
sg4838
(lp6248
sbsg6218
(issf_api
Node
p6249
(dp6250
g4832
S'k7p'
p6251
sg4834
g6218
sg4835
S'VGF'
p6252
sg4837
I-1
sg30
I0
sg4838
(lp6253
sbsg6219
(issf_api
Node
p6254
(dp6255
g4832
S'k1'
p6256
sg4834
g6219
sg4835
S'VGF'
p6257
sg4837
I-1
sg30
I4
sg4838
(lp6258
sbsg6233
(issf_api
Node
p6259
(dp6260
g4832
S'rt'
p6261
sg4834
g6233
sg4835
S'VGF2'
p6262
sg4837
I-1
sg30
I9
sg4838
(lp6263
S'NP6'
p6264
asbsg6264
(issf_api
Node
p6265
(dp6266
g4832
S'r6'
p6267
sg4834
g6264
sg4835
S'NP7'
p6268
sg4837
I-1
sg30
I8
sg4838
(lp6269
sbsg6211
(issf_api
Node
p6270
(dp6271
g4832
S'pof'
p6272
sg4834
g6211
sg4835
S'VGNF'
p6273
sg4837
I-1
sg30
I2
sg4838
(lp6274
S'NP2'
p6275
asbsg6275
(issf_api
Node
p6276
(dp6277
g4832
S'r6-k2'
p6278
sg4834
g6275
sg4835
S'NP3'
p6279
sg4837
I-1
sg30
I1
sg4838
(lp6280
sbssg4935
(lp6281
(issf_api
Chunk
p6282
(dp6283
g4834
g2953
sg30
I0
sg4939
g2960
sg31
I7
sg4825
(lp6284
I145
aI146
asg36
(issf_api
FeatureSet
p6285
(dp6286
g12
(dp6287
S'name'
p6288
g6218
sS'drel'
p6289
S'k7p:VGF'
p6290
ssbsba(issf_api
Chunk
p6291
(dp6292
g4834
g3008
sg30
I1
sg4939
g3015
sg31
I7
sg4825
(lp6293
I147
aI148
aI149
asg36
(issf_api
FeatureSet
p6294
(dp6295
g12
(dp6296
S'name'
p6297
g6275
sS'drel'
p6298
S'r6-k2:NP3'
p6299
ssbsba(issf_api
Chunk
p6300
(dp6301
g4834
g3046
sg30
I2
sg4939
g3051
sg31
I7
sg4825
(lp6302
I150
asg36
(issf_api
FeatureSet
p6303
(dp6304
g12
(dp6305
S'name'
p6306
g6211
sS'drel'
p6307
S'pof:VGNF'
p6308
ssbsba(issf_api
Chunk
p6309
(dp6310
g4834
g3065
sg30
I3
sg4939
g3072
sg31
I7
sg4825
(lp6311
I151
aI152
asg36
(issf_api
FeatureSet
p6312
(dp6313
g12
(dp6314
S'name'
p6315
g6205
sS'drel'
p6316
S'vmod:VGF'
p6317
ssbsba(issf_api
Chunk
p6318
(dp6319
g4834
g3124
sg30
I4
sg4939
g3135
sg31
I7
sg4825
(lp6320
I153
aI154
aI155
asg36
(issf_api
FeatureSet
p6321
(dp6322
g12
(dp6323
S'name'
p6324
g6219
sS'drel'
p6325
S'k1:VGF'
p6326
ssbsba(issf_api
Chunk
p6327
(dp6328
g4834
g3166
sg30
I5
sg4939
g3173
sg31
I7
sg4825
(lp6329
I156
asg36
(issf_api
FeatureSet
p6330
(dp6331
g12
(dp6332
S'name'
p6333
g6212
ssbsba(issf_api
Chunk
p6334
(dp6335
g4834
g3187
sg30
I6
sg4939
g3192
sg31
I7
sg4825
(lp6336
I157
asg36
(issf_api
FeatureSet
p6337
(dp6338
g12
(dp6339
S'name'
p6340
g6216
sS'drel'
p6341
S'k2:VGF'
p6342
ssbsba(issf_api
Chunk
p6343
(dp6344
g4834
g3208
sg30
I7
sg4939
g3217
sg31
I7
sg4825
(lp6345
I158
asg36
(issf_api
FeatureSet
p6346
(dp6347
g12
(dp6348
S'name'
p6349
g6231
sS'drel'
p6350
S'k1:VGF2'
p6351
ssbsba(issf_api
Chunk
p6352
(dp6353
g4834
g3231
sg30
I8
sg4939
g3238
sg31
I7
sg4825
(lp6354
I159
aI160
asg36
(issf_api
FeatureSet
p6355
(dp6356
g12
(dp6357
S'name'
p6358
g6264
sS'drel'
p6359
S'r6:NP7'
p6360
ssbsba(issf_api
Chunk
p6361
(dp6362
g4834
g3286
sg30
I9
sg4939
g3293
sg31
I7
sg4825
(lp6363
I161
aI162
aI163
aI164
asg36
(issf_api
FeatureSet
p6364
(dp6365
g12
(dp6366
S'name'
p6367
g6233
sS'drel'
p6368
S'rt:VGF2'
p6369
ssbsba(issf_api
Chunk
p6370
(dp6371
g4834
g3341
sg30
I10
sg4939
g3346
sg31
I7
sg4825
(lp6372
I165
asg36
(issf_api
FeatureSet
p6373
(dp6374
g12
(dp6375
S'name'
p6376
g6232
sS'drel'
p6377
S'k2:VGF2'
p6378
ssbsba(issf_api
Chunk
p6379
(dp6380
g4834
g3360
sg30
I11
sg4939
g3371
sg31
I7
sg4825
(lp6381
I166
aI167
aI168
asg36
(issf_api
FeatureSet
p6382
(dp6383
g12
(dp6384
S'name'
p6385
g6225
sS'drel'
p6386
S'ccof:CCP'
p6387
ssbsba(issf_api
Chunk
p6388
(dp6389
g4834
g3419
sg30
I12
sg4939
g3424
sg31
I7
sg4825
(lp6390
I169
asg36
(issf_api
FeatureSet
p6391
(dp6392
g12
(dp6393
S'name'
p6394
g6217
sS'drel'
p6395
S'rsym:VGF'
p6396
ssbsbasba(issf_api
Sentence
p6397
(dp6398
g4823
(lp6399
sg31
I8
sg4825
(lp6400
I170
aI171
aI172
aI173
aI174
aI175
aI176
aI177
aI178
aI179
aI180
aI181
aI182
aI183
aI184
aI185
aI186
aI187
aI188
asg4827
(dp6401
S'VGF2'
p6402
(issf_api
Node
p6403
(dp6404
g4832
S'ccof'
p6405
sg4834
g6402
sg4835
S'CCP2'
p6406
sg4837
I-1
sg30
I11
sg4838
(lp6407
S'RBP'
p6408
aS'NP5'
p6409
aS'NP7'
p6410
asbsS'VGF'
p6411
(issf_api
Node
p6412
(dp6413
g4832
S'ccof'
p6414
sg4834
g6411
sg4835
S'CCP2'
p6415
sg4837
I-1
sg30
I5
sg4838
(lp6416
S'CCP'
p6417
aS'NP'
p6418
aS'NP4'
p6419
asbsg6417
(issf_api
Node
p6420
(dp6421
g4832
S'k2'
p6422
sg4834
g6417
sg4835
S'VGF'
p6423
sg4837
I-1
sg30
I2
sg4838
(lp6424
S'NP3'
p6425
aS'NP2'
p6426
asbsg6408
(issf_api
Node
p6427
(dp6428
g4832
S'vmod'
p6429
sg4834
g6408
sg4835
S'VGF2'
p6430
sg4837
I-1
sg30
I10
sg4838
(lp6431
sbsg6409
(issf_api
Node
p6432
(dp6433
g4832
S'k1'
p6434
sg4834
g6409
sg4835
S'VGF2'
p6435
sg4837
I-1
sg30
I7
sg4838
(lp6436
sbsS'BLK'
p6437
(issf_api
Node
p6438
(dp6439
g4832
S'rsym'
p6440
sg4834
g6437
sg4835
S'CCP2'
p6441
sg4837
I-1
sg30
I12
sg4838
(lp6442
sbsg6418
(issf_api
Node
p6443
(dp6444
g4832
S'k1'
p6445
sg4834
g6418
sg4835
S'VGF'
p6446
sg4837
I-1
sg30
I0
sg4838
(lp6447
sbsg6419
(issf_api
Node
p6448
(dp6449
g4832
S'pof'
p6450
sg4834
g6419
sg4835
S'VGF'
p6451
sg4837
I-1
sg30
I4
sg4838
(lp6452
sbsg6410
(issf_api
Node
p6453
(dp6454
g4832
S'pof'
p6455
sg4834
g6410
sg4835
S'VGF2'
p6456
sg4837
I-1
sg30
I9
sg4838
(lp6457
S'NP6'
p6458
asbsg6458
(issf_api
Node
p6459
(dp6460
g4832
S'r6-k2'
p6461
sg4834
g6458
sg4835
S'NP7'
p6462
sg4837
I-1
sg30
I8
sg4838
(lp6463
sbsS'CCP2'
p6464
(issf_api
Node
p6465
(dp6466
g4832
g4859
sg4834
g6464
sg4835
g4859
sg4837
I-1
sg30
I6
sg4838
(lp6467
g6402
ag6411
ag6437
asbsg6425
(issf_api
Node
p6468
(dp6469
g4832
S'ccof'
p6470
sg4834
g6425
sg4835
S'CCP'
p6471
sg4837
I-1
sg30
I3
sg4838
(lp6472
sbsg6426
(issf_api
Node
p6473
(dp6474
g4832
S'ccof'
p6475
sg4834
g6426
sg4835
S'CCP'
p6476
sg4837
I-1
sg30
I1
sg4838
(lp6477
sbssg4935
(lp6478
(issf_api
Chunk
p6479
(dp6480
g4834
g3440
sg30
I0
sg4939
g3449
sg31
I8
sg4825
(lp6481
I170
asg36
(issf_api
FeatureSet
p6482
(dp6483
g12
(dp6484
S'name'
p6485
g6418
sS'drel'
p6486
S'k1:VGF'
p6487
ssbsba(issf_api
Chunk
p6488
(dp6489
g4834
g3463
sg30
I1
sg4939
g3468
sg31
I8
sg4825
(lp6490
I171
asg36
(issf_api
FeatureSet
p6491
(dp6492
g12
(dp6493
S'name'
p6494
g6426
sS'drel'
p6495
S'ccof:CCP'
p6496
ssbsba(issf_api
Chunk
p6497
(dp6498
g4834
g3482
sg30
I2
sg4939
g3487
sg31
I8
sg4825
(lp6499
I172
asg36
(issf_api
FeatureSet
p6500
(dp6501
g12
(dp6502
S'name'
p6503
g6417
sS'drel'
p6504
S'k2:VGF'
p6505
ssbsba(issf_api
Chunk
p6506
(dp6507
g4834
g3501
sg30
I3
sg4939
g3508
sg31
I8
sg4825
(lp6508
I173
aI174
asg36
(issf_api
FeatureSet
p6509
(dp6510
g12
(dp6511
S'name'
p6512
g6425
sS'drel'
p6513
S'ccof:CCP'
p6514
ssbsba(issf_api
Chunk
p6515
(dp6516
g4834
g3573
sg30
I4
sg4939
g3578
sg31
I8
sg4825
(lp6517
I175
aI176
aI177
asg36
(issf_api
FeatureSet
p6518
(dp6519
g12
(dp6520
S'name'
p6521
g6419
sS'drel'
p6522
S'pof:VGF'
p6523
ssbsba(issf_api
Chunk
p6524
(dp6525
g4834
g3592
sg30
I5
sg4939
g3603
sg31
I8
sg4825
(lp6526
I178
aI179
aI180
asg36
(issf_api
FeatureSet
p6527
(dp6528
g12
(dp6529
S'name'
p6530
g6411
sS'drel'
p6531
S'ccof:CCP2'
p6532
ssbsba(issf_api
Chunk
p6533
(dp6534
g4834
g3647
sg30
I6
sg4939
g3654
sg31
I8
sg4825
(lp6535
I181
asg36
(issf_api
FeatureSet
p6536
(dp6537
g12
(dp6538
S'name'
p6539
g6464
ssbsba(issf_api
Chunk
p6540
(dp6541
g4834
g3670
sg30
I7
sg4939
g3679
sg31
I8
sg4825
(lp6542
I182
asg36
(issf_api
FeatureSet
p6543
(dp6544
g12
(dp6545
S'name'
p6546
g6409
sS'drel'
p6547
S'k1:VGF2'
p6548
ssbsba(issf_api
Chunk
p6549
(dp6550
g4834
g3695
sg30
I8
sg4939
g3704
sg31
I8
sg4825
(lp6551
I183
asg36
(issf_api
FeatureSet
p6552
(dp6553
g12
(dp6554
S'name'
p6555
g6458
sS'drel'
p6556
S'r6-k2:NP7'
p6557
ssbsba(issf_api
Chunk
p6558
(dp6559
g4834
g3718
sg30
I9
sg4939
g3723
sg31
I8
sg4825
(lp6560
I184
asg36
(issf_api
FeatureSet
p6561
(dp6562
g12
(dp6563
S'name'
p6564
g6410
sS'drel'
p6565
S'pof:VGF2'
p6566
ssbsba(issf_api
Chunk
p6567
(dp6568
g4834
g3737
sg30
I10
sg4939
g3742
sg31
I8
sg4825
(lp6569
I185
asg36
(issf_api
FeatureSet
p6570
(dp6571
g12
(dp6572
S'name'
p6573
g6408
sS'drel'
p6574
S'vmod:VGF2'
p6575
ssbsba(issf_api
Chunk
p6576
(dp6577
g4834
g3756
sg30
I11
sg4939
g3767
sg31
I8
sg4825
(lp6578
I186
aI187
asg36
(issf_api
FeatureSet
p6579
(dp6580
g12
(dp6581
S'name'
p6582
g6402
sS'drel'
p6583
S'ccof:CCP2'
p6584
ssbsba(issf_api
Chunk
p6585
(dp6586
g4834
g3798
sg30
I12
sg4939
g3803
sg31
I8
sg4825
(lp6587
I188
asg36
(issf_api
FeatureSet
p6588
(dp6589
g12
(dp6590
S'name'
p6591
g6437
sS'drel'
p6592
S'rsym:CCP2'
p6593
ssbsbasba(issf_api
Sentence
p6594
(dp6595
g4823
(lp6596
sg31
I9
sg4825
(lp6597
I189
aI190
aI191
aI192
aI193
aI194
aI195
aI196
aI197
aI198
aI199
aI200
aI201
aI202
aI203
aI204
aI205
aI206
aI207
aI208
aI209
aI210
asg4827
(dp6598
S'VGF'
p6599
(issf_api
Node
p6600
(dp6601
g4832
g4859
sg4834
g6599
sg4835
g4859
sg4837
I-1
sg30
I8
sg4838
(lp6602
S'NP5'
p6603
aS'NP8'
p6604
aS'BLK'
p6605
aS'NP'
p6606
aS'NP4'
p6607
aS'NP7'
p6608
aS'NP3'
p6609
aS'NP2'
p6610
asbsg6603
(issf_api
Node
p6611
(dp6612
g4832
S'k7'
p6613
sg4834
g6603
sg4835
S'VGF'
p6614
sg4837
I-1
sg30
I4
sg4838
(lp6615
sbsg6604
(issf_api
Node
p6616
(dp6617
g4832
S'pof'
p6618
sg4834
g6604
sg4835
S'VGF'
p6619
sg4837
I-1
sg30
I7
sg4838
(lp6620
sbsg6605
(issf_api
Node
p6621
(dp6622
g4832
S'rsym'
p6623
sg4834
g6605
sg4835
S'VGF'
p6624
sg4837
I-1
sg30
I9
sg4838
(lp6625
sbsg6606
(issf_api
Node
p6626
(dp6627
g4832
S'sent-adv'
p6628
sg4834
g6606
sg4835
S'VGF'
p6629
sg4837
I-1
sg30
I0
sg4838
(lp6630
sbsg6607
(issf_api
Node
p6631
(dp6632
g4832
S'k4'
p6633
sg4834
g6607
sg4835
S'VGF'
p6634
sg4837
I-1
sg30
I3
sg4838
(lp6635
sbsg6608
(issf_api
Node
p6636
(dp6637
g4832
S'k2'
p6638
sg4834
g6608
sg4835
S'VGF'
p6639
sg4837
I-1
sg30
I6
sg4838
(lp6640
S'NP6'
p6641
asbsg6641
(issf_api
Node
p6642
(dp6643
g4832
S'r6'
p6644
sg4834
g6641
sg4835
S'NP7'
p6645
sg4837
I-1
sg30
I5
sg4838
(lp6646
sbsg6609
(issf_api
Node
p6647
(dp6648
g4832
S'k7t'
p6649
sg4834
g6609
sg4835
S'VGF'
p6650
sg4837
I-1
sg30
I2
sg4838
(lp6651
sbsg6610
(issf_api
Node
p6652
(dp6653
g4832
S'rd'
p6654
sg4834
g6610
sg4835
S'VGF'
p6655
sg4837
I-1
sg30
I1
sg4838
(lp6656
sbssg4935
(lp6657
(issf_api
Chunk
p6658
(dp6659
g4834
g3817
sg30
I0
sg4939
g3822
sg31
I9
sg4825
(lp6660
I189
aI190
asg36
(issf_api
FeatureSet
p6661
(dp6662
g12
(dp6663
S'name'
p6664
g6606
sS'drel'
p6665
S'sent-adv:VGF'
p6666
ssbsba(issf_api
Chunk
p6667
(dp6668
g4834
g3874
sg30
I1
sg4939
g3885
sg31
I9
sg4825
(lp6669
I191
aI192
aI193
aI194
aI195
asg36
(issf_api
FeatureSet
p6670
(dp6671
g12
(dp6672
S'name'
p6673
g6610
sS'drel'
p6674
S'rd:VGF'
p6675
ssbsba(issf_api
Chunk
p6676
(dp6677
g4834
g3950
sg30
I2
sg4939
g3955
sg31
I9
sg4825
(lp6678
I196
asg36
(issf_api
FeatureSet
p6679
(dp6680
g12
(dp6681
S'name'
p6682
g6609
sS'drel'
p6683
S'k7t:VGF'
p6684
ssbsba(issf_api
Chunk
p6685
(dp6686
g4834
g3990
sg30
I3
sg4939
g4001
sg31
I9
sg4825
(lp6687
I197
aI198
aI199
asg36
(issf_api
FeatureSet
p6688
(dp6689
g12
(dp6690
S'name'
p6691
g6607
sS'drel'
p6692
S'k4:VGF'
p6693
ssbsba(issf_api
Chunk
p6694
(dp6695
g4834
g4051
sg30
I4
sg4939
g4060
sg31
I9
sg4825
(lp6696
I200
aI201
aI202
asg36
(issf_api
FeatureSet
p6697
(dp6698
g12
(dp6699
S'name'
p6700
g6603
sS'drel'
p6701
S'k7:VGF'
p6702
ssbsba(issf_api
Chunk
p6703
(dp6704
g4834
g4095
sg30
I5
sg4939
g4104
sg31
I9
sg4825
(lp6705
I203
aI204
asg36
(issf_api
FeatureSet
p6706
(dp6707
g12
(dp6708
S'name'
p6709
g6641
sS'drel'
p6710
S'r6:NP7'
p6711
ssbsba(issf_api
Chunk
p6712
(dp6713
g4834
g4156
sg30
I6
sg4939
g4167
sg31
I9
sg4825
(lp6714
I205
aI206
asg36
(issf_api
FeatureSet
p6715
(dp6716
g12
(dp6717
S'name'
p6718
g6608
sS'drel'
p6719
S'k2:VGF'
p6720
ssbsba(issf_api
Chunk
p6721
(dp6722
g4834
g4181
sg30
I7
sg4939
g4186
sg31
I9
sg4825
(lp6723
I207
asg36
(issf_api
FeatureSet
p6724
(dp6725
g12
(dp6726
S'name'
p6727
g6604
sS'drel'
p6728
S'pof:VGF'
p6729
ssbsba(issf_api
Chunk
p6730
(dp6731
g4834
g4200
sg30
I8
sg4939
g4209
sg31
I9
sg4825
(lp6732
I208
aI209
asg36
(issf_api
FeatureSet
p6733
(dp6734
g12
(dp6735
S'name'
p6736
g6599
ssbsba(issf_api
Chunk
p6737
(dp6738
g4834
g4240
sg30
I9
sg4939
g4245
sg31
I9
sg4825
(lp6739
I210
asg36
(issf_api
FeatureSet
p6740
(dp6741
g12
(dp6742
S'name'
p6743
g6605
sS'drel'
p6744
S'rsym:VGF'
p6745
ssbsbasba(issf_api
Sentence
p6746
(dp6747
g4823
(lp6748
sg31
I10
sg4825
(lp6749
I211
aI212
aI213
aI214
aI215
aI216
aI217
aI218
aI219
aI220
asg4827
(dp6750
S'VGF'
p6751
(issf_api
Node
p6752
(dp6753
g4832
g4859
sg4834
g6751
sg4835
g4859
sg4837
I-1
sg30
I4
sg4838
(lp6754
S'BLK'
p6755
aS'NP'
p6756
aS'NP4'
p6757
aS'NP2'
p6758
asbsg6755
(issf_api
Node
p6759
(dp6760
g4832
S'rsym'
p6761
sg4834
g6755
sg4835
S'VGF'
p6762
sg4837
I-1
sg30
I5
sg4838
(lp6763
sbsg6756
(issf_api
Node
p6764
(dp6765
g4832
S'k1'
p6766
sg4834
g6756
sg4835
S'VGF'
p6767
sg4837
I-1
sg30
I0
sg4838
(lp6768
sbsg6757
(issf_api
Node
p6769
(dp6770
g4832
S'k1s'
p6771
sg4834
g6757
sg4835
S'VGF'
p6772
sg4837
I-1
sg30
I3
sg4838
(lp6773
S'NP3'
p6774
asbsg6774
(issf_api
Node
p6775
(dp6776
g4832
S'r6'
p6777
sg4834
g6774
sg4835
S'NP4'
p6778
sg4837
I-1
sg30
I2
sg4838
(lp6779
sbsg6758
(issf_api
Node
p6780
(dp6781
g4832
S'k7t'
p6782
sg4834
g6758
sg4835
S'VGF'
p6783
sg4837
I-1
sg30
I1
sg4838
(lp6784
sbssg4935
(lp6785
(issf_api
Chunk
p6786
(dp6787
g4834
g4261
sg30
I0
sg4939
g4270
sg31
I10
sg4825
(lp6788
I211
asg36
(issf_api
FeatureSet
p6789
(dp6790
g12
(dp6791
S'name'
p6792
g6756
sS'drel'
p6793
S'k1:VGF'
p6794
ssbsba(issf_api
Chunk
p6795
(dp6796
g4834
g4301
sg30
I1
sg4939
g4308
sg31
I10
sg4825
(lp6797
I212
aI213
aI214
asg36
(issf_api
FeatureSet
p6798
(dp6799
g12
(dp6800
S'name'
p6801
g6758
sS'drel'
p6802
S'k7t:VGF'
p6803
ssbsba(issf_api
Chunk
p6804
(dp6805
g4834
g4341
sg30
I2
sg4939
g4352
sg31
I10
sg4825
(lp6806
I215
aI216
asg36
(issf_api
FeatureSet
p6807
(dp6808
g12
(dp6809
S'name'
p6810
g6774
sS'drel'
p6811
S'r6:NP4'
p6812
ssbsba(issf_api
Chunk
p6813
(dp6814
g4834
g4383
sg30
I3
sg4939
g4388
sg31
I10
sg4825
(lp6815
I217
asg36
(issf_api
FeatureSet
p6816
(dp6817
g12
(dp6818
S'name'
p6819
g6757
sS'drel'
p6820
S'k1s:VGF'
p6821
ssbsba(issf_api
Chunk
p6822
(dp6823
g4834
g4402
sg30
I4
sg4939
g4411
sg31
I10
sg4825
(lp6824
I218
aI219
asg36
(issf_api
FeatureSet
p6825
(dp6826
g12
(dp6827
S'name'
p6828
g6751
ssbsba(issf_api
Chunk
p6829
(dp6830
g4834
g4442
sg30
I5
sg4939
g4447
sg31
I10
sg4825
(lp6831
I220
asg36
(issf_api
FeatureSet
p6832
(dp6833
g12
(dp6834
S'name'
p6835
g6755
sS'drel'
p6836
S'rsym:VGF'
p6837
ssbsbasba(issf_api
Sentence
p6838
(dp6839
g4823
(lp6840
sg31
I11
sg4825
(lp6841
I221
aI222
aI223
aI224
aI225
aI226
aI227
aI228
aI229
aI230
aI231
aI232
aI233
aI234
aI235
aI236
aI237
aI238
aI239
asg4827
(dp6842
S'VGF'
p6843
(issf_api
Node
p6844
(dp6845
g4832
g4859
sg4834
g6843
sg4835
g4859
sg4837
I-1
sg30
I8
sg4838
(lp6846
S'JJP'
p6847
aS'NP5'
p6848
aS'BLK'
p6849
aS'NP'
p6850
aS'NP4'
p6851
aS'NP7'
p6852
aS'NP2'
p6853
asbsg6847
(issf_api
Node
p6854
(dp6855
g4832
S'pof'
p6856
sg4834
g6847
sg4835
S'VGF'
p6857
sg4837
I-1
sg30
I7
sg4838
(lp6858
sbsg6848
(issf_api
Node
p6859
(dp6860
g4832
S'k7'
p6861
sg4834
g6848
sg4835
S'VGF'
p6862
sg4837
I-1
sg30
I4
sg4838
(lp6863
sbsg6849
(issf_api
Node
p6864
(dp6865
g4832
S'rsym'
p6866
sg4834
g6849
sg4835
S'VGF'
p6867
sg4837
I-1
sg30
I9
sg4838
(lp6868
sbsg6850
(issf_api
Node
p6869
(dp6870
g4832
S'k1'
p6871
sg4834
g6850
sg4835
S'VGF'
p6872
sg4837
I-1
sg30
I0
sg4838
(lp6873
sbsg6851
(issf_api
Node
p6874
(dp6875
g4832
S'k5'
p6876
sg4834
g6851
sg4835
S'VGF'
p6877
sg4837
I-1
sg30
I3
sg4838
(lp6878
S'NP3'
p6879
asbsg6852
(issf_api
Node
p6880
(dp6881
g4832
S'k2'
p6882
sg4834
g6852
sg4835
S'VGF'
p6883
sg4837
I-1
sg30
I6
sg4838
(lp6884
S'NP6'
p6885
asbsg6885
(issf_api
Node
p6886
(dp6887
g4832
S'r6'
p6888
sg4834
g6885
sg4835
S'NP7'
p6889
sg4837
I-1
sg30
I5
sg4838
(lp6890
sbsg6879
(issf_api
Node
p6891
(dp6892
g4832
S'r6'
p6893
sg4834
g6879
sg4835
S'NP4'
p6894
sg4837
I-1
sg30
I2
sg4838
(lp6895
sbsg6853
(issf_api
Node
p6896
(dp6897
g4832
S'k7t'
p6898
sg4834
g6853
sg4835
S'VGF'
p6899
sg4837
I-1
sg30
I1
sg4838
(lp6900
sbssg4935
(lp6901
(issf_api
Chunk
p6902
(dp6903
g4834
g4463
sg30
I0
sg4939
g4474
sg31
I11
sg4825
(lp6904
I221
aI222
asg36
(issf_api
FeatureSet
p6905
(dp6906
g12
(dp6907
S'name'
p6908
g6850
sS'drel'
p6909
S'k1:VGF'
p6910
ssbsba(issf_api
Chunk
p6911
(dp6912
g4834
g4505
sg30
I1
sg4939
g4512
sg31
I11
sg4825
(lp6913
I223
aI224
asg36
(issf_api
FeatureSet
p6914
(dp6915
g12
(dp6916
S'name'
p6917
g6853
sS'drel'
p6918
S'k7t:VGF'
p6919
ssbsba(issf_api
Chunk
p6920
(dp6921
g4834
g4545
sg30
I2
sg4939
g4556
sg31
I11
sg4825
(lp6922
I225
aI226
asg36
(issf_api
FeatureSet
p6923
(dp6924
g12
(dp6925
S'name'
p6926
g6879
sS'drel'
p6927
S'r6:NP4'
p6928
ssbsba(issf_api
Chunk
p6929
(dp6930
g4834
g4604
sg30
I3
sg4939
g4611
sg31
I11
sg4825
(lp6931
I227
aI228
aI229
asg36
(issf_api
FeatureSet
p6932
(dp6933
g12
(dp6934
S'name'
p6935
g6851
sS'drel'
p6936
S'k5:VGF'
p6937
ssbsba(issf_api
Chunk
p6938
(dp6939
g4834
g4642
sg30
I4
sg4939
g4649
sg31
I11
sg4825
(lp6940
I230
aI231
asg36
(issf_api
FeatureSet
p6941
(dp6942
g12
(dp6943
S'name'
p6944
g6848
sS'drel'
p6945
S'k7:VGF'
p6946
ssbsba(issf_api
Chunk
p6947
(dp6948
g4834
g4697
sg30
I5
sg4939
g4704
sg31
I11
sg4825
(lp6949
I232
aI233
aI234
asg36
(issf_api
FeatureSet
p6950
(dp6951
g12
(dp6952
S'name'
p6953
g6885
sS'drel'
p6954
S'r6:NP7'
p6955
ssbsba(issf_api
Chunk
p6956
(dp6957
g4834
g4735
sg30
I6
sg4939
g4740
sg31
I11
sg4825
(lp6958
I235
asg36
(issf_api
FeatureSet
p6959
(dp6960
g12
(dp6961
S'name'
p6962
g6852
sS'drel'
p6963
S'k2:VGF'
p6964
ssbsba(issf_api
Chunk
p6965
(dp6966
g4834
g4754
sg30
I7
sg4939
g4759
sg31
I11
sg4825
(lp6967
I236
asg36
(issf_api
FeatureSet
p6968
(dp6969
g12
(dp6970
S'name'
p6971
g6847
sS'drel'
p6972
S'pof:VGF'
p6973
ssbsba(issf_api
Chunk
p6974
(dp6975
g4834
g4773
sg30
I8
sg4939
g4782
sg31
I11
sg4825
(lp6976
I237
aI238
asg36
(issf_api
FeatureSet
p6977
(dp6978
g12
(dp6979
S'name'
p6980
g6843
ssbsba(issf_api
Chunk
p6981
(dp6982
g4834
g4813
sg30
I9
sg4939
g4818
sg31
I11
sg4825
(lp6983
I239
asg36
(issf_api
FeatureSet
p6984
(dp6985
g12
(dp6986
S'name'
p6987
g6849
sS'drel'
p6988
S'rsym:VGF'
p6989
ssbsbasbasb.