(issf_api
SSFInfo
p0
(dp1
S'globalWordList'
p2
(lp3
(issf_api
Word
p4
(dp5
S'splitConn'
p6
I00
sS'word'
p7
V\u091a\u094b\u091f
p8
sS'extraFeatureSet'
p9
(issf_api
FeatureSet
p10
(dp11
S'featureDict'
p12
(dp13
S'posn'
p14
S'10'
p15
sS'name'
p16
S'\xe0\xa4\x9a\xe0\xa5\x8b\xe0\xa4\x9f'
p17
sS'af'
p18
S'\xe0\xa4\x9a\xe0\xa5\x8b\xe0\xa4\x9f,n,f,sg,3,o,0_\xe0\xa4\x95\xe0\xa5\x87_\xe0\xa4\x95\xe0\xa4\xbe\xe0\xa4\xb0\xe0\xa4\xa3,0'
p19
sS'chunkid'
p20
S'NP'
p21
sS'drel'
p22
S'rh:VGNF'
p23
sS'vpos'
p24
S'vib_2_3'
p25
sS'chunktype'
p26
S'head:NP'
p27
ssbsS'arg1'
p28
I00
sS'arg2'
p29
I00
sS'sense'
p30
NsS'arg1Span'
p31
NsS'chunkNum'
p32
I0
sS'sentenceNum'
p33
I0
sS'relationNum'
p34
NsS'arg2Span'
p35
NsS'wordTag'
p36
S'NN'
p37
sS'featureSet'
p38
g10
sS'conn'
p39
I00
sba(issf_api
Word
p40
(dp41
g6
I00
sg7
V\u0915\u0947
p42
sg9
(issf_api
FeatureSet
p43
(dp44
g12
(dp45
S'posn'
p46
S'20'
p47
sS'name'
p48
S'\xe0\xa4\x95\xe0\xa5\x87'
p49
sS'drel'
p50
S'lwg__psp:NP'
p51
sS'chunktype'
p52
S'child:NP'
p53
sS'af'
p54
S'\xe0\xa4\x95\xe0\xa5\x87,psp,m,,,o,,'
p55
ssbsg28
I00
sg29
I00
sg30
Nsg31
Nsg32
I0
sg33
I0
sg34
Nsg35
Nsg36
S'PSP'
p56
sg38
g43
sg39
I00
sba(issf_api
Word
p57
(dp58
g6
I00
sg7
V\u0915\u093e\u0930\u0923
p59
sg9
(issf_api
FeatureSet
p60
(dp61
g12
(dp62
S'posn'
p63
S'30'
p64
sS'name'
p65
S'\xe0\xa4\x95\xe0\xa4\xbe\xe0\xa4\xb0\xe0\xa4\xa3'
p66
sS'drel'
p67
S'lwg__psp:NP'
p68
sS'chunktype'
p69
S'child:NP'
p70
sS'af'
p71
S'\xe0\xa4\x95\xe0\xa4\xbe\xe0\xa4\xb0\xe0\xa4\xa3,n,m,,,o,,'
p72
ssbsg28
I00
sg29
I00
sg30
Nsg31
Nsg32
I0
sg33
I0
sg34
Nsg35
Nsg36
S'PSP'
p73
sg38
g60
sg39
I00
sba(issf_api
Word
p74
(dp75
g6
I00
sg7
V\u0911\u0938\u094d\u091f\u094d\u0930\u0947\u0932\u093f\u092f\u093e
p76
sg9
(issf_api
FeatureSet
p77
(dp78
g12
(dp79
S'posn'
p80
S'40'
p81
sS'name'
p82
S'\xe0\xa4\x91\xe0\xa4\xb8\xe0\xa5\x8d\xe0\xa4\x9f\xe0\xa5\x8d\xe0\xa4\xb0\xe0\xa5\x87\xe0\xa4\xb2\xe0\xa4\xbf\xe0\xa4\xaf\xe0\xa4\xbe'
p83
sS'af'
p84
S'\xe0\xa4\x91\xe0\xa4\xb8\xe0\xa5\x8d\xe0\xa4\x9f\xe0\xa5\x8d\xe0\xa4\xb0\xe0\xa5\x87\xe0\xa4\xb2\xe0\xa4\xbf\xe0\xa4\xaf\xe0\xa4\xbe,n,m,sg,3,o,0_\xe0\xa4\x95\xe0\xa5\x87_\xe0\xa4\x96\xe0\xa4\xbf\xe0\xa4\xb2\xe0\xa4\xbe\xe0\xa4\xab,0'
p85
sS'chunkid'
p86
S'NP2'
p87
sS'drel'
p88
S'vmod:VGNF'
p89
sS'vpos'
p90
S'vib_2_3'
p91
sS'chunktype'
p92
S'head:NP2'
p93
ssbsg28
I00
sg29
I00
sg30
Nsg31
Nsg32
I1
sg33
I0
sg34
Nsg35
Nsg36
S'NNP'
p94
sg38
g77
sg39
I00
sba(issf_api
Word
p95
(dp96
g6
I00
sg7
V\u0915\u0947
p97
sg9
(issf_api
FeatureSet
p98
(dp99
g12
(dp100
S'posn'
p101
S'50'
p102
sS'name'
p103
S'\xe0\xa4\x95\xe0\xa5\x872'
p104
sS'drel'
p105
S'lwg__psp:NP2'
p106
sS'chunktype'
p107
S'child:NP2'
p108
sS'af'
p109
S'\xe0\xa4\x95\xe0\xa5\x87,psp,,,,,,'
p110
ssbsg28
I00
sg29
I00
sg30
Nsg31
Nsg32
I1
sg33
I0
sg34
Nsg35
Nsg36
S'PSP'
p111
sg38
g98
sg39
I00
sba(issf_api
Word
p112
(dp113
g6
I00
sg7
V\u0916\u093f\u0932\u093e\u092b
p114
sg9
(issf_api
FeatureSet
p115
(dp116
g12
(dp117
S'posn'
p118
S'60'
p119
sS'name'
p120
S'\xe0\xa4\x96\xe0\xa4\xbf\xe0\xa4\xb2\xe0\xa4\xbe\xe0\xa4\xab'
p121
sS'drel'
p122
S'lwg__psp:NP2'
p123
sS'chunktype'
p124
S'child:NP2'
p125
sS'af'
p126
S'\xe0\xa4\x96\xe0\xa4\xbf\xe0\xa4\xb2\xe0\xa4\xbe\xe0\xa4\xab,adj,,,,,,'
p127
ssbsg28
I00
sg29
I00
sg30
Nsg31
Nsg32
I1
sg33
I0
sg34
Nsg35
Nsg36
S'PSP'
p128
sg38
g115
sg39
I00
sba(issf_api
Word
p129
(dp130
g6
I00
sg7
V\u091f\u0947\u0938\u094d\u091f
p131
sg9
(issf_api
FeatureSet
p132
(dp133
g12
(dp134
S'posn'
p135
S'70'
p136
sS'name'
p137
S'\xe0\xa4\x9f\xe0\xa5\x87\xe0\xa4\xb8\xe0\xa5\x8d\xe0\xa4\x9f'
p138
sS'drel'
p139
S'pof__cn:NP3'
p140
sS'chunktype'
p141
S'child:NP3'
p142
sS'af'
p143
S'\xe0\xa4\x9f\xe0\xa5\x87\xe0\xa4\xb8\xe0\xa5\x8d\xe0\xa4\x9f,n,m,sg,3,d,0,0'
p144
ssbsg28
I00
sg29
I00
sg30
Nsg31
Nsg32
I2
sg33
I0
sg34
Nsg35
Nsg36
S'NNC'
p145
sg38
g132
sg39
I00
sba(issf_api
Word
p146
(dp147
g6
I00
sg7
V\u0938\u093f\u0930\u0940\u091c\u093c
p148
sg9
(issf_api
FeatureSet
p149
(dp150
g12
(dp151
S'posn'
p152
S'80'
p153
sS'name'
p154
S'\xe0\xa4\xb8\xe0\xa4\xbf\xe0\xa4\xb0\xe0\xa5\x80\xe0\xa4\x9c\xe0\xa4\xbc'
p155
sS'af'
p156
S'\xe0\xa4\xb8\xe0\xa4\xbf\xe0\xa4\xb0\xe0\xa5\x80\xe0\xa4\x9c\xe0\xa4\xbc,n,f,sg,3,o,0_\xe0\xa4\x95\xe0\xa4\xbe,0'
p157
sS'chunkid'
p158
S'NP3'
p159
sS'drel'
p160
S'r6:NP4'
p161
sS'vpos'
p162
S'vib_3'
p163
sS'chunktype'
p164
S'head:NP3'
p165
ssbsg28
I00
sg29
I00
sg30
Nsg31
Nsg32
I2
sg33
I0
sg34
Nsg35
Nsg36
S'NN'
p166
sg38
g149
sg39
I00
sba(issf_api
Word
p167
(dp168
g6
I00
sg7
V\u0915\u0947
p169
sg9
(issf_api
FeatureSet
p170
(dp171
g12
(dp172
S'posn'
p173
S'90'
p174
sS'name'
p175
S'\xe0\xa4\x95\xe0\xa5\x873'
p176
sS'drel'
p177
S'lwg__psp:NP3'
p178
sS'chunktype'
p179
S'child:NP3'
p180
sS'af'
p181
S'\xe0\xa4\x95\xe0\xa4\xbe,psp,m,pl,,o,,'
p182
ssbsg28
I00
sg29
I00
sg30
Nsg31
Nsg32
I2
sg33
I0
sg34
Nsg35
Nsg36
S'PSP'
p183
sg38
g170
sg39
I00
sba(issf_api
Word
p184
(dp185
g6
I00
sg7
V\u0926\u094b
p186
sg9
(issf_api
FeatureSet
p187
(dp188
g12
(dp189
S'posn'
p190
S'100'
p191
sS'name'
p192
S'\xe0\xa4\xa6\xe0\xa5\x8b'
p193
sS'drel'
p194
S'nmod__adj:NP4'
p195
sS'chunktype'
p196
S'child:NP4'
p197
sS'af'
p198
S'\xe0\xa4\xa6\xe0\xa5\x8b,num,any,any,,any,,'
p199
ssbsg28
I00
sg29
I00
sg30
Nsg31
Nsg32
I3
sg33
I0
sg34
Nsg35
Nsg36
S'QC'
p200
sg38
g187
sg39
I00
sba(issf_api
Word
p201
(dp202
g6
I00
sg7
V\u092e\u0948\u091a\u094b\u0902
p203
sg9
(issf_api
FeatureSet
p204
(dp205
g12
(dp206
S'posn'
p207
S'110'
p208
sS'name'
p209
S'\xe0\xa4\xae\xe0\xa5\x88\xe0\xa4\x9a\xe0\xa5\x8b\xe0\xa4\x82'
p210
sS'af'
p211
S'\xe0\xa4\xae\xe0\xa5\x88\xe0\xa4\x9a,n,m,pl,3,o,0_\xe0\xa4\xb8\xe0\xa5\x87_\xe0\xa4\xac\xe0\xa4\xbe\xe0\xa4\xb9\xe0\xa4\xb0,0'
p212
sS'chunkid'
p213
S'NP4'
p214
sS'drel'
p215
S'k7:VGNF'
p216
sS'vpos'
p217
S'vib_3_4'
p218
sS'chunktype'
p219
S'head:NP4'
p220
ssbsg28
I00
sg29
I00
sg30
Nsg31
Nsg32
I3
sg33
I0
sg34
Nsg35
Nsg36
S'NN'
p221
sg38
g204
sg39
I00
sba(issf_api
Word
p222
(dp223
g6
I00
sg7
V\u0938\u0947
p224
sg9
(issf_api
FeatureSet
p225
(dp226
g12
(dp227
S'posn'
p228
S'120'
p229
sS'name'
p230
S'\xe0\xa4\xb8\xe0\xa5\x87'
p231
sS'drel'
p232
S'lwg__psp:NP4'
p233
sS'chunktype'
p234
S'child:NP4'
p235
sS'af'
p236
S'\xe0\xa4\xb8\xe0\xa5\x87,psp,,,,,,'
p237
ssbsg28
I00
sg29
I00
sg30
Nsg31
Nsg32
I3
sg33
I0
sg34
Nsg35
Nsg36
S'PSP'
p238
sg38
g225
sg39
I00
sba(issf_api
Word
p239
(dp240
g6
I00
sg7
V\u092c\u093e\u0939\u0930
p241
sg9
(issf_api
FeatureSet
p242
(dp243
g12
(dp244
S'posn'
p245
S'130'
p246
sS'name'
p247
S'\xe0\xa4\xac\xe0\xa4\xbe\xe0\xa4\xb9\xe0\xa4\xb0'
p248
sS'drel'
p249
S'lwg__psp:NP4'
p250
sS'chunktype'
p251
S'child:NP4'
p252
sS'af'
p253
S'\xe0\xa4\xac\xe0\xa4\xbe\xe0\xa4\xb9\xe0\xa4\xb0,nst,m,sg,3,d,,'
p254
ssbsg28
I00
sg29
I00
sg30
Nsg31
Nsg32
I3
sg33
I0
sg34
Nsg35
Nsg36
S'NST'
p255
sg38
g242
sg39
I00
sba(issf_api
Word
p256
(dp257
g6
I00
sg7
V\u0930\u0939\u0947
p258
sg9
(issf_api
FeatureSet
p259
(dp260
g12
(dp261
S'posn'
p262
S'140'
p263
sS'name'
p264
S'\xe0\xa4\xb0\xe0\xa4\xb9\xe0\xa5\x87'
p265
sS'af'
p266
S'\xe0\xa4\xb0\xe0\xa4\xb9,v,m,sg,3h,,\xe0\xa4\xaf\xe0\xa4\xbe,yA'
p267
sS'chunkid'
p268
S'VGNF'
p269
sS'drel'
p270
S'nmod__k1inv:NP5'
p271
sS'chunktype'
p272
S'head:VGNF'
p273
ssbsg28
I00
sg29
I00
sg30
Nsg31
Nsg32
I4
sg33
I0
sg34
Nsg35
Nsg36
S'VM'
p274
sg38
g259
sg39
I00
sba(issf_api
Word
p275
(dp276
g6
I00
sg7
V\u0938\u094c\u0930\u0935
p277
sg9
(issf_api
FeatureSet
p278
(dp279
g12
(dp280
S'posn'
p281
S'150'
p282
sS'name'
p283
S'\xe0\xa4\xb8\xe0\xa5\x8c\xe0\xa4\xb0\xe0\xa4\xb5'
p284
sS'af'
p285
S'\xe0\xa4\xb8\xe0\xa5\x8c\xe0\xa4\xb0\xe0\xa4\xb5,n,m,sg,3,d,0,0'
p286
sS'drel'
p287
S'pof__cn:NP5'
p288
sS'chunktype'
p289
S'child:NP5'
p290
sS'cref'
p291
S'i1%0:t1'
p292
ssbsg28
I00
sg29
I00
sg30
Nsg31
Nsg32
I5
sg33
I0
sg34
Nsg35
Nsg36
S'NNPC'
p293
sg38
g278
sg39
I00
sba(issf_api
Word
p294
(dp295
g6
I00
sg7
V\u0917\u093e\u0902\u0917\u0941\u0932\u0940
p296
sg9
(issf_api
FeatureSet
p297
(dp298
g12
(dp299
S'crefhead'
p300
S'\xe0\xa4\x97\xe0\xa4\xbe\xe0\xa4\x82\xe0\xa4\x97\xe0\xa5\x81\xe0\xa4\xb2\xe0\xa5\x80:i1'
p301
sS'posn'
p302
S'160'
p303
sS'name'
p304
S'\xe0\xa4\x97\xe0\xa4\xbe\xe0\xa4\x82\xe0\xa4\x97\xe0\xa5\x81\xe0\xa4\xb2\xe0\xa5\x80'
p305
sS'af'
p306
S'\xe0\xa4\x97\xe0\xa4\xbe\xe0\xa4\x82\xe0\xa4\x97\xe0\xa5\x81\xe0\xa4\xb2\xe0\xa5\x80,n,m,sg,3,d,0,0'
p307
sS'chunkid'
p308
S'NP5'
p309
sS'chunktype'
p310
S'head:NP5'
p311
sS'crefchainhead'
p312
S'i1:t1'
p313
sS'cref'
p314
S'i1%1:t1'
p315
sS'drel'
p316
S'k1:VGF'
p317
ssbsg28
I00
sg29
I00
sg30
Nsg31
Nsg32
I5
sg33
I0
sg34
Nsg35
Nsg36
S'NNP'
p318
sg38
g297
sg39
I00
sba(issf_api
Word
p319
(dp320
g6
I00
sg7
V\u092a\u093e\u0915\u093f\u0938\u094d\u0924\u093e\u0928
p321
sg9
(issf_api
FeatureSet
p322
(dp323
g12
(dp324
S'posn'
p325
S'170'
p326
sS'name'
p327
S'\xe0\xa4\xaa\xe0\xa4\xbe\xe0\xa4\x95\xe0\xa4\xbf\xe0\xa4\xb8\xe0\xa5\x8d\xe0\xa4\xa4\xe0\xa4\xbe\xe0\xa4\xa8'
p328
sS'af'
p329
S'\xe0\xa4\xaa\xe0\xa4\xbe\xe0\xa4\x95\xe0\xa4\xbf\xe0\xa4\xb8\xe0\xa5\x8d\xe0\xa4\xa4\xe0\xa4\xbe\xe0\xa4\xa8,n,m,sg,3,o,0_\xe0\xa4\x95\xe0\xa5\x87_\xe0\xa4\x96\xe0\xa4\xbf\xe0\xa4\xb2\xe0\xa4\xbe\xe0\xa4\xab,0'
p330
sS'chunkid'
p331
S'NP6'
p332
sS'drel'
p333
S'vmod:VGNN'
p334
sS'chunktype'
p335
S'head:NP6'
p336
sS'vpos'
p337
S'vib_2_3'
p338
sS'cref'
p339
S'i2%0:t2'
p340
ssbsg28
I00
sg29
I00
sg30
Nsg31
Nsg32
I6
sg33
I0
sg34
Nsg35
Nsg36
S'NNP'
p341
sg38
g322
sg39
I00
sba(issf_api
Word
p342
(dp343
g6
I00
sg7
V\u0915\u0947
p344
sg9
(issf_api
FeatureSet
p345
(dp346
g12
(dp347
S'posn'
p348
S'180'
p349
sS'name'
p350
S'\xe0\xa4\x95\xe0\xa5\x874'
p351
sS'af'
p352
S'\xe0\xa4\x95\xe0\xa5\x87,psp,m,,,o,,'
p353
sS'drel'
p354
S'lwg__psp:NP6'
p355
sS'chunktype'
p356
S'child:NP6'
p357
sS'cref'
p358
S'i2%0:t2'
p359
ssbsg28
I00
sg29
I00
sg30
Nsg31
Nsg32
I6
sg33
I0
sg34
Nsg35
Nsg36
S'PSP'
p360
sg38
g345
sg39
I00
sba(issf_api
Word
p361
(dp362
g6
I00
sg7
V\u0916\u093f\u0932\u093e\u092b\u093c
p363
sg9
(issf_api
FeatureSet
p364
(dp365
g12
(dp366
S'posn'
p367
S'190'
p368
sS'name'
p369
S'\xe0\xa4\x96\xe0\xa4\xbf\xe0\xa4\xb2\xe0\xa4\xbe\xe0\xa4\xab\xe0\xa4\xbc'
p370
sS'af'
p371
S'\xe0\xa4\x96\xe0\xa4\xbf\xe0\xa4\xb2\xe0\xa4\xbe\xe0\xa4\xab,adj,,,,,,'
p372
sS'drel'
p373
S'lwg__psp:NP6'
p374
sS'chunktype'
p375
S'child:NP6'
p376
sS'cref'
p377
S'i2%0:t2'
p378
ssbsg28
I00
sg29
I00
sg30
Nsg31
Nsg32
I6
sg33
I0
sg34
Nsg35
Nsg36
S'PSP'
p379
sg38
g364
sg39
I00
sba(issf_api
Word
p380
(dp381
g6
I00
sg7
V\u0967\u0969
p382
sg9
(issf_api
FeatureSet
p383
(dp384
g12
(dp385
S'posn'
p386
S'200'
p387
sS'name'
p388
S'\xe0\xa5\xa7\xe0\xa5\xa9'
p389
sS'af'
p390
S'\xe0\xa5\xa7\xe0\xa5\xa9,n,any,sg,3,d,0,0'
p391
sS'drel'
p392
S'pof__cn:NP7'
p393
sS'chunktype'
p394
S'child:NP7'
p395
sS'cref'
p396
S'i2%0:t2'
p397
ssbsg28
I00
sg29
I00
sg30
Nsg31
Nsg32
I7
sg33
I0
sg34
Nsg35
Nsg36
S'NNPC'
p398
sg38
g383
sg39
I00
sba(issf_api
Word
p399
(dp400
g6
I00
sg7
V\u0928\u0935\u0902\u092c\u0930
p401
sg9
(issf_api
FeatureSet
p402
(dp403
g12
(dp404
S'posn'
p405
S'210'
p406
sS'name'
p407
S'\xe0\xa4\xa8\xe0\xa4\xb5\xe0\xa4\x82\xe0\xa4\xac\xe0\xa4\xb0'
p408
sS'af'
p409
S'\xe0\xa4\xa8\xe0\xa4\xb5\xe0\xa4\x82\xe0\xa4\xac\xe0\xa4\xb0,n,m,sg,3,o,0_\xe0\xa4\x95\xe0\xa5\x8b,0'
p410
sS'chunkid'
p411
S'NP7'
p412
sS'drel'
p413
S'k7t:VGNN'
p414
sS'chunktype'
p415
S'head:NP7'
p416
sS'vpos'
p417
S'vib_3'
p418
sS'cref'
p419
S'i2%0:t2'
p420
ssbsg28
I00
sg29
I00
sg30
Nsg31
Nsg32
I7
sg33
I0
sg34
Nsg35
Nsg36
S'NNP'
p421
sg38
g402
sg39
I00
sba(issf_api
Word
p422
(dp423
g6
I00
sg7
V\u0915\u094b
p424
sg9
(issf_api
FeatureSet
p425
(dp426
g12
(dp427
S'posn'
p428
S'220'
p429
sS'name'
p430
S'\xe0\xa4\x95\xe0\xa5\x8b'
p431
sS'af'
p432
S'\xe0\xa4\x95\xe0\xa5\x8b,psp,,,,,,'
p433
sS'drel'
p434
S'lwg__psp:NP7'
p435
sS'chunktype'
p436
S'child:NP7'
p437
sS'cref'
p438
S'i2%0:t2'
p439
ssbsg28
I00
sg29
I00
sg30
Nsg31
Nsg32
I7
sg33
I0
sg34
Nsg35
Nsg36
S'PSP'
p440
sg38
g425
sg39
I00
sba(issf_api
Word
p441
(dp442
g6
I00
sg7
V\u0915\u094b\u0932\u0915\u093e\u0924\u093e
p443
sg9
(issf_api
FeatureSet
p444
(dp445
g12
(dp446
S'posn'
p447
S'230'
p448
sS'name'
p449
S'\xe0\xa4\x95\xe0\xa5\x8b\xe0\xa4\xb2\xe0\xa4\x95\xe0\xa4\xbe\xe0\xa4\xa4\xe0\xa4\xbe'
p450
sS'af'
p451
S'\xe0\xa4\x95\xe0\xa5\x8b\xe0\xa4\xb2\xe0\xa4\x95\xe0\xa4\xbe\xe0\xa4\xa4\xe0\xa4\xbe,n,m,sg,3,o,0_\xe0\xa4\xae\xe0\xa5\x87\xe0\xa4\x82,0'
p452
sS'chunkid'
p453
S'NP8'
p454
sS'drel'
p455
S'k7p:VGNN'
p456
sS'chunktype'
p457
S'head:NP8'
p458
sS'vpos'
p459
S'vib_2'
p460
sS'cref'
p461
S'i2%0:t2'
p462
ssbsg28
I00
sg29
I00
sg30
Nsg31
Nsg32
I8
sg33
I0
sg34
Nsg35
Nsg36
S'NNP'
p463
sg38
g444
sg39
I00
sba(issf_api
Word
p464
(dp465
g6
I00
sg7
V\u092e\u0947\u0902
p466
sg9
(issf_api
FeatureSet
p467
(dp468
g12
(dp469
S'posn'
p470
S'240'
p471
sS'name'
p472
S'\xe0\xa4\xae\xe0\xa5\x87\xe0\xa4\x82'
p473
sS'af'
p474
S'\xe0\xa4\xae\xe0\xa5\x87\xe0\xa4\x82,psp,,,,,,'
p475
sS'drel'
p476
S'lwg__psp:NP8'
p477
sS'chunktype'
p478
S'child:NP8'
p479
sS'cref'
p480
S'i2%0:t2'
p481
ssbsg28
I00
sg29
I00
sg30
Nsg31
Nsg32
I8
sg33
I0
sg34
Nsg35
Nsg36
S'PSP'
p482
sg38
g467
sg39
I00
sba(issf_api
Word
p483
(dp484
g6
I00
sg7
V\u0939\u094b\u0928\u0947
p485
sg9
(issf_api
FeatureSet
p486
(dp487
g12
(dp488
S'posn'
p489
S'250'
p490
sS'name'
p491
S'\xe0\xa4\xb9\xe0\xa5\x8b\xe0\xa4\xa8\xe0\xa5\x87'
p492
sS'af'
p493
S'\xe0\xa4\xb9\xe0\xa5\x8b,v,any,sg,any,o,\xe0\xa4\xa8\xe0\xa4\xbe_\xe0\xa4\xb5\xe0\xa4\xbe\xe0\xa4\xb2\xe0\xa4\xbe,nA'
p494
sS'chunkid'
p495
S'VGNN'
p496
sS'drel'
p497
S'nmod:NP9'
p498
sS'chunktype'
p499
S'head:VGNN'
p500
sS'vpos'
p501
S'tam_2'
p502
sS'cref'
p503
S'i2%0:t2'
p504
ssbsg28
I00
sg29
I00
sg30
Nsg31
Nsg32
I9
sg33
I0
sg34
Nsg35
Nsg36
S'VM'
p505
sg38
g486
sg39
I00
sba(issf_api
Word
p506
(dp507
g6
I00
sg7
V\u0935\u093e\u0932\u0947
p508
sg9
(issf_api
FeatureSet
p509
(dp510
g12
(dp511
S'posn'
p512
S'260'
p513
sS'name'
p514
S'\xe0\xa4\xb5\xe0\xa4\xbe\xe0\xa4\xb2\xe0\xa5\x87'
p515
sS'af'
p516
S'\xe0\xa4\xb5\xe0\xa4\xbe\xe0\xa4\xb2\xe0\xa4\xbe,psp,m,sg,,o,,'
p517
sS'drel'
p518
S'lwg__psp:VGNN'
p519
sS'chunktype'
p520
S'child:VGNN'
p521
sS'cref'
p522
S'i2%0:t2'
p523
ssbsg28
I00
sg29
I00
sg30
Nsg31
Nsg32
I9
sg33
I0
sg34
Nsg35
Nsg36
S'PSP'
p524
sg38
g509
sg39
I00
sba(issf_api
Word
p525
(dp526
g6
I00
sg7
V\u0921\u0947
p527
sg9
(issf_api
FeatureSet
p528
(dp529
g12
(dp530
S'posn'
p531
S'270'
p532
sS'name'
p533
S'\xe0\xa4\xa1\xe0\xa5\x87'
p534
sS'af'
p535
S'\xe0\xa4\xa1\xe0\xa5\x87,n,m,sg,3,d,0,0'
p536
sS'drel'
p537
S'pof__cn:NP9'
p538
sS'chunktype'
p539
S'child:NP9'
p540
sS'cref'
p541
S'i2%0:t2'
p542
ssbsg28
I00
sg29
I00
sg30
Nsg31
Nsg32
I10
sg33
I0
sg34
Nsg35
Nsg36
S'NNC'
p543
sg38
g528
sg39
I00
sba(issf_api
Word
p544
(dp545
g6
I00
sg7
V-
p546
sg9
(issf_api
FeatureSet
p547
(dp548
g12
(dp549
S'posn'
p550
S'280'
p551
sS'name'
p552
S'-'
p553
sS'af'
p554
S'-,punc,,,,,,'
p555
sS'drel'
p556
S'pof__cn:NP9'
p557
sS'chunktype'
p558
S'child:NP9'
p559
sS'cref'
p560
S'i2%0:t2'
p561
ssbsg28
I00
sg29
I00
sg30
Nsg31
Nsg32
I10
sg33
I0
sg34
Nsg35
Nsg36
S'SYM'
p562
sg38
g547
sg39
I00
sba(issf_api
Word
p563
(dp564
g6
I00
sg7
V\u0928\u093e\u0907\u091f
p565
sg9
(issf_api
FeatureSet
p566
(dp567
g12
(dp568
S'posn'
p569
S'290'
p570
sS'name'
p571
S'\xe0\xa4\xa8\xe0\xa4\xbe\xe0\xa4\x87\xe0\xa4\x9f'
p572
sS'af'
p573
S'\xe0\xa4\xa8\xe0\xa4\xbe\xe0\xa4\x87\xe0\xa4\x9f,n,f,sg,3,d,0,0'
p574
sS'drel'
p575
S'pof__cn:NP9'
p576
sS'chunktype'
p577
S'child:NP9'
p578
sS'cref'
p579
S'i2%0:t2'
p580
ssbsg28
I00
sg29
I00
sg30
Nsg31
Nsg32
I10
sg33
I0
sg34
Nsg35
Nsg36
S'NNC'
p581
sg38
g566
sg39
I00
sba(issf_api
Word
p582
(dp583
g6
I00
sg7
V\u092e\u0948\u091a
p584
sg9
(issf_api
FeatureSet
p585
(dp586
g12
(dp587
S'crefhead'
p588
S'\xe0\xa4\xae\xe0\xa5\x88\xe0\xa4\x9a:i2'
p589
sS'posn'
p590
S'300'
p591
sS'name'
p592
S'\xe0\xa4\xae\xe0\xa5\x88\xe0\xa4\x9a'
p593
sS'af'
p594
S'\xe0\xa4\xae\xe0\xa5\x88\xe0\xa4\x9a,n,m,sg,3,o,0_\xe0\xa4\x95\xe0\xa4\xbe,0'
p595
sS'chunkid'
p596
S'NP9'
p597
sS'chunktype'
p598
S'head:NP9'
p599
sS'crefchainhead'
p600
S'i2:t2'
p601
sS'vpos'
p602
S'vib_5'
p603
sS'cref'
p604
S'i2%1:t2'
p605
sS'drel'
p606
S'r6-k2:NP10'
p607
ssbsg28
I00
sg29
I00
sg30
Nsg31
Nsg32
I10
sg33
I0
sg34
Nsg35
Nsg36
S'NN'
p608
sg38
g585
sg39
I00
sba(issf_api
Word
p609
(dp610
g6
I00
sg7
V\u0915\u0940
p611
sg9
(issf_api
FeatureSet
p612
(dp613
g12
(dp614
S'posn'
p615
S'310'
p616
sS'name'
p617
S'\xe0\xa4\x95\xe0\xa5\x80'
p618
sS'drel'
p619
S'lwg__psp:NP9'
p620
sS'chunktype'
p621
S'child:NP9'
p622
sS'af'
p623
S'\xe0\xa4\x95\xe0\xa4\xbe,psp,f,sg,,d,,'
p624
ssbsg28
I00
sg29
I00
sg30
Nsg31
Nsg32
I10
sg33
I0
sg34
Nsg35
Nsg36
S'PSP'
p625
sg38
g612
sg39
I00
sba(issf_api
Word
p626
(dp627
g6
I00
sg7
V\u0915\u092a\u094d\u0924\u093e\u0928\u0940
p628
sg9
(issf_api
FeatureSet
p629
(dp630
g12
(dp631
S'posn'
p632
S'320'
p633
sS'name'
p634
S'\xe0\xa4\x95\xe0\xa4\xaa\xe0\xa5\x8d\xe0\xa4\xa4\xe0\xa4\xbe\xe0\xa4\xa8\xe0\xa5\x80'
p635
sS'af'
p636
S'\xe0\xa4\x95\xe0\xa4\xaa\xe0\xa5\x8d\xe0\xa4\xa4\xe0\xa4\xbe\xe0\xa4\xa8\xe0\xa5\x80,n,f,sg,3,d,0,0'
p637
sS'chunkid'
p638
S'NP10'
p639
sS'drel'
p640
S'pof:VGF'
p641
sS'chunktype'
p642
S'head:NP10'
p643
ssbsg28
I00
sg29
I00
sg30
Nsg31
Nsg32
I11
sg33
I0
sg34
Nsg35
Nsg36
S'NN'
p644
sg38
g629
sg39
I00
sba(issf_api
Word
p645
(dp646
g6
I00
sg7
V\u0915\u0930\u0947\u0902\u0917\u0947
p647
sg9
(issf_api
FeatureSet
p648
(dp649
g12
(dp650
S'posn'
p651
S'330'
p652
sS'name'
p653
S'\xe0\xa4\x95\xe0\xa4\xb0\xe0\xa5\x87\xe0\xa4\x82\xe0\xa4\x97\xe0\xa5\x87'
p654
sS'af'
p655
S'\xe0\xa4\x95\xe0\xa4\xb0,v,m,sg,3h,,\xe0\xa4\x97\xe0\xa4\xbe,gA'
p656
sS'chunkid'
p657
S'VGF'
p658
sS'chunktype'
p659
S'head:VGF'
p660
sS'voicetype'
p661
S'active'
p662
sS'stype'
p663
S'declarative'
p664
ssbsg28
I00
sg29
I00
sg30
Nsg31
Nsg32
I12
sg33
I0
sg34
Nsg35
Nsg36
S'VM'
p665
sg38
g648
sg39
I00
sba(issf_api
Word
p666
(dp667
g6
I00
sg7
V\u0964
p668
sg9
(issf_api
FeatureSet
p669
(dp670
g12
(dp671
S'posn'
p672
S'340'
p673
sS'name'
p674
S'\xe0\xa5\xa4'
p675
sS'af'
p676
S'\xe0\xa5\xa4,punc,,,,,,'
p677
sS'chunkid'
p678
S'BLK'
p679
sS'drel'
p680
S'rsym:VGF'
p681
sS'chunktype'
p682
S'head:BLK'
p683
ssbsg28
I00
sg29
I00
sg30
Nsg31
Nsg32
I13
sg33
I0
sg34
Nsg35
Nsg36
S'SYM'
p684
sg38
g669
sg39
I00
sba(issf_api
Word
p685
(dp686
g6
I00
sg7
V\u0939\u093e\u0932\u093e\u0901\u0915\u093f
p687
sg9
(issf_api
FeatureSet
p688
(dp689
g12
(dp690
S'posn'
p691
S'10'
p692
sS'chunkid'
p693
S'CCP'
p694
sS'name'
p695
S'\xe0\xa4\xb9\xe0\xa4\xbe\xe0\xa4\xb2\xe0\xa4\xbe\xe0\xa4\x81\xe0\xa4\x95\xe0\xa4\xbf'
p696
sS'chunktype'
p697
S'head:CCP'
p698
sS'af'
p699
S'\xe0\xa4\xb9\xe0\xa4\xbe\xe0\xa4\xb2\xe0\xa4\xbe\xe0\xa4\x81\xe0\xa4\x95\xe0\xa4\xbf,avy,,,,,,'
p700
ssbsg28
I00
sg29
I00
sg30
Nsg31
Nsg32
I0
sg33
I1
sg34
Nsg35
Nsg36
S'CC'
p701
sg38
g688
sg39
I00
sba(issf_api
Word
p702
(dp703
g6
I00
sg7
V\u0909\u0928\u094d\u0939\u0947\u0902
p704
sg9
(issf_api
FeatureSet
p705
(dp706
g12
(dp707
S'crefhead'
p708
S'\xe0\xa4\x89\xe0\xa4\xa8\xe0\xa5\x8d\xe0\xa4\xb9\xe0\xa5\x87\xe0\xa4\x82:i3'
p709
sS'posn'
p710
S'20'
p711
sS'name'
p712
S'\xe0\xa4\x89\xe0\xa4\xa8\xe0\xa5\x8d\xe0\xa4\xb9\xe0\xa5\x87\xe0\xa4\x82'
p713
sS'af'
p714
S'\xe0\xa4\xb5\xe0\xa4\xb9,pn,any,sg,3h,o,\xe0\xa4\x95\xe0\xa5\x8b,ko'
p715
sS'chunkid'
p716
S'NP'
p717
sS'creftype'
p718
S'Anaphora-C:i1'
p719
sS'chunktype'
p720
S'head:NP'
p721
sS'cref'
p722
S'i3%1:t1'
p723
sS'drel'
p724
S'k1:VGF'
p725
ssbsg28
I00
sg29
I00
sg30
Nsg31
Nsg32
I1
sg33
I1
sg34
Nsg35
Nsg36
S'PRP'
p726
sg38
g705
sg39
I00
sba(issf_api
Word
p727
(dp728
g6
I00
sg7
V\u092b\u093f\u091f\u0928\u0947\u0938
p729
sg9
(issf_api
FeatureSet
p730
(dp731
g12
(dp732
S'posn'
p733
S'30'
p734
sS'name'
p735
S'\xe0\xa4\xab\xe0\xa4\xbf\xe0\xa4\x9f\xe0\xa4\xa8\xe0\xa5\x87\xe0\xa4\xb8'
p736
sS'drel'
p737
S'pof__cn:NP2'
p738
sS'chunktype'
p739
S'child:NP2'
p740
sS'af'
p741
S'\xe0\xa4\xab\xe0\xa4\xbf\xe0\xa4\x9f\xe0\xa4\xa8\xe0\xa5\x87\xe0\xa4\xb8,n,m,sg,3,d,0,0'
p742
ssbsg28
I00
sg29
I00
sg30
Nsg31
Nsg32
I2
sg33
I1
sg34
Nsg35
Nsg36
S'NNC'
p743
sg38
g730
sg39
I00
sba(issf_api
Word
p744
(dp745
g6
I00
sg7
V\u091f\u0947\u0938\u094d\u091f
p746
sg9
(issf_api
FeatureSet
p747
(dp748
g12
(dp749
S'posn'
p750
S'40'
p751
sS'name'
p752
S'\xe0\xa4\x9f\xe0\xa5\x87\xe0\xa4\xb8\xe0\xa5\x8d\xe0\xa4\x9f'
p753
sS'af'
p754
S'\xe0\xa4\x9f\xe0\xa5\x87\xe0\xa4\xb8\xe0\xa5\x8d\xe0\xa4\x9f,n,m,sg,3,d,0,0'
p755
sS'chunkid'
p756
S'NP2'
p757
sS'drel'
p758
S'k2:VGF'
p759
sS'chunktype'
p760
S'head:NP2'
p761
ssbsg28
I00
sg29
I00
sg30
Nsg31
Nsg32
I2
sg33
I1
sg34
Nsg35
Nsg36
S'NN'
p762
sg38
g747
sg39
I00
sba(issf_api
Word
p763
(dp764
g6
I00
sg7
V\u092a\u093e\u0938
p765
sg9
(issf_api
FeatureSet
p766
(dp767
g12
(dp768
S'posn'
p769
S'50'
p770
sS'name'
p771
S'\xe0\xa4\xaa\xe0\xa4\xbe\xe0\xa4\xb8'
p772
sS'af'
p773
S'\xe0\xa4\xaa\xe0\xa4\xbe\xe0\xa4\xb8,unk,,,,,,'
p774
sS'chunkid'
p775
S'BLK'
p776
sS'drel'
p777
S'pof:VGF'
p778
sS'chunktype'
p779
S'head:BLK'
p780
ssbsg28
I00
sg29
I00
sg30
Nsg31
Nsg32
I3
sg33
I1
sg34
Nsg35
Nsg36
S'UNK'
p781
sg38
g766
sg39
I00
sba(issf_api
Word
p782
(dp783
g6
I00
sg7
V\u0915\u0930\u0928\u093e
p784
sg9
(issf_api
FeatureSet
p785
(dp786
g12
(dp787
S'posn'
p788
S'60'
p789
sS'name'
p790
S'\xe0\xa4\x95\xe0\xa4\xb0\xe0\xa4\xa8\xe0\xa4\xbe'
p791
sS'af'
p792
S'\xe0\xa4\x95\xe0\xa4\xb0,v,m,sg,3,,\xe0\xa4\xa8\xe0\xa4\xbe_\xe0\xa4\xb9\xe0\xa5\x8b+\xe0\xa4\x97\xe0\xa4\xbe,nA'
p793
sS'chunkid'
p794
S'VGF'
p795
sS'stype'
p796
S'declarative'
p797
sS'drel'
p798
S'ccof:CCP'
p799
sS'voicetype'
p800
S'active'
p801
sS'vpos'
p802
S'tam_2'
p803
sS'chunktype'
p804
S'head:VGF'
p805
ssbsg28
I00
sg29
I00
sg30
Nsg31
Nsg32
I4
sg33
I1
sg34
Nsg35
Nsg36
S'VM'
p806
sg38
g785
sg39
I00
sba(issf_api
Word
p807
(dp808
g6
I00
sg7
V\u0939\u094b\u0917\u093e
p809
sg9
(issf_api
FeatureSet
p810
(dp811
g12
(dp812
S'posn'
p813
S'70'
p814
sS'name'
p815
S'\xe0\xa4\xb9\xe0\xa5\x8b\xe0\xa4\x97\xe0\xa4\xbe'
p816
sS'drel'
p817
S'lwg__vaux:VGF'
p818
sS'chunktype'
p819
S'child:VGF'
p820
sS'af'
p821
S'\xe0\xa4\xb9\xe0\xa5\x8b,v,m,sg,3,,\xe0\xa4\x97\xe0\xa4\xbe,gA'
p822
ssbsg28
I00
sg29
I00
sg30
Nsg31
Nsg32
I4
sg33
I1
sg34
Nsg35
Nsg36
S'VAUX'
p823
sg38
g810
sg39
I00
sba(issf_api
Word
p824
(dp825
g6
I00
sg7
V\u0964
p826
sg9
(issf_api
FeatureSet
p827
(dp828
g12
(dp829
S'posn'
p830
S'80'
p831
sS'name'
p832
S'\xe0\xa5\xa4'
p833
sS'af'
p834
S'\xe0\xa5\xa4,punc,,,,,,'
p835
sS'chunkid'
p836
S'BLK2'
p837
sS'drel'
p838
S'rsym:CCP'
p839
sS'chunktype'
p840
S'head:BLK2'
p841
ssbsg28
I00
sg29
I00
sg30
Nsg31
Nsg32
I5
sg33
I1
sg34
Nsg35
Nsg36
S'SYM'
p842
sg38
g827
sg39
I00
sba(issf_api
Word
p843
(dp844
g6
I00
sg7
V\u091f\u0940\u092e
p845
sg9
(issf_api
FeatureSet
p846
(dp847
g12
(dp848
S'crefhead'
p849
S'\xe0\xa4\x9f\xe0\xa5\x80\xe0\xa4\xae:i4'
p850
sS'posn'
p851
S'10'
p852
sS'name'
p853
S'\xe0\xa4\x9f\xe0\xa5\x80\xe0\xa4\xae'
p854
sS'af'
p855
S'\xe0\xa4\x9f\xe0\xa5\x80\xe0\xa4\xae,n,f,sg,3,o,0_\xe0\xa4\xae\xe0\xa5\x87\xe0\xa4\x82,0'
p856
sS'chunkid'
p857
S'NP'
p858
sS'drel'
p859
S'k7:VGF'
p860
sS'chunktype'
p861
S'head:NP'
p862
sS'vpos'
p863
S'vib_2'
p864
sS'cref'
p865
S'i4%1:t3'
p866
ssbsg28
I00
sg29
I00
sg30
Nsg31
Nsg32
I0
sg33
I2
sg34
Nsg35
Nsg36
S'NN'
p867
sg38
g846
sg39
I00
sba(issf_api
Word
p868
(dp869
g6
I00
sg7
V\u092e\u0947\u0902
p870
sg9
(issf_api
FeatureSet
p871
(dp872
g12
(dp873
S'posn'
p874
S'20'
p875
sS'name'
p876
S'\xe0\xa4\xae\xe0\xa5\x87\xe0\xa4\x82'
p877
sS'drel'
p878
S'lwg__psp:NP'
p879
sS'chunktype'
p880
S'child:NP'
p881
sS'af'
p882
S'\xe0\xa4\xae\xe0\xa5\x87\xe0\xa4\x82,psp,,,,,,'
p883
ssbsg28
I00
sg29
I00
sg30
Nsg31
Nsg32
I0
sg33
I2
sg34
Nsg35
Nsg36
S'PSP'
p884
sg38
g871
sg39
I00
sba(issf_api
Word
p885
(dp886
g6
I00
sg7
V\u0924\u092e\u093f\u0932\u0928\u093e\u0921\u0941
p887
sg9
(issf_api
FeatureSet
p888
(dp889
g12
(dp890
S'posn'
p891
S'30'
p892
sS'name'
p893
S'\xe0\xa4\xa4\xe0\xa4\xae\xe0\xa4\xbf\xe0\xa4\xb2\xe0\xa4\xa8\xe0\xa4\xbe\xe0\xa4\xa1\xe0\xa5\x81'
p894
sS'af'
p895
S'\xe0\xa4\xa4\xe0\xa4\xae\xe0\xa4\xbf\xe0\xa4\xb2\xe0\xa4\xa8\xe0\xa4\xbe\xe0\xa4\xa1\xe0\xa5\x81,n,m,sg,3,o,0_\xe0\xa4\x95\xe0\xa4\xbe,0'
p896
sS'acrefmodhead'
p897
S'\xe0\xa4\xa4\xe0\xa4\xae\xe0\xa4\xbf\xe0\xa4\xb2\xe0\xa4\xa8\xe0\xa4\xbe\xe0\xa4\xa1\xe0\xa5\x81:m1'
p898
sS'chunkid'
p899
S'NP2'
p900
sS'acrefmod'
p901
S'm1%1:i5'
p902
sS'drel'
p903
S'r6:NP3'
p904
sS'vpos'
p905
S'vib_2'
p906
sS'chunktype'
p907
S'head:NP2'
p908
ssbsg28
I00
sg29
I00
sg30
Nsg31
Nsg32
I1
sg33
I2
sg34
Nsg35
Nsg36
S'NNP'
p909
sg38
g888
sg39
I00
sba(issf_api
Word
p910
(dp911
g6
I00
sg7
V\u0915\u0947
p912
sg9
(issf_api
FeatureSet
p913
(dp914
g12
(dp915
S'posn'
p916
S'40'
p917
sS'name'
p918
S'\xe0\xa4\x95\xe0\xa5\x87'
p919
sS'drel'
p920
S'lwg__psp:NP2'
p921
sS'chunktype'
p922
S'child:NP2'
p923
sS'af'
p924
S'\xe0\xa4\x95\xe0\xa4\xbe,psp,m,sg,,o,,'
p925
ssbsg28
I00
sg29
I00
sg30
Nsg31
Nsg32
I1
sg33
I2
sg34
Nsg35
Nsg36
S'PSP'
p926
sg38
g913
sg39
I00
sba(issf_api
Word
p927
(dp928
g6
I00
sg7
V\u090f\u0938.
p929
sg9
(issf_api
FeatureSet
p930
(dp931
g12
(dp932
S'posn'
p933
S'50'
p934
sS'name'
p935
S'\xe0\xa4\x8f\xe0\xa4\xb8.'
p936
sS'af'
p937
S'\xe0\xa4\x8f\xe0\xa4\xb8.,n,m,sg,3,d,0,0'
p938
sS'drel'
p939
S'pof__cn:NP3'
p940
sS'chunktype'
p941
S'child:NP3'
p942
sS'cref'
p943
S'i5%0:t4'
p944
ssbsg28
I00
sg29
I00
sg30
Nsg31
Nsg32
I2
sg33
I2
sg34
Nsg35
Nsg36
S'NNPC'
p945
sg38
g930
sg39
I00
sba(issf_api
Word
p946
(dp947
g6
I00
sg7
V\u0936\u094d\u0930\u0940\u0930\u093e\u092e
p948
sg9
(issf_api
FeatureSet
p949
(dp950
g12
(dp951
S'crefhead'
p952
S'\xe0\xa4\xb6\xe0\xa5\x8d\xe0\xa4\xb0\xe0\xa5\x80\xe0\xa4\xb0\xe0\xa4\xbe\xe0\xa4\xae:i5'
p953
sS'posn'
p954
S'60'
p955
sS'name'
p956
S'\xe0\xa4\xb6\xe0\xa5\x8d\xe0\xa4\xb0\xe0\xa5\x80\xe0\xa4\xb0\xe0\xa4\xbe\xe0\xa4\xae'
p957
sS'af'
p958
S'\xe0\xa4\xb6\xe0\xa5\x8d\xe0\xa4\xb0\xe0\xa5\x80\xe0\xa4\xb0\xe0\xa4\xbe\xe0\xa4\xae,n,m,sg,3,o,0,0'
p959
sS'chunkid'
p960
S'NP3'
p961
sS'crefmod'
p962
S'm1:i5'
p963
sS'chunktype'
p964
S'head:NP3'
p965
sS'cref'
p966
S'i5%1:t4'
p967
sS'drel'
p968
S'ccof:NULL__CCP'
p969
ssbsg28
I00
sg29
I00
sg30
Nsg31
Nsg32
I2
sg33
I2
sg34
Nsg35
Nsg36
S'NNP'
p970
sg38
g949
sg39
I00
sba(issf_api
Word
p971
(dp972
g6
I00
sg7
V,
p973
sg9
(issf_api
FeatureSet
p974
(dp975
g12
(dp976
S'posn'
p977
S'70'
p978
sS'name'
p979
S','
p980
sS'drel'
p981
S'rsym:NP3'
p982
sS'chunktype'
p983
S'child:NP3'
p984
sS'af'
p985
S'COMMA,punc,,,,,,'
p986
ssbsg28
I00
sg29
I00
sg30
Nsg31
Nsg32
I2
sg33
I2
sg34
Nsg35
Nsg36
S'SYM'
p987
sg38
g974
sg39
I00
sba(issf_api
Word
p988
(dp989
g6
I00
sg7
V\u0935\u093f\u0915\u0947\u091f
p990
sg9
(issf_api
FeatureSet
p991
(dp992
g12
(dp993
S'posn'
p994
S'80'
p995
sS'name'
p996
S'\xe0\xa4\xb5\xe0\xa4\xbf\xe0\xa4\x95\xe0\xa5\x87\xe0\xa4\x9f'
p997
sS'af'
p998
S'\xe0\xa4\xb5\xe0\xa4\xbf\xe0\xa4\x95\xe0\xa5\x87\xe0\xa4\x9f,n,m,sg,3,d,0,0'
p999
sS'drel'
p1000
S'pof__cn:NP4'
p1001
sS'chunktype'
p1002
S'child:NP4'
p1003
sS'cref'
p1004
S'i6%0:t5'
p1005
ssbsg28
I00
sg29
I00
sg30
Nsg31
Nsg32
I3
sg33
I2
sg34
Nsg35
Nsg36
S'NNC'
p1006
sg38
g991
sg39
I00
sba(issf_api
Word
p1007
(dp1008
g6
I00
sg7
V\u0915\u0940\u092a\u0930
p1009
sg9
(issf_api
FeatureSet
p1010
(dp1011
g12
(dp1012
S'crefhead'
p1013
S'\xe0\xa4\x95\xe0\xa5\x80\xe0\xa4\xaa\xe0\xa4\xb0:i6'
p1014
sS'posn'
p1015
S'90'
p1016
sS'name'
p1017
S'\xe0\xa4\x95\xe0\xa5\x80\xe0\xa4\xaa\xe0\xa4\xb0'
p1018
sS'af'
p1019
S'\xe0\xa4\x95\xe0\xa5\x80\xe0\xa4\xaa\xe0\xa4\xb0,n,m,sg,3,o,0,0'
p1020
sS'chunkid'
p1021
S'NP4'
p1022
sS'drel'
p1023
S'nmod:NP5'
p1024
sS'chunktype'
p1025
S'head:NP4'
p1026
sS'cref'
p1027
S'i6%1:t5'
p1028
ssbsg28
I00
sg29
I00
sg30
Nsg31
Nsg32
I3
sg33
I2
sg34
Nsg35
Nsg36
S'NN'
p1029
sg38
g1010
sg39
I00
sba(issf_api
Word
p1030
(dp1031
g6
I00
sg7
V\u0926\u093f\u0928\u0947\u0936
p1032
sg9
(issf_api
FeatureSet
p1033
(dp1034
g12
(dp1035
S'posn'
p1036
S'100'
p1037
sS'name'
p1038
S'\xe0\xa4\xa6\xe0\xa4\xbf\xe0\xa4\xa8\xe0\xa5\x87\xe0\xa4\xb6'
p1039
sS'af'
p1040
S'\xe0\xa4\xa6\xe0\xa4\xbf\xe0\xa4\xa8\xe0\xa5\x87\xe0\xa4\xb6,n,m,sg,3,d,0,0'
p1041
sS'drel'
p1042
S'pof__cn:NP5'
p1043
sS'chunktype'
p1044
S'child:NP5'
p1045
sS'cref'
p1046
S'i7%0:t5'
p1047
ssbsg28
I00
sg29
I00
sg30
Nsg31
Nsg32
I4
sg33
I2
sg34
Nsg35
Nsg36
S'NNPC'
p1048
sg38
g1033
sg39
I00
sba(issf_api
Word
p1049
(dp1050
g6
I00
sg7
V\u0915\u093e\u0930\u094d\u0924\u093f\u0915
p1051
sg9
(issf_api
FeatureSet
p1052
(dp1053
g12
(dp1054
S'crefhead'
p1055
S'\xe0\xa4\x95\xe0\xa4\xbe\xe0\xa4\xb0\xe0\xa5\x8d\xe0\xa4\xa4\xe0\xa4\xbf\xe0\xa4\x95:i7'
p1056
sS'posn'
p1057
S'110'
p1058
sS'name'
p1059
S'\xe0\xa4\x95\xe0\xa4\xbe\xe0\xa4\xb0\xe0\xa5\x8d\xe0\xa4\xa4\xe0\xa4\xbf\xe0\xa4\x95'
p1060
sS'af'
p1061
S'\xe0\xa4\x95\xe0\xa4\xbe\xe0\xa4\xb0\xe0\xa5\x8d\xe0\xa4\xa4\xe0\xa4\xbf\xe0\xa4\x95,n,m,sg,3,o,0_\xe0\xa4\x95\xe0\xa5\x8b,0'
p1062
sS'chunkid'
p1063
S'NP5'
p1064
sS'creftype'
p1065
S'Coreference-NounComplement:i6'
p1066
sS'chunktype'
p1067
S'head:NP5'
p1068
sS'crefchainhead'
p1069
S'i7:t5'
p1070
sS'vpos'
p1071
S'vib_3_RP'
p1072
sS'cref'
p1073
S'i7%1:t5'
p1074
sS'drel'
p1075
S'ccof:NULL__CCP'
p1076
ssbsg28
I00
sg29
I00
sg30
Nsg31
Nsg32
I4
sg33
I2
sg34
Nsg35
Nsg36
S'NNP'
p1077
sg38
g1052
sg39
I00
sba(issf_api
Word
p1078
(dp1079
g6
I00
sg7
V\u0915\u094b
p1080
sg9
(issf_api
FeatureSet
p1081
(dp1082
g12
(dp1083
S'posn'
p1084
S'120'
p1085
sS'name'
p1086
S'\xe0\xa4\x95\xe0\xa5\x8b'
p1087
sS'drel'
p1088
S'lwg__psp:NP5'
p1089
sS'chunktype'
p1090
S'child:NP5'
p1091
sS'af'
p1092
S'\xe0\xa4\x95\xe0\xa5\x8b,psp,,,,,,'
p1093
ssbsg28
I00
sg29
I00
sg30
Nsg31
Nsg32
I4
sg33
I2
sg34
Nsg35
Nsg36
S'PSP'
p1094
sg38
g1081
sg39
I00
sba(issf_api
Word
p1095
(dp1096
g6
I00
sg7
V\u092d\u0940
p1097
sg9
(issf_api
FeatureSet
p1098
(dp1099
g12
(dp1100
S'posn'
p1101
S'130'
p1102
sS'name'
p1103
S'\xe0\xa4\xad\xe0\xa5\x80'
p1104
sS'drel'
p1105
S'lwg__rp:NP5'
p1106
sS'chunktype'
p1107
S'child:NP5'
p1108
sS'af'
p1109
S'\xe0\xa4\xad\xe0\xa5\x80,avy,,,,,,'
p1110
ssbsg28
I00
sg29
I00
sg30
Nsg31
Nsg32
I4
sg33
I2
sg34
Nsg35
Nsg36
S'RP'
p1111
sg38
g1098
sg39
I00
sba(issf_api
Word
p1112
(dp1113
g6
I00
sg7
V\u0930\u0916\u093e
p1114
sg9
(issf_api
FeatureSet
p1115
(dp1116
g12
(dp1117
S'posn'
p1118
S'140'
p1119
sS'name'
p1120
S'\xe0\xa4\xb0\xe0\xa4\x96\xe0\xa4\xbe'
p1121
sS'af'
p1122
S'\xe0\xa4\xb0\xe0\xa4\x96,v,m,sg,3,,\xe0\xa4\xaf\xe0\xa4\xbe_\xe0\xa4\x9c\xe0\xa4\xbe+\xe0\xa4\xaf\xe0\xa4\xbe\xe0\xa5\xa7_\xe0\xa4\xb9\xe0\xa5\x88,yA'
p1123
sS'chunkid'
p1124
S'VGF'
p1125
sS'chunktype'
p1126
S'head:VGF'
p1127
sS'voicetype'
p1128
S'active'
p1129
sS'vpos'
p1130
S'tam_2_3'
p1131
sS'stype'
p1132
S'declarative'
p1133
ssbsg28
I00
sg29
I00
sg30
Nsg31
Nsg32
I5
sg33
I2
sg34
Nsg35
Nsg36
S'VM'
p1134
sg38
g1115
sg39
I00
sba(issf_api
Word
p1135
(dp1136
g6
I00
sg7
V\u0917\u092f\u093e
p1137
sg9
(issf_api
FeatureSet
p1138
(dp1139
g12
(dp1140
S'posn'
p1141
S'150'
p1142
sS'name'
p1143
S'\xe0\xa4\x97\xe0\xa4\xaf\xe0\xa4\xbe'
p1144
sS'drel'
p1145
S'lwg__vaux:VGF'
p1146
sS'chunktype'
p1147
S'child:VGF'
p1148
sS'af'
p1149
S'\xe0\xa4\x9c\xe0\xa4\xbe,v,m,sg,any,,\xe0\xa4\xaf\xe0\xa4\xbe\xe0\xa5\xa7,yA1'
p1150
ssbsg28
I00
sg29
I00
sg30
Nsg31
Nsg32
I5
sg33
I2
sg34
Nsg35
Nsg36
S'VAUX'
p1151
sg38
g1138
sg39
I00
sba(issf_api
Word
p1152
(dp1153
g6
I00
sg7
V\u0939\u0948
p1154
sg9
(issf_api
FeatureSet
p1155
(dp1156
g12
(dp1157
S'posn'
p1158
S'160'
p1159
sS'name'
p1160
S'\xe0\xa4\xb9\xe0\xa5\x88'
p1161
sS'drel'
p1162
S'lwg__vaux:VGF'
p1163
sS'chunktype'
p1164
S'child:VGF'
p1165
sS'af'
p1166
S'\xe0\xa4\xb9\xe0\xa5\x88,v,any,sg,3,,\xe0\xa4\xb9\xe0\xa5\x88,hE'
p1167
ssbsg28
I00
sg29
I00
sg30
Nsg31
Nsg32
I5
sg33
I2
sg34
Nsg35
Nsg36
S'VAUX'
p1168
sg38
g1155
sg39
I00
sba(issf_api
Word
p1169
(dp1170
g6
I00
sg7
V\u0964
p1171
sg9
(issf_api
FeatureSet
p1172
(dp1173
g12
(dp1174
S'posn'
p1175
S'170'
p1176
sS'name'
p1177
S'\xe0\xa5\xa4'
p1178
sS'af'
p1179
S'\xe0\xa5\xa4,punc,,,,,,'
p1180
sS'chunkid'
p1181
S'BLK'
p1182
sS'drel'
p1183
S'rsym:VGF'
p1184
sS'chunktype'
p1185
S'head:BLK'
p1186
ssbsg28
I00
sg29
I00
sg30
Nsg31
Nsg32
I6
sg33
I2
sg34
Nsg35
Nsg36
S'SYM'
p1187
sg38
g1172
sg39
I00
sba(issf_api
Word
p1188
(dp1189
g6
I00
sg7
V\u0916\u0930\u093e\u092c
p1190
sg9
(issf_api
FeatureSet
p1191
(dp1192
g12
(dp1193
S'posn'
p1194
S'10'
p1195
sS'name'
p1196
S'\xe0\xa4\x96\xe0\xa4\xb0\xe0\xa4\xbe\xe0\xa4\xac'
p1197
sS'drel'
p1198
S'nmod__adj:NP'
p1199
sS'chunktype'
p1200
S'child:NP'
p1201
sS'af'
p1202
S'\xe0\xa4\x96\xe0\xa4\xb0\xe0\xa4\xbe\xe0\xa4\xac,adj,any,any,,o,,'
p1203
ssbsg28
I00
sg29
I00
sg30
Nsg31
Nsg32
I0
sg33
I3
sg34
Nsg35
Nsg36
S'JJ'
p1204
sg38
g1191
sg39
I00
sba(issf_api
Word
p1205
(dp1206
g6
I00
sg7
V\u092a\u094d\u0930\u0926\u0930\u094d\u0936\u0928
p1207
sg9
(issf_api
FeatureSet
p1208
(dp1209
g12
(dp1210
S'posn'
p1211
S'20'
p1212
sS'name'
p1213
S'\xe0\xa4\xaa\xe0\xa5\x8d\xe0\xa4\xb0\xe0\xa4\xa6\xe0\xa4\xb0\xe0\xa5\x8d\xe0\xa4\xb6\xe0\xa4\xa8'
p1214
sS'af'
p1215
S'\xe0\xa4\xaa\xe0\xa5\x8d\xe0\xa4\xb0\xe0\xa4\xa6\xe0\xa4\xb0\xe0\xa5\x8d\xe0\xa4\xb6\xe0\xa4\xa8,n,m,sg,3,o,0_\xe0\xa4\x95\xe0\xa5\x87_\xe0\xa4\x95\xe0\xa4\xbe\xe0\xa4\xb0\xe0\xa4\xa3,0'
p1216
sS'chunkid'
p1217
S'NP'
p1218
sS'drel'
p1219
S'rh:VGNF'
p1220
sS'vpos'
p1221
S'vib_3_4'
p1222
sS'chunktype'
p1223
S'head:NP'
p1224
ssbsg28
I00
sg29
I00
sg30
Nsg31
Nsg32
I0
sg33
I3
sg34
Nsg35
Nsg36
S'NN'
p1225
sg38
g1208
sg39
I00
sba(issf_api
Word
p1226
(dp1227
g6
I00
sg7
V\u0915\u0947
p1228
sg9
(issf_api
FeatureSet
p1229
(dp1230
g12
(dp1231
S'posn'
p1232
S'30'
p1233
sS'name'
p1234
S'\xe0\xa4\x95\xe0\xa5\x87'
p1235
sS'drel'
p1236
S'lwg__psp:NP'
p1237
sS'chunktype'
p1238
S'child:NP'
p1239
sS'af'
p1240
S'\xe0\xa4\x95\xe0\xa5\x87,psp,m,,,o,,'
p1241
ssbsg28
I00
sg29
I00
sg30
Nsg31
Nsg32
I0
sg33
I3
sg34
Nsg35
Nsg36
S'PSP'
p1242
sg38
g1229
sg39
I00
sba(issf_api
Word
p1243
(dp1244
g6
I00
sg7
V\u0915\u093e\u0930\u0923
p1245
sg9
(issf_api
FeatureSet
p1246
(dp1247
g12
(dp1248
S'posn'
p1249
S'40'
p1250
sS'name'
p1251
S'\xe0\xa4\x95\xe0\xa4\xbe\xe0\xa4\xb0\xe0\xa4\xa3'
p1252
sS'drel'
p1253
S'lwg__psp:NP'
p1254
sS'chunktype'
p1255
S'child:NP'
p1256
sS'af'
p1257
S'\xe0\xa4\x95\xe0\xa4\xbe\xe0\xa4\xb0\xe0\xa4\xa3,n,m,,,o,,'
p1258
ssbsg28
I00
sg29
I00
sg30
Nsg31
Nsg32
I0
sg33
I3
sg34
Nsg35
Nsg36
S'PSP'
p1259
sg38
g1246
sg39
I00
sba(issf_api
Word
p1260
(dp1261
g6
I00
sg7
V\u091f\u0947\u0938\u094d\u091f
p1262
sg9
(issf_api
FeatureSet
p1263
(dp1264
g12
(dp1265
S'posn'
p1266
S'50'
p1267
sS'name'
p1268
S'\xe0\xa4\x9f\xe0\xa5\x87\xe0\xa4\xb8\xe0\xa5\x8d\xe0\xa4\x9f'
p1269
sS'drel'
p1270
S'pof__cn:NP2'
p1271
sS'chunktype'
p1272
S'child:NP2'
p1273
sS'af'
p1274
S'\xe0\xa4\x9f\xe0\xa5\x87\xe0\xa4\xb8\xe0\xa5\x8d\xe0\xa4\x9f,n,m,sg,3,d,0,0'
p1275
ssbsg28
I00
sg29
I00
sg30
Nsg31
Nsg32
I1
sg33
I3
sg34
Nsg35
Nsg36
S'NNC'
p1276
sg38
g1263
sg39
I00
sba(issf_api
Word
p1277
(dp1278
g6
I00
sg7
V\u091f\u0940\u092e
p1279
sg9
(issf_api
FeatureSet
p1280
(dp1281
g12
(dp1282
S'posn'
p1283
S'60'
p1284
sS'name'
p1285
S'\xe0\xa4\x9f\xe0\xa5\x80\xe0\xa4\xae'
p1286
sS'af'
p1287
S'\xe0\xa4\x9f\xe0\xa5\x80\xe0\xa4\xae,n,f,sg,3,o,0_\xe0\xa4\xb8\xe0\xa5\x87,0'
p1288
sS'chunkid'
p1289
S'NP2'
p1290
sS'drel'
p1291
S'k7:VGNF'
p1292
sS'vpos'
p1293
S'vib_3'
p1294
sS'chunktype'
p1295
S'head:NP2'
p1296
ssbsg28
I00
sg29
I00
sg30
Nsg31
Nsg32
I1
sg33
I3
sg34
Nsg35
Nsg36
S'NN'
p1297
sg38
g1280
sg39
I00
sba(issf_api
Word
p1298
(dp1299
g6
I00
sg7
V\u0938\u0947
p1300
sg9
(issf_api
FeatureSet
p1301
(dp1302
g12
(dp1303
S'posn'
p1304
S'70'
p1305
sS'name'
p1306
S'\xe0\xa4\xb8\xe0\xa5\x87'
p1307
sS'drel'
p1308
S'lwg__psp:NP2'
p1309
sS'chunktype'
p1310
S'child:NP2'
p1311
sS'af'
p1312
S'\xe0\xa4\xb8\xe0\xa5\x87,psp,,,,,,'
p1313
ssbsg28
I00
sg29
I00
sg30
Nsg31
Nsg32
I1
sg33
I3
sg34
Nsg35
Nsg36
S'PSP'
p1314
sg38
g1301
sg39
I00
sba(issf_api
Word
p1315
(dp1316
g6
I00
sg7
V\u0939\u091f\u093e\u090f
p1317
sg9
(issf_api
FeatureSet
p1318
(dp1319
g12
(dp1320
S'posn'
p1321
S'80'
p1322
sS'name'
p1323
S'\xe0\xa4\xb9\xe0\xa4\x9f\xe0\xa4\xbe\xe0\xa4\x8f'
p1324
sS'af'
p1325
S'\xe0\xa4\xb9\xe0\xa4\x9f\xe0\xa4\xbe,v,m,sg,3h,,\xe0\xa4\xaf\xe0\xa4\xbe_\xe0\xa4\x9c\xe0\xa4\xbe+\xe0\xa4\xaf\xe0\xa4\xbe\xe0\xa5\xa7,yA'
p1326
sS'chunkid'
p1327
S'VGNF'
p1328
sS'drel'
p1329
S'nmod__k1inv:NP3'
p1330
sS'vpos'
p1331
S'tam_2'
p1332
sS'chunktype'
p1333
S'head:VGNF'
p1334
ssbsg28
I00
sg29
I00
sg30
Nsg31
Nsg32
I2
sg33
I3
sg34
Nsg35
Nsg36
S'VM'
p1335
sg38
g1318
sg39
I00
sba(issf_api
Word
p1336
(dp1337
g6
I00
sg7
V\u0917\u090f
p1338
sg9
(issf_api
FeatureSet
p1339
(dp1340
g12
(dp1341
S'posn'
p1342
S'90'
p1343
sS'name'
p1344
S'\xe0\xa4\x97\xe0\xa4\x8f'
p1345
sS'drel'
p1346
S'lwg__vaux:VGNF'
p1347
sS'chunktype'
p1348
S'child:VGNF'
p1349
sS'af'
p1350
S'\xe0\xa4\x9c\xe0\xa4\xbe,v,m,sg,3h,,\xe0\xa4\xaf\xe0\xa4\xbe\xe0\xa5\xa7,yA1'
p1351
ssbsg28
I00
sg29
I00
sg30
Nsg31
Nsg32
I2
sg33
I3
sg34
Nsg35
Nsg36
S'VAUX'
p1352
sg38
g1339
sg39
I00
sba(issf_api
Word
p1353
(dp1354
g6
I00
sg7
V\u092f\u0941\u0935\u0930\u093e\u091c
p1355
sg9
(issf_api
FeatureSet
p1356
(dp1357
g12
(dp1358
S'posn'
p1359
S'100'
p1360
sS'name'
p1361
S'\xe0\xa4\xaf\xe0\xa5\x81\xe0\xa4\xb5\xe0\xa4\xb0\xe0\xa4\xbe\xe0\xa4\x9c'
p1362
sS'af'
p1363
S'\xe0\xa4\xaf\xe0\xa5\x81\xe0\xa4\xb5\xe0\xa4\xb0\xe0\xa4\xbe\xe0\xa4\x9c,n,m,sg,3,d,0,0'
p1364
sS'drel'
p1365
S'pof__cn:NP3'
p1366
sS'chunktype'
p1367
S'child:NP3'
p1368
sS'cref'
p1369
S'i8%0:t6'
p1370
ssbsg28
I00
sg29
I00
sg30
Nsg31
Nsg32
I3
sg33
I3
sg34
Nsg35
Nsg36
S'NNPC'
p1371
sg38
g1356
sg39
I00
sba(issf_api
Word
p1372
(dp1373
g6
I00
sg7
V\u0938\u093f\u0902\u0939
p1374
sg9
(issf_api
FeatureSet
p1375
(dp1376
g12
(dp1377
S'crefhead'
p1378
S'\xe0\xa4\xb8\xe0\xa4\xbf\xe0\xa4\x82\xe0\xa4\xb9:i8'
p1379
sS'posn'
p1380
S'110'
p1381
sS'name'
p1382
S'\xe0\xa4\xb8\xe0\xa4\xbf\xe0\xa4\x82\xe0\xa4\xb9'
p1383
sS'af'
p1384
S'\xe0\xa4\xb8\xe0\xa4\xbf\xe0\xa4\x82\xe0\xa4\xb9,n,m,sg,3,o,0_\xe0\xa4\x95\xe0\xa4\xbe,0'
p1385
sS'chunkid'
p1386
S'NP3'
p1387
sS'chunktype'
p1388
S'head:NP3'
p1389
sS'crefchainhead'
p1390
S'i8:t6'
p1391
sS'vpos'
p1392
S'vib_3'
p1393
sS'cref'
p1394
S'i8%1:t6'
p1395
sS'drel'
p1396
S'r6-k1:NP4'
p1397
ssbsg28
I00
sg29
I00
sg30
Nsg31
Nsg32
I3
sg33
I3
sg34
Nsg35
Nsg36
S'NNP'
p1398
sg38
g1375
sg39
I00
sba(issf_api
Word
p1399
(dp1400
g6
I00
sg7
V\u0915\u0940
p1401
sg9
(issf_api
FeatureSet
p1402
(dp1403
g12
(dp1404
S'posn'
p1405
S'120'
p1406
sS'name'
p1407
S'\xe0\xa4\x95\xe0\xa5\x80'
p1408
sS'drel'
p1409
S'lwg__psp:NP3'
p1410
sS'chunktype'
p1411
S'child:NP3'
p1412
sS'af'
p1413
S'\xe0\xa4\x95\xe0\xa4\xbe,psp,f,sg,,d,,'
p1414
ssbsg28
I00
sg29
I00
sg30
Nsg31
Nsg32
I3
sg33
I3
sg34
Nsg35
Nsg36
S'PSP'
p1415
sg38
g1402
sg39
I00
sba(issf_api
Word
p1416
(dp1417
g6
I00
sg7
V\u0935\u093e\u092a\u0938\u0940
p1418
sg9
(issf_api
FeatureSet
p1419
(dp1420
g12
(dp1421
S'posn'
p1422
S'130'
p1423
sS'name'
p1424
S'\xe0\xa4\xb5\xe0\xa4\xbe\xe0\xa4\xaa\xe0\xa4\xb8\xe0\xa5\x80'
p1425
sS'af'
p1426
S'\xe0\xa4\xb5\xe0\xa4\xbe\xe0\xa4\xaa\xe0\xa4\xb8\xe0\xa5\x80,n,f,sg,3,d,0,0'
p1427
sS'chunkid'
p1428
S'NP4'
p1429
sS'drel'
p1430
S'pof:VGF'
p1431
sS'chunktype'
p1432
S'head:NP4'
p1433
ssbsg28
I00
sg29
I00
sg30
Nsg31
Nsg32
I4
sg33
I3
sg34
Nsg35
Nsg36
S'NN'
p1434
sg38
g1419
sg39
I00
sba(issf_api
Word
p1435
(dp1436
g6
I00
sg7
V\u0939\u0941\u0908
p1437
sg9
(issf_api
FeatureSet
p1438
(dp1439
g12
(dp1440
S'posn'
p1441
S'140'
p1442
sS'name'
p1443
S'\xe0\xa4\xb9\xe0\xa5\x81\xe0\xa4\x88'
p1444
sS'af'
p1445
S'\xe0\xa4\xb9\xe0\xa5\x8b,v,f,sg,3,,\xe0\xa4\xaf\xe0\xa4\xbe_\xe0\xa4\xb9\xe0\xa5\x88,yA'
p1446
sS'chunkid'
p1447
S'VGF'
p1448
sS'chunktype'
p1449
S'head:VGF'
p1450
sS'voicetype'
p1451
S'active'
p1452
sS'vpos'
p1453
S'tam_2'
p1454
sS'stype'
p1455
S'declarative'
p1456
ssbsg28
I00
sg29
I00
sg30
Nsg31
Nsg32
I5
sg33
I3
sg34
Nsg35
Nsg36
S'VM'
p1457
sg38
g1438
sg39
I00
sba(issf_api
Word
p1458
(dp1459
g6
I00
sg7
V\u0939\u0948
p1460
sg9
(issf_api
FeatureSet
p1461
(dp1462
g12
(dp1463
S'posn'
p1464
S'150'
p1465
sS'name'
p1466
S'\xe0\xa4\xb9\xe0\xa5\x88'
p1467
sS'drel'
p1468
S'lwg__vaux:VGF'
p1469
sS'chunktype'
p1470
S'child:VGF'
p1471
sS'af'
p1472
S'\xe0\xa4\xb9\xe0\xa5\x88,v,any,sg,3,,\xe0\xa4\xb9\xe0\xa5\x88,hE'
p1473
ssbsg28
I00
sg29
I00
sg30
Nsg31
Nsg32
I5
sg33
I3
sg34
Nsg35
Nsg36
S'VAUX'
p1474
sg38
g1461
sg39
I00
sba(issf_api
Word
p1475
(dp1476
g6
I00
sg7
V\u0964
p1477
sg9
(issf_api
FeatureSet
p1478
(dp1479
g12
(dp1480
S'posn'
p1481
S'160'
p1482
sS'name'
p1483
S'\xe0\xa5\xa4'
p1484
sS'af'
p1485
S'\xe0\xa5\xa4,punc,,,,,,'
p1486
sS'chunkid'
p1487
S'BLK'
p1488
sS'drel'
p1489
S'rsym:VGF'
p1490
sS'chunktype'
p1491
S'head:BLK'
p1492
ssbsg28
I00
sg29
I00
sg30
Nsg31
Nsg32
I6
sg33
I3
sg34
Nsg35
Nsg36
S'SYM'
p1493
sg38
g1478
sg39
I00
sba(issf_api
Word
p1494
(dp1495
g6
I00
sg7
V\u0939\u093e\u0932\u093e\u0901\u0915\u093f
p1496
sg9
(issf_api
FeatureSet
p1497
(dp1498
g12
(dp1499
S'posn'
p1500
S'10'
p1501
sS'chunkid'
p1502
S'CCP'
p1503
sS'name'
p1504
S'\xe0\xa4\xb9\xe0\xa4\xbe\xe0\xa4\xb2\xe0\xa4\xbe\xe0\xa4\x81\xe0\xa4\x95\xe0\xa4\xbf'
p1505
sS'chunktype'
p1506
S'head:CCP'
p1507
sS'af'
p1508
S'\xe0\xa4\xb9\xe0\xa4\xbe\xe0\xa4\xb2\xe0\xa4\xbe\xe0\xa4\x81\xe0\xa4\x95\xe0\xa4\xbf,avy,,,,,,'
p1509
ssbsg28
I00
sg29
I00
sg30
Nsg31
Nsg32
I0
sg33
I4
sg34
Nsg35
Nsg36
S'CC'
p1510
sg38
g1497
sg39
I00
sba(issf_api
Word
p1511
(dp1512
g6
I00
sg7
V\u092e\u0941\u0930\u0932\u0940
p1513
sg9
(issf_api
FeatureSet
p1514
(dp1515
g12
(dp1516
S'posn'
p1517
S'20'
p1518
sS'name'
p1519
S'\xe0\xa4\xae\xe0\xa5\x81\xe0\xa4\xb0\xe0\xa4\xb2\xe0\xa5\x80'
p1520
sS'af'
p1521
S'\xe0\xa4\xae\xe0\xa5\x81\xe0\xa4\xb0\xe0\xa4\xb2\xe0\xa5\x80,n,m,sg,3,d,0,0'
p1522
sS'chunkid'
p1523
S'NP'
p1524
sS'drel'
p1525
S'ccof:NULL__CCP'
p1526
sS'chunktype'
p1527
S'head:NP'
p1528
ssbsg28
I00
sg29
I00
sg30
Nsg31
Nsg32
I1
sg33
I4
sg34
Nsg35
Nsg36
S'NNP'
p1529
sg38
g1514
sg39
I00
sba(issf_api
Word
p1530
(dp1531
g6
I00
sg7
V,
p1532
sg9
(issf_api
FeatureSet
p1533
(dp1534
g12
(dp1535
S'posn'
p1536
S'30'
p1537
sS'name'
p1538
g980
sS'drel'
p1539
S'rsym:NP'
p1540
sS'chunktype'
p1541
S'child:NP'
p1542
sS'af'
p1543
S'COMMA,punc,,,,,,'
p1544
ssbsg28
I00
sg29
I00
sg30
Nsg31
Nsg32
I1
sg33
I4
sg34
Nsg35
Nsg36
S'SYM'
p1545
sg38
g1533
sg39
I00
sba(issf_api
Word
p1546
(dp1547
g6
I00
sg7
V\u0915\u093e\u0930\u094d\u0924\u093f\u0915
p1548
sg9
(issf_api
FeatureSet
p1549
(dp1550
g12
(dp1551
S'posn'
p1552
S'40'
p1553
sS'name'
p1554
S'\xe0\xa4\x95\xe0\xa4\xbe\xe0\xa4\xb0\xe0\xa5\x8d\xe0\xa4\xa4\xe0\xa4\xbf\xe0\xa4\x95'
p1555
sS'af'
p1556
S'\xe0\xa4\x95\xe0\xa4\xbe\xe0\xa4\xb0\xe0\xa5\x8d\xe0\xa4\xa4\xe0\xa4\xbf\xe0\xa4\x95,n,m,sg,3,d,0,0'
p1557
sS'chunkid'
p1558
S'NP2'
p1559
sS'drel'
p1560
S'ccof:NULL__CCP'
p1561
sS'chunktype'
p1562
S'head:NP2'
p1563
ssbsg28
I00
sg29
I00
sg30
Nsg31
Nsg32
I2
sg33
I4
sg34
Nsg35
Nsg36
S'NNP'
p1564
sg38
g1549
sg39
I00
sba(issf_api
Word
p1565
(dp1566
g6
I00
sg7
V\u091c\u0917\u0939
p1567
sg9
(issf_api
FeatureSet
p1568
(dp1569
g12
(dp1570
S'posn'
p1571
S'50'
p1572
sS'name'
p1573
S'\xe0\xa4\x9c\xe0\xa4\x97\xe0\xa4\xb9'
p1574
sS'af'
p1575
S'\xe0\xa4\x9c\xe0\xa4\x97\xe0\xa4\xb9,n,f,sg,3,d,0,0'
p1576
sS'chunkid'
p1577
S'NP3'
p1578
sS'drel'
p1579
S'pof:VGF'
p1580
sS'chunktype'
p1581
S'head:NP3'
p1582
ssbsg28
I00
sg29
I00
sg30
Nsg31
Nsg32
I3
sg33
I4
sg34
Nsg35
Nsg36
S'NN'
p1583
sg38
g1568
sg39
I00
sba(issf_api
Word
p1584
(dp1585
g6
I00
sg7
V\u0928\u0939\u0940\u0902
p1586
sg9
(issf_api
FeatureSet
p1587
(dp1588
g12
(dp1589
S'posn'
p1590
S'60'
p1591
sS'name'
p1592
S'\xe0\xa4\xa8\xe0\xa4\xb9\xe0\xa5\x80\xe0\xa4\x82'
p1593
sS'drel'
p1594
S'lwg__neg:VGF'
p1595
sS'chunktype'
p1596
S'child:VGF'
p1597
sS'af'
p1598
S'\xe0\xa4\xa8\xe0\xa4\xb9\xe0\xa5\x80\xe0\xa4\x82,avy,,,,,,'
p1599
ssbsg28
I00
sg29
I00
sg30
Nsg31
Nsg32
I4
sg33
I4
sg34
Nsg35
Nsg36
S'NEG'
p1600
sg38
g1587
sg39
I00
sba(issf_api
Word
p1601
(dp1602
g6
I00
sg7
V\u092c\u0928\u093e
p1603
sg9
(issf_api
FeatureSet
p1604
(dp1605
g12
(dp1606
S'posn'
p1607
S'70'
p1608
sS'name'
p1609
S'\xe0\xa4\xac\xe0\xa4\xa8\xe0\xa4\xbe'
p1610
sS'af'
p1611
S'\xe0\xa4\xac\xe0\xa4\xa8\xe0\xa4\xbe,v,any,pl,any,,0_\xe0\xa4\xaa\xe0\xa4\xbe+\xe0\xa4\xaf\xe0\xa4\xbe,0'
p1612
sS'chunkid'
p1613
S'VGF'
p1614
sS'stype'
p1615
S'declarative'
p1616
sS'drel'
p1617
S'ccof:CCP'
p1618
sS'voicetype'
p1619
S'active'
p1620
sS'vpos'
p1621
S'tam_3'
p1622
sS'chunktype'
p1623
S'head:VGF'
p1624
ssbsg28
I00
sg29
I00
sg30
Nsg31
Nsg32
I4
sg33
I4
sg34
Nsg35
Nsg36
S'VM'
p1625
sg38
g1604
sg39
I00
sba(issf_api
Word
p1626
(dp1627
g6
I00
sg7
V\u092a\u093e\u090f
p1628
sg9
(issf_api
FeatureSet
p1629
(dp1630
g12
(dp1631
S'posn'
p1632
S'80'
p1633
sS'name'
p1634
S'\xe0\xa4\xaa\xe0\xa4\xbe\xe0\xa4\x8f'
p1635
sS'drel'
p1636
S'lwg__vaux:VGF'
p1637
sS'chunktype'
p1638
S'child:VGF'
p1639
sS'af'
p1640
S'\xe0\xa4\xaa\xe0\xa4\xbe,v,m,pl,any,,\xe0\xa4\xaf\xe0\xa4\xbe,yA'
p1641
ssbsg28
I00
sg29
I00
sg30
Nsg31
Nsg32
I4
sg33
I4
sg34
Nsg35
Nsg36
S'VAUX'
p1642
sg38
g1629
sg39
I00
sba(issf_api
Word
p1643
(dp1644
g6
I00
sg7
V\u0964
p1645
sg9
(issf_api
FeatureSet
p1646
(dp1647
g12
(dp1648
S'posn'
p1649
S'90'
p1650
sS'name'
p1651
S'\xe0\xa5\xa4'
p1652
sS'af'
p1653
S'\xe0\xa5\xa4,punc,,,,,,'
p1654
sS'chunkid'
p1655
S'BLK'
p1656
sS'drel'
p1657
S'rsym:CCP'
p1658
sS'chunktype'
p1659
S'head:BLK'
p1660
ssbsg28
I00
sg29
I00
sg30
Nsg31
Nsg32
I5
sg33
I4
sg34
Nsg35
Nsg36
S'SYM'
p1661
sg38
g1646
sg39
I00
sba(issf_api
Word
p1662
(dp1663
g6
I00
sg7
V\u0907\u0930\u092b\u093e\u0928
p1664
sg9
(issf_api
FeatureSet
p1665
(dp1666
g12
(dp1667
S'posn'
p1668
S'10'
p1669
sS'name'
p1670
S'\xe0\xa4\x87\xe0\xa4\xb0\xe0\xa4\xab\xe0\xa4\xbe\xe0\xa4\xa8'
p1671
sS'af'
p1672
S'\xe0\xa4\x87\xe0\xa4\xb0\xe0\xa4\xab\xe0\xa4\xbe\xe0\xa4\xa8,n,m,sg,3,d,0,0'
p1673
sS'drel'
p1674
S'pof__cn:NP'
p1675
sS'chunktype'
p1676
S'child:NP'
p1677
sS'cref'
p1678
S'i9%0:t7'
p1679
ssbsg28
I00
sg29
I00
sg30
Nsg31
Nsg32
I0
sg33
I5
sg34
Nsg35
Nsg36
S'NNPC'
p1680
sg38
g1665
sg39
I00
sba(issf_api
Word
p1681
(dp1682
g6
I00
sg7
V\u092a\u0920\u093e\u0928
p1683
sg9
(issf_api
FeatureSet
p1684
(dp1685
g12
(dp1686
S'crefhead'
p1687
S'\xe0\xa4\xaa\xe0\xa4\xa0\xe0\xa4\xbe\xe0\xa4\xa8:i9'
p1688
sS'posn'
p1689
S'20'
p1690
sS'name'
p1691
S'\xe0\xa4\xaa\xe0\xa4\xa0\xe0\xa4\xbe\xe0\xa4\xa8'
p1692
sS'af'
p1693
S'\xe0\xa4\xaa\xe0\xa4\xa0\xe0\xa4\xbe\xe0\xa4\xa8,n,any,sg,3,d,0,0'
p1694
sS'chunkid'
p1695
S'NP'
p1696
sS'chunktype'
p1697
S'head:NP'
p1698
sS'crefchainhead'
p1699
S'i9:t7'
p1700
sS'cref'
p1701
S'i9%1:t7'
p1702
sS'drel'
p1703
S'k1:VGF'
p1704
ssbsg28
I00
sg29
I00
sg30
Nsg31
Nsg32
I0
sg33
I5
sg34
Nsg35
Nsg36
S'NNP'
p1705
sg38
g1684
sg39
I00
sba(issf_api
Word
p1706
(dp1707
g6
I00
sg7
V\u092d\u0940
p1708
sg9
(issf_api
FeatureSet
p1709
(dp1710
g12
(dp1711
S'posn'
p1712
S'30'
p1713
sS'name'
p1714
S'\xe0\xa4\xad\xe0\xa5\x80'
p1715
sS'drel'
p1716
S'lwg__rp:NP'
p1717
sS'chunktype'
p1718
S'child:NP'
p1719
sS'af'
p1720
S'\xe0\xa4\xad\xe0\xa5\x80,avy,,,,,,'
p1721
ssbsg28
I00
sg29
I00
sg30
Nsg31
Nsg32
I0
sg33
I5
sg34
Nsg35
Nsg36
S'RP'
p1722
sg38
g1709
sg39
I00
sba(issf_api
Word
p1723
(dp1724
g6
I00
sg7
V\u091f\u0940\u092e
p1725
sg9
(issf_api
FeatureSet
p1726
(dp1727
g12
(dp1728
S'crefhead'
p1729
S'\xe0\xa4\x9f\xe0\xa5\x80\xe0\xa4\xae:i10'
p1730
sS'posn'
p1731
S'40'
p1732
sS'name'
p1733
S'\xe0\xa4\x9f\xe0\xa5\x80\xe0\xa4\xae'
p1734
sS'af'
p1735
S'\xe0\xa4\x9f\xe0\xa5\x80\xe0\xa4\xae,n,f,sg,3,o,0_\xe0\xa4\xae\xe0\xa5\x87\xe0\xa4\x82,0'
p1736
sS'chunkid'
p1737
S'NP2'
p1738
sS'creftype'
p1739
S'Coreference-Identity:i4'
p1740
sS'chunktype'
p1741
S'head:NP2'
p1742
sS'vpos'
p1743
S'vib_2'
p1744
sS'cref'
p1745
S'i10%1:t3'
p1746
sS'drel'
p1747
S'k7:VGF'
p1748
ssbsg28
I00
sg29
I00
sg30
Nsg31
Nsg32
I1
sg33
I5
sg34
Nsg35
Nsg36
S'NN'
p1749
sg38
g1726
sg39
I00
sba(issf_api
Word
p1750
(dp1751
g6
I00
sg7
V\u092e\u0947\u0902
p1752
sg9
(issf_api
FeatureSet
p1753
(dp1754
g12
(dp1755
S'posn'
p1756
S'50'
p1757
sS'name'
p1758
S'\xe0\xa4\xae\xe0\xa5\x87\xe0\xa4\x82'
p1759
sS'drel'
p1760
S'lwg__psp:NP2'
p1761
sS'chunktype'
p1762
S'child:NP2'
p1763
sS'af'
p1764
S'\xe0\xa4\xae\xe0\xa5\x87\xe0\xa4\x82,psp,,,,,,'
p1765
ssbsg28
I00
sg29
I00
sg30
Nsg31
Nsg32
I1
sg33
I5
sg34
Nsg35
Nsg36
S'PSP'
p1766
sg38
g1753
sg39
I00
sba(issf_api
Word
p1767
(dp1768
g6
I00
sg7
V\u0939\u0948\u0902
p1769
sg9
(issf_api
FeatureSet
p1770
(dp1771
g12
(dp1772
S'posn'
p1773
S'60'
p1774
sS'name'
p1775
S'\xe0\xa4\xb9\xe0\xa5\x88\xe0\xa4\x82'
p1776
sS'af'
p1777
S'\xe0\xa4\xb9\xe0\xa5\x88,v,any,sg,3h,,\xe0\xa4\xb9\xe0\xa5\x88,hE'
p1778
sS'chunkid'
p1779
S'VGF'
p1780
sS'chunktype'
p1781
S'head:VGF'
p1782
sS'voicetype'
p1783
S'active'
p1784
sS'stype'
p1785
S'declarative'
p1786
ssbsg28
I00
sg29
I00
sg30
Nsg31
Nsg32
I2
sg33
I5
sg34
Nsg35
Nsg36
S'VM'
p1787
sg38
g1770
sg39
I00
sba(issf_api
Word
p1788
(dp1789
g6
I00
sg7
V\u0964
p1790
sg9
(issf_api
FeatureSet
p1791
(dp1792
g12
(dp1793
S'posn'
p1794
S'70'
p1795
sS'name'
p1796
S'\xe0\xa5\xa4'
p1797
sS'af'
p1798
S'\xe0\xa5\xa4,punc,,,,,,'
p1799
sS'chunkid'
p1800
S'BLK'
p1801
sS'drel'
p1802
S'rsym:VGF'
p1803
sS'chunktype'
p1804
S'head:BLK'
p1805
ssbsg28
I00
sg29
I00
sg30
Nsg31
Nsg32
I3
sg33
I5
sg34
Nsg35
Nsg36
S'SYM'
p1806
sg38
g1791
sg39
I00
sba(issf_api
Word
p1807
(dp1808
g6
I00
sg7
V\u092c\u094b\u0930\u094d\u0921
p1809
sg9
(issf_api
FeatureSet
p1810
(dp1811
g12
(dp1812
S'crefhead'
p1813
S'\xe0\xa4\xac\xe0\xa5\x8b\xe0\xa4\xb0\xe0\xa5\x8d\xe0\xa4\xa1:i11'
p1814
sS'posn'
p1815
S'10'
p1816
sS'name'
p1817
S'\xe0\xa4\xac\xe0\xa5\x8b\xe0\xa4\xb0\xe0\xa5\x8d\xe0\xa4\xa1'
p1818
sS'af'
p1819
S'\xe0\xa4\xac\xe0\xa5\x8b\xe0\xa4\xb0\xe0\xa5\x8d\xe0\xa4\xa1,n,m,sg,3,o,0_\xe0\xa4\x95\xe0\xa4\xbe,0'
p1820
sS'chunkid'
p1821
S'NP'
p1822
sS'chunktype'
p1823
S'head:NP'
p1824
sS'crefchainhead'
p1825
S'i11:t8'
p1826
sS'vpos'
p1827
S'vib_2'
p1828
sS'cref'
p1829
S'i11%1:t8'
p1830
sS'drel'
p1831
S'r6:NP2'
p1832
ssbsg28
I00
sg29
I00
sg30
Nsg31
Nsg32
I0
sg33
I6
sg34
Nsg35
Nsg36
S'NN'
p1833
sg38
g1810
sg39
I00
sba(issf_api
Word
p1834
(dp1835
g6
I00
sg7
V\u0915\u0940
p1836
sg9
(issf_api
FeatureSet
p1837
(dp1838
g12
(dp1839
S'posn'
p1840
S'20'
p1841
sS'name'
p1842
S'\xe0\xa4\x95\xe0\xa5\x80'
p1843
sS'drel'
p1844
S'lwg__psp:NP'
p1845
sS'chunktype'
p1846
S'child:NP'
p1847
sS'af'
p1848
S'\xe0\xa4\x95\xe0\xa4\xbe,psp,f,sg,,o,,'
p1849
ssbsg28
I00
sg29
I00
sg30
Nsg31
Nsg32
I0
sg33
I6
sg34
Nsg35
Nsg36
S'PSP'
p1850
sg38
g1837
sg39
I00
sba(issf_api
Word
p1851
(dp1852
g6
I00
sg7
V\u092a\u094d\u0932\u0947\u091f\u093f\u0928\u092e
p1853
sg9
(issf_api
FeatureSet
p1854
(dp1855
g12
(dp1856
S'posn'
p1857
S'30'
p1858
sS'name'
p1859
S'\xe0\xa4\xaa\xe0\xa5\x8d\xe0\xa4\xb2\xe0\xa5\x87\xe0\xa4\x9f\xe0\xa4\xbf\xe0\xa4\xa8\xe0\xa4\xae'
p1860
sS'drel'
p1861
S'pof__cn:NP2'
p1862
sS'chunktype'
p1863
S'child:NP2'
p1864
sS'af'
p1865
S'\xe0\xa4\xaa\xe0\xa5\x8d\xe0\xa4\xb2\xe0\xa5\x87\xe0\xa4\x9f\xe0\xa4\xbf\xe0\xa4\xa8\xe0\xa4\xae,n,m,sg,3,d,0,0'
p1866
ssbsg28
I00
sg29
I00
sg30
Nsg31
Nsg32
I1
sg33
I6
sg34
Nsg35
Nsg36
S'NNPC'
p1867
sg38
g1854
sg39
I00
sba(issf_api
Word
p1868
(dp1869
g6
I00
sg7
V\u091c\u0941\u092c\u0932\u0940
p1870
sg9
(issf_api
FeatureSet
p1871
(dp1872
g12
(dp1873
S'posn'
p1874
S'40'
p1875
sS'name'
p1876
S'\xe0\xa4\x9c\xe0\xa5\x81\xe0\xa4\xac\xe0\xa4\xb2\xe0\xa5\x80'
p1877
sS'af'
p1878
S'\xe0\xa4\x9c\xe0\xa5\x81\xe0\xa4\xac\xe0\xa4\xb2\xe0\xa5\x80,n,f,sg,3,o,0_\xe0\xa4\x95\xe0\xa4\xbe,0'
p1879
sS'chunkid'
p1880
S'NP2'
p1881
sS'drel'
p1882
S'r6:NP3'
p1883
sS'vpos'
p1884
S'vib_3'
p1885
sS'chunktype'
p1886
S'head:NP2'
p1887
ssbsg28
I00
sg29
I00
sg30
Nsg31
Nsg32
I1
sg33
I6
sg34
Nsg35
Nsg36
S'NNP'
p1888
sg38
g1871
sg39
I00
sba(issf_api
Word
p1889
(dp1890
g6
I00
sg7
V\u0915\u0947
p1891
sg9
(issf_api
FeatureSet
p1892
(dp1893
g12
(dp1894
S'posn'
p1895
S'50'
p1896
sS'name'
p1897
S'\xe0\xa4\x95\xe0\xa5\x87'
p1898
sS'drel'
p1899
S'lwg__psp:NP2'
p1900
sS'chunktype'
p1901
S'child:NP2'
p1902
sS'af'
p1903
S'\xe0\xa4\x95\xe0\xa4\xbe,psp,m,sg,,o,,'
p1904
ssbsg28
I00
sg29
I00
sg30
Nsg31
Nsg32
I1
sg33
I6
sg34
Nsg35
Nsg36
S'PSP'
p1905
sg38
g1892
sg39
I00
sba(issf_api
Word
p1906
(dp1907
g6
I00
sg7
V\u092e\u094c\u0915\u0947
p1908
sg9
(issf_api
FeatureSet
p1909
(dp1910
g12
(dp1911
S'posn'
p1912
S'60'
p1913
sS'name'
p1914
S'\xe0\xa4\xae\xe0\xa5\x8c\xe0\xa4\x95\xe0\xa5\x87'
p1915
sS'af'
p1916
S'\xe0\xa4\xae\xe0\xa5\x8c\xe0\xa4\x95\xe0\xa4\xbe,n,m,sg,3,o,0_\xe0\xa4\xaa\xe0\xa4\xb0,0'
p1917
sS'chunkid'
p1918
S'NP3'
p1919
sS'drel'
p1920
S'jjmod:JJP'
p1921
sS'vpos'
p1922
S'vib_2'
p1923
sS'chunktype'
p1924
S'head:NP3'
p1925
ssbsg28
I00
sg29
I00
sg30
Nsg31
Nsg32
I2
sg33
I6
sg34
Nsg35
Nsg36
S'NN'
p1926
sg38
g1909
sg39
I00
sba(issf_api
Word
p1927
(dp1928
g6
I00
sg7
V\u092a\u0930
p1929
sg9
(issf_api
FeatureSet
p1930
(dp1931
g12
(dp1932
S'posn'
p1933
S'70'
p1934
sS'name'
p1935
S'\xe0\xa4\xaa\xe0\xa4\xb0'
p1936
sS'drel'
p1937
S'lwg__psp:NP3'
p1938
sS'chunktype'
p1939
S'child:NP3'
p1940
sS'af'
p1941
S'\xe0\xa4\xaa\xe0\xa4\xb0,psp,,,,,,'
p1942
ssbsg28
I00
sg29
I00
sg30
Nsg31
Nsg32
I2
sg33
I6
sg34
Nsg35
Nsg36
S'PSP'
p1943
sg38
g1930
sg39
I00
sba(issf_api
Word
p1944
(dp1945
g6
I00
sg7
V\u0906\u092f\u094b\u091c\u093f\u0924
p1946
sg9
(issf_api
FeatureSet
p1947
(dp1948
g12
(dp1949
S'posn'
p1950
S'80'
p1951
sS'name'
p1952
S'\xe0\xa4\x86\xe0\xa4\xaf\xe0\xa5\x8b\xe0\xa4\x9c\xe0\xa4\xbf\xe0\xa4\xa4'
p1953
sS'af'
p1954
S'\xe0\xa4\x86\xe0\xa4\xaf\xe0\xa5\x8b\xe0\xa4\x9c\xe0\xa4\xbf\xe0\xa4\xa4,adj,any,any,,o,,'
p1955
sS'chunkid'
p1956
S'JJP'
p1957
sS'drel'
p1958
S'nmod:NP4'
p1959
sS'chunktype'
p1960
S'head:JJP'
p1961
ssbsg28
I00
sg29
I00
sg30
Nsg31
Nsg32
I3
sg33
I6
sg34
Nsg35
Nsg36
S'JJ'
p1962
sg38
g1947
sg39
I00
sba(issf_api
Word
p1963
(dp1964
g6
I00
sg7
V\u0907\u0938
p1965
sg9
(issf_api
FeatureSet
p1966
(dp1967
g12
(dp1968
S'posn'
p1969
S'90'
p1970
sS'name'
p1971
S'\xe0\xa4\x87\xe0\xa4\xb8'
p1972
sS'af'
p1973
S'\xe0\xa4\xaf\xe0\xa4\xb9,pn,any,sg,3,o,,'
p1974
sS'drel'
p1975
S'nmod__adj:NP4'
p1976
sS'chunktype'
p1977
S'child:NP4'
p1978
sS'cref'
p1979
S'i12%0:t2'
p1980
ssbsg28
I00
sg29
I00
sg30
Nsg31
Nsg32
I4
sg33
I6
sg34
Nsg35
Nsg36
S'DEM'
p1981
sg38
g1966
sg39
I00
sba(issf_api
Word
p1982
(dp1983
g6
I00
sg7
V\u092e\u0948\u091a
p1984
sg9
(issf_api
FeatureSet
p1985
(dp1986
g12
(dp1987
S'crefhead'
p1988
S'\xe0\xa4\xae\xe0\xa5\x88\xe0\xa4\x9a:i12'
p1989
sS'posn'
p1990
S'100'
p1991
sS'name'
p1992
S'\xe0\xa4\xae\xe0\xa5\x88\xe0\xa4\x9a'
p1993
sS'af'
p1994
S'\xe0\xa4\xae\xe0\xa5\x88\xe0\xa4\x9a,n,m,sg,3,o,0_\xe0\xa4\x95\xe0\xa5\x87_\xe0\xa4\xb2\xe0\xa4\xbf\xe0\xa4\x8f,0'
p1995
sS'chunkid'
p1996
S'NP4'
p1997
sS'creftype'
p1998
S'Coreference-Identity:i2'
p1999
sS'chunktype'
p2000
S'head:NP4'
p2001
sS'vpos'
p2002
S'vib_3_4'
p2003
sS'cref'
p2004
S'i12%1:t2'
p2005
sS'drel'
p2006
S'rt:VGNF'
p2007
ssbsg28
I00
sg29
I00
sg30
Nsg31
Nsg32
I4
sg33
I6
sg34
Nsg35
Nsg36
S'NN'
p2008
sg38
g1985
sg39
I00
sba(issf_api
Word
p2009
(dp2010
g6
I00
sg7
V\u0915\u0947
p2011
sg9
(issf_api
FeatureSet
p2012
(dp2013
g12
(dp2014
S'posn'
p2015
S'110'
p2016
sS'name'
p2017
S'\xe0\xa4\x95\xe0\xa5\x872'
p2018
sS'drel'
p2019
S'lwg__psp:NP4'
p2020
sS'chunktype'
p2021
S'child:NP4'
p2022
sS'af'
p2023
S'\xe0\xa4\x95\xe0\xa5\x87,psp,,,,,,'
p2024
ssbsg28
I00
sg29
I00
sg30
Nsg31
Nsg32
I4
sg33
I6
sg34
Nsg35
Nsg36
S'PSP'
p2025
sg38
g2012
sg39
I00
sba(issf_api
Word
p2026
(dp2027
g6
I00
sg7
V\u0932\u093f\u090f
p2028
sg9
(issf_api
FeatureSet
p2029
(dp2030
g12
(dp2031
S'posn'
p2032
S'120'
p2033
sS'name'
p2034
S'\xe0\xa4\xb2\xe0\xa4\xbf\xe0\xa4\x8f'
p2035
sS'drel'
p2036
S'lwg__psp:NP4'
p2037
sS'chunktype'
p2038
S'child:NP4'
p2039
sS'af'
p2040
S'\xe0\xa4\xb2\xe0\xa4\xbf\xe0\xa4\x8f,psp,,,,,,'
p2041
ssbsg28
I00
sg29
I00
sg30
Nsg31
Nsg32
I4
sg33
I6
sg34
Nsg35
Nsg36
S'PSP'
p2042
sg38
g2029
sg39
I00
sba(issf_api
Word
p2043
(dp2044
g6
I00
sg7
V\u0967\u096b
p2045
sg9
(issf_api
FeatureSet
p2046
(dp2047
g12
(dp2048
S'posn'
p2049
S'130'
p2050
sS'name'
p2051
S'\xe0\xa5\xa7\xe0\xa5\xab'
p2052
sS'af'
p2053
S'\xe0\xa5\xa7\xe0\xa5\xab,num,any,any,,any,,'
p2054
sS'drel'
p2055
S'nmod__adj:NP5'
p2056
sS'chunktype'
p2057
S'child:NP5'
p2058
sS'cref'
p2059
S'i13%0:t3'
p2060
ssbsg28
I00
sg29
I00
sg30
Nsg31
Nsg32
I5
sg33
I6
sg34
Nsg35
Nsg36
S'QC'
p2061
sg38
g2046
sg39
I00
sba(issf_api
Word
p2062
(dp2063
g6
I00
sg7
V\u0938\u0926\u0938\u094d\u092f\u0940\u092f
p2064
sg9
(issf_api
FeatureSet
p2065
(dp2066
g12
(dp2067
S'posn'
p2068
S'140'
p2069
sS'name'
p2070
S'\xe0\xa4\xb8\xe0\xa4\xa6\xe0\xa4\xb8\xe0\xa5\x8d\xe0\xa4\xaf\xe0\xa5\x80\xe0\xa4\xaf'
p2071
sS'af'
p2072
S'\xe0\xa4\xb8\xe0\xa4\xa6\xe0\xa4\xb8\xe0\xa5\x8d\xe0\xa4\xaf\xe0\xa5\x80\xe0\xa4\xaf,adj,any,any,,o,,'
p2073
sS'drel'
p2074
S'nmod__adj:NP5'
p2075
sS'chunktype'
p2076
S'child:NP5'
p2077
sS'cref'
p2078
S'i13%0:t3'
p2079
ssbsg28
I00
sg29
I00
sg30
Nsg31
Nsg32
I5
sg33
I6
sg34
Nsg35
Nsg36
S'JJ'
p2080
sg38
g2065
sg39
I00
sba(issf_api
Word
p2081
(dp2082
g6
I00
sg7
V\u091f\u0940\u092e
p2083
sg9
(issf_api
FeatureSet
p2084
(dp2085
g12
(dp2086
S'crefhead'
p2087
S'\xe0\xa4\x9f\xe0\xa5\x80\xe0\xa4\xae:i13'
p2088
sS'posn'
p2089
S'150'
p2090
sS'name'
p2091
S'\xe0\xa4\x9f\xe0\xa5\x80\xe0\xa4\xae'
p2092
sS'af'
p2093
S'\xe0\xa4\x9f\xe0\xa5\x80\xe0\xa4\xae,n,f,sg,3,o,0_\xe0\xa4\x95\xe0\xa4\xbe,0'
p2094
sS'chunkid'
p2095
S'NP5'
p2096
sS'creftype'
p2097
S'Coreference-Identity:i10'
p2098
sS'chunktype'
p2099
S'head:NP5'
p2100
sS'crefchainhead'
p2101
S'i13:t3'
p2102
sS'vpos'
p2103
S'vib_4'
p2104
sS'cref'
p2105
S'i13%1:t3'
p2106
sS'drel'
p2107
S'r6-k2:NP6'
p2108
ssbsg28
I00
sg29
I00
sg30
Nsg31
Nsg32
I5
sg33
I6
sg34
Nsg35
Nsg36
S'NN'
p2109
sg38
g2084
sg39
I00
sba(issf_api
Word
p2110
(dp2111
g6
I00
sg7
V\u0915\u0940
p2112
sg9
(issf_api
FeatureSet
p2113
(dp2114
g12
(dp2115
S'posn'
p2116
S'160'
p2117
sS'name'
p2118
S'\xe0\xa4\x95\xe0\xa5\x802'
p2119
sS'drel'
p2120
S'lwg__psp:NP5'
p2121
sS'chunktype'
p2122
S'child:NP5'
p2123
sS'af'
p2124
S'\xe0\xa4\x95\xe0\xa4\xbe,psp,f,sg,,d,,'
p2125
ssbsg28
I00
sg29
I00
sg30
Nsg31
Nsg32
I5
sg33
I6
sg34
Nsg35
Nsg36
S'PSP'
p2126
sg38
g2113
sg39
I00
sba(issf_api
Word
p2127
(dp2128
g6
I00
sg7
V\u0918\u094b\u0937\u0923\u093e
p2129
sg9
(issf_api
FeatureSet
p2130
(dp2131
g12
(dp2132
S'posn'
p2133
S'170'
p2134
sS'name'
p2135
S'\xe0\xa4\x98\xe0\xa5\x8b\xe0\xa4\xb7\xe0\xa4\xa3\xe0\xa4\xbe'
p2136
sS'af'
p2137
S'\xe0\xa4\x98\xe0\xa5\x8b\xe0\xa4\xb7\xe0\xa4\xa3\xe0\xa4\xbe,n,f,sg,3,d,0,0'
p2138
sS'chunkid'
p2139
S'NP6'
p2140
sS'drel'
p2141
S'pof:VGNF'
p2142
sS'chunktype'
p2143
S'head:NP6'
p2144
ssbsg28
I00
sg29
I00
sg30
Nsg31
Nsg32
I6
sg33
I6
sg34
Nsg35
Nsg36
S'NN'
p2145
sg38
g2130
sg39
I00
sba(issf_api
Word
p2146
(dp2147
g6
I00
sg7
V\u0915\u0930\u0924\u0947
p2148
sg9
(issf_api
FeatureSet
p2149
(dp2150
g12
(dp2151
S'posn'
p2152
S'180'
p2153
sS'name'
p2154
S'\xe0\xa4\x95\xe0\xa4\xb0\xe0\xa4\xa4\xe0\xa5\x87'
p2155
sS'af'
p2156
S'\xe0\xa4\x95\xe0\xa4\xb0,v,m,sg,any,,\xe0\xa4\xa4\xe0\xa4\xbe_\xe0\xa4\xb9\xe0\xa5\x8b+\xe0\xa4\xaf\xe0\xa4\xbe,wA'
p2157
sS'chunkid'
p2158
S'VGNF'
p2159
sS'drel'
p2160
S'vmod:VGF'
p2161
sS'vpos'
p2162
S'tam_2'
p2163
sS'chunktype'
p2164
S'head:VGNF'
p2165
ssbsg28
I00
sg29
I00
sg30
Nsg31
Nsg32
I7
sg33
I6
sg34
Nsg35
Nsg36
S'VM'
p2166
sg38
g2149
sg39
I00
sba(issf_api
Word
p2167
(dp2168
g6
I00
sg7
V\u0939\u0941\u090f
p2169
sg9
(issf_api
FeatureSet
p2170
(dp2171
g12
(dp2172
S'posn'
p2173
S'190'
p2174
sS'name'
p2175
S'\xe0\xa4\xb9\xe0\xa5\x81\xe0\xa4\x8f'
p2176
sS'drel'
p2177
S'lwg__vaux:VGNF'
p2178
sS'chunktype'
p2179
S'child:VGNF'
p2180
sS'af'
p2181
S'\xe0\xa4\xb9\xe0\xa5\x8b,v,m,sg,any,,\xe0\xa4\xaf\xe0\xa4\xbe,yA'
p2182
ssbsg28
I00
sg29
I00
sg30
Nsg31
Nsg32
I7
sg33
I6
sg34
Nsg35
Nsg36
S'VAUX'
p2183
sg38
g2170
sg39
I00
sba(issf_api
Word
p2184
(dp2185
g6
I00
sg7
V\u092c\u094b\u0930\u094d\u0921
p2186
sg9
(issf_api
FeatureSet
p2187
(dp2188
g12
(dp2189
S'crefhead'
p2190
S'\xe0\xa4\xac\xe0\xa5\x8b\xe0\xa4\xb0\xe0\xa5\x8d\xe0\xa4\xa1:i14'
p2191
sS'posn'
p2192
S'200'
p2193
sS'name'
p2194
S'\xe0\xa4\xac\xe0\xa5\x8b\xe0\xa4\xb0\xe0\xa5\x8d\xe0\xa4\xa12'
p2195
sS'af'
p2196
S'\xe0\xa4\xac\xe0\xa5\x8b\xe0\xa4\xb0\xe0\xa5\x8d\xe0\xa4\xa1,n,m,sg,3,o,0_\xe0\xa4\x95\xe0\xa4\xbe,0'
p2197
sS'acrefmodhead'
p2198
S'\xe0\xa4\xac\xe0\xa5\x8b\xe0\xa4\xb0\xe0\xa5\x8d\xe0\xa4\xa1:m2'
p2199
sS'chunkid'
p2200
S'NP7'
p2201
sS'acrefmod'
p2202
S'm2%1:i15'
p2203
sS'creftype'
p2204
S'Coreference-Identity:i11'
p2205
sS'chunktype'
p2206
S'head:NP7'
p2207
sS'vpos'
p2208
S'vib_2'
p2209
sS'cref'
p2210
S'i14%1:t8'
p2211
sS'drel'
p2212
S'r6:NP8'
p2213
ssbsg28
I00
sg29
I00
sg30
Nsg31
Nsg32
I8
sg33
I6
sg34
Nsg35
Nsg36
S'NN'
p2214
sg38
g2187
sg39
I00
sba(issf_api
Word
p2215
(dp2216
g6
I00
sg7
V\u0915\u0947
p2217
sg9
(issf_api
FeatureSet
p2218
(dp2219
g12
(dp2220
S'posn'
p2221
S'210'
p2222
sS'name'
p2223
S'\xe0\xa4\x95\xe0\xa5\x873'
p2224
sS'drel'
p2225
S'lwg__psp:NP7'
p2226
sS'chunktype'
p2227
S'child:NP7'
p2228
sS'af'
p2229
S'\xe0\xa4\x95\xe0\xa4\xbe,psp,m,sg,,o,,'
p2230
ssbsg28
I00
sg29
I00
sg30
Nsg31
Nsg32
I8
sg33
I6
sg34
Nsg35
Nsg36
S'PSP'
p2231
sg38
g2218
sg39
I00
sba(issf_api
Word
p2232
(dp2233
g6
I00
sg7
V\u0938\u091a\u093f\u0935
p2234
sg9
(issf_api
FeatureSet
p2235
(dp2236
g12
(dp2237
S'crefhead'
p2238
S'\xe0\xa4\xb8\xe0\xa4\x9a\xe0\xa4\xbf\xe0\xa4\xb5:i15'
p2239
sS'posn'
p2240
S'220'
p2241
sS'name'
p2242
S'\xe0\xa4\xb8\xe0\xa4\x9a\xe0\xa4\xbf\xe0\xa4\xb5'
p2243
sS'af'
p2244
S'\xe0\xa4\xb8\xe0\xa4\x9a\xe0\xa4\xbf\xe0\xa4\xb5,n,m,sg,3,o,0,0'
p2245
sS'chunkid'
p2246
S'NP8'
p2247
sS'crefmod'
p2248
S'm2:i15'
p2249
sS'chunktype'
p2250
S'head:NP8'
p2251
sS'cref'
p2252
S'i15%1:t9'
p2253
sS'drel'
p2254
S'nmod:NP9'
p2255
ssbsg28
I00
sg29
I00
sg30
Nsg31
Nsg32
I9
sg33
I6
sg34
Nsg35
Nsg36
S'NN'
p2256
sg38
g2235
sg39
I00
sba(issf_api
Word
p2257
(dp2258
g6
I00
sg7
V\u0930\u0924\u094d\u0928\u093e\u0915\u0930
p2259
sg9
(issf_api
FeatureSet
p2260
(dp2261
g12
(dp2262
S'posn'
p2263
S'230'
p2264
sS'name'
p2265
S'\xe0\xa4\xb0\xe0\xa4\xa4\xe0\xa5\x8d\xe0\xa4\xa8\xe0\xa4\xbe\xe0\xa4\x95\xe0\xa4\xb0'
p2266
sS'af'
p2267
S'\xe0\xa4\xb0\xe0\xa4\xa4\xe0\xa5\x8d\xe0\xa4\xa8\xe0\xa4\xbe\xe0\xa4\x95\xe0\xa4\xb0,n,m,sg,3,d,0,0'
p2268
sS'drel'
p2269
S'pof__cn:NP9'
p2270
sS'chunktype'
p2271
S'child:NP9'
p2272
sS'cref'
p2273
S'i16%0:t9'
p2274
ssbsg28
I00
sg29
I00
sg30
Nsg31
Nsg32
I10
sg33
I6
sg34
Nsg35
Nsg36
S'NNPC'
p2275
sg38
g2260
sg39
I00
sba(issf_api
Word
p2276
(dp2277
g6
I00
sg7
V\u0936\u0947\u091f\u094d\u091f\u0940
p2278
sg9
(issf_api
FeatureSet
p2279
(dp2280
g12
(dp2281
S'crefhead'
p2282
S'\xe0\xa4\xb6\xe0\xa5\x87\xe0\xa4\x9f\xe0\xa5\x8d\xe0\xa4\x9f\xe0\xa5\x80:i16'
p2283
sS'posn'
p2284
S'240'
p2285
sS'name'
p2286
S'\xe0\xa4\xb6\xe0\xa5\x87\xe0\xa4\x9f\xe0\xa5\x8d\xe0\xa4\x9f\xe0\xa5\x80'
p2287
sS'af'
p2288
S'\xe0\xa4\xb6\xe0\xa5\x87\xe0\xa4\x9f\xe0\xa5\x8d\xe0\xa4\x9f\xe0\xa5\x80,n,m,sg,3,o,0_\xe0\xa4\xa8\xe0\xa5\x87,0'
p2289
sS'chunkid'
p2290
S'NP9'
p2291
sS'creftype'
p2292
S'Coreference-NounComplement:i15'
p2293
sS'chunktype'
p2294
S'head:NP9'
p2295
sS'crefchainhead'
p2296
S'i16:t9'
p2297
sS'vpos'
p2298
S'vib_3'
p2299
sS'cref'
p2300
S'i16%1:t9'
p2301
sS'drel'
p2302
S'k1:VGF'
p2303
ssbsg28
I00
sg29
I00
sg30
Nsg31
Nsg32
I10
sg33
I6
sg34
Nsg35
Nsg36
S'NNP'
p2304
sg38
g2279
sg39
I00
sba(issf_api
Word
p2305
(dp2306
g6
I00
sg7
V\u0928\u0947
p2307
sg9
(issf_api
FeatureSet
p2308
(dp2309
g12
(dp2310
S'posn'
p2311
S'250'
p2312
sS'name'
p2313
S'\xe0\xa4\xa8\xe0\xa5\x87'
p2314
sS'drel'
p2315
S'lwg__psp:NP9'
p2316
sS'chunktype'
p2317
S'child:NP9'
p2318
sS'af'
p2319
S'\xe0\xa4\xa8\xe0\xa5\x87,psp,,,,,,'
p2320
ssbsg28
I00
sg29
I00
sg30
Nsg31
Nsg32
I10
sg33
I6
sg34
Nsg35
Nsg36
S'PSP'
p2321
sg38
g2308
sg39
I00
sba(issf_api
Word
p2322
(dp2323
g6
I00
sg7
V\u092c\u0924\u093e\u092f\u093e
p2324
sg9
(issf_api
FeatureSet
p2325
(dp2326
g12
(dp2327
S'posn'
p2328
S'260'
p2329
sS'name'
p2330
S'\xe0\xa4\xac\xe0\xa4\xa4\xe0\xa4\xbe\xe0\xa4\xaf\xe0\xa4\xbe'
p2331
sS'af'
p2332
S'\xe0\xa4\xac\xe0\xa4\xa4\xe0\xa4\xbe,v,m,sg,any,,\xe0\xa4\xaf\xe0\xa4\xbe,yA'
p2333
sS'chunkid'
p2334
S'VGF'
p2335
sS'chunktype'
p2336
S'head:VGF'
p2337
sS'voicetype'
p2338
S'active'
p2339
sS'stype'
p2340
S'declarative'
p2341
ssbsg28
I00
sg29
I00
sg30
Nsg31
Nsg32
I11
sg33
I6
sg34
Nsg35
Nsg36
S'VM'
p2342
sg38
g2325
sg39
I00
sba(issf_api
Word
p2343
(dp2344
g6
I00
sg7
V\u0915\u093f
p2345
sg9
(issf_api
FeatureSet
p2346
(dp2347
g12
(dp2348
S'posn'
p2349
S'270'
p2350
sS'name'
p2351
S'\xe0\xa4\x95\xe0\xa4\xbf'
p2352
sS'af'
p2353
S'\xe0\xa4\x95\xe0\xa4\xbf,avy,,,,,,'
p2354
sS'chunkid'
p2355
S'CCP'
p2356
sS'drel'
p2357
S'k2:VGF'
p2358
sS'chunktype'
p2359
S'head:CCP'
p2360
ssbsg28
I00
sg29
I00
sg30
Nsg31
Nsg32
I12
sg33
I6
sg34
Nsg35
Nsg36
S'CC'
p2361
sg38
g2346
sg39
I00
sba(issf_api
Word
p2362
(dp2363
g6
I00
sg7
V\u092c\u094b\u0930\u094d\u0921
p2364
sg9
(issf_api
FeatureSet
p2365
(dp2366
g12
(dp2367
S'crefhead'
p2368
S'\xe0\xa4\xac\xe0\xa5\x8b\xe0\xa4\xb0\xe0\xa5\x8d\xe0\xa4\xa1:i17'
p2369
sS'posn'
p2370
S'280'
p2371
sS'name'
p2372
S'\xe0\xa4\xac\xe0\xa5\x8b\xe0\xa4\xb0\xe0\xa5\x8d\xe0\xa4\xa13'
p2373
sS'af'
p2374
S'\xe0\xa4\xac\xe0\xa5\x8b\xe0\xa4\xb0\xe0\xa5\x8d\xe0\xa4\xa1,n,m,sg,3,o,0_\xe0\xa4\xa8\xe0\xa5\x87,0'
p2375
sS'chunkid'
p2376
S'NP10'
p2377
sS'creftype'
p2378
S'Coreference-Identity:i14'
p2379
sS'chunktype'
p2380
S'head:NP10'
p2381
sS'vpos'
p2382
S'vib_2'
p2383
sS'cref'
p2384
S'i17%1:t8'
p2385
sS'drel'
p2386
S'k1:VGF2'
p2387
ssbsg28
I00
sg29
I00
sg30
Nsg31
Nsg32
I13
sg33
I6
sg34
Nsg35
Nsg36
S'NN'
p2388
sg38
g2365
sg39
I00
sba(issf_api
Word
p2389
(dp2390
g6
I00
sg7
V\u0928\u0947
p2391
sg9
(issf_api
FeatureSet
p2392
(dp2393
g12
(dp2394
S'posn'
p2395
S'290'
p2396
sS'name'
p2397
S'\xe0\xa4\xa8\xe0\xa5\x872'
p2398
sS'drel'
p2399
S'lwg__psp:NP10'
p2400
sS'chunktype'
p2401
S'child:NP10'
p2402
sS'af'
p2403
S'\xe0\xa4\xa8\xe0\xa5\x87,psp,,,,,,'
p2404
ssbsg28
I00
sg29
I00
sg30
Nsg31
Nsg32
I13
sg33
I6
sg34
Nsg35
Nsg36
S'PSP'
p2405
sg38
g2392
sg39
I00
sba(issf_api
Word
p2406
(dp2407
g6
I00
sg7
V\u0917\u093e\u0902\u0917\u0941\u0932\u0940
p2408
sg9
(issf_api
FeatureSet
p2409
(dp2410
g12
(dp2411
S'crefhead'
p2412
S'\xe0\xa4\x97\xe0\xa4\xbe\xe0\xa4\x82\xe0\xa4\x97\xe0\xa5\x81\xe0\xa4\xb2\xe0\xa5\x80:i18'
p2413
sS'posn'
p2414
S'300'
p2415
sS'name'
p2416
S'\xe0\xa4\x97\xe0\xa4\xbe\xe0\xa4\x82\xe0\xa4\x97\xe0\xa5\x81\xe0\xa4\xb2\xe0\xa5\x80'
p2417
sS'af'
p2418
S'\xe0\xa4\x97\xe0\xa4\xbe\xe0\xa4\x82\xe0\xa4\x97\xe0\xa5\x81\xe0\xa4\xb2\xe0\xa5\x80,n,m,sg,3,o,0_\xe0\xa4\x95\xe0\xa4\xbe,0'
p2419
sS'chunkid'
p2420
S'NP11'
p2421
sS'creftype'
p2422
S'Coreference-Identity:i3'
p2423
sS'chunktype'
p2424
S'head:NP11'
p2425
sS'vpos'
p2426
S'vib_2'
p2427
sS'cref'
p2428
S'i18%1:t1'
p2429
sS'drel'
p2430
S'r6:NP12'
p2431
ssbsg28
I00
sg29
I00
sg30
Nsg31
Nsg32
I14
sg33
I6
sg34
Nsg35
Nsg36
S'NNP'
p2432
sg38
g2409
sg39
I00
sba(issf_api
Word
p2433
(dp2434
g6
I00
sg7
V\u0915\u0947
p2435
sg9
(issf_api
FeatureSet
p2436
(dp2437
g12
(dp2438
S'posn'
p2439
S'310'
p2440
sS'name'
p2441
S'\xe0\xa4\x95\xe0\xa5\x874'
p2442
sS'drel'
p2443
S'lwg__psp:NP11'
p2444
sS'chunktype'
p2445
S'child:NP11'
p2446
sS'af'
p2447
S'\xe0\xa4\x95\xe0\xa4\xbe,psp,m,sg,,o,,'
p2448
ssbsg28
I00
sg29
I00
sg30
Nsg31
Nsg32
I14
sg33
I6
sg34
Nsg35
Nsg36
S'PSP'
p2449
sg38
g2436
sg39
I00
sba(issf_api
Word
p2450
(dp2451
g6
I00
sg7
V\u0909\u0938
p2452
sg9
(issf_api
FeatureSet
p2453
(dp2454
g12
(dp2455
S'posn'
p2456
S'320'
p2457
sS'name'
p2458
S'\xe0\xa4\x89\xe0\xa4\xb8'
p2459
sS'af'
p2460
S'\xe0\xa4\xb5\xe0\xa4\xb9,pn,any,sg,3,o,,'
p2461
sS'drel'
p2462
S'nmod__adj:NP12'
p2463
sS'chunktype'
p2464
S'child:NP12'
p2465
sS'cref'
p2466
S'i19%0:t10'
p2467
ssbsg28
I00
sg29
I00
sg30
Nsg31
Nsg32
I15
sg33
I6
sg34
Nsg35
Nsg36
S'DEM'
p2468
sg38
g2453
sg39
I00
sba(issf_api
Word
p2469
(dp2470
g6
I00
sg7
V\u092a\u0924\u094d\u0930
p2471
sg9
(issf_api
FeatureSet
p2472
(dp2473
g12
(dp2474
S'crefhead'
p2475
S'\xe0\xa4\xaa\xe0\xa4\xa4\xe0\xa5\x8d\xe0\xa4\xb0:i19'
p2476
sS'posn'
p2477
S'330'
p2478
sS'name'
p2479
S'\xe0\xa4\xaa\xe0\xa4\xa4\xe0\xa5\x8d\xe0\xa4\xb0'
p2480
sS'af'
p2481
S'\xe0\xa4\xaa\xe0\xa4\xa4\xe0\xa5\x8d\xe0\xa4\xb0,n,m,sg,3,o,0_\xe0\xa4\x95\xe0\xa5\x8b,0'
p2482
sS'chunkid'
p2483
S'NP12'
p2484
sS'chunktype'
p2485
S'head:NP12'
p2486
sS'crefchainhead'
p2487
S'i19:t10'
p2488
sS'vpos'
p2489
S'vib_3'
p2490
sS'cref'
p2491
S'i19%1:t10'
p2492
sS'drel'
p2493
S'k2:VGNN'
p2494
ssbsg28
I00
sg29
I00
sg30
Nsg31
Nsg32
I15
sg33
I6
sg34
Nsg35
Nsg36
S'NN'
p2495
sg38
g2472
sg39
I00
sba(issf_api
Word
p2496
(dp2497
g6
I00
sg7
V\u0915\u094b
p2498
sg9
(issf_api
FeatureSet
p2499
(dp2500
g12
(dp2501
S'posn'
p2502
S'340'
p2503
sS'name'
p2504
S'\xe0\xa4\x95\xe0\xa5\x8b'
p2505
sS'drel'
p2506
S'lwg__psp:NP12'
p2507
sS'chunktype'
p2508
S'child:NP12'
p2509
sS'af'
p2510
S'\xe0\xa4\x95\xe0\xa5\x8b,psp,,,,,,'
p2511
ssbsg28
I00
sg29
I00
sg30
Nsg31
Nsg32
I15
sg33
I6
sg34
Nsg35
Nsg36
S'PSP'
p2512
sg38
g2499
sg39
I00
sba(issf_api
Word
p2513
(dp2514
g6
I00
sg7
V\u0938\u094d\u0935\u0940\u0915\u093e\u0930
p2515
sg9
(issf_api
FeatureSet
p2516
(dp2517
g12
(dp2518
S'posn'
p2519
S'350'
p2520
sS'name'
p2521
S'\xe0\xa4\xb8\xe0\xa5\x8d\xe0\xa4\xb5\xe0\xa5\x80\xe0\xa4\x95\xe0\xa4\xbe\xe0\xa4\xb0'
p2522
sS'af'
p2523
S'\xe0\xa4\xb8\xe0\xa5\x8d\xe0\xa4\xb5\xe0\xa5\x80\xe0\xa4\x95\xe0\xa4\xbe\xe0\xa4\xb0,n,m,sg,3,d,0,0'
p2524
sS'chunkid'
p2525
S'NP13'
p2526
sS'drel'
p2527
S'pof:VGNN'
p2528
sS'chunktype'
p2529
S'head:NP13'
p2530
ssbsg28
I00
sg29
I00
sg30
Nsg31
Nsg32
I16
sg33
I6
sg34
Nsg35
Nsg36
S'NN'
p2531
sg38
g2516
sg39
I00
sba(issf_api
Word
p2532
(dp2533
g6
I00
sg7
V\u0915\u0930\u0928\u0947
p2534
sg9
(issf_api
FeatureSet
p2535
(dp2536
g12
(dp2537
S'posn'
p2538
S'360'
p2539
sS'name'
p2540
S'\xe0\xa4\x95\xe0\xa4\xb0\xe0\xa4\xa8\xe0\xa5\x87'
p2541
sS'af'
p2542
S'\xe0\xa4\x95\xe0\xa4\xb0,v,any,sg,any,o,\xe0\xa4\xa8\xe0\xa4\xbe_\xe0\xa4\x95\xe0\xa4\xbe,nA'
p2543
sS'chunkid'
p2544
S'VGNN'
p2545
sS'drel'
p2546
S'r6-k2:NP14'
p2547
sS'vpos'
p2548
S'tam_2'
p2549
sS'chunktype'
p2550
S'head:VGNN'
p2551
ssbsg28
I00
sg29
I00
sg30
Nsg31
Nsg32
I17
sg33
I6
sg34
Nsg35
Nsg36
S'VM'
p2552
sg38
g2535
sg39
I00
sba(issf_api
Word
p2553
(dp2554
g6
I00
sg7
V\u0915\u093e
p2555
sg9
(issf_api
FeatureSet
p2556
(dp2557
g12
(dp2558
S'posn'
p2559
S'370'
p2560
sS'name'
p2561
S'\xe0\xa4\x95\xe0\xa4\xbe'
p2562
sS'drel'
p2563
S'lwg__psp:VGNN'
p2564
sS'chunktype'
p2565
S'child:VGNN'
p2566
sS'af'
p2567
S'\xe0\xa4\x95\xe0\xa4\xbe,psp,m,sg,,d,,'
p2568
ssbsg28
I00
sg29
I00
sg30
Nsg31
Nsg32
I17
sg33
I6
sg34
Nsg35
Nsg36
S'PSP'
p2569
sg38
g2556
sg39
I00
sba(issf_api
Word
p2570
(dp2571
g6
I00
sg7
V\u092b\u0948\u0938\u0932\u093e
p2572
sg9
(issf_api
FeatureSet
p2573
(dp2574
g12
(dp2575
S'posn'
p2576
S'380'
p2577
sS'name'
p2578
S'\xe0\xa4\xab\xe0\xa5\x88\xe0\xa4\xb8\xe0\xa4\xb2\xe0\xa4\xbe'
p2579
sS'af'
p2580
S'\xe0\xa4\xab\xe0\xa5\x88\xe0\xa4\xb8\xe0\xa4\xb2\xe0\xa4\xbe,n,m,sg,3,d,0,0'
p2581
sS'chunkid'
p2582
S'NP14'
p2583
sS'drel'
p2584
S'pof:VGF2'
p2585
sS'chunktype'
p2586
S'head:NP14'
p2587
ssbsg28
I00
sg29
I00
sg30
Nsg31
Nsg32
I18
sg33
I6
sg34
Nsg35
Nsg36
S'NN'
p2588
sg38
g2573
sg39
I00
sba(issf_api
Word
p2589
(dp2590
g6
I00
sg7
V\u0915\u093f\u092f\u093e
p2591
sg9
(issf_api
FeatureSet
p2592
(dp2593
g12
(dp2594
S'posn'
p2595
S'390'
p2596
sS'name'
p2597
S'\xe0\xa4\x95\xe0\xa4\xbf\xe0\xa4\xaf\xe0\xa4\xbe'
p2598
sS'af'
p2599
S'\xe0\xa4\x95\xe0\xa4\xb0,v,m,sg,any,,\xe0\xa4\xaf\xe0\xa4\xbe,yA'
p2600
sS'chunkid'
p2601
S'VGF2'
p2602
sS'stype'
p2603
S'declarative'
p2604
sS'drel'
p2605
S'ccof:CCP'
p2606
sS'voicetype'
p2607
S'active'
p2608
sS'chunktype'
p2609
S'head:VGF2'
p2610
ssbsg28
I00
sg29
I00
sg30
Nsg31
Nsg32
I19
sg33
I6
sg34
Nsg35
Nsg36
S'VM'
p2611
sg38
g2592
sg39
I00
sba(issf_api
Word
p2612
(dp2613
g6
I00
sg7
V\u091c\u093f\u0938\u092e\u0947\u0902
p2614
sg9
(issf_api
FeatureSet
p2615
(dp2616
g12
(dp2617
S'crefhead'
p2618
S'\xe0\xa4\x9c\xe0\xa4\xbf\xe0\xa4\xb8\xe0\xa4\xae\xe0\xa5\x87\xe0\xa4\x82:i20'
p2619
sS'posn'
p2620
S'400'
p2621
sS'name'
p2622
S'\xe0\xa4\x9c\xe0\xa4\xbf\xe0\xa4\xb8\xe0\xa4\xae\xe0\xa5\x87\xe0\xa4\x82'
p2623
sS'af'
p2624
S'\xe0\xa4\x9c\xe0\xa5\x8b,pn,any,sg,3,o,\xe0\xa4\xae\xe0\xa5\x87\xe0\xa4\x82,meM'
p2625
sS'coref'
p2626
S':NP12'
p2627
sS'chunkid'
p2628
S'NP15'
p2629
sS'creftype'
p2630
S'Anaphora-C:i19'
p2631
sS'chunktype'
p2632
S'head:NP15'
p2633
sS'cref'
p2634
S'i20%1:t10'
p2635
sS'drel'
p2636
S'k7:VGF3'
p2637
ssbsg28
I00
sg29
I00
sg30
Nsg31
Nsg32
I20
sg33
I6
sg34
Nsg35
Nsg36
S'PRP'
p2638
sg38
g2615
sg39
I00
sba(issf_api
Word
p2639
(dp2640
g6
I00
sg7
V\u0909\u0928\u094d\u0939\u094b\u0902\u0928\u0947
p2641
sg9
(issf_api
FeatureSet
p2642
(dp2643
g12
(dp2644
S'crefhead'
p2645
S'\xe0\xa4\x89\xe0\xa4\xa8\xe0\xa5\x8d\xe0\xa4\xb9\xe0\xa5\x8b\xe0\xa4\x82\xe0\xa4\xa8\xe0\xa5\x87:i21'
p2646
sS'posn'
p2647
S'410'
p2648
sS'name'
p2649
S'\xe0\xa4\x89\xe0\xa4\xa8\xe0\xa5\x8d\xe0\xa4\xb9\xe0\xa5\x8b\xe0\xa4\x82\xe0\xa4\xa8\xe0\xa5\x87'
p2650
sS'af'
p2651
S'\xe0\xa4\xb5\xe0\xa4\xb9,pn,any,sg,3h,o,\xe0\xa4\xa8\xe0\xa5\x87,ne'
p2652
sS'chunkid'
p2653
S'NP16'
p2654
sS'creftype'
p2655
S'Anaphora-C:i18'
p2656
sS'chunktype'
p2657
S'head:NP16'
p2658
sS'cref'
p2659
S'i21%1:t1'
p2660
sS'drel'
p2661
S'k1:VGF3'
p2662
ssbsg28
I00
sg29
I00
sg30
Nsg31
Nsg32
I21
sg33
I6
sg34
Nsg35
Nsg36
S'PRP'
p2663
sg38
g2642
sg39
I00
sba(issf_api
Word
p2664
(dp2665
g6
I00
sg7
V\u0916\u0941\u0926
p2666
sg9
(issf_api
FeatureSet
p2667
(dp2668
g12
(dp2669
S'crefhead'
p2670
S'\xe0\xa4\x96\xe0\xa5\x81\xe0\xa4\xa6:i22'
p2671
sS'posn'
p2672
S'420'
p2673
sS'name'
p2674
S'\xe0\xa4\x96\xe0\xa5\x81\xe0\xa4\xa6'
p2675
sS'af'
p2676
S'\xe0\xa4\x96\xe0\xa5\x81\xe0\xa4\xa6,pn,any,any,any,o,0_\xe0\xa4\x95\xe0\xa4\xbe,0'
p2677
sS'chunkid'
p2678
S'NP17'
p2679
sS'creftype'
p2680
S'Anaphora-C:i21'
p2681
sS'chunktype'
p2682
S'head:NP17'
p2683
sS'vpos'
p2684
S'vib_2'
p2685
sS'cref'
p2686
S'i22%1:t1'
p2687
sS'drel'
p2688
S'k1:VGNN2'
p2689
ssbsg28
I00
sg29
I00
sg30
Nsg31
Nsg32
I22
sg33
I6
sg34
Nsg35
Nsg36
S'PRP'
p2690
sg38
g2667
sg39
I00
sba(issf_api
Word
p2691
(dp2692
g6
I00
sg7
V\u0915\u0947
p2693
sg9
(issf_api
FeatureSet
p2694
(dp2695
g12
(dp2696
S'posn'
p2697
S'430'
p2698
sS'name'
p2699
S'\xe0\xa4\x95\xe0\xa5\x875'
p2700
sS'drel'
p2701
S'lwg__psp:NP17'
p2702
sS'chunktype'
p2703
S'child:NP17'
p2704
sS'af'
p2705
S'\xe0\xa4\x95\xe0\xa4\xbe,psp,,,,o,,'
p2706
ssbsg28
I00
sg29
I00
sg30
Nsg31
Nsg32
I22
sg33
I6
sg34
Nsg35
Nsg36
S'PSP'
p2707
sg38
g2694
sg39
I00
sba(issf_api
Word
p2708
(dp2709
g6
I00
sg7
V\u092b\u093f\u091f
p2710
sg9
(issf_api
FeatureSet
p2711
(dp2712
g12
(dp2713
S'posn'
p2714
S'440'
p2715
sS'name'
p2716
S'\xe0\xa4\xab\xe0\xa4\xbf\xe0\xa4\x9f'
p2717
sS'af'
p2718
S'\xe0\xa4\xab\xe0\xa4\xbf\xe0\xa4\x9f,adj,any,any,,,,'
p2719
sS'chunkid'
p2720
S'JJP2'
p2721
sS'drel'
p2722
S'pof:VGNN2'
p2723
sS'chunktype'
p2724
S'head:JJP2'
p2725
ssbsg28
I00
sg29
I00
sg30
Nsg31
Nsg32
I23
sg33
I6
sg34
Nsg35
Nsg36
S'JJ'
p2726
sg38
g2711
sg39
I00
sba(issf_api
Word
p2727
(dp2728
g6
I00
sg7
V\u0939\u094b\u0928\u0947
p2729
sg9
(issf_api
FeatureSet
p2730
(dp2731
g12
(dp2732
S'posn'
p2733
S'450'
p2734
sS'name'
p2735
S'\xe0\xa4\xb9\xe0\xa5\x8b\xe0\xa4\xa8\xe0\xa5\x87'
p2736
sS'af'
p2737
S'\xe0\xa4\xb9\xe0\xa5\x8b,v,any,sg,any,o,\xe0\xa4\xa8\xe0\xa4\xbe_\xe0\xa4\x95\xe0\xa4\xbe,nA'
p2738
sS'chunkid'
p2739
S'VGNN2'
p2740
sS'drel'
p2741
S'r6:NP18'
p2742
sS'vpos'
p2743
S'tam_2'
p2744
sS'chunktype'
p2745
S'head:VGNN2'
p2746
ssbsg28
I00
sg29
I00
sg30
Nsg31
Nsg32
I24
sg33
I6
sg34
Nsg35
Nsg36
S'VM'
p2747
sg38
g2730
sg39
I00
sba(issf_api
Word
p2748
(dp2749
g6
I00
sg7
V\u0915\u0940
p2750
sg9
(issf_api
FeatureSet
p2751
(dp2752
g12
(dp2753
S'posn'
p2754
S'460'
p2755
sS'name'
p2756
S'\xe0\xa4\x95\xe0\xa5\x803'
p2757
sS'drel'
p2758
S'lwg__psp:VGNN2'
p2759
sS'chunktype'
p2760
S'child:VGNN2'
p2761
sS'af'
p2762
S'\xe0\xa4\x95\xe0\xa4\xbe,psp,f,sg,,d,,'
p2763
ssbsg28
I00
sg29
I00
sg30
Nsg31
Nsg32
I24
sg33
I6
sg34
Nsg35
Nsg36
S'PSP'
p2764
sg38
g2751
sg39
I00
sba(issf_api
Word
p2765
(dp2766
g6
I00
sg7
V\u0938\u0942\u091a\u0928\u093e
p2767
sg9
(issf_api
FeatureSet
p2768
(dp2769
g12
(dp2770
S'posn'
p2771
S'470'
p2772
sS'name'
p2773
S'\xe0\xa4\xb8\xe0\xa5\x82\xe0\xa4\x9a\xe0\xa4\xa8\xe0\xa4\xbe'
p2774
sS'af'
p2775
S'\xe0\xa4\xb8\xe0\xa5\x82\xe0\xa4\x9a\xe0\xa4\xa8\xe0\xa4\xbe,n,f,sg,3,d,0,0'
p2776
sS'chunkid'
p2777
S'NP18'
p2778
sS'drel'
p2779
S'k2:VGF3'
p2780
sS'chunktype'
p2781
S'head:NP18'
p2782
ssbsg28
I00
sg29
I00
sg30
Nsg31
Nsg32
I25
sg33
I6
sg34
Nsg35
Nsg36
S'NN'
p2783
sg38
g2768
sg39
I00
sba(issf_api
Word
p2784
(dp2785
g6
I00
sg7
V\u0926\u0940
p2786
sg9
(issf_api
FeatureSet
p2787
(dp2788
g12
(dp2789
S'posn'
p2790
S'480'
p2791
sS'name'
p2792
S'\xe0\xa4\xa6\xe0\xa5\x80'
p2793
sS'af'
p2794
S'\xe0\xa4\xa6\xe0\xa5\x87,v,f,sg,3,,\xe0\xa4\xaf\xe0\xa4\xbe_\xe0\xa4\xb9\xe0\xa5\x88,yA'
p2795
sS'chunkid'
p2796
S'VGF3'
p2797
sS'stype'
p2798
S'declarative'
p2799
sS'drel'
p2800
S'nmod__relc:NP12'
p2801
sS'voicetype'
p2802
S'active'
p2803
sS'vpos'
p2804
S'tam_2'
p2805
sS'chunktype'
p2806
S'head:VGF3'
p2807
ssbsg28
I00
sg29
I00
sg30
Nsg31
Nsg32
I26
sg33
I6
sg34
Nsg35
Nsg36
S'VM'
p2808
sg38
g2787
sg39
I00
sba(issf_api
Word
p2809
(dp2810
g6
I00
sg7
V\u0939\u0948
p2811
sg9
(issf_api
FeatureSet
p2812
(dp2813
g12
(dp2814
S'posn'
p2815
S'490'
p2816
sS'name'
p2817
S'\xe0\xa4\xb9\xe0\xa5\x88'
p2818
sS'drel'
p2819
S'lwg__vaux:VGF3'
p2820
sS'chunktype'
p2821
S'child:VGF3'
p2822
sS'af'
p2823
S'\xe0\xa4\xb9\xe0\xa5\x88,v,any,sg,3,,\xe0\xa4\xb9\xe0\xa5\x88,hE'
p2824
ssbsg28
I00
sg29
I00
sg30
Nsg31
Nsg32
I26
sg33
I6
sg34
Nsg35
Nsg36
S'VAUX'
p2825
sg38
g2812
sg39
I00
sba(issf_api
Word
p2826
(dp2827
g6
I00
sg7
V\u0964
p2828
sg9
(issf_api
FeatureSet
p2829
(dp2830
g12
(dp2831
S'posn'
p2832
S'500'
p2833
sS'name'
p2834
S'\xe0\xa5\xa4'
p2835
sS'af'
p2836
S'\xe0\xa5\xa4,punc,,,,,,'
p2837
sS'chunkid'
p2838
S'BLK'
p2839
sS'drel'
p2840
S'rsym:VGF'
p2841
sS'chunktype'
p2842
S'head:BLK'
p2843
ssbsg28
I00
sg29
I00
sg30
Nsg31
Nsg32
I27
sg33
I6
sg34
Nsg35
Nsg36
S'SYM'
p2844
sg38
g2829
sg39
I00
sba(issf_api
Word
p2845
(dp2846
g6
I00
sg7
V\u091f\u0940\u092e
p2847
sg9
(issf_api
FeatureSet
p2848
(dp2849
g12
(dp2850
S'crefhead'
p2851
S'\xe0\xa4\x9f\xe0\xa5\x80\xe0\xa4\xae:i23'
p2852
sS'posn'
p2853
S'10'
p2854
sS'name'
p2855
S'\xe0\xa4\x9f\xe0\xa5\x80\xe0\xa4\xae'
p2856
sS'af'
p2857
S'\xe0\xa4\x9f\xe0\xa5\x80\xe0\xa4\xae,n,f,sg,3,d,0,0'
p2858
sS'chunkid'
p2859
S'NP'
p2860
sS'creftype'
p2861
S'Coreference-Identity:i13'
p2862
sS'chunktype'
p2863
S'head:NP'
p2864
sS'cref'
p2865
S'i23%1:t3'
p2866
sS'drel'
p2867
S'k1:VGF'
p2868
ssbsg28
I00
sg29
I00
sg30
Nsg31
Nsg32
I0
sg33
I7
sg34
Nsg35
Nsg36
S'NN'
p2869
sg38
g2848
sg39
I00
sba(issf_api
Word
p2870
(dp2871
g6
I00
sg7
V\u0907\u0938
p2872
sg9
(issf_api
FeatureSet
p2873
(dp2874
g12
(dp2875
S'posn'
p2876
S'20'
p2877
sS'name'
p2878
S'\xe0\xa4\x87\xe0\xa4\xb8'
p2879
sS'drel'
p2880
S'nmod__adj:NP2'
p2881
sS'chunktype'
p2882
S'child:NP2'
p2883
sS'af'
p2884
S'\xe0\xa4\xaf\xe0\xa4\xb9,pn,any,sg,3,o,,'
p2885
ssbsg28
I00
sg29
I00
sg30
Nsg31
Nsg32
I1
sg33
I7
sg34
Nsg35
Nsg36
S'DEM'
p2886
sg38
g2873
sg39
I00
sba(issf_api
Word
p2887
(dp2888
g6
I00
sg7
V\u092a\u094d\u0930\u0915\u093e\u0930
p2889
sg9
(issf_api
FeatureSet
p2890
(dp2891
g12
(dp2892
S'posn'
p2893
S'30'
p2894
sS'name'
p2895
S'\xe0\xa4\xaa\xe0\xa5\x8d\xe0\xa4\xb0\xe0\xa4\x95\xe0\xa4\xbe\xe0\xa4\xb0'
p2896
sS'af'
p2897
S'\xe0\xa4\xaa\xe0\xa5\x8d\xe0\xa4\xb0\xe0\xa4\x95\xe0\xa4\xbe\xe0\xa4\xb0,n,m,sg,3,d,0,0'
p2898
sS'chunkid'
p2899
S'NP2'
p2900
sS'drel'
p2901
S'k1s:VGF'
p2902
sS'chunktype'
p2903
S'head:NP2'
p2904
ssbsg28
I00
sg29
I00
sg30
Nsg31
Nsg32
I1
sg33
I7
sg34
Nsg35
Nsg36
S'NN'
p2905
sg38
g2890
sg39
I00
sba(issf_api
Word
p2906
(dp2907
g6
I00
sg7
V\u0939\u0948
p2908
sg9
(issf_api
FeatureSet
p2909
(dp2910
g12
(dp2911
S'posn'
p2912
S'40'
p2913
sS'name'
p2914
S'\xe0\xa4\xb9\xe0\xa5\x88'
p2915
sS'af'
p2916
S'\xe0\xa4\xb9\xe0\xa5\x88,v,any,sg,3,,\xe0\xa4\xb9\xe0\xa5\x88,hE'
p2917
sS'chunkid'
p2918
S'VGF'
p2919
sS'chunktype'
p2920
S'head:VGF'
p2921
sS'voicetype'
p2922
S'active'
p2923
sS'stype'
p2924
S'declarative'
p2925
ssbsg28
I00
sg29
I00
sg30
Nsg31
Nsg32
I2
sg33
I7
sg34
Nsg35
Nsg36
S'VM'
p2926
sg38
g2909
sg39
I00
sba(issf_api
Word
p2927
(dp2928
g6
I00
sg7
V-
p2929
sg9
(issf_api
FeatureSet
p2930
(dp2931
g12
(dp2932
S'posn'
p2933
S'50'
p2934
sS'name'
p2935
g553
sS'drel'
p2936
S'rsym:VGF'
p2937
sS'chunktype'
p2938
S'child:VGF'
p2939
sS'af'
p2940
S'-,punc,,,,,,'
p2941
ssbsg28
I00
sg29
I00
sg30
Nsg31
Nsg32
I2
sg33
I7
sg34
Nsg35
Nsg36
S'SYM'
p2942
sg38
g2930
sg39
I00
sba(issf_api
Word
p2943
(dp2944
g6
I00
sg7
V\u0938\u094c\u0930\u0935
p2945
sg9
(issf_api
FeatureSet
p2946
(dp2947
g12
(dp2948
S'posn'
p2949
S'60'
p2950
sS'name'
p2951
S'\xe0\xa4\xb8\xe0\xa5\x8c\xe0\xa4\xb0\xe0\xa4\xb5'
p2952
sS'af'
p2953
S'\xe0\xa4\xb8\xe0\xa5\x8c\xe0\xa4\xb0\xe0\xa4\xb5,n,m,sg,3,d,0,0'
p2954
sS'drel'
p2955
S'pof__cn:NP3'
p2956
sS'chunktype'
p2957
S'child:NP3'
p2958
sS'cref'
p2959
S'i24%0:t1'
p2960
ssbsg28
I00
sg29
I00
sg30
Nsg31
Nsg32
I3
sg33
I7
sg34
Nsg35
Nsg36
S'NNPC'
p2961
sg38
g2946
sg39
I00
sba(issf_api
Word
p2962
(dp2963
g6
I00
sg7
V\u0917\u093e\u0902\u0917\u0941\u0932\u0940
p2964
sg9
(issf_api
FeatureSet
p2965
(dp2966
g12
(dp2967
S'crefhead'
p2968
S'\xe0\xa4\x97\xe0\xa4\xbe\xe0\xa4\x82\xe0\xa4\x97\xe0\xa5\x81\xe0\xa4\xb2\xe0\xa5\x80:i24'
p2969
sS'posn'
p2970
S'70'
p2971
sS'name'
p2972
S'\xe0\xa4\x97\xe0\xa4\xbe\xe0\xa4\x82\xe0\xa4\x97\xe0\xa5\x81\xe0\xa4\xb2\xe0\xa5\x80'
p2973
sS'af'
p2974
S'\xe0\xa4\x97\xe0\xa4\xbe\xe0\xa4\x82\xe0\xa4\x97\xe0\xa5\x81\xe0\xa4\xb2\xe0\xa5\x80,n,m,sg,3,d,0,0'
p2975
sS'chunkid'
p2976
S'NP3'
p2977
sS'creftype'
p2978
S'Coreference-Identity:i22'
p2979
sS'chunktype'
p2980
S'head:NP3'
p2981
sS'cref'
p2982
S'i24%1:t1'
p2983
sS'drel'
p2984
S'ccof:CCP'
p2985
ssbsg28
I00
sg29
I00
sg30
Nsg31
Nsg32
I3
sg33
I7
sg34
Nsg35
Nsg36
S'NNP'
p2986
sg38
g2965
sg39
I00
sba(issf_api
Word
p2987
(dp2988
g6
I00
sg7
V(
p2989
sg9
(issf_api
FeatureSet
p2990
(dp2991
g12
(dp2992
S'posn'
p2993
S'80'
p2994
sS'name'
p2995
S'('
p2996
sS'drel'
p2997
S'rsym:NP4'
p2998
sS'chunktype'
p2999
S'child:NP4'
p3000
sS'af'
p3001
S',punc,,,,,,'
p3002
ssbsg28
I00
sg29
I00
sg30
Nsg31
Nsg32
I4
sg33
I7
sg34
Nsg35
Nsg36
S'SYM'
p3003
sg38
g2990
sg39
I00
sba(issf_api
Word
p3004
(dp3005
g6
I00
sg7
V\u0915\u092a\u094d\u0924\u093e\u0928
p3006
sg9
(issf_api
FeatureSet
p3007
(dp3008
g12
(dp3009
S'crefhead'
p3010
S'\xe0\xa4\x95\xe0\xa4\xaa\xe0\xa5\x8d\xe0\xa4\xa4\xe0\xa4\xbe\xe0\xa4\xa8:i25'
p3011
sS'posn'
p3012
S'90'
p3013
sS'name'
p3014
S'\xe0\xa4\x95\xe0\xa4\xaa\xe0\xa5\x8d\xe0\xa4\xa4\xe0\xa4\xbe\xe0\xa4\xa8'
p3015
sS'af'
p3016
S'\xe0\xa4\x95\xe0\xa4\xaa\xe0\xa5\x8d\xe0\xa4\xa4\xe0\xa4\xbe\xe0\xa4\xa8,n,m,sg,3,d,0,0'
p3017
sS'chunkid'
p3018
S'NP4'
p3019
sS'creftype'
p3020
S'Coreference-Noun-Noun:i24'
p3021
sS'chunktype'
p3022
S'head:NP4'
p3023
sS'cref'
p3024
S'i25%1:t1'
p3025
sS'drel'
p3026
S'nmod:NP3'
p3027
ssbsg28
I00
sg29
I00
sg30
Nsg31
Nsg32
I4
sg33
I7
sg34
Nsg35
Nsg36
S'NN'
p3028
sg38
g3007
sg39
I00
sba(issf_api
Word
p3029
(dp3030
g6
I00
sg7
V)
p3031
sg9
(issf_api
FeatureSet
p3032
(dp3033
g12
(dp3034
S'posn'
p3035
S'100'
p3036
sS'name'
p3037
S')'
p3038
sS'drel'
p3039
S'rsym:NP4'
p3040
sS'chunktype'
p3041
S'child:NP4'
p3042
sS'af'
p3043
S',punc,,,,,,'
p3044
ssbsg28
I00
sg29
I00
sg30
Nsg31
Nsg32
I4
sg33
I7
sg34
Nsg35
Nsg36
S'SYM'
p3045
sg38
g3032
sg39
I00
sba(issf_api
Word
p3046
(dp3047
g6
I00
sg7
V,
p3048
sg9
(issf_api
FeatureSet
p3049
(dp3050
g12
(dp3051
S'posn'
p3052
S'110'
p3053
sS'name'
p3054
g980
sS'drel'
p3055
S'rsym:NP4'
p3056
sS'chunktype'
p3057
S'child:NP4'
p3058
sS'af'
p3059
S'COMMA,punc,,,,,,'
p3060
ssbsg28
I00
sg29
I00
sg30
Nsg31
Nsg32
I4
sg33
I7
sg34
Nsg35
Nsg36
S'SYM'
p3061
sg38
g3049
sg39
I00
sba(issf_api
Word
p3062
(dp3063
g6
I00
sg7
V\u0930\u093e\u0939\u0941\u0932
p3064
sg9
(issf_api
FeatureSet
p3065
(dp3066
g12
(dp3067
S'posn'
p3068
S'120'
p3069
sS'name'
p3070
S'\xe0\xa4\xb0\xe0\xa4\xbe\xe0\xa4\xb9\xe0\xa5\x81\xe0\xa4\xb2'
p3071
sS'drel'
p3072
S'pof__cn:NP5'
p3073
sS'chunktype'
p3074
S'child:NP5'
p3075
sS'af'
p3076
S'\xe0\xa4\xb0\xe0\xa4\xbe\xe0\xa4\xb9\xe0\xa5\x81\xe0\xa4\xb2,n,m,sg,3,d,0,0'
p3077
ssbsg28
I00
sg29
I00
sg30
Nsg31
Nsg32
I5
sg33
I7
sg34
Nsg35
Nsg36
S'NNPC'
p3078
sg38
g3065
sg39
I00
sba(issf_api
Word
p3079
(dp3080
g6
I00
sg7
V\u0926\u094d\u0930\u0935\u093f\u0921\u093c
p3081
sg9
(issf_api
FeatureSet
p3082
(dp3083
g12
(dp3084
S'posn'
p3085
S'130'
p3086
sS'name'
p3087
S'\xe0\xa4\xa6\xe0\xa5\x8d\xe0\xa4\xb0\xe0\xa4\xb5\xe0\xa4\xbf\xe0\xa4\xa1\xe0\xa4\xbc'
p3088
sS'af'
p3089
S'\xe0\xa4\xa6\xe0\xa5\x8d\xe0\xa4\xb0\xe0\xa4\xb5\xe0\xa4\xbf\xe0\xa4\xa1,n,m,sg,3,d,0,0'
p3090
sS'chunkid'
p3091
S'NP5'
p3092
sS'drel'
p3093
S'ccof:CCP'
p3094
sS'chunktype'
p3095
S'head:NP5'
p3096
ssbsg28
I00
sg29
I00
sg30
Nsg31
Nsg32
I5
sg33
I7
sg34
Nsg35
Nsg36
S'NNP'
p3097
sg38
g3082
sg39
I00
sba(issf_api
Word
p3098
(dp3099
g6
I00
sg7
V(
p3100
sg9
(issf_api
FeatureSet
p3101
(dp3102
g12
(dp3103
S'posn'
p3104
S'140'
p3105
sS'name'
p3106
S'(2'
p3107
sS'drel'
p3108
S'rsym:NP6'
p3109
sS'chunktype'
p3110
S'child:NP6'
p3111
sS'af'
p3112
S',punc,,,,,,'
p3113
ssbsg28
I00
sg29
I00
sg30
Nsg31
Nsg32
I6
sg33
I7
sg34
Nsg35
Nsg36
S'SYM'
p3114
sg38
g3101
sg39
I00
sba(issf_api
Word
p3115
(dp3116
g6
I00
sg7
V\u0909\u092a
p3117
sg9
(issf_api
FeatureSet
p3118
(dp3119
g12
(dp3120
S'posn'
p3121
S'150'
p3122
sS'name'
p3123
S'\xe0\xa4\x89\xe0\xa4\xaa'
p3124
sS'drel'
p3125
S'pof__cn:NP6'
p3126
sS'chunktype'
p3127
S'child:NP6'
p3128
sS'af'
p3129
S'\xe0\xa4\x89\xe0\xa4\xaa,adj,any,any,,d,,'
p3130
ssbsg28
I00
sg29
I00
sg30
Nsg31
Nsg32
I6
sg33
I7
sg34
Nsg35
Nsg36
S'NNC'
p3131
sg38
g3118
sg39
I00
sba(issf_api
Word
p3132
(dp3133
g6
I00
sg7
V-
p3134
sg9
(issf_api
FeatureSet
p3135
(dp3136
g12
(dp3137
S'posn'
p3138
S'160'
p3139
sS'name'
p3140
S'-2'
p3141
sS'drel'
p3142
S'pof__cn:NP6'
p3143
sS'chunktype'
p3144
S'child:NP6'
p3145
sS'af'
p3146
S'-,punc,,,,,,'
p3147
ssbsg28
I00
sg29
I00
sg30
Nsg31
Nsg32
I6
sg33
I7
sg34
Nsg35
Nsg36
S'SYM'
p3148
sg38
g3135
sg39
I00
sba(issf_api
Word
p3149
(dp3150
g6
I00
sg7
V\u0915\u092a\u094d\u0924\u093e\u0928
p3151
sg9
(issf_api
FeatureSet
p3152
(dp3153
g12
(dp3154
S'posn'
p3155
S'170'
p3156
sS'name'
p3157
S'\xe0\xa4\x95\xe0\xa4\xaa\xe0\xa5\x8d\xe0\xa4\xa4\xe0\xa4\xbe\xe0\xa4\xa82'
p3158
sS'af'
p3159
S'\xe0\xa4\x95\xe0\xa4\xaa\xe0\xa5\x8d\xe0\xa4\xa4\xe0\xa4\xbe\xe0\xa4\xa8,n,m,sg,3,d,0,0'
p3160
sS'chunkid'
p3161
S'NP6'
p3162
sS'drel'
p3163
S'nmod:NP5'
p3164
sS'chunktype'
p3165
S'head:NP6'
p3166
ssbsg28
I00
sg29
I00
sg30
Nsg31
Nsg32
I6
sg33
I7
sg34
Nsg35
Nsg36
S'NN'
p3167
sg38
g3152
sg39
I00
sba(issf_api
Word
p3168
(dp3169
g6
I00
sg7
V)
p3170
sg9
(issf_api
FeatureSet
p3171
(dp3172
g12
(dp3173
S'posn'
p3174
S'180'
p3175
sS'name'
p3176
S')2'
p3177
sS'drel'
p3178
S'rsym:NP6'
p3179
sS'chunktype'
p3180
S'child:NP6'
p3181
sS'af'
p3182
S',punc,,,,,,'
p3183
ssbsg28
I00
sg29
I00
sg30
Nsg31
Nsg32
I6
sg33
I7
sg34
Nsg35
Nsg36
S'SYM'
p3184
sg38
g3171
sg39
I00
sba(issf_api
Word
p3185
(dp3186
g6
I00
sg7
V,
p3187
sg9
(issf_api
FeatureSet
p3188
(dp3189
g12
(dp3190
S'posn'
p3191
S'190'
p3192
sS'name'
p3193
S',2'
p3194
sS'drel'
p3195
S'rsym:NP6'
p3196
sS'chunktype'
p3197
S'child:NP6'
p3198
sS'af'
p3199
S'COMMA,punc,,,,,,'
p3200
ssbsg28
I00
sg29
I00
sg30
Nsg31
Nsg32
I6
sg33
I7
sg34
Nsg35
Nsg36
S'SYM'
p3201
sg38
g3188
sg39
I00
sba(issf_api
Word
p3202
(dp3203
g6
I00
sg7
V\u0935\u0940\u0930\u0947\u0928\u094d\u0926\u094d\u0930
p3204
sg9
(issf_api
FeatureSet
p3205
(dp3206
g12
(dp3207
S'posn'
p3208
S'200'
p3209
sS'name'
p3210
S'\xe0\xa4\xb5\xe0\xa5\x80\xe0\xa4\xb0\xe0\xa5\x87\xe0\xa4\xa8\xe0\xa5\x8d\xe0\xa4\xa6\xe0\xa5\x8d\xe0\xa4\xb0'
p3211
sS'drel'
p3212
S'pof__cn:NP7'
p3213
sS'chunktype'
p3214
S'child:NP7'
p3215
sS'af'
p3216
S'\xe0\xa4\xb5\xe0\xa5\x80\xe0\xa4\xb0\xe0\xa5\x87\xe0\xa4\xa8\xe0\xa5\x8d\xe0\xa4\xa6\xe0\xa5\x8d\xe0\xa4\xb0,n,m,sg,3,d,0,0'
p3217
ssbsg28
I00
sg29
I00
sg30
Nsg31
Nsg32
I7
sg33
I7
sg34
Nsg35
Nsg36
S'NNPC'
p3218
sg38
g3205
sg39
I00
sba(issf_api
Word
p3219
(dp3220
g6
I00
sg7
V\u0938\u0939\u0935\u093e\u0917
p3221
sg9
(issf_api
FeatureSet
p3222
(dp3223
g12
(dp3224
S'posn'
p3225
S'210'
p3226
sS'name'
p3227
S'\xe0\xa4\xb8\xe0\xa4\xb9\xe0\xa4\xb5\xe0\xa4\xbe\xe0\xa4\x97'
p3228
sS'af'
p3229
S'\xe0\xa4\xb8\xe0\xa4\xb9\xe0\xa4\xb5\xe0\xa4\xbe\xe0\xa4\x97,n,m,sg,3,d,0,0'
p3230
sS'chunkid'
p3231
S'NP7'
p3232
sS'drel'
p3233
S'ccof:CCP'
p3234
sS'chunktype'
p3235
S'head:NP7'
p3236
ssbsg28
I00
sg29
I00
sg30
Nsg31
Nsg32
I7
sg33
I7
sg34
Nsg35
Nsg36
S'NNP'
p3237
sg38
g3222
sg39
I00
sba(issf_api
Word
p3238
(dp3239
g6
I00
sg7
V,
p3240
sg9
(issf_api
FeatureSet
p3241
(dp3242
g12
(dp3243
S'posn'
p3244
S'220'
p3245
sS'name'
p3246
S',3'
p3247
sS'drel'
p3248
S'rsym:NP7'
p3249
sS'chunktype'
p3250
S'child:NP7'
p3251
sS'af'
p3252
S'COMMA,punc,,,,,,'
p3253
ssbsg28
I00
sg29
I00
sg30
Nsg31
Nsg32
I7
sg33
I7
sg34
Nsg35
Nsg36
S'SYM'
p3254
sg38
g3241
sg39
I00
sba(issf_api
Word
p3255
(dp3256
g6
I00
sg7
V\u0938\u091a\u093f\u0928
p3257
sg9
(issf_api
FeatureSet
p3258
(dp3259
g12
(dp3260
S'posn'
p3261
S'230'
p3262
sS'name'
p3263
S'\xe0\xa4\xb8\xe0\xa4\x9a\xe0\xa4\xbf\xe0\xa4\xa8'
p3264
sS'drel'
p3265
S'pof__cn:NP8'
p3266
sS'chunktype'
p3267
S'child:NP8'
p3268
sS'af'
p3269
S'\xe0\xa4\xb8\xe0\xa4\x9a\xe0\xa4\xbf\xe0\xa4\xa8,n,m,sg,3,d,0,0'
p3270
ssbsg28
I00
sg29
I00
sg30
Nsg31
Nsg32
I8
sg33
I7
sg34
Nsg35
Nsg36
S'NNPC'
p3271
sg38
g3258
sg39
I00
sba(issf_api
Word
p3272
(dp3273
g6
I00
sg7
V\u0924\u0947\u0902\u0926\u0941\u0932\u0915\u0930
p3274
sg9
(issf_api
FeatureSet
p3275
(dp3276
g12
(dp3277
S'posn'
p3278
S'240'
p3279
sS'name'
p3280
S'\xe0\xa4\xa4\xe0\xa5\x87\xe0\xa4\x82\xe0\xa4\xa6\xe0\xa5\x81\xe0\xa4\xb2\xe0\xa4\x95\xe0\xa4\xb0'
p3281
sS'af'
p3282
S'\xe0\xa4\xa4\xe0\xa5\x87\xe0\xa4\x82\xe0\xa4\xa6\xe0\xa5\x81\xe0\xa4\xb2\xe0\xa4\x95\xe0\xa4\xb0,n,any,sg,3,d,0,0'
p3283
sS'chunkid'
p3284
S'NP8'
p3285
sS'drel'
p3286
S'ccof:CCP'
p3287
sS'chunktype'
p3288
S'head:NP8'
p3289
ssbsg28
I00
sg29
I00
sg30
Nsg31
Nsg32
I8
sg33
I7
sg34
Nsg35
Nsg36
S'NNP'
p3290
sg38
g3275
sg39
I00
sba(issf_api
Word
p3291
(dp3292
g6
I00
sg7
V,
p3293
sg9
(issf_api
FeatureSet
p3294
(dp3295
g12
(dp3296
S'posn'
p3297
S'250'
p3298
sS'name'
p3299
S',4'
p3300
sS'drel'
p3301
S'rsym:NP8'
p3302
sS'chunktype'
p3303
S'child:NP8'
p3304
sS'af'
p3305
S'COMMA,punc,,,,,,'
p3306
ssbsg28
I00
sg29
I00
sg30
Nsg31
Nsg32
I8
sg33
I7
sg34
Nsg35
Nsg36
S'SYM'
p3307
sg38
g3294
sg39
I00
sba(issf_api
Word
p3308
(dp3309
g6
I00
sg7
V\u0935\u0940.
p3310
sg9
(issf_api
FeatureSet
p3311
(dp3312
g12
(dp3313
S'posn'
p3314
S'260'
p3315
sS'name'
p3316
S'\xe0\xa4\xb5\xe0\xa5\x80.'
p3317
sS'drel'
p3318
S'pof__cn:NP9'
p3319
sS'chunktype'
p3320
S'child:NP9'
p3321
sS'af'
p3322
S'\xe0\xa4\xb5\xe0\xa5\x80.,n,m,sg,3,d,0,0'
p3323
ssbsg28
I00
sg29
I00
sg30
Nsg31
Nsg32
I9
sg33
I7
sg34
Nsg35
Nsg36
S'NNPC'
p3324
sg38
g3311
sg39
I00
sba(issf_api
Word
p3325
(dp3326
g6
I00
sg7
V\u0935\u0940.
p3327
sg9
(issf_api
FeatureSet
p3328
(dp3329
g12
(dp3330
S'posn'
p3331
S'270'
p3332
sS'name'
p3333
S'\xe0\xa4\xb5\xe0\xa5\x80.2'
p3334
sS'drel'
p3335
S'pof__cn:NP9'
p3336
sS'chunktype'
p3337
S'child:NP9'
p3338
sS'af'
p3339
S'\xe0\xa4\xb5\xe0\xa5\x80.,n,m,sg,3,d,0,0'
p3340
ssbsg28
I00
sg29
I00
sg30
Nsg31
Nsg32
I9
sg33
I7
sg34
Nsg35
Nsg36
S'NNPC'
p3341
sg38
g3328
sg39
I00
sba(issf_api
Word
p3342
(dp3343
g6
I00
sg7
V\u090f\u0938.
p3344
sg9
(issf_api
FeatureSet
p3345
(dp3346
g12
(dp3347
S'posn'
p3348
S'280'
p3349
sS'name'
p3350
S'\xe0\xa4\x8f\xe0\xa4\xb8.'
p3351
sS'drel'
p3352
S'pof__cn:NP9'
p3353
sS'chunktype'
p3354
S'child:NP9'
p3355
sS'af'
p3356
S'\xe0\xa4\x8f\xe0\xa4\xb8.,n,m,sg,3,d,0,0'
p3357
ssbsg28
I00
sg29
I00
sg30
Nsg31
Nsg32
I9
sg33
I7
sg34
Nsg35
Nsg36
S'NNPC'
p3358
sg38
g3345
sg39
I00
sba(issf_api
Word
p3359
(dp3360
g6
I00
sg7
V\u0932\u0915\u094d\u0937\u094d\u092e\u0923
p3361
sg9
(issf_api
FeatureSet
p3362
(dp3363
g12
(dp3364
S'posn'
p3365
S'290'
p3366
sS'name'
p3367
S'\xe0\xa4\xb2\xe0\xa4\x95\xe0\xa5\x8d\xe0\xa4\xb7\xe0\xa5\x8d\xe0\xa4\xae\xe0\xa4\xa3'
p3368
sS'af'
p3369
S'\xe0\xa4\xb2\xe0\xa4\x95\xe0\xa5\x8d\xe0\xa4\xb7\xe0\xa5\x8d\xe0\xa4\xae\xe0\xa4\xa3,n,m,sg,3,d,0,0'
p3370
sS'chunkid'
p3371
S'NP9'
p3372
sS'drel'
p3373
S'ccof:CCP'
p3374
sS'chunktype'
p3375
S'head:NP9'
p3376
ssbsg28
I00
sg29
I00
sg30
Nsg31
Nsg32
I9
sg33
I7
sg34
Nsg35
Nsg36
S'NNP'
p3377
sg38
g3362
sg39
I00
sba(issf_api
Word
p3378
(dp3379
g6
I00
sg7
V,
p3380
sg9
(issf_api
FeatureSet
p3381
(dp3382
g12
(dp3383
S'posn'
p3384
S'300'
p3385
sS'name'
p3386
S',5'
p3387
sS'drel'
p3388
S'rsym:NP9'
p3389
sS'chunktype'
p3390
S'child:NP9'
p3391
sS'af'
p3392
S'COMMA,punc,,,,,,'
p3393
ssbsg28
I00
sg29
I00
sg30
Nsg31
Nsg32
I9
sg33
I7
sg34
Nsg35
Nsg36
S'SYM'
p3394
sg38
g3381
sg39
I00
sba(issf_api
Word
p3395
(dp3396
g6
I00
sg7
V\u092f\u0941\u0935\u0930\u093e\u091c
p3397
sg9
(issf_api
FeatureSet
p3398
(dp3399
g12
(dp3400
S'posn'
p3401
S'310'
p3402
sS'name'
p3403
S'\xe0\xa4\xaf\xe0\xa5\x81\xe0\xa4\xb5\xe0\xa4\xb0\xe0\xa4\xbe\xe0\xa4\x9c'
p3404
sS'af'
p3405
S'\xe0\xa4\xaf\xe0\xa5\x81\xe0\xa4\xb5\xe0\xa4\xb0\xe0\xa4\xbe\xe0\xa4\x9c,n,m,sg,3,d,0,0'
p3406
sS'drel'
p3407
S'pof__cn:NP10'
p3408
sS'chunktype'
p3409
S'child:NP10'
p3410
sS'cref'
p3411
S'i26%0:t6'
p3412
ssbsg28
I00
sg29
I00
sg30
Nsg31
Nsg32
I10
sg33
I7
sg34
Nsg35
Nsg36
S'NNPC'
p3413
sg38
g3398
sg39
I00
sba(issf_api
Word
p3414
(dp3415
g6
I00
sg7
V\u0938\u093f\u0902\u0939
p3416
sg9
(issf_api
FeatureSet
p3417
(dp3418
g12
(dp3419
S'crefhead'
p3420
S'\xe0\xa4\xb8\xe0\xa4\xbf\xe0\xa4\x82\xe0\xa4\xb9:i26'
p3421
sS'posn'
p3422
S'320'
p3423
sS'name'
p3424
S'\xe0\xa4\xb8\xe0\xa4\xbf\xe0\xa4\x82\xe0\xa4\xb9'
p3425
sS'af'
p3426
S'\xe0\xa4\xb8\xe0\xa4\xbf\xe0\xa4\x82\xe0\xa4\xb9,n,m,sg,3,d,0,0'
p3427
sS'chunkid'
p3428
S'NP10'
p3429
sS'creftype'
p3430
S'Coreference-Identity:i8'
p3431
sS'chunktype'
p3432
S'head:NP10'
p3433
sS'cref'
p3434
S'i26%1:t6'
p3435
sS'drel'
p3436
S'ccof:CCP'
p3437
ssbsg28
I00
sg29
I00
sg30
Nsg31
Nsg32
I10
sg33
I7
sg34
Nsg35
Nsg36
S'NNP'
p3438
sg38
g3417
sg39
I00
sba(issf_api
Word
p3439
(dp3440
g6
I00
sg7
V,
p3441
sg9
(issf_api
FeatureSet
p3442
(dp3443
g12
(dp3444
S'posn'
p3445
S'330'
p3446
sS'name'
p3447
S',6'
p3448
sS'drel'
p3449
S'rsym:NP10'
p3450
sS'chunktype'
p3451
S'child:NP10'
p3452
sS'af'
p3453
S'COMMA,punc,,,,,,'
p3454
ssbsg28
I00
sg29
I00
sg30
Nsg31
Nsg32
I10
sg33
I7
sg34
Nsg35
Nsg36
S'SYM'
p3455
sg38
g3442
sg39
I00
sba(issf_api
Word
p3456
(dp3457
g6
I00
sg7
V\u092e\u094b\u0939\u092e\u094d\u092e\u0926
p3458
sg9
(issf_api
FeatureSet
p3459
(dp3460
g12
(dp3461
S'posn'
p3462
S'340'
p3463
sS'name'
p3464
S'\xe0\xa4\xae\xe0\xa5\x8b\xe0\xa4\xb9\xe0\xa4\xae\xe0\xa5\x8d\xe0\xa4\xae\xe0\xa4\xa6'
p3465
sS'drel'
p3466
S'pof__cn:NP11'
p3467
sS'chunktype'
p3468
S'child:NP11'
p3469
sS'af'
p3470
S'\xe0\xa4\xae\xe0\xa5\x8b\xe0\xa4\xb9\xe0\xa4\xae\xe0\xa5\x8d\xe0\xa4\xae\xe0\xa4\xa6,n,m,sg,3,d,0,0'
p3471
ssbsg28
I00
sg29
I00
sg30
Nsg31
Nsg32
I11
sg33
I7
sg34
Nsg35
Nsg36
S'NNPC'
p3472
sg38
g3459
sg39
I00
sba(issf_api
Word
p3473
(dp3474
g6
I00
sg7
V\u0915\u0948\u092b\u093c
p3475
sg9
(issf_api
FeatureSet
p3476
(dp3477
g12
(dp3478
S'posn'
p3479
S'350'
p3480
sS'name'
p3481
S'\xe0\xa4\x95\xe0\xa5\x88\xe0\xa4\xab\xe0\xa4\xbc'
p3482
sS'af'
p3483
S'\xe0\xa4\x95\xe0\xa5\x88\xe0\xa4\xab\xe0\xa4\xbc,n,m,sg,3,d,0,0'
p3484
sS'chunkid'
p3485
S'NP11'
p3486
sS'drel'
p3487
S'ccof:CCP'
p3488
sS'chunktype'
p3489
S'head:NP11'
p3490
ssbsg28
I00
sg29
I00
sg30
Nsg31
Nsg32
I11
sg33
I7
sg34
Nsg35
Nsg36
S'NNP'
p3491
sg38
g3476
sg39
I00
sba(issf_api
Word
p3492
(dp3493
g6
I00
sg7
V,
p3494
sg9
(issf_api
FeatureSet
p3495
(dp3496
g12
(dp3497
S'posn'
p3498
S'360'
p3499
sS'name'
p3500
S',7'
p3501
sS'drel'
p3502
S'rsym:NP11'
p3503
sS'chunktype'
p3504
S'child:NP11'
p3505
sS'af'
p3506
S'COMMA,punc,,,,,,'
p3507
ssbsg28
I00
sg29
I00
sg30
Nsg31
Nsg32
I11
sg33
I7
sg34
Nsg35
Nsg36
S'SYM'
p3508
sg38
g3495
sg39
I00
sba(issf_api
Word
p3509
(dp3510
g6
I00
sg7
V\u0936\u094d\u0930\u0940\u0927\u0930\u0928
p3511
sg9
(issf_api
FeatureSet
p3512
(dp3513
g12
(dp3514
S'posn'
p3515
S'370'
p3516
sS'name'
p3517
S'\xe0\xa4\xb6\xe0\xa5\x8d\xe0\xa4\xb0\xe0\xa5\x80\xe0\xa4\xa7\xe0\xa4\xb0\xe0\xa4\xa8'
p3518
sS'af'
p3519
S'\xe0\xa4\xb6\xe0\xa5\x8d\xe0\xa4\xb0\xe0\xa5\x80\xe0\xa4\xa7\xe0\xa4\xb0\xe0\xa4\xa8,n,m,sg,3,d,0,0'
p3520
sS'drel'
p3521
S'pof__cn:NP12'
p3522
sS'chunktype'
p3523
S'child:NP12'
p3524
sS'cref'
p3525
S'i27%0:t4'
p3526
ssbsg28
I00
sg29
I00
sg30
Nsg31
Nsg32
I12
sg33
I7
sg34
Nsg35
Nsg36
S'NNPC'
p3527
sg38
g3512
sg39
I00
sba(issf_api
Word
p3528
(dp3529
g6
I00
sg7
V\u0936\u094d\u0930\u0940\u0930\u093e\u092e
p3530
sg9
(issf_api
FeatureSet
p3531
(dp3532
g12
(dp3533
S'crefhead'
p3534
S'\xe0\xa4\xb6\xe0\xa5\x8d\xe0\xa4\xb0\xe0\xa5\x80\xe0\xa4\xb0\xe0\xa4\xbe\xe0\xa4\xae:i27'
p3535
sS'posn'
p3536
S'380'
p3537
sS'name'
p3538
S'\xe0\xa4\xb6\xe0\xa5\x8d\xe0\xa4\xb0\xe0\xa5\x80\xe0\xa4\xb0\xe0\xa4\xbe\xe0\xa4\xae'
p3539
sS'af'
p3540
S'\xe0\xa4\xb6\xe0\xa5\x8d\xe0\xa4\xb0\xe0\xa5\x80\xe0\xa4\xb0\xe0\xa4\xbe\xe0\xa4\xae,n,m,sg,3,d,0,0'
p3541
sS'chunkid'
p3542
S'NP12'
p3543
sS'creftype'
p3544
S'Coreference-NounComplement:i5'
p3545
sS'chunktype'
p3546
S'head:NP12'
p3547
sS'crefchainhead'
p3548
S'i27:t4'
p3549
sS'cref'
p3550
S'i27%1:t4'
p3551
sS'drel'
p3552
S'ccof:CCP'
p3553
ssbsg28
I00
sg29
I00
sg30
Nsg31
Nsg32
I12
sg33
I7
sg34
Nsg35
Nsg36
S'NNP'
p3554
sg38
g3531
sg39
I00
sba(issf_api
Word
p3555
(dp3556
g6
I00
sg7
V,
p3557
sg9
(issf_api
FeatureSet
p3558
(dp3559
g12
(dp3560
S'posn'
p3561
S'390'
p3562
sS'name'
p3563
S',8'
p3564
sS'drel'
p3565
S'rsym:NP12'
p3566
sS'chunktype'
p3567
S'child:NP12'
p3568
sS'af'
p3569
S'COMMA,punc,,,,,,'
p3570
ssbsg28
I00
sg29
I00
sg30
Nsg31
Nsg32
I12
sg33
I7
sg34
Nsg35
Nsg36
S'SYM'
p3571
sg38
g3558
sg39
I00
sba(issf_api
Word
p3572
(dp3573
g6
I00
sg7
V\u0939\u0930\u092d\u091c\u0928
p3574
sg9
(issf_api
FeatureSet
p3575
(dp3576
g12
(dp3577
S'posn'
p3578
S'400'
p3579
sS'name'
p3580
S'\xe0\xa4\xb9\xe0\xa4\xb0\xe0\xa4\xad\xe0\xa4\x9c\xe0\xa4\xa8'
p3581
sS'drel'
p3582
S'pof__cn:NP13'
p3583
sS'chunktype'
p3584
S'child:NP13'
p3585
sS'af'
p3586
S'\xe0\xa4\xb9\xe0\xa4\xb0\xe0\xa4\xad\xe0\xa4\x9c\xe0\xa4\xa8,n,m,sg,3,d,0,0'
p3587
ssbsg28
I00
sg29
I00
sg30
Nsg31
Nsg32
I13
sg33
I7
sg34
Nsg35
Nsg36
S'NNPC'
p3588
sg38
g3575
sg39
I00
sba(issf_api
Word
p3589
(dp3590
g6
I00
sg7
V\u0938\u093f\u0902\u0939
p3591
sg9
(issf_api
FeatureSet
p3592
(dp3593
g12
(dp3594
S'posn'
p3595
S'410'
p3596
sS'name'
p3597
S'\xe0\xa4\xb8\xe0\xa4\xbf\xe0\xa4\x82\xe0\xa4\xb92'
p3598
sS'af'
p3599
S'\xe0\xa4\xb8\xe0\xa4\xbf\xe0\xa4\x82\xe0\xa4\xb9,n,m,sg,3,d,0,0'
p3600
sS'chunkid'
p3601
S'NP13'
p3602
sS'drel'
p3603
S'ccof:CCP'
p3604
sS'chunktype'
p3605
S'head:NP13'
p3606
ssbsg28
I00
sg29
I00
sg30
Nsg31
Nsg32
I13
sg33
I7
sg34
Nsg35
Nsg36
S'NNP'
p3607
sg38
g3592
sg39
I00
sba(issf_api
Word
p3608
(dp3609
g6
I00
sg7
V,
p3610
sg9
(issf_api
FeatureSet
p3611
(dp3612
g12
(dp3613
S'posn'
p3614
S'420'
p3615
sS'name'
p3616
S',9'
p3617
sS'drel'
p3618
S'rsym:NP13'
p3619
sS'chunktype'
p3620
S'child:NP13'
p3621
sS'af'
p3622
S'COMMA,punc,,,,,,'
p3623
ssbsg28
I00
sg29
I00
sg30
Nsg31
Nsg32
I13
sg33
I7
sg34
Nsg35
Nsg36
S'SYM'
p3624
sg38
g3611
sg39
I00
sba(issf_api
Word
p3625
(dp3626
g6
I00
sg7
V\u0905\u0928\u093f\u0932
p3627
sg9
(issf_api
FeatureSet
p3628
(dp3629
g12
(dp3630
S'posn'
p3631
S'430'
p3632
sS'name'
p3633
S'\xe0\xa4\x85\xe0\xa4\xa8\xe0\xa4\xbf\xe0\xa4\xb2'
p3634
sS'drel'
p3635
S'pof__cn:NP14'
p3636
sS'chunktype'
p3637
S'child:NP14'
p3638
sS'af'
p3639
S'\xe0\xa4\x85\xe0\xa4\xa8\xe0\xa4\xbf\xe0\xa4\xb2,n,m,sg,3,d,0,0'
p3640
ssbsg28
I00
sg29
I00
sg30
Nsg31
Nsg32
I14
sg33
I7
sg34
Nsg35
Nsg36
S'NNPC'
p3641
sg38
g3628
sg39
I00
sba(issf_api
Word
p3642
(dp3643
g6
I00
sg7
V\u0915\u0941\u0902\u092c\u0932\u0947
p3644
sg9
(issf_api
FeatureSet
p3645
(dp3646
g12
(dp3647
S'posn'
p3648
S'440'
p3649
sS'name'
p3650
S'\xe0\xa4\x95\xe0\xa5\x81\xe0\xa4\x82\xe0\xa4\xac\xe0\xa4\xb2\xe0\xa5\x87'
p3651
sS'af'
p3652
S'\xe0\xa4\x95\xe0\xa5\x81\xe0\xa4\x82\xe0\xa4\xac\xe0\xa4\xb2\xe0\xa5\x87,n,any,sg,3,d,0,0'
p3653
sS'chunkid'
p3654
S'NP14'
p3655
sS'drel'
p3656
S'ccof:CCP'
p3657
sS'chunktype'
p3658
S'head:NP14'
p3659
ssbsg28
I00
sg29
I00
sg30
Nsg31
Nsg32
I14
sg33
I7
sg34
Nsg35
Nsg36
S'NNP'
p3660
sg38
g3645
sg39
I00
sba(issf_api
Word
p3661
(dp3662
g6
I00
sg7
V,
p3663
sg9
(issf_api
FeatureSet
p3664
(dp3665
g12
(dp3666
S'posn'
p3667
S'450'
p3668
sS'name'
p3669
S',10'
p3670
sS'drel'
p3671
S'rsym:NP14'
p3672
sS'chunktype'
p3673
S'child:NP14'
p3674
sS'af'
p3675
S'COMMA,punc,,,,,,'
p3676
ssbsg28
I00
sg29
I00
sg30
Nsg31
Nsg32
I14
sg33
I7
sg34
Nsg35
Nsg36
S'SYM'
p3677
sg38
g3664
sg39
I00
sba(issf_api
Word
p3678
(dp3679
g6
I00
sg7
V\u091c\u093c\u0939\u0940\u0930
p3680
sg9
(issf_api
FeatureSet
p3681
(dp3682
g12
(dp3683
S'posn'
p3684
S'460'
p3685
sS'name'
p3686
S'\xe0\xa4\x9c\xe0\xa4\xbc\xe0\xa4\xb9\xe0\xa5\x80\xe0\xa4\xb0'
p3687
sS'drel'
p3688
S'pof__cn:NP15'
p3689
sS'chunktype'
p3690
S'child:NP15'
p3691
sS'af'
p3692
S'\xe0\xa4\x9c\xe0\xa4\xbc\xe0\xa4\xb9\xe0\xa5\x80\xe0\xa4\xb0,n,m,sg,3,d,0,0'
p3693
ssbsg28
I00
sg29
I00
sg30
Nsg31
Nsg32
I15
sg33
I7
sg34
Nsg35
Nsg36
S'NNPC'
p3694
sg38
g3681
sg39
I00
sba(issf_api
Word
p3695
(dp3696
g6
I00
sg7
V\u0916\u093e\u0928
p3697
sg9
(issf_api
FeatureSet
p3698
(dp3699
g12
(dp3700
S'posn'
p3701
S'470'
p3702
sS'name'
p3703
S'\xe0\xa4\x96\xe0\xa4\xbe\xe0\xa4\xa8'
p3704
sS'af'
p3705
S'\xe0\xa4\x96\xe0\xa4\xbe\xe0\xa4\xa8,n,any,sg,3,d,0,0'
p3706
sS'chunkid'
p3707
S'NP15'
p3708
sS'drel'
p3709
S'ccof:CCP'
p3710
sS'chunktype'
p3711
S'head:NP15'
p3712
ssbsg28
I00
sg29
I00
sg30
Nsg31
Nsg32
I15
sg33
I7
sg34
Nsg35
Nsg36
S'NNP'
p3713
sg38
g3698
sg39
I00
sba(issf_api
Word
p3714
(dp3715
g6
I00
sg7
V,
p3716
sg9
(issf_api
FeatureSet
p3717
(dp3718
g12
(dp3719
S'posn'
p3720
S'480'
p3721
sS'name'
p3722
S',11'
p3723
sS'drel'
p3724
S'rsym:NP15'
p3725
sS'chunktype'
p3726
S'child:NP15'
p3727
sS'af'
p3728
S'COMMA,punc,,,,,,'
p3729
ssbsg28
I00
sg29
I00
sg30
Nsg31
Nsg32
I15
sg33
I7
sg34
Nsg35
Nsg36
S'SYM'
p3730
sg38
g3717
sg39
I00
sba(issf_api
Word
p3731
(dp3732
g6
I00
sg7
V\u0907\u0930\u092b\u093c\u093e\u0928
p3733
sg9
(issf_api
FeatureSet
p3734
(dp3735
g12
(dp3736
S'posn'
p3737
S'490'
p3738
sS'name'
p3739
S'\xe0\xa4\x87\xe0\xa4\xb0\xe0\xa4\xab\xe0\xa4\xbc\xe0\xa4\xbe\xe0\xa4\xa8'
p3740
sS'af'
p3741
S'\xe0\xa4\x87\xe0\xa4\xb0\xe0\xa4\xab\xe0\xa4\xbc\xe0\xa4\xbe\xe0\xa4\xa8,n,m,sg,3,d,0,0'
p3742
sS'drel'
p3743
S'pof__cn:NP16'
p3744
sS'chunktype'
p3745
S'child:NP16'
p3746
sS'cref'
p3747
S'i28%0:t7'
p3748
ssbsg28
I00
sg29
I00
sg30
Nsg31
Nsg32
I16
sg33
I7
sg34
Nsg35
Nsg36
S'NNPC'
p3749
sg38
g3734
sg39
I00
sba(issf_api
Word
p3750
(dp3751
g6
I00
sg7
V\u092a\u0920\u093e\u0928
p3752
sg9
(issf_api
FeatureSet
p3753
(dp3754
g12
(dp3755
S'crefhead'
p3756
S'\xe0\xa4\xaa\xe0\xa4\xa0\xe0\xa4\xbe\xe0\xa4\xa8:i28'
p3757
sS'posn'
p3758
S'500'
p3759
sS'name'
p3760
S'\xe0\xa4\xaa\xe0\xa4\xa0\xe0\xa4\xbe\xe0\xa4\xa8'
p3761
sS'af'
p3762
S'\xe0\xa4\xaa\xe0\xa4\xa0\xe0\xa4\xbe\xe0\xa4\xa8,n,any,sg,3,d,0,0'
p3763
sS'chunkid'
p3764
S'NP16'
p3765
sS'creftype'
p3766
S'Coreference-Identity:i9'
p3767
sS'chunktype'
p3768
S'head:NP16'
p3769
sS'cref'
p3770
S'i28%1:t7'
p3771
sS'drel'
p3772
S'ccof:CCP'
p3773
ssbsg28
I00
sg29
I00
sg30
Nsg31
Nsg32
I16
sg33
I7
sg34
Nsg35
Nsg36
S'NNP'
p3774
sg38
g3753
sg39
I00
sba(issf_api
Word
p3775
(dp3776
g6
I00
sg7
V,
p3777
sg9
(issf_api
FeatureSet
p3778
(dp3779
g12
(dp3780
S'posn'
p3781
S'510'
p3782
sS'name'
p3783
S',12'
p3784
sS'drel'
p3785
S'rsym:NP16'
p3786
sS'chunktype'
p3787
S'child:NP16'
p3788
sS'af'
p3789
S'COMMA,punc,,,,,,'
p3790
ssbsg28
I00
sg29
I00
sg30
Nsg31
Nsg32
I16
sg33
I7
sg34
Nsg35
Nsg36
S'SYM'
p3791
sg38
g3778
sg39
I00
sba(issf_api
Word
p3792
(dp3793
g6
I00
sg7
V\u0906\u0936\u0940\u0937
p3794
sg9
(issf_api
FeatureSet
p3795
(dp3796
g12
(dp3797
S'posn'
p3798
S'520'
p3799
sS'name'
p3800
S'\xe0\xa4\x86\xe0\xa4\xb6\xe0\xa5\x80\xe0\xa4\xb7'
p3801
sS'drel'
p3802
S'pof__cn:NP17'
p3803
sS'chunktype'
p3804
S'child:NP17'
p3805
sS'af'
p3806
S'\xe0\xa4\x86\xe0\xa4\xb6\xe0\xa5\x80\xe0\xa4\xb7,n,m,sg,3,d,0,0'
p3807
ssbsg28
I00
sg29
I00
sg30
Nsg31
Nsg32
I17
sg33
I7
sg34
Nsg35
Nsg36
S'NNPC'
p3808
sg38
g3795
sg39
I00
sba(issf_api
Word
p3809
(dp3810
g6
I00
sg7
V\u0928\u0947\u0939\u0930\u093e
p3811
sg9
(issf_api
FeatureSet
p3812
(dp3813
g12
(dp3814
S'posn'
p3815
S'530'
p3816
sS'name'
p3817
S'\xe0\xa4\xa8\xe0\xa5\x87\xe0\xa4\xb9\xe0\xa4\xb0\xe0\xa4\xbe'
p3818
sS'af'
p3819
S'\xe0\xa4\xa8\xe0\xa5\x87\xe0\xa4\xb9\xe0\xa4\xb0\xe0\xa4\xbe,n,m,sg,3,d,0,0'
p3820
sS'chunkid'
p3821
S'NP17'
p3822
sS'drel'
p3823
S'ccof:CCP'
p3824
sS'chunktype'
p3825
S'head:NP17'
p3826
ssbsg28
I00
sg29
I00
sg30
Nsg31
Nsg32
I17
sg33
I7
sg34
Nsg35
Nsg36
S'NNP'
p3827
sg38
g3812
sg39
I00
sba(issf_api
Word
p3828
(dp3829
g6
I00
sg7
V,
p3830
sg9
(issf_api
FeatureSet
p3831
(dp3832
g12
(dp3833
S'posn'
p3834
S'540'
p3835
sS'name'
p3836
S',13'
p3837
sS'drel'
p3838
S'rsym:NP17'
p3839
sS'chunktype'
p3840
S'child:NP17'
p3841
sS'af'
p3842
S'COMMA,punc,,,,,,'
p3843
ssbsg28
I00
sg29
I00
sg30
Nsg31
Nsg32
I17
sg33
I7
sg34
Nsg35
Nsg36
S'SYM'
p3844
sg38
g3831
sg39
I00
sba(issf_api
Word
p3845
(dp3846
g6
I00
sg7
V\u0905\u091c\u0940\u0924
p3847
sg9
(issf_api
FeatureSet
p3848
(dp3849
g12
(dp3850
S'posn'
p3851
S'550'
p3852
sS'name'
p3853
S'\xe0\xa4\x85\xe0\xa4\x9c\xe0\xa5\x80\xe0\xa4\xa4'
p3854
sS'drel'
p3855
S'pof__cn:NP18'
p3856
sS'chunktype'
p3857
S'child:NP18'
p3858
sS'af'
p3859
S'\xe0\xa4\x85\xe0\xa4\x9c\xe0\xa5\x80\xe0\xa4\xa4,n,m,sg,3,d,0,0'
p3860
ssbsg28
I00
sg29
I00
sg30
Nsg31
Nsg32
I18
sg33
I7
sg34
Nsg35
Nsg36
S'NNPC'
p3861
sg38
g3848
sg39
I00
sba(issf_api
Word
p3862
(dp3863
g6
I00
sg7
V\u0905\u0917\u0930\u0915\u0930
p3864
sg9
(issf_api
FeatureSet
p3865
(dp3866
g12
(dp3867
S'posn'
p3868
S'560'
p3869
sS'name'
p3870
S'\xe0\xa4\x85\xe0\xa4\x97\xe0\xa4\xb0\xe0\xa4\x95\xe0\xa4\xb0'
p3871
sS'af'
p3872
S'\xe0\xa4\x85\xe0\xa4\x97\xe0\xa4\xb0\xe0\xa4\x95\xe0\xa4\xb0,n,m,sg,3,d,0,0'
p3873
sS'chunkid'
p3874
S'NP18'
p3875
sS'drel'
p3876
S'ccof:CCP'
p3877
sS'chunktype'
p3878
S'head:NP18'
p3879
ssbsg28
I00
sg29
I00
sg30
Nsg31
Nsg32
I18
sg33
I7
sg34
Nsg35
Nsg36
S'NNP'
p3880
sg38
g3865
sg39
I00
sba(issf_api
Word
p3881
(dp3882
g6
I00
sg7
V,
p3883
sg9
(issf_api
FeatureSet
p3884
(dp3885
g12
(dp3886
S'posn'
p3887
S'570'
p3888
sS'name'
p3889
S',14'
p3890
sS'af'
p3891
S'COMMA,punc,,,,,,'
p3892
sS'chunkid'
p3893
S'CCP'
p3894
sS'drel'
p3895
S'rs:NP2'
p3896
sS'chunktype'
p3897
S'head:CCP'
p3898
ssbsg28
I00
sg29
I00
sg30
Nsg31
Nsg32
I19
sg33
I7
sg34
Nsg35
Nsg36
S'SYM'
p3899
sg38
g3884
sg39
I00
sba(issf_api
Word
p3900
(dp3901
g6
I00
sg7
V\u0926\u093f\u0928\u0947\u0936
p3902
sg9
(issf_api
FeatureSet
p3903
(dp3904
g12
(dp3905
S'posn'
p3906
S'580'
p3907
sS'name'
p3908
S'\xe0\xa4\xa6\xe0\xa4\xbf\xe0\xa4\xa8\xe0\xa5\x87\xe0\xa4\xb6'
p3909
sS'af'
p3910
S'\xe0\xa4\xa6\xe0\xa4\xbf\xe0\xa4\xa8\xe0\xa5\x87\xe0\xa4\xb6,n,m,sg,3,d,0,0'
p3911
sS'drel'
p3912
S'pof__cn:NP19'
p3913
sS'chunktype'
p3914
S'child:NP19'
p3915
sS'cref'
p3916
S'i29%0:t5'
p3917
ssbsg28
I00
sg29
I00
sg30
Nsg31
Nsg32
I20
sg33
I7
sg34
Nsg35
Nsg36
S'NNPC'
p3918
sg38
g3903
sg39
I00
sba(issf_api
Word
p3919
(dp3920
g6
I00
sg7
V\u0915\u093e\u0930\u094d\u0924\u093f\u0915
p3921
sg9
(issf_api
FeatureSet
p3922
(dp3923
g12
(dp3924
S'crefhead'
p3925
S'\xe0\xa4\x95\xe0\xa4\xbe\xe0\xa4\xb0\xe0\xa5\x8d\xe0\xa4\xa4\xe0\xa4\xbf\xe0\xa4\x95:i29'
p3926
sS'posn'
p3927
S'590'
p3928
sS'name'
p3929
S'\xe0\xa4\x95\xe0\xa4\xbe\xe0\xa4\xb0\xe0\xa5\x8d\xe0\xa4\xa4\xe0\xa4\xbf\xe0\xa4\x95'
p3930
sS'af'
p3931
S'\xe0\xa4\x95\xe0\xa4\xbe\xe0\xa4\xb0\xe0\xa5\x8d\xe0\xa4\xa4\xe0\xa4\xbf\xe0\xa4\x95,n,m,sg,3,d,0,0'
p3932
sS'chunkid'
p3933
S'NP19'
p3934
sS'creftype'
p3935
S'Coreference-Identity:i7'
p3936
sS'chunktype'
p3937
S'head:NP19'
p3938
sS'cref'
p3939
S'i29%1:t5'
p3940
sS'drel'
p3941
S'ccof:CCP'
p3942
ssbsg28
I00
sg29
I00
sg30
Nsg31
Nsg32
I20
sg33
I7
sg34
Nsg35
Nsg36
S'NNP'
p3943
sg38
g3922
sg39
I00
sba(issf_api
Word
p3944
(dp3945
g6
I00
sg7
V(
p3946
sg9
(issf_api
FeatureSet
p3947
(dp3948
g12
(dp3949
S'posn'
p3950
S'600'
p3951
sS'name'
p3952
S'(3'
p3953
sS'drel'
p3954
S'rsym:NP20'
p3955
sS'chunktype'
p3956
S'child:NP20'
p3957
sS'af'
p3958
S',punc,,,,,,'
p3959
ssbsg28
I00
sg29
I00
sg30
Nsg31
Nsg32
I21
sg33
I7
sg34
Nsg35
Nsg36
S'SYM'
p3960
sg38
g3947
sg39
I00
sba(issf_api
Word
p3961
(dp3962
g6
I00
sg7
V\u0935\u093f\u0915\u0947\u091f
p3963
sg9
(issf_api
FeatureSet
p3964
(dp3965
g12
(dp3966
S'posn'
p3967
S'610'
p3968
sS'name'
p3969
S'\xe0\xa4\xb5\xe0\xa4\xbf\xe0\xa4\x95\xe0\xa5\x87\xe0\xa4\x9f'
p3970
sS'af'
p3971
S'\xe0\xa4\xb5\xe0\xa4\xbf\xe0\xa4\x95\xe0\xa5\x87\xe0\xa4\x9f,n,m,sg,3,d,0,0'
p3972
sS'drel'
p3973
S'pof__cn:NP20'
p3974
sS'chunktype'
p3975
S'child:NP20'
p3976
sS'cref'
p3977
S'i30%0:t5'
p3978
ssbsg28
I00
sg29
I00
sg30
Nsg31
Nsg32
I21
sg33
I7
sg34
Nsg35
Nsg36
S'NNC'
p3979
sg38
g3964
sg39
I00
sba(issf_api
Word
p3980
(dp3981
g6
I00
sg7
V\u0915\u0940\u092a\u0930
p3982
sg9
(issf_api
FeatureSet
p3983
(dp3984
g12
(dp3985
S'crefhead'
p3986
S'\xe0\xa4\x95\xe0\xa5\x80\xe0\xa4\xaa\xe0\xa4\xb0:i30'
p3987
sS'posn'
p3988
S'620'
p3989
sS'name'
p3990
S'\xe0\xa4\x95\xe0\xa5\x80\xe0\xa4\xaa\xe0\xa4\xb0'
p3991
sS'af'
p3992
S'\xe0\xa4\x95\xe0\xa5\x80\xe0\xa4\xaa\xe0\xa4\xb0,n,m,sg,3,d,0,0'
p3993
sS'chunkid'
p3994
S'NP20'
p3995
sS'creftype'
p3996
S'Coreference-Noun-Noun:i29'
p3997
sS'chunktype'
p3998
S'head:NP20'
p3999
sS'cref'
p4000
S'i30%1:t5'
p4001
sS'drel'
p4002
S'nmod:NP19'
p4003
ssbsg28
I00
sg29
I00
sg30
Nsg31
Nsg32
I21
sg33
I7
sg34
Nsg35
Nsg36
S'NN'
p4004
sg38
g3983
sg39
I00
sba(issf_api
Word
p4005
(dp4006
g6
I00
sg7
V)
p4007
sg9
(issf_api
FeatureSet
p4008
(dp4009
g12
(dp4010
S'posn'
p4011
S'630'
p4012
sS'name'
p4013
S')3'
p4014
sS'drel'
p4015
S'rsym:NP20'
p4016
sS'chunktype'
p4017
S'child:NP20'
p4018
sS'af'
p4019
S',punc,,,,,,'
p4020
ssbsg28
I00
sg29
I00
sg30
Nsg31
Nsg32
I21
sg33
I7
sg34
Nsg35
Nsg36
S'SYM'
p4021
sg38
g4008
sg39
I00
sba(issf_api
Word
p4022
(dp4023
g6
I00
sg7
V\u0964
p4024
sg9
(issf_api
FeatureSet
p4025
(dp4026
g12
(dp4027
S'posn'
p4028
S'640'
p4029
sS'name'
p4030
S'\xe0\xa5\xa4'
p4031
sS'af'
p4032
S'\xe0\xa5\xa4,punc,,,,,,'
p4033
sS'chunkid'
p4034
S'BLK'
p4035
sS'drel'
p4036
S'rsym:VGF'
p4037
sS'chunktype'
p4038
S'head:BLK'
p4039
ssbsg28
I00
sg29
I00
sg30
Nsg31
Nsg32
I22
sg33
I7
sg34
Nsg35
Nsg36
S'SYM'
p4040
sg38
g4025
sg39
I00
sbasS'sentenceList'
p4041
(lp4042
(issf_api
Sentence
p4043
(dp4044
S'rootNode'
p4045
(lp4046
sg33
I0
sS'wordNumList'
p4047
(lp4048
I0
aI1
aI2
aI3
aI4
aI5
aI6
aI7
aI8
aI9
aI10
aI11
aI12
aI13
aI14
aI15
aI16
aI17
aI18
aI19
aI20
aI21
aI22
aI23
aI24
aI25
aI26
aI27
aI28
aI29
aI30
aI31
aI32
aI33
asS'nodeDict'
p4049
(dp4050
S'VGNF'
p4051
(issf_api
Node
p4052
(dp4053
S'nodeRelation'
p4054
S'nmod__k1inv'
p4055
sS'nodeName'
p4056
g4051
sS'nodeParent'
p4057
S'NP5'
p4058
sS'nodeLevel'
p4059
I-1
sg32
I4
sS'childList'
p4060
(lp4061
S'NP'
p4062
aS'NP4'
p4063
aS'NP2'
p4064
asbsS'VGNN'
p4065
(issf_api
Node
p4066
(dp4067
g4054
S'nmod'
p4068
sg4056
g4065
sg4057
S'NP9'
p4069
sg4059
I-1
sg32
I9
sg4060
(lp4070
S'NP8'
p4071
aS'NP7'
p4072
aS'NP6'
p4073
asbsS'VGF'
p4074
(issf_api
Node
p4075
(dp4076
g4054
S'None'
p4077
sg4056
g4074
sg4057
g4077
sg4059
I-1
sg32
I12
sg4060
(lp4078
S'NP5'
p4079
aS'BLK'
p4080
aS'NP10'
p4081
asbsg4079
(issf_api
Node
p4082
(dp4083
g4054
S'k1'
p4084
sg4056
g4079
sg4057
S'VGF'
p4085
sg4059
I-1
sg32
I5
sg4060
(lp4086
g4051
asbsS'NP9'
p4087
(issf_api
Node
p4088
(dp4089
g4054
S'r6-k2'
p4090
sg4056
g4087
sg4057
S'NP10'
p4091
sg4059
I-1
sg32
I10
sg4060
(lp4092
g4065
asbsg4071
(issf_api
Node
p4093
(dp4094
g4054
S'k7p'
p4095
sg4056
g4071
sg4057
S'VGNN'
p4096
sg4059
I-1
sg32
I8
sg4060
(lp4097
sbsg4080
(issf_api
Node
p4098
(dp4099
g4054
S'rsym'
p4100
sg4056
g4080
sg4057
S'VGF'
p4101
sg4059
I-1
sg32
I13
sg4060
(lp4102
sbsg4081
(issf_api
Node
p4103
(dp4104
g4054
S'pof'
p4105
sg4056
g4081
sg4057
S'VGF'
p4106
sg4059
I-1
sg32
I11
sg4060
(lp4107
g4087
asbsg4062
(issf_api
Node
p4108
(dp4109
g4054
S'rh'
p4110
sg4056
g4062
sg4057
S'VGNF'
p4111
sg4059
I-1
sg32
I0
sg4060
(lp4112
sbsg4063
(issf_api
Node
p4113
(dp4114
g4054
S'k7'
p4115
sg4056
g4063
sg4057
S'VGNF'
p4116
sg4059
I-1
sg32
I3
sg4060
(lp4117
S'NP3'
p4118
asbsg4072
(issf_api
Node
p4119
(dp4120
g4054
S'k7t'
p4121
sg4056
g4072
sg4057
S'VGNN'
p4122
sg4059
I-1
sg32
I7
sg4060
(lp4123
sbsg4073
(issf_api
Node
p4124
(dp4125
g4054
S'vmod'
p4126
sg4056
g4073
sg4057
S'VGNN'
p4127
sg4059
I-1
sg32
I6
sg4060
(lp4128
sbsg4118
(issf_api
Node
p4129
(dp4130
g4054
S'r6'
p4131
sg4056
g4118
sg4057
S'NP4'
p4132
sg4059
I-1
sg32
I2
sg4060
(lp4133
sbsg4064
(issf_api
Node
p4134
(dp4135
g4054
S'vmod'
p4136
sg4056
g4064
sg4057
S'VGNF'
p4137
sg4059
I-1
sg32
I1
sg4060
(lp4138
sbssS'chunkList'
p4139
(lp4140
(issf_api
Chunk
p4141
(dp4142
g4056
g21
sg32
I0
sS'chunkTag'
p4143
g37
sg33
I0
sg4047
(lp4144
I0
aI1
aI2
asg38
(issf_api
FeatureSet
p4145
(dp4146
g12
(dp4147
S'name'
p4148
g4062
sS'drel'
p4149
S'rh:VGNF'
p4150
ssbsba(issf_api
Chunk
p4151
(dp4152
g4056
g87
sg32
I1
sg4143
g94
sg33
I0
sg4047
(lp4153
I3
aI4
aI5
asg38
(issf_api
FeatureSet
p4154
(dp4155
g12
(dp4156
S'name'
p4157
g4064
sS'drel'
p4158
S'vmod:VGNF'
p4159
ssbsba(issf_api
Chunk
p4160
(dp4161
g4056
g159
sg32
I2
sg4143
g166
sg33
I0
sg4047
(lp4162
I6
aI7
aI8
asg38
(issf_api
FeatureSet
p4163
(dp4164
g12
(dp4165
S'name'
p4166
g4118
sS'drel'
p4167
S'r6:NP4'
p4168
ssbsba(issf_api
Chunk
p4169
(dp4170
g4056
g214
sg32
I3
sg4143
g221
sg33
I0
sg4047
(lp4171
I9
aI10
aI11
aI12
asg38
(issf_api
FeatureSet
p4172
(dp4173
g12
(dp4174
S'name'
p4175
g4063
sS'drel'
p4176
S'k7:VGNF'
p4177
ssbsba(issf_api
Chunk
p4178
(dp4179
g4056
g269
sg32
I4
sg4143
g274
sg33
I0
sg4047
(lp4180
I13
asg38
(issf_api
FeatureSet
p4181
(dp4182
g12
(dp4183
S'name'
p4184
g4051
sS'drel'
p4185
S'nmod__k1inv:NP5'
p4186
ssbsba(issf_api
Chunk
p4187
(dp4188
g4056
g309
sg32
I5
sg4143
g318
sg33
I0
sg4047
(lp4189
I14
aI15
asg38
(issf_api
FeatureSet
p4190
(dp4191
g12
(dp4192
S'name'
p4193
g4079
sS'drel'
p4194
S'k1:VGF'
p4195
ssbsba(issf_api
Chunk
p4196
(dp4197
g4056
g332
sg32
I6
sg4143
g341
sg33
I0
sg4047
(lp4198
I16
aI17
aI18
asg38
(issf_api
FeatureSet
p4199
(dp4200
g12
(dp4201
S'name'
p4202
g4073
sS'drel'
p4203
S'vmod:VGNN'
p4204
ssbsba(issf_api
Chunk
p4205
(dp4206
g4056
g412
sg32
I7
sg4143
g421
sg33
I0
sg4047
(lp4207
I19
aI20
aI21
asg38
(issf_api
FeatureSet
p4208
(dp4209
g12
(dp4210
S'name'
p4211
g4072
sS'drel'
p4212
S'k7t:VGNN'
p4213
ssbsba(issf_api
Chunk
p4214
(dp4215
g4056
g454
sg32
I8
sg4143
g463
sg33
I0
sg4047
(lp4216
I22
aI23
asg38
(issf_api
FeatureSet
p4217
(dp4218
g12
(dp4219
S'name'
p4220
g4071
sS'drel'
p4221
S'k7p:VGNN'
p4222
ssbsba(issf_api
Chunk
p4223
(dp4224
g4056
g496
sg32
I9
sg4143
g505
sg33
I0
sg4047
(lp4225
I24
aI25
asg38
(issf_api
FeatureSet
p4226
(dp4227
g12
(dp4228
S'name'
p4229
g4065
sS'drel'
p4230
S'nmod:NP9'
p4231
ssbsba(issf_api
Chunk
p4232
(dp4233
g4056
g597
sg32
I10
sg4143
g608
sg33
I0
sg4047
(lp4234
I26
aI27
aI28
aI29
aI30
asg38
(issf_api
FeatureSet
p4235
(dp4236
g12
(dp4237
S'name'
p4238
g4087
sS'drel'
p4239
S'r6-k2:NP10'
p4240
ssbsba(issf_api
Chunk
p4241
(dp4242
g4056
g639
sg32
I11
sg4143
g644
sg33
I0
sg4047
(lp4243
I31
asg38
(issf_api
FeatureSet
p4244
(dp4245
g12
(dp4246
S'name'
p4247
g4081
sS'drel'
p4248
S'pof:VGF'
p4249
ssbsba(issf_api
Chunk
p4250
(dp4251
g4056
g658
sg32
I12
sg4143
g665
sg33
I0
sg4047
(lp4252
I32
asg38
(issf_api
FeatureSet
p4253
(dp4254
g12
(dp4255
S'name'
p4256
g4074
ssbsba(issf_api
Chunk
p4257
(dp4258
g4056
g679
sg32
I13
sg4143
g684
sg33
I0
sg4047
(lp4259
I33
asg38
(issf_api
FeatureSet
p4260
(dp4261
g12
(dp4262
S'name'
p4263
g4080
sS'drel'
p4264
S'rsym:VGF'
p4265
ssbsbasba(issf_api
Sentence
p4266
(dp4267
g4045
(lp4268
sg33
I1
sg4047
(lp4269
I34
aI35
aI36
aI37
aI38
aI39
aI40
aI41
asg4049
(dp4270
S'BLK2'
p4271
(issf_api
Node
p4272
(dp4273
g4054
S'rsym'
p4274
sg4056
g4271
sg4057
S'CCP'
p4275
sg4059
I-1
sg32
I5
sg4060
(lp4276
sbsS'VGF'
p4277
(issf_api
Node
p4278
(dp4279
g4054
S'ccof'
p4280
sg4056
g4277
sg4057
S'CCP'
p4281
sg4059
I-1
sg32
I4
sg4060
(lp4282
S'BLK'
p4283
aS'NP'
p4284
aS'NP2'
p4285
asbsS'CCP'
p4286
(issf_api
Node
p4287
(dp4288
g4054
g4077
sg4056
g4286
sg4057
g4077
sg4059
I-1
sg32
I0
sg4060
(lp4289
g4271
ag4277
asbsg4283
(issf_api
Node
p4290
(dp4291
g4054
S'pof'
p4292
sg4056
g4283
sg4057
S'VGF'
p4293
sg4059
I-1
sg32
I3
sg4060
(lp4294
sbsg4284
(issf_api
Node
p4295
(dp4296
g4054
S'k1'
p4297
sg4056
g4284
sg4057
S'VGF'
p4298
sg4059
I-1
sg32
I1
sg4060
(lp4299
sbsg4285
(issf_api
Node
p4300
(dp4301
g4054
S'k2'
p4302
sg4056
g4285
sg4057
S'VGF'
p4303
sg4059
I-1
sg32
I2
sg4060
(lp4304
sbssg4139
(lp4305
(issf_api
Chunk
p4306
(dp4307
g4056
g694
sg32
I0
sg4143
g701
sg33
I1
sg4047
(lp4308
I34
asg38
(issf_api
FeatureSet
p4309
(dp4310
g12
(dp4311
S'name'
p4312
g4286
ssbsba(issf_api
Chunk
p4313
(dp4314
g4056
g717
sg32
I1
sg4143
g726
sg33
I1
sg4047
(lp4315
I35
asg38
(issf_api
FeatureSet
p4316
(dp4317
g12
(dp4318
S'name'
p4319
g4284
sS'drel'
p4320
S'k1:VGF'
p4321
ssbsba(issf_api
Chunk
p4322
(dp4323
g4056
g757
sg32
I2
sg4143
g762
sg33
I1
sg4047
(lp4324
I36
aI37
asg38
(issf_api
FeatureSet
p4325
(dp4326
g12
(dp4327
S'name'
p4328
g4285
sS'drel'
p4329
S'k2:VGF'
p4330
ssbsba(issf_api
Chunk
p4331
(dp4332
g4056
g776
sg32
I3
sg4143
g781
sg33
I1
sg4047
(lp4333
I38
asg38
(issf_api
FeatureSet
p4334
(dp4335
g12
(dp4336
S'name'
p4337
g4283
sS'drel'
p4338
S'pof:VGF'
p4339
ssbsba(issf_api
Chunk
p4340
(dp4341
g4056
g795
sg32
I4
sg4143
g806
sg33
I1
sg4047
(lp4342
I39
aI40
asg38
(issf_api
FeatureSet
p4343
(dp4344
g12
(dp4345
S'name'
p4346
g4277
sS'drel'
p4347
S'ccof:CCP'
p4348
ssbsba(issf_api
Chunk
p4349
(dp4350
g4056
g837
sg32
I5
sg4143
g842
sg33
I1
sg4047
(lp4351
I41
asg38
(issf_api
FeatureSet
p4352
(dp4353
g12
(dp4354
S'name'
p4355
g4271
sS'drel'
p4356
S'rsym:CCP'
p4357
ssbsbasba(issf_api
Sentence
p4358
(dp4359
g4045
(lp4360
sg33
I2
sg4047
(lp4361
I42
aI43
aI44
aI45
aI46
aI47
aI48
aI49
aI50
aI51
aI52
aI53
aI54
aI55
aI56
aI57
aI58
asg4049
(dp4362
S'NULL__CCP'
p4363
(issf_api
Node
p4364
(dp4365
g4054
S'k2'
p4366
sg4056
g4363
sg4057
S'VGF'
p4367
sg4059
I-1
sg32
I-1
sg4060
(lp4368
S'NP5'
p4369
aS'NP3'
p4370
asbsS'VGF'
p4371
(issf_api
Node
p4372
(dp4373
g4054
g4077
sg4056
g4371
sg4057
g4077
sg4059
I-1
sg32
I5
sg4060
(lp4374
g4363
aS'BLK'
p4375
aS'NP'
p4376
asbsg4369
(issf_api
Node
p4377
(dp4378
g4054
S'ccof'
p4379
sg4056
g4369
sg4057
S'NULL__CCP'
p4380
sg4059
I-1
sg32
I4
sg4060
(lp4381
S'NP4'
p4382
asbsg4375
(issf_api
Node
p4383
(dp4384
g4054
S'rsym'
p4385
sg4056
g4375
sg4057
S'VGF'
p4386
sg4059
I-1
sg32
I6
sg4060
(lp4387
sbsg4376
(issf_api
Node
p4388
(dp4389
g4054
S'k7'
p4390
sg4056
g4376
sg4057
S'VGF'
p4391
sg4059
I-1
sg32
I0
sg4060
(lp4392
sbsg4382
(issf_api
Node
p4393
(dp4394
g4054
S'nmod'
p4395
sg4056
g4382
sg4057
S'NP5'
p4396
sg4059
I-1
sg32
I3
sg4060
(lp4397
sbsg4370
(issf_api
Node
p4398
(dp4399
g4054
S'ccof'
p4400
sg4056
g4370
sg4057
S'NULL__CCP'
p4401
sg4059
I-1
sg32
I2
sg4060
(lp4402
S'NP2'
p4403
asbsg4403
(issf_api
Node
p4404
(dp4405
g4054
S'r6'
p4406
sg4056
g4403
sg4057
S'NP3'
p4407
sg4059
I-1
sg32
I1
sg4060
(lp4408
sbssg4139
(lp4409
(issf_api
Chunk
p4410
(dp4411
g4056
g858
sg32
I0
sg4143
g867
sg33
I2
sg4047
(lp4412
I42
aI43
asg38
(issf_api
FeatureSet
p4413
(dp4414
g12
(dp4415
S'name'
p4416
g4376
sS'drel'
p4417
S'k7:VGF'
p4418
ssbsba(issf_api
Chunk
p4419
(dp4420
g4056
g900
sg32
I1
sg4143
g909
sg33
I2
sg4047
(lp4421
I44
aI45
asg38
(issf_api
FeatureSet
p4422
(dp4423
g12
(dp4424
S'name'
p4425
g4403
sS'drel'
p4426
S'r6:NP3'
p4427
ssbsba(issf_api
Chunk
p4428
(dp4429
g4056
g961
sg32
I2
sg4143
g970
sg33
I2
sg4047
(lp4430
I46
aI47
aI48
asg38
(issf_api
FeatureSet
p4431
(dp4432
g12
(dp4433
S'name'
p4434
g4370
sS'drel'
p4435
S'ccof:NULL__CCP'
p4436
ssbsba(issf_api
Chunk
p4437
(dp4438
g4056
g1022
sg32
I3
sg4143
g1029
sg33
I2
sg4047
(lp4439
I49
aI50
asg38
(issf_api
FeatureSet
p4440
(dp4441
g12
(dp4442
S'name'
p4443
g4382
sS'drel'
p4444
S'nmod:NP5'
p4445
ssbsba(issf_api
Chunk
p4446
(dp4447
g4056
g1064
sg32
I4
sg4143
g1077
sg33
I2
sg4047
(lp4448
I51
aI52
aI53
aI54
asg38
(issf_api
FeatureSet
p4449
(dp4450
g12
(dp4451
S'name'
p4452
g4369
sS'drel'
p4453
S'ccof:NULL__CCP'
p4454
ssbsba(issf_api
Chunk
p4455
(dp4456
g4056
g1125
sg32
I5
sg4143
g1134
sg33
I2
sg4047
(lp4457
I55
aI56
aI57
asg38
(issf_api
FeatureSet
p4458
(dp4459
g12
(dp4460
S'name'
p4461
g4371
ssbsba(issf_api
Chunk
p4462
(dp4463
g4056
g1182
sg32
I6
sg4143
g1187
sg33
I2
sg4047
(lp4464
I58
asg38
(issf_api
FeatureSet
p4465
(dp4466
g12
(dp4467
S'name'
p4468
g4375
sS'drel'
p4469
S'rsym:VGF'
p4470
ssbsbasba(issf_api
Sentence
p4471
(dp4472
g4045
(lp4473
sg33
I3
sg4047
(lp4474
I59
aI60
aI61
aI62
aI63
aI64
aI65
aI66
aI67
aI68
aI69
aI70
aI71
aI72
aI73
aI74
asg4049
(dp4475
S'VGNF'
p4476
(issf_api
Node
p4477
(dp4478
g4054
S'nmod__k1inv'
p4479
sg4056
g4476
sg4057
S'NP3'
p4480
sg4059
I-1
sg32
I2
sg4060
(lp4481
S'NP'
p4482
aS'NP2'
p4483
asbsS'VGF'
p4484
(issf_api
Node
p4485
(dp4486
g4054
g4077
sg4056
g4484
sg4057
g4077
sg4059
I-1
sg32
I5
sg4060
(lp4487
S'BLK'
p4488
aS'NP4'
p4489
asbsg4488
(issf_api
Node
p4490
(dp4491
g4054
S'rsym'
p4492
sg4056
g4488
sg4057
S'VGF'
p4493
sg4059
I-1
sg32
I6
sg4060
(lp4494
sbsg4482
(issf_api
Node
p4495
(dp4496
g4054
S'rh'
p4497
sg4056
g4482
sg4057
S'VGNF'
p4498
sg4059
I-1
sg32
I0
sg4060
(lp4499
sbsg4489
(issf_api
Node
p4500
(dp4501
g4054
S'pof'
p4502
sg4056
g4489
sg4057
S'VGF'
p4503
sg4059
I-1
sg32
I4
sg4060
(lp4504
S'NP3'
p4505
asbsg4505
(issf_api
Node
p4506
(dp4507
g4054
S'r6-k1'
p4508
sg4056
g4505
sg4057
S'NP4'
p4509
sg4059
I-1
sg32
I3
sg4060
(lp4510
g4476
asbsg4483
(issf_api
Node
p4511
(dp4512
g4054
S'k7'
p4513
sg4056
g4483
sg4057
S'VGNF'
p4514
sg4059
I-1
sg32
I1
sg4060
(lp4515
sbssg4139
(lp4516
(issf_api
Chunk
p4517
(dp4518
g4056
g1218
sg32
I0
sg4143
g1225
sg33
I3
sg4047
(lp4519
I59
aI60
aI61
aI62
asg38
(issf_api
FeatureSet
p4520
(dp4521
g12
(dp4522
S'name'
p4523
g4482
sS'drel'
p4524
S'rh:VGNF'
p4525
ssbsba(issf_api
Chunk
p4526
(dp4527
g4056
g1290
sg32
I1
sg4143
g1297
sg33
I3
sg4047
(lp4528
I63
aI64
aI65
asg38
(issf_api
FeatureSet
p4529
(dp4530
g12
(dp4531
S'name'
p4532
g4483
sS'drel'
p4533
S'k7:VGNF'
p4534
ssbsba(issf_api
Chunk
p4535
(dp4536
g4056
g1328
sg32
I2
sg4143
g1335
sg33
I3
sg4047
(lp4537
I66
aI67
asg38
(issf_api
FeatureSet
p4538
(dp4539
g12
(dp4540
S'name'
p4541
g4476
sS'drel'
p4542
S'nmod__k1inv:NP3'
p4543
ssbsba(issf_api
Chunk
p4544
(dp4545
g4056
g1387
sg32
I3
sg4143
g1398
sg33
I3
sg4047
(lp4546
I68
aI69
aI70
asg38
(issf_api
FeatureSet
p4547
(dp4548
g12
(dp4549
S'name'
p4550
g4505
sS'drel'
p4551
S'r6-k1:NP4'
p4552
ssbsba(issf_api
Chunk
p4553
(dp4554
g4056
g1429
sg32
I4
sg4143
g1434
sg33
I3
sg4047
(lp4555
I71
asg38
(issf_api
FeatureSet
p4556
(dp4557
g12
(dp4558
S'name'
p4559
g4489
sS'drel'
p4560
S'pof:VGF'
p4561
ssbsba(issf_api
Chunk
p4562
(dp4563
g4056
g1448
sg32
I5
sg4143
g1457
sg33
I3
sg4047
(lp4564
I72
aI73
asg38
(issf_api
FeatureSet
p4565
(dp4566
g12
(dp4567
S'name'
p4568
g4484
ssbsba(issf_api
Chunk
p4569
(dp4570
g4056
g1488
sg32
I6
sg4143
g1493
sg33
I3
sg4047
(lp4571
I74
asg38
(issf_api
FeatureSet
p4572
(dp4573
g12
(dp4574
S'name'
p4575
g4488
sS'drel'
p4576
S'rsym:VGF'
p4577
ssbsbasba(issf_api
Sentence
p4578
(dp4579
g4045
(lp4580
sg33
I4
sg4047
(lp4581
I75
aI76
aI77
aI78
aI79
aI80
aI81
aI82
aI83
asg4049
(dp4582
S'NULL__CCP'
p4583
(issf_api
Node
p4584
(dp4585
g4054
S'k1'
p4586
sg4056
g4583
sg4057
S'VGF'
p4587
sg4059
I-1
sg32
I-1
sg4060
(lp4588
S'NP'
p4589
aS'NP2'
p4590
asbsS'VGF'
p4591
(issf_api
Node
p4592
(dp4593
g4054
S'ccof'
p4594
sg4056
g4591
sg4057
S'CCP'
p4595
sg4059
I-1
sg32
I4
sg4060
(lp4596
g4583
aS'NP3'
p4597
asbsS'CCP'
p4598
(issf_api
Node
p4599
(dp4600
g4054
g4077
sg4056
g4598
sg4057
g4077
sg4059
I-1
sg32
I0
sg4060
(lp4601
g4591
aS'BLK'
p4602
asbsg4602
(issf_api
Node
p4603
(dp4604
g4054
S'rsym'
p4605
sg4056
g4602
sg4057
S'CCP'
p4606
sg4059
I-1
sg32
I5
sg4060
(lp4607
sbsg4589
(issf_api
Node
p4608
(dp4609
g4054
S'ccof'
p4610
sg4056
g4589
sg4057
S'NULL__CCP'
p4611
sg4059
I-1
sg32
I1
sg4060
(lp4612
sbsg4597
(issf_api
Node
p4613
(dp4614
g4054
S'pof'
p4615
sg4056
g4597
sg4057
S'VGF'
p4616
sg4059
I-1
sg32
I3
sg4060
(lp4617
sbsg4590
(issf_api
Node
p4618
(dp4619
g4054
S'ccof'
p4620
sg4056
g4590
sg4057
S'NULL__CCP'
p4621
sg4059
I-1
sg32
I2
sg4060
(lp4622
sbssg4139
(lp4623
(issf_api
Chunk
p4624
(dp4625
g4056
g1503
sg32
I0
sg4143
g1510
sg33
I4
sg4047
(lp4626
I75
asg38
(issf_api
FeatureSet
p4627
(dp4628
g12
(dp4629
S'name'
p4630
g4598
ssbsba(issf_api
Chunk
p4631
(dp4632
g4056
g1524
sg32
I1
sg4143
g1529
sg33
I4
sg4047
(lp4633
I76
aI77
asg38
(issf_api
FeatureSet
p4634
(dp4635
g12
(dp4636
S'name'
p4637
g4589
sS'drel'
p4638
S'ccof:NULL__CCP'
p4639
ssbsba(issf_api
Chunk
p4640
(dp4641
g4056
g1559
sg32
I2
sg4143
g1564
sg33
I4
sg4047
(lp4642
I78
asg38
(issf_api
FeatureSet
p4643
(dp4644
g12
(dp4645
S'name'
p4646
g4590
sS'drel'
p4647
S'ccof:NULL__CCP'
p4648
ssbsba(issf_api
Chunk
p4649
(dp4650
g4056
g1578
sg32
I3
sg4143
g1583
sg33
I4
sg4047
(lp4651
I79
asg38
(issf_api
FeatureSet
p4652
(dp4653
g12
(dp4654
S'name'
p4655
g4597
sS'drel'
p4656
S'pof:VGF'
p4657
ssbsba(issf_api
Chunk
p4658
(dp4659
g4056
g1614
sg32
I4
sg4143
g1625
sg33
I4
sg4047
(lp4660
I80
aI81
aI82
asg38
(issf_api
FeatureSet
p4661
(dp4662
g12
(dp4663
S'name'
p4664
g4591
sS'drel'
p4665
S'ccof:CCP'
p4666
ssbsba(issf_api
Chunk
p4667
(dp4668
g4056
g1656
sg32
I5
sg4143
g1661
sg33
I4
sg4047
(lp4669
I83
asg38
(issf_api
FeatureSet
p4670
(dp4671
g12
(dp4672
S'name'
p4673
g4602
sS'drel'
p4674
S'rsym:CCP'
p4675
ssbsbasba(issf_api
Sentence
p4676
(dp4677
g4045
(lp4678
sg33
I5
sg4047
(lp4679
I84
aI85
aI86
aI87
aI88
aI89
aI90
asg4049
(dp4680
S'NP'
p4681
(issf_api
Node
p4682
(dp4683
g4054
S'k1'
p4684
sg4056
g4681
sg4057
S'VGF'
p4685
sg4059
I-1
sg32
I0
sg4060
(lp4686
sbsS'VGF'
p4687
(issf_api
Node
p4688
(dp4689
g4054
g4077
sg4056
g4687
sg4057
g4077
sg4059
I-1
sg32
I2
sg4060
(lp4690
g4681
aS'BLK'
p4691
aS'NP2'
p4692
asbsg4691
(issf_api
Node
p4693
(dp4694
g4054
S'rsym'
p4695
sg4056
g4691
sg4057
S'VGF'
p4696
sg4059
I-1
sg32
I3
sg4060
(lp4697
sbsg4692
(issf_api
Node
p4698
(dp4699
g4054
S'k7'
p4700
sg4056
g4692
sg4057
S'VGF'
p4701
sg4059
I-1
sg32
I1
sg4060
(lp4702
sbssg4139
(lp4703
(issf_api
Chunk
p4704
(dp4705
g4056
g1696
sg32
I0
sg4143
g1705
sg33
I5
sg4047
(lp4706
I84
aI85
aI86
asg38
(issf_api
FeatureSet
p4707
(dp4708
g12
(dp4709
S'name'
p4710
g4681
sS'drel'
p4711
S'k1:VGF'
p4712
ssbsba(issf_api
Chunk
p4713
(dp4714
g4056
g1738
sg32
I1
sg4143
g1749
sg33
I5
sg4047
(lp4715
I87
aI88
asg38
(issf_api
FeatureSet
p4716
(dp4717
g12
(dp4718
S'name'
p4719
g4692
sS'drel'
p4720
S'k7:VGF'
p4721
ssbsba(issf_api
Chunk
p4722
(dp4723
g4056
g1780
sg32
I2
sg4143
g1787
sg33
I5
sg4047
(lp4724
I89
asg38
(issf_api
FeatureSet
p4725
(dp4726
g12
(dp4727
S'name'
p4728
g4687
ssbsba(issf_api
Chunk
p4729
(dp4730
g4056
g1801
sg32
I3
sg4143
g1806
sg33
I5
sg4047
(lp4731
I90
asg38
(issf_api
FeatureSet
p4732
(dp4733
g12
(dp4734
S'name'
p4735
g4691
sS'drel'
p4736
S'rsym:VGF'
p4737
ssbsbasba(issf_api
Sentence
p4738
(dp4739
g4045
(lp4740
sg33
I6
sg4047
(lp4741
I91
aI92
aI93
aI94
aI95
aI96
aI97
aI98
aI99
aI100
aI101
aI102
aI103
aI104
aI105
aI106
aI107
aI108
aI109
aI110
aI111
aI112
aI113
aI114
aI115
aI116
aI117
aI118
aI119
aI120
aI121
aI122
aI123
aI124
aI125
aI126
aI127
aI128
aI129
aI130
aI131
aI132
aI133
aI134
aI135
aI136
aI137
aI138
aI139
aI140
asg4049
(dp4742
S'VGF3'
p4743
(issf_api
Node
p4744
(dp4745
g4054
S'nmod__relc'
p4746
sg4056
g4743
sg4057
S'NP12'
p4747
sg4059
I-1
sg32
I26
sg4060
(lp4748
S'NP18'
p4749
aS'NP15'
p4750
aS'NP16'
p4751
asbsS'CCP'
p4752
(issf_api
Node
p4753
(dp4754
g4054
S'k2'
p4755
sg4056
g4752
sg4057
S'VGF'
p4756
sg4059
I-1
sg32
I12
sg4060
(lp4757
S'VGF2'
p4758
asbsg4758
(issf_api
Node
p4759
(dp4760
g4054
S'ccof'
p4761
sg4056
g4758
sg4057
S'CCP'
p4762
sg4059
I-1
sg32
I19
sg4060
(lp4763
S'NP10'
p4764
aS'NP14'
p4765
asbsS'VGNN2'
p4766
(issf_api
Node
p4767
(dp4768
g4054
S'r6'
p4769
sg4056
g4766
sg4057
S'NP18'
p4770
sg4059
I-1
sg32
I24
sg4060
(lp4771
S'NP17'
p4772
aS'JJP2'
p4773
asbsS'NP9'
p4774
(issf_api
Node
p4775
(dp4776
g4054
S'k1'
p4777
sg4056
g4774
sg4057
S'VGF'
p4778
sg4059
I-1
sg32
I10
sg4060
(lp4779
S'NP8'
p4780
asbsg4780
(issf_api
Node
p4781
(dp4782
g4054
S'nmod'
p4783
sg4056
g4780
sg4057
S'NP9'
p4784
sg4059
I-1
sg32
I9
sg4060
(lp4785
S'NP7'
p4786
asbsS'NP5'
p4787
(issf_api
Node
p4788
(dp4789
g4054
S'r6-k2'
p4790
sg4056
g4787
sg4057
S'NP6'
p4791
sg4059
I-1
sg32
I5
sg4060
(lp4792
sbsS'NP4'
p4793
(issf_api
Node
p4794
(dp4795
g4054
S'rt'
p4796
sg4056
g4793
sg4057
S'VGNF'
p4797
sg4059
I-1
sg32
I4
sg4060
(lp4798
S'JJP'
p4799
asbsg4786
(issf_api
Node
p4800
(dp4801
g4054
S'r6'
p4802
sg4056
g4786
sg4057
S'NP8'
p4803
sg4059
I-1
sg32
I8
sg4060
(lp4804
sbsS'NP6'
p4805
(issf_api
Node
p4806
(dp4807
g4054
S'pof'
p4808
sg4056
g4805
sg4057
S'VGNF'
p4809
sg4059
I-1
sg32
I6
sg4060
(lp4810
g4787
asbsS'NP3'
p4811
(issf_api
Node
p4812
(dp4813
g4054
S'jjmod'
p4814
sg4056
g4811
sg4057
S'JJP'
p4815
sg4059
I-1
sg32
I2
sg4060
(lp4816
S'NP2'
p4817
asbsg4817
(issf_api
Node
p4818
(dp4819
g4054
S'r6'
p4820
sg4056
g4817
sg4057
S'NP3'
p4821
sg4059
I-1
sg32
I1
sg4060
(lp4822
S'NP'
p4823
asbsg4749
(issf_api
Node
p4824
(dp4825
g4054
S'k2'
p4826
sg4056
g4749
sg4057
S'VGF3'
p4827
sg4059
I-1
sg32
I25
sg4060
(lp4828
g4766
asbsS'NP11'
p4829
(issf_api
Node
p4830
(dp4831
g4054
S'r6'
p4832
sg4056
g4829
sg4057
S'NP12'
p4833
sg4059
I-1
sg32
I14
sg4060
(lp4834
sbsg4764
(issf_api
Node
p4835
(dp4836
g4054
S'k1'
p4837
sg4056
g4764
sg4057
S'VGF2'
p4838
sg4059
I-1
sg32
I13
sg4060
(lp4839
sbsS'NP13'
p4840
(issf_api
Node
p4841
(dp4842
g4054
S'pof'
p4843
sg4056
g4840
sg4057
S'VGNN'
p4844
sg4059
I-1
sg32
I16
sg4060
(lp4845
sbsS'NP12'
p4846
(issf_api
Node
p4847
(dp4848
g4054
S'k2'
p4849
sg4056
g4846
sg4057
S'VGNN'
p4850
sg4059
I-1
sg32
I15
sg4060
(lp4851
g4743
ag4829
asbsg4750
(issf_api
Node
p4852
(dp4853
g4054
S'k7'
p4854
sg4056
g4750
sg4057
S'VGF3'
p4855
sg4059
I-1
sg32
I20
sg4060
(lp4856
sbsg4765
(issf_api
Node
p4857
(dp4858
g4054
S'pof'
p4859
sg4056
g4765
sg4057
S'VGF2'
p4860
sg4059
I-1
sg32
I18
sg4060
(lp4861
S'VGNN'
p4862
asbsg4772
(issf_api
Node
p4863
(dp4864
g4054
S'k1'
p4865
sg4056
g4772
sg4057
S'VGNN2'
p4866
sg4059
I-1
sg32
I22
sg4060
(lp4867
sbsg4751
(issf_api
Node
p4868
(dp4869
g4054
S'k1'
p4870
sg4056
g4751
sg4057
S'VGF3'
p4871
sg4059
I-1
sg32
I21
sg4060
(lp4872
sbsg4823
(issf_api
Node
p4873
(dp4874
g4054
S'r6'
p4875
sg4056
g4823
sg4057
S'NP2'
p4876
sg4059
I-1
sg32
I0
sg4060
(lp4877
sbsS'VGNF'
p4878
(issf_api
Node
p4879
(dp4880
g4054
S'vmod'
p4881
sg4056
g4878
sg4057
S'VGF'
p4882
sg4059
I-1
sg32
I7
sg4060
(lp4883
g4793
ag4805
asbsg4862
(issf_api
Node
p4884
(dp4885
g4054
S'r6-k2'
p4886
sg4056
g4862
sg4057
S'NP14'
p4887
sg4059
I-1
sg32
I17
sg4060
(lp4888
g4840
ag4846
asbsS'VGF'
p4889
(issf_api
Node
p4890
(dp4891
g4054
g4077
sg4056
g4889
sg4057
g4077
sg4059
I-1
sg32
I11
sg4060
(lp4892
g4752
ag4774
ag4878
aS'BLK'
p4893
asbsg4893
(issf_api
Node
p4894
(dp4895
g4054
S'rsym'
p4896
sg4056
g4893
sg4057
S'VGF'
p4897
sg4059
I-1
sg32
I27
sg4060
(lp4898
sbsg4799
(issf_api
Node
p4899
(dp4900
g4054
S'nmod'
p4901
sg4056
g4799
sg4057
S'NP4'
p4902
sg4059
I-1
sg32
I3
sg4060
(lp4903
g4811
asbsg4773
(issf_api
Node
p4904
(dp4905
g4054
S'pof'
p4906
sg4056
g4773
sg4057
S'VGNN2'
p4907
sg4059
I-1
sg32
I23
sg4060
(lp4908
sbssg4139
(lp4909
(issf_api
Chunk
p4910
(dp4911
g4056
g1822
sg32
I0
sg4143
g1833
sg33
I6
sg4047
(lp4912
I91
aI92
asg38
(issf_api
FeatureSet
p4913
(dp4914
g12
(dp4915
S'name'
p4916
g4823
sS'drel'
p4917
S'r6:NP2'
p4918
ssbsba(issf_api
Chunk
p4919
(dp4920
g4056
g1881
sg32
I1
sg4143
g1888
sg33
I6
sg4047
(lp4921
I93
aI94
aI95
asg38
(issf_api
FeatureSet
p4922
(dp4923
g12
(dp4924
S'name'
p4925
g4817
sS'drel'
p4926
S'r6:NP3'
p4927
ssbsba(issf_api
Chunk
p4928
(dp4929
g4056
g1919
sg32
I2
sg4143
g1926
sg33
I6
sg4047
(lp4930
I96
aI97
asg38
(issf_api
FeatureSet
p4931
(dp4932
g12
(dp4933
S'name'
p4934
g4811
sS'drel'
p4935
S'jjmod:JJP'
p4936
ssbsba(issf_api
Chunk
p4937
(dp4938
g4056
g1957
sg32
I3
sg4143
g1962
sg33
I6
sg4047
(lp4939
I98
asg38
(issf_api
FeatureSet
p4940
(dp4941
g12
(dp4942
S'name'
p4943
g4799
sS'drel'
p4944
S'nmod:NP4'
p4945
ssbsba(issf_api
Chunk
p4946
(dp4947
g4056
g1997
sg32
I4
sg4143
g2008
sg33
I6
sg4047
(lp4948
I99
aI100
aI101
aI102
asg38
(issf_api
FeatureSet
p4949
(dp4950
g12
(dp4951
S'name'
p4952
g4793
sS'drel'
p4953
S'rt:VGNF'
p4954
ssbsba(issf_api
Chunk
p4955
(dp4956
g4056
g2096
sg32
I5
sg4143
g2109
sg33
I6
sg4047
(lp4957
I103
aI104
aI105
aI106
asg38
(issf_api
FeatureSet
p4958
(dp4959
g12
(dp4960
S'name'
p4961
g4787
sS'drel'
p4962
S'r6-k2:NP6'
p4963
ssbsba(issf_api
Chunk
p4964
(dp4965
g4056
g2140
sg32
I6
sg4143
g2145
sg33
I6
sg4047
(lp4966
I107
asg38
(issf_api
FeatureSet
p4967
(dp4968
g12
(dp4969
S'name'
p4970
g4805
sS'drel'
p4971
S'pof:VGNF'
p4972
ssbsba(issf_api
Chunk
p4973
(dp4974
g4056
g2159
sg32
I7
sg4143
g2166
sg33
I6
sg4047
(lp4975
I108
aI109
asg38
(issf_api
FeatureSet
p4976
(dp4977
g12
(dp4978
S'name'
p4979
g4878
sS'drel'
p4980
S'vmod:VGF'
p4981
ssbsba(issf_api
Chunk
p4982
(dp4983
g4056
g2201
sg32
I8
sg4143
g2214
sg33
I6
sg4047
(lp4984
I110
aI111
asg38
(issf_api
FeatureSet
p4985
(dp4986
g12
(dp4987
S'name'
p4988
g4786
sS'drel'
p4989
S'r6:NP8'
p4990
ssbsba(issf_api
Chunk
p4991
(dp4992
g4056
g2247
sg32
I9
sg4143
g2256
sg33
I6
sg4047
(lp4993
I112
asg38
(issf_api
FeatureSet
p4994
(dp4995
g12
(dp4996
S'name'
p4997
g4780
sS'drel'
p4998
S'nmod:NP9'
p4999
ssbsba(issf_api
Chunk
p5000
(dp5001
g4056
g2291
sg32
I10
sg4143
g2304
sg33
I6
sg4047
(lp5002
I113
aI114
aI115
asg38
(issf_api
FeatureSet
p5003
(dp5004
g12
(dp5005
S'name'
p5006
g4774
sS'drel'
p5007
S'k1:VGF'
p5008
ssbsba(issf_api
Chunk
p5009
(dp5010
g4056
g2335
sg32
I11
sg4143
g2342
sg33
I6
sg4047
(lp5011
I116
asg38
(issf_api
FeatureSet
p5012
(dp5013
g12
(dp5014
S'name'
p5015
g4889
ssbsba(issf_api
Chunk
p5016
(dp5017
g4056
g2356
sg32
I12
sg4143
g2361
sg33
I6
sg4047
(lp5018
I117
asg38
(issf_api
FeatureSet
p5019
(dp5020
g12
(dp5021
S'name'
p5022
g4752
sS'drel'
p5023
S'k2:VGF'
p5024
ssbsba(issf_api
Chunk
p5025
(dp5026
g4056
g2377
sg32
I13
sg4143
g2388
sg33
I6
sg4047
(lp5027
I118
aI119
asg38
(issf_api
FeatureSet
p5028
(dp5029
g12
(dp5030
S'name'
p5031
g4764
sS'drel'
p5032
S'k1:VGF2'
p5033
ssbsba(issf_api
Chunk
p5034
(dp5035
g4056
g2421
sg32
I14
sg4143
g2432
sg33
I6
sg4047
(lp5036
I120
aI121
asg38
(issf_api
FeatureSet
p5037
(dp5038
g12
(dp5039
S'name'
p5040
g4829
sS'drel'
p5041
S'r6:NP12'
p5042
ssbsba(issf_api
Chunk
p5043
(dp5044
g4056
g2484
sg32
I15
sg4143
g2495
sg33
I6
sg4047
(lp5045
I122
aI123
aI124
asg38
(issf_api
FeatureSet
p5046
(dp5047
g12
(dp5048
S'name'
p5049
g4846
sS'drel'
p5050
S'k2:VGNN'
p5051
ssbsba(issf_api
Chunk
p5052
(dp5053
g4056
g2526
sg32
I16
sg4143
g2531
sg33
I6
sg4047
(lp5054
I125
asg38
(issf_api
FeatureSet
p5055
(dp5056
g12
(dp5057
S'name'
p5058
g4840
sS'drel'
p5059
S'pof:VGNN'
p5060
ssbsba(issf_api
Chunk
p5061
(dp5062
g4056
g2545
sg32
I17
sg4143
g2552
sg33
I6
sg4047
(lp5063
I126
aI127
asg38
(issf_api
FeatureSet
p5064
(dp5065
g12
(dp5066
S'name'
p5067
g4862
sS'drel'
p5068
S'r6-k2:NP14'
p5069
ssbsba(issf_api
Chunk
p5070
(dp5071
g4056
g2583
sg32
I18
sg4143
g2588
sg33
I6
sg4047
(lp5072
I128
asg38
(issf_api
FeatureSet
p5073
(dp5074
g12
(dp5075
S'name'
p5076
g4765
sS'drel'
p5077
S'pof:VGF2'
p5078
ssbsba(issf_api
Chunk
p5079
(dp5080
g4056
g2602
sg32
I19
sg4143
g2611
sg33
I6
sg4047
(lp5081
I129
asg38
(issf_api
FeatureSet
p5082
(dp5083
g12
(dp5084
S'name'
p5085
g4758
sS'drel'
p5086
S'ccof:CCP'
p5087
ssbsba(issf_api
Chunk
p5088
(dp5089
g4056
g2629
sg32
I20
sg4143
g2638
sg33
I6
sg4047
(lp5090
I130
asg38
(issf_api
FeatureSet
p5091
(dp5092
g12
(dp5093
S'name'
p5094
g4750
sS'drel'
p5095
S'k7:VGF3'
p5096
ssbsba(issf_api
Chunk
p5097
(dp5098
g4056
g2654
sg32
I21
sg4143
g2663
sg33
I6
sg4047
(lp5099
I131
asg38
(issf_api
FeatureSet
p5100
(dp5101
g12
(dp5102
S'name'
p5103
g4751
sS'drel'
p5104
S'k1:VGF3'
p5105
ssbsba(issf_api
Chunk
p5106
(dp5107
g4056
g2679
sg32
I22
sg4143
g2690
sg33
I6
sg4047
(lp5108
I132
aI133
asg38
(issf_api
FeatureSet
p5109
(dp5110
g12
(dp5111
S'name'
p5112
g4772
sS'drel'
p5113
S'k1:VGNN2'
p5114
ssbsba(issf_api
Chunk
p5115
(dp5116
g4056
g2721
sg32
I23
sg4143
g2726
sg33
I6
sg4047
(lp5117
I134
asg38
(issf_api
FeatureSet
p5118
(dp5119
g12
(dp5120
S'name'
p5121
g4773
sS'drel'
p5122
S'pof:VGNN2'
p5123
ssbsba(issf_api
Chunk
p5124
(dp5125
g4056
g2740
sg32
I24
sg4143
g2747
sg33
I6
sg4047
(lp5126
I135
aI136
asg38
(issf_api
FeatureSet
p5127
(dp5128
g12
(dp5129
S'name'
p5130
g4766
sS'drel'
p5131
S'r6:NP18'
p5132
ssbsba(issf_api
Chunk
p5133
(dp5134
g4056
g2778
sg32
I25
sg4143
g2783
sg33
I6
sg4047
(lp5135
I137
asg38
(issf_api
FeatureSet
p5136
(dp5137
g12
(dp5138
S'name'
p5139
g4749
sS'drel'
p5140
S'k2:VGF3'
p5141
ssbsba(issf_api
Chunk
p5142
(dp5143
g4056
g2797
sg32
I26
sg4143
g2808
sg33
I6
sg4047
(lp5144
I138
aI139
asg38
(issf_api
FeatureSet
p5145
(dp5146
g12
(dp5147
S'name'
p5148
g4743
sS'drel'
p5149
S'nmod__relc:NP12'
p5150
ssbsba(issf_api
Chunk
p5151
(dp5152
g4056
g2839
sg32
I27
sg4143
g2844
sg33
I6
sg4047
(lp5153
I140
asg38
(issf_api
FeatureSet
p5154
(dp5155
g12
(dp5156
S'name'
p5157
g4893
sS'drel'
p5158
S'rsym:VGF'
p5159
ssbsbasba(issf_api
Sentence
p5160
(dp5161
g4045
(lp5162
sg33
I7
sg4047
(lp5163
I141
aI142
aI143
aI144
aI145
aI146
aI147
aI148
aI149
aI150
aI151
aI152
aI153
aI154
aI155
aI156
aI157
aI158
aI159
aI160
aI161
aI162
aI163
aI164
aI165
aI166
aI167
aI168
aI169
aI170
aI171
aI172
aI173
aI174
aI175
aI176
aI177
aI178
aI179
aI180
aI181
aI182
aI183
aI184
aI185
aI186
aI187
aI188
aI189
aI190
aI191
aI192
aI193
aI194
aI195
aI196
aI197
aI198
aI199
aI200
aI201
aI202
aI203
aI204
asg4049
(dp5164
S'CCP'
p5165
(issf_api
Node
p5166
(dp5167
g4054
S'rs'
p5168
sg4056
g5165
sg4057
S'NP2'
p5169
sg4059
I-1
sg32
I19
sg4060
(lp5170
S'NP9'
p5171
aS'NP8'
p5172
aS'NP5'
p5173
aS'NP7'
p5174
aS'NP3'
p5175
aS'NP19'
p5176
aS'NP18'
p5177
aS'NP11'
p5178
aS'NP10'
p5179
aS'NP13'
p5180
aS'NP12'
p5181
aS'NP15'
p5182
aS'NP14'
p5183
aS'NP17'
p5184
aS'NP16'
p5185
asbsg5171
(issf_api
Node
p5186
(dp5187
g4054
S'ccof'
p5188
sg4056
g5171
sg4057
S'CCP'
p5189
sg4059
I-1
sg32
I9
sg4060
(lp5190
sbsg5172
(issf_api
Node
p5191
(dp5192
g4054
S'ccof'
p5193
sg4056
g5172
sg4057
S'CCP'
p5194
sg4059
I-1
sg32
I8
sg4060
(lp5195
sbsg5173
(issf_api
Node
p5196
(dp5197
g4054
S'ccof'
p5198
sg4056
g5173
sg4057
S'CCP'
p5199
sg4059
I-1
sg32
I5
sg4060
(lp5200
S'NP6'
p5201
asbsS'NP4'
p5202
(issf_api
Node
p5203
(dp5204
g4054
S'nmod'
p5205
sg4056
g5202
sg4057
S'NP3'
p5206
sg4059
I-1
sg32
I4
sg4060
(lp5207
sbsg5174
(issf_api
Node
p5208
(dp5209
g4054
S'ccof'
p5210
sg4056
g5174
sg4057
S'CCP'
p5211
sg4059
I-1
sg32
I7
sg4060
(lp5212
sbsg5201
(issf_api
Node
p5213
(dp5214
g4054
S'nmod'
p5215
sg4056
g5201
sg4057
S'NP5'
p5216
sg4059
I-1
sg32
I6
sg4060
(lp5217
sbsg5175
(issf_api
Node
p5218
(dp5219
g4054
S'ccof'
p5220
sg4056
g5175
sg4057
S'CCP'
p5221
sg4059
I-1
sg32
I3
sg4060
(lp5222
g5202
asbsS'NP2'
p5223
(issf_api
Node
p5224
(dp5225
g4054
S'k1s'
p5226
sg4056
g5223
sg4057
S'VGF'
p5227
sg4059
I-1
sg32
I1
sg4060
(lp5228
g5165
asbsg5176
(issf_api
Node
p5229
(dp5230
g4054
S'ccof'
p5231
sg4056
g5176
sg4057
S'CCP'
p5232
sg4059
I-1
sg32
I20
sg4060
(lp5233
S'NP20'
p5234
asbsg5177
(issf_api
Node
p5235
(dp5236
g4054
S'ccof'
p5237
sg4056
g5177
sg4057
S'CCP'
p5238
sg4059
I-1
sg32
I18
sg4060
(lp5239
sbsg5178
(issf_api
Node
p5240
(dp5241
g4054
S'ccof'
p5242
sg4056
g5178
sg4057
S'CCP'
p5243
sg4059
I-1
sg32
I11
sg4060
(lp5244
sbsg5179
(issf_api
Node
p5245
(dp5246
g4054
S'ccof'
p5247
sg4056
g5179
sg4057
S'CCP'
p5248
sg4059
I-1
sg32
I10
sg4060
(lp5249
sbsg5180
(issf_api
Node
p5250
(dp5251
g4054
S'ccof'
p5252
sg4056
g5180
sg4057
S'CCP'
p5253
sg4059
I-1
sg32
I13
sg4060
(lp5254
sbsg5181
(issf_api
Node
p5255
(dp5256
g4054
S'ccof'
p5257
sg4056
g5181
sg4057
S'CCP'
p5258
sg4059
I-1
sg32
I12
sg4060
(lp5259
sbsg5182
(issf_api
Node
p5260
(dp5261
g4054
S'ccof'
p5262
sg4056
g5182
sg4057
S'CCP'
p5263
sg4059
I-1
sg32
I15
sg4060
(lp5264
sbsg5183
(issf_api
Node
p5265
(dp5266
g4054
S'ccof'
p5267
sg4056
g5183
sg4057
S'CCP'
p5268
sg4059
I-1
sg32
I14
sg4060
(lp5269
sbsg5184
(issf_api
Node
p5270
(dp5271
g4054
S'ccof'
p5272
sg4056
g5184
sg4057
S'CCP'
p5273
sg4059
I-1
sg32
I17
sg4060
(lp5274
sbsg5185
(issf_api
Node
p5275
(dp5276
g4054
S'ccof'
p5277
sg4056
g5185
sg4057
S'CCP'
p5278
sg4059
I-1
sg32
I16
sg4060
(lp5279
sbsS'NP'
p5280
(issf_api
Node
p5281
(dp5282
g4054
S'k1'
p5283
sg4056
g5280
sg4057
S'VGF'
p5284
sg4059
I-1
sg32
I0
sg4060
(lp5285
sbsS'VGF'
p5286
(issf_api
Node
p5287
(dp5288
g4054
g4077
sg4056
g5286
sg4057
g4077
sg4059
I-1
sg32
I2
sg4060
(lp5289
g5223
ag5280
aS'BLK'
p5290
asbsg5290
(issf_api
Node
p5291
(dp5292
g4054
S'rsym'
p5293
sg4056
g5290
sg4057
S'VGF'
p5294
sg4059
I-1
sg32
I22
sg4060
(lp5295
sbsg5234
(issf_api
Node
p5296
(dp5297
g4054
S'nmod'
p5298
sg4056
g5234
sg4057
S'NP19'
p5299
sg4059
I-1
sg32
I21
sg4060
(lp5300
sbssg4139
(lp5301
(issf_api
Chunk
p5302
(dp5303
g4056
g2860
sg32
I0
sg4143
g2869
sg33
I7
sg4047
(lp5304
I141
asg38
(issf_api
FeatureSet
p5305
(dp5306
g12
(dp5307
S'name'
p5308
g5280
sS'drel'
p5309
S'k1:VGF'
p5310
ssbsba(issf_api
Chunk
p5311
(dp5312
g4056
g2900
sg32
I1
sg4143
g2905
sg33
I7
sg4047
(lp5313
I142
aI143
asg38
(issf_api
FeatureSet
p5314
(dp5315
g12
(dp5316
S'name'
p5317
g5223
sS'drel'
p5318
S'k1s:VGF'
p5319
ssbsba(issf_api
Chunk
p5320
(dp5321
g4056
g2919
sg32
I2
sg4143
g2926
sg33
I7
sg4047
(lp5322
I144
aI145
asg38
(issf_api
FeatureSet
p5323
(dp5324
g12
(dp5325
S'name'
p5326
g5286
ssbsba(issf_api
Chunk
p5327
(dp5328
g4056
g2977
sg32
I3
sg4143
g2986
sg33
I7
sg4047
(lp5329
I146
aI147
asg38
(issf_api
FeatureSet
p5330
(dp5331
g12
(dp5332
S'name'
p5333
g5175
sS'drel'
p5334
S'ccof:CCP'
p5335
ssbsba(issf_api
Chunk
p5336
(dp5337
g4056
g3019
sg32
I4
sg4143
g3028
sg33
I7
sg4047
(lp5338
I148
aI149
aI150
aI151
asg38
(issf_api
FeatureSet
p5339
(dp5340
g12
(dp5341
S'name'
p5342
g5202
sS'drel'
p5343
S'nmod:NP3'
p5344
ssbsba(issf_api
Chunk
p5345
(dp5346
g4056
g3092
sg32
I5
sg4143
g3097
sg33
I7
sg4047
(lp5347
I152
aI153
asg38
(issf_api
FeatureSet
p5348
(dp5349
g12
(dp5350
S'name'
p5351
g5173
sS'drel'
p5352
S'ccof:CCP'
p5353
ssbsba(issf_api
Chunk
p5354
(dp5355
g4056
g3162
sg32
I6
sg4143
g3167
sg33
I7
sg4047
(lp5356
I154
aI155
aI156
aI157
aI158
aI159
asg38
(issf_api
FeatureSet
p5357
(dp5358
g12
(dp5359
S'name'
p5360
g5201
sS'drel'
p5361
S'nmod:NP5'
p5362
ssbsba(issf_api
Chunk
p5363
(dp5364
g4056
g3232
sg32
I7
sg4143
g3237
sg33
I7
sg4047
(lp5365
I160
aI161
aI162
asg38
(issf_api
FeatureSet
p5366
(dp5367
g12
(dp5368
S'name'
p5369
g5174
sS'drel'
p5370
S'ccof:CCP'
p5371
ssbsba(issf_api
Chunk
p5372
(dp5373
g4056
g3285
sg32
I8
sg4143
g3290
sg33
I7
sg4047
(lp5374
I163
aI164
aI165
asg38
(issf_api
FeatureSet
p5375
(dp5376
g12
(dp5377
S'name'
p5378
g5172
sS'drel'
p5379
S'ccof:CCP'
p5380
ssbsba(issf_api
Chunk
p5381
(dp5382
g4056
g3372
sg32
I9
sg4143
g3377
sg33
I7
sg4047
(lp5383
I166
aI167
aI168
aI169
aI170
asg38
(issf_api
FeatureSet
p5384
(dp5385
g12
(dp5386
S'name'
p5387
g5171
sS'drel'
p5388
S'ccof:CCP'
p5389
ssbsba(issf_api
Chunk
p5390
(dp5391
g4056
g3429
sg32
I10
sg4143
g3438
sg33
I7
sg4047
(lp5392
I171
aI172
aI173
asg38
(issf_api
FeatureSet
p5393
(dp5394
g12
(dp5395
S'name'
p5396
g5179
sS'drel'
p5397
S'ccof:CCP'
p5398
ssbsba(issf_api
Chunk
p5399
(dp5400
g4056
g3486
sg32
I11
sg4143
g3491
sg33
I7
sg4047
(lp5401
I174
aI175
aI176
asg38
(issf_api
FeatureSet
p5402
(dp5403
g12
(dp5404
S'name'
p5405
g5178
sS'drel'
p5406
S'ccof:CCP'
p5407
ssbsba(issf_api
Chunk
p5408
(dp5409
g4056
g3543
sg32
I12
sg4143
g3554
sg33
I7
sg4047
(lp5410
I177
aI178
aI179
asg38
(issf_api
FeatureSet
p5411
(dp5412
g12
(dp5413
S'name'
p5414
g5181
sS'drel'
p5415
S'ccof:CCP'
p5416
ssbsba(issf_api
Chunk
p5417
(dp5418
g4056
g3602
sg32
I13
sg4143
g3607
sg33
I7
sg4047
(lp5419
I180
aI181
aI182
asg38
(issf_api
FeatureSet
p5420
(dp5421
g12
(dp5422
S'name'
p5423
g5180
sS'drel'
p5424
S'ccof:CCP'
p5425
ssbsba(issf_api
Chunk
p5426
(dp5427
g4056
g3655
sg32
I14
sg4143
g3660
sg33
I7
sg4047
(lp5428
I183
aI184
aI185
asg38
(issf_api
FeatureSet
p5429
(dp5430
g12
(dp5431
S'name'
p5432
g5183
sS'drel'
p5433
S'ccof:CCP'
p5434
ssbsba(issf_api
Chunk
p5435
(dp5436
g4056
g3708
sg32
I15
sg4143
g3713
sg33
I7
sg4047
(lp5437
I186
aI187
aI188
asg38
(issf_api
FeatureSet
p5438
(dp5439
g12
(dp5440
S'name'
p5441
g5182
sS'drel'
p5442
S'ccof:CCP'
p5443
ssbsba(issf_api
Chunk
p5444
(dp5445
g4056
g3765
sg32
I16
sg4143
g3774
sg33
I7
sg4047
(lp5446
I189
aI190
aI191
asg38
(issf_api
FeatureSet
p5447
(dp5448
g12
(dp5449
S'name'
p5450
g5185
sS'drel'
p5451
S'ccof:CCP'
p5452
ssbsba(issf_api
Chunk
p5453
(dp5454
g4056
g3822
sg32
I17
sg4143
g3827
sg33
I7
sg4047
(lp5455
I192
aI193
aI194
asg38
(issf_api
FeatureSet
p5456
(dp5457
g12
(dp5458
S'name'
p5459
g5184
sS'drel'
p5460
S'ccof:CCP'
p5461
ssbsba(issf_api
Chunk
p5462
(dp5463
g4056
g3875
sg32
I18
sg4143
g3880
sg33
I7
sg4047
(lp5464
I195
aI196
asg38
(issf_api
FeatureSet
p5465
(dp5466
g12
(dp5467
S'name'
p5468
g5177
sS'drel'
p5469
S'ccof:CCP'
p5470
ssbsba(issf_api
Chunk
p5471
(dp5472
g4056
g3894
sg32
I19
sg4143
g3899
sg33
I7
sg4047
(lp5473
I197
asg38
(issf_api
FeatureSet
p5474
(dp5475
g12
(dp5476
S'name'
p5477
g5165
sS'drel'
p5478
S'rs:NP2'
p5479
ssbsba(issf_api
Chunk
p5480
(dp5481
g4056
g3934
sg32
I20
sg4143
g3943
sg33
I7
sg4047
(lp5482
I198
aI199
asg38
(issf_api
FeatureSet
p5483
(dp5484
g12
(dp5485
S'name'
p5486
g5176
sS'drel'
p5487
S'ccof:CCP'
p5488
ssbsba(issf_api
Chunk
p5489
(dp5490
g4056
g3995
sg32
I21
sg4143
g4004
sg33
I7
sg4047
(lp5491
I200
aI201
aI202
aI203
asg38
(issf_api
FeatureSet
p5492
(dp5493
g12
(dp5494
S'name'
p5495
g5234
sS'drel'
p5496
S'nmod:NP19'
p5497
ssbsba(issf_api
Chunk
p5498
(dp5499
g4056
g4035
sg32
I22
sg4143
g4040
sg33
I7
sg4047
(lp5500
I204
asg38
(issf_api
FeatureSet
p5501
(dp5502
g12
(dp5503
S'name'
p5504
g5290
sS'drel'
p5505
S'rsym:VGF'
p5506
ssbsbasbasb.