(issf_api
SSFInfo
p0
(dp1
S'globalWordList'
p2
(lp3
(issf_api
Word
p4
(dp5
S'splitConn'
p6
I00
sS'word'
p7
V\u0938\u092a\u093e
p8
sS'extraFeatureSet'
p9
(issf_api
FeatureSet
p10
(dp11
S'featureDict'
p12
(dp13
S'posn'
p14
S'10'
p15
sS'name'
p16
S'\xe0\xa4\xb8\xe0\xa4\xaa\xe0\xa4\xbe'
p17
sS'af'
p18
S'\xe0\xa4\xb8\xe0\xa4\xaa\xe0\xa4\xbe,n,f,sg,3,o,0_\xe0\xa4\xb8\xe0\xa5\x87,0'
p19
sS'chunkid'
p20
S'NP'
p21
sS'drel'
p22
S'jjmod:JJP'
p23
sS'chunktype'
p24
S'head:NP'
p25
sS'vpos'
p26
S'vib_2'
p27
sS'cref'
p28
S'i1%0:t1'
p29
ssbsS'arg1'
p30
I00
sS'arg2'
p31
I00
sS'sense'
p32
NsS'arg1Span'
p33
NsS'chunkNum'
p34
I0
sS'sentenceNum'
p35
I0
sS'relationNum'
p36
NsS'arg2Span'
p37
NsS'wordTag'
p38
S'NNP'
p39
sS'featureSet'
p40
g10
sS'conn'
p41
I00
sba(issf_api
Word
p42
(dp43
g6
I00
sg7
V\u0938\u0947
p44
sg9
(issf_api
FeatureSet
p45
(dp46
g12
(dp47
S'posn'
p48
S'20'
p49
sS'name'
p50
S'\xe0\xa4\xb8\xe0\xa5\x87'
p51
sS'af'
p52
S'\xe0\xa4\xb8\xe0\xa5\x87,psp,,,,,,'
p53
sS'drel'
p54
S'lwg__psp:NP'
p55
sS'chunktype'
p56
S'child:NP'
p57
sS'cref'
p58
S'i1%0:t1'
p59
ssbsg30
I00
sg31
I00
sg32
Nsg33
Nsg34
I0
sg35
I0
sg36
Nsg37
Nsg38
S'PSP'
p60
sg40
g45
sg41
I00
sba(issf_api
Word
p61
(dp62
g6
I00
sg7
V\u0928\u093f\u0932\u0902\u092c\u093f\u0924
p63
sg9
(issf_api
FeatureSet
p64
(dp65
g12
(dp66
S'posn'
p67
S'30'
p68
sS'name'
p69
S'\xe0\xa4\xa8\xe0\xa4\xbf\xe0\xa4\xb2\xe0\xa4\x82\xe0\xa4\xac\xe0\xa4\xbf\xe0\xa4\xa4'
p70
sS'af'
p71
S'\xe0\xa4\xa8\xe0\xa4\xbf\xe0\xa4\xb2\xe0\xa4\x82\xe0\xa4\xac\xe0\xa4\xbf\xe0\xa4\xa4,adj,any,any,,o,,'
p72
sS'chunkid'
p73
S'JJP'
p74
sS'drel'
p75
S'nmod:NP2'
p76
sS'chunktype'
p77
S'head:JJP'
p78
sS'cref'
p79
S'i1%0:t1'
p80
ssbsg30
I00
sg31
I00
sg32
Nsg33
Nsg34
I1
sg35
I0
sg36
Nsg37
Nsg38
S'JJ'
p81
sg40
g64
sg41
I00
sba(issf_api
Word
p82
(dp83
g6
I00
sg7
V\u0928\u0947\u0924\u093e
p84
sg9
(issf_api
FeatureSet
p85
(dp86
g12
(dp87
S'crefhead'
p88
S'\xe0\xa4\xa8\xe0\xa5\x87\xe0\xa4\xa4\xe0\xa4\xbe:i1'
p89
sS'posn'
p90
S'40'
p91
sS'name'
p92
S'\xe0\xa4\xa8\xe0\xa5\x87\xe0\xa4\xa4\xe0\xa4\xbe'
p93
sS'af'
p94
S'\xe0\xa4\xa8\xe0\xa5\x87\xe0\xa4\xa4\xe0\xa4\xbe,n,m,sg,3,o,0,0'
p95
sS'chunkid'
p96
S'NP2'
p97
sS'chunktype'
p98
S'head:NP2'
p99
sS'crefchainhead'
p100
S'i1:t1'
p101
sS'cref'
p102
S'i1%1:t1'
p103
sS'drel'
p104
S'ccof:CCP'
p105
ssbsg30
I00
sg31
I00
sg32
Nsg33
Nsg34
I2
sg35
I0
sg36
Nsg37
Nsg38
S'NN'
p106
sg40
g85
sg41
I00
sba(issf_api
Word
p107
(dp108
g6
I00
sg7
V\u0914\u0930
p109
sg9
(issf_api
FeatureSet
p110
(dp111
g12
(dp112
S'posn'
p113
S'50'
p114
sS'name'
p115
S'\xe0\xa4\x94\xe0\xa4\xb0'
p116
sS'af'
p117
S'\xe0\xa4\x94\xe0\xa4\xb0,avy,,,,,,'
p118
sS'chunkid'
p119
S'CCP'
p120
sS'drel'
p121
S'nmod:NP4'
p122
sS'chunktype'
p123
S'head:CCP'
p124
ssbsg30
I00
sg31
I00
sg32
Nsg33
Nsg34
I3
sg35
I0
sg36
Nsg37
Nsg38
S'CC'
p125
sg40
g110
sg41
I00
sba(issf_api
Word
p126
(dp127
g6
I00
sg7
V\u0905\u092d\u093f\u0928\u0947\u0924\u093e
p128
sg9
(issf_api
FeatureSet
p129
(dp130
g12
(dp131
S'crefhead'
p132
S'\xe0\xa4\x85\xe0\xa4\xad\xe0\xa4\xbf\xe0\xa4\xa8\xe0\xa5\x87\xe0\xa4\xa4\xe0\xa4\xbe:i2'
p133
sS'posn'
p134
S'60'
p135
sS'name'
p136
S'\xe0\xa4\x85\xe0\xa4\xad\xe0\xa4\xbf\xe0\xa4\xa8\xe0\xa5\x87\xe0\xa4\xa4\xe0\xa4\xbe'
p137
sS'af'
p138
S'\xe0\xa4\x85\xe0\xa4\xad\xe0\xa4\xbf\xe0\xa4\xa8\xe0\xa5\x87\xe0\xa4\xa4\xe0\xa4\xbe,n,m,sg,3,o,0,0'
p139
sS'chunkid'
p140
S'NP3'
p141
sS'creftype'
p142
S'Coreference-Noun-Noun:i1'
p143
sS'chunktype'
p144
S'head:NP3'
p145
sS'cref'
p146
S'i2%1:t1'
p147
sS'drel'
p148
S'ccof:CCP'
p149
ssbsg30
I00
sg31
I00
sg32
Nsg33
Nsg34
I4
sg35
I0
sg36
Nsg37
Nsg38
S'NN'
p150
sg40
g129
sg41
I00
sba(issf_api
Word
p151
(dp152
g6
I00
sg7
V\u0930\u093e\u091c
p153
sg9
(issf_api
FeatureSet
p154
(dp155
g12
(dp156
S'posn'
p157
S'70'
p158
sS'name'
p159
S'\xe0\xa4\xb0\xe0\xa4\xbe\xe0\xa4\x9c'
p160
sS'af'
p161
S'\xe0\xa4\xb0\xe0\xa4\xbe\xe0\xa4\x9c,n,m,sg,3,d,0,0'
p162
sS'drel'
p163
S'pof__cn:NP4'
p164
sS'chunktype'
p165
S'child:NP4'
p166
sS'cref'
p167
S'i3%0:t1'
p168
ssbsg30
I00
sg31
I00
sg32
Nsg33
Nsg34
I5
sg35
I0
sg36
Nsg37
Nsg38
S'NNPC'
p169
sg40
g154
sg41
I00
sba(issf_api
Word
p170
(dp171
g6
I00
sg7
V\u092c\u092c\u094d\u092c\u0930
p172
sg9
(issf_api
FeatureSet
p173
(dp174
g12
(dp175
S'crefhead'
p176
S'\xe0\xa4\xac\xe0\xa4\xac\xe0\xa5\x8d\xe0\xa4\xac\xe0\xa4\xb0:i3'
p177
sS'posn'
p178
S'80'
p179
sS'name'
p180
S'\xe0\xa4\xac\xe0\xa4\xac\xe0\xa5\x8d\xe0\xa4\xac\xe0\xa4\xb0'
p181
sS'af'
p182
S'\xe0\xa4\xac\xe0\xa4\xac\xe0\xa5\x8d\xe0\xa4\xac\xe0\xa4\xb0,n,any,sg,3,o,0_\xe0\xa4\xa8\xe0\xa5\x87,0'
p183
sS'chunkid'
p184
S'NP4'
p185
sS'creftype'
p186
S'Coreference-NounComplement:i22:i4'
p187
sS'chunktype'
p188
S'head:NP4'
p189
sS'vpos'
p190
S'vib_3'
p191
sS'cref'
p192
S'i3%1:t1'
p193
sS'drel'
p194
S'k1:VGF'
p195
ssbsg30
I00
sg31
I00
sg32
Nsg33
Nsg34
I5
sg35
I0
sg36
Nsg37
Nsg38
S'NNP'
p196
sg40
g173
sg41
I00
sba(issf_api
Word
p197
(dp198
g6
I00
sg7
V\u0928\u0947
p199
sg9
(issf_api
FeatureSet
p200
(dp201
g12
(dp202
S'posn'
p203
S'90'
p204
sS'name'
p205
S'\xe0\xa4\xa8\xe0\xa5\x87'
p206
sS'drel'
p207
S'lwg__psp:NP4'
p208
sS'chunktype'
p209
S'child:NP4'
p210
sS'af'
p211
S'\xe0\xa4\xa8\xe0\xa5\x87,psp,,,,,,'
p212
ssbsg30
I00
sg31
I00
sg32
Nsg33
Nsg34
I5
sg35
I0
sg36
Nsg37
Nsg38
S'PSP'
p213
sg40
g200
sg41
I00
sba(issf_api
Word
p214
(dp215
g6
I00
sg7
V\u0930\u0935\u093f\u0935\u093e\u0930
p216
sg9
(issf_api
FeatureSet
p217
(dp218
g12
(dp219
S'posn'
p220
S'100'
p221
sS'name'
p222
S'\xe0\xa4\xb0\xe0\xa4\xb5\xe0\xa4\xbf\xe0\xa4\xb5\xe0\xa4\xbe\xe0\xa4\xb0'
p223
sS'af'
p224
S'\xe0\xa4\xb0\xe0\xa4\xb5\xe0\xa4\xbf\xe0\xa4\xb5\xe0\xa4\xbe\xe0\xa4\xb0,n,m,sg,3,o,0_\xe0\xa4\x95\xe0\xa5\x8b,0'
p225
sS'chunkid'
p226
S'NP5'
p227
sS'drel'
p228
S'k7t:VGF'
p229
sS'vpos'
p230
S'vib_2'
p231
sS'chunktype'
p232
S'head:NP5'
p233
ssbsg30
I00
sg31
I00
sg32
Nsg33
Nsg34
I6
sg35
I0
sg36
Nsg37
Nsg38
S'NNP'
p234
sg40
g217
sg41
I00
sba(issf_api
Word
p235
(dp236
g6
I00
sg7
V\u0915\u094b
p237
sg9
(issf_api
FeatureSet
p238
(dp239
g12
(dp240
S'posn'
p241
S'110'
p242
sS'name'
p243
S'\xe0\xa4\x95\xe0\xa5\x8b'
p244
sS'drel'
p245
S'lwg__psp:NP5'
p246
sS'chunktype'
p247
S'child:NP5'
p248
sS'af'
p249
S'\xe0\xa4\x95\xe0\xa5\x8b,psp,,,,,,'
p250
ssbsg30
I00
sg31
I00
sg32
Nsg33
Nsg34
I6
sg35
I0
sg36
Nsg37
Nsg38
S'PSP'
p251
sg40
g238
sg41
I00
sba(issf_api
Word
p252
(dp253
g6
I00
sg7
V\u0938\u092e\u093e\u091c\u0935\u093e\u0926\u0940
p254
sg9
(issf_api
FeatureSet
p255
(dp256
g12
(dp257
S'posn'
p258
S'140'
p259
sS'name'
p260
S'\xe0\xa4\xb8\xe0\xa4\xae\xe0\xa4\xbe\xe0\xa4\x9c\xe0\xa4\xb5\xe0\xa4\xbe\xe0\xa4\xa6\xe0\xa5\x80'
p261
sS'af'
p262
S'\xe0\xa4\xb8\xe0\xa4\xae\xe0\xa4\xbe\xe0\xa4\x9c\xe0\xa4\xb5\xe0\xa4\xbe\xe0\xa4\xa6\xe0\xa5\x80,adj,any,any,,d,,'
p263
sS'drel'
p264
S'pof__cn:NP6'
p265
sS'chunktype'
p266
S'child:NP6'
p267
sS'cref'
p268
S'i5%0:t2'
p269
ssbsg30
I00
sg31
I00
sg32
Nsg33
Nsg34
I7
sg35
I0
sg36
Nsg37
Nsg38
S'NNC'
p270
sg40
g255
sg41
I00
sba(issf_api
Word
p271
(dp272
g6
I00
sg7
V\u092e\u094b\u0930\u094d\u091a\u093e
p273
sg9
(issf_api
FeatureSet
p274
(dp275
g12
(dp276
S'crefhead'
p277
S'\xe0\xa4\xae\xe0\xa5\x8b\xe0\xa4\xb0\xe0\xa5\x8d\xe0\xa4\x9a\xe0\xa4\xbe:i5'
p278
sS'posn'
p279
S'130'
p280
sS'name'
p281
S'\xe0\xa4\xae\xe0\xa5\x8b\xe0\xa4\xb0\xe0\xa5\x8d\xe0\xa4\x9a\xe0\xa4\xbe'
p282
sS'af'
p283
S'\xe0\xa4\xae\xe0\xa5\x8b\xe0\xa4\xb0\xe0\xa5\x8d\xe0\xa4\x9a\xe0\xa4\xbe,n,m,sg,3,d,0,0'
p284
sS'chunkid'
p285
S'NP6'
p286
sS'chunktype'
p287
S'head:NP6'
p288
sS'crefchainhead'
p289
S'i5:t2'
p290
sS'cref'
p291
S'i5%1:t2'
p292
sS'drel'
p293
S'k2:VGNN'
p294
ssbsg30
I00
sg31
I00
sg32
Nsg33
Nsg34
I7
sg35
I0
sg36
Nsg37
Nsg38
S'NN'
p295
sg40
g274
sg41
I00
sba(issf_api
Word
p296
(dp297
g6
I00
sg7
V\u092c\u0928\u093e\u0928\u0947
p298
sg9
(issf_api
FeatureSet
p299
(dp300
g12
(dp301
S'posn'
p302
S'140'
p303
sS'name'
p304
S'\xe0\xa4\xac\xe0\xa4\xa8\xe0\xa4\xbe\xe0\xa4\xa8\xe0\xa5\x87'
p305
sS'af'
p306
S'\xe0\xa4\xac\xe0\xa4\xa8\xe0\xa4\xbe,v,any,sg,any,o,\xe0\xa4\xa8\xe0\xa4\xbe_\xe0\xa4\x95\xe0\xa4\xbe,nA'
p307
sS'chunkid'
p308
S'VGNN'
p309
sS'drel'
p310
S'r6-k2:NP7'
p311
sS'vpos'
p312
S'tam_2'
p313
sS'chunktype'
p314
S'head:VGNN'
p315
ssbsg30
I00
sg31
I00
sg32
Nsg33
Nsg34
I8
sg35
I0
sg36
Nsg37
Nsg38
S'VM'
p316
sg40
g299
sg41
I00
sba(issf_api
Word
p317
(dp318
g6
I00
sg7
V\u0915\u093e
p319
sg9
(issf_api
FeatureSet
p320
(dp321
g12
(dp322
S'posn'
p323
S'150'
p324
sS'name'
p325
S'\xe0\xa4\x95\xe0\xa4\xbe'
p326
sS'drel'
p327
S'lwg__psp:VGNN'
p328
sS'chunktype'
p329
S'child:VGNN'
p330
sS'af'
p331
S'\xe0\xa4\x95\xe0\xa4\xbe,psp,m,sg,,d,,'
p332
ssbsg30
I00
sg31
I00
sg32
Nsg33
Nsg34
I8
sg35
I0
sg36
Nsg37
Nsg38
S'PSP'
p333
sg40
g320
sg41
I00
sba(issf_api
Word
p334
(dp335
g6
I00
sg7
V\u0910\u0932\u093e\u0928
p336
sg9
(issf_api
FeatureSet
p337
(dp338
g12
(dp339
S'posn'
p340
S'160'
p341
sS'name'
p342
S'\xe0\xa4\x90\xe0\xa4\xb2\xe0\xa4\xbe\xe0\xa4\xa8'
p343
sS'af'
p344
S'\xe0\xa4\x90\xe0\xa4\xb2\xe0\xa4\xbe\xe0\xa4\xa8,n,m,sg,3,d,0,0'
p345
sS'chunkid'
p346
S'NP7'
p347
sS'drel'
p348
S'pof:VGNF'
p349
sS'chunktype'
p350
S'head:NP7'
p351
ssbsg30
I00
sg31
I00
sg32
Nsg33
Nsg34
I9
sg35
I0
sg36
Nsg37
Nsg38
S'NN'
p352
sg40
g337
sg41
I00
sba(issf_api
Word
p353
(dp354
g6
I00
sg7
V\u0915\u0930\u0924\u0947
p355
sg9
(issf_api
FeatureSet
p356
(dp357
g12
(dp358
S'posn'
p359
S'170'
p360
sS'name'
p361
S'\xe0\xa4\x95\xe0\xa4\xb0\xe0\xa4\xa4\xe0\xa5\x87'
p362
sS'af'
p363
S'\xe0\xa4\x95\xe0\xa4\xb0,v,m,sg,any,,\xe0\xa4\xa4\xe0\xa4\xbe_\xe0\xa4\xb9\xe0\xa5\x8b+\xe0\xa4\xaf\xe0\xa4\xbe,wA'
p364
sS'chunkid'
p365
S'VGNF'
p366
sS'drel'
p367
S'vmod:VGF'
p368
sS'vpos'
p369
S'tam_2'
p370
sS'chunktype'
p371
S'head:VGNF'
p372
ssbsg30
I00
sg31
I00
sg32
Nsg33
Nsg34
I10
sg35
I0
sg36
Nsg37
Nsg38
S'VM'
p373
sg40
g356
sg41
I00
sba(issf_api
Word
p374
(dp375
g6
I00
sg7
V\u0939\u0941\u090f
p376
sg9
(issf_api
FeatureSet
p377
(dp378
g12
(dp379
S'posn'
p380
S'180'
p381
sS'name'
p382
S'\xe0\xa4\xb9\xe0\xa5\x81\xe0\xa4\x8f'
p383
sS'drel'
p384
S'lwg__vaux:VGNF'
p385
sS'chunktype'
p386
S'child:VGNF'
p387
sS'af'
p388
S'\xe0\xa4\xb9\xe0\xa5\x8b,v,m,sg,any,,\xe0\xa4\xaf\xe0\xa4\xbe,yA'
p389
ssbsg30
I00
sg31
I00
sg32
Nsg33
Nsg34
I10
sg35
I0
sg36
Nsg37
Nsg38
S'VAUX'
p390
sg40
g377
sg41
I00
sba(issf_api
Word
p391
(dp392
g6
I00
sg7
V\u0915\u0939\u093e
p393
sg9
(issf_api
FeatureSet
p394
(dp395
g12
(dp396
S'posn'
p397
S'190'
p398
sS'name'
p399
S'\xe0\xa4\x95\xe0\xa4\xb9\xe0\xa4\xbe'
p400
sS'af'
p401
S'\xe0\xa4\x95\xe0\xa4\xb9,v,m,sg,any,,\xe0\xa4\xaf\xe0\xa4\xbe,yA'
p402
sS'chunkid'
p403
S'VGF'
p404
sS'chunktype'
p405
S'head:VGF'
p406
sS'voicetype'
p407
S'active'
p408
sS'stype'
p409
S'declarative'
p410
ssbsg30
I00
sg31
I00
sg32
Nsg33
Nsg34
I11
sg35
I0
sg36
Nsg37
Nsg38
S'VM'
p411
sg40
g394
sg41
I00
sba(issf_api
Word
p412
(dp413
g6
I00
sg7
V\u0915\u093f
p414
sg9
(issf_api
FeatureSet
p415
(dp416
g12
(dp417
S'posn'
p418
S'200'
p419
sS'name'
p420
S'\xe0\xa4\x95\xe0\xa4\xbf'
p421
sS'af'
p422
S'\xe0\xa4\x95\xe0\xa4\xbf,avy,,,,,,'
p423
sS'chunkid'
p424
S'CCP2'
p425
sS'drel'
p426
S'k2:VGF'
p427
sS'chunktype'
p428
S'head:CCP2'
p429
ssbsg30
I00
sg31
I00
sg32
Nsg33
Nsg34
I12
sg35
I0
sg36
Nsg37
Nsg38
S'CC'
p430
sg40
g415
sg41
I00
sba(issf_api
Word
p431
(dp432
g6
I00
sg7
V\u092f\u0939
p433
sg9
(issf_api
FeatureSet
p434
(dp435
g12
(dp436
S'posn'
p437
S'210'
p438
sS'name'
p439
S'\xe0\xa4\xaf\xe0\xa4\xb9'
p440
sS'af'
p441
S'\xe0\xa4\xaf\xe0\xa4\xb9,pn,any,sg,3,d,,'
p442
sS'drel'
p443
S'nmod__adj:NP8'
p444
sS'chunktype'
p445
S'child:NP8'
p446
sS'cref'
p447
S'i6%0:t2'
p448
ssbsg30
I00
sg31
I00
sg32
Nsg33
Nsg34
I13
sg35
I0
sg36
Nsg37
Nsg38
S'DEM'
p449
sg40
g434
sg41
I00
sba(issf_api
Word
p450
(dp451
g6
I00
sg7
V\u0917\u0948\u0930
p452
sg9
(issf_api
FeatureSet
p453
(dp454
g12
(dp455
S'posn'
p456
S'220'
p457
sS'name'
p458
S'\xe0\xa4\x97\xe0\xa5\x88\xe0\xa4\xb0'
p459
sS'af'
p460
S'\xe0\xa4\x97\xe0\xa5\x88\xe0\xa4\xb0,adj,any,any,,d,,'
p461
sS'drel'
p462
S'mod:NP8'
p463
sS'chunktype'
p464
S'child:NP8'
p465
sS'cref'
p466
S'i6%0:t2'
p467
ssbsg30
I00
sg31
I00
sg32
Nsg33
Nsg34
I13
sg35
I0
sg36
Nsg37
Nsg38
S'JJC'
p468
sg40
g453
sg41
I00
sba(issf_api
Word
p469
(dp470
g6
I00
sg7
V\u0930\u093e\u091c\u0928\u0940\u0924\u093f\u0915
p471
sg9
(issf_api
FeatureSet
p472
(dp473
g12
(dp474
S'posn'
p475
S'230'
p476
sS'name'
p477
S'\xe0\xa4\xb0\xe0\xa4\xbe\xe0\xa4\x9c\xe0\xa4\xa8\xe0\xa5\x80\xe0\xa4\xa4\xe0\xa4\xbf\xe0\xa4\x95'
p478
sS'af'
p479
S'\xe0\xa4\xb0\xe0\xa4\xbe\xe0\xa4\x9c\xe0\xa4\xa8\xe0\xa5\x80\xe0\xa4\xa4\xe0\xa4\xbf\xe0\xa4\x95,adj,any,any,,d,,'
p480
sS'drel'
p481
S'nmod__adj:NP8'
p482
sS'chunktype'
p483
S'child:NP8'
p484
sS'cref'
p485
S'i6%0:t2'
p486
ssbsg30
I00
sg31
I00
sg32
Nsg33
Nsg34
I13
sg35
I0
sg36
Nsg37
Nsg38
S'JJ'
p487
sg40
g472
sg41
I00
sba(issf_api
Word
p488
(dp489
g6
I00
sg7
V\u092e\u094b\u0930\u094d\u091a\u093e
p490
sg9
(issf_api
FeatureSet
p491
(dp492
g12
(dp493
S'crefhead'
p494
S'\xe0\xa4\xae\xe0\xa5\x8b\xe0\xa4\xb0\xe0\xa5\x8d\xe0\xa4\x9a\xe0\xa4\xbe:i6'
p495
sS'posn'
p496
S'240'
p497
sS'name'
p498
S'\xe0\xa4\xae\xe0\xa5\x8b\xe0\xa4\xb0\xe0\xa5\x8d\xe0\xa4\x9a\xe0\xa4\xbe2'
p499
sS'af'
p500
S'\xe0\xa4\xae\xe0\xa5\x8b\xe0\xa4\xb0\xe0\xa5\x8d\xe0\xa4\x9a\xe0\xa4\xbe,n,m,sg,3,d,0,0'
p501
sS'chunkid'
p502
S'NP8'
p503
sS'creftype'
p504
S'Coreference-Noun-Noun:i5'
p505
sS'chunktype'
p506
S'head:NP8'
p507
sS'cref'
p508
S'i6%1:t2'
p509
sS'drel'
p510
S'k1:VGF2'
p511
ssbsg30
I00
sg31
I00
sg32
Nsg33
Nsg34
I13
sg35
I0
sg36
Nsg37
Nsg38
S'NN'
p512
sg40
g491
sg41
I00
sba(issf_api
Word
p513
(dp514
g6
I00
sg7
V\u0915\u093f\u0938\u093e\u0928\u094b\u0902
p515
sg9
(issf_api
FeatureSet
p516
(dp517
g12
(dp518
S'crefhead'
p519
S'\xe0\xa4\x95\xe0\xa4\xbf\xe0\xa4\xb8\xe0\xa4\xbe\xe0\xa4\xa8\xe0\xa5\x8b\xe0\xa4\x82:i7'
p520
sS'posn'
p521
S'250'
p522
sS'name'
p523
S'\xe0\xa4\x95\xe0\xa4\xbf\xe0\xa4\xb8\xe0\xa4\xbe\xe0\xa4\xa8\xe0\xa5\x8b\xe0\xa4\x82'
p524
sS'af'
p525
S'\xe0\xa4\x95\xe0\xa4\xbf\xe0\xa4\xb8\xe0\xa4\xbe\xe0\xa4\xa8,n,m,pl,3,o,0,0'
p526
sS'chunkid'
p527
S'NP9'
p528
sS'chunktype'
p529
S'head:NP9'
p530
sS'crefchainhead'
p531
S'i7:t3'
p532
sS'cref'
p533
S'i7%1:t3'
p534
sS'drel'
p535
S'ccof:CCP3'
p536
ssbsg30
I00
sg31
I00
sg32
Nsg33
Nsg34
I14
sg35
I0
sg36
Nsg37
Nsg38
S'NN'
p537
sg40
g516
sg41
I00
sba(issf_api
Word
p538
(dp539
g6
I00
sg7
V\u0914\u0930
p540
sg9
(issf_api
FeatureSet
p541
(dp542
g12
(dp543
S'posn'
p544
S'260'
p545
sS'name'
p546
S'\xe0\xa4\x94\xe0\xa4\xb02'
p547
sS'af'
p548
S'\xe0\xa4\x94\xe0\xa4\xb0,avy,,,,,,'
p549
sS'chunkid'
p550
S'CCP3'
p551
sS'drel'
p552
S'r6:NP11'
p553
sS'chunktype'
p554
S'head:CCP3'
p555
ssbsg30
I00
sg31
I00
sg32
Nsg33
Nsg34
I15
sg35
I0
sg36
Nsg37
Nsg38
S'CC'
p556
sg40
g541
sg41
I00
sba(issf_api
Word
p557
(dp558
g6
I00
sg7
V\u092c\u0947\u0930\u094b\u091c\u0917\u093e\u0930
p559
sg9
(issf_api
FeatureSet
p560
(dp561
g12
(dp562
S'posn'
p563
S'270'
p564
sS'name'
p565
S'\xe0\xa4\xac\xe0\xa5\x87\xe0\xa4\xb0\xe0\xa5\x8b\xe0\xa4\x9c\xe0\xa4\x97\xe0\xa4\xbe\xe0\xa4\xb0'
p566
sS'af'
p567
S'\xe0\xa4\xac\xe0\xa5\x87\xe0\xa4\xb0\xe0\xa5\x8b\xe0\xa4\x9c\xe0\xa4\x97\xe0\xa4\xbe\xe0\xa4\xb0,adj,any,any,,o,,'
p568
sS'drel'
p569
S'nmod__adj:NP10'
p570
sS'chunktype'
p571
S'child:NP10'
p572
sS'cref'
p573
S'i8%0:t4'
p574
ssbsg30
I00
sg31
I00
sg32
Nsg33
Nsg34
I16
sg35
I0
sg36
Nsg37
Nsg38
S'JJ'
p575
sg40
g560
sg41
I00
sba(issf_api
Word
p576
(dp577
g6
I00
sg7
V\u092f\u0941\u0935\u093e\u0913\u0902
p578
sg9
(issf_api
FeatureSet
p579
(dp580
g12
(dp581
S'crefhead'
p582
S'\xe0\xa4\xaf\xe0\xa5\x81\xe0\xa4\xb5\xe0\xa4\xbe\xe0\xa4\x93\xe0\xa4\x82:i8'
p583
sS'posn'
p584
S'280'
p585
sS'name'
p586
S'\xe0\xa4\xaf\xe0\xa5\x81\xe0\xa4\xb5\xe0\xa4\xbe\xe0\xa4\x93\xe0\xa4\x82'
p587
sS'af'
p588
S'\xe0\xa4\xaf\xe0\xa5\x81\xe0\xa4\xb5\xe0\xa4\xbe,n,m,pl,3,o,0_\xe0\xa4\x95\xe0\xa4\xbe,0'
p589
sS'chunkid'
p590
S'NP10'
p591
sS'chunktype'
p592
S'head:NP10'
p593
sS'crefchainhead'
p594
S'i8:t4'
p595
sS'vpos'
p596
S'vib_3'
p597
sS'cref'
p598
S'i8%1:t4'
p599
sS'drel'
p600
S'ccof:CCP3'
p601
ssbsg30
I00
sg31
I00
sg32
Nsg33
Nsg34
I16
sg35
I0
sg36
Nsg37
Nsg38
S'NN'
p602
sg40
g579
sg41
I00
sba(issf_api
Word
p603
(dp604
g6
I00
sg7
V\u0915\u0947
p605
sg9
(issf_api
FeatureSet
p606
(dp607
g12
(dp608
S'posn'
p609
S'290'
p610
sS'name'
p611
S'\xe0\xa4\x95\xe0\xa5\x87'
p612
sS'drel'
p613
S'lwg__psp:NP10'
p614
sS'chunktype'
p615
S'child:NP10'
p616
sS'af'
p617
S'\xe0\xa4\x95\xe0\xa4\xbe,psp,m,sg,,o,,'
p618
ssbsg30
I00
sg31
I00
sg32
Nsg33
Nsg34
I16
sg35
I0
sg36
Nsg37
Nsg38
S'PSP'
p619
sg40
g606
sg41
I00
sba(issf_api
Word
p620
(dp621
g6
I00
sg7
V\u0939\u0915
p622
sg9
(issf_api
FeatureSet
p623
(dp624
g12
(dp625
S'posn'
p626
S'300'
p627
sS'name'
p628
S'\xe0\xa4\xb9\xe0\xa4\x95'
p629
sS'af'
p630
S'\xe0\xa4\xb9\xe0\xa4\x95,n,m,sg,3,o,0_\xe0\xa4\xae\xe0\xa5\x87\xe0\xa4\x82,0'
p631
sS'chunkid'
p632
S'NP11'
p633
sS'drel'
p634
S'k7:VGF2'
p635
sS'vpos'
p636
S'vib_2'
p637
sS'chunktype'
p638
S'head:NP11'
p639
ssbsg30
I00
sg31
I00
sg32
Nsg33
Nsg34
I17
sg35
I0
sg36
Nsg37
Nsg38
S'NN'
p640
sg40
g623
sg41
I00
sba(issf_api
Word
p641
(dp642
g6
I00
sg7
V\u092e\u0947\u0902
p643
sg9
(issf_api
FeatureSet
p644
(dp645
g12
(dp646
S'posn'
p647
S'310'
p648
sS'name'
p649
S'\xe0\xa4\xae\xe0\xa5\x87\xe0\xa4\x82'
p650
sS'drel'
p651
S'lwg__psp:NP11'
p652
sS'chunktype'
p653
S'child:NP11'
p654
sS'af'
p655
S'\xe0\xa4\xae\xe0\xa5\x87\xe0\xa4\x82,psp,,,,,,'
p656
ssbsg30
I00
sg31
I00
sg32
Nsg33
Nsg34
I17
sg35
I0
sg36
Nsg37
Nsg38
S'PSP'
p657
sg40
g644
sg41
I00
sba(issf_api
Word
p658
(dp659
g6
I00
sg7
V\u0932\u0921\u093c\u093e\u0908
p660
sg9
(issf_api
FeatureSet
p661
(dp662
g12
(dp663
S'posn'
p664
S'320'
p665
sS'name'
p666
S'\xe0\xa4\xb2\xe0\xa4\xa1\xe0\xa4\xbc\xe0\xa4\xbe\xe0\xa4\x88'
p667
sS'af'
p668
S'\xe0\xa4\xb2\xe0\xa4\xa1\xe0\xa4\xbe\xe0\xa4\x88,n,f,sg,3,d,0,0'
p669
sS'chunkid'
p670
S'NP12'
p671
sS'drel'
p672
S'k2:VGF2'
p673
sS'chunktype'
p674
S'head:NP12'
p675
ssbsg30
I00
sg31
I00
sg32
Nsg33
Nsg34
I18
sg35
I0
sg36
Nsg37
Nsg38
S'NN'
p676
sg40
g661
sg41
I00
sba(issf_api
Word
p677
(dp678
g6
I00
sg7
V\u0932\u0921\u093c\u0947\u0917\u093e
p679
sg9
(issf_api
FeatureSet
p680
(dp681
g12
(dp682
S'posn'
p683
S'330'
p684
sS'name'
p685
S'\xe0\xa4\xb2\xe0\xa4\xa1\xe0\xa4\xbc\xe0\xa5\x87\xe0\xa4\x97\xe0\xa4\xbe'
p686
sS'af'
p687
S'\xe0\xa4\xb2\xe0\xa4\xa1,v,m,sg,3,,\xe0\xa4\x97\xe0\xa4\xbe,gA'
p688
sS'chunkid'
p689
S'VGF2'
p690
sS'stype'
p691
S'declarative'
p692
sS'drel'
p693
S'ccof:CCP2'
p694
sS'voicetype'
p695
S'active'
p696
sS'chunktype'
p697
S'head:VGF2'
p698
ssbsg30
I00
sg31
I00
sg32
Nsg33
Nsg34
I19
sg35
I0
sg36
Nsg37
Nsg38
S'VM'
p699
sg40
g680
sg41
I00
sba(issf_api
Word
p700
(dp701
g6
I00
sg7
V\u0964
p702
sg9
(issf_api
FeatureSet
p703
(dp704
g12
(dp705
S'posn'
p706
S'340'
p707
sS'name'
p708
S'\xe0\xa5\xa4'
p709
sS'af'
p710
S'\xe0\xa5\xa4,punc,,,,,,'
p711
sS'chunkid'
p712
S'BLK'
p713
sS'drel'
p714
S'rsym:VGF'
p715
sS'chunktype'
p716
S'head:BLK'
p717
ssbsg30
I00
sg31
I00
sg32
Nsg33
Nsg34
I20
sg35
I0
sg36
Nsg37
Nsg38
S'SYM'
p718
sg40
g703
sg41
I00
sba(issf_api
Word
p719
(dp720
g6
I00
sg7
V\u092c\u0941\u0928\u0915\u0930\u094b\u0902
p721
sg9
(issf_api
FeatureSet
p722
(dp723
g12
(dp724
S'posn'
p725
S'10'
p726
sS'name'
p727
S'\xe0\xa4\xac\xe0\xa5\x81\xe0\xa4\xa8\xe0\xa4\x95\xe0\xa4\xb0\xe0\xa5\x8b\xe0\xa4\x82'
p728
sS'af'
p729
S'\xe0\xa4\xac\xe0\xa5\x81\xe0\xa4\xa8\xe0\xa4\x95\xe0\xa4\xb0,n,m,pl,3,o,0,0'
p730
sS'chunkid'
p731
S'NP'
p732
sS'drel'
p733
S'ccof:CCP'
p734
sS'chunktype'
p735
S'head:NP'
p736
ssbsg30
I00
sg31
I00
sg32
Nsg33
Nsg34
I0
sg35
I1
sg36
Nsg37
Nsg38
S'NN'
p737
sg40
g722
sg41
I00
sba(issf_api
Word
p738
(dp739
g6
I00
sg7
V\u0914\u0930
p740
sg9
(issf_api
FeatureSet
p741
(dp742
g12
(dp743
S'posn'
p744
S'20'
p745
sS'name'
p746
S'\xe0\xa4\x94\xe0\xa4\xb0'
p747
sS'af'
p748
S'\xe0\xa4\x94\xe0\xa4\xb0,avy,,,,,,'
p749
sS'chunkid'
p750
S'CCP'
p751
sS'drel'
p752
S'r6:NP3'
p753
sS'chunktype'
p754
S'head:CCP'
p755
ssbsg30
I00
sg31
I00
sg32
Nsg33
Nsg34
I1
sg35
I1
sg36
Nsg37
Nsg38
S'CC'
p756
sg40
g741
sg41
I00
sba(issf_api
Word
p757
(dp758
g6
I00
sg7
V\u0915\u093f\u0938\u093e\u0928\u094b\u0902
p759
sg9
(issf_api
FeatureSet
p760
(dp761
g12
(dp762
S'crefhead'
p763
S'\xe0\xa4\x95\xe0\xa4\xbf\xe0\xa4\xb8\xe0\xa4\xbe\xe0\xa4\xa8\xe0\xa5\x8b\xe0\xa4\x82:i9'
p764
sS'posn'
p765
S'30'
p766
sS'name'
p767
S'\xe0\xa4\x95\xe0\xa4\xbf\xe0\xa4\xb8\xe0\xa4\xbe\xe0\xa4\xa8\xe0\xa5\x8b\xe0\xa4\x82'
p768
sS'af'
p769
S'\xe0\xa4\x95\xe0\xa4\xbf\xe0\xa4\xb8\xe0\xa4\xbe\xe0\xa4\xa8,n,m,pl,3,o,0_\xe0\xa4\x95\xe0\xa4\xbe,0'
p770
sS'chunkid'
p771
S'NP2'
p772
sS'creftype'
p773
S'Coreference-Identity:i7'
p774
sS'chunktype'
p775
S'head:NP2'
p776
sS'vpos'
p777
S'vib_2'
p778
sS'cref'
p779
S'i9%1:t3'
p780
sS'drel'
p781
S'ccof:CCP'
p782
ssbsg30
I00
sg31
I00
sg32
Nsg33
Nsg34
I2
sg35
I1
sg36
Nsg37
Nsg38
S'NN'
p783
sg40
g760
sg41
I00
sba(issf_api
Word
p784
(dp785
g6
I00
sg7
V\u0915\u0940
p786
sg9
(issf_api
FeatureSet
p787
(dp788
g12
(dp789
S'posn'
p790
S'40'
p791
sS'name'
p792
S'\xe0\xa4\x95\xe0\xa5\x80'
p793
sS'drel'
p794
S'lwg__psp:NP2'
p795
sS'chunktype'
p796
S'child:NP2'
p797
sS'af'
p798
S'\xe0\xa4\x95\xe0\xa4\xbe,psp,f,sg,,o,,'
p799
ssbsg30
I00
sg31
I00
sg32
Nsg33
Nsg34
I2
sg35
I1
sg36
Nsg37
Nsg38
S'PSP'
p800
sg40
g787
sg41
I00
sba(issf_api
Word
p801
(dp802
g6
I00
sg7
V\u091c\u0928\u0938\u092d\u093e
p803
sg9
(issf_api
FeatureSet
p804
(dp805
g12
(dp806
S'posn'
p807
S'50'
p808
sS'name'
p809
S'\xe0\xa4\x9c\xe0\xa4\xa8\xe0\xa4\xb8\xe0\xa4\xad\xe0\xa4\xbe'
p810
sS'af'
p811
S'\xe0\xa4\x9c\xe0\xa4\xa8\xe0\xa4\xb8\xe0\xa4\xad\xe0\xa4\xbe,n,f,sg,3,o,0_\xe0\xa4\x95\xe0\xa5\x8b,0'
p812
sS'chunkid'
p813
S'NP3'
p814
sS'drel'
p815
S'k2:VGNF'
p816
sS'vpos'
p817
S'vib_2'
p818
sS'chunktype'
p819
S'head:NP3'
p820
ssbsg30
I00
sg31
I00
sg32
Nsg33
Nsg34
I3
sg35
I1
sg36
Nsg37
Nsg38
S'NN'
p821
sg40
g804
sg41
I00
sba(issf_api
Word
p822
(dp823
g6
I00
sg7
V\u0915\u094b
p824
sg9
(issf_api
FeatureSet
p825
(dp826
g12
(dp827
S'posn'
p828
S'60'
p829
sS'name'
p830
S'\xe0\xa4\x95\xe0\xa5\x8b'
p831
sS'drel'
p832
S'lwg__psp:NP3'
p833
sS'chunktype'
p834
S'child:NP3'
p835
sS'af'
p836
S'\xe0\xa4\x95\xe0\xa5\x8b,psp,,,,,,'
p837
ssbsg30
I00
sg31
I00
sg32
Nsg33
Nsg34
I3
sg35
I1
sg36
Nsg37
Nsg38
S'PSP'
p838
sg40
g825
sg41
I00
sba(issf_api
Word
p839
(dp840
g6
I00
sg7
V\u0938\u0902\u092c\u094b\u0927\u093f\u0924
p841
sg9
(issf_api
FeatureSet
p842
(dp843
g12
(dp844
S'posn'
p845
S'70'
p846
sS'name'
p847
S'\xe0\xa4\xb8\xe0\xa4\x82\xe0\xa4\xac\xe0\xa5\x8b\xe0\xa4\xa7\xe0\xa4\xbf\xe0\xa4\xa4'
p848
sS'af'
p849
S'\xe0\xa4\xb8\xe0\xa4\x82\xe0\xa4\xac\xe0\xa5\x8b\xe0\xa4\xa7\xe0\xa4\xbf\xe0\xa4\xa4,adj,any,any,,,,'
p850
sS'chunkid'
p851
S'JJP'
p852
sS'drel'
p853
S'pof:VGNN'
p854
sS'chunktype'
p855
S'head:JJP'
p856
ssbsg30
I00
sg31
I00
sg32
Nsg33
Nsg34
I4
sg35
I1
sg36
Nsg37
Nsg38
S'JJ'
p857
sg40
g842
sg41
I00
sba(issf_api
Word
p858
(dp859
g6
I00
sg7
V\u0915\u0930\u0928\u0947
p860
sg9
(issf_api
FeatureSet
p861
(dp862
g12
(dp863
S'posn'
p864
S'80'
p865
sS'name'
p866
S'\xe0\xa4\x95\xe0\xa4\xb0\xe0\xa4\xa8\xe0\xa5\x87'
p867
sS'af'
p868
S'\xe0\xa4\x95\xe0\xa4\xb0,v,any,any,any,o,\xe0\xa4\xa8\xe0\xa4\xbe,nA'
p869
sS'chunkid'
p870
S'VGNN'
p871
sS'drel'
p872
S'rt:VGNF'
p873
sS'chunktype'
p874
S'head:VGNN'
p875
ssbsg30
I00
sg31
I00
sg32
Nsg33
Nsg34
I5
sg35
I1
sg36
Nsg37
Nsg38
S'VM'
p876
sg40
g861
sg41
I00
sba(issf_api
Word
p877
(dp878
g6
I00
sg7
V\u0906\u090f
p879
sg9
(issf_api
FeatureSet
p880
(dp881
g12
(dp882
S'posn'
p883
S'90'
p884
sS'name'
p885
S'\xe0\xa4\x86\xe0\xa4\x8f'
p886
sS'af'
p887
S'\xe0\xa4\x86,v,m,sg,3h,,\xe0\xa4\xaf\xe0\xa4\xbe,yA'
p888
sS'chunkid'
p889
S'VGNF'
p890
sS'drel'
p891
S'nmod__k1inv:NP4'
p892
sS'chunktype'
p893
S'head:VGNF'
p894
ssbsg30
I00
sg31
I00
sg32
Nsg33
Nsg34
I6
sg35
I1
sg36
Nsg37
Nsg38
S'VM'
p895
sg40
g880
sg41
I00
sba(issf_api
Word
p896
(dp897
g6
I00
sg7
V\u0930\u093e\u091c
p898
sg9
(issf_api
FeatureSet
p899
(dp900
g12
(dp901
S'posn'
p902
S'100'
p903
sS'name'
p904
S'\xe0\xa4\xb0\xe0\xa4\xbe\xe0\xa4\x9c'
p905
sS'af'
p906
S'\xe0\xa4\xb0\xe0\xa4\xbe\xe0\xa4\x9c,n,m,sg,3,d,0,0'
p907
sS'drel'
p908
S'pof__cn:NP4'
p909
sS'chunktype'
p910
S'child:NP4'
p911
sS'cref'
p912
S'i10%0:t1'
p913
ssbsg30
I00
sg31
I00
sg32
Nsg33
Nsg34
I7
sg35
I1
sg36
Nsg37
Nsg38
S'NNPC'
p914
sg40
g899
sg41
I00
sba(issf_api
Word
p915
(dp916
g6
I00
sg7
V\u092c\u092c\u094d\u092c\u0930
p917
sg9
(issf_api
FeatureSet
p918
(dp919
g12
(dp920
S'crefhead'
p921
S'\xe0\xa4\xac\xe0\xa4\xac\xe0\xa5\x8d\xe0\xa4\xac\xe0\xa4\xb0:i10'
p922
sS'posn'
p923
S'110'
p924
sS'name'
p925
S'\xe0\xa4\xac\xe0\xa4\xac\xe0\xa5\x8d\xe0\xa4\xac\xe0\xa4\xb0'
p926
sS'af'
p927
S'\xe0\xa4\xac\xe0\xa4\xac\xe0\xa5\x8d\xe0\xa4\xac\xe0\xa4\xb0,n,any,sg,3,o,0_\xe0\xa4\xa8\xe0\xa5\x87,0'
p928
sS'chunkid'
p929
S'NP4'
p930
sS'creftype'
p931
S'Coreference-Identity:i3'
p932
sS'chunktype'
p933
S'head:NP4'
p934
sS'vpos'
p935
S'vib_3'
p936
sS'cref'
p937
S'i10%1:t1'
p938
sS'drel'
p939
S'k1:VGF'
p940
ssbsg30
I00
sg31
I00
sg32
Nsg33
Nsg34
I7
sg35
I1
sg36
Nsg37
Nsg38
S'NNP'
p941
sg40
g918
sg41
I00
sba(issf_api
Word
p942
(dp943
g6
I00
sg7
V\u0928\u0947
p944
sg9
(issf_api
FeatureSet
p945
(dp946
g12
(dp947
S'posn'
p948
S'120'
p949
sS'name'
p950
S'\xe0\xa4\xa8\xe0\xa5\x87'
p951
sS'drel'
p952
S'lwg__psp:NP4'
p953
sS'chunktype'
p954
S'child:NP4'
p955
sS'af'
p956
S'\xe0\xa4\xa8\xe0\xa5\x87,psp,,,,,,'
p957
ssbsg30
I00
sg31
I00
sg32
Nsg33
Nsg34
I7
sg35
I1
sg36
Nsg37
Nsg38
S'PSP'
p958
sg40
g945
sg41
I00
sba(issf_api
Word
p959
(dp960
g6
I00
sg7
V\u092a\u0924\u094d\u0930\u0915\u093e\u0930\u094b\u0902
p961
sg9
(issf_api
FeatureSet
p962
(dp963
g12
(dp964
S'posn'
p965
S'130'
p966
sS'name'
p967
S'\xe0\xa4\xaa\xe0\xa4\xa4\xe0\xa5\x8d\xe0\xa4\xb0\xe0\xa4\x95\xe0\xa4\xbe\xe0\xa4\xb0\xe0\xa5\x8b\xe0\xa4\x82'
p968
sS'af'
p969
S'\xe0\xa4\xaa\xe0\xa4\xa4\xe0\xa5\x8d\xe0\xa4\xb0\xe0\xa4\x95\xe0\xa4\xbe\xe0\xa4\xb0,n,m,pl,3,o,0_\xe0\xa4\xb8\xe0\xa5\x87,0'
p970
sS'chunkid'
p971
S'NP5'
p972
sS'drel'
p973
S'k4:VGF'
p974
sS'vpos'
p975
S'vib_2'
p976
sS'chunktype'
p977
S'head:NP5'
p978
ssbsg30
I00
sg31
I00
sg32
Nsg33
Nsg34
I8
sg35
I1
sg36
Nsg37
Nsg38
S'NN'
p979
sg40
g962
sg41
I00
sba(issf_api
Word
p980
(dp981
g6
I00
sg7
V\u0938\u0947
p982
sg9
(issf_api
FeatureSet
p983
(dp984
g12
(dp985
S'posn'
p986
S'140'
p987
sS'name'
p988
S'\xe0\xa4\xb8\xe0\xa5\x87'
p989
sS'drel'
p990
S'lwg__psp:NP5'
p991
sS'chunktype'
p992
S'child:NP5'
p993
sS'af'
p994
S'\xe0\xa4\xb8\xe0\xa5\x87,psp,,,,,,'
p995
ssbsg30
I00
sg31
I00
sg32
Nsg33
Nsg34
I8
sg35
I1
sg36
Nsg37
Nsg38
S'PSP'
p996
sg40
g983
sg41
I00
sba(issf_api
Word
p997
(dp998
g6
I00
sg7
V\u0915\u0939\u093e
p999
sg9
(issf_api
FeatureSet
p1000
(dp1001
g12
(dp1002
S'posn'
p1003
S'150'
p1004
sS'name'
p1005
S'\xe0\xa4\x95\xe0\xa4\xb9\xe0\xa4\xbe'
p1006
sS'af'
p1007
S'\xe0\xa4\x95\xe0\xa4\xb9,v,m,sg,any,,\xe0\xa4\xaf\xe0\xa4\xbe,yA'
p1008
sS'chunkid'
p1009
S'VGF'
p1010
sS'chunktype'
p1011
S'head:VGF'
p1012
sS'voicetype'
p1013
S'active'
p1014
sS'stype'
p1015
S'declarative'
p1016
ssbsg30
I00
sg31
I00
sg32
Nsg33
Nsg34
I9
sg35
I1
sg36
Nsg37
Nsg38
S'VM'
p1017
sg40
g1000
sg41
I00
sba(issf_api
Word
p1018
(dp1019
g6
I00
sg7
V\u0915\u093f
p1020
sg9
(issf_api
FeatureSet
p1021
(dp1022
g12
(dp1023
S'posn'
p1024
S'160'
p1025
sS'name'
p1026
S'\xe0\xa4\x95\xe0\xa4\xbf'
p1027
sS'af'
p1028
S'\xe0\xa4\x95\xe0\xa4\xbf,avy,,,,,,'
p1029
sS'chunkid'
p1030
S'CCP2'
p1031
sS'drel'
p1032
S'k2:VGF'
p1033
sS'chunktype'
p1034
S'head:CCP2'
p1035
ssbsg30
I00
sg31
I00
sg32
Nsg33
Nsg34
I10
sg35
I1
sg36
Nsg37
Nsg38
S'CC'
p1036
sg40
g1021
sg41
I00
sba(issf_api
Word
p1037
(dp1038
g6
I00
sg7
V\u0915\u093f\u0938\u093e\u0928\u094b\u0902
p1039
sg9
(issf_api
FeatureSet
p1040
(dp1041
g12
(dp1042
S'crefhead'
p1043
S'\xe0\xa4\x95\xe0\xa4\xbf\xe0\xa4\xb8\xe0\xa4\xbe\xe0\xa4\xa8\xe0\xa5\x8b\xe0\xa4\x82:i11'
p1044
sS'posn'
p1045
S'170'
p1046
sS'name'
p1047
S'\xe0\xa4\x95\xe0\xa4\xbf\xe0\xa4\xb8\xe0\xa4\xbe\xe0\xa4\xa8\xe0\xa5\x8b\xe0\xa4\x822'
p1048
sS'af'
p1049
S'\xe0\xa4\x95\xe0\xa4\xbf\xe0\xa4\xb8\xe0\xa4\xbe\xe0\xa4\xa8,n,m,pl,3,o,0,0'
p1050
sS'chunkid'
p1051
S'NP6'
p1052
sS'creftype'
p1053
S'Coreference-Identity:i9'
p1054
sS'chunktype'
p1055
S'head:NP6'
p1056
sS'cref'
p1057
S'i11%1:t3'
p1058
sS'drel'
p1059
S'ccof:CCP3'
p1060
ssbsg30
I00
sg31
I00
sg32
Nsg33
Nsg34
I11
sg35
I1
sg36
Nsg37
Nsg38
S'NN'
p1061
sg40
g1040
sg41
I00
sba(issf_api
Word
p1062
(dp1063
g6
I00
sg7
V\u0914\u0930
p1064
sg9
(issf_api
FeatureSet
p1065
(dp1066
g12
(dp1067
S'posn'
p1068
S'180'
p1069
sS'name'
p1070
S'\xe0\xa4\x94\xe0\xa4\xb02'
p1071
sS'af'
p1072
S'\xe0\xa4\x94\xe0\xa4\xb0,avy,,,,,,'
p1073
sS'chunkid'
p1074
S'CCP3'
p1075
sS'drel'
p1076
S'r6:NP8'
p1077
sS'chunktype'
p1078
S'head:CCP3'
p1079
ssbsg30
I00
sg31
I00
sg32
Nsg33
Nsg34
I12
sg35
I1
sg36
Nsg37
Nsg38
S'CC'
p1080
sg40
g1065
sg41
I00
sba(issf_api
Word
p1081
(dp1082
g6
I00
sg7
V\u092c\u0947\u0930\u094b\u091c\u0917\u093e\u0930
p1083
sg9
(issf_api
FeatureSet
p1084
(dp1085
g12
(dp1086
S'posn'
p1087
S'190'
p1088
sS'name'
p1089
S'\xe0\xa4\xac\xe0\xa5\x87\xe0\xa4\xb0\xe0\xa5\x8b\xe0\xa4\x9c\xe0\xa4\x97\xe0\xa4\xbe\xe0\xa4\xb0'
p1090
sS'af'
p1091
S'\xe0\xa4\xac\xe0\xa5\x87\xe0\xa4\xb0\xe0\xa5\x8b\xe0\xa4\x9c\xe0\xa4\x97\xe0\xa4\xbe\xe0\xa4\xb0,adj,any,any,,o,,'
p1092
sS'drel'
p1093
S'nmod__adj:NP7'
p1094
sS'chunktype'
p1095
S'child:NP7'
p1096
sS'cref'
p1097
S'i12%0:t4'
p1098
ssbsg30
I00
sg31
I00
sg32
Nsg33
Nsg34
I13
sg35
I1
sg36
Nsg37
Nsg38
S'JJ'
p1099
sg40
g1084
sg41
I00
sba(issf_api
Word
p1100
(dp1101
g6
I00
sg7
V\u092f\u0941\u0935\u0915\u094b\u0902
p1102
sg9
(issf_api
FeatureSet
p1103
(dp1104
g12
(dp1105
S'crefhead'
p1106
S'\xe0\xa4\xaf\xe0\xa5\x81\xe0\xa4\xb5\xe0\xa4\x95\xe0\xa5\x8b\xe0\xa4\x82:i12'
p1107
sS'posn'
p1108
S'200'
p1109
sS'name'
p1110
S'\xe0\xa4\xaf\xe0\xa5\x81\xe0\xa4\xb5\xe0\xa4\x95\xe0\xa5\x8b\xe0\xa4\x82'
p1111
sS'af'
p1112
S'\xe0\xa4\xaf\xe0\xa5\x81\xe0\xa4\xb5\xe0\xa4\x95,n,m,pl,3,o,0_\xe0\xa4\x95\xe0\xa4\xbe,0'
p1113
sS'chunkid'
p1114
S'NP7'
p1115
sS'creftype'
p1116
S'Coreference-Identity:i8'
p1117
sS'chunktype'
p1118
S'head:NP7'
p1119
sS'vpos'
p1120
S'vib_3'
p1121
sS'cref'
p1122
S'i12%1:t4'
p1123
sS'drel'
p1124
S'ccof:CCP3'
p1125
ssbsg30
I00
sg31
I00
sg32
Nsg33
Nsg34
I13
sg35
I1
sg36
Nsg37
Nsg38
S'NN'
p1126
sg40
g1103
sg41
I00
sba(issf_api
Word
p1127
(dp1128
g6
I00
sg7
V\u0915\u0940
p1129
sg9
(issf_api
FeatureSet
p1130
(dp1131
g12
(dp1132
S'posn'
p1133
S'210'
p1134
sS'name'
p1135
S'\xe0\xa4\x95\xe0\xa5\x802'
p1136
sS'drel'
p1137
S'lwg__psp:NP7'
p1138
sS'chunktype'
p1139
S'child:NP7'
p1140
sS'af'
p1141
S'\xe0\xa4\x95\xe0\xa4\xbe,psp,f,pl,,o,,'
p1142
ssbsg30
I00
sg31
I00
sg32
Nsg33
Nsg34
I13
sg35
I1
sg36
Nsg37
Nsg38
S'PSP'
p1143
sg40
g1130
sg41
I00
sba(issf_api
Word
p1144
(dp1145
g6
I00
sg7
V\u0938\u092e\u0938\u094d\u092f\u093e\u0913\u0902
p1146
sg9
(issf_api
FeatureSet
p1147
(dp1148
g12
(dp1149
S'posn'
p1150
S'220'
p1151
sS'name'
p1152
S'\xe0\xa4\xb8\xe0\xa4\xae\xe0\xa4\xb8\xe0\xa5\x8d\xe0\xa4\xaf\xe0\xa4\xbe\xe0\xa4\x93\xe0\xa4\x82'
p1153
sS'af'
p1154
S'\xe0\xa4\xb8\xe0\xa4\xae\xe0\xa4\xb8\xe0\xa5\x8d\xe0\xa4\xaf\xe0\xa4\xbe,n,f,pl,3,o,0_\xe0\xa4\xaa\xe0\xa4\xb0,0'
p1155
sS'chunkid'
p1156
S'NP8'
p1157
sS'drel'
p1158
S'k7:VGNN2'
p1159
sS'vpos'
p1160
S'vib_2'
p1161
sS'chunktype'
p1162
S'head:NP8'
p1163
ssbsg30
I00
sg31
I00
sg32
Nsg33
Nsg34
I14
sg35
I1
sg36
Nsg37
Nsg38
S'NN'
p1164
sg40
g1147
sg41
I00
sba(issf_api
Word
p1165
(dp1166
g6
I00
sg7
V\u092a\u0930
p1167
sg9
(issf_api
FeatureSet
p1168
(dp1169
g12
(dp1170
S'posn'
p1171
S'230'
p1172
sS'name'
p1173
S'\xe0\xa4\xaa\xe0\xa4\xb0'
p1174
sS'drel'
p1175
S'lwg__psp:NP8'
p1176
sS'chunktype'
p1177
S'child:NP8'
p1178
sS'af'
p1179
S'\xe0\xa4\xaa\xe0\xa4\xb0,psp,,,,,,'
p1180
ssbsg30
I00
sg31
I00
sg32
Nsg33
Nsg34
I14
sg35
I1
sg36
Nsg37
Nsg38
S'PSP'
p1181
sg40
g1168
sg41
I00
sba(issf_api
Word
p1182
(dp1183
g6
I00
sg7
V\u0924\u0941\u0930\u0902\u0924
p1184
sg9
(issf_api
FeatureSet
p1185
(dp1186
g12
(dp1187
S'posn'
p1188
S'240'
p1189
sS'name'
p1190
S'\xe0\xa4\xa4\xe0\xa5\x81\xe0\xa4\xb0\xe0\xa4\x82\xe0\xa4\xa4'
p1191
sS'af'
p1192
S'\xe0\xa4\xa4\xe0\xa5\x81\xe0\xa4\xb0\xe0\xa4\x82\xe0\xa4\xa4,adv,,,,,,'
p1193
sS'chunkid'
p1194
S'RBP'
p1195
sS'drel'
p1196
S'adv:VGNN2'
p1197
sS'chunktype'
p1198
S'head:RBP'
p1199
ssbsg30
I00
sg31
I00
sg32
Nsg33
Nsg34
I15
sg35
I1
sg36
Nsg37
Nsg38
S'RB'
p1200
sg40
g1185
sg41
I00
sba(issf_api
Word
p1201
(dp1202
g6
I00
sg7
V\u0927\u094d\u092f\u093e\u0928
p1203
sg9
(issf_api
FeatureSet
p1204
(dp1205
g12
(dp1206
S'posn'
p1207
S'250'
p1208
sS'name'
p1209
S'\xe0\xa4\xa7\xe0\xa5\x8d\xe0\xa4\xaf\xe0\xa4\xbe\xe0\xa4\xa8'
p1210
sS'af'
p1211
S'\xe0\xa4\xa7\xe0\xa5\x8d\xe0\xa4\xaf\xe0\xa4\xbe\xe0\xa4\xa8,n,m,sg,3,d,0,0'
p1212
sS'chunkid'
p1213
S'NP9'
p1214
sS'drel'
p1215
S'pof:VGNN2'
p1216
sS'chunktype'
p1217
S'head:NP9'
p1218
ssbsg30
I00
sg31
I00
sg32
Nsg33
Nsg34
I16
sg35
I1
sg36
Nsg37
Nsg38
S'NN'
p1219
sg40
g1204
sg41
I00
sba(issf_api
Word
p1220
(dp1221
g6
I00
sg7
V\u0926\u0947\u0928\u0947
p1222
sg9
(issf_api
FeatureSet
p1223
(dp1224
g12
(dp1225
S'posn'
p1226
S'260'
p1227
sS'name'
p1228
S'\xe0\xa4\xa6\xe0\xa5\x87\xe0\xa4\xa8\xe0\xa5\x87'
p1229
sS'af'
p1230
S'\xe0\xa4\xa6\xe0\xa5\x87,v,any,sg,any,o,\xe0\xa4\xa8\xe0\xa4\xbe_\xe0\xa4\x95\xe0\xa4\xbe,nA'
p1231
sS'chunkid'
p1232
S'VGNN2'
p1233
sS'drel'
p1234
S'r6:NP10'
p1235
sS'vpos'
p1236
S'tam_2'
p1237
sS'chunktype'
p1238
S'head:VGNN2'
p1239
ssbsg30
I00
sg31
I00
sg32
Nsg33
Nsg34
I17
sg35
I1
sg36
Nsg37
Nsg38
S'VM'
p1240
sg40
g1223
sg41
I00
sba(issf_api
Word
p1241
(dp1242
g6
I00
sg7
V\u0915\u0940
p1243
sg9
(issf_api
FeatureSet
p1244
(dp1245
g12
(dp1246
S'posn'
p1247
S'270'
p1248
sS'name'
p1249
S'\xe0\xa4\x95\xe0\xa5\x803'
p1250
sS'drel'
p1251
S'lwg__psp:VGNN2'
p1252
sS'chunktype'
p1253
S'child:VGNN2'
p1254
sS'af'
p1255
S'\xe0\xa4\x95\xe0\xa4\xbe,psp,f,sg,,d,,'
p1256
ssbsg30
I00
sg31
I00
sg32
Nsg33
Nsg34
I17
sg35
I1
sg36
Nsg37
Nsg38
S'PSP'
p1257
sg40
g1244
sg41
I00
sba(issf_api
Word
p1258
(dp1259
g6
I00
sg7
V\u091c\u0930\u0942\u0930\u0924
p1260
sg9
(issf_api
FeatureSet
p1261
(dp1262
g12
(dp1263
S'posn'
p1264
S'280'
p1265
sS'name'
p1266
S'\xe0\xa4\x9c\xe0\xa4\xb0\xe0\xa5\x82\xe0\xa4\xb0\xe0\xa4\xa4'
p1267
sS'af'
p1268
S'\xe0\xa4\x9c\xe0\xa4\xb0\xe0\xa5\x82\xe0\xa4\xb0\xe0\xa4\xa4,n,f,sg,3,d,0,0'
p1269
sS'chunkid'
p1270
S'NP10'
p1271
sS'drel'
p1272
S'k1:VGF2'
p1273
sS'chunktype'
p1274
S'head:NP10'
p1275
ssbsg30
I00
sg31
I00
sg32
Nsg33
Nsg34
I18
sg35
I1
sg36
Nsg37
Nsg38
S'NN'
p1276
sg40
g1261
sg41
I00
sba(issf_api
Word
p1277
(dp1278
g6
I00
sg7
V\u0939\u0948
p1279
sg9
(issf_api
FeatureSet
p1280
(dp1281
g12
(dp1282
S'posn'
p1283
S'290'
p1284
sS'name'
p1285
S'\xe0\xa4\xb9\xe0\xa5\x88'
p1286
sS'af'
p1287
S'\xe0\xa4\xb9\xe0\xa5\x88,v,any,sg,3,,\xe0\xa4\xb9\xe0\xa5\x88,hE'
p1288
sS'chunkid'
p1289
S'VGF2'
p1290
sS'stype'
p1291
S'declarative'
p1292
sS'drel'
p1293
S'ccof:CCP2'
p1294
sS'voicetype'
p1295
S'active'
p1296
sS'chunktype'
p1297
S'head:VGF2'
p1298
ssbsg30
I00
sg31
I00
sg32
Nsg33
Nsg34
I19
sg35
I1
sg36
Nsg37
Nsg38
S'VM'
p1299
sg40
g1280
sg41
I00
sba(issf_api
Word
p1300
(dp1301
g6
I00
sg7
V\u0964
p1302
sg9
(issf_api
FeatureSet
p1303
(dp1304
g12
(dp1305
S'posn'
p1306
S'300'
p1307
sS'name'
p1308
S'\xe0\xa5\xa4'
p1309
sS'af'
p1310
S'\xe0\xa5\xa4,punc,,,,,,'
p1311
sS'chunkid'
p1312
S'BLK'
p1313
sS'drel'
p1314
S'rsym:VGF'
p1315
sS'chunktype'
p1316
S'head:BLK'
p1317
ssbsg30
I00
sg31
I00
sg32
Nsg33
Nsg34
I20
sg35
I1
sg36
Nsg37
Nsg38
S'SYM'
p1318
sg40
g1303
sg41
I00
sba(issf_api
Word
p1319
(dp1320
g6
I00
sg7
V\u0938\u092e\u093e\u091c\u0935\u093e\u0926\u0940
p1321
sg9
(issf_api
FeatureSet
p1322
(dp1323
g12
(dp1324
S'posn'
p1325
S'140'
p1326
sS'name'
p1327
S'\xe0\xa4\xb8\xe0\xa4\xae\xe0\xa4\xbe\xe0\xa4\x9c\xe0\xa4\xb5\xe0\xa4\xbe\xe0\xa4\xa6\xe0\xa5\x80'
p1328
sS'af'
p1329
S'\xe0\xa4\xb8\xe0\xa4\xae\xe0\xa4\xbe\xe0\xa4\x9c\xe0\xa4\xb5\xe0\xa4\xbe\xe0\xa4\xa6\xe0\xa5\x80,adj,any,any,,d,,'
p1330
sS'drel'
p1331
S'pof__cn:NP'
p1332
sS'chunktype'
p1333
S'child:NP'
p1334
sS'cref'
p1335
S'i13%0:t2'
p1336
ssbsg30
I00
sg31
I00
sg32
Nsg33
Nsg34
I0
sg35
I2
sg36
Nsg37
Nsg38
S'NNC'
p1337
sg40
g1322
sg41
I00
sba(issf_api
Word
p1338
(dp1339
g6
I00
sg7
V\u092e\u094b\u0930\u094d\u091a\u093e
p1340
sg9
(issf_api
FeatureSet
p1341
(dp1342
g12
(dp1343
S'crefhead'
p1344
S'\xe0\xa4\xae\xe0\xa5\x8b\xe0\xa4\xb0\xe0\xa5\x8d\xe0\xa4\x9a\xe0\xa4\xbe:i13'
p1345
sS'posn'
p1346
S'20'
p1347
sS'name'
p1348
S'\xe0\xa4\xae\xe0\xa5\x8b\xe0\xa4\xb0\xe0\xa5\x8d\xe0\xa4\x9a\xe0\xa4\xbe'
p1349
sS'af'
p1350
S'\xe0\xa4\xae\xe0\xa5\x8b\xe0\xa4\xb0\xe0\xa5\x8d\xe0\xa4\x9a\xe0\xa4\xbe,n,m,sg,3,d,0,0'
p1351
sS'chunkid'
p1352
S'NP'
p1353
sS'creftype'
p1354
S'Coreference-Noun-Noun:i24:i14'
p1355
sS'chunktype'
p1356
S'head:NP'
p1357
sS'cref'
p1358
S'i13%1:t2'
p1359
sS'drel'
p1360
S'k1:VGF'
p1361
ssbsg30
I00
sg31
I00
sg32
Nsg33
Nsg34
I0
sg35
I2
sg36
Nsg37
Nsg38
S'NN'
p1362
sg40
g1341
sg41
I00
sba(issf_api
Word
p1363
(dp1364
g6
I00
sg7
V\u0907\u0938
p1365
sg9
(issf_api
FeatureSet
p1366
(dp1367
g12
(dp1368
S'posn'
p1369
S'30'
p1370
sS'name'
p1371
S'\xe0\xa4\x87\xe0\xa4\xb8'
p1372
sS'af'
p1373
S'\xe0\xa4\xaf\xe0\xa4\xb9,pn,any,sg,3,o,,'
p1374
sS'chunkid'
p1375
S'NP2'
p1376
sS'drel'
p1377
S'rd:VGNN'
p1378
sS'chunktype'
p1379
S'head:NP2'
p1380
ssbsg30
I00
sg31
I00
sg32
Nsg33
Nsg34
I1
sg35
I2
sg36
Nsg37
Nsg38
S'DEM'
p1381
sg40
g1366
sg41
I00
sba(issf_api
Word
p1382
(dp1383
g6
I00
sg7
V\u0913\u0930
p1384
sg9
(issf_api
FeatureSet
p1385
(dp1386
g12
(dp1387
S'posn'
p1388
S'40'
p1389
sS'name'
p1390
S'\xe0\xa4\x93\xe0\xa4\xb0'
p1391
sS'drel'
p1392
S'lwg__psp:NP2'
p1393
sS'chunktype'
p1394
S'child:NP2'
p1395
sS'af'
p1396
S'\xe0\xa4\x93\xe0\xa4\xb0,nst,f,sg,3,d,,'
p1397
ssbsg30
I00
sg31
I00
sg32
Nsg33
Nsg34
I1
sg35
I2
sg36
Nsg37
Nsg38
S'NST'
p1398
sg40
g1385
sg41
I00
sba(issf_api
Word
p1399
(dp1400
g6
I00
sg7
V\u0938\u0930\u0915\u093e\u0930
p1401
sg9
(issf_api
FeatureSet
p1402
(dp1403
g12
(dp1404
S'crefhead'
p1405
S'\xe0\xa4\xb8\xe0\xa4\xb0\xe0\xa4\x95\xe0\xa4\xbe\xe0\xa4\xb0:i15'
p1406
sS'posn'
p1407
S'50'
p1408
sS'name'
p1409
S'\xe0\xa4\xb8\xe0\xa4\xb0\xe0\xa4\x95\xe0\xa4\xbe\xe0\xa4\xb0'
p1410
sS'af'
p1411
S'\xe0\xa4\xb8\xe0\xa4\xb0\xe0\xa4\x95\xe0\xa4\xbe\xe0\xa4\xb0,n,f,sg,3,o,0_\xe0\xa4\x95\xe0\xa4\xbe,0'
p1412
sS'chunkid'
p1413
S'NP3'
p1414
sS'chunktype'
p1415
S'head:NP3'
p1416
sS'crefchainhead'
p1417
S'i15:t5'
p1418
sS'vpos'
p1419
S'vib_2'
p1420
sS'cref'
p1421
S'i15%1:t5'
p1422
sS'drel'
p1423
S'r6-k2:NP4'
p1424
ssbsg30
I00
sg31
I00
sg32
Nsg33
Nsg34
I2
sg35
I2
sg36
Nsg37
Nsg38
S'NN'
p1425
sg40
g1402
sg41
I00
sba(issf_api
Word
p1426
(dp1427
g6
I00
sg7
V\u0915\u093e
p1428
sg9
(issf_api
FeatureSet
p1429
(dp1430
g12
(dp1431
S'posn'
p1432
S'60'
p1433
sS'name'
p1434
S'\xe0\xa4\x95\xe0\xa4\xbe'
p1435
sS'drel'
p1436
S'lwg__psp:NP3'
p1437
sS'chunktype'
p1438
S'child:NP3'
p1439
sS'af'
p1440
S'\xe0\xa4\x95\xe0\xa4\xbe,psp,m,sg,,d,,'
p1441
ssbsg30
I00
sg31
I00
sg32
Nsg33
Nsg34
I2
sg35
I2
sg36
Nsg37
Nsg38
S'PSP'
p1442
sg40
g1429
sg41
I00
sba(issf_api
Word
p1443
(dp1444
g6
I00
sg7
V\u0927\u094d\u092f\u093e\u0928
p1445
sg9
(issf_api
FeatureSet
p1446
(dp1447
g12
(dp1448
S'posn'
p1449
S'70'
p1450
sS'name'
p1451
S'\xe0\xa4\xa7\xe0\xa5\x8d\xe0\xa4\xaf\xe0\xa4\xbe\xe0\xa4\xa8'
p1452
sS'af'
p1453
S'\xe0\xa4\xa7\xe0\xa5\x8d\xe0\xa4\xaf\xe0\xa4\xbe\xe0\xa4\xa8,n,m,sg,3,d,0,0'
p1454
sS'chunkid'
p1455
S'NP4'
p1456
sS'drel'
p1457
S'pof:VGNN'
p1458
sS'chunktype'
p1459
S'head:NP4'
p1460
ssbsg30
I00
sg31
I00
sg32
Nsg33
Nsg34
I3
sg35
I2
sg36
Nsg37
Nsg38
S'NN'
p1461
sg40
g1446
sg41
I00
sba(issf_api
Word
p1462
(dp1463
g6
I00
sg7
V\u0916\u0940\u0902\u091a\u0928\u0947
p1464
sg9
(issf_api
FeatureSet
p1465
(dp1466
g12
(dp1467
S'posn'
p1468
S'80'
p1469
sS'name'
p1470
S'\xe0\xa4\x96\xe0\xa5\x80\xe0\xa4\x82\xe0\xa4\x9a\xe0\xa4\xa8\xe0\xa5\x87'
p1471
sS'af'
p1472
S'\xe0\xa4\x96\xe0\xa5\x80\xe0\xa4\x82\xe0\xa4\x9a,v,any,sg,any,o,\xe0\xa4\xa8\xe0\xa4\xbe_\xe0\xa4\x95\xe0\xa4\xbe,nA'
p1473
sS'chunkid'
p1474
S'VGNN'
p1475
sS'drel'
p1476
S'r6:NP5'
p1477
sS'vpos'
p1478
S'tam_2'
p1479
sS'chunktype'
p1480
S'head:VGNN'
p1481
ssbsg30
I00
sg31
I00
sg32
Nsg33
Nsg34
I4
sg35
I2
sg36
Nsg37
Nsg38
S'VM'
p1482
sg40
g1465
sg41
I00
sba(issf_api
Word
p1483
(dp1484
g6
I00
sg7
V\u0915\u093e
p1485
sg9
(issf_api
FeatureSet
p1486
(dp1487
g12
(dp1488
S'posn'
p1489
S'90'
p1490
sS'name'
p1491
S'\xe0\xa4\x95\xe0\xa4\xbe2'
p1492
sS'drel'
p1493
S'lwg__psp:VGNN'
p1494
sS'chunktype'
p1495
S'child:VGNN'
p1496
sS'af'
p1497
S'\xe0\xa4\x95\xe0\xa4\xbe,psp,m,sg,,d,,'
p1498
ssbsg30
I00
sg31
I00
sg32
Nsg33
Nsg34
I4
sg35
I2
sg36
Nsg37
Nsg38
S'PSP'
p1499
sg40
g1486
sg41
I00
sba(issf_api
Word
p1500
(dp1501
g6
I00
sg7
V\u0915\u093e\u092e
p1502
sg9
(issf_api
FeatureSet
p1503
(dp1504
g12
(dp1505
S'posn'
p1506
S'100'
p1507
sS'name'
p1508
S'\xe0\xa4\x95\xe0\xa4\xbe\xe0\xa4\xae'
p1509
sS'af'
p1510
S'\xe0\xa4\x95\xe0\xa4\xbe\xe0\xa4\xae,n,m,sg,3,d,0,0'
p1511
sS'chunkid'
p1512
S'NP5'
p1513
sS'drel'
p1514
S'k2:VGF'
p1515
sS'chunktype'
p1516
S'head:NP5'
p1517
ssbsg30
I00
sg31
I00
sg32
Nsg33
Nsg34
I5
sg35
I2
sg36
Nsg37
Nsg38
S'NN'
p1518
sg40
g1503
sg41
I00
sba(issf_api
Word
p1519
(dp1520
g6
I00
sg7
V\u0915\u0930\u0947\u0917\u093e
p1521
sg9
(issf_api
FeatureSet
p1522
(dp1523
g12
(dp1524
S'posn'
p1525
S'110'
p1526
sS'name'
p1527
S'\xe0\xa4\x95\xe0\xa4\xb0\xe0\xa5\x87\xe0\xa4\x97\xe0\xa4\xbe'
p1528
sS'af'
p1529
S'\xe0\xa4\x95\xe0\xa4\xb0,v,m,sg,3,,\xe0\xa4\x97\xe0\xa4\xbe,gA'
p1530
sS'chunkid'
p1531
S'VGF'
p1532
sS'chunktype'
p1533
S'head:VGF'
p1534
sS'voicetype'
p1535
S'active'
p1536
sS'stype'
p1537
S'declarative'
p1538
ssbsg30
I00
sg31
I00
sg32
Nsg33
Nsg34
I6
sg35
I2
sg36
Nsg37
Nsg38
S'VM'
p1539
sg40
g1522
sg41
I00
sba(issf_api
Word
p1540
(dp1541
g6
I00
sg7
V\u0964
p1542
sg9
(issf_api
FeatureSet
p1543
(dp1544
g12
(dp1545
S'posn'
p1546
S'120'
p1547
sS'name'
p1548
S'\xe0\xa5\xa4'
p1549
sS'af'
p1550
S'\xe0\xa5\xa4,punc,,,,,,'
p1551
sS'chunkid'
p1552
S'BLK'
p1553
sS'drel'
p1554
S'rsym:VGF'
p1555
sS'chunktype'
p1556
S'head:BLK'
p1557
ssbsg30
I00
sg31
I00
sg32
Nsg33
Nsg34
I7
sg35
I2
sg36
Nsg37
Nsg38
S'SYM'
p1558
sg40
g1543
sg41
I00
sba(issf_api
Word
p1559
(dp1560
g6
I00
sg7
V\u0932\u093e\u092d
p1561
sg9
(issf_api
FeatureSet
p1562
(dp1563
g12
(dp1564
S'posn'
p1565
S'10'
p1566
sS'name'
p1567
S'\xe0\xa4\xb2\xe0\xa4\xbe\xe0\xa4\xad'
p1568
sS'drel'
p1569
S'pof__cn:NP'
p1570
sS'chunktype'
p1571
S'child:NP'
p1572
sS'af'
p1573
S'\xe0\xa4\xb2\xe0\xa4\xbe\xe0\xa4\xad,n,m,sg,3,o,0,0'
p1574
ssbsg30
I00
sg31
I00
sg32
Nsg33
Nsg34
I0
sg35
I3
sg36
Nsg37
Nsg38
S'NNC'
p1575
sg40
g1562
sg41
I00
sba(issf_api
Word
p1576
(dp1577
g6
I00
sg7
V\u0915\u0947
p1578
sg9
(issf_api
FeatureSet
p1579
(dp1580
g12
(dp1581
S'posn'
p1582
S'20'
p1583
sS'name'
p1584
S'\xe0\xa4\x95\xe0\xa5\x87'
p1585
sS'drel'
p1586
S'pof__cn:NP'
p1587
sS'chunktype'
p1588
S'child:NP'
p1589
sS'af'
p1590
S'\xe0\xa4\x95\xe0\xa4\xbe,psp,m,pl,,d,,'
p1591
ssbsg30
I00
sg31
I00
sg32
Nsg33
Nsg34
I0
sg35
I3
sg36
Nsg37
Nsg38
S'NNC'
p1592
sg40
g1579
sg41
I00
sba(issf_api
Word
p1593
(dp1594
g6
I00
sg7
V\u092a\u0926
p1595
sg9
(issf_api
FeatureSet
p1596
(dp1597
g12
(dp1598
S'posn'
p1599
S'30'
p1600
sS'name'
p1601
S'\xe0\xa4\xaa\xe0\xa4\xa6'
p1602
sS'drel'
p1603
S'pof__cn:NP'
p1604
sS'chunktype'
p1605
S'child:NP'
p1606
sS'af'
p1607
S'\xe0\xa4\xaa\xe0\xa4\xa6,n,m,pl,3,d,0,0'
p1608
ssbsg30
I00
sg31
I00
sg32
Nsg33
Nsg34
I0
sg35
I3
sg36
Nsg37
Nsg38
S'NNC'
p1609
sg40
g1596
sg41
I00
sba(issf_api
Word
p1610
(dp1611
g6
I00
sg7
V\u092e\u093e\u092e\u0932\u0947
p1612
sg9
(issf_api
FeatureSet
p1613
(dp1614
g12
(dp1615
S'posn'
p1616
S'40'
p1617
sS'name'
p1618
S'\xe0\xa4\xae\xe0\xa4\xbe\xe0\xa4\xae\xe0\xa4\xb2\xe0\xa5\x87'
p1619
sS'af'
p1620
S'\xe0\xa4\xae\xe0\xa4\xbe\xe0\xa4\xae\xe0\xa4\xb2\xe0\xa4\xbe,n,m,sg,3,o,0_\xe0\xa4\xae\xe0\xa5\x87\xe0\xa4\x82,0'
p1621
sS'chunkid'
p1622
S'NP'
p1623
sS'drel'
p1624
S'k7:VGF'
p1625
sS'vpos'
p1626
S'vib_5'
p1627
sS'chunktype'
p1628
S'head:NP'
p1629
ssbsg30
I00
sg31
I00
sg32
Nsg33
Nsg34
I0
sg35
I3
sg36
Nsg37
Nsg38
S'NN'
p1630
sg40
g1613
sg41
I00
sba(issf_api
Word
p1631
(dp1632
g6
I00
sg7
V\u092e\u0947\u0902
p1633
sg9
(issf_api
FeatureSet
p1634
(dp1635
g12
(dp1636
S'posn'
p1637
S'50'
p1638
sS'name'
p1639
S'\xe0\xa4\xae\xe0\xa5\x87\xe0\xa4\x82'
p1640
sS'drel'
p1641
S'lwg__psp:NP'
p1642
sS'chunktype'
p1643
S'child:NP'
p1644
sS'af'
p1645
S'\xe0\xa4\xae\xe0\xa5\x87\xe0\xa4\x82,psp,,,,,,'
p1646
ssbsg30
I00
sg31
I00
sg32
Nsg33
Nsg34
I0
sg35
I3
sg36
Nsg37
Nsg38
S'PSP'
p1647
sg40
g1634
sg41
I00
sba(issf_api
Word
p1648
(dp1649
g6
I00
sg7
V\u0938\u094b\u0928\u093f\u092f\u093e
p1650
sg9
(issf_api
FeatureSet
p1651
(dp1652
g12
(dp1653
S'posn'
p1654
S'60'
p1655
sS'name'
p1656
S'\xe0\xa4\xb8\xe0\xa5\x8b\xe0\xa4\xa8\xe0\xa4\xbf\xe0\xa4\xaf\xe0\xa4\xbe'
p1657
sS'drel'
p1658
S'pof__cn:NP2'
p1659
sS'chunktype'
p1660
S'child:NP2'
p1661
sS'af'
p1662
S'\xe0\xa4\xb8\xe0\xa5\x8b\xe0\xa4\xa8\xe0\xa4\xbf\xe0\xa4\xaf\xe0\xa4\xbe,n,f,sg,3,d,0,0'
p1663
ssbsg30
I00
sg31
I00
sg32
Nsg33
Nsg34
I1
sg35
I3
sg36
Nsg37
Nsg38
S'NNPC'
p1664
sg40
g1651
sg41
I00
sba(issf_api
Word
p1665
(dp1666
g6
I00
sg7
V\u0917\u093e\u0902\u0927\u0940
p1667
sg9
(issf_api
FeatureSet
p1668
(dp1669
g12
(dp1670
S'posn'
p1671
S'70'
p1672
sS'name'
p1673
S'\xe0\xa4\x97\xe0\xa4\xbe\xe0\xa4\x82\xe0\xa4\xa7\xe0\xa5\x80'
p1674
sS'af'
p1675
S'\xe0\xa4\x97\xe0\xa4\xbe\xe0\xa4\x82\xe0\xa4\xa7\xe0\xa5\x80,n,any,sg,3,o,0_\xe0\xa4\xb8\xe0\xa4\xae\xe0\xa5\x87\xe0\xa4\xa4,0'
p1676
sS'chunkid'
p1677
S'NP2'
p1678
sS'drel'
p1679
S'ras-r6:VGF'
p1680
sS'vpos'
p1681
S'vib_3'
p1682
sS'chunktype'
p1683
S'head:NP2'
p1684
ssbsg30
I00
sg31
I00
sg32
Nsg33
Nsg34
I1
sg35
I3
sg36
Nsg37
Nsg38
S'NNP'
p1685
sg40
g1668
sg41
I00
sba(issf_api
Word
p1686
(dp1687
g6
I00
sg7
V\u0938\u092e\u0947\u0924
p1688
sg9
(issf_api
FeatureSet
p1689
(dp1690
g12
(dp1691
S'posn'
p1692
S'80'
p1693
sS'name'
p1694
S'\xe0\xa4\xb8\xe0\xa4\xae\xe0\xa5\x87\xe0\xa4\xa4'
p1695
sS'drel'
p1696
S'lwg__psp:NP2'
p1697
sS'chunktype'
p1698
S'child:NP2'
p1699
sS'af'
p1700
S'\xe0\xa4\xb8\xe0\xa4\xae\xe0\xa5\x87\xe0\xa4\xa4,psp,,,,,,'
p1701
ssbsg30
I00
sg31
I00
sg32
Nsg33
Nsg34
I1
sg35
I3
sg36
Nsg37
Nsg38
S'PSP'
p1702
sg40
g1689
sg41
I00
sba(issf_api
Word
p1703
(dp1704
g6
I00
sg7
V\u0915\u0908
p1705
sg9
(issf_api
FeatureSet
p1706
(dp1707
g12
(dp1708
S'posn'
p1709
S'90'
p1710
sS'name'
p1711
S'\xe0\xa4\x95\xe0\xa4\x88'
p1712
sS'drel'
p1713
S'nmod__adj:NP3'
p1714
sS'chunktype'
p1715
S'child:NP3'
p1716
sS'af'
p1717
S'\xe0\xa4\x95\xe0\xa4\x88,avy,,,,,,'
p1718
ssbsg30
I00
sg31
I00
sg32
Nsg33
Nsg34
I2
sg35
I3
sg36
Nsg37
Nsg38
S'QF'
p1719
sg40
g1706
sg41
I00
sba(issf_api
Word
p1720
(dp1721
g6
I00
sg7
V\u0938\u093e\u0902\u0938\u0926\u094b\u0902
p1722
sg9
(issf_api
FeatureSet
p1723
(dp1724
g12
(dp1725
S'posn'
p1726
S'100'
p1727
sS'name'
p1728
S'\xe0\xa4\xb8\xe0\xa4\xbe\xe0\xa4\x82\xe0\xa4\xb8\xe0\xa4\xa6\xe0\xa5\x8b\xe0\xa4\x82'
p1729
sS'af'
p1730
S'\xe0\xa4\xb8\xe0\xa4\xbe\xe0\xa4\x82\xe0\xa4\xb8\xe0\xa4\xa6,n,m,pl,3,o,0_\xe0\xa4\x95\xe0\xa4\xbe,0'
p1731
sS'chunkid'
p1732
S'NP3'
p1733
sS'drel'
p1734
S'r6:NP4'
p1735
sS'vpos'
p1736
S'vib_3'
p1737
sS'chunktype'
p1738
S'head:NP3'
p1739
ssbsg30
I00
sg31
I00
sg32
Nsg33
Nsg34
I2
sg35
I3
sg36
Nsg37
Nsg38
S'NN'
p1740
sg40
g1723
sg41
I00
sba(issf_api
Word
p1741
(dp1742
g6
I00
sg7
V\u0915\u0947
p1743
sg9
(issf_api
FeatureSet
p1744
(dp1745
g12
(dp1746
S'posn'
p1747
S'110'
p1748
sS'name'
p1749
S'\xe0\xa4\x95\xe0\xa5\x872'
p1750
sS'drel'
p1751
S'lwg__psp:NP3'
p1752
sS'chunktype'
p1753
S'child:NP3'
p1754
sS'af'
p1755
S'\xe0\xa4\x95\xe0\xa4\xbe,psp,m,pl,,o,,'
p1756
ssbsg30
I00
sg31
I00
sg32
Nsg33
Nsg34
I2
sg35
I3
sg36
Nsg37
Nsg38
S'PSP'
p1757
sg40
g1744
sg41
I00
sba(issf_api
Word
p1758
(dp1759
g6
I00
sg7
V\u0907\u0938\u094d\u0924\u0940\u092b\u094b\u0902
p1760
sg9
(issf_api
FeatureSet
p1761
(dp1762
g12
(dp1763
S'posn'
p1764
S'120'
p1765
sS'name'
p1766
S'\xe0\xa4\x87\xe0\xa4\xb8\xe0\xa5\x8d\xe0\xa4\xa4\xe0\xa5\x80\xe0\xa4\xab\xe0\xa5\x8b\xe0\xa4\x82'
p1767
sS'af'
p1768
S'\xe0\xa4\x87\xe0\xa4\xb8\xe0\xa5\x8d\xe0\xa4\xa4\xe0\xa5\x80\xe0\xa4\xab\xe0\xa4\xbe,n,m,pl,3,o,0_\xe0\xa4\xaa\xe0\xa4\xb0,0'
p1769
sS'chunkid'
p1770
S'NP4'
p1771
sS'drel'
p1772
S'k7:VGF'
p1773
sS'vpos'
p1774
S'vib_2'
p1775
sS'chunktype'
p1776
S'head:NP4'
p1777
ssbsg30
I00
sg31
I00
sg32
Nsg33
Nsg34
I3
sg35
I3
sg36
Nsg37
Nsg38
S'NN'
p1778
sg40
g1761
sg41
I00
sba(issf_api
Word
p1779
(dp1780
g6
I00
sg7
V\u092a\u0930
p1781
sg9
(issf_api
FeatureSet
p1782
(dp1783
g12
(dp1784
S'posn'
p1785
S'130'
p1786
sS'name'
p1787
S'\xe0\xa4\xaa\xe0\xa4\xb0'
p1788
sS'drel'
p1789
S'lwg__psp:NP4'
p1790
sS'chunktype'
p1791
S'child:NP4'
p1792
sS'af'
p1793
S'\xe0\xa4\xaa\xe0\xa4\xb0,psp,,,,,,'
p1794
ssbsg30
I00
sg31
I00
sg32
Nsg33
Nsg34
I3
sg35
I3
sg36
Nsg37
Nsg38
S'PSP'
p1795
sg40
g1782
sg41
I00
sba(issf_api
Word
p1796
(dp1797
g6
I00
sg7
V\u092c\u092c\u094d\u092c\u0930
p1798
sg9
(issf_api
FeatureSet
p1799
(dp1800
g12
(dp1801
S'crefhead'
p1802
S'\xe0\xa4\xac\xe0\xa4\xac\xe0\xa5\x8d\xe0\xa4\xac\xe0\xa4\xb0:i16'
p1803
sS'posn'
p1804
S'140'
p1805
sS'name'
p1806
S'\xe0\xa4\xac\xe0\xa4\xac\xe0\xa5\x8d\xe0\xa4\xac\xe0\xa4\xb0'
p1807
sS'af'
p1808
S'\xe0\xa4\xac\xe0\xa4\xac\xe0\xa5\x8d\xe0\xa4\xac\xe0\xa4\xb0,n,any,sg,3,o,0_\xe0\xa4\xa8\xe0\xa5\x87,0'
p1809
sS'chunkid'
p1810
S'NP5'
p1811
sS'creftype'
p1812
S'Coreference-Identity:i10'
p1813
sS'chunktype'
p1814
S'head:NP5'
p1815
sS'vpos'
p1816
S'vib_2'
p1817
sS'cref'
p1818
S'i16%1:t1'
p1819
sS'drel'
p1820
S'k1:VGF'
p1821
ssbsg30
I00
sg31
I00
sg32
Nsg33
Nsg34
I4
sg35
I3
sg36
Nsg37
Nsg38
S'NNP'
p1822
sg40
g1799
sg41
I00
sba(issf_api
Word
p1823
(dp1824
g6
I00
sg7
V\u0928\u0947
p1825
sg9
(issf_api
FeatureSet
p1826
(dp1827
g12
(dp1828
S'posn'
p1829
S'150'
p1830
sS'name'
p1831
S'\xe0\xa4\xa8\xe0\xa5\x87'
p1832
sS'drel'
p1833
S'lwg__psp:NP5'
p1834
sS'chunktype'
p1835
S'child:NP5'
p1836
sS'af'
p1837
S'\xe0\xa4\xa8\xe0\xa5\x87,psp,,,,,,'
p1838
ssbsg30
I00
sg31
I00
sg32
Nsg33
Nsg34
I4
sg35
I3
sg36
Nsg37
Nsg38
S'PSP'
p1839
sg40
g1826
sg41
I00
sba(issf_api
Word
p1840
(dp1841
g6
I00
sg7
V\u0915\u0939\u093e
p1842
sg9
(issf_api
FeatureSet
p1843
(dp1844
g12
(dp1845
S'posn'
p1846
S'160'
p1847
sS'name'
p1848
S'\xe0\xa4\x95\xe0\xa4\xb9\xe0\xa4\xbe'
p1849
sS'af'
p1850
S'\xe0\xa4\x95\xe0\xa4\xb9,v,m,sg,any,,\xe0\xa4\xaf\xe0\xa4\xbe,yA'
p1851
sS'chunkid'
p1852
S'VGF'
p1853
sS'chunktype'
p1854
S'head:VGF'
p1855
sS'voicetype'
p1856
S'active'
p1857
sS'stype'
p1858
S'declarative'
p1859
ssbsg30
I00
sg31
I00
sg32
Nsg33
Nsg34
I5
sg35
I3
sg36
Nsg37
Nsg38
S'VM'
p1860
sg40
g1843
sg41
I00
sba(issf_api
Word
p1861
(dp1862
g6
I00
sg7
V\u0915\u093f
p1863
sg9
(issf_api
FeatureSet
p1864
(dp1865
g12
(dp1866
S'posn'
p1867
S'170'
p1868
sS'name'
p1869
S'\xe0\xa4\x95\xe0\xa4\xbf'
p1870
sS'af'
p1871
S'\xe0\xa4\x95\xe0\xa4\xbf,avy,,,,,,'
p1872
sS'chunkid'
p1873
S'CCP'
p1874
sS'drel'
p1875
S'k2:VGF'
p1876
sS'chunktype'
p1877
S'head:CCP'
p1878
ssbsg30
I00
sg31
I00
sg32
Nsg33
Nsg34
I6
sg35
I3
sg36
Nsg37
Nsg38
S'CC'
p1879
sg40
g1864
sg41
I00
sba(issf_api
Word
p1880
(dp1881
g6
I00
sg7
V\u0932\u093e\u092d
p1882
sg9
(issf_api
FeatureSet
p1883
(dp1884
g12
(dp1885
S'posn'
p1886
S'180'
p1887
sS'name'
p1888
S'\xe0\xa4\xb2\xe0\xa4\xbe\xe0\xa4\xad2'
p1889
sS'drel'
p1890
S'pof__cn:NP6'
p1891
sS'chunktype'
p1892
S'child:NP6'
p1893
sS'af'
p1894
S'\xe0\xa4\xb2\xe0\xa4\xbe\xe0\xa4\xad,n,m,sg,3,o,0,0'
p1895
ssbsg30
I00
sg31
I00
sg32
Nsg33
Nsg34
I7
sg35
I3
sg36
Nsg37
Nsg38
S'NNC'
p1896
sg40
g1883
sg41
I00
sba(issf_api
Word
p1897
(dp1898
g6
I00
sg7
V\u0915\u0947
p1899
sg9
(issf_api
FeatureSet
p1900
(dp1901
g12
(dp1902
S'posn'
p1903
S'190'
p1904
sS'name'
p1905
S'\xe0\xa4\x95\xe0\xa5\x873'
p1906
sS'drel'
p1907
S'pof__cn:NP6'
p1908
sS'chunktype'
p1909
S'child:NP6'
p1910
sS'af'
p1911
S'\xe0\xa4\x95\xe0\xa4\xbe,psp,m,sg,,o,,'
p1912
ssbsg30
I00
sg31
I00
sg32
Nsg33
Nsg34
I7
sg35
I3
sg36
Nsg37
Nsg38
S'NNC'
p1913
sg40
g1900
sg41
I00
sba(issf_api
Word
p1914
(dp1915
g6
I00
sg7
V\u092a\u0926
p1916
sg9
(issf_api
FeatureSet
p1917
(dp1918
g12
(dp1919
S'posn'
p1920
S'200'
p1921
sS'name'
p1922
S'\xe0\xa4\xaa\xe0\xa4\xa62'
p1923
sS'af'
p1924
S'\xe0\xa4\xaa\xe0\xa4\xa6,n,m,sg,3,o,0_\xe0\xa4\x95\xe0\xa4\xbe,0'
p1925
sS'chunkid'
p1926
S'NP6'
p1927
sS'drel'
p1928
S'r6:NP7'
p1929
sS'vpos'
p1930
S'vib_4'
p1931
sS'chunktype'
p1932
S'head:NP6'
p1933
ssbsg30
I00
sg31
I00
sg32
Nsg33
Nsg34
I7
sg35
I3
sg36
Nsg37
Nsg38
S'NN'
p1934
sg40
g1917
sg41
I00
sba(issf_api
Word
p1935
(dp1936
g6
I00
sg7
V\u0915\u0940
p1937
sg9
(issf_api
FeatureSet
p1938
(dp1939
g12
(dp1940
S'posn'
p1941
S'210'
p1942
sS'name'
p1943
S'\xe0\xa4\x95\xe0\xa5\x80'
p1944
sS'drel'
p1945
S'lwg__psp:NP6'
p1946
sS'chunktype'
p1947
S'child:NP6'
p1948
sS'af'
p1949
S'\xe0\xa4\x95\xe0\xa4\xbe,psp,f,sg,,o,,'
p1950
ssbsg30
I00
sg31
I00
sg32
Nsg33
Nsg34
I7
sg35
I3
sg36
Nsg37
Nsg38
S'PSP'
p1951
sg40
g1938
sg41
I00
sba(issf_api
Word
p1952
(dp1953
g6
I00
sg7
V\u0938\u094d\u092a\u0937\u094d\u091f
p1954
sg9
(issf_api
FeatureSet
p1955
(dp1956
g12
(dp1957
S'posn'
p1958
S'220'
p1959
sS'name'
p1960
S'\xe0\xa4\xb8\xe0\xa5\x8d\xe0\xa4\xaa\xe0\xa4\xb7\xe0\xa5\x8d\xe0\xa4\x9f'
p1961
sS'drel'
p1962
S'nmod__adj:NP7'
p1963
sS'chunktype'
p1964
S'child:NP7'
p1965
sS'af'
p1966
S'\xe0\xa4\xb8\xe0\xa5\x8d\xe0\xa4\xaa\xe0\xa4\xb7\xe0\xa5\x8d\xe0\xa4\x9f,adj,any,any,,o,,'
p1967
ssbsg30
I00
sg31
I00
sg32
Nsg33
Nsg34
I8
sg35
I3
sg36
Nsg37
Nsg38
S'JJ'
p1968
sg40
g1955
sg41
I00
sba(issf_api
Word
p1969
(dp1970
g6
I00
sg7
V\u0935\u094d\u092f\u093e\u0916\u094d\u092f\u093e
p1971
sg9
(issf_api
FeatureSet
p1972
(dp1973
g12
(dp1974
S'posn'
p1975
S'230'
p1976
sS'name'
p1977
S'\xe0\xa4\xb5\xe0\xa5\x8d\xe0\xa4\xaf\xe0\xa4\xbe\xe0\xa4\x96\xe0\xa5\x8d\xe0\xa4\xaf\xe0\xa4\xbe'
p1978
sS'af'
p1979
S'\xe0\xa4\xb5\xe0\xa5\x8d\xe0\xa4\xaf\xe0\xa4\xbe\xe0\xa4\x96\xe0\xa5\x8d\xe0\xa4\xaf\xe0\xa4\xbe,n,f,sg,3,o,0_\xe0\xa4\xb8\xe0\xa5\x87,0'
p1980
sS'chunkid'
p1981
S'NP7'
p1982
sS'drel'
p1983
S'rh:VGF2'
p1984
sS'vpos'
p1985
S'vib_3_RP'
p1986
sS'chunktype'
p1987
S'head:NP7'
p1988
ssbsg30
I00
sg31
I00
sg32
Nsg33
Nsg34
I8
sg35
I3
sg36
Nsg37
Nsg38
S'NN'
p1989
sg40
g1972
sg41
I00
sba(issf_api
Word
p1990
(dp1991
g6
I00
sg7
V\u0938\u0947
p1992
sg9
(issf_api
FeatureSet
p1993
(dp1994
g12
(dp1995
S'posn'
p1996
S'240'
p1997
sS'name'
p1998
S'\xe0\xa4\xb8\xe0\xa5\x87'
p1999
sS'drel'
p2000
S'lwg__psp:NP7'
p2001
sS'chunktype'
p2002
S'child:NP7'
p2003
sS'af'
p2004
S'\xe0\xa4\xb8\xe0\xa5\x87,psp,,,,,,'
p2005
ssbsg30
I00
sg31
I00
sg32
Nsg33
Nsg34
I8
sg35
I3
sg36
Nsg37
Nsg38
S'PSP'
p2006
sg40
g1993
sg41
I00
sba(issf_api
Word
p2007
(dp2008
g6
I00
sg7
V\u0939\u0940
p2009
sg9
(issf_api
FeatureSet
p2010
(dp2011
g12
(dp2012
S'posn'
p2013
S'250'
p2014
sS'name'
p2015
S'\xe0\xa4\xb9\xe0\xa5\x80'
p2016
sS'drel'
p2017
S'lwg__rp:NP7'
p2018
sS'chunktype'
p2019
S'child:NP7'
p2020
sS'af'
p2021
S'\xe0\xa4\xb9\xe0\xa5\x80,avy,,,,,,'
p2022
ssbsg30
I00
sg31
I00
sg32
Nsg33
Nsg34
I8
sg35
I3
sg36
Nsg37
Nsg38
S'RP'
p2023
sg40
g2010
sg41
I00
sba(issf_api
Word
p2024
(dp2025
g6
I00
sg7
V\u0907\u0938
p2026
sg9
(issf_api
FeatureSet
p2027
(dp2028
g12
(dp2029
S'posn'
p2030
S'260'
p2031
sS'name'
p2032
S'\xe0\xa4\x87\xe0\xa4\xb8'
p2033
sS'drel'
p2034
S'nmod__adj:NP8'
p2035
sS'chunktype'
p2036
S'child:NP8'
p2037
sS'af'
p2038
S'\xe0\xa4\xaf\xe0\xa4\xb9,pn,any,sg,3,o,,'
p2039
ssbsg30
I00
sg31
I00
sg32
Nsg33
Nsg34
I9
sg35
I3
sg36
Nsg37
Nsg38
S'DEM'
p2040
sg40
g2027
sg41
I00
sba(issf_api
Word
p2041
(dp2042
g6
I00
sg7
V\u092e\u0941\u0926\u094d\u0926\u0947
p2043
sg9
(issf_api
FeatureSet
p2044
(dp2045
g12
(dp2046
S'posn'
p2047
S'270'
p2048
sS'name'
p2049
S'\xe0\xa4\xae\xe0\xa5\x81\xe0\xa4\xa6\xe0\xa5\x8d\xe0\xa4\xa6\xe0\xa5\x87'
p2050
sS'af'
p2051
S'\xe0\xa4\xae\xe0\xa5\x81\xe0\xa4\xa6\xe0\xa5\x8d\xe0\xa4\xa6\xe0\xa4\xbe,n,m,sg,3,o,0_\xe0\xa4\xaa\xe0\xa4\xb0,0'
p2052
sS'chunkid'
p2053
S'NP8'
p2054
sS'drel'
p2055
S'jjmod:JJP'
p2056
sS'vpos'
p2057
S'vib_3'
p2058
sS'chunktype'
p2059
S'head:NP8'
p2060
ssbsg30
I00
sg31
I00
sg32
Nsg33
Nsg34
I9
sg35
I3
sg36
Nsg37
Nsg38
S'NN'
p2061
sg40
g2044
sg41
I00
sba(issf_api
Word
p2062
(dp2063
g6
I00
sg7
V\u092a\u0930
p2064
sg9
(issf_api
FeatureSet
p2065
(dp2066
g12
(dp2067
S'posn'
p2068
S'280'
p2069
sS'name'
p2070
S'\xe0\xa4\xaa\xe0\xa4\xb02'
p2071
sS'drel'
p2072
S'lwg__psp:NP8'
p2073
sS'chunktype'
p2074
S'child:NP8'
p2075
sS'af'
p2076
S'\xe0\xa4\xaa\xe0\xa4\xb0,psp,,,,,,'
p2077
ssbsg30
I00
sg31
I00
sg32
Nsg33
Nsg34
I9
sg35
I3
sg36
Nsg37
Nsg38
S'PSP'
p2078
sg40
g2065
sg41
I00
sba(issf_api
Word
p2079
(dp2080
g6
I00
sg7
V\u091c\u093e\u0930\u0940
p2081
sg9
(issf_api
FeatureSet
p2082
(dp2083
g12
(dp2084
S'posn'
p2085
S'290'
p2086
sS'name'
p2087
S'\xe0\xa4\x9c\xe0\xa4\xbe\xe0\xa4\xb0\xe0\xa5\x80'
p2088
sS'af'
p2089
S'\xe0\xa4\x9c\xe0\xa4\xbe\xe0\xa4\xb0\xe0\xa5\x80,adj,any,any,,o,,'
p2090
sS'chunkid'
p2091
S'JJP'
p2092
sS'drel'
p2093
S'nmod:NP9'
p2094
sS'chunktype'
p2095
S'head:JJP'
p2096
ssbsg30
I00
sg31
I00
sg32
Nsg33
Nsg34
I10
sg35
I3
sg36
Nsg37
Nsg38
S'JJ'
p2097
sg40
g2082
sg41
I00
sba(issf_api
Word
p2098
(dp2099
g6
I00
sg7
V\u0938\u0902\u0936\u092f
p2100
sg9
(issf_api
FeatureSet
p2101
(dp2102
g12
(dp2103
S'posn'
p2104
S'300'
p2105
sS'name'
p2106
S'\xe0\xa4\xb8\xe0\xa4\x82\xe0\xa4\xb6\xe0\xa4\xaf'
p2107
sS'af'
p2108
S'\xe0\xa4\xb8\xe0\xa4\x82\xe0\xa4\xb6\xe0\xa4\xaf,n,m,sg,3,o,0_\xe0\xa4\x95\xe0\xa4\xbe,0'
p2109
sS'chunkid'
p2110
S'NP9'
p2111
sS'drel'
p2112
S'r6:NP10'
p2113
sS'vpos'
p2114
S'vib_2'
p2115
sS'chunktype'
p2116
S'head:NP9'
p2117
ssbsg30
I00
sg31
I00
sg32
Nsg33
Nsg34
I11
sg35
I3
sg36
Nsg37
Nsg38
S'NN'
p2118
sg40
g2101
sg41
I00
sba(issf_api
Word
p2119
(dp2120
g6
I00
sg7
V\u0915\u0940
p2121
sg9
(issf_api
FeatureSet
p2122
(dp2123
g12
(dp2124
S'posn'
p2125
S'310'
p2126
sS'name'
p2127
S'\xe0\xa4\x95\xe0\xa5\x802'
p2128
sS'drel'
p2129
S'lwg__psp:NP9'
p2130
sS'chunktype'
p2131
S'child:NP9'
p2132
sS'af'
p2133
S'\xe0\xa4\x95\xe0\xa4\xbe,psp,f,sg,,d,,'
p2134
ssbsg30
I00
sg31
I00
sg32
Nsg33
Nsg34
I11
sg35
I3
sg36
Nsg37
Nsg38
S'PSP'
p2135
sg40
g2122
sg41
I00
sba(issf_api
Word
p2136
(dp2137
g6
I00
sg7
V\u0938\u094d\u0925\u093f\u0924\u093f
p2138
sg9
(issf_api
FeatureSet
p2139
(dp2140
g12
(dp2141
S'posn'
p2142
S'320'
p2143
sS'name'
p2144
S'\xe0\xa4\xb8\xe0\xa5\x8d\xe0\xa4\xa5\xe0\xa4\xbf\xe0\xa4\xa4\xe0\xa4\xbf'
p2145
sS'af'
p2146
S'\xe0\xa4\xb8\xe0\xa5\x8d\xe0\xa4\xa5\xe0\xa4\xbf\xe0\xa4\xa4\xe0\xa4\xbf,n,f,sg,3,d,0,0'
p2147
sS'chunkid'
p2148
S'NP10'
p2149
sS'drel'
p2150
S'k1:VGF2'
p2151
sS'chunktype'
p2152
S'head:NP10'
p2153
ssbsg30
I00
sg31
I00
sg32
Nsg33
Nsg34
I12
sg35
I3
sg36
Nsg37
Nsg38
S'NN'
p2154
sg40
g2139
sg41
I00
sba(issf_api
Word
p2155
(dp2156
g6
I00
sg7
V\u0916\u0924\u094d\u092e
p2157
sg9
(issf_api
FeatureSet
p2158
(dp2159
g12
(dp2160
S'posn'
p2161
S'330'
p2162
sS'name'
p2163
S'\xe0\xa4\x96\xe0\xa4\xa4\xe0\xa5\x8d\xe0\xa4\xae'
p2164
sS'af'
p2165
S'\xe0\xa4\x96\xe0\xa4\xa4\xe0\xa5\x8d\xe0\xa4\xae,adj,any,any,,,,'
p2166
sS'chunkid'
p2167
S'JJP2'
p2168
sS'drel'
p2169
S'pof:VGF2'
p2170
sS'chunktype'
p2171
S'head:JJP2'
p2172
ssbsg30
I00
sg31
I00
sg32
Nsg33
Nsg34
I13
sg35
I3
sg36
Nsg37
Nsg38
S'JJ'
p2173
sg40
g2158
sg41
I00
sba(issf_api
Word
p2174
(dp2175
g6
I00
sg7
V\u0939\u094b
p2176
sg9
(issf_api
FeatureSet
p2177
(dp2178
g12
(dp2179
S'posn'
p2180
S'340'
p2181
sS'name'
p2182
S'\xe0\xa4\xb9\xe0\xa5\x8b'
p2183
sS'af'
p2184
S'\xe0\xa4\xb9\xe0\xa5\x8b,v,any,sg,3,,0_\xe0\xa4\xb8\xe0\xa4\x95+\xe0\xa4\x97\xe0\xa4\xbe,0'
p2185
sS'chunkid'
p2186
S'VGF2'
p2187
sS'stype'
p2188
S'declarative'
p2189
sS'drel'
p2190
S'ccof:CCP'
p2191
sS'voicetype'
p2192
S'active'
p2193
sS'vpos'
p2194
S'tam_2'
p2195
sS'chunktype'
p2196
S'head:VGF2'
p2197
ssbsg30
I00
sg31
I00
sg32
Nsg33
Nsg34
I14
sg35
I3
sg36
Nsg37
Nsg38
S'VM'
p2198
sg40
g2177
sg41
I00
sba(issf_api
Word
p2199
(dp2200
g6
I00
sg7
V\u0938\u0915\u0947\u0917\u0940
p2201
sg9
(issf_api
FeatureSet
p2202
(dp2203
g12
(dp2204
S'posn'
p2205
S'350'
p2206
sS'name'
p2207
S'\xe0\xa4\xb8\xe0\xa4\x95\xe0\xa5\x87\xe0\xa4\x97\xe0\xa5\x80'
p2208
sS'drel'
p2209
S'lwg__vaux:VGF2'
p2210
sS'chunktype'
p2211
S'child:VGF2'
p2212
sS'af'
p2213
S'\xe0\xa4\xb8\xe0\xa4\x95,v,f,sg,3,,\xe0\xa4\x97\xe0\xa4\xbe,gA'
p2214
ssbsg30
I00
sg31
I00
sg32
Nsg33
Nsg34
I14
sg35
I3
sg36
Nsg37
Nsg38
S'VAUX'
p2215
sg40
g2202
sg41
I00
sba(issf_api
Word
p2216
(dp2217
g6
I00
sg7
V\u0964
p2218
sg9
(issf_api
FeatureSet
p2219
(dp2220
g12
(dp2221
S'posn'
p2222
S'360'
p2223
sS'name'
p2224
S'\xe0\xa5\xa4'
p2225
sS'af'
p2226
S'\xe0\xa5\xa4,punc,,,,,,'
p2227
sS'chunkid'
p2228
S'BLK'
p2229
sS'drel'
p2230
S'rsym:VGF'
p2231
sS'chunktype'
p2232
S'head:BLK'
p2233
ssbsg30
I00
sg31
I00
sg32
Nsg33
Nsg34
I15
sg35
I3
sg36
Nsg37
Nsg38
S'SYM'
p2234
sg40
g2219
sg41
I00
sba(issf_api
Word
p2235
(dp2236
g6
I00
sg7
V\u0909\u0928\u094d\u0939\u094b\u0902\u0928\u0947
p2237
sg9
(issf_api
FeatureSet
p2238
(dp2239
g12
(dp2240
S'crefhead'
p2241
S'\xe0\xa4\x89\xe0\xa4\xa8\xe0\xa5\x8d\xe0\xa4\xb9\xe0\xa5\x8b\xe0\xa4\x82\xe0\xa4\xa8\xe0\xa5\x87:i17'
p2242
sS'posn'
p2243
S'10'
p2244
sS'name'
p2245
S'\xe0\xa4\x89\xe0\xa4\xa8\xe0\xa5\x8d\xe0\xa4\xb9\xe0\xa5\x8b\xe0\xa4\x82\xe0\xa4\xa8\xe0\xa5\x87'
p2246
sS'af'
p2247
S'\xe0\xa4\xb5\xe0\xa4\xb9,pn,any,sg,3h,o,\xe0\xa4\xa8\xe0\xa5\x87,ne'
p2248
sS'chunkid'
p2249
S'NP'
p2250
sS'creftype'
p2251
S'Anaphora-C:i16'
p2252
sS'chunktype'
p2253
S'head:NP'
p2254
sS'cref'
p2255
S'i17%1:t1'
p2256
sS'drel'
p2257
S'k1:VGF'
p2258
ssbsg30
I00
sg31
I00
sg32
Nsg33
Nsg34
I0
sg35
I4
sg36
Nsg37
Nsg38
S'PRP'
p2259
sg40
g2238
sg41
I00
sba(issf_api
Word
p2260
(dp2261
g6
I00
sg7
V\u0915\u0939\u093e
p2262
sg9
(issf_api
FeatureSet
p2263
(dp2264
g12
(dp2265
S'posn'
p2266
S'20'
p2267
sS'name'
p2268
S'\xe0\xa4\x95\xe0\xa4\xb9\xe0\xa4\xbe'
p2269
sS'af'
p2270
S'\xe0\xa4\x95\xe0\xa4\xb9,v,m,sg,any,,\xe0\xa4\xaf\xe0\xa4\xbe,yA'
p2271
sS'chunkid'
p2272
S'VGF'
p2273
sS'chunktype'
p2274
S'head:VGF'
p2275
sS'voicetype'
p2276
S'active'
p2277
sS'stype'
p2278
S'declarative'
p2279
ssbsg30
I00
sg31
I00
sg32
Nsg33
Nsg34
I1
sg35
I4
sg36
Nsg37
Nsg38
S'VM'
p2280
sg40
g2263
sg41
I00
sba(issf_api
Word
p2281
(dp2282
g6
I00
sg7
V\u0915\u093f
p2283
sg9
(issf_api
FeatureSet
p2284
(dp2285
g12
(dp2286
S'posn'
p2287
S'30'
p2288
sS'name'
p2289
S'\xe0\xa4\x95\xe0\xa4\xbf'
p2290
sS'af'
p2291
S'\xe0\xa4\x95\xe0\xa4\xbf,avy,,,,,,'
p2292
sS'chunkid'
p2293
S'CCP'
p2294
sS'drel'
p2295
S'k2:VGF'
p2296
sS'chunktype'
p2297
S'head:CCP'
p2298
ssbsg30
I00
sg31
I00
sg32
Nsg33
Nsg34
I2
sg35
I4
sg36
Nsg37
Nsg38
S'CC'
p2299
sg40
g2284
sg41
I00
sba(issf_api
Word
p2300
(dp2301
g6
I00
sg7
V\u091a\u0941\u0928\u093e\u0935
p2302
sg9
(issf_api
FeatureSet
p2303
(dp2304
g12
(dp2305
S'posn'
p2306
S'40'
p2307
sS'name'
p2308
S'\xe0\xa4\x9a\xe0\xa5\x81\xe0\xa4\xa8\xe0\xa4\xbe\xe0\xa4\xb5'
p2309
sS'drel'
p2310
S'pof__cn:NP2'
p2311
sS'chunktype'
p2312
S'child:NP2'
p2313
sS'af'
p2314
S'\xe0\xa4\x9a\xe0\xa5\x81\xe0\xa4\xa8\xe0\xa4\xbe\xe0\xa4\xb5,n,m,sg,3,d,0,0'
p2315
ssbsg30
I00
sg31
I00
sg32
Nsg33
Nsg34
I3
sg35
I4
sg36
Nsg37
Nsg38
S'NNC'
p2316
sg40
g2303
sg41
I00
sba(issf_api
Word
p2317
(dp2318
g6
I00
sg7
V\u0906\u092f\u094b\u0917
p2319
sg9
(issf_api
FeatureSet
p2320
(dp2321
g12
(dp2322
S'posn'
p2323
S'50'
p2324
sS'name'
p2325
S'\xe0\xa4\x86\xe0\xa4\xaf\xe0\xa5\x8b\xe0\xa4\x97'
p2326
sS'af'
p2327
S'\xe0\xa4\x86\xe0\xa4\xaf\xe0\xa5\x8b\xe0\xa4\x97,n,m,sg,3,o,0_\xe0\xa4\xaa\xe0\xa4\xb0,0'
p2328
sS'chunkid'
p2329
S'NP2'
p2330
sS'drel'
p2331
S'k7:VGNN'
p2332
sS'vpos'
p2333
S'vib_3'
p2334
sS'chunktype'
p2335
S'head:NP2'
p2336
ssbsg30
I00
sg31
I00
sg32
Nsg33
Nsg34
I3
sg35
I4
sg36
Nsg37
Nsg38
S'NN'
p2337
sg40
g2320
sg41
I00
sba(issf_api
Word
p2338
(dp2339
g6
I00
sg7
V\u092a\u0930
p2340
sg9
(issf_api
FeatureSet
p2341
(dp2342
g12
(dp2343
S'posn'
p2344
S'60'
p2345
sS'name'
p2346
S'\xe0\xa4\xaa\xe0\xa4\xb0'
p2347
sS'drel'
p2348
S'lwg__psp:NP2'
p2349
sS'chunktype'
p2350
S'child:NP2'
p2351
sS'af'
p2352
S'\xe0\xa4\xaa\xe0\xa4\xb0,psp,,,,,,'
p2353
ssbsg30
I00
sg31
I00
sg32
Nsg33
Nsg34
I3
sg35
I4
sg36
Nsg37
Nsg38
S'PSP'
p2354
sg40
g2341
sg41
I00
sba(issf_api
Word
p2355
(dp2356
g6
I00
sg7
V\u0909\u0902\u0917\u0932\u0940
p2357
sg9
(issf_api
FeatureSet
p2358
(dp2359
g12
(dp2360
S'posn'
p2361
S'70'
p2362
sS'name'
p2363
S'\xe0\xa4\x89\xe0\xa4\x82\xe0\xa4\x97\xe0\xa4\xb2\xe0\xa5\x80'
p2364
sS'af'
p2365
S'\xe0\xa4\x89\xe0\xa4\x82\xe0\xa4\x97\xe0\xa4\xb2\xe0\xa5\x80,n,f,sg,3,d,0,0'
p2366
sS'chunkid'
p2367
S'NP3'
p2368
sS'drel'
p2369
S'pof:VGNN'
p2370
sS'chunktype'
p2371
S'head:NP3'
p2372
ssbsg30
I00
sg31
I00
sg32
Nsg33
Nsg34
I4
sg35
I4
sg36
Nsg37
Nsg38
S'NN'
p2373
sg40
g2358
sg41
I00
sba(issf_api
Word
p2374
(dp2375
g6
I00
sg7
V\u0909\u0920\u093e\u0928\u0947
p2376
sg9
(issf_api
FeatureSet
p2377
(dp2378
g12
(dp2379
S'posn'
p2380
S'80'
p2381
sS'name'
p2382
S'\xe0\xa4\x89\xe0\xa4\xa0\xe0\xa4\xbe\xe0\xa4\xa8\xe0\xa5\x87'
p2383
sS'af'
p2384
S'\xe0\xa4\x89\xe0\xa4\xa0\xe0\xa4\xbe,v,any,any,any,o,\xe0\xa4\xa8\xe0\xa4\xbe_\xe0\xa4\x95\xe0\xa5\x87_\xe0\xa4\xac\xe0\xa4\x9c\xe0\xa4\xbe\xe0\xa4\x8f,nA'
p2385
sS'chunkid'
p2386
S'VGNN'
p2387
sS'drel'
p2388
S'ras-NEG:VGF2'
p2389
sS'vpos'
p2390
S'tam_2_3'
p2391
sS'chunktype'
p2392
S'head:VGNN'
p2393
ssbsg30
I00
sg31
I00
sg32
Nsg33
Nsg34
I5
sg35
I4
sg36
Nsg37
Nsg38
S'VM'
p2394
sg40
g2377
sg41
I00
sba(issf_api
Word
p2395
(dp2396
g6
I00
sg7
V\u0915\u0947
p2397
sg9
(issf_api
FeatureSet
p2398
(dp2399
g12
(dp2400
S'posn'
p2401
S'90'
p2402
sS'name'
p2403
S'\xe0\xa4\x95\xe0\xa5\x87'
p2404
sS'drel'
p2405
S'lwg__psp:VGNN'
p2406
sS'chunktype'
p2407
S'child:VGNN'
p2408
sS'af'
p2409
S'\xe0\xa4\x95\xe0\xa5\x87,psp,,,,,,'
p2410
ssbsg30
I00
sg31
I00
sg32
Nsg33
Nsg34
I5
sg35
I4
sg36
Nsg37
Nsg38
S'PSP'
p2411
sg40
g2398
sg41
I00
sba(issf_api
Word
p2412
(dp2413
g6
I00
sg7
V\u092c\u091c\u093e\u090f
p2414
sg9
(issf_api
FeatureSet
p2415
(dp2416
g12
(dp2417
S'posn'
p2418
S'100'
p2419
sS'name'
p2420
S'\xe0\xa4\xac\xe0\xa4\x9c\xe0\xa4\xbe\xe0\xa4\x8f'
p2421
sS'drel'
p2422
S'lwg__psp:VGNN'
p2423
sS'chunktype'
p2424
S'child:VGNN'
p2425
sS'af'
p2426
S'\xe0\xa4\xac\xe0\xa4\x9c\xe0\xa4\xbe\xe0\xa4\x8f,psp,,,,,,'
p2427
ssbsg30
I00
sg31
I00
sg32
Nsg33
Nsg34
I5
sg35
I4
sg36
Nsg37
Nsg38
S'PSP'
p2428
sg40
g2415
sg41
I00
sba(issf_api
Word
p2429
(dp2430
g6
I00
sg7
V\u0938\u0930\u0915\u093e\u0930
p2431
sg9
(issf_api
FeatureSet
p2432
(dp2433
g12
(dp2434
S'crefhead'
p2435
S'\xe0\xa4\xb8\xe0\xa4\xb0\xe0\xa4\x95\xe0\xa4\xbe\xe0\xa4\xb0:i18'
p2436
sS'posn'
p2437
S'110'
p2438
sS'name'
p2439
S'\xe0\xa4\xb8\xe0\xa4\xb0\xe0\xa4\x95\xe0\xa4\xbe\xe0\xa4\xb0'
p2440
sS'af'
p2441
S'\xe0\xa4\xb8\xe0\xa4\xb0\xe0\xa4\x95\xe0\xa4\xbe\xe0\xa4\xb0,n,f,sg,3,o,0_\xe0\xa4\x95\xe0\xa5\x8b,0'
p2442
sS'chunkid'
p2443
S'NP4'
p2444
sS'creftype'
p2445
S'Coreference-Identity:i15'
p2446
sS'chunktype'
p2447
S'head:NP4'
p2448
sS'vpos'
p2449
S'vib_2'
p2450
sS'cref'
p2451
S'i18%1:t5'
p2452
sS'drel'
p2453
S'k1:VGF2'
p2454
ssbsg30
I00
sg31
I00
sg32
Nsg33
Nsg34
I6
sg35
I4
sg36
Nsg37
Nsg38
S'NN'
p2455
sg40
g2432
sg41
I00
sba(issf_api
Word
p2456
(dp2457
g6
I00
sg7
V\u0915\u094b
p2458
sg9
(issf_api
FeatureSet
p2459
(dp2460
g12
(dp2461
S'posn'
p2462
S'120'
p2463
sS'name'
p2464
S'\xe0\xa4\x95\xe0\xa5\x8b'
p2465
sS'drel'
p2466
S'lwg__psp:NP4'
p2467
sS'chunktype'
p2468
S'child:NP4'
p2469
sS'af'
p2470
S'\xe0\xa4\x95\xe0\xa5\x8b,psp,,,,,,'
p2471
ssbsg30
I00
sg31
I00
sg32
Nsg33
Nsg34
I6
sg35
I4
sg36
Nsg37
Nsg38
S'PSP'
p2472
sg40
g2459
sg41
I00
sba(issf_api
Word
p2473
(dp2474
g6
I00
sg7
V\u0907\u0938
p2475
sg9
(issf_api
FeatureSet
p2476
(dp2477
g12
(dp2478
S'posn'
p2479
S'130'
p2480
sS'name'
p2481
S'\xe0\xa4\x87\xe0\xa4\xb8'
p2482
sS'drel'
p2483
S'nmod__adj:NP5'
p2484
sS'chunktype'
p2485
S'child:NP5'
p2486
sS'af'
p2487
S'\xe0\xa4\xaf\xe0\xa4\xb9,pn,any,sg,3,o,,'
p2488
ssbsg30
I00
sg31
I00
sg32
Nsg33
Nsg34
I7
sg35
I4
sg36
Nsg37
Nsg38
S'DEM'
p2489
sg40
g2476
sg41
I00
sba(issf_api
Word
p2490
(dp2491
g6
I00
sg7
V\u092e\u0941\u0926\u094d\u0926\u0947
p2492
sg9
(issf_api
FeatureSet
p2493
(dp2494
g12
(dp2495
S'posn'
p2496
S'140'
p2497
sS'name'
p2498
S'\xe0\xa4\xae\xe0\xa5\x81\xe0\xa4\xa6\xe0\xa5\x8d\xe0\xa4\xa6\xe0\xa5\x87'
p2499
sS'af'
p2500
S'\xe0\xa4\xae\xe0\xa5\x81\xe0\xa4\xa6\xe0\xa5\x8d\xe0\xa4\xa6\xe0\xa4\xbe,n,m,sg,3,o,0_\xe0\xa4\xaa\xe0\xa4\xb0,0'
p2501
sS'chunkid'
p2502
S'NP5'
p2503
sS'drel'
p2504
S'k7:VGF2'
p2505
sS'vpos'
p2506
S'vib_3'
p2507
sS'chunktype'
p2508
S'head:NP5'
p2509
ssbsg30
I00
sg31
I00
sg32
Nsg33
Nsg34
I7
sg35
I4
sg36
Nsg37
Nsg38
S'NN'
p2510
sg40
g2493
sg41
I00
sba(issf_api
Word
p2511
(dp2512
g6
I00
sg7
V\u092a\u0930
p2513
sg9
(issf_api
FeatureSet
p2514
(dp2515
g12
(dp2516
S'posn'
p2517
S'150'
p2518
sS'name'
p2519
S'\xe0\xa4\xaa\xe0\xa4\xb02'
p2520
sS'drel'
p2521
S'lwg__psp:NP5'
p2522
sS'chunktype'
p2523
S'child:NP5'
p2524
sS'af'
p2525
S'\xe0\xa4\xaa\xe0\xa4\xb0,psp,,,,,,'
p2526
ssbsg30
I00
sg31
I00
sg32
Nsg33
Nsg34
I7
sg35
I4
sg36
Nsg37
Nsg38
S'PSP'
p2527
sg40
g2514
sg41
I00
sba(issf_api
Word
p2528
(dp2529
g6
I00
sg7
V\u091a\u0930\u094d\u091a\u093e
p2530
sg9
(issf_api
FeatureSet
p2531
(dp2532
g12
(dp2533
S'posn'
p2534
S'160'
p2535
sS'name'
p2536
S'\xe0\xa4\x9a\xe0\xa4\xb0\xe0\xa5\x8d\xe0\xa4\x9a\xe0\xa4\xbe'
p2537
sS'af'
p2538
S'\xe0\xa4\x9a\xe0\xa4\xb0\xe0\xa5\x8d\xe0\xa4\x9a\xe0\xa4\xbe,n,f,sg,3,o,0_\xe0\xa4\x95\xe0\xa5\x87_\xe0\xa4\xb2\xe0\xa4\xbf\xe0\xa4\x8f,0'
p2539
sS'chunkid'
p2540
S'NP6'
p2541
sS'drel'
p2542
S'rt:VGF2'
p2543
sS'vpos'
p2544
S'vib_2_3'
p2545
sS'chunktype'
p2546
S'head:NP6'
p2547
ssbsg30
I00
sg31
I00
sg32
Nsg33
Nsg34
I8
sg35
I4
sg36
Nsg37
Nsg38
S'NN'
p2548
sg40
g2531
sg41
I00
sba(issf_api
Word
p2549
(dp2550
g6
I00
sg7
V\u0915\u0947
p2551
sg9
(issf_api
FeatureSet
p2552
(dp2553
g12
(dp2554
S'posn'
p2555
S'170'
p2556
sS'name'
p2557
S'\xe0\xa4\x95\xe0\xa5\x872'
p2558
sS'drel'
p2559
S'lwg__psp:NP6'
p2560
sS'chunktype'
p2561
S'child:NP6'
p2562
sS'af'
p2563
S'\xe0\xa4\x95\xe0\xa5\x87,psp,,,,,,'
p2564
ssbsg30
I00
sg31
I00
sg32
Nsg33
Nsg34
I8
sg35
I4
sg36
Nsg37
Nsg38
S'PSP'
p2565
sg40
g2552
sg41
I00
sba(issf_api
Word
p2566
(dp2567
g6
I00
sg7
V\u0932\u093f\u090f
p2568
sg9
(issf_api
FeatureSet
p2569
(dp2570
g12
(dp2571
S'posn'
p2572
S'180'
p2573
sS'name'
p2574
S'\xe0\xa4\xb2\xe0\xa4\xbf\xe0\xa4\x8f'
p2575
sS'drel'
p2576
S'lwg__psp:NP6'
p2577
sS'chunktype'
p2578
S'child:NP6'
p2579
sS'af'
p2580
S'\xe0\xa4\xb2\xe0\xa4\xbf\xe0\xa4\x8f,psp,,,,,,'
p2581
ssbsg30
I00
sg31
I00
sg32
Nsg33
Nsg34
I8
sg35
I4
sg36
Nsg37
Nsg38
S'PSP'
p2582
sg40
g2569
sg41
I00
sba(issf_api
Word
p2583
(dp2584
g6
I00
sg7
V\u0938\u0930\u094d\u0935\u0926\u0932\u0940\u092f
p2585
sg9
(issf_api
FeatureSet
p2586
(dp2587
g12
(dp2588
S'posn'
p2589
S'190'
p2590
sS'name'
p2591
S'\xe0\xa4\xb8\xe0\xa4\xb0\xe0\xa5\x8d\xe0\xa4\xb5\xe0\xa4\xa6\xe0\xa4\xb2\xe0\xa5\x80\xe0\xa4\xaf'
p2592
sS'drel'
p2593
S'nmod__adj:NP7'
p2594
sS'chunktype'
p2595
S'child:NP7'
p2596
sS'af'
p2597
S'\xe0\xa4\xb8\xe0\xa4\xb0\xe0\xa5\x8d\xe0\xa4\xb5\xe0\xa4\xa6\xe0\xa4\xb2\xe0\xa5\x80\xe0\xa4\xaf,adj,any,any,,d,,'
p2598
ssbsg30
I00
sg31
I00
sg32
Nsg33
Nsg34
I9
sg35
I4
sg36
Nsg37
Nsg38
S'JJ'
p2599
sg40
g2586
sg41
I00
sba(issf_api
Word
p2600
(dp2601
g6
I00
sg7
V\u092c\u0948\u0920\u0915
p2602
sg9
(issf_api
FeatureSet
p2603
(dp2604
g12
(dp2605
S'posn'
p2606
S'200'
p2607
sS'name'
p2608
S'\xe0\xa4\xac\xe0\xa5\x88\xe0\xa4\xa0\xe0\xa4\x95'
p2609
sS'af'
p2610
S'\xe0\xa4\xac\xe0\xa5\x88\xe0\xa4\xa0\xe0\xa4\x95,n,f,sg,3,d,0,0'
p2611
sS'chunkid'
p2612
S'NP7'
p2613
sS'drel'
p2614
S'k2:VGF2'
p2615
sS'chunktype'
p2616
S'head:NP7'
p2617
ssbsg30
I00
sg31
I00
sg32
Nsg33
Nsg34
I9
sg35
I4
sg36
Nsg37
Nsg38
S'NN'
p2618
sg40
g2603
sg41
I00
sba(issf_api
Word
p2619
(dp2620
g6
I00
sg7
V\u092c\u0941\u0932\u093e\u0928\u0940
p2621
sg9
(issf_api
FeatureSet
p2622
(dp2623
g12
(dp2624
S'posn'
p2625
S'210'
p2626
sS'name'
p2627
S'\xe0\xa4\xac\xe0\xa5\x81\xe0\xa4\xb2\xe0\xa4\xbe\xe0\xa4\xa8\xe0\xa5\x80'
p2628
sS'af'
p2629
S'\xe0\xa4\xac\xe0\xa5\x81\xe0\xa4\xb2\xe0\xa4\xbe,v,f,any,any,,\xe0\xa4\xa8\xe0\xa4\xbe_\xe0\xa4\x9a\xe0\xa4\xbe\xe0\xa4\xb9\xe0\xa4\xbf\xe0\xa4\x8f,nA'
p2630
sS'chunkid'
p2631
S'VGF2'
p2632
sS'stype'
p2633
S'imperative'
p2634
sS'drel'
p2635
S'ccof:CCP'
p2636
sS'voicetype'
p2637
S'active'
p2638
sS'vpos'
p2639
S'tam_2'
p2640
sS'chunktype'
p2641
S'head:VGF2'
p2642
ssbsg30
I00
sg31
I00
sg32
Nsg33
Nsg34
I10
sg35
I4
sg36
Nsg37
Nsg38
S'VM'
p2643
sg40
g2622
sg41
I00
sba(issf_api
Word
p2644
(dp2645
g6
I00
sg7
V\u091a\u093e\u0939\u093f\u090f
p2646
sg9
(issf_api
FeatureSet
p2647
(dp2648
g12
(dp2649
S'posn'
p2650
S'220'
p2651
sS'name'
p2652
S'\xe0\xa4\x9a\xe0\xa4\xbe\xe0\xa4\xb9\xe0\xa4\xbf\xe0\xa4\x8f'
p2653
sS'drel'
p2654
S'lwg__vaux:VGF2'
p2655
sS'chunktype'
p2656
S'child:VGF2'
p2657
sS'af'
p2658
S'\xe0\xa4\x9a\xe0\xa4\xbe\xe0\xa4\xb9\xe0\xa4\xbf\xe0\xa4\x8f,v,any,any,any,,0,0'
p2659
ssbsg30
I00
sg31
I00
sg32
Nsg33
Nsg34
I10
sg35
I4
sg36
Nsg37
Nsg38
S'VAUX'
p2660
sg40
g2647
sg41
I00
sba(issf_api
Word
p2661
(dp2662
g6
I00
sg7
V\u0964
p2663
sg9
(issf_api
FeatureSet
p2664
(dp2665
g12
(dp2666
S'posn'
p2667
S'230'
p2668
sS'name'
p2669
S'\xe0\xa5\xa4'
p2670
sS'af'
p2671
S'\xe0\xa5\xa4,punc,,,,,,'
p2672
sS'chunkid'
p2673
S'BLK'
p2674
sS'drel'
p2675
S'rsym:VGF'
p2676
sS'chunktype'
p2677
S'head:BLK'
p2678
ssbsg30
I00
sg31
I00
sg32
Nsg33
Nsg34
I11
sg35
I4
sg36
Nsg37
Nsg38
S'SYM'
p2679
sg40
g2664
sg41
I00
sba(issf_api
Word
p2680
(dp2681
g6
I00
sg7
V\u0905\u092a\u0928\u0947
p2682
sg9
(issf_api
FeatureSet
p2683
(dp2684
g12
(dp2685
S'crefhead'
p2686
S'\xe0\xa4\x85\xe0\xa4\xaa\xe0\xa4\xa8\xe0\xa5\x87:i19'
p2687
sS'posn'
p2688
S'10'
p2689
sS'name'
p2690
S'\xe0\xa4\x85\xe0\xa4\xaa\xe0\xa4\xa8\xe0\xa5\x87'
p2691
sS'af'
p2692
S'\xe0\xa4\x85\xe0\xa4\xaa\xe0\xa4\xa8\xe0\xa4\xbe,pn,m,any,any,o,0,0'
p2693
sS'chunkid'
p2694
S'NP'
p2695
sS'creftype'
p2696
S'Anaphora-C:i17'
p2697
sS'chunktype'
p2698
S'head:NP'
p2699
sS'cref'
p2700
S'i19%1:t1'
p2701
sS'drel'
p2702
S'r6:NP2'
p2703
ssbsg30
I00
sg31
I00
sg32
Nsg33
Nsg34
I0
sg35
I5
sg36
Nsg37
Nsg38
S'PRP'
p2704
sg40
g2683
sg41
I00
sba(issf_api
Word
p2705
(dp2706
g6
I00
sg7
V\u092b\u093f\u0932\u094d\u092e\u0940
p2707
sg9
(issf_api
FeatureSet
p2708
(dp2709
g12
(dp2710
S'posn'
p2711
S'20'
p2712
sS'name'
p2713
S'\xe0\xa4\xab\xe0\xa4\xbf\xe0\xa4\xb2\xe0\xa5\x8d\xe0\xa4\xae\xe0\xa5\x80'
p2714
sS'drel'
p2715
S'nmod__adj:NP2'
p2716
sS'chunktype'
p2717
S'child:NP2'
p2718
sS'af'
p2719
S'\xe0\xa4\xab\xe0\xa4\xbf\xe0\xa4\xb2\xe0\xa5\x8d\xe0\xa4\xae\xe0\xa5\x80,adj,any,any,,o,,'
p2720
ssbsg30
I00
sg31
I00
sg32
Nsg33
Nsg34
I1
sg35
I5
sg36
Nsg37
Nsg38
S'JJ'
p2721
sg40
g2708
sg41
I00
sba(issf_api
Word
p2722
(dp2723
g6
I00
sg7
V\u0915\u0948\u0930\u093f\u092f\u0930
p2724
sg9
(issf_api
FeatureSet
p2725
(dp2726
g12
(dp2727
S'posn'
p2728
S'30'
p2729
sS'name'
p2730
S'\xe0\xa4\x95\xe0\xa5\x88\xe0\xa4\xb0\xe0\xa4\xbf\xe0\xa4\xaf\xe0\xa4\xb0'
p2731
sS'af'
p2732
S'\xe0\xa4\x95\xe0\xa5\x88\xe0\xa4\xb0\xe0\xa4\xbf\xe0\xa4\xaf\xe0\xa4\xb0,n,m,sg,3,o,0_\xe0\xa4\x95\xe0\xa4\xbe,0'
p2733
sS'chunkid'
p2734
S'NP2'
p2735
sS'drel'
p2736
S'r6:NP3'
p2737
sS'vpos'
p2738
S'vib_3'
p2739
sS'chunktype'
p2740
S'head:NP2'
p2741
ssbsg30
I00
sg31
I00
sg32
Nsg33
Nsg34
I1
sg35
I5
sg36
Nsg37
Nsg38
S'NN'
p2742
sg40
g2725
sg41
I00
sba(issf_api
Word
p2743
(dp2744
g6
I00
sg7
V\u0915\u0947
p2745
sg9
(issf_api
FeatureSet
p2746
(dp2747
g12
(dp2748
S'posn'
p2749
S'40'
p2750
sS'name'
p2751
S'\xe0\xa4\x95\xe0\xa5\x87'
p2752
sS'drel'
p2753
S'lwg__psp:NP2'
p2754
sS'chunktype'
p2755
S'child:NP2'
p2756
sS'af'
p2757
S'\xe0\xa4\x95\xe0\xa4\xbe,psp,m,sg,,o,,'
p2758
ssbsg30
I00
sg31
I00
sg32
Nsg33
Nsg34
I1
sg35
I5
sg36
Nsg37
Nsg38
S'PSP'
p2759
sg40
g2746
sg41
I00
sba(issf_api
Word
p2760
(dp2761
g6
I00
sg7
V\u0938\u0935\u093e\u0932
p2762
sg9
(issf_api
FeatureSet
p2763
(dp2764
g12
(dp2765
S'posn'
p2766
S'50'
p2767
sS'name'
p2768
S'\xe0\xa4\xb8\xe0\xa4\xb5\xe0\xa4\xbe\xe0\xa4\xb2'
p2769
sS'af'
p2770
S'\xe0\xa4\xb8\xe0\xa4\xb5\xe0\xa4\xbe\xe0\xa4\xb2,n,m,sg,3,o,0_\xe0\xa4\xaa\xe0\xa4\xb0,0'
p2771
sS'chunkid'
p2772
S'NP3'
p2773
sS'drel'
p2774
S'k7:VGF'
p2775
sS'vpos'
p2776
S'vib_2'
p2777
sS'chunktype'
p2778
S'head:NP3'
p2779
ssbsg30
I00
sg31
I00
sg32
Nsg33
Nsg34
I2
sg35
I5
sg36
Nsg37
Nsg38
S'NN'
p2780
sg40
g2763
sg41
I00
sba(issf_api
Word
p2781
(dp2782
g6
I00
sg7
V\u092a\u0930
p2783
sg9
(issf_api
FeatureSet
p2784
(dp2785
g12
(dp2786
S'posn'
p2787
S'60'
p2788
sS'name'
p2789
S'\xe0\xa4\xaa\xe0\xa4\xb0'
p2790
sS'drel'
p2791
S'lwg__psp:NP3'
p2792
sS'chunktype'
p2793
S'child:NP3'
p2794
sS'af'
p2795
S'\xe0\xa4\xaa\xe0\xa4\xb0,psp,,,,,,'
p2796
ssbsg30
I00
sg31
I00
sg32
Nsg33
Nsg34
I2
sg35
I5
sg36
Nsg37
Nsg38
S'PSP'
p2797
sg40
g2784
sg41
I00
sba(issf_api
Word
p2798
(dp2799
g6
I00
sg7
V\u0930\u093e\u091c
p2800
sg9
(issf_api
FeatureSet
p2801
(dp2802
g12
(dp2803
S'posn'
p2804
S'70'
p2805
sS'name'
p2806
S'\xe0\xa4\xb0\xe0\xa4\xbe\xe0\xa4\x9c'
p2807
sS'af'
p2808
S'\xe0\xa4\xb0\xe0\xa4\xbe\xe0\xa4\x9c,n,m,sg,3,d,0,0'
p2809
sS'drel'
p2810
S'pof__cn:NP4'
p2811
sS'chunktype'
p2812
S'child:NP4'
p2813
sS'cref'
p2814
S'i20%0:t1'
p2815
ssbsg30
I00
sg31
I00
sg32
Nsg33
Nsg34
I3
sg35
I5
sg36
Nsg37
Nsg38
S'NNPC'
p2816
sg40
g2801
sg41
I00
sba(issf_api
Word
p2817
(dp2818
g6
I00
sg7
V\u092c\u092c\u094d\u092c\u0930
p2819
sg9
(issf_api
FeatureSet
p2820
(dp2821
g12
(dp2822
S'crefhead'
p2823
S'\xe0\xa4\xac\xe0\xa4\xac\xe0\xa5\x8d\xe0\xa4\xac\xe0\xa4\xb0:i20'
p2824
sS'posn'
p2825
S'80'
p2826
sS'name'
p2827
S'\xe0\xa4\xac\xe0\xa4\xac\xe0\xa5\x8d\xe0\xa4\xac\xe0\xa4\xb0'
p2828
sS'af'
p2829
S'\xe0\xa4\xac\xe0\xa4\xac\xe0\xa5\x8d\xe0\xa4\xac\xe0\xa4\xb0,n,any,sg,3,o,0_\xe0\xa4\xa8\xe0\xa5\x87,0'
p2830
sS'chunkid'
p2831
S'NP4'
p2832
sS'creftype'
p2833
S'Coreference-Identity:i19'
p2834
sS'chunktype'
p2835
S'head:NP4'
p2836
sS'vpos'
p2837
S'vib_3'
p2838
sS'cref'
p2839
S'i20%1:t1'
p2840
sS'drel'
p2841
S'k1:VGF'
p2842
ssbsg30
I00
sg31
I00
sg32
Nsg33
Nsg34
I3
sg35
I5
sg36
Nsg37
Nsg38
S'NNP'
p2843
sg40
g2820
sg41
I00
sba(issf_api
Word
p2844
(dp2845
g6
I00
sg7
V\u0928\u0947
p2846
sg9
(issf_api
FeatureSet
p2847
(dp2848
g12
(dp2849
S'posn'
p2850
S'90'
p2851
sS'name'
p2852
S'\xe0\xa4\xa8\xe0\xa5\x87'
p2853
sS'drel'
p2854
S'lwg__psp:NP4'
p2855
sS'chunktype'
p2856
S'child:NP4'
p2857
sS'af'
p2858
S'\xe0\xa4\xa8\xe0\xa5\x87,psp,,,,,,'
p2859
ssbsg30
I00
sg31
I00
sg32
Nsg33
Nsg34
I3
sg35
I5
sg36
Nsg37
Nsg38
S'PSP'
p2860
sg40
g2847
sg41
I00
sba(issf_api
Word
p2861
(dp2862
g6
I00
sg7
V\u0915\u0939\u093e
p2863
sg9
(issf_api
FeatureSet
p2864
(dp2865
g12
(dp2866
S'posn'
p2867
S'100'
p2868
sS'name'
p2869
S'\xe0\xa4\x95\xe0\xa4\xb9\xe0\xa4\xbe'
p2870
sS'af'
p2871
S'\xe0\xa4\x95\xe0\xa4\xb9,v,m,sg,any,,\xe0\xa4\xaf\xe0\xa4\xbe,yA'
p2872
sS'chunkid'
p2873
S'VGF'
p2874
sS'chunktype'
p2875
S'head:VGF'
p2876
sS'voicetype'
p2877
S'active'
p2878
sS'stype'
p2879
S'declarative'
p2880
ssbsg30
I00
sg31
I00
sg32
Nsg33
Nsg34
I4
sg35
I5
sg36
Nsg37
Nsg38
S'VM'
p2881
sg40
g2864
sg41
I00
sba(issf_api
Word
p2882
(dp2883
g6
I00
sg7
V\u0915\u093f
p2884
sg9
(issf_api
FeatureSet
p2885
(dp2886
g12
(dp2887
S'posn'
p2888
S'110'
p2889
sS'name'
p2890
S'\xe0\xa4\x95\xe0\xa4\xbf'
p2891
sS'af'
p2892
S'\xe0\xa4\x95\xe0\xa4\xbf,avy,,,,,,'
p2893
sS'chunkid'
p2894
S'CCP'
p2895
sS'drel'
p2896
S'k2:VGF'
p2897
sS'chunktype'
p2898
S'head:CCP'
p2899
ssbsg30
I00
sg31
I00
sg32
Nsg33
Nsg34
I5
sg35
I5
sg36
Nsg37
Nsg38
S'CC'
p2900
sg40
g2885
sg41
I00
sba(issf_api
Word
p2901
(dp2902
g6
I00
sg7
V\u091c\u0932\u094d\u0926
p2903
sg9
(issf_api
FeatureSet
p2904
(dp2905
g12
(dp2906
S'posn'
p2907
S'120'
p2908
sS'name'
p2909
S'\xe0\xa4\x9c\xe0\xa4\xb2\xe0\xa5\x8d\xe0\xa4\xa6'
p2910
sS'af'
p2911
S'\xe0\xa4\x9c\xe0\xa4\xb2\xe0\xa5\x8d\xe0\xa4\xa6,adv,,,,,,'
p2912
sS'chunkid'
p2913
S'RBP'
p2914
sS'drel'
p2915
S'adv:NULL__VGF'
p2916
sS'chunktype'
p2917
S'head:RBP'
p2918
ssbsg30
I00
sg31
I00
sg32
Nsg33
Nsg34
I6
sg35
I5
sg36
Nsg37
Nsg38
S'RB'
p2919
sg40
g2904
sg41
I00
sba(issf_api
Word
p2920
(dp2921
g6
I00
sg7
V\u0939\u0940
p2922
sg9
(issf_api
FeatureSet
p2923
(dp2924
g12
(dp2925
S'posn'
p2926
S'130'
p2927
sS'name'
p2928
S'\xe0\xa4\xb9\xe0\xa5\x80'
p2929
sS'drel'
p2930
S'lwg__rp:RBP'
p2931
sS'chunktype'
p2932
S'child:RBP'
p2933
sS'af'
p2934
S'\xe0\xa4\xb9\xe0\xa5\x80,avy,,,,,,'
p2935
ssbsg30
I00
sg31
I00
sg32
Nsg33
Nsg34
I6
sg35
I5
sg36
Nsg37
Nsg38
S'RP'
p2936
sg40
g2923
sg41
I00
sba(issf_api
Word
p2937
(dp2938
g6
I00
sg7
V\u092c\u093f\u092a\u093e\u0936\u093e
p2939
sg9
(issf_api
FeatureSet
p2940
(dp2941
g12
(dp2942
S'posn'
p2943
S'140'
p2944
sS'name'
p2945
S'\xe0\xa4\xac\xe0\xa4\xbf\xe0\xa4\xaa\xe0\xa4\xbe\xe0\xa4\xb6\xe0\xa4\xbe'
p2946
sS'drel'
p2947
S'pof__cn:NP5'
p2948
sS'chunktype'
p2949
S'child:NP5'
p2950
sS'af'
p2951
S'\xe0\xa4\xac\xe0\xa4\xbf\xe0\xa4\xaa\xe0\xa4\xbe\xe0\xa4\xb6\xe0\xa4\xbe,n,f,sg,3,d,0,0'
p2952
ssbsg30
I00
sg31
I00
sg32
Nsg33
Nsg34
I7
sg35
I5
sg36
Nsg37
Nsg38
S'NNPC'
p2953
sg40
g2940
sg41
I00
sba(issf_api
Word
p2954
(dp2955
g6
I00
sg7
V\u092c\u0938\u0941
p2956
sg9
(issf_api
FeatureSet
p2957
(dp2958
g12
(dp2959
S'posn'
p2960
S'150'
p2961
sS'name'
p2962
S'\xe0\xa4\xac\xe0\xa4\xb8\xe0\xa5\x81'
p2963
sS'af'
p2964
S'\xe0\xa4\xac\xe0\xa4\xb8\xe0\xa5\x81,n,any,sg,3,o,0_\xe0\xa4\x95\xe0\xa5\x87_\xe0\xa4\xb8\xe0\xa4\xbe\xe0\xa4\xa5,0'
p2965
sS'chunkid'
p2966
S'NP5'
p2967
sS'drel'
p2968
S'ras-k1:NULL__VGF'
p2969
sS'vpos'
p2970
S'vib_3_4'
p2971
sS'chunktype'
p2972
S'head:NP5'
p2973
ssbsg30
I00
sg31
I00
sg32
Nsg33
Nsg34
I7
sg35
I5
sg36
Nsg37
Nsg38
S'NNP'
p2974
sg40
g2957
sg41
I00
sba(issf_api
Word
p2975
(dp2976
g6
I00
sg7
V\u0915\u0947
p2977
sg9
(issf_api
FeatureSet
p2978
(dp2979
g12
(dp2980
S'posn'
p2981
S'160'
p2982
sS'name'
p2983
S'\xe0\xa4\x95\xe0\xa5\x872'
p2984
sS'drel'
p2985
S'lwg__psp:NP5'
p2986
sS'chunktype'
p2987
S'child:NP5'
p2988
sS'af'
p2989
S'\xe0\xa4\x95\xe0\xa5\x87,psp,,,,,,'
p2990
ssbsg30
I00
sg31
I00
sg32
Nsg33
Nsg34
I7
sg35
I5
sg36
Nsg37
Nsg38
S'PSP'
p2991
sg40
g2978
sg41
I00
sba(issf_api
Word
p2992
(dp2993
g6
I00
sg7
V\u0938\u093e\u0925
p2994
sg9
(issf_api
FeatureSet
p2995
(dp2996
g12
(dp2997
S'posn'
p2998
S'170'
p2999
sS'name'
p3000
S'\xe0\xa4\xb8\xe0\xa4\xbe\xe0\xa4\xa5'
p3001
sS'drel'
p3002
S'lwg__psp:NP5'
p3003
sS'chunktype'
p3004
S'child:NP5'
p3005
sS'af'
p3006
S'\xe0\xa4\xb8\xe0\xa4\xbe\xe0\xa4\xa5,nst,m,sg,3,d,,'
p3007
ssbsg30
I00
sg31
I00
sg32
Nsg33
Nsg34
I7
sg35
I5
sg36
Nsg37
Nsg38
S'NST'
p3008
sg40
g2995
sg41
I00
sba(issf_api
Word
p3009
(dp3010
g6
I00
sg7
V\u0915\u0949\u0930\u092a\u094b\u0930\u0947\u091f
p3011
sg9
(issf_api
FeatureSet
p3012
(dp3013
g12
(dp3014
S'posn'
p3015
S'180'
p3016
sS'name'
p3017
S'\xe0\xa4\x95\xe0\xa5\x89\xe0\xa4\xb0\xe0\xa4\xaa\xe0\xa5\x8b\xe0\xa4\xb0\xe0\xa5\x87\xe0\xa4\x9f'
p3018
sS'af'
p3019
S'\xe0\xa4\x95\xe0\xa5\x89\xe0\xa4\xb0\xe0\xa4\xaa\xe0\xa5\x8b\xe0\xa4\xb0\xe0\xa5\x87\xe0\xa4\x9f,n,m,sg,3,o,0,0'
p3020
sS'chunkid'
p3021
S'NP6'
p3022
sS'drel'
p3023
S'k7:NULL__VGF'
p3024
sS'chunktype'
p3025
S'head:NP6'
p3026
ssbsg30
I00
sg31
I00
sg32
Nsg33
Nsg34
I8
sg35
I5
sg36
Nsg37
Nsg38
S'NN'
p3027
sg40
g3012
sg41
I00
sba(issf_api
Word
p3028
(dp3029
g6
I00
sg7
V\u0914\u0930
p3030
sg9
(issf_api
FeatureSet
p3031
(dp3032
g12
(dp3033
S'posn'
p3034
S'190'
p3035
sS'name'
p3036
S'\xe0\xa4\x94\xe0\xa4\xb0'
p3037
sS'af'
p3038
S'\xe0\xa4\x94\xe0\xa4\xb0,avy,,,,,,'
p3039
sS'chunkid'
p3040
S'CCP2'
p3041
sS'drel'
p3042
S'ccof:CCP'
p3043
sS'chunktype'
p3044
S'head:CCP2'
p3045
ssbsg30
I00
sg31
I00
sg32
Nsg33
Nsg34
I9
sg35
I5
sg36
Nsg37
Nsg38
S'CC'
p3046
sg40
g3031
sg41
I00
sba(issf_api
Word
p3047
(dp3048
g6
I00
sg7
V\u0909\u0930\u094d\u092e\u093f\u0932\u093e
p3049
sg9
(issf_api
FeatureSet
p3050
(dp3051
g12
(dp3052
S'posn'
p3053
S'200'
p3054
sS'name'
p3055
S'\xe0\xa4\x89\xe0\xa4\xb0\xe0\xa5\x8d\xe0\xa4\xae\xe0\xa4\xbf\xe0\xa4\xb2\xe0\xa4\xbe'
p3056
sS'drel'
p3057
S'pof__cn:NP7'
p3058
sS'chunktype'
p3059
S'child:NP7'
p3060
sS'af'
p3061
S'\xe0\xa4\x89\xe0\xa4\xb0\xe0\xa5\x8d\xe0\xa4\xae\xe0\xa4\xbf\xe0\xa4\xb2\xe0\xa4\xbe,n,f,sg,3,d,0,0'
p3062
ssbsg30
I00
sg31
I00
sg32
Nsg33
Nsg34
I10
sg35
I5
sg36
Nsg37
Nsg38
S'NNPC'
p3063
sg40
g3050
sg41
I00
sba(issf_api
Word
p3064
(dp3065
g6
I00
sg7
V\u092e\u093e\u0924\u094b\u0902\u0921\u0915\u0930
p3066
sg9
(issf_api
FeatureSet
p3067
(dp3068
g12
(dp3069
S'posn'
p3070
S'210'
p3071
sS'name'
p3072
S'\xe0\xa4\xae\xe0\xa4\xbe\xe0\xa4\xa4\xe0\xa5\x8b\xe0\xa4\x82\xe0\xa4\xa1\xe0\xa4\x95\xe0\xa4\xb0'
p3073
sS'af'
p3074
S'\xe0\xa4\xae\xe0\xa4\xbe\xe0\xa4\xa4\xe0\xa5\x8b\xe0\xa4\x82\xe0\xa4\xa1\xe0\xa4\x95\xe0\xa4\xb0,n,any,sg,3,o,0_\xe0\xa4\x95\xe0\xa5\x87_\xe0\xa4\xb8\xe0\xa4\xbe\xe0\xa4\xa5,0'
p3075
sS'chunkid'
p3076
S'NP7'
p3077
sS'drel'
p3078
S'ras-k1:VGF2'
p3079
sS'vpos'
p3080
S'vib_3_4'
p3081
sS'chunktype'
p3082
S'head:NP7'
p3083
ssbsg30
I00
sg31
I00
sg32
Nsg33
Nsg34
I10
sg35
I5
sg36
Nsg37
Nsg38
S'NNP'
p3084
sg40
g3067
sg41
I00
sba(issf_api
Word
p3085
(dp3086
g6
I00
sg7
V\u0915\u0947
p3087
sg9
(issf_api
FeatureSet
p3088
(dp3089
g12
(dp3090
S'posn'
p3091
S'220'
p3092
sS'name'
p3093
S'\xe0\xa4\x95\xe0\xa5\x873'
p3094
sS'drel'
p3095
S'lwg__psp:NP7'
p3096
sS'chunktype'
p3097
S'child:NP7'
p3098
sS'af'
p3099
S'\xe0\xa4\x95\xe0\xa5\x87,psp,,,,,,'
p3100
ssbsg30
I00
sg31
I00
sg32
Nsg33
Nsg34
I10
sg35
I5
sg36
Nsg37
Nsg38
S'PSP'
p3101
sg40
g3088
sg41
I00
sba(issf_api
Word
p3102
(dp3103
g6
I00
sg7
V\u0938\u093e\u0925
p3104
sg9
(issf_api
FeatureSet
p3105
(dp3106
g12
(dp3107
S'posn'
p3108
S'230'
p3109
sS'name'
p3110
S'\xe0\xa4\xb8\xe0\xa4\xbe\xe0\xa4\xa52'
p3111
sS'drel'
p3112
S'lwg__psp:NP7'
p3113
sS'chunktype'
p3114
S'child:NP7'
p3115
sS'af'
p3116
S'\xe0\xa4\xb8\xe0\xa4\xbe\xe0\xa4\xa5,nst,m,sg,3,d,,'
p3117
ssbsg30
I00
sg31
I00
sg32
Nsg33
Nsg34
I10
sg35
I5
sg36
Nsg37
Nsg38
S'NST'
p3118
sg40
g3105
sg41
I00
sba(issf_api
Word
p3119
(dp3120
g6
I00
sg7
V\u092c\u0928\u093e\u0930\u0938
p3121
sg9
(issf_api
FeatureSet
p3122
(dp3123
g12
(dp3124
S'posn'
p3125
S'240'
p3126
sS'name'
p3127
S'\xe0\xa4\xac\xe0\xa4\xa8\xe0\xa4\xbe\xe0\xa4\xb0\xe0\xa4\xb8'
p3128
sS'af'
p3129
S'\xe0\xa4\xac\xe0\xa4\xa8\xe0\xa4\xbe\xe0\xa4\xb0\xe0\xa4\xb8,n,m,sg,3,o,0_\xe0\xa4\xae\xe0\xa5\x87\xe0\xa4\x82,0'
p3130
sS'chunkid'
p3131
S'NP8'
p3132
sS'drel'
p3133
S'k7:VGF2'
p3134
sS'vpos'
p3135
S'vib_2'
p3136
sS'chunktype'
p3137
S'head:NP8'
p3138
ssbsg30
I00
sg31
I00
sg32
Nsg33
Nsg34
I11
sg35
I5
sg36
Nsg37
Nsg38
S'NNP'
p3139
sg40
g3122
sg41
I00
sba(issf_api
Word
p3140
(dp3141
g6
I00
sg7
V\u092e\u0947\u0902
p3142
sg9
(issf_api
FeatureSet
p3143
(dp3144
g12
(dp3145
S'posn'
p3146
S'250'
p3147
sS'name'
p3148
S'\xe0\xa4\xae\xe0\xa5\x87\xe0\xa4\x82'
p3149
sS'drel'
p3150
S'lwg__psp:NP8'
p3151
sS'chunktype'
p3152
S'child:NP8'
p3153
sS'af'
p3154
S'\xe0\xa4\xae\xe0\xa5\x87\xe0\xa4\x82,psp,,,,,,'
p3155
ssbsg30
I00
sg31
I00
sg32
Nsg33
Nsg34
I11
sg35
I5
sg36
Nsg37
Nsg38
S'PSP'
p3156
sg40
g3143
sg41
I00
sba(issf_api
Word
p3157
(dp3158
g6
I00
sg7
V\u0935\u0939
p3159
sg9
(issf_api
FeatureSet
p3160
(dp3161
g12
(dp3162
S'crefhead'
p3163
S'\xe0\xa4\xb5\xe0\xa4\xb9:i21'
p3164
sS'posn'
p3165
S'260'
p3166
sS'name'
p3167
S'\xe0\xa4\xb5\xe0\xa4\xb9'
p3168
sS'af'
p3169
S'\xe0\xa4\xb5\xe0\xa4\xb9,pn,any,sg,3,d,0,0'
p3170
sS'chunkid'
p3171
S'NP9'
p3172
sS'creftype'
p3173
S'Anaphora-C:i20'
p3174
sS'chunktype'
p3175
S'head:NP9'
p3176
sS'cref'
p3177
S'i21%1:t1'
p3178
sS'drel'
p3179
S'k1:VGF2'
p3180
ssbsg30
I00
sg31
I00
sg32
Nsg33
Nsg34
I12
sg35
I5
sg36
Nsg37
Nsg38
S'PRP'
p3181
sg40
g3160
sg41
I00
sba(issf_api
Word
p3182
(dp3183
g6
I00
sg7
V\u0930\u0942\u092a\u0939\u0932\u0947
p3184
sg9
(issf_api
FeatureSet
p3185
(dp3186
g12
(dp3187
S'posn'
p3188
S'270'
p3189
sS'name'
p3190
S'\xe0\xa4\xb0\xe0\xa5\x82\xe0\xa4\xaa\xe0\xa4\xb9\xe0\xa4\xb2\xe0\xa5\x87'
p3191
sS'drel'
p3192
S'nmod__adj:NP10'
p3193
sS'chunktype'
p3194
S'child:NP10'
p3195
sS'af'
p3196
S'\xe0\xa4\xb0\xe0\xa5\x82\xe0\xa4\xaa\xe0\xa4\xb9\xe0\xa4\xb2\xe0\xa4\xbe,adj,m,sg,,o,,'
p3197
ssbsg30
I00
sg31
I00
sg32
Nsg33
Nsg34
I13
sg35
I5
sg36
Nsg37
Nsg38
S'JJ'
p3198
sg40
g3185
sg41
I00
sba(issf_api
Word
p3199
(dp3200
g6
I00
sg7
V\u092a\u0930\u094d\u0926\u0947
p3201
sg9
(issf_api
FeatureSet
p3202
(dp3203
g12
(dp3204
S'posn'
p3205
S'280'
p3206
sS'name'
p3207
S'\xe0\xa4\xaa\xe0\xa4\xb0\xe0\xa5\x8d\xe0\xa4\xa6\xe0\xa5\x87'
p3208
sS'af'
p3209
S'\xe0\xa4\xaa\xe0\xa4\xb0\xe0\xa5\x8d\xe0\xa4\xa6\xe0\xa4\xbe,n,m,sg,3,o,0_\xe0\xa4\xaa\xe0\xa4\xb0,0'
p3210
sS'chunkid'
p3211
S'NP10'
p3212
sS'drel'
p3213
S'k7p:VGF2'
p3214
sS'vpos'
p3215
S'vib_3'
p3216
sS'chunktype'
p3217
S'head:NP10'
p3218
ssbsg30
I00
sg31
I00
sg32
Nsg33
Nsg34
I13
sg35
I5
sg36
Nsg37
Nsg38
S'NN'
p3219
sg40
g3202
sg41
I00
sba(issf_api
Word
p3220
(dp3221
g6
I00
sg7
V\u092a\u0930
p3222
sg9
(issf_api
FeatureSet
p3223
(dp3224
g12
(dp3225
S'posn'
p3226
S'290'
p3227
sS'name'
p3228
S'\xe0\xa4\xaa\xe0\xa4\xb02'
p3229
sS'drel'
p3230
S'lwg__psp:NP10'
p3231
sS'chunktype'
p3232
S'child:NP10'
p3233
sS'af'
p3234
S'\xe0\xa4\xaa\xe0\xa4\xb0,psp,,,,,,'
p3235
ssbsg30
I00
sg31
I00
sg32
Nsg33
Nsg34
I13
sg35
I5
sg36
Nsg37
Nsg38
S'PSP'
p3236
sg40
g3223
sg41
I00
sba(issf_api
Word
p3237
(dp3238
g6
I00
sg7
V\u0926\u093f\u0916\u0947\u0902\u0917\u0947
p3239
sg9
(issf_api
FeatureSet
p3240
(dp3241
g12
(dp3242
S'posn'
p3243
S'300'
p3244
sS'name'
p3245
S'\xe0\xa4\xa6\xe0\xa4\xbf\xe0\xa4\x96\xe0\xa5\x87\xe0\xa4\x82\xe0\xa4\x97\xe0\xa5\x87'
p3246
sS'af'
p3247
S'\xe0\xa4\xa6\xe0\xa4\xbf\xe0\xa4\x96,v,m,sg,3h,,\xe0\xa4\x97\xe0\xa4\xbe,gA'
p3248
sS'chunkid'
p3249
S'VGF2'
p3250
sS'stype'
p3251
S'declarative'
p3252
sS'drel'
p3253
S'ccof:CCP2'
p3254
sS'voicetype'
p3255
S'active'
p3256
sS'chunktype'
p3257
S'head:VGF2'
p3258
ssbsg30
I00
sg31
I00
sg32
Nsg33
Nsg34
I14
sg35
I5
sg36
Nsg37
Nsg38
S'VM'
p3259
sg40
g3240
sg41
I00
sba(issf_api
Word
p3260
(dp3261
g6
I00
sg7
V\u0964
p3262
sg9
(issf_api
FeatureSet
p3263
(dp3264
g12
(dp3265
S'posn'
p3266
S'310'
p3267
sS'name'
p3268
S'\xe0\xa5\xa4'
p3269
sS'af'
p3270
S'\xe0\xa5\xa4,punc,,,,,,'
p3271
sS'chunkid'
p3272
S'BLK'
p3273
sS'drel'
p3274
S'rsym:VGF'
p3275
sS'chunktype'
p3276
S'head:BLK'
p3277
ssbsg30
I00
sg31
I00
sg32
Nsg33
Nsg34
I15
sg35
I5
sg36
Nsg37
Nsg38
S'SYM'
p3278
sg40
g3263
sg41
I00
sba(issf_api
Word
p3279
(dp3280
g6
I00
sg7
V\u0909\u0928\u094d\u0939\u094b\u0902\u0928\u0947
p3281
sg9
(issf_api
FeatureSet
p3282
(dp3283
g12
(dp3284
S'crefhead'
p3285
S'\xe0\xa4\x89\xe0\xa4\xa8\xe0\xa5\x8d\xe0\xa4\xb9\xe0\xa5\x8b\xe0\xa4\x82\xe0\xa4\xa8\xe0\xa5\x87:i22'
p3286
sS'posn'
p3287
S'10'
p3288
sS'name'
p3289
S'\xe0\xa4\x89\xe0\xa4\xa8\xe0\xa5\x8d\xe0\xa4\xb9\xe0\xa5\x8b\xe0\xa4\x82\xe0\xa4\xa8\xe0\xa5\x87'
p3290
sS'af'
p3291
S'\xe0\xa4\xb5\xe0\xa4\xb9,pn,any,sg,3h,o,\xe0\xa4\xa8\xe0\xa5\x87,ne'
p3292
sS'chunkid'
p3293
S'NP'
p3294
sS'creftype'
p3295
S'Anaphora-C:i21'
p3296
sS'chunktype'
p3297
S'head:NP'
p3298
sS'cref'
p3299
S'i22%1:t1'
p3300
sS'drel'
p3301
S'k1:VGF'
p3302
ssbsg30
I00
sg31
I00
sg32
Nsg33
Nsg34
I0
sg35
I6
sg36
Nsg37
Nsg38
S'PRP'
p3303
sg40
g3282
sg41
I00
sba(issf_api
Word
p3304
(dp3305
g6
I00
sg7
V\u092f\u0939
p3306
sg9
(issf_api
FeatureSet
p3307
(dp3308
g12
(dp3309
S'crefhead'
p3310
S'\xe0\xa4\xaf\xe0\xa4\xb9:i23'
p3311
sS'posn'
p3312
S'20'
p3313
sS'name'
p3314
S'\xe0\xa4\xaf\xe0\xa4\xb9'
p3315
sS'af'
p3316
S'\xe0\xa4\xaf\xe0\xa4\xb9,pn,any,sg,3,d,0,0'
p3317
sS'chunkid'
p3318
S'NP2'
p3319
sS'drel'
p3320
S'k2:VGF'
p3321
sS'chunktype'
p3322
S'head:NP2'
p3323
sS'cref'
p3324
S'i23%1:t6'
p3325
ssbsg30
I00
sg31
I00
sg32
Nsg33
Nsg34
I1
sg35
I6
sg36
Nsg37
Nsg38
S'PRP'
p3326
sg40
g3307
sg41
I00
sba(issf_api
Word
p3327
(dp3328
g6
I00
sg7
V\u092d\u0940
p3329
sg9
(issf_api
FeatureSet
p3330
(dp3331
g12
(dp3332
S'posn'
p3333
S'30'
p3334
sS'name'
p3335
S'\xe0\xa4\xad\xe0\xa5\x80'
p3336
sS'drel'
p3337
S'lwg__rp:NP2'
p3338
sS'chunktype'
p3339
S'child:NP2'
p3340
sS'af'
p3341
S'\xe0\xa4\xad\xe0\xa5\x80,avy,,,,,,'
p3342
ssbsg30
I00
sg31
I00
sg32
Nsg33
Nsg34
I1
sg35
I6
sg36
Nsg37
Nsg38
S'RP'
p3343
sg40
g3330
sg41
I00
sba(issf_api
Word
p3344
(dp3345
g6
I00
sg7
V\u092c\u0924\u093e\u092f\u093e
p3346
sg9
(issf_api
FeatureSet
p3347
(dp3348
g12
(dp3349
S'posn'
p3350
S'40'
p3351
sS'name'
p3352
S'\xe0\xa4\xac\xe0\xa4\xa4\xe0\xa4\xbe\xe0\xa4\xaf\xe0\xa4\xbe'
p3353
sS'af'
p3354
S'\xe0\xa4\xac\xe0\xa4\xa4\xe0\xa4\xbe,v,m,sg,any,,\xe0\xa4\xaf\xe0\xa4\xbe,yA'
p3355
sS'chunkid'
p3356
S'VGF'
p3357
sS'chunktype'
p3358
S'head:VGF'
p3359
sS'voicetype'
p3360
S'active'
p3361
sS'stype'
p3362
S'declarative'
p3363
ssbsg30
I00
sg31
I00
sg32
Nsg33
Nsg34
I2
sg35
I6
sg36
Nsg37
Nsg38
S'VM'
p3364
sg40
g3347
sg41
I00
sba(issf_api
Word
p3365
(dp3366
g6
I00
sg7
V\u0915\u093f
p3367
sg9
(issf_api
FeatureSet
p3368
(dp3369
g12
(dp3370
S'posn'
p3371
S'50'
p3372
sS'name'
p3373
S'\xe0\xa4\x95\xe0\xa4\xbf'
p3374
sS'af'
p3375
S'\xe0\xa4\x95\xe0\xa4\xbf,avy,,,,,,'
p3376
sS'chunkid'
p3377
S'CCP'
p3378
sS'drel'
p3379
S'rs:NP2'
p3380
sS'chunktype'
p3381
S'head:CCP'
p3382
ssbsg30
I00
sg31
I00
sg32
Nsg33
Nsg34
I3
sg35
I6
sg36
Nsg37
Nsg38
S'CC'
p3383
sg40
g3368
sg41
I00
sba(issf_api
Word
p3384
(dp3385
g6
I00
sg7
V\u092e\u0939\u093e\u0930\u093e\u091c\u093e
p3386
sg9
(issf_api
FeatureSet
p3387
(dp3388
g12
(dp3389
S'posn'
p3390
S'60'
p3391
sS'name'
p3392
S'\xe0\xa4\xae\xe0\xa4\xb9\xe0\xa4\xbe\xe0\xa4\xb0\xe0\xa4\xbe\xe0\xa4\x9c\xe0\xa4\xbe'
p3393
sS'af'
p3394
S'\xe0\xa4\xae\xe0\xa4\xb9\xe0\xa4\xbe\xe0\xa4\xb0\xe0\xa4\xbe\xe0\xa4\x9c\xe0\xa4\xbe,n,m,sg,3,d,0,0'
p3395
sS'drel'
p3396
S'pof__cn:NP3'
p3397
sS'chunktype'
p3398
S'child:NP3'
p3399
sS'cref'
p3400
S'i24%0:t6'
p3401
ssbsg30
I00
sg31
I00
sg32
Nsg33
Nsg34
I4
sg35
I6
sg36
Nsg37
Nsg38
S'NNC'
p3402
sg40
g3387
sg41
I00
sba(issf_api
Word
p3403
(dp3404
g6
I00
sg7
V\u0930\u0902\u091c\u0940\u0924
p3405
sg9
(issf_api
FeatureSet
p3406
(dp3407
g12
(dp3408
S'posn'
p3409
S'70'
p3410
sS'name'
p3411
S'\xe0\xa4\xb0\xe0\xa4\x82\xe0\xa4\x9c\xe0\xa5\x80\xe0\xa4\xa4'
p3412
sS'af'
p3413
S'\xe0\xa4\xb0\xe0\xa4\x82\xe0\xa4\x9c\xe0\xa5\x80\xe0\xa4\xa4,n,m,sg,3,d,0,0'
p3414
sS'drel'
p3415
S'pof__cn:NP3'
p3416
sS'chunktype'
p3417
S'child:NP3'
p3418
sS'cref'
p3419
S'i24%0:t6'
p3420
ssbsg30
I00
sg31
I00
sg32
Nsg33
Nsg34
I4
sg35
I6
sg36
Nsg37
Nsg38
S'NNPC'
p3421
sg40
g3406
sg41
I00
sba(issf_api
Word
p3422
(dp3423
g6
I00
sg7
V\u0938\u093f\u0902\u0939
p3424
sg9
(issf_api
FeatureSet
p3425
(dp3426
g12
(dp3427
S'posn'
p3428
S'80'
p3429
sS'name'
p3430
S'\xe0\xa4\xb8\xe0\xa4\xbf\xe0\xa4\x82\xe0\xa4\xb9'
p3431
sS'af'
p3432
S'\xe0\xa4\xb8\xe0\xa4\xbf\xe0\xa4\x82\xe0\xa4\xb9,n,any,sg,3,o,0_\xe0\xa4\xaa\xe0\xa4\xb0,0'
p3433
sS'chunkid'
p3434
S'NP3'
p3435
sS'drel'
p3436
S'k7:VGNN'
p3437
sS'chunktype'
p3438
S'head:NP3'
p3439
sS'vpos'
p3440
S'vib_4'
p3441
sS'cref'
p3442
S'i24%0:t6'
p3443
ssbsg30
I00
sg31
I00
sg32
Nsg33
Nsg34
I4
sg35
I6
sg36
Nsg37
Nsg38
S'NNP'
p3444
sg40
g3425
sg41
I00
sba(issf_api
Word
p3445
(dp3446
g6
I00
sg7
V\u092a\u0930
p3447
sg9
(issf_api
FeatureSet
p3448
(dp3449
g12
(dp3450
S'posn'
p3451
S'90'
p3452
sS'name'
p3453
S'\xe0\xa4\xaa\xe0\xa4\xb0'
p3454
sS'af'
p3455
S'\xe0\xa4\xaa\xe0\xa4\xb0,psp,,,,,,'
p3456
sS'drel'
p3457
S'lwg__psp:NP3'
p3458
sS'chunktype'
p3459
S'child:NP3'
p3460
sS'cref'
p3461
S'i24%0:t6'
p3462
ssbsg30
I00
sg31
I00
sg32
Nsg33
Nsg34
I4
sg35
I6
sg36
Nsg37
Nsg38
S'PSP'
p3463
sg40
g3448
sg41
I00
sba(issf_api
Word
p3464
(dp3465
g6
I00
sg7
V\u090f\u0915
p3466
sg9
(issf_api
FeatureSet
p3467
(dp3468
g12
(dp3469
S'posn'
p3470
S'100'
p3471
sS'name'
p3472
S'\xe0\xa4\x8f\xe0\xa4\x95'
p3473
sS'af'
p3474
S'\xe0\xa4\x8f\xe0\xa4\x95,num,any,any,,any,,'
p3475
sS'drel'
p3476
S'nmod__adj:NP4'
p3477
sS'chunktype'
p3478
S'child:NP4'
p3479
sS'cref'
p3480
S'i24%0:t6'
p3481
ssbsg30
I00
sg31
I00
sg32
Nsg33
Nsg34
I5
sg35
I6
sg36
Nsg37
Nsg38
S'QC'
p3482
sg40
g3467
sg41
I00
sba(issf_api
Word
p3483
(dp3484
g6
I00
sg7
V\u0927\u093e\u0930\u093e\u0935\u093e\u0939\u093f\u0915
p3485
sg9
(issf_api
FeatureSet
p3486
(dp3487
g12
(dp3488
S'posn'
p3489
S'110'
p3490
sS'name'
p3491
S'\xe0\xa4\xa7\xe0\xa4\xbe\xe0\xa4\xb0\xe0\xa4\xbe\xe0\xa4\xb5\xe0\xa4\xbe\xe0\xa4\xb9\xe0\xa4\xbf\xe0\xa4\x95'
p3492
sS'af'
p3493
S'\xe0\xa4\xa7\xe0\xa4\xbe\xe0\xa4\xb0\xe0\xa4\xbe\xe0\xa4\xb5\xe0\xa4\xbe\xe0\xa4\xb9\xe0\xa4\xbf\xe0\xa4\x95,n,m,sg,3,d,0,0'
p3494
sS'chunkid'
p3495
S'NP4'
p3496
sS'drel'
p3497
S'k2:VGNN'
p3498
sS'chunktype'
p3499
S'head:NP4'
p3500
sS'cref'
p3501
S'i24%0:t6'
p3502
ssbsg30
I00
sg31
I00
sg32
Nsg33
Nsg34
I5
sg35
I6
sg36
Nsg37
Nsg38
S'NN'
p3503
sg40
g3486
sg41
I00
sba(issf_api
Word
p3504
(dp3505
g6
I00
sg7
V\u092c\u0928\u093e\u0928\u0947
p3506
sg9
(issf_api
FeatureSet
p3507
(dp3508
g12
(dp3509
S'posn'
p3510
S'120'
p3511
sS'name'
p3512
S'\xe0\xa4\xac\xe0\xa4\xa8\xe0\xa4\xbe\xe0\xa4\xa8\xe0\xa5\x87'
p3513
sS'af'
p3514
S'\xe0\xa4\xac\xe0\xa4\xa8\xe0\xa4\xbe,v,any,sg,any,o,\xe0\xa4\xa8\xe0\xa4\xbe_\xe0\xa4\x95\xe0\xa4\xbe,nA'
p3515
sS'chunkid'
p3516
S'VGNN'
p3517
sS'drel'
p3518
S'r6:NP6'
p3519
sS'chunktype'
p3520
S'head:VGNN'
p3521
sS'vpos'
p3522
S'tam_2'
p3523
sS'cref'
p3524
S'i24%0:t6'
p3525
ssbsg30
I00
sg31
I00
sg32
Nsg33
Nsg34
I6
sg35
I6
sg36
Nsg37
Nsg38
S'VM'
p3526
sg40
g3507
sg41
I00
sba(issf_api
Word
p3527
(dp3528
g6
I00
sg7
V\u0915\u0940
p3529
sg9
(issf_api
FeatureSet
p3530
(dp3531
g12
(dp3532
S'posn'
p3533
S'130'
p3534
sS'name'
p3535
S'\xe0\xa4\x95\xe0\xa5\x80'
p3536
sS'af'
p3537
S'\xe0\xa4\x95\xe0\xa4\xbe,psp,f,sg,,d,,'
p3538
sS'drel'
p3539
S'lwg__psp:VGNN'
p3540
sS'chunktype'
p3541
S'child:VGNN'
p3542
sS'cref'
p3543
S'i24%0:t6'
p3544
ssbsg30
I00
sg31
I00
sg32
Nsg33
Nsg34
I6
sg35
I6
sg36
Nsg37
Nsg38
S'PSP'
p3545
sg40
g3530
sg41
I00
sba(issf_api
Word
p3546
(dp3547
g6
I00
sg7
V\u092d\u0940
p3548
sg9
(issf_api
FeatureSet
p3549
(dp3550
g12
(dp3551
S'posn'
p3552
S'140'
p3553
sS'name'
p3554
S'\xe0\xa4\xad\xe0\xa5\x802'
p3555
sS'af'
p3556
S'\xe0\xa4\xad\xe0\xa5\x80,avy,,,,,,'
p3557
sS'drel'
p3558
S'lwg__rp:VGNN'
p3559
sS'chunktype'
p3560
S'child:VGNN'
p3561
sS'cref'
p3562
S'i24%0:t6'
p3563
ssbsg30
I00
sg31
I00
sg32
Nsg33
Nsg34
I6
sg35
I6
sg36
Nsg37
Nsg38
S'RP'
p3564
sg40
g3549
sg41
I00
sba(issf_api
Word
p3565
(dp3566
g6
I00
sg7
V\u0909\u0928\u0915\u0940
p3567
sg9
(issf_api
FeatureSet
p3568
(dp3569
g12
(dp3570
S'crefhead'
p3571
S'\xe0\xa4\x89\xe0\xa4\xa8\xe0\xa4\x95\xe0\xa5\x80:i25'
p3572
sS'posn'
p3573
S'150'
p3574
sS'name'
p3575
S'\xe0\xa4\x89\xe0\xa4\xa8\xe0\xa4\x95\xe0\xa5\x80'
p3576
sS'af'
p3577
S'\xe0\xa4\xb5\xe0\xa4\xb9,pn,f,sg,3h,o,\xe0\xa4\x95\xe0\xa4\xbe,kA'
p3578
sS'chunkid'
p3579
S'NP5'
p3580
sS'creftype'
p3581
S'Anaphora-C:i22'
p3582
sS'chunktype'
p3583
S'head:NP5'
p3584
sS'cref'
p3585
S'i25%1:t1,i24%0:t6'
p3586
sS'drel'
p3587
S'r6:NP6'
p3588
ssbsg30
I00
sg31
I00
sg32
Nsg33
Nsg34
I7
sg35
I6
sg36
Nsg37
Nsg38
S'PRP'
p3589
sg40
g3568
sg41
I00
sba(issf_api
Word
p3590
(dp3591
g6
I00
sg7
V\u092f\u094b\u091c\u0928\u093e
p3592
sg9
(issf_api
FeatureSet
p3593
(dp3594
g12
(dp3595
S'posn'
p3596
S'160'
p3597
sS'name'
p3598
S'\xe0\xa4\xaf\xe0\xa5\x8b\xe0\xa4\x9c\xe0\xa4\xa8\xe0\xa4\xbe'
p3599
sS'af'
p3600
S'\xe0\xa4\xaf\xe0\xa5\x8b\xe0\xa4\x9c\xe0\xa4\xa8\xe0\xa4\xbe,n,f,sg,3,d,0,0'
p3601
sS'chunkid'
p3602
S'NP6'
p3603
sS'drel'
p3604
S'k1:VGF2'
p3605
sS'chunktype'
p3606
S'head:NP6'
p3607
sS'cref'
p3608
S'i24%0:t6'
p3609
ssbsg30
I00
sg31
I00
sg32
Nsg33
Nsg34
I8
sg35
I6
sg36
Nsg37
Nsg38
S'NN'
p3610
sg40
g3593
sg41
I00
sba(issf_api
Word
p3611
(dp3612
g6
I00
sg7
V\u0939\u0948
p3613
sg9
(issf_api
FeatureSet
p3614
(dp3615
g12
(dp3616
S'crefhead'
p3617
S'\xe0\xa4\xb9\xe0\xa5\x88:i24'
p3618
sS'posn'
p3619
S'170'
p3620
sS'name'
p3621
S'\xe0\xa4\xb9\xe0\xa5\x88'
p3622
sS'af'
p3623
S'\xe0\xa4\xb9\xe0\xa5\x88,v,any,sg,3,,\xe0\xa4\xb9\xe0\xa5\x88,hE'
p3624
sS'chunkid'
p3625
S'VGF2'
p3626
sS'stype'
p3627
S'declarative'
p3628
sS'creftype'
p3629
S'Anaphora-RC:i23'
p3630
sS'chunktype'
p3631
S'head:VGF2'
p3632
sS'crefchainhead'
p3633
S'i24:t6'
p3634
sS'voicetype'
p3635
S'active'
p3636
sS'cref'
p3637
S'i24%1:t6'
p3638
sS'drel'
p3639
S'ccof:CCP'
p3640
ssbsg30
I00
sg31
I00
sg32
Nsg33
Nsg34
I9
sg35
I6
sg36
Nsg37
Nsg38
S'VM'
p3641
sg40
g3614
sg41
I00
sba(issf_api
Word
p3642
(dp3643
g6
I00
sg7
V\u0964
p3644
sg9
(issf_api
FeatureSet
p3645
(dp3646
g12
(dp3647
S'posn'
p3648
S'180'
p3649
sS'name'
p3650
S'\xe0\xa5\xa4'
p3651
sS'af'
p3652
S'\xe0\xa5\xa4,punc,,,,,,'
p3653
sS'chunkid'
p3654
S'BLK'
p3655
sS'drel'
p3656
S'rsym:VGF'
p3657
sS'chunktype'
p3658
S'head:BLK'
p3659
ssbsg30
I00
sg31
I00
sg32
Nsg33
Nsg34
I10
sg35
I6
sg36
Nsg37
Nsg38
S'SYM'
p3660
sg40
g3645
sg41
I00
sbasS'sentenceList'
p3661
(lp3662
(issf_api
Sentence
p3663
(dp3664
S'rootNode'
p3665
(lp3666
sg35
I0
sS'wordNumList'
p3667
(lp3668
I0
aI1
aI2
aI3
aI4
aI5
aI6
aI7
aI8
aI9
aI10
aI11
aI12
aI13
aI14
aI15
aI16
aI17
aI18
aI19
aI20
aI21
aI22
aI23
aI24
aI25
aI26
aI27
aI28
aI29
aI30
aI31
aI32
aI33
asS'nodeDict'
p3669
(dp3670
S'VGNF'
p3671
(issf_api
Node
p3672
(dp3673
S'nodeRelation'
p3674
S'vmod'
p3675
sS'nodeName'
p3676
g3671
sS'nodeParent'
p3677
S'VGF'
p3678
sS'nodeLevel'
p3679
I-1
sg34
I10
sS'childList'
p3680
(lp3681
S'NP7'
p3682
asbsS'NP11'
p3683
(issf_api
Node
p3684
(dp3685
g3674
S'k7'
p3686
sg3676
g3683
sg3677
S'VGF2'
p3687
sg3679
I-1
sg34
I17
sg3680
(lp3688
S'CCP3'
p3689
asbsS'VGNN'
p3690
(issf_api
Node
p3691
(dp3692
g3674
S'r6-k2'
p3693
sg3676
g3690
sg3677
S'NP7'
p3694
sg3679
I-1
sg34
I8
sg3680
(lp3695
S'NP6'
p3696
asbsS'VGF'
p3697
(issf_api
Node
p3698
(dp3699
g3674
S'None'
p3700
sg3676
g3697
sg3677
g3700
sg3679
I-1
sg34
I11
sg3680
(lp3701
g3671
aS'NP5'
p3702
aS'BLK'
p3703
aS'NP4'
p3704
aS'CCP2'
p3705
asbsS'NP12'
p3706
(issf_api
Node
p3707
(dp3708
g3674
S'k2'
p3709
sg3676
g3706
sg3677
S'VGF2'
p3710
sg3679
I-1
sg34
I18
sg3680
(lp3711
sbsS'CCP'
p3712
(issf_api
Node
p3713
(dp3714
g3674
S'nmod'
p3715
sg3676
g3712
sg3677
S'NP4'
p3716
sg3679
I-1
sg34
I3
sg3680
(lp3717
S'NP3'
p3718
aS'NP2'
p3719
asbsS'JJP'
p3720
(issf_api
Node
p3721
(dp3722
g3674
S'nmod'
p3723
sg3676
g3720
sg3677
S'NP2'
p3724
sg3679
I-1
sg34
I1
sg3680
(lp3725
S'NP'
p3726
asbsS'VGF2'
p3727
(issf_api
Node
p3728
(dp3729
g3674
S'ccof'
p3730
sg3676
g3727
sg3677
S'CCP2'
p3731
sg3679
I-1
sg34
I19
sg3680
(lp3732
g3683
ag3706
aS'NP8'
p3733
asbsg3702
(issf_api
Node
p3734
(dp3735
g3674
S'k7t'
p3736
sg3676
g3702
sg3677
S'VGF'
p3737
sg3679
I-1
sg34
I6
sg3680
(lp3738
sbsS'NP9'
p3739
(issf_api
Node
p3740
(dp3741
g3674
S'ccof'
p3742
sg3676
g3739
sg3677
S'CCP3'
p3743
sg3679
I-1
sg34
I14
sg3680
(lp3744
sbsg3733
(issf_api
Node
p3745
(dp3746
g3674
S'k1'
p3747
sg3676
g3733
sg3677
S'VGF2'
p3748
sg3679
I-1
sg34
I13
sg3680
(lp3749
sbsg3703
(issf_api
Node
p3750
(dp3751
g3674
S'rsym'
p3752
sg3676
g3703
sg3677
S'VGF'
p3753
sg3679
I-1
sg34
I20
sg3680
(lp3754
sbsS'NP10'
p3755
(issf_api
Node
p3756
(dp3757
g3674
S'ccof'
p3758
sg3676
g3755
sg3677
S'CCP3'
p3759
sg3679
I-1
sg34
I16
sg3680
(lp3760
sbsg3726
(issf_api
Node
p3761
(dp3762
g3674
S'jjmod'
p3763
sg3676
g3726
sg3677
S'JJP'
p3764
sg3679
I-1
sg34
I0
sg3680
(lp3765
sbsg3704
(issf_api
Node
p3766
(dp3767
g3674
S'k1'
p3768
sg3676
g3704
sg3677
S'VGF'
p3769
sg3679
I-1
sg34
I5
sg3680
(lp3770
g3712
asbsg3682
(issf_api
Node
p3771
(dp3772
g3674
S'pof'
p3773
sg3676
g3682
sg3677
S'VGNF'
p3774
sg3679
I-1
sg34
I9
sg3680
(lp3775
g3690
asbsg3696
(issf_api
Node
p3776
(dp3777
g3674
S'k2'
p3778
sg3676
g3696
sg3677
S'VGNN'
p3779
sg3679
I-1
sg34
I7
sg3680
(lp3780
sbsg3705
(issf_api
Node
p3781
(dp3782
g3674
S'k2'
p3783
sg3676
g3705
sg3677
S'VGF'
p3784
sg3679
I-1
sg34
I12
sg3680
(lp3785
g3727
asbsg3689
(issf_api
Node
p3786
(dp3787
g3674
S'r6'
p3788
sg3676
g3689
sg3677
S'NP11'
p3789
sg3679
I-1
sg34
I15
sg3680
(lp3790
g3739
ag3755
asbsg3718
(issf_api
Node
p3791
(dp3792
g3674
S'ccof'
p3793
sg3676
g3718
sg3677
S'CCP'
p3794
sg3679
I-1
sg34
I4
sg3680
(lp3795
sbsg3719
(issf_api
Node
p3796
(dp3797
g3674
S'ccof'
p3798
sg3676
g3719
sg3677
S'CCP'
p3799
sg3679
I-1
sg34
I2
sg3680
(lp3800
g3720
asbssS'chunkList'
p3801
(lp3802
(issf_api
Chunk
p3803
(dp3804
g3676
g21
sg34
I0
sS'chunkTag'
p3805
g39
sg35
I0
sg3667
(lp3806
I0
aI1
asg40
(issf_api
FeatureSet
p3807
(dp3808
g12
(dp3809
S'name'
p3810
g3726
sS'drel'
p3811
S'jjmod:JJP'
p3812
ssbsba(issf_api
Chunk
p3813
(dp3814
g3676
g74
sg34
I1
sg3805
g81
sg35
I0
sg3667
(lp3815
I2
asg40
(issf_api
FeatureSet
p3816
(dp3817
g12
(dp3818
S'name'
p3819
g3720
sS'drel'
p3820
S'nmod:NP2'
p3821
ssbsba(issf_api
Chunk
p3822
(dp3823
g3676
g97
sg34
I2
sg3805
g106
sg35
I0
sg3667
(lp3824
I3
asg40
(issf_api
FeatureSet
p3825
(dp3826
g12
(dp3827
S'name'
p3828
g3719
sS'drel'
p3829
S'ccof:CCP'
p3830
ssbsba(issf_api
Chunk
p3831
(dp3832
g3676
g120
sg34
I3
sg3805
g125
sg35
I0
sg3667
(lp3833
I4
asg40
(issf_api
FeatureSet
p3834
(dp3835
g12
(dp3836
S'name'
p3837
g3712
sS'drel'
p3838
S'nmod:NP4'
p3839
ssbsba(issf_api
Chunk
p3840
(dp3841
g3676
g141
sg34
I4
sg3805
g150
sg35
I0
sg3667
(lp3842
I5
asg40
(issf_api
FeatureSet
p3843
(dp3844
g12
(dp3845
S'name'
p3846
g3718
sS'drel'
p3847
S'ccof:CCP'
p3848
ssbsba(issf_api
Chunk
p3849
(dp3850
g3676
g185
sg34
I5
sg3805
g196
sg35
I0
sg3667
(lp3851
I6
aI7
aI8
asg40
(issf_api
FeatureSet
p3852
(dp3853
g12
(dp3854
S'name'
p3855
g3704
sS'drel'
p3856
S'k1:VGF'
p3857
ssbsba(issf_api
Chunk
p3858
(dp3859
g3676
g227
sg34
I6
sg3805
g234
sg35
I0
sg3667
(lp3860
I9
aI10
asg40
(issf_api
FeatureSet
p3861
(dp3862
g12
(dp3863
S'name'
p3864
g3702
sS'drel'
p3865
S'k7t:VGF'
p3866
ssbsba(issf_api
Chunk
p3867
(dp3868
g3676
g286
sg34
I7
sg3805
g295
sg35
I0
sg3667
(lp3869
I11
aI12
asg40
(issf_api
FeatureSet
p3870
(dp3871
g12
(dp3872
S'name'
p3873
g3696
sS'drel'
p3874
S'k2:VGNN'
p3875
ssbsba(issf_api
Chunk
p3876
(dp3877
g3676
g309
sg34
I8
sg3805
g316
sg35
I0
sg3667
(lp3878
I13
aI14
asg40
(issf_api
FeatureSet
p3879
(dp3880
g12
(dp3881
S'name'
p3882
g3690
sS'drel'
p3883
S'r6-k2:NP7'
p3884
ssbsba(issf_api
Chunk
p3885
(dp3886
g3676
g347
sg34
I9
sg3805
g352
sg35
I0
sg3667
(lp3887
I15
asg40
(issf_api
FeatureSet
p3888
(dp3889
g12
(dp3890
S'name'
p3891
g3682
sS'drel'
p3892
S'pof:VGNF'
p3893
ssbsba(issf_api
Chunk
p3894
(dp3895
g3676
g366
sg34
I10
sg3805
g373
sg35
I0
sg3667
(lp3896
I16
aI17
asg40
(issf_api
FeatureSet
p3897
(dp3898
g12
(dp3899
S'name'
p3900
g3671
sS'drel'
p3901
S'vmod:VGF'
p3902
ssbsba(issf_api
Chunk
p3903
(dp3904
g3676
g404
sg34
I11
sg3805
g411
sg35
I0
sg3667
(lp3905
I18
asg40
(issf_api
FeatureSet
p3906
(dp3907
g12
(dp3908
S'name'
p3909
g3697
ssbsba(issf_api
Chunk
p3910
(dp3911
g3676
g425
sg34
I12
sg3805
g430
sg35
I0
sg3667
(lp3912
I19
asg40
(issf_api
FeatureSet
p3913
(dp3914
g12
(dp3915
S'name'
p3916
g3705
sS'drel'
p3917
S'k2:VGF'
p3918
ssbsba(issf_api
Chunk
p3919
(dp3920
g3676
g503
sg34
I13
sg3805
g512
sg35
I0
sg3667
(lp3921
I20
aI21
aI22
aI23
asg40
(issf_api
FeatureSet
p3922
(dp3923
g12
(dp3924
S'name'
p3925
g3733
sS'drel'
p3926
S'k1:VGF2'
p3927
ssbsba(issf_api
Chunk
p3928
(dp3929
g3676
g528
sg34
I14
sg3805
g537
sg35
I0
sg3667
(lp3930
I24
asg40
(issf_api
FeatureSet
p3931
(dp3932
g12
(dp3933
S'name'
p3934
g3739
sS'drel'
p3935
S'ccof:CCP3'
p3936
ssbsba(issf_api
Chunk
p3937
(dp3938
g3676
g551
sg34
I15
sg3805
g556
sg35
I0
sg3667
(lp3939
I25
asg40
(issf_api
FeatureSet
p3940
(dp3941
g12
(dp3942
S'name'
p3943
g3689
sS'drel'
p3944
S'r6:NP11'
p3945
ssbsba(issf_api
Chunk
p3946
(dp3947
g3676
g591
sg34
I16
sg3805
g602
sg35
I0
sg3667
(lp3948
I26
aI27
aI28
asg40
(issf_api
FeatureSet
p3949
(dp3950
g12
(dp3951
S'name'
p3952
g3755
sS'drel'
p3953
S'ccof:CCP3'
p3954
ssbsba(issf_api
Chunk
p3955
(dp3956
g3676
g633
sg34
I17
sg3805
g640
sg35
I0
sg3667
(lp3957
I29
aI30
asg40
(issf_api
FeatureSet
p3958
(dp3959
g12
(dp3960
S'name'
p3961
g3683
sS'drel'
p3962
S'k7:VGF2'
p3963
ssbsba(issf_api
Chunk
p3964
(dp3965
g3676
g671
sg34
I18
sg3805
g676
sg35
I0
sg3667
(lp3966
I31
asg40
(issf_api
FeatureSet
p3967
(dp3968
g12
(dp3969
S'name'
p3970
g3706
sS'drel'
p3971
S'k2:VGF2'
p3972
ssbsba(issf_api
Chunk
p3973
(dp3974
g3676
g690
sg34
I19
sg3805
g699
sg35
I0
sg3667
(lp3975
I32
asg40
(issf_api
FeatureSet
p3976
(dp3977
g12
(dp3978
S'name'
p3979
g3727
sS'drel'
p3980
S'ccof:CCP2'
p3981
ssbsba(issf_api
Chunk
p3982
(dp3983
g3676
g713
sg34
I20
sg3805
g718
sg35
I0
sg3667
(lp3984
I33
asg40
(issf_api
FeatureSet
p3985
(dp3986
g12
(dp3987
S'name'
p3988
g3703
sS'drel'
p3989
S'rsym:VGF'
p3990
ssbsbasba(issf_api
Sentence
p3991
(dp3992
g3665
(lp3993
sg35
I1
sg3667
(lp3994
I34
aI35
aI36
aI37
aI38
aI39
aI40
aI41
aI42
aI43
aI44
aI45
aI46
aI47
aI48
aI49
aI50
aI51
aI52
aI53
aI54
aI55
aI56
aI57
aI58
aI59
aI60
aI61
aI62
aI63
asg3669
(dp3995
S'VGNF'
p3996
(issf_api
Node
p3997
(dp3998
g3674
S'nmod__k1inv'
p3999
sg3676
g3996
sg3677
S'NP4'
p4000
sg3679
I-1
sg34
I6
sg3680
(lp4001
S'VGNN'
p4002
aS'NP3'
p4003
asbsS'VGF2'
p4004
(issf_api
Node
p4005
(dp4006
g3674
S'ccof'
p4007
sg3676
g4004
sg3677
S'CCP2'
p4008
sg3679
I-1
sg34
I19
sg3680
(lp4009
S'NP10'
p4010
asbsS'RBP'
p4011
(issf_api
Node
p4012
(dp4013
g3674
S'adv'
p4014
sg3676
g4011
sg3677
S'VGNN2'
p4015
sg3679
I-1
sg34
I15
sg3680
(lp4016
sbsg4002
(issf_api
Node
p4017
(dp4018
g3674
S'rt'
p4019
sg3676
g4002
sg3677
S'VGNF'
p4020
sg3679
I-1
sg34
I5
sg3680
(lp4021
S'JJP'
p4022
asbsS'VGF'
p4023
(issf_api
Node
p4024
(dp4025
g3674
g3700
sg3676
g4023
sg3677
g3700
sg3679
I-1
sg34
I9
sg3680
(lp4026
S'NP5'
p4027
aS'BLK'
p4028
aS'NP4'
p4029
aS'CCP2'
p4030
asbsS'CCP'
p4031
(issf_api
Node
p4032
(dp4033
g3674
S'r6'
p4034
sg3676
g4031
sg3677
S'NP3'
p4035
sg3679
I-1
sg34
I1
sg3680
(lp4036
S'NP'
p4037
aS'NP2'
p4038
asbsg4022
(issf_api
Node
p4039
(dp4040
g3674
S'pof'
p4041
sg3676
g4022
sg3677
S'VGNN'
p4042
sg3679
I-1
sg34
I4
sg3680
(lp4043
sbsS'VGNN2'
p4044
(issf_api
Node
p4045
(dp4046
g3674
S'r6'
p4047
sg3676
g4044
sg3677
S'NP10'
p4048
sg3679
I-1
sg34
I17
sg3680
(lp4049
g4011
aS'NP9'
p4050
aS'NP8'
p4051
asbsg4027
(issf_api
Node
p4052
(dp4053
g3674
S'k4'
p4054
sg3676
g4027
sg3677
S'VGF'
p4055
sg3679
I-1
sg34
I8
sg3680
(lp4056
sbsg4050
(issf_api
Node
p4057
(dp4058
g3674
S'pof'
p4059
sg3676
g4050
sg3677
S'VGNN2'
p4060
sg3679
I-1
sg34
I16
sg3680
(lp4061
sbsg4051
(issf_api
Node
p4062
(dp4063
g3674
S'k7'
p4064
sg3676
g4051
sg3677
S'VGNN2'
p4065
sg3679
I-1
sg34
I14
sg3680
(lp4066
S'CCP3'
p4067
asbsg4028
(issf_api
Node
p4068
(dp4069
g3674
S'rsym'
p4070
sg3676
g4028
sg3677
S'VGF'
p4071
sg3679
I-1
sg34
I20
sg3680
(lp4072
sbsg4010
(issf_api
Node
p4073
(dp4074
g3674
S'k1'
p4075
sg3676
g4010
sg3677
S'VGF2'
p4076
sg3679
I-1
sg34
I18
sg3680
(lp4077
g4044
asbsg4037
(issf_api
Node
p4078
(dp4079
g3674
S'ccof'
p4080
sg3676
g4037
sg3677
S'CCP'
p4081
sg3679
I-1
sg34
I0
sg3680
(lp4082
sbsg4029
(issf_api
Node
p4083
(dp4084
g3674
S'k1'
p4085
sg3676
g4029
sg3677
S'VGF'
p4086
sg3679
I-1
sg34
I7
sg3680
(lp4087
g3996
asbsS'NP7'
p4088
(issf_api
Node
p4089
(dp4090
g3674
S'ccof'
p4091
sg3676
g4088
sg3677
S'CCP3'
p4092
sg3679
I-1
sg34
I13
sg3680
(lp4093
sbsS'NP6'
p4094
(issf_api
Node
p4095
(dp4096
g3674
S'ccof'
p4097
sg3676
g4094
sg3677
S'CCP3'
p4098
sg3679
I-1
sg34
I11
sg3680
(lp4099
sbsg4030
(issf_api
Node
p4100
(dp4101
g3674
S'k2'
p4102
sg3676
g4030
sg3677
S'VGF'
p4103
sg3679
I-1
sg34
I10
sg3680
(lp4104
g4004
asbsg4067
(issf_api
Node
p4105
(dp4106
g3674
S'r6'
p4107
sg3676
g4067
sg3677
S'NP8'
p4108
sg3679
I-1
sg34
I12
sg3680
(lp4109
g4088
ag4094
asbsg4003
(issf_api
Node
p4110
(dp4111
g3674
S'k2'
p4112
sg3676
g4003
sg3677
S'VGNF'
p4113
sg3679
I-1
sg34
I3
sg3680
(lp4114
g4031
asbsg4038
(issf_api
Node
p4115
(dp4116
g3674
S'ccof'
p4117
sg3676
g4038
sg3677
S'CCP'
p4118
sg3679
I-1
sg34
I2
sg3680
(lp4119
sbssg3801
(lp4120
(issf_api
Chunk
p4121
(dp4122
g3676
g732
sg34
I0
sg3805
g737
sg35
I1
sg3667
(lp4123
I34
asg40
(issf_api
FeatureSet
p4124
(dp4125
g12
(dp4126
S'name'
p4127
g4037
sS'drel'
p4128
S'ccof:CCP'
p4129
ssbsba(issf_api
Chunk
p4130
(dp4131
g3676
g751
sg34
I1
sg3805
g756
sg35
I1
sg3667
(lp4132
I35
asg40
(issf_api
FeatureSet
p4133
(dp4134
g12
(dp4135
S'name'
p4136
g4031
sS'drel'
p4137
S'r6:NP3'
p4138
ssbsba(issf_api
Chunk
p4139
(dp4140
g3676
g772
sg34
I2
sg3805
g783
sg35
I1
sg3667
(lp4141
I36
aI37
asg40
(issf_api
FeatureSet
p4142
(dp4143
g12
(dp4144
S'name'
p4145
g4038
sS'drel'
p4146
S'ccof:CCP'
p4147
ssbsba(issf_api
Chunk
p4148
(dp4149
g3676
g814
sg34
I3
sg3805
g821
sg35
I1
sg3667
(lp4150
I38
aI39
asg40
(issf_api
FeatureSet
p4151
(dp4152
g12
(dp4153
S'name'
p4154
g4003
sS'drel'
p4155
S'k2:VGNF'
p4156
ssbsba(issf_api
Chunk
p4157
(dp4158
g3676
g852
sg34
I4
sg3805
g857
sg35
I1
sg3667
(lp4159
I40
asg40
(issf_api
FeatureSet
p4160
(dp4161
g12
(dp4162
S'name'
p4163
g4022
sS'drel'
p4164
S'pof:VGNN'
p4165
ssbsba(issf_api
Chunk
p4166
(dp4167
g3676
g871
sg34
I5
sg3805
g876
sg35
I1
sg3667
(lp4168
I41
asg40
(issf_api
FeatureSet
p4169
(dp4170
g12
(dp4171
S'name'
p4172
g4002
sS'drel'
p4173
S'rt:VGNF'
p4174
ssbsba(issf_api
Chunk
p4175
(dp4176
g3676
g890
sg34
I6
sg3805
g895
sg35
I1
sg3667
(lp4177
I42
asg40
(issf_api
FeatureSet
p4178
(dp4179
g12
(dp4180
S'name'
p4181
g3996
sS'drel'
p4182
S'nmod__k1inv:NP4'
p4183
ssbsba(issf_api
Chunk
p4184
(dp4185
g3676
g930
sg34
I7
sg3805
g941
sg35
I1
sg3667
(lp4186
I43
aI44
aI45
asg40
(issf_api
FeatureSet
p4187
(dp4188
g12
(dp4189
S'name'
p4190
g4029
sS'drel'
p4191
S'k1:VGF'
p4192
ssbsba(issf_api
Chunk
p4193
(dp4194
g3676
g972
sg34
I8
sg3805
g979
sg35
I1
sg3667
(lp4195
I46
aI47
asg40
(issf_api
FeatureSet
p4196
(dp4197
g12
(dp4198
S'name'
p4199
g4027
sS'drel'
p4200
S'k4:VGF'
p4201
ssbsba(issf_api
Chunk
p4202
(dp4203
g3676
g1010
sg34
I9
sg3805
g1017
sg35
I1
sg3667
(lp4204
I48
asg40
(issf_api
FeatureSet
p4205
(dp4206
g12
(dp4207
S'name'
p4208
g4023
ssbsba(issf_api
Chunk
p4209
(dp4210
g3676
g1031
sg34
I10
sg3805
g1036
sg35
I1
sg3667
(lp4211
I49
asg40
(issf_api
FeatureSet
p4212
(dp4213
g12
(dp4214
S'name'
p4215
g4030
sS'drel'
p4216
S'k2:VGF'
p4217
ssbsba(issf_api
Chunk
p4218
(dp4219
g3676
g1052
sg34
I11
sg3805
g1061
sg35
I1
sg3667
(lp4220
I50
asg40
(issf_api
FeatureSet
p4221
(dp4222
g12
(dp4223
S'name'
p4224
g4094
sS'drel'
p4225
S'ccof:CCP3'
p4226
ssbsba(issf_api
Chunk
p4227
(dp4228
g3676
g1075
sg34
I12
sg3805
g1080
sg35
I1
sg3667
(lp4229
I51
asg40
(issf_api
FeatureSet
p4230
(dp4231
g12
(dp4232
S'name'
p4233
g4067
sS'drel'
p4234
S'r6:NP8'
p4235
ssbsba(issf_api
Chunk
p4236
(dp4237
g3676
g1115
sg34
I13
sg3805
g1126
sg35
I1
sg3667
(lp4238
I52
aI53
aI54
asg40
(issf_api
FeatureSet
p4239
(dp4240
g12
(dp4241
S'name'
p4242
g4088
sS'drel'
p4243
S'ccof:CCP3'
p4244
ssbsba(issf_api
Chunk
p4245
(dp4246
g3676
g1157
sg34
I14
sg3805
g1164
sg35
I1
sg3667
(lp4247
I55
aI56
asg40
(issf_api
FeatureSet
p4248
(dp4249
g12
(dp4250
S'name'
p4251
g4051
sS'drel'
p4252
S'k7:VGNN2'
p4253
ssbsba(issf_api
Chunk
p4254
(dp4255
g3676
g1195
sg34
I15
sg3805
g1200
sg35
I1
sg3667
(lp4256
I57
asg40
(issf_api
FeatureSet
p4257
(dp4258
g12
(dp4259
S'name'
p4260
g4011
sS'drel'
p4261
S'adv:VGNN2'
p4262
ssbsba(issf_api
Chunk
p4263
(dp4264
g3676
g1214
sg34
I16
sg3805
g1219
sg35
I1
sg3667
(lp4265
I58
asg40
(issf_api
FeatureSet
p4266
(dp4267
g12
(dp4268
S'name'
p4269
g4050
sS'drel'
p4270
S'pof:VGNN2'
p4271
ssbsba(issf_api
Chunk
p4272
(dp4273
g3676
g1233
sg34
I17
sg3805
g1240
sg35
I1
sg3667
(lp4274
I59
aI60
asg40
(issf_api
FeatureSet
p4275
(dp4276
g12
(dp4277
S'name'
p4278
g4044
sS'drel'
p4279
S'r6:NP10'
p4280
ssbsba(issf_api
Chunk
p4281
(dp4282
g3676
g1271
sg34
I18
sg3805
g1276
sg35
I1
sg3667
(lp4283
I61
asg40
(issf_api
FeatureSet
p4284
(dp4285
g12
(dp4286
S'name'
p4287
g4010
sS'drel'
p4288
S'k1:VGF2'
p4289
ssbsba(issf_api
Chunk
p4290
(dp4291
g3676
g1290
sg34
I19
sg3805
g1299
sg35
I1
sg3667
(lp4292
I62
asg40
(issf_api
FeatureSet
p4293
(dp4294
g12
(dp4295
S'name'
p4296
g4004
sS'drel'
p4297
S'ccof:CCP2'
p4298
ssbsba(issf_api
Chunk
p4299
(dp4300
g3676
g1313
sg34
I20
sg3805
g1318
sg35
I1
sg3667
(lp4301
I63
asg40
(issf_api
FeatureSet
p4302
(dp4303
g12
(dp4304
S'name'
p4305
g4028
sS'drel'
p4306
S'rsym:VGF'
p4307
ssbsbasba(issf_api
Sentence
p4308
(dp4309
g3665
(lp4310
sg35
I2
sg3667
(lp4311
I64
aI65
aI66
aI67
aI68
aI69
aI70
aI71
aI72
aI73
aI74
aI75
asg3669
(dp4312
S'VGNN'
p4313
(issf_api
Node
p4314
(dp4315
g3674
S'r6'
p4316
sg3676
g4313
sg3677
S'NP5'
p4317
sg3679
I-1
sg34
I4
sg3680
(lp4318
S'NP4'
p4319
aS'NP2'
p4320
asbsS'VGF'
p4321
(issf_api
Node
p4322
(dp4323
g3674
g3700
sg3676
g4321
sg3677
g3700
sg3679
I-1
sg34
I6
sg3680
(lp4324
S'NP5'
p4325
aS'BLK'
p4326
aS'NP'
p4327
asbsg4325
(issf_api
Node
p4328
(dp4329
g3674
S'k2'
p4330
sg3676
g4325
sg3677
S'VGF'
p4331
sg3679
I-1
sg34
I5
sg3680
(lp4332
g4313
asbsg4326
(issf_api
Node
p4333
(dp4334
g3674
S'rsym'
p4335
sg3676
g4326
sg3677
S'VGF'
p4336
sg3679
I-1
sg34
I7
sg3680
(lp4337
sbsg4327
(issf_api
Node
p4338
(dp4339
g3674
S'k1'
p4340
sg3676
g4327
sg3677
S'VGF'
p4341
sg3679
I-1
sg34
I0
sg3680
(lp4342
sbsg4319
(issf_api
Node
p4343
(dp4344
g3674
S'pof'
p4345
sg3676
g4319
sg3677
S'VGNN'
p4346
sg3679
I-1
sg34
I3
sg3680
(lp4347
S'NP3'
p4348
asbsg4348
(issf_api
Node
p4349
(dp4350
g3674
S'r6-k2'
p4351
sg3676
g4348
sg3677
S'NP4'
p4352
sg3679
I-1
sg34
I2
sg3680
(lp4353
sbsg4320
(issf_api
Node
p4354
(dp4355
g3674
S'rd'
p4356
sg3676
g4320
sg3677
S'VGNN'
p4357
sg3679
I-1
sg34
I1
sg3680
(lp4358
sbssg3801
(lp4359
(issf_api
Chunk
p4360
(dp4361
g3676
g1353
sg34
I0
sg3805
g1362
sg35
I2
sg3667
(lp4362
I64
aI65
asg40
(issf_api
FeatureSet
p4363
(dp4364
g12
(dp4365
S'name'
p4366
g4327
sS'drel'
p4367
S'k1:VGF'
p4368
ssbsba(issf_api
Chunk
p4369
(dp4370
g3676
g1376
sg34
I1
sg3805
g1381
sg35
I2
sg3667
(lp4371
I66
aI67
asg40
(issf_api
FeatureSet
p4372
(dp4373
g12
(dp4374
S'name'
p4375
g4320
sS'drel'
p4376
S'rd:VGNN'
p4377
ssbsba(issf_api
Chunk
p4378
(dp4379
g3676
g1414
sg34
I2
sg3805
g1425
sg35
I2
sg3667
(lp4380
I68
aI69
asg40
(issf_api
FeatureSet
p4381
(dp4382
g12
(dp4383
S'name'
p4384
g4348
sS'drel'
p4385
S'r6-k2:NP4'
p4386
ssbsba(issf_api
Chunk
p4387
(dp4388
g3676
g1456
sg34
I3
sg3805
g1461
sg35
I2
sg3667
(lp4389
I70
asg40
(issf_api
FeatureSet
p4390
(dp4391
g12
(dp4392
S'name'
p4393
g4319
sS'drel'
p4394
S'pof:VGNN'
p4395
ssbsba(issf_api
Chunk
p4396
(dp4397
g3676
g1475
sg34
I4
sg3805
g1482
sg35
I2
sg3667
(lp4398
I71
aI72
asg40
(issf_api
FeatureSet
p4399
(dp4400
g12
(dp4401
S'name'
p4402
g4313
sS'drel'
p4403
S'r6:NP5'
p4404
ssbsba(issf_api
Chunk
p4405
(dp4406
g3676
g1513
sg34
I5
sg3805
g1518
sg35
I2
sg3667
(lp4407
I73
asg40
(issf_api
FeatureSet
p4408
(dp4409
g12
(dp4410
S'name'
p4411
g4325
sS'drel'
p4412
S'k2:VGF'
p4413
ssbsba(issf_api
Chunk
p4414
(dp4415
g3676
g1532
sg34
I6
sg3805
g1539
sg35
I2
sg3667
(lp4416
I74
asg40
(issf_api
FeatureSet
p4417
(dp4418
g12
(dp4419
S'name'
p4420
g4321
ssbsba(issf_api
Chunk
p4421
(dp4422
g3676
g1553
sg34
I7
sg3805
g1558
sg35
I2
sg3667
(lp4423
I75
asg40
(issf_api
FeatureSet
p4424
(dp4425
g12
(dp4426
S'name'
p4427
g4326
sS'drel'
p4428
S'rsym:VGF'
p4429
ssbsbasba(issf_api
Sentence
p4430
(dp4431
g3665
(lp4432
sg35
I3
sg3667
(lp4433
I76
aI77
aI78
aI79
aI80
aI81
aI82
aI83
aI84
aI85
aI86
aI87
aI88
aI89
aI90
aI91
aI92
aI93
aI94
aI95
aI96
aI97
aI98
aI99
aI100
aI101
aI102
aI103
aI104
aI105
aI106
aI107
aI108
aI109
aI110
aI111
asg3669
(dp4434
S'VGF2'
p4435
(issf_api
Node
p4436
(dp4437
g3674
S'ccof'
p4438
sg3676
g4435
sg3677
S'CCP'
p4439
sg3679
I-1
sg34
I14
sg3680
(lp4440
S'NP10'
p4441
aS'JJP2'
p4442
aS'NP7'
p4443
asbsg4441
(issf_api
Node
p4444
(dp4445
g3674
S'k1'
p4446
sg3676
g4441
sg3677
S'VGF2'
p4447
sg3679
I-1
sg34
I12
sg3680
(lp4448
S'NP9'
p4449
asbsS'VGF'
p4450
(issf_api
Node
p4451
(dp4452
g3674
g3700
sg3676
g4450
sg3677
g3700
sg3679
I-1
sg34
I5
sg3680
(lp4453
S'CCP'
p4454
aS'NP5'
p4455
aS'BLK'
p4456
aS'NP'
p4457
aS'NP4'
p4458
aS'NP2'
p4459
asbsg4454
(issf_api
Node
p4460
(dp4461
g3674
S'k2'
p4462
sg3676
g4454
sg3677
S'VGF'
p4463
sg3679
I-1
sg34
I6
sg3680
(lp4464
g4435
asbsS'JJP'
p4465
(issf_api
Node
p4466
(dp4467
g3674
S'nmod'
p4468
sg3676
g4465
sg3677
S'NP9'
p4469
sg3679
I-1
sg34
I10
sg3680
(lp4470
S'NP8'
p4471
asbsg4455
(issf_api
Node
p4472
(dp4473
g3674
S'k1'
p4474
sg3676
g4455
sg3677
S'VGF'
p4475
sg3679
I-1
sg34
I4
sg3680
(lp4476
sbsg4442
(issf_api
Node
p4477
(dp4478
g3674
S'pof'
p4479
sg3676
g4442
sg3677
S'VGF2'
p4480
sg3679
I-1
sg34
I13
sg3680
(lp4481
sbsg4449
(issf_api
Node
p4482
(dp4483
g3674
S'r6'
p4484
sg3676
g4449
sg3677
S'NP10'
p4485
sg3679
I-1
sg34
I11
sg3680
(lp4486
g4465
asbsg4471
(issf_api
Node
p4487
(dp4488
g3674
S'jjmod'
p4489
sg3676
g4471
sg3677
S'JJP'
p4490
sg3679
I-1
sg34
I9
sg3680
(lp4491
sbsg4456
(issf_api
Node
p4492
(dp4493
g3674
S'rsym'
p4494
sg3676
g4456
sg3677
S'VGF'
p4495
sg3679
I-1
sg34
I15
sg3680
(lp4496
sbsg4457
(issf_api
Node
p4497
(dp4498
g3674
S'k7'
p4499
sg3676
g4457
sg3677
S'VGF'
p4500
sg3679
I-1
sg34
I0
sg3680
(lp4501
sbsg4458
(issf_api
Node
p4502
(dp4503
g3674
S'k7'
p4504
sg3676
g4458
sg3677
S'VGF'
p4505
sg3679
I-1
sg34
I3
sg3680
(lp4506
S'NP3'
p4507
asbsg4443
(issf_api
Node
p4508
(dp4509
g3674
S'rh'
p4510
sg3676
g4443
sg3677
S'VGF2'
p4511
sg3679
I-1
sg34
I8
sg3680
(lp4512
S'NP6'
p4513
asbsg4513
(issf_api
Node
p4514
(dp4515
g3674
S'r6'
p4516
sg3676
g4513
sg3677
S'NP7'
p4517
sg3679
I-1
sg34
I7
sg3680
(lp4518
sbsg4507
(issf_api
Node
p4519
(dp4520
g3674
S'r6'
p4521
sg3676
g4507
sg3677
S'NP4'
p4522
sg3679
I-1
sg34
I2
sg3680
(lp4523
sbsg4459
(issf_api
Node
p4524
(dp4525
g3674
S'ras-r6'
p4526
sg3676
g4459
sg3677
S'VGF'
p4527
sg3679
I-1
sg34
I1
sg3680
(lp4528
sbssg3801
(lp4529
(issf_api
Chunk
p4530
(dp4531
g3676
g1623
sg34
I0
sg3805
g1630
sg35
I3
sg3667
(lp4532
I76
aI77
aI78
aI79
aI80
asg40
(issf_api
FeatureSet
p4533
(dp4534
g12
(dp4535
S'name'
p4536
g4457
sS'drel'
p4537
S'k7:VGF'
p4538
ssbsba(issf_api
Chunk
p4539
(dp4540
g3676
g1678
sg34
I1
sg3805
g1685
sg35
I3
sg3667
(lp4541
I81
aI82
aI83
asg40
(issf_api
FeatureSet
p4542
(dp4543
g12
(dp4544
S'name'
p4545
g4459
sS'drel'
p4546
S'ras-r6:VGF'
p4547
ssbsba(issf_api
Chunk
p4548
(dp4549
g3676
g1733
sg34
I2
sg3805
g1740
sg35
I3
sg3667
(lp4550
I84
aI85
aI86
asg40
(issf_api
FeatureSet
p4551
(dp4552
g12
(dp4553
S'name'
p4554
g4507
sS'drel'
p4555
S'r6:NP4'
p4556
ssbsba(issf_api
Chunk
p4557
(dp4558
g3676
g1771
sg34
I3
sg3805
g1778
sg35
I3
sg3667
(lp4559
I87
aI88
asg40
(issf_api
FeatureSet
p4560
(dp4561
g12
(dp4562
S'name'
p4563
g4458
sS'drel'
p4564
S'k7:VGF'
p4565
ssbsba(issf_api
Chunk
p4566
(dp4567
g3676
g1811
sg34
I4
sg3805
g1822
sg35
I3
sg3667
(lp4568
I89
aI90
asg40
(issf_api
FeatureSet
p4569
(dp4570
g12
(dp4571
S'name'
p4572
g4455
sS'drel'
p4573
S'k1:VGF'
p4574
ssbsba(issf_api
Chunk
p4575
(dp4576
g3676
g1853
sg34
I5
sg3805
g1860
sg35
I3
sg3667
(lp4577
I91
asg40
(issf_api
FeatureSet
p4578
(dp4579
g12
(dp4580
S'name'
p4581
g4450
ssbsba(issf_api
Chunk
p4582
(dp4583
g3676
g1874
sg34
I6
sg3805
g1879
sg35
I3
sg3667
(lp4584
I92
asg40
(issf_api
FeatureSet
p4585
(dp4586
g12
(dp4587
S'name'
p4588
g4454
sS'drel'
p4589
S'k2:VGF'
p4590
ssbsba(issf_api
Chunk
p4591
(dp4592
g3676
g1927
sg34
I7
sg3805
g1934
sg35
I3
sg3667
(lp4593
I93
aI94
aI95
aI96
asg40
(issf_api
FeatureSet
p4594
(dp4595
g12
(dp4596
S'name'
p4597
g4513
sS'drel'
p4598
S'r6:NP7'
p4599
ssbsba(issf_api
Chunk
p4600
(dp4601
g3676
g1982
sg34
I8
sg3805
g1989
sg35
I3
sg3667
(lp4602
I97
aI98
aI99
aI100
asg40
(issf_api
FeatureSet
p4603
(dp4604
g12
(dp4605
S'name'
p4606
g4443
sS'drel'
p4607
S'rh:VGF2'
p4608
ssbsba(issf_api
Chunk
p4609
(dp4610
g3676
g2054
sg34
I9
sg3805
g2061
sg35
I3
sg3667
(lp4611
I101
aI102
aI103
asg40
(issf_api
FeatureSet
p4612
(dp4613
g12
(dp4614
S'name'
p4615
g4471
sS'drel'
p4616
S'jjmod:JJP'
p4617
ssbsba(issf_api
Chunk
p4618
(dp4619
g3676
g2092
sg34
I10
sg3805
g2097
sg35
I3
sg3667
(lp4620
I104
asg40
(issf_api
FeatureSet
p4621
(dp4622
g12
(dp4623
S'name'
p4624
g4465
sS'drel'
p4625
S'nmod:NP9'
p4626
ssbsba(issf_api
Chunk
p4627
(dp4628
g3676
g2111
sg34
I11
sg3805
g2118
sg35
I3
sg3667
(lp4629
I105
aI106
asg40
(issf_api
FeatureSet
p4630
(dp4631
g12
(dp4632
S'name'
p4633
g4449
sS'drel'
p4634
S'r6:NP10'
p4635
ssbsba(issf_api
Chunk
p4636
(dp4637
g3676
g2149
sg34
I12
sg3805
g2154
sg35
I3
sg3667
(lp4638
I107
asg40
(issf_api
FeatureSet
p4639
(dp4640
g12
(dp4641
S'name'
p4642
g4441
sS'drel'
p4643
S'k1:VGF2'
p4644
ssbsba(issf_api
Chunk
p4645
(dp4646
g3676
g2168
sg34
I13
sg3805
g2173
sg35
I3
sg3667
(lp4647
I108
asg40
(issf_api
FeatureSet
p4648
(dp4649
g12
(dp4650
S'name'
p4651
g4442
sS'drel'
p4652
S'pof:VGF2'
p4653
ssbsba(issf_api
Chunk
p4654
(dp4655
g3676
g2187
sg34
I14
sg3805
g2198
sg35
I3
sg3667
(lp4656
I109
aI110
asg40
(issf_api
FeatureSet
p4657
(dp4658
g12
(dp4659
S'name'
p4660
g4435
sS'drel'
p4661
S'ccof:CCP'
p4662
ssbsba(issf_api
Chunk
p4663
(dp4664
g3676
g2229
sg34
I15
sg3805
g2234
sg35
I3
sg3667
(lp4665
I111
asg40
(issf_api
FeatureSet
p4666
(dp4667
g12
(dp4668
S'name'
p4669
g4456
sS'drel'
p4670
S'rsym:VGF'
p4671
ssbsbasba(issf_api
Sentence
p4672
(dp4673
g3665
(lp4674
sg35
I4
sg3667
(lp4675
I112
aI113
aI114
aI115
aI116
aI117
aI118
aI119
aI120
aI121
aI122
aI123
aI124
aI125
aI126
aI127
aI128
aI129
aI130
aI131
aI132
aI133
aI134
asg3669
(dp4676
S'VGNN'
p4677
(issf_api
Node
p4678
(dp4679
g3674
S'ras-NEG'
p4680
sg3676
g4677
sg3677
S'VGF2'
p4681
sg3679
I-1
sg34
I5
sg3680
(lp4682
S'NP3'
p4683
aS'NP2'
p4684
asbsS'VGF'
p4685
(issf_api
Node
p4686
(dp4687
g3674
g3700
sg3676
g4685
sg3677
g3700
sg3679
I-1
sg34
I1
sg3680
(lp4688
S'CCP'
p4689
aS'BLK'
p4690
aS'NP'
p4691
asbsg4689
(issf_api
Node
p4692
(dp4693
g3674
S'k2'
p4694
sg3676
g4689
sg3677
S'VGF'
p4695
sg3679
I-1
sg34
I2
sg3680
(lp4696
S'VGF2'
p4697
asbsg4697
(issf_api
Node
p4698
(dp4699
g3674
S'ccof'
p4700
sg3676
g4697
sg3677
S'CCP'
p4701
sg3679
I-1
sg34
I10
sg3680
(lp4702
g4677
aS'NP5'
p4703
aS'NP4'
p4704
aS'NP7'
p4705
aS'NP6'
p4706
asbsg4703
(issf_api
Node
p4707
(dp4708
g3674
S'k7'
p4709
sg3676
g4703
sg3677
S'VGF2'
p4710
sg3679
I-1
sg34
I7
sg3680
(lp4711
sbsg4690
(issf_api
Node
p4712
(dp4713
g3674
S'rsym'
p4714
sg3676
g4690
sg3677
S'VGF'
p4715
sg3679
I-1
sg34
I11
sg3680
(lp4716
sbsg4691
(issf_api
Node
p4717
(dp4718
g3674
S'k1'
p4719
sg3676
g4691
sg3677
S'VGF'
p4720
sg3679
I-1
sg34
I0
sg3680
(lp4721
sbsg4704
(issf_api
Node
p4722
(dp4723
g3674
S'k1'
p4724
sg3676
g4704
sg3677
S'VGF2'
p4725
sg3679
I-1
sg34
I6
sg3680
(lp4726
sbsg4705
(issf_api
Node
p4727
(dp4728
g3674
S'k2'
p4729
sg3676
g4705
sg3677
S'VGF2'
p4730
sg3679
I-1
sg34
I9
sg3680
(lp4731
sbsg4706
(issf_api
Node
p4732
(dp4733
g3674
S'rt'
p4734
sg3676
g4706
sg3677
S'VGF2'
p4735
sg3679
I-1
sg34
I8
sg3680
(lp4736
sbsg4683
(issf_api
Node
p4737
(dp4738
g3674
S'pof'
p4739
sg3676
g4683
sg3677
S'VGNN'
p4740
sg3679
I-1
sg34
I4
sg3680
(lp4741
sbsg4684
(issf_api
Node
p4742
(dp4743
g3674
S'k7'
p4744
sg3676
g4684
sg3677
S'VGNN'
p4745
sg3679
I-1
sg34
I3
sg3680
(lp4746
sbssg3801
(lp4747
(issf_api
Chunk
p4748
(dp4749
g3676
g2250
sg34
I0
sg3805
g2259
sg35
I4
sg3667
(lp4750
I112
asg40
(issf_api
FeatureSet
p4751
(dp4752
g12
(dp4753
S'name'
p4754
g4691
sS'drel'
p4755
S'k1:VGF'
p4756
ssbsba(issf_api
Chunk
p4757
(dp4758
g3676
g2273
sg34
I1
sg3805
g2280
sg35
I4
sg3667
(lp4759
I113
asg40
(issf_api
FeatureSet
p4760
(dp4761
g12
(dp4762
S'name'
p4763
g4685
ssbsba(issf_api
Chunk
p4764
(dp4765
g3676
g2294
sg34
I2
sg3805
g2299
sg35
I4
sg3667
(lp4766
I114
asg40
(issf_api
FeatureSet
p4767
(dp4768
g12
(dp4769
S'name'
p4770
g4689
sS'drel'
p4771
S'k2:VGF'
p4772
ssbsba(issf_api
Chunk
p4773
(dp4774
g3676
g2330
sg34
I3
sg3805
g2337
sg35
I4
sg3667
(lp4775
I115
aI116
aI117
asg40
(issf_api
FeatureSet
p4776
(dp4777
g12
(dp4778
S'name'
p4779
g4684
sS'drel'
p4780
S'k7:VGNN'
p4781
ssbsba(issf_api
Chunk
p4782
(dp4783
g3676
g2368
sg34
I4
sg3805
g2373
sg35
I4
sg3667
(lp4784
I118
asg40
(issf_api
FeatureSet
p4785
(dp4786
g12
(dp4787
S'name'
p4788
g4683
sS'drel'
p4789
S'pof:VGNN'
p4790
ssbsba(issf_api
Chunk
p4791
(dp4792
g3676
g2387
sg34
I5
sg3805
g2394
sg35
I4
sg3667
(lp4793
I119
aI120
aI121
asg40
(issf_api
FeatureSet
p4794
(dp4795
g12
(dp4796
S'name'
p4797
g4677
sS'drel'
p4798
S'ras-NEG:VGF2'
p4799
ssbsba(issf_api
Chunk
p4800
(dp4801
g3676
g2444
sg34
I6
sg3805
g2455
sg35
I4
sg3667
(lp4802
I122
aI123
asg40
(issf_api
FeatureSet
p4803
(dp4804
g12
(dp4805
S'name'
p4806
g4704
sS'drel'
p4807
S'k1:VGF2'
p4808
ssbsba(issf_api
Chunk
p4809
(dp4810
g3676
g2503
sg34
I7
sg3805
g2510
sg35
I4
sg3667
(lp4811
I124
aI125
aI126
asg40
(issf_api
FeatureSet
p4812
(dp4813
g12
(dp4814
S'name'
p4815
g4703
sS'drel'
p4816
S'k7:VGF2'
p4817
ssbsba(issf_api
Chunk
p4818
(dp4819
g3676
g2541
sg34
I8
sg3805
g2548
sg35
I4
sg3667
(lp4820
I127
aI128
aI129
asg40
(issf_api
FeatureSet
p4821
(dp4822
g12
(dp4823
S'name'
p4824
g4706
sS'drel'
p4825
S'rt:VGF2'
p4826
ssbsba(issf_api
Chunk
p4827
(dp4828
g3676
g2613
sg34
I9
sg3805
g2618
sg35
I4
sg3667
(lp4829
I130
aI131
asg40
(issf_api
FeatureSet
p4830
(dp4831
g12
(dp4832
S'name'
p4833
g4705
sS'drel'
p4834
S'k2:VGF2'
p4835
ssbsba(issf_api
Chunk
p4836
(dp4837
g3676
g2632
sg34
I10
sg3805
g2643
sg35
I4
sg3667
(lp4838
I132
aI133
asg40
(issf_api
FeatureSet
p4839
(dp4840
g12
(dp4841
S'name'
p4842
g4697
sS'drel'
p4843
S'ccof:CCP'
p4844
ssbsba(issf_api
Chunk
p4845
(dp4846
g3676
g2674
sg34
I11
sg3805
g2679
sg35
I4
sg3667
(lp4847
I134
asg40
(issf_api
FeatureSet
p4848
(dp4849
g12
(dp4850
S'name'
p4851
g4690
sS'drel'
p4852
S'rsym:VGF'
p4853
ssbsbasba(issf_api
Sentence
p4854
(dp4855
g3665
(lp4856
sg35
I5
sg3667
(lp4857
I135
aI136
aI137
aI138
aI139
aI140
aI141
aI142
aI143
aI144
aI145
aI146
aI147
aI148
aI149
aI150
aI151
aI152
aI153
aI154
aI155
aI156
aI157
aI158
aI159
aI160
aI161
aI162
aI163
aI164
aI165
asg3669
(dp4858
S'VGF2'
p4859
(issf_api
Node
p4860
(dp4861
g3674
S'ccof'
p4862
sg3676
g4859
sg3677
S'CCP2'
p4863
sg3679
I-1
sg34
I14
sg3680
(lp4864
S'NP10'
p4865
aS'NP9'
p4866
aS'NP8'
p4867
aS'NP7'
p4868
asbsS'NULL__VGF'
p4869
(issf_api
Node
p4870
(dp4871
g3674
g3700
sg3676
g4869
sg3677
g3700
sg3679
I-1
sg34
I-1
sg3680
(lp4872
S'RBP'
p4873
aS'NP5'
p4874
aS'NP6'
p4875
asbsg4865
(issf_api
Node
p4876
(dp4877
g3674
S'k7p'
p4878
sg3676
g4865
sg3677
S'VGF2'
p4879
sg3679
I-1
sg34
I13
sg3680
(lp4880
sbsS'VGF'
p4881
(issf_api
Node
p4882
(dp4883
g3674
g3700
sg3676
g4881
sg3677
g3700
sg3679
I-1
sg34
I4
sg3680
(lp4884
S'CCP'
p4885
aS'BLK'
p4886
aS'NP4'
p4887
aS'NP3'
p4888
asbsg4885
(issf_api
Node
p4889
(dp4890
g3674
S'k2'
p4891
sg3676
g4885
sg3677
S'VGF'
p4892
sg3679
I-1
sg34
I5
sg3680
(lp4893
S'CCP2'
p4894
asbsg4873
(issf_api
Node
p4895
(dp4896
g3674
S'adv'
p4897
sg3676
g4873
sg3677
S'NULL__VGF'
p4898
sg3679
I-1
sg34
I6
sg3680
(lp4899
sbsg4874
(issf_api
Node
p4900
(dp4901
g3674
S'ras-k1'
p4902
sg3676
g4874
sg3677
S'NULL__VGF'
p4903
sg3679
I-1
sg34
I7
sg3680
(lp4904
sbsg4866
(issf_api
Node
p4905
(dp4906
g3674
S'k1'
p4907
sg3676
g4866
sg3677
S'VGF2'
p4908
sg3679
I-1
sg34
I12
sg3680
(lp4909
sbsg4867
(issf_api
Node
p4910
(dp4911
g3674
S'k7'
p4912
sg3676
g4867
sg3677
S'VGF2'
p4913
sg3679
I-1
sg34
I11
sg3680
(lp4914
sbsg4886
(issf_api
Node
p4915
(dp4916
g3674
S'rsym'
p4917
sg3676
g4886
sg3677
S'VGF'
p4918
sg3679
I-1
sg34
I15
sg3680
(lp4919
sbsS'NP'
p4920
(issf_api
Node
p4921
(dp4922
g3674
S'r6'
p4923
sg3676
g4920
sg3677
S'NP2'
p4924
sg3679
I-1
sg34
I0
sg3680
(lp4925
sbsg4887
(issf_api
Node
p4926
(dp4927
g3674
S'k1'
p4928
sg3676
g4887
sg3677
S'VGF'
p4929
sg3679
I-1
sg34
I3
sg3680
(lp4930
sbsg4868
(issf_api
Node
p4931
(dp4932
g3674
S'ras-k1'
p4933
sg3676
g4868
sg3677
S'VGF2'
p4934
sg3679
I-1
sg34
I10
sg3680
(lp4935
sbsg4875
(issf_api
Node
p4936
(dp4937
g3674
S'k7'
p4938
sg3676
g4875
sg3677
S'NULL__VGF'
p4939
sg3679
I-1
sg34
I8
sg3680
(lp4940
sbsg4894
(issf_api
Node
p4941
(dp4942
g3674
S'ccof'
p4943
sg3676
g4894
sg3677
S'CCP'
p4944
sg3679
I-1
sg34
I9
sg3680
(lp4945
g4859
asbsg4888
(issf_api
Node
p4946
(dp4947
g3674
S'k7'
p4948
sg3676
g4888
sg3677
S'VGF'
p4949
sg3679
I-1
sg34
I2
sg3680
(lp4950
S'NP2'
p4951
asbsg4951
(issf_api
Node
p4952
(dp4953
g3674
S'r6'
p4954
sg3676
g4951
sg3677
S'NP3'
p4955
sg3679
I-1
sg34
I1
sg3680
(lp4956
g4920
asbssg3801
(lp4957
(issf_api
Chunk
p4958
(dp4959
g3676
g2695
sg34
I0
sg3805
g2704
sg35
I5
sg3667
(lp4960
I135
asg40
(issf_api
FeatureSet
p4961
(dp4962
g12
(dp4963
S'name'
p4964
g4920
sS'drel'
p4965
S'r6:NP2'
p4966
ssbsba(issf_api
Chunk
p4967
(dp4968
g3676
g2735
sg34
I1
sg3805
g2742
sg35
I5
sg3667
(lp4969
I136
aI137
aI138
asg40
(issf_api
FeatureSet
p4970
(dp4971
g12
(dp4972
S'name'
p4973
g4951
sS'drel'
p4974
S'r6:NP3'
p4975
ssbsba(issf_api
Chunk
p4976
(dp4977
g3676
g2773
sg34
I2
sg3805
g2780
sg35
I5
sg3667
(lp4978
I139
aI140
asg40
(issf_api
FeatureSet
p4979
(dp4980
g12
(dp4981
S'name'
p4982
g4888
sS'drel'
p4983
S'k7:VGF'
p4984
ssbsba(issf_api
Chunk
p4985
(dp4986
g3676
g2832
sg34
I3
sg3805
g2843
sg35
I5
sg3667
(lp4987
I141
aI142
aI143
asg40
(issf_api
FeatureSet
p4988
(dp4989
g12
(dp4990
S'name'
p4991
g4887
sS'drel'
p4992
S'k1:VGF'
p4993
ssbsba(issf_api
Chunk
p4994
(dp4995
g3676
g2874
sg34
I4
sg3805
g2881
sg35
I5
sg3667
(lp4996
I144
asg40
(issf_api
FeatureSet
p4997
(dp4998
g12
(dp4999
S'name'
p5000
g4881
ssbsba(issf_api
Chunk
p5001
(dp5002
g3676
g2895
sg34
I5
sg3805
g2900
sg35
I5
sg3667
(lp5003
I145
asg40
(issf_api
FeatureSet
p5004
(dp5005
g12
(dp5006
S'name'
p5007
g4885
sS'drel'
p5008
S'k2:VGF'
p5009
ssbsba(issf_api
Chunk
p5010
(dp5011
g3676
g2914
sg34
I6
sg3805
g2919
sg35
I5
sg3667
(lp5012
I146
aI147
asg40
(issf_api
FeatureSet
p5013
(dp5014
g12
(dp5015
S'name'
p5016
g4873
sS'drel'
p5017
S'adv:NULL__VGF'
p5018
ssbsba(issf_api
Chunk
p5019
(dp5020
g3676
g2967
sg34
I7
sg3805
g2974
sg35
I5
sg3667
(lp5021
I148
aI149
aI150
aI151
asg40
(issf_api
FeatureSet
p5022
(dp5023
g12
(dp5024
S'name'
p5025
g4874
sS'drel'
p5026
S'ras-k1:NULL__VGF'
p5027
ssbsba(issf_api
Chunk
p5028
(dp5029
g3676
g3022
sg34
I8
sg3805
g3027
sg35
I5
sg3667
(lp5030
I152
asg40
(issf_api
FeatureSet
p5031
(dp5032
g12
(dp5033
S'name'
p5034
g4875
sS'drel'
p5035
S'k7:NULL__VGF'
p5036
ssbsba(issf_api
Chunk
p5037
(dp5038
g3676
g3041
sg34
I9
sg3805
g3046
sg35
I5
sg3667
(lp5039
I153
asg40
(issf_api
FeatureSet
p5040
(dp5041
g12
(dp5042
S'name'
p5043
g4894
sS'drel'
p5044
S'ccof:CCP'
p5045
ssbsba(issf_api
Chunk
p5046
(dp5047
g3676
g3077
sg34
I10
sg3805
g3084
sg35
I5
sg3667
(lp5048
I154
aI155
aI156
aI157
asg40
(issf_api
FeatureSet
p5049
(dp5050
g12
(dp5051
S'name'
p5052
g4868
sS'drel'
p5053
S'ras-k1:VGF2'
p5054
ssbsba(issf_api
Chunk
p5055
(dp5056
g3676
g3132
sg34
I11
sg3805
g3139
sg35
I5
sg3667
(lp5057
I158
aI159
asg40
(issf_api
FeatureSet
p5058
(dp5059
g12
(dp5060
S'name'
p5061
g4867
sS'drel'
p5062
S'k7:VGF2'
p5063
ssbsba(issf_api
Chunk
p5064
(dp5065
g3676
g3172
sg34
I12
sg3805
g3181
sg35
I5
sg3667
(lp5066
I160
asg40
(issf_api
FeatureSet
p5067
(dp5068
g12
(dp5069
S'name'
p5070
g4866
sS'drel'
p5071
S'k1:VGF2'
p5072
ssbsba(issf_api
Chunk
p5073
(dp5074
g3676
g3212
sg34
I13
sg3805
g3219
sg35
I5
sg3667
(lp5075
I161
aI162
aI163
asg40
(issf_api
FeatureSet
p5076
(dp5077
g12
(dp5078
S'name'
p5079
g4865
sS'drel'
p5080
S'k7p:VGF2'
p5081
ssbsba(issf_api
Chunk
p5082
(dp5083
g3676
g3250
sg34
I14
sg3805
g3259
sg35
I5
sg3667
(lp5084
I164
asg40
(issf_api
FeatureSet
p5085
(dp5086
g12
(dp5087
S'name'
p5088
g4859
sS'drel'
p5089
S'ccof:CCP2'
p5090
ssbsba(issf_api
Chunk
p5091
(dp5092
g3676
g3273
sg34
I15
sg3805
g3278
sg35
I5
sg3667
(lp5093
I165
asg40
(issf_api
FeatureSet
p5094
(dp5095
g12
(dp5096
S'name'
p5097
g4886
sS'drel'
p5098
S'rsym:VGF'
p5099
ssbsbasba(issf_api
Sentence
p5100
(dp5101
g3665
(lp5102
sg35
I6
sg3667
(lp5103
I166
aI167
aI168
aI169
aI170
aI171
aI172
aI173
aI174
aI175
aI176
aI177
aI178
aI179
aI180
aI181
aI182
aI183
asg3669
(dp5104
S'VGNN'
p5105
(issf_api
Node
p5106
(dp5107
g3674
S'r6'
p5108
sg3676
g5105
sg3677
S'NP6'
p5109
sg3679
I-1
sg34
I6
sg3680
(lp5110
S'NP4'
p5111
aS'NP3'
p5112
asbsS'VGF'
p5113
(issf_api
Node
p5114
(dp5115
g3674
g3700
sg3676
g5113
sg3677
g3700
sg3679
I-1
sg34
I2
sg3680
(lp5116
S'BLK'
p5117
aS'NP'
p5118
aS'NP2'
p5119
asbsS'CCP'
p5120
(issf_api
Node
p5121
(dp5122
g3674
S'rs'
p5123
sg3676
g5120
sg3677
S'NP2'
p5124
sg3679
I-1
sg34
I3
sg3680
(lp5125
S'VGF2'
p5126
asbsg5126
(issf_api
Node
p5127
(dp5128
g3674
S'ccof'
p5129
sg3676
g5126
sg3677
S'CCP'
p5130
sg3679
I-1
sg34
I9
sg3680
(lp5131
S'NP6'
p5132
asbsS'NP5'
p5133
(issf_api
Node
p5134
(dp5135
g3674
S'r6'
p5136
sg3676
g5133
sg3677
S'NP6'
p5137
sg3679
I-1
sg34
I7
sg3680
(lp5138
sbsg5117
(issf_api
Node
p5139
(dp5140
g3674
S'rsym'
p5141
sg3676
g5117
sg3677
S'VGF'
p5142
sg3679
I-1
sg34
I10
sg3680
(lp5143
sbsg5118
(issf_api
Node
p5144
(dp5145
g3674
S'k1'
p5146
sg3676
g5118
sg3677
S'VGF'
p5147
sg3679
I-1
sg34
I0
sg3680
(lp5148
sbsg5111
(issf_api
Node
p5149
(dp5150
g3674
S'k2'
p5151
sg3676
g5111
sg3677
S'VGNN'
p5152
sg3679
I-1
sg34
I5
sg3680
(lp5153
sbsg5132
(issf_api
Node
p5154
(dp5155
g3674
S'k1'
p5156
sg3676
g5132
sg3677
S'VGF2'
p5157
sg3679
I-1
sg34
I8
sg3680
(lp5158
g5105
ag5133
asbsg5112
(issf_api
Node
p5159
(dp5160
g3674
S'k7'
p5161
sg3676
g5112
sg3677
S'VGNN'
p5162
sg3679
I-1
sg34
I4
sg3680
(lp5163
sbsg5119
(issf_api
Node
p5164
(dp5165
g3674
S'k2'
p5166
sg3676
g5119
sg3677
S'VGF'
p5167
sg3679
I-1
sg34
I1
sg3680
(lp5168
g5120
asbssg3801
(lp5169
(issf_api
Chunk
p5170
(dp5171
g3676
g3294
sg34
I0
sg3805
g3303
sg35
I6
sg3667
(lp5172
I166
asg40
(issf_api
FeatureSet
p5173
(dp5174
g12
(dp5175
S'name'
p5176
g5118
sS'drel'
p5177
S'k1:VGF'
p5178
ssbsba(issf_api
Chunk
p5179
(dp5180
g3676
g3319
sg34
I1
sg3805
g3326
sg35
I6
sg3667
(lp5181
I167
aI168
asg40
(issf_api
FeatureSet
p5182
(dp5183
g12
(dp5184
S'name'
p5185
g5119
sS'drel'
p5186
S'k2:VGF'
p5187
ssbsba(issf_api
Chunk
p5188
(dp5189
g3676
g3357
sg34
I2
sg3805
g3364
sg35
I6
sg3667
(lp5190
I169
asg40
(issf_api
FeatureSet
p5191
(dp5192
g12
(dp5193
S'name'
p5194
g5113
ssbsba(issf_api
Chunk
p5195
(dp5196
g3676
g3378
sg34
I3
sg3805
g3383
sg35
I6
sg3667
(lp5197
I170
asg40
(issf_api
FeatureSet
p5198
(dp5199
g12
(dp5200
S'name'
p5201
g5120
sS'drel'
p5202
S'rs:NP2'
p5203
ssbsba(issf_api
Chunk
p5204
(dp5205
g3676
g3435
sg34
I4
sg3805
g3444
sg35
I6
sg3667
(lp5206
I171
aI172
aI173
aI174
asg40
(issf_api
FeatureSet
p5207
(dp5208
g12
(dp5209
S'name'
p5210
g5112
sS'drel'
p5211
S'k7:VGNN'
p5212
ssbsba(issf_api
Chunk
p5213
(dp5214
g3676
g3496
sg34
I5
sg3805
g3503
sg35
I6
sg3667
(lp5215
I175
aI176
asg40
(issf_api
FeatureSet
p5216
(dp5217
g12
(dp5218
S'name'
p5219
g5111
sS'drel'
p5220
S'k2:VGNN'
p5221
ssbsba(issf_api
Chunk
p5222
(dp5223
g3676
g3517
sg34
I6
sg3805
g3526
sg35
I6
sg3667
(lp5224
I177
aI178
aI179
asg40
(issf_api
FeatureSet
p5225
(dp5226
g12
(dp5227
S'name'
p5228
g5105
sS'drel'
p5229
S'r6:NP6'
p5230
ssbsba(issf_api
Chunk
p5231
(dp5232
g3676
g3580
sg34
I7
sg3805
g3589
sg35
I6
sg3667
(lp5233
I180
asg40
(issf_api
FeatureSet
p5234
(dp5235
g12
(dp5236
S'name'
p5237
g5133
sS'drel'
p5238
S'r6:NP6'
p5239
ssbsba(issf_api
Chunk
p5240
(dp5241
g3676
g3603
sg34
I8
sg3805
g3610
sg35
I6
sg3667
(lp5242
I181
asg40
(issf_api
FeatureSet
p5243
(dp5244
g12
(dp5245
S'name'
p5246
g5132
sS'drel'
p5247
S'k1:VGF2'
p5248
ssbsba(issf_api
Chunk
p5249
(dp5250
g3676
g3626
sg34
I9
sg3805
g3641
sg35
I6
sg3667
(lp5251
I182
asg40
(issf_api
FeatureSet
p5252
(dp5253
g12
(dp5254
S'name'
p5255
g5126
sS'drel'
p5256
S'ccof:CCP'
p5257
ssbsba(issf_api
Chunk
p5258
(dp5259
g3676
g3655
sg34
I10
sg3805
g3660
sg35
I6
sg3667
(lp5260
I183
asg40
(issf_api
FeatureSet
p5261
(dp5262
g12
(dp5263
S'name'
p5264
g5117
sS'drel'
p5265
S'rsym:VGF'
p5266
ssbsbasbasb.