(issf_api
SSFInfo
p0
(dp1
S'globalWordList'
p2
(lp3
(issf_api
Word
p4
(dp5
S'splitConn'
p6
I00
sS'word'
p7
V\u091d\u093e\u0930\u0916\u0902\u0921
p8
sS'extraFeatureSet'
p9
(issf_api
FeatureSet
p10
(dp11
S'featureDict'
p12
(dp13
S'crefhead'
p14
S'\xe0\xa4\x9d\xe0\xa4\xbe\xe0\xa4\xb0\xe0\xa4\x96\xe0\xa4\x82\xe0\xa4\xa1:i1'
p15
sS'posn'
p16
S'10'
p17
sS'name'
p18
S'\xe0\xa4\x9d\xe0\xa4\xbe\xe0\xa4\xb0\xe0\xa4\x96\xe0\xa4\x82\xe0\xa4\xa1'
p19
sS'af'
p20
S'\xe0\xa4\x9d\xe0\xa4\xbe\xe0\xa4\xb0\xe0\xa4\x96\xe0\xa4\x82\xe0\xa4\xa1,n,m,sg,3,o,0_\xe0\xa4\x95\xe0\xa4\xbe,0'
p21
sS'chunkid'
p22
S'NP'
p23
sS'chunktype'
p24
S'head:NP'
p25
sS'crefchainhead'
p26
S'i1:t1'
p27
sS'vpos'
p28
S'vib_2'
p29
sS'cref'
p30
S'i1%1:t1'
p31
sS'drel'
p32
S'r6:NP2'
p33
ssbsS'arg1'
p34
I00
sS'arg2'
p35
I00
sS'sense'
p36
NsS'arg1Span'
p37
NsS'chunkNum'
p38
I0
sS'sentenceNum'
p39
I0
sS'relationNum'
p40
NsS'arg2Span'
p41
NsS'wordTag'
p42
S'NNP'
p43
sS'featureSet'
p44
g10
sS'conn'
p45
I00
sba(issf_api
Word
p46
(dp47
g6
I00
sg7
V\u0915\u0947
p48
sg9
(issf_api
FeatureSet
p49
(dp50
g12
(dp51
S'posn'
p52
S'20'
p53
sS'name'
p54
S'\xe0\xa4\x95\xe0\xa5\x87'
p55
sS'drel'
p56
S'lwg__psp:NP'
p57
sS'chunktype'
p58
S'child:NP'
p59
sS'af'
p60
S'\xe0\xa4\x95\xe0\xa4\xbe,psp,m,sg,,o,,'
p61
ssbsg34
I00
sg35
I00
sg36
Nsg37
Nsg38
I0
sg39
I0
sg40
Nsg41
Nsg42
S'PSP'
p62
sg44
g49
sg45
I00
sba(issf_api
Word
p63
(dp64
g6
I00
sg7
V\u0927\u0928\u092c\u093e\u0926
p65
sg9
(issf_api
FeatureSet
p66
(dp67
g12
(dp68
S'posn'
p69
S'30'
p70
sS'name'
p71
S'\xe0\xa4\xa7\xe0\xa4\xa8\xe0\xa4\xac\xe0\xa4\xbe\xe0\xa4\xa6'
p72
sS'af'
p73
S'\xe0\xa4\xa7\xe0\xa4\xa8\xe0\xa4\xac\xe0\xa4\xbe\xe0\xa4\xa6,n,m,sg,3,d,0,0'
p74
sS'drel'
p75
S'nmod__adj:NP2'
p76
sS'chunktype'
p77
S'child:NP2'
p78
sS'cref'
p79
S'i2%0:t2'
p80
ssbsg34
I00
sg35
I00
sg36
Nsg37
Nsg38
I1
sg39
I0
sg40
Nsg41
Nsg42
S'NNP'
p81
sg44
g66
sg45
I00
sba(issf_api
Word
p82
(dp83
g6
I00
sg7
V\u091c\u093f\u0932\u0947
p84
sg9
(issf_api
FeatureSet
p85
(dp86
g12
(dp87
S'crefhead'
p88
S'\xe0\xa4\x9c\xe0\xa4\xbf\xe0\xa4\xb2\xe0\xa5\x87:i2'
p89
sS'posn'
p90
S'40'
p91
sS'name'
p92
S'\xe0\xa4\x9c\xe0\xa4\xbf\xe0\xa4\xb2\xe0\xa5\x87'
p93
sS'af'
p94
S'\xe0\xa4\x9c\xe0\xa4\xbf\xe0\xa4\xb2\xe0\xa4\xbe,n,m,sg,3,o,0_\xe0\xa4\xae\xe0\xa5\x87\xe0\xa4\x82,0'
p95
sS'chunkid'
p96
S'NP2'
p97
sS'chunktype'
p98
S'head:NP2'
p99
sS'crefchainhead'
p100
S'i2:t2'
p101
sS'vpos'
p102
S'vib_vib_3'
p103
sS'cref'
p104
S'i2%1:t2'
p105
sS'drel'
p106
S'k7p:VGF'
p107
ssbsg34
I00
sg35
I00
sg36
Nsg37
Nsg38
I1
sg39
I0
sg40
Nsg41
Nsg42
S'NN'
p108
sg44
g85
sg45
I00
sba(issf_api
Word
p109
(dp110
g6
I00
sg7
V\u092e\u0947\u0902
p111
sg9
(issf_api
FeatureSet
p112
(dp113
g12
(dp114
S'posn'
p115
S'50'
p116
sS'name'
p117
S'\xe0\xa4\xae\xe0\xa5\x87\xe0\xa4\x82'
p118
sS'drel'
p119
S'lwg__psp:NP2'
p120
sS'chunktype'
p121
S'child:NP2'
p122
sS'af'
p123
S'\xe0\xa4\xae\xe0\xa5\x87\xe0\xa4\x82,psp,,,,,,'
p124
ssbsg34
I00
sg35
I00
sg36
Nsg37
Nsg38
I1
sg39
I0
sg40
Nsg41
Nsg42
S'PSP'
p125
sg44
g112
sg45
I00
sba(issf_api
Word
p126
(dp127
g6
I00
sg7
V\u091a\u093e\u0930
p128
sg9
(issf_api
FeatureSet
p129
(dp130
g12
(dp131
S'posn'
p132
S'60'
p133
sS'name'
p134
S'\xe0\xa4\x9a\xe0\xa4\xbe\xe0\xa4\xb0'
p135
sS'af'
p136
S'\xe0\xa4\x9a\xe0\xa4\xbe\xe0\xa4\xb0,num,any,any,,any,,'
p137
sS'drel'
p138
S'nmod__adj:NP3'
p139
sS'chunktype'
p140
S'child:NP3'
p141
sS'cref'
p142
S'i3%0:t3'
p143
ssbsg34
I00
sg35
I00
sg36
Nsg37
Nsg38
I2
sg39
I0
sg40
Nsg41
Nsg42
S'QC'
p144
sg44
g129
sg45
I00
sba(issf_api
Word
p145
(dp146
g6
I00
sg7
V\u0906\u0926\u093f\u0935\u093e\u0938\u0940
p147
sg9
(issf_api
FeatureSet
p148
(dp149
g12
(dp150
S'posn'
p151
S'130'
p152
sS'name'
p153
S'\xe0\xa4\x86\xe0\xa4\xa6\xe0\xa4\xbf\xe0\xa4\xb5\xe0\xa4\xbe\xe0\xa4\xb8\xe0\xa5\x80'
p154
sS'af'
p155
S'\xe0\xa4\x86\xe0\xa4\xa6\xe0\xa4\xbf\xe0\xa4\xb5\xe0\xa4\xbe\xe0\xa4\xb8\xe0\xa5\x80,n,m,sg,3,d,0,0'
p156
sS'drel'
p157
S'nmod:NP3'
p158
sS'chunktype'
p159
S'child:NP3'
p160
sS'cref'
p161
S'i3%0:t3'
p162
ssbsg34
I00
sg35
I00
sg36
Nsg37
Nsg38
I2
sg39
I0
sg40
Nsg41
Nsg42
S'NN'
p163
sg44
g148
sg45
I00
sba(issf_api
Word
p164
(dp165
g6
I00
sg7
V\u0928\u093e\u092c\u093e\u0932\u093f\u0917
p166
sg9
(issf_api
FeatureSet
p167
(dp168
g12
(dp169
S'posn'
p170
S'80'
p171
sS'name'
p172
S'\xe0\xa4\xa8\xe0\xa4\xbe\xe0\xa4\xac\xe0\xa4\xbe\xe0\xa4\xb2\xe0\xa4\xbf\xe0\xa4\x97'
p173
sS'af'
p174
S'\xe0\xa4\xa8\xe0\xa4\xbe\xe0\xa4\xac\xe0\xa4\xbe\xe0\xa4\xb2\xe0\xa4\xbf\xe0\xa4\x97,adj,any,any,,o,,'
p175
sS'drel'
p176
S'nmod__adj:NP3'
p177
sS'chunktype'
p178
S'child:NP3'
p179
sS'cref'
p180
S'i3%0:t3'
p181
ssbsg34
I00
sg35
I00
sg36
Nsg37
Nsg38
I2
sg39
I0
sg40
Nsg41
Nsg42
S'JJ'
p182
sg44
g167
sg45
I00
sba(issf_api
Word
p183
(dp184
g6
I00
sg7
V\u0932\u0921\u093c\u0915\u093f\u092f\u094b\u0902
p185
sg9
(issf_api
FeatureSet
p186
(dp187
g12
(dp188
S'crefhead'
p189
S'\xe0\xa4\xb2\xe0\xa4\xa1\xe0\xa4\xbc\xe0\xa4\x95\xe0\xa4\xbf\xe0\xa4\xaf\xe0\xa5\x8b\xe0\xa4\x82:i3'
p190
sS'posn'
p191
S'90'
p192
sS'name'
p193
S'\xe0\xa4\xb2\xe0\xa4\xa1\xe0\xa4\xbc\xe0\xa4\x95\xe0\xa4\xbf\xe0\xa4\xaf\xe0\xa5\x8b\xe0\xa4\x82'
p194
sS'af'
p195
S'\xe0\xa4\xb2\xe0\xa4\xa1\xe0\xa4\x95\xe0\xa5\x80,n,f,pl,3,o,0_\xe0\xa4\x95\xe0\xa5\x87_\xe0\xa4\xb8\xe0\xa4\xbe\xe0\xa4\xa5,0'
p196
sS'chunkid'
p197
S'NP3'
p198
sS'chunktype'
p199
S'head:NP3'
p200
sS'crefchainhead'
p201
S'i3:t3'
p202
sS'vpos'
p203
S'vib_vib_5_6'
p204
sS'cref'
p205
S'i3%1:t3'
p206
sS'drel'
p207
S'vmod:VGF'
p208
ssbsg34
I00
sg35
I00
sg36
Nsg37
Nsg38
I2
sg39
I0
sg40
Nsg41
Nsg42
S'NN'
p209
sg44
g186
sg45
I00
sba(issf_api
Word
p210
(dp211
g6
I00
sg7
V\u0915\u0947
p212
sg9
(issf_api
FeatureSet
p213
(dp214
g12
(dp215
S'posn'
p216
S'100'
p217
sS'name'
p218
S'\xe0\xa4\x95\xe0\xa5\x872'
p219
sS'drel'
p220
S'lwg__psp:NP3'
p221
sS'chunktype'
p222
S'child:NP3'
p223
sS'af'
p224
S'\xe0\xa4\x95\xe0\xa5\x87,psp,,,,,,'
p225
ssbsg34
I00
sg35
I00
sg36
Nsg37
Nsg38
I2
sg39
I0
sg40
Nsg41
Nsg42
S'PSP'
p226
sg44
g213
sg45
I00
sba(issf_api
Word
p227
(dp228
g6
I00
sg7
V\u0938\u093e\u0925
p229
sg9
(issf_api
FeatureSet
p230
(dp231
g12
(dp232
S'posn'
p233
S'110'
p234
sS'name'
p235
S'\xe0\xa4\xb8\xe0\xa4\xbe\xe0\xa4\xa5'
p236
sS'drel'
p237
S'lwg__psp:NP3'
p238
sS'chunktype'
p239
S'child:NP3'
p240
sS'af'
p241
S'\xe0\xa4\xb8\xe0\xa4\xbe\xe0\xa4\xa5,nst,m,sg,3,d,,'
p242
ssbsg34
I00
sg35
I00
sg36
Nsg37
Nsg38
I2
sg39
I0
sg40
Nsg41
Nsg42
S'NST'
p243
sg44
g230
sg45
I00
sba(issf_api
Word
p244
(dp245
g6
I00
sg7
V\u0938\u093e\u092e\u0942\u0939\u093f\u0915
p246
sg9
(issf_api
FeatureSet
p247
(dp248
g12
(dp249
S'posn'
p250
S'120'
p251
sS'name'
p252
S'\xe0\xa4\xb8\xe0\xa4\xbe\xe0\xa4\xae\xe0\xa5\x82\xe0\xa4\xb9\xe0\xa4\xbf\xe0\xa4\x95'
p253
sS'af'
p254
S'\xe0\xa4\xb8\xe0\xa4\xbe\xe0\xa4\xae\xe0\xa5\x82\xe0\xa4\xb9\xe0\xa4\xbf\xe0\xa4\x95,adj,any,any,,o,,'
p255
sS'acrefmod'
p256
S'm1%0:i5'
p257
sS'drel'
p258
S'nmod__adj:NP4'
p259
sS'chunktype'
p260
S'child:NP4'
p261
sS'cref'
p262
S'i4%0:t4'
p263
ssbsg34
I00
sg35
I00
sg36
Nsg37
Nsg38
I3
sg39
I0
sg40
Nsg41
Nsg42
S'JJ'
p264
sg44
g247
sg45
I00
sba(issf_api
Word
p265
(dp266
g6
I00
sg7
V\u092c\u0932\u093e\u0924\u094d\u0915\u093e\u0930
p267
sg9
(issf_api
FeatureSet
p268
(dp269
g12
(dp270
S'crefhead'
p271
S'\xe0\xa4\xac\xe0\xa4\xb2\xe0\xa4\xbe\xe0\xa4\xa4\xe0\xa5\x8d\xe0\xa4\x95\xe0\xa4\xbe\xe0\xa4\xb0:i4'
p272
sS'posn'
p273
S'130'
p274
sS'name'
p275
S'\xe0\xa4\xac\xe0\xa4\xb2\xe0\xa4\xbe\xe0\xa4\xa4\xe0\xa5\x8d\xe0\xa4\x95\xe0\xa4\xbe\xe0\xa4\xb0'
p276
sS'af'
p277
S'\xe0\xa4\xac\xe0\xa4\xb2\xe0\xa4\xbe\xe0\xa4\xa4\xe0\xa5\x8d\xe0\xa4\x95\xe0\xa4\xbe\xe0\xa4\xb0,n,m,sg,3,o,0_\xe0\xa4\x95\xe0\xa4\xbe,0'
p278
sS'acrefmodhead'
p279
S'\xe0\xa4\xac\xe0\xa4\xb2\xe0\xa4\xbe\xe0\xa4\xa4\xe0\xa5\x8d\xe0\xa4\x95\xe0\xa4\xbe\xe0\xa4\xb0:m1'
p280
sS'chunkid'
p281
S'NP4'
p282
sS'acrefmod'
p283
S'm1%1:i5'
p284
sS'chunktype'
p285
S'head:NP4'
p286
sS'crefchainhead'
p287
S'i4:t4'
p288
sS'vpos'
p289
S'vib_3'
p290
sS'cref'
p291
S'i4%1:t4'
p292
sS'drel'
p293
S'r6:NP5'
p294
ssbsg34
I00
sg35
I00
sg36
Nsg37
Nsg38
I3
sg39
I0
sg40
Nsg41
Nsg42
S'NN'
p295
sg44
g268
sg45
I00
sba(issf_api
Word
p296
(dp297
g6
I00
sg7
V\u0915\u0940
p298
sg9
(issf_api
FeatureSet
p299
(dp300
g12
(dp301
S'posn'
p302
S'140'
p303
sS'name'
p304
S'\xe0\xa4\x95\xe0\xa5\x80'
p305
sS'drel'
p306
S'lwg__psp:NP4'
p307
sS'chunktype'
p308
S'child:NP4'
p309
sS'af'
p310
S'\xe0\xa4\x95\xe0\xa4\xbe,psp,f,sg,,o,,'
p311
ssbsg34
I00
sg35
I00
sg36
Nsg37
Nsg38
I3
sg39
I0
sg40
Nsg41
Nsg42
S'PSP'
p312
sg44
g299
sg45
I00
sba(issf_api
Word
p313
(dp314
g6
I00
sg7
V\u0918\u091f\u0928\u093e
p315
sg9
(issf_api
FeatureSet
p316
(dp317
g12
(dp318
S'crefhead'
p319
S'\xe0\xa4\x98\xe0\xa4\x9f\xe0\xa4\xa8\xe0\xa4\xbe:i5'
p320
sS'posn'
p321
S'150'
p322
sS'name'
p323
S'\xe0\xa4\x98\xe0\xa4\x9f\xe0\xa4\xa8\xe0\xa4\xbe'
p324
sS'af'
p325
S'\xe0\xa4\x98\xe0\xa4\x9f\xe0\xa4\xa8\xe0\xa4\xbe,n,f,sg,3,o,0_\xe0\xa4\xa8\xe0\xa5\x87,0'
p326
sS'chunkid'
p327
S'NP5'
p328
sS'crefmod'
p329
S'm1:i5'
p330
sS'chunktype'
p331
S'head:NP5'
p332
sS'crefchainhead'
p333
S'i5:t5'
p334
sS'vpos'
p335
S'vib_2'
p336
sS'cref'
p337
S'i5%1:t5'
p338
sS'drel'
p339
S'k1:VGF'
p340
ssbsg34
I00
sg35
I00
sg36
Nsg37
Nsg38
I4
sg39
I0
sg40
Nsg41
Nsg42
S'NN'
p341
sg44
g316
sg45
I00
sba(issf_api
Word
p342
(dp343
g6
I00
sg7
V\u0928\u0947
p344
sg9
(issf_api
FeatureSet
p345
(dp346
g12
(dp347
S'posn'
p348
S'160'
p349
sS'name'
p350
S'\xe0\xa4\xa8\xe0\xa5\x87'
p351
sS'drel'
p352
S'lwg__psp:NP5'
p353
sS'chunktype'
p354
S'child:NP5'
p355
sS'af'
p356
S'\xe0\xa4\xa8\xe0\xa5\x87,psp,,,,,,'
p357
ssbsg34
I00
sg35
I00
sg36
Nsg37
Nsg38
I4
sg39
I0
sg40
Nsg41
Nsg42
S'PSP'
p358
sg44
g345
sg45
I00
sba(issf_api
Word
p359
(dp360
g6
I00
sg7
V\u0938\u0941\u0930\u0915\u094d\u0937\u093e
p361
sg9
(issf_api
FeatureSet
p362
(dp363
g12
(dp364
S'posn'
p365
S'170'
p366
sS'name'
p367
S'\xe0\xa4\xb8\xe0\xa5\x81\xe0\xa4\xb0\xe0\xa4\x95\xe0\xa5\x8d\xe0\xa4\xb7\xe0\xa4\xbe'
p368
sS'drel'
p369
S'pof__cn:NP6'
p370
sS'chunktype'
p371
S'child:NP6'
p372
sS'af'
p373
S'\xe0\xa4\xb8\xe0\xa5\x81\xe0\xa4\xb0\xe0\xa4\x95\xe0\xa5\x8d\xe0\xa4\xb7\xe0\xa4\xbe,n,f,sg,3,d,0,0'
p374
ssbsg34
I00
sg35
I00
sg36
Nsg37
Nsg38
I5
sg39
I0
sg40
Nsg41
Nsg42
S'NNC'
p375
sg44
g362
sg45
I00
sba(issf_api
Word
p376
(dp377
g6
I00
sg7
V-
p378
sg9
(issf_api
FeatureSet
p379
(dp380
g12
(dp381
S'posn'
p382
S'180'
p383
sS'name'
p384
S'-'
p385
sS'drel'
p386
S'pof__cn:NP6'
p387
sS'chunktype'
p388
S'child:NP6'
p389
sS'af'
p390
S'-,punc,,,,,,'
p391
ssbsg34
I00
sg35
I00
sg36
Nsg37
Nsg38
I5
sg39
I0
sg40
Nsg41
Nsg42
S'SYM'
p392
sg44
g379
sg45
I00
sba(issf_api
Word
p393
(dp394
g6
I00
sg7
V\u0935\u094d\u092f\u0935\u0938\u094d\u0925\u093e
p395
sg9
(issf_api
FeatureSet
p396
(dp397
g12
(dp398
S'posn'
p399
S'190'
p400
sS'name'
p401
S'\xe0\xa4\xb5\xe0\xa5\x8d\xe0\xa4\xaf\xe0\xa4\xb5\xe0\xa4\xb8\xe0\xa5\x8d\xe0\xa4\xa5\xe0\xa4\xbe'
p402
sS'af'
p403
S'\xe0\xa4\xb5\xe0\xa5\x8d\xe0\xa4\xaf\xe0\xa4\xb5\xe0\xa4\xb8\xe0\xa5\x8d\xe0\xa4\xa5\xe0\xa4\xbe,n,f,sg,3,o,0_\xe0\xa4\x95\xe0\xa4\xbe,0'
p404
sS'chunkid'
p405
S'NP6'
p406
sS'drel'
p407
S'r6:NP7'
p408
sS'vpos'
p409
S'vib_4'
p410
sS'chunktype'
p411
S'head:NP6'
p412
ssbsg34
I00
sg35
I00
sg36
Nsg37
Nsg38
I5
sg39
I0
sg40
Nsg41
Nsg42
S'NN'
p413
sg44
g396
sg45
I00
sba(issf_api
Word
p414
(dp415
g6
I00
sg7
V\u0915\u0940
p416
sg9
(issf_api
FeatureSet
p417
(dp418
g12
(dp419
S'posn'
p420
S'200'
p421
sS'name'
p422
S'\xe0\xa4\x95\xe0\xa5\x802'
p423
sS'drel'
p424
S'lwg__psp:NP6'
p425
sS'chunktype'
p426
S'child:NP6'
p427
sS'af'
p428
S'\xe0\xa4\x95\xe0\xa4\xbe,psp,f,sg,,d,,'
p429
ssbsg34
I00
sg35
I00
sg36
Nsg37
Nsg38
I5
sg39
I0
sg40
Nsg41
Nsg42
S'PSP'
p430
sg44
g417
sg45
I00
sba(issf_api
Word
p431
(dp432
g6
I00
sg7
V\u0915\u0932\u0908
p433
sg9
(issf_api
FeatureSet
p434
(dp435
g12
(dp436
S'posn'
p437
S'210'
p438
sS'name'
p439
S'\xe0\xa4\x95\xe0\xa4\xb2\xe0\xa4\x88'
p440
sS'af'
p441
S'\xe0\xa4\x95\xe0\xa4\xb2\xe0\xa4\x88,n,f,sg,3,d,0,0'
p442
sS'chunkid'
p443
S'NP7'
p444
sS'drel'
p445
S'pof:VGF'
p446
sS'chunktype'
p447
S'head:NP7'
p448
ssbsg34
I00
sg35
I00
sg36
Nsg37
Nsg38
I6
sg39
I0
sg40
Nsg41
Nsg42
S'NN'
p449
sg44
g434
sg45
I00
sba(issf_api
Word
p450
(dp451
g6
I00
sg7
V\u0916\u094b\u0932
p452
sg9
(issf_api
FeatureSet
p453
(dp454
g12
(dp455
S'posn'
p456
S'220'
p457
sS'name'
p458
S'\xe0\xa4\x96\xe0\xa5\x8b\xe0\xa4\xb2'
p459
sS'af'
p460
S'\xe0\xa4\x96\xe0\xa5\x8b\xe0\xa4\xb2,v,f,sg,3,,0_\xe0\xa4\xa6\xe0\xa5\x87+\xe0\xa4\xaf\xe0\xa4\xbe_\xe0\xa4\xb9\xe0\xa5\x88,0'
p461
sS'chunkid'
p462
S'VGF'
p463
sS'chunktype'
p464
S'head:VGF'
p465
sS'voicetype'
p466
S'active'
p467
sS'vpos'
p468
S'tam_2_3'
p469
sS'stype'
p470
S'declarative'
p471
ssbsg34
I00
sg35
I00
sg36
Nsg37
Nsg38
I7
sg39
I0
sg40
Nsg41
Nsg42
S'VM'
p472
sg44
g453
sg45
I00
sba(issf_api
Word
p473
(dp474
g6
I00
sg7
V\u0926\u0940
p475
sg9
(issf_api
FeatureSet
p476
(dp477
g12
(dp478
S'posn'
p479
S'230'
p480
sS'name'
p481
S'\xe0\xa4\xa6\xe0\xa5\x80'
p482
sS'drel'
p483
S'lwg__vaux:VGF'
p484
sS'chunktype'
p485
S'child:VGF'
p486
sS'af'
p487
S'\xe0\xa4\xa6\xe0\xa5\x87,v,f,sg,any,,\xe0\xa4\xaf\xe0\xa4\xbe,yA'
p488
ssbsg34
I00
sg35
I00
sg36
Nsg37
Nsg38
I7
sg39
I0
sg40
Nsg41
Nsg42
S'VAUX'
p489
sg44
g476
sg45
I00
sba(issf_api
Word
p490
(dp491
g6
I00
sg7
V\u0939\u0948
p492
sg9
(issf_api
FeatureSet
p493
(dp494
g12
(dp495
S'posn'
p496
S'240'
p497
sS'name'
p498
S'\xe0\xa4\xb9\xe0\xa5\x88'
p499
sS'drel'
p500
S'lwg__vaux:VGF'
p501
sS'chunktype'
p502
S'child:VGF'
p503
sS'af'
p504
S'\xe0\xa4\xb9\xe0\xa5\x88,v,any,sg,3,,\xe0\xa4\xb9\xe0\xa5\x88,hE'
p505
ssbsg34
I00
sg35
I00
sg36
Nsg37
Nsg38
I7
sg39
I0
sg40
Nsg41
Nsg42
S'VAUX'
p506
sg44
g493
sg45
I00
sba(issf_api
Word
p507
(dp508
g6
I00
sg7
V\u0964
p509
sg9
(issf_api
FeatureSet
p510
(dp511
g12
(dp512
S'posn'
p513
S'250'
p514
sS'name'
p515
S'\xe0\xa5\xa4'
p516
sS'af'
p517
S'\xe0\xa5\xa4,punc,,,,,,'
p518
sS'chunkid'
p519
S'BLK'
p520
sS'drel'
p521
S'rsym:VGF'
p522
sS'chunktype'
p523
S'head:BLK'
p524
ssbsg34
I00
sg35
I00
sg36
Nsg37
Nsg38
I8
sg39
I0
sg40
Nsg41
Nsg42
S'SYM'
p525
sg44
g510
sg45
I00
sba(issf_api
Word
p526
(dp527
g6
I00
sg7
V\u092f\u0942\u0902
p528
sg9
(issf_api
FeatureSet
p529
(dp530
g12
(dp531
S'posn'
p532
S'10'
p533
sS'name'
p534
S'\xe0\xa4\xaf\xe0\xa5\x82\xe0\xa4\x82'
p535
sS'af'
p536
S'\xe0\xa4\xaf\xe0\xa5\x82\xe0\xa4\x81,adv,,,,,,'
p537
sS'chunkid'
p538
S'RBP'
p539
sS'drel'
p540
S'sent-adv:VGF'
p541
sS'chunktype'
p542
S'head:RBP'
p543
ssbsg34
I00
sg35
I00
sg36
Nsg37
Nsg38
I0
sg39
I1
sg40
Nsg41
Nsg42
S'RB'
p544
sg44
g529
sg45
I00
sba(issf_api
Word
p545
(dp546
g6
I00
sg7
V\u0924\u094b
p547
sg9
(issf_api
FeatureSet
p548
(dp549
g12
(dp550
S'posn'
p551
S'20'
p552
sS'name'
p553
S'\xe0\xa4\xa4\xe0\xa5\x8b'
p554
sS'drel'
p555
S'lwg__rp:RBP'
p556
sS'chunktype'
p557
S'child:RBP'
p558
sS'af'
p559
S'\xe0\xa4\xa4\xe0\xa5\x8b,avy,,,,,,'
p560
ssbsg34
I00
sg35
I00
sg36
Nsg37
Nsg38
I0
sg39
I1
sg40
Nsg41
Nsg42
S'RP'
p561
sg44
g548
sg45
I00
sba(issf_api
Word
p562
(dp563
g6
I00
sg7
V\u0918\u091f\u0928\u093e
p564
sg9
(issf_api
FeatureSet
p565
(dp566
g12
(dp567
S'crefhead'
p568
S'\xe0\xa4\x98\xe0\xa4\x9f\xe0\xa4\xa8\xe0\xa4\xbe:i6'
p569
sS'posn'
p570
S'30'
p571
sS'name'
p572
S'\xe0\xa4\x98\xe0\xa4\x9f\xe0\xa4\xa8\xe0\xa4\xbe'
p573
sS'af'
p574
S'\xe0\xa4\x98\xe0\xa4\x9f\xe0\xa4\xa8\xe0\xa4\xbe,n,f,sg,3,d,0,0'
p575
sS'chunkid'
p576
S'NP'
p577
sS'creftype'
p578
S'Coreference-Identity:i5'
p579
sS'chunktype'
p580
S'head:NP'
p581
sS'cref'
p582
S'i6%1:t5'
p583
sS'drel'
p584
S'k1:VGF'
p585
ssbsg34
I00
sg35
I00
sg36
Nsg37
Nsg38
I1
sg39
I1
sg40
Nsg41
Nsg42
S'NN'
p586
sg44
g565
sg45
I00
sba(issf_api
Word
p587
(dp588
g6
I00
sg7
V\u092a\u093f\u091b\u0932\u0947
p589
sg9
(issf_api
FeatureSet
p590
(dp591
g12
(dp592
S'posn'
p593
S'40'
p594
sS'name'
p595
S'\xe0\xa4\xaa\xe0\xa4\xbf\xe0\xa4\x9b\xe0\xa4\xb2\xe0\xa5\x87'
p596
sS'drel'
p597
S'nmod__adj:NP2'
p598
sS'chunktype'
p599
S'child:NP2'
p600
sS'af'
p601
S'\xe0\xa4\xaa\xe0\xa4\xbf\xe0\xa4\x9b\xe0\xa4\xb2\xe0\xa4\xbe,adj,m,sg,,o,,'
p602
ssbsg34
I00
sg35
I00
sg36
Nsg37
Nsg38
I2
sg39
I1
sg40
Nsg41
Nsg42
S'JJ'
p603
sg44
g590
sg45
I00
sba(issf_api
Word
p604
(dp605
g6
I00
sg7
V\u0938\u092a\u094d\u0924\u093e\u0939
p606
sg9
(issf_api
FeatureSet
p607
(dp608
g12
(dp609
S'posn'
p610
S'50'
p611
sS'name'
p612
S'\xe0\xa4\xb8\xe0\xa4\xaa\xe0\xa5\x8d\xe0\xa4\xa4\xe0\xa4\xbe\xe0\xa4\xb9'
p613
sS'af'
p614
S'\xe0\xa4\xb8\xe0\xa4\xaa\xe0\xa5\x8d\xe0\xa4\xa4\xe0\xa4\xbe\xe0\xa4\xb9,n,m,sg,3,o,0,0'
p615
sS'chunkid'
p616
S'NP2'
p617
sS'drel'
p618
S'k7t:VGF'
p619
sS'chunktype'
p620
S'head:NP2'
p621
ssbsg34
I00
sg35
I00
sg36
Nsg37
Nsg38
I2
sg39
I1
sg40
Nsg41
Nsg42
S'NN'
p622
sg44
g607
sg45
I00
sba(issf_api
Word
p623
(dp624
g6
I00
sg7
V\u0939\u0941\u0908
p625
sg9
(issf_api
FeatureSet
p626
(dp627
g12
(dp628
S'posn'
p629
S'60'
p630
sS'name'
p631
S'\xe0\xa4\xb9\xe0\xa5\x81\xe0\xa4\x88'
p632
sS'af'
p633
S'\xe0\xa4\xb9\xe0\xa5\x8b,v,f,sg,any,,\xe0\xa4\xaf\xe0\xa4\xbe,yA'
p634
sS'chunkid'
p635
S'VGF'
p636
sS'stype'
p637
S'declarative'
p638
sS'drel'
p639
S'ccof:CCP'
p640
sS'voicetype'
p641
S'active'
p642
sS'chunktype'
p643
S'head:VGF'
p644
ssbsg34
I00
sg35
I00
sg36
Nsg37
Nsg38
I3
sg39
I1
sg40
Nsg41
Nsg42
S'VM'
p645
sg44
g626
sg45
I00
sba(issf_api
Word
p646
(dp647
g6
I00
sg7
V,
p648
sg9
(issf_api
FeatureSet
p649
(dp650
g12
(dp651
S'posn'
p652
S'70'
p653
sS'name'
p654
S','
p655
sS'drel'
p656
S'rsym:VGF'
p657
sS'chunktype'
p658
S'child:VGF'
p659
sS'af'
p660
S'COMMA,punc,,,,,,'
p661
ssbsg34
I00
sg35
I00
sg36
Nsg37
Nsg38
I3
sg39
I1
sg40
Nsg41
Nsg42
S'SYM'
p662
sg44
g649
sg45
I00
sba(issf_api
Word
p663
(dp664
g6
I00
sg7
V\u0932\u0947\u0915\u093f\u0928
p665
sg9
(issf_api
FeatureSet
p666
(dp667
g12
(dp668
S'posn'
p669
S'80'
p670
sS'chunkid'
p671
S'CCP'
p672
sS'name'
p673
S'\xe0\xa4\xb2\xe0\xa5\x87\xe0\xa4\x95\xe0\xa4\xbf\xe0\xa4\xa8'
p674
sS'chunktype'
p675
S'head:CCP'
p676
sS'af'
p677
S'\xe0\xa4\xb2\xe0\xa5\x87\xe0\xa4\x95\xe0\xa4\xbf\xe0\xa4\xa8,avy,,,,,,'
p678
ssbsg34
I00
sg35
I00
sg36
Nsg37
Nsg38
I4
sg39
I1
sg40
Nsg41
Nsg42
S'CC'
p679
sg44
g666
sg45
I00
sba(issf_api
Word
p680
(dp681
g6
I00
sg7
V\u092e\u093e\u092e\u0932\u0947
p682
sg9
(issf_api
FeatureSet
p683
(dp684
g12
(dp685
S'posn'
p686
S'90'
p687
sS'name'
p688
S'\xe0\xa4\xae\xe0\xa4\xbe\xe0\xa4\xae\xe0\xa4\xb2\xe0\xa5\x87'
p689
sS'af'
p690
S'\xe0\xa4\xae\xe0\xa4\xbe\xe0\xa4\xae\xe0\xa4\xb2\xe0\xa4\xbe,n,m,sg,3,o,0_\xe0\xa4\xa8\xe0\xa5\x87,0'
p691
sS'chunkid'
p692
S'NP3'
p693
sS'drel'
p694
S'k1:VGF2'
p695
sS'vpos'
p696
S'vib_2'
p697
sS'chunktype'
p698
S'head:NP3'
p699
ssbsg34
I00
sg35
I00
sg36
Nsg37
Nsg38
I5
sg39
I1
sg40
Nsg41
Nsg42
S'NN'
p700
sg44
g683
sg45
I00
sba(issf_api
Word
p701
(dp702
g6
I00
sg7
V\u0928\u0947
p703
sg9
(issf_api
FeatureSet
p704
(dp705
g12
(dp706
S'posn'
p707
S'100'
p708
sS'name'
p709
S'\xe0\xa4\xa8\xe0\xa5\x87'
p710
sS'drel'
p711
S'lwg__psp:NP3'
p712
sS'chunktype'
p713
S'child:NP3'
p714
sS'af'
p715
S'\xe0\xa4\xa8\xe0\xa5\x87,psp,,,,,,'
p716
ssbsg34
I00
sg35
I00
sg36
Nsg37
Nsg38
I5
sg39
I1
sg40
Nsg41
Nsg42
S'PSP'
p717
sg44
g704
sg45
I00
sba(issf_api
Word
p718
(dp719
g6
I00
sg7
V\u0924\u092c
p720
sg9
(issf_api
FeatureSet
p721
(dp722
g12
(dp723
S'crefhead'
p724
S'\xe0\xa4\xa4\xe0\xa4\xac:i7'
p725
sS'posn'
p726
S'110'
p727
sS'name'
p728
S'\xe0\xa4\xa4\xe0\xa4\xac'
p729
sS'af'
p730
S'\xe0\xa4\xa4\xe0\xa4\xac,pn,,,,d,,'
p731
sS'chunkid'
p732
S'NP4'
p733
sS'drel'
p734
S'k7t:VGF2'
p735
sS'chunktype'
p736
S'head:NP4'
p737
sS'cref'
p738
S'i7%1:t6'
p739
ssbsg34
I00
sg35
I00
sg36
Nsg37
Nsg38
I6
sg39
I1
sg40
Nsg41
Nsg42
S'PRP'
p740
sg44
g721
sg45
I00
sba(issf_api
Word
p741
(dp742
g6
I00
sg7
V\u0924\u0942\u0932
p743
sg9
(issf_api
FeatureSet
p744
(dp745
g12
(dp746
S'posn'
p747
S'120'
p748
sS'name'
p749
S'\xe0\xa4\xa4\xe0\xa5\x82\xe0\xa4\xb2'
p750
sS'af'
p751
S'\xe0\xa4\xa4\xe0\xa5\x82\xe0\xa4\xb2,n,m,sg,3,d,0,0'
p752
sS'chunkid'
p753
S'NP5'
p754
sS'drel'
p755
S'pof:VGF2'
p756
sS'chunktype'
p757
S'head:NP5'
p758
ssbsg34
I00
sg35
I00
sg36
Nsg37
Nsg38
I7
sg39
I1
sg40
Nsg41
Nsg42
S'NN'
p759
sg44
g744
sg45
I00
sba(issf_api
Word
p760
(dp761
g6
I00
sg7
V\u092a\u0915\u0921\u093c\u093e
p762
sg9
(issf_api
FeatureSet
p763
(dp764
g12
(dp765
S'posn'
p766
S'130'
p767
sS'name'
p768
S'\xe0\xa4\xaa\xe0\xa4\x95\xe0\xa4\xa1\xe0\xa4\xbc\xe0\xa4\xbe'
p769
sS'af'
p770
S'\xe0\xa4\xaa\xe0\xa4\x95\xe0\xa4\xa1,v,m,sg,any,,\xe0\xa4\xaf\xe0\xa4\xbe,yA'
p771
sS'chunkid'
p772
S'VGF2'
p773
sS'stype'
p774
S'declarative'
p775
sS'drel'
p776
S'ccof:CCP'
p777
sS'voicetype'
p778
S'active'
p779
sS'chunktype'
p780
S'head:VGF2'
p781
ssbsg34
I00
sg35
I00
sg36
Nsg37
Nsg38
I8
sg39
I1
sg40
Nsg41
Nsg42
S'VM'
p782
sg44
g763
sg45
I00
sba(issf_api
Word
p783
(dp784
g6
I00
sg7
V\u091c\u092c
p785
sg9
(issf_api
FeatureSet
p786
(dp787
g12
(dp788
S'crefhead'
p789
S'\xe0\xa4\x9c\xe0\xa4\xac:i8'
p790
sS'posn'
p791
S'140'
p792
sS'name'
p793
S'\xe0\xa4\x9c\xe0\xa4\xac'
p794
sS'af'
p795
S'\xe0\xa4\x9c\xe0\xa4\xac,pn,,,,d,,'
p796
sS'coref'
p797
S':NP4'
p798
sS'chunkid'
p799
S'NP6'
p800
sS'creftype'
p801
S'Anaphora-T:i7'
p802
sS'chunktype'
p803
S'head:NP6'
p804
sS'cref'
p805
S'i8%1:t6'
p806
sS'drel'
p807
S'k7t:VGF3'
p808
ssbsg34
I00
sg35
I00
sg36
Nsg37
Nsg38
I9
sg39
I1
sg40
Nsg41
Nsg42
S'PRP'
p809
sg44
g786
sg45
I00
sba(issf_api
Word
p810
(dp811
g6
I00
sg7
V\u091d\u093e\u0930\u0916\u0902\u0921
p812
sg9
(issf_api
FeatureSet
p813
(dp814
g12
(dp815
S'crefhead'
p816
S'\xe0\xa4\x9d\xe0\xa4\xbe\xe0\xa4\xb0\xe0\xa4\x96\xe0\xa4\x82\xe0\xa4\xa1:i9'
p817
sS'posn'
p818
S'150'
p819
sS'name'
p820
S'\xe0\xa4\x9d\xe0\xa4\xbe\xe0\xa4\xb0\xe0\xa4\x96\xe0\xa4\x82\xe0\xa4\xa1'
p821
sS'af'
p822
S'\xe0\xa4\x9d\xe0\xa4\xbe\xe0\xa4\xb0\xe0\xa4\x96\xe0\xa4\x82\xe0\xa4\xa1,n,m,sg,3,d,0,0'
p823
sS'creftype'
p824
S'Coreference-Identity:i1'
p825
sS'drel'
p826
S'pof__cn:NP7'
p827
sS'chunktype'
p828
S'child:NP7'
p829
sS'cref'
p830
S'i9%1:t1,i10%0:t6'
p831
ssbsg34
I00
sg35
I00
sg36
Nsg37
Nsg38
I10
sg39
I1
sg40
Nsg41
Nsg42
S'NNPC'
p832
sg44
g813
sg45
I00
sba(issf_api
Word
p833
(dp834
g6
I00
sg7
V\u092e\u0941\u0915\u094d\u0924\u093f
p835
sg9
(issf_api
FeatureSet
p836
(dp837
g12
(dp838
S'posn'
p839
S'160'
p840
sS'name'
p841
S'\xe0\xa4\xae\xe0\xa5\x81\xe0\xa4\x95\xe0\xa5\x8d\xe0\xa4\xa4\xe0\xa4\xbf'
p842
sS'af'
p843
S'\xe0\xa4\xae\xe0\xa5\x81\xe0\xa4\x95\xe0\xa5\x8d\xe0\xa4\xa4\xe0\xa4\xbf,n,f,sg,3,d,0,0'
p844
sS'drel'
p845
S'pof__cn:NP7'
p846
sS'chunktype'
p847
S'child:NP7'
p848
sS'cref'
p849
S'i10%0:t6'
p850
ssbsg34
I00
sg35
I00
sg36
Nsg37
Nsg38
I10
sg39
I1
sg40
Nsg41
Nsg42
S'NNPC'
p851
sg44
g836
sg45
I00
sba(issf_api
Word
p852
(dp853
g6
I00
sg7
V\u092e\u094b\u0930\u094d\u091a\u093e
p854
sg9
(issf_api
FeatureSet
p855
(dp856
g12
(dp857
S'posn'
p858
S'170'
p859
sS'name'
p860
S'\xe0\xa4\xae\xe0\xa5\x8b\xe0\xa4\xb0\xe0\xa5\x8d\xe0\xa4\x9a\xe0\xa4\xbe'
p861
sS'af'
p862
S'\xe0\xa4\xae\xe0\xa5\x8b\xe0\xa4\xb0\xe0\xa5\x8d\xe0\xa4\x9a\xe0\xa4\xbe,n,m,sg,3,o,0_\xe0\xa4\x95\xe0\xa4\xbe,0'
p863
sS'chunkid'
p864
S'NP7'
p865
sS'drel'
p866
S'r6:NP8'
p867
sS'chunktype'
p868
S'head:NP7'
p869
sS'vpos'
p870
S'vib_4'
p871
sS'cref'
p872
S'i10%0:t6'
p873
ssbsg34
I00
sg35
I00
sg36
Nsg37
Nsg38
I10
sg39
I1
sg40
Nsg41
Nsg42
S'NNP'
p874
sg44
g855
sg45
I00
sba(issf_api
Word
p875
(dp876
g6
I00
sg7
V\u0915\u0947
p877
sg9
(issf_api
FeatureSet
p878
(dp879
g12
(dp880
S'posn'
p881
S'180'
p882
sS'name'
p883
S'\xe0\xa4\x95\xe0\xa5\x87'
p884
sS'af'
p885
S'\xe0\xa4\x95\xe0\xa4\xbe,psp,m,pl,,o,,'
p886
sS'drel'
p887
S'lwg__psp:NP7'
p888
sS'chunktype'
p889
S'child:NP7'
p890
sS'cref'
p891
S'i10%0:t6'
p892
ssbsg34
I00
sg35
I00
sg36
Nsg37
Nsg38
I10
sg39
I1
sg40
Nsg41
Nsg42
S'PSP'
p893
sg44
g878
sg45
I00
sba(issf_api
Word
p894
(dp895
g6
I00
sg7
V\u0938\u094d\u0925\u093e\u0928\u0940\u092f
p896
sg9
(issf_api
FeatureSet
p897
(dp898
g12
(dp899
S'posn'
p900
S'190'
p901
sS'name'
p902
S'\xe0\xa4\xb8\xe0\xa5\x8d\xe0\xa4\xa5\xe0\xa4\xbe\xe0\xa4\xa8\xe0\xa5\x80\xe0\xa4\xaf'
p903
sS'af'
p904
S'\xe0\xa4\xb8\xe0\xa5\x8d\xe0\xa4\xa5\xe0\xa4\xbe\xe0\xa4\xa8\xe0\xa5\x80\xe0\xa4\xaf,adj,any,any,,o,,'
p905
sS'drel'
p906
S'nmod__adj:NP8'
p907
sS'chunktype'
p908
S'child:NP8'
p909
sS'cref'
p910
S'i10%0:t6'
p911
ssbsg34
I00
sg35
I00
sg36
Nsg37
Nsg38
I11
sg39
I1
sg40
Nsg41
Nsg42
S'JJ'
p912
sg44
g897
sg45
I00
sba(issf_api
Word
p913
(dp914
g6
I00
sg7
V\u0928\u0947\u0924\u093e\u0913\u0902
p915
sg9
(issf_api
FeatureSet
p916
(dp917
g12
(dp918
S'posn'
p919
S'200'
p920
sS'name'
p921
S'\xe0\xa4\xa8\xe0\xa5\x87\xe0\xa4\xa4\xe0\xa4\xbe\xe0\xa4\x93\xe0\xa4\x82'
p922
sS'af'
p923
S'\xe0\xa4\xa8\xe0\xa5\x87\xe0\xa4\xa4\xe0\xa4\xbe,n,m,pl,3,o,0_\xe0\xa4\xa8\xe0\xa5\x87,0'
p924
sS'chunkid'
p925
S'NP8'
p926
sS'drel'
p927
S'k1:VGF3'
p928
sS'chunktype'
p929
S'head:NP8'
p930
sS'vpos'
p931
S'vib_3'
p932
sS'cref'
p933
S'i10%0:t6'
p934
ssbsg34
I00
sg35
I00
sg36
Nsg37
Nsg38
I11
sg39
I1
sg40
Nsg41
Nsg42
S'NN'
p935
sg44
g916
sg45
I00
sba(issf_api
Word
p936
(dp937
g6
I00
sg7
V\u0928\u0947
p938
sg9
(issf_api
FeatureSet
p939
(dp940
g12
(dp941
S'posn'
p942
S'210'
p943
sS'name'
p944
S'\xe0\xa4\xa8\xe0\xa5\x872'
p945
sS'af'
p946
S'\xe0\xa4\xa8\xe0\xa5\x87,psp,,,,,,'
p947
sS'drel'
p948
S'lwg__psp:NP8'
p949
sS'chunktype'
p950
S'child:NP8'
p951
sS'cref'
p952
S'i10%0:t6'
p953
ssbsg34
I00
sg35
I00
sg36
Nsg37
Nsg38
I11
sg39
I1
sg40
Nsg41
Nsg42
S'PSP'
p954
sg44
g939
sg45
I00
sba(issf_api
Word
p955
(dp956
g6
I00
sg7
V\u0907\u0938
p957
sg9
(issf_api
FeatureSet
p958
(dp959
g12
(dp960
S'posn'
p961
S'220'
p962
sS'name'
p963
S'\xe0\xa4\x87\xe0\xa4\xb8'
p964
sS'af'
p965
S'\xe0\xa4\xaf\xe0\xa4\xb9,pn,any,sg,3,o,,'
p966
sS'drel'
p967
S'nmod__adj:NP9'
p968
sS'chunktype'
p969
S'child:NP9'
p970
sS'cref'
p971
S'i10%0:t6,i11%0:t5'
p972
ssbsg34
I00
sg35
I00
sg36
Nsg37
Nsg38
I12
sg39
I1
sg40
Nsg41
Nsg42
S'DEM'
p973
sg44
g958
sg45
I00
sba(issf_api
Word
p974
(dp975
g6
I00
sg7
V\u0918\u091f\u0928\u093e
p976
sg9
(issf_api
FeatureSet
p977
(dp978
g12
(dp979
S'crefhead'
p980
S'\xe0\xa4\x98\xe0\xa4\x9f\xe0\xa4\xa8\xe0\xa4\xbe:i11'
p981
sS'posn'
p982
S'230'
p983
sS'name'
p984
S'\xe0\xa4\x98\xe0\xa4\x9f\xe0\xa4\xa8\xe0\xa4\xbe2'
p985
sS'af'
p986
S'\xe0\xa4\x98\xe0\xa4\x9f\xe0\xa4\xa8\xe0\xa4\xbe,n,f,sg,3,o,0_\xe0\xa4\x95\xe0\xa4\xbe_\xe0\xa4\x93\xe0\xa4\xb0,0'
p987
sS'chunkid'
p988
S'NP9'
p989
sS'creftype'
p990
S'Coreference-Identity:i6'
p991
sS'chunktype'
p992
S'head:NP9'
p993
sS'vpos'
p994
S'vib_3_4'
p995
sS'cref'
p996
S'i10%0:t6,i11%1:t5'
p997
sS'drel'
p998
S'rd:VGF3'
p999
ssbsg34
I00
sg35
I00
sg36
Nsg37
Nsg38
I12
sg39
I1
sg40
Nsg41
Nsg42
S'NN'
p1000
sg44
g977
sg45
I00
sba(issf_api
Word
p1001
(dp1002
g6
I00
sg7
V\u0915\u0940
p1003
sg9
(issf_api
FeatureSet
p1004
(dp1005
g12
(dp1006
S'posn'
p1007
S'240'
p1008
sS'name'
p1009
S'\xe0\xa4\x95\xe0\xa5\x80'
p1010
sS'af'
p1011
S'\xe0\xa4\x95\xe0\xa4\xbe,psp,f,sg,,d,,'
p1012
sS'drel'
p1013
S'lwg__psp:NP9'
p1014
sS'chunktype'
p1015
S'child:NP9'
p1016
sS'cref'
p1017
S'i10%0:t6'
p1018
ssbsg34
I00
sg35
I00
sg36
Nsg37
Nsg38
I12
sg39
I1
sg40
Nsg41
Nsg42
S'PSP'
p1019
sg44
g1004
sg45
I00
sba(issf_api
Word
p1020
(dp1021
g6
I00
sg7
V\u0913\u0930
p1022
sg9
(issf_api
FeatureSet
p1023
(dp1024
g12
(dp1025
S'posn'
p1026
S'250'
p1027
sS'name'
p1028
S'\xe0\xa4\x93\xe0\xa4\xb0'
p1029
sS'af'
p1030
S'\xe0\xa4\x93\xe0\xa4\xb0,nst,f,sg,3,d,,'
p1031
sS'drel'
p1032
S'lwg__psp:NP9'
p1033
sS'chunktype'
p1034
S'child:NP9'
p1035
sS'cref'
p1036
S'i10%0:t6'
p1037
ssbsg34
I00
sg35
I00
sg36
Nsg37
Nsg38
I12
sg39
I1
sg40
Nsg41
Nsg42
S'NST'
p1038
sg44
g1023
sg45
I00
sba(issf_api
Word
p1039
(dp1040
g6
I00
sg7
V\u092a\u094d\u0930\u0936\u093e\u0938\u0928
p1041
sg9
(issf_api
FeatureSet
p1042
(dp1043
g12
(dp1044
S'posn'
p1045
S'260'
p1046
sS'name'
p1047
S'\xe0\xa4\xaa\xe0\xa5\x8d\xe0\xa4\xb0\xe0\xa4\xb6\xe0\xa4\xbe\xe0\xa4\xb8\xe0\xa4\xa8'
p1048
sS'af'
p1049
S'\xe0\xa4\xaa\xe0\xa5\x8d\xe0\xa4\xb0\xe0\xa4\xb6\xe0\xa4\xbe\xe0\xa4\xb8\xe0\xa4\xa8,n,m,sg,3,o,0_\xe0\xa4\x95\xe0\xa4\xbe,0'
p1050
sS'chunkid'
p1051
S'NP10'
p1052
sS'drel'
p1053
S'r6:NP11'
p1054
sS'chunktype'
p1055
S'head:NP10'
p1056
sS'vpos'
p1057
S'vib_2'
p1058
sS'cref'
p1059
S'i10%0:t6'
p1060
ssbsg34
I00
sg35
I00
sg36
Nsg37
Nsg38
I13
sg39
I1
sg40
Nsg41
Nsg42
S'NN'
p1061
sg44
g1042
sg45
I00
sba(issf_api
Word
p1062
(dp1063
g6
I00
sg7
V\u0915\u093e
p1064
sg9
(issf_api
FeatureSet
p1065
(dp1066
g12
(dp1067
S'posn'
p1068
S'270'
p1069
sS'name'
p1070
S'\xe0\xa4\x95\xe0\xa4\xbe'
p1071
sS'af'
p1072
S'\xe0\xa4\x95\xe0\xa4\xbe,psp,m,sg,,d,,'
p1073
sS'drel'
p1074
S'lwg__psp:NP10'
p1075
sS'chunktype'
p1076
S'child:NP10'
p1077
sS'cref'
p1078
S'i10%0:t6'
p1079
ssbsg34
I00
sg35
I00
sg36
Nsg37
Nsg38
I13
sg39
I1
sg40
Nsg41
Nsg42
S'PSP'
p1080
sg44
g1065
sg45
I00
sba(issf_api
Word
p1081
(dp1082
g6
I00
sg7
V\u0927\u094d\u092f\u093e\u0928
p1083
sg9
(issf_api
FeatureSet
p1084
(dp1085
g12
(dp1086
S'posn'
p1087
S'280'
p1088
sS'name'
p1089
S'\xe0\xa4\xa7\xe0\xa5\x8d\xe0\xa4\xaf\xe0\xa4\xbe\xe0\xa4\xa8'
p1090
sS'af'
p1091
S'\xe0\xa4\xa7\xe0\xa5\x8d\xe0\xa4\xaf\xe0\xa4\xbe\xe0\xa4\xa8,n,m,sg,3,d,0,0'
p1092
sS'chunkid'
p1093
S'NP11'
p1094
sS'drel'
p1095
S'k2:VGF3'
p1096
sS'chunktype'
p1097
S'head:NP11'
p1098
sS'cref'
p1099
S'i10%0:t6'
p1100
ssbsg34
I00
sg35
I00
sg36
Nsg37
Nsg38
I14
sg39
I1
sg40
Nsg41
Nsg42
S'NN'
p1101
sg44
g1084
sg45
I00
sba(issf_api
Word
p1102
(dp1103
g6
I00
sg7
V\u0906\u0915\u0943\u0937\u094d\u091f
p1104
sg9
(issf_api
FeatureSet
p1105
(dp1106
g12
(dp1107
S'posn'
p1108
S'290'
p1109
sS'name'
p1110
S'\xe0\xa4\x86\xe0\xa4\x95\xe0\xa5\x83\xe0\xa4\xb7\xe0\xa5\x8d\xe0\xa4\x9f'
p1111
sS'af'
p1112
S'\xe0\xa4\x86\xe0\xa4\x95\xe0\xa5\x83\xe0\xa4\xb7\xe0\xa5\x8d\xe0\xa4\x9f,adj,any,any,,,,'
p1113
sS'chunkid'
p1114
S'JJP'
p1115
sS'drel'
p1116
S'pof:VGF3'
p1117
sS'chunktype'
p1118
S'head:JJP'
p1119
sS'cref'
p1120
S'i10%0:t6'
p1121
ssbsg34
I00
sg35
I00
sg36
Nsg37
Nsg38
I15
sg39
I1
sg40
Nsg41
Nsg42
S'JJ'
p1122
sg44
g1105
sg45
I00
sba(issf_api
Word
p1123
(dp1124
g6
I00
sg7
V\u0915\u093f\u092f\u093e
p1125
sg9
(issf_api
FeatureSet
p1126
(dp1127
g12
(dp1128
S'crefhead'
p1129
S'\xe0\xa4\x95\xe0\xa4\xbf\xe0\xa4\xaf\xe0\xa4\xbe:i10'
p1130
sS'posn'
p1131
S'300'
p1132
sS'name'
p1133
S'\xe0\xa4\x95\xe0\xa4\xbf\xe0\xa4\xaf\xe0\xa4\xbe'
p1134
sS'af'
p1135
S'\xe0\xa4\x95\xe0\xa4\xb0,v,m,sg,any,,\xe0\xa4\xaf\xe0\xa4\xbe,yA'
p1136
sS'chunkid'
p1137
S'VGF3'
p1138
sS'stype'
p1139
S'declarative'
p1140
sS'creftype'
p1141
S'Anaphora-RT:i8'
p1142
sS'chunktype'
p1143
S'head:VGF3'
p1144
sS'crefchainhead'
p1145
S'i10:t6'
p1146
sS'voicetype'
p1147
S'active'
p1148
sS'cref'
p1149
S'i10%1:t6'
p1150
sS'drel'
p1151
S'nmod__relc:NP4'
p1152
ssbsg34
I00
sg35
I00
sg36
Nsg37
Nsg38
I16
sg39
I1
sg40
Nsg41
Nsg42
S'VM'
p1153
sg44
g1126
sg45
I00
sba(issf_api
Word
p1154
(dp1155
g6
I00
sg7
V\u0964
p1156
sg9
(issf_api
FeatureSet
p1157
(dp1158
g12
(dp1159
S'posn'
p1160
S'310'
p1161
sS'name'
p1162
S'\xe0\xa5\xa4'
p1163
sS'af'
p1164
S'\xe0\xa5\xa4,punc,,,,,,'
p1165
sS'chunkid'
p1166
S'BLK'
p1167
sS'drel'
p1168
S'rsym:CCP'
p1169
sS'chunktype'
p1170
S'head:BLK'
p1171
ssbsg34
I00
sg35
I00
sg36
Nsg37
Nsg38
I17
sg39
I1
sg40
Nsg41
Nsg42
S'SYM'
p1172
sg44
g1157
sg45
I00
sba(issf_api
Word
p1173
(dp1174
g6
I00
sg7
V\u0938\u0942\u0924\u094d\u0930\u094b\u0902
p1175
sg9
(issf_api
FeatureSet
p1176
(dp1177
g12
(dp1178
S'posn'
p1179
S'10'
p1180
sS'name'
p1181
S'\xe0\xa4\xb8\xe0\xa5\x82\xe0\xa4\xa4\xe0\xa5\x8d\xe0\xa4\xb0\xe0\xa5\x8b\xe0\xa4\x82'
p1182
sS'af'
p1183
S'\xe0\xa4\xb8\xe0\xa5\x82\xe0\xa4\xa4\xe0\xa5\x8d\xe0\xa4\xb0,n,m,pl,3,o,0_\xe0\xa4\x95\xe0\xa5\x87_\xe0\xa4\xae\xe0\xa5\x81\xe0\xa4\xa4\xe0\xa4\xbe\xe0\xa4\xac\xe0\xa4\xbf\xe0\xa4\x95,0'
p1184
sS'chunkid'
p1185
S'NP'
p1186
sS'drel'
p1187
S'k7a:VGF'
p1188
sS'vpos'
p1189
S'vib_2_3'
p1190
sS'chunktype'
p1191
S'head:NP'
p1192
ssbsg34
I00
sg35
I00
sg36
Nsg37
Nsg38
I0
sg39
I2
sg40
Nsg41
Nsg42
S'NN'
p1193
sg44
g1176
sg45
I00
sba(issf_api
Word
p1194
(dp1195
g6
I00
sg7
V\u0915\u0947
p1196
sg9
(issf_api
FeatureSet
p1197
(dp1198
g12
(dp1199
S'posn'
p1200
S'20'
p1201
sS'name'
p1202
S'\xe0\xa4\x95\xe0\xa5\x87'
p1203
sS'drel'
p1204
S'lwg__psp:NP'
p1205
sS'chunktype'
p1206
S'child:NP'
p1207
sS'af'
p1208
S'\xe0\xa4\x95\xe0\xa5\x87,psp,,,,,,'
p1209
ssbsg34
I00
sg35
I00
sg36
Nsg37
Nsg38
I0
sg39
I2
sg40
Nsg41
Nsg42
S'PSP'
p1210
sg44
g1197
sg45
I00
sba(issf_api
Word
p1211
(dp1212
g6
I00
sg7
V\u092e\u0941\u0924\u093e\u092c\u093f\u0915
p1213
sg9
(issf_api
FeatureSet
p1214
(dp1215
g12
(dp1216
S'posn'
p1217
S'30'
p1218
sS'name'
p1219
S'\xe0\xa4\xae\xe0\xa5\x81\xe0\xa4\xa4\xe0\xa4\xbe\xe0\xa4\xac\xe0\xa4\xbf\xe0\xa4\x95'
p1220
sS'drel'
p1221
S'lwg__psp:NP'
p1222
sS'chunktype'
p1223
S'child:NP'
p1224
sS'af'
p1225
S'\xe0\xa4\xae\xe0\xa5\x81\xe0\xa4\xa4\xe0\xa4\xbe\xe0\xa4\xac\xe0\xa4\xbf\xe0\xa4\x95,psp,,,,,,'
p1226
ssbsg34
I00
sg35
I00
sg36
Nsg37
Nsg38
I0
sg39
I2
sg40
Nsg41
Nsg42
S'PSP'
p1227
sg44
g1214
sg45
I00
sba(issf_api
Word
p1228
(dp1229
g6
I00
sg7
V\u0927\u0928\u092c\u093e\u0926
p1230
sg9
(issf_api
FeatureSet
p1231
(dp1232
g12
(dp1233
S'crefhead'
p1234
S'\xe0\xa4\xa7\xe0\xa4\xa8\xe0\xa4\xac\xe0\xa4\xbe\xe0\xa4\xa6:i12'
p1235
sS'posn'
p1236
S'40'
p1237
sS'name'
p1238
S'\xe0\xa4\xa7\xe0\xa4\xa8\xe0\xa4\xac\xe0\xa4\xbe\xe0\xa4\xa6'
p1239
sS'af'
p1240
S'\xe0\xa4\xa7\xe0\xa4\xa8\xe0\xa4\xac\xe0\xa4\xbe\xe0\xa4\xa6,n,m,sg,3,o,0_\xe0\xa4\x95\xe0\xa4\xbe,0'
p1241
sS'chunkid'
p1242
S'NP2'
p1243
sS'creftype'
p1244
S'Coreference-Identity:i137:i13'
p1245
sS'chunktype'
p1246
S'head:NP2'
p1247
sS'vpos'
p1248
S'vib_2'
p1249
sS'cref'
p1250
S'i12%1:t2'
p1251
sS'drel'
p1252
S'r6:NP3'
p1253
ssbsg34
I00
sg35
I00
sg36
Nsg37
Nsg38
I1
sg39
I2
sg40
Nsg41
Nsg42
S'NNP'
p1254
sg44
g1231
sg45
I00
sba(issf_api
Word
p1255
(dp1256
g6
I00
sg7
V\u0915\u0947
p1257
sg9
(issf_api
FeatureSet
p1258
(dp1259
g12
(dp1260
S'posn'
p1261
S'50'
p1262
sS'name'
p1263
S'\xe0\xa4\x95\xe0\xa5\x872'
p1264
sS'drel'
p1265
S'lwg__psp:NP2'
p1266
sS'chunktype'
p1267
S'child:NP2'
p1268
sS'af'
p1269
S'\xe0\xa4\x95\xe0\xa4\xbe,psp,m,sg,,o,,'
p1270
ssbsg34
I00
sg35
I00
sg36
Nsg37
Nsg38
I1
sg39
I2
sg40
Nsg41
Nsg42
S'PSP'
p1271
sg44
g1258
sg45
I00
sba(issf_api
Word
p1272
(dp1273
g6
I00
sg7
V\u092a\u0939\u093e\u0921\u093c\u093e\u092c\u093e\u0926
p1274
sg9
(issf_api
FeatureSet
p1275
(dp1276
g12
(dp1277
S'posn'
p1278
S'60'
p1279
sS'name'
p1280
S'\xe0\xa4\xaa\xe0\xa4\xb9\xe0\xa4\xbe\xe0\xa4\xa1\xe0\xa4\xbc\xe0\xa4\xbe\xe0\xa4\xac\xe0\xa4\xbe\xe0\xa4\xa6'
p1281
sS'drel'
p1282
S'nmod__adj:NP3'
p1283
sS'chunktype'
p1284
S'child:NP3'
p1285
sS'af'
p1286
S'\xe0\xa4\xaa\xe0\xa4\xb9\xe0\xa4\xbe\xe0\xa4\xa1\xe0\xa4\xbc\xe0\xa4\xbe\xe0\xa4\xac\xe0\xa4\xbe\xe0\xa4\xa6,n,m,sg,3,d,0,0'
p1287
ssbsg34
I00
sg35
I00
sg36
Nsg37
Nsg38
I2
sg39
I2
sg40
Nsg41
Nsg42
S'NNP'
p1288
sg44
g1275
sg45
I00
sba(issf_api
Word
p1289
(dp1290
g6
I00
sg7
V\u0917\u093e\u0902\u0935
p1291
sg9
(issf_api
FeatureSet
p1292
(dp1293
g12
(dp1294
S'posn'
p1295
S'70'
p1296
sS'name'
p1297
S'\xe0\xa4\x97\xe0\xa4\xbe\xe0\xa4\x82\xe0\xa4\xb5'
p1298
sS'af'
p1299
S'\xe0\xa4\x97\xe0\xa4\xbe\xe0\xa4\x81\xe0\xa4\xb5,n,m,sg,3,o,0_\xe0\xa4\x95\xe0\xa5\x87_\xe0\xa4\xaa\xe0\xa4\xbe\xe0\xa4\xb8,0'
p1300
sS'chunkid'
p1301
S'NP3'
p1302
sS'drel'
p1303
S'k7p:VGF'
p1304
sS'vpos'
p1305
S'vib_vib_3_4'
p1306
sS'chunktype'
p1307
S'head:NP3'
p1308
ssbsg34
I00
sg35
I00
sg36
Nsg37
Nsg38
I2
sg39
I2
sg40
Nsg41
Nsg42
S'NN'
p1309
sg44
g1292
sg45
I00
sba(issf_api
Word
p1310
(dp1311
g6
I00
sg7
V\u0915\u0947
p1312
sg9
(issf_api
FeatureSet
p1313
(dp1314
g12
(dp1315
S'posn'
p1316
S'80'
p1317
sS'name'
p1318
S'\xe0\xa4\x95\xe0\xa5\x873'
p1319
sS'drel'
p1320
S'lwg__psp:NP3'
p1321
sS'chunktype'
p1322
S'child:NP3'
p1323
sS'af'
p1324
S'\xe0\xa4\x95\xe0\xa5\x87,psp,,,,,,'
p1325
ssbsg34
I00
sg35
I00
sg36
Nsg37
Nsg38
I2
sg39
I2
sg40
Nsg41
Nsg42
S'PSP'
p1326
sg44
g1313
sg45
I00
sba(issf_api
Word
p1327
(dp1328
g6
I00
sg7
V\u092a\u093e\u0938
p1329
sg9
(issf_api
FeatureSet
p1330
(dp1331
g12
(dp1332
S'posn'
p1333
S'90'
p1334
sS'name'
p1335
S'\xe0\xa4\xaa\xe0\xa4\xbe\xe0\xa4\xb8'
p1336
sS'drel'
p1337
S'lwg__psp:NP3'
p1338
sS'chunktype'
p1339
S'child:NP3'
p1340
sS'af'
p1341
S'\xe0\xa4\xaa\xe0\xa4\xbe\xe0\xa4\xb8,nst,m,sg,3,d,,'
p1342
ssbsg34
I00
sg35
I00
sg36
Nsg37
Nsg38
I2
sg39
I2
sg40
Nsg41
Nsg42
S'NST'
p1343
sg44
g1330
sg45
I00
sba(issf_api
Word
p1344
(dp1345
g6
I00
sg7
V\u096e
p1346
sg9
(issf_api
FeatureSet
p1347
(dp1348
g12
(dp1349
S'posn'
p1350
S'100'
p1351
sS'name'
p1352
S'\xe0\xa5\xae'
p1353
sS'af'
p1354
S'\xe0\xa5\xae,num,any,any,,any,,'
p1355
sS'drel'
p1356
S'nmod__adj:NP4'
p1357
sS'chunktype'
p1358
S'child:NP4'
p1359
sS'cref'
p1360
S'i14%0:t7'
p1361
ssbsg34
I00
sg35
I00
sg36
Nsg37
Nsg38
I3
sg39
I2
sg40
Nsg41
Nsg42
S'QC'
p1362
sg44
g1347
sg45
I00
sba(issf_api
Word
p1363
(dp1364
g6
I00
sg7
V\u092f\u0941\u0935\u0915\u094b\u0902
p1365
sg9
(issf_api
FeatureSet
p1366
(dp1367
g12
(dp1368
S'crefhead'
p1369
S'\xe0\xa4\xaf\xe0\xa5\x81\xe0\xa4\xb5\xe0\xa4\x95\xe0\xa5\x8b\xe0\xa4\x82:i14'
p1370
sS'posn'
p1371
S'110'
p1372
sS'name'
p1373
S'\xe0\xa4\xaf\xe0\xa5\x81\xe0\xa4\xb5\xe0\xa4\x95\xe0\xa5\x8b\xe0\xa4\x82'
p1374
sS'af'
p1375
S'\xe0\xa4\xaf\xe0\xa5\x81\xe0\xa4\xb5\xe0\xa4\x95,n,m,pl,3,o,0_\xe0\xa4\xa8\xe0\xa5\x87,0'
p1376
sS'chunkid'
p1377
S'NP4'
p1378
sS'chunktype'
p1379
S'head:NP4'
p1380
sS'crefchainhead'
p1381
S'i14:t7'
p1382
sS'vpos'
p1383
S'vib_3'
p1384
sS'cref'
p1385
S'i14%1:t7'
p1386
sS'drel'
p1387
S'k1:VGF'
p1388
ssbsg34
I00
sg35
I00
sg36
Nsg37
Nsg38
I3
sg39
I2
sg40
Nsg41
Nsg42
S'NN'
p1389
sg44
g1366
sg45
I00
sba(issf_api
Word
p1390
(dp1391
g6
I00
sg7
V\u0928\u0947
p1392
sg9
(issf_api
FeatureSet
p1393
(dp1394
g12
(dp1395
S'posn'
p1396
S'120'
p1397
sS'name'
p1398
S'\xe0\xa4\xa8\xe0\xa5\x87'
p1399
sS'drel'
p1400
S'lwg__psp:NP4'
p1401
sS'chunktype'
p1402
S'child:NP4'
p1403
sS'af'
p1404
S'\xe0\xa4\xa8\xe0\xa5\x87,psp,,,,,,'
p1405
ssbsg34
I00
sg35
I00
sg36
Nsg37
Nsg38
I3
sg39
I2
sg40
Nsg41
Nsg42
S'PSP'
p1406
sg44
g1393
sg45
I00
sba(issf_api
Word
p1407
(dp1408
g6
I00
sg7
V\u0907\u0928
p1409
sg9
(issf_api
FeatureSet
p1410
(dp1411
g12
(dp1412
S'posn'
p1413
S'130'
p1414
sS'name'
p1415
S'\xe0\xa4\x87\xe0\xa4\xa8'
p1416
sS'af'
p1417
S'\xe0\xa4\xaf\xe0\xa4\xb9,pn,any,pl,3,o,,'
p1418
sS'drel'
p1419
S'nmod__adj:NP5'
p1420
sS'chunktype'
p1421
S'child:NP5'
p1422
sS'cref'
p1423
S'i15%0:t3'
p1424
ssbsg34
I00
sg35
I00
sg36
Nsg37
Nsg38
I4
sg39
I2
sg40
Nsg41
Nsg42
S'DEM'
p1425
sg44
g1410
sg45
I00
sba(issf_api
Word
p1426
(dp1427
g6
I00
sg7
V\u0932\u0921\u093c\u0915\u093f\u092f\u094b\u0902
p1428
sg9
(issf_api
FeatureSet
p1429
(dp1430
g12
(dp1431
S'crefhead'
p1432
S'\xe0\xa4\xb2\xe0\xa4\xa1\xe0\xa4\xbc\xe0\xa4\x95\xe0\xa4\xbf\xe0\xa4\xaf\xe0\xa5\x8b\xe0\xa4\x82:i15'
p1433
sS'posn'
p1434
S'140'
p1435
sS'name'
p1436
S'\xe0\xa4\xb2\xe0\xa4\xa1\xe0\xa4\xbc\xe0\xa4\x95\xe0\xa4\xbf\xe0\xa4\xaf\xe0\xa5\x8b\xe0\xa4\x82'
p1437
sS'af'
p1438
S'\xe0\xa4\xb2\xe0\xa4\xa1\xe0\xa4\x95\xe0\xa5\x80,n,f,pl,3,o,0_\xe0\xa4\x95\xe0\xa5\x87_\xe0\xa4\xb8\xe0\xa4\xbe\xe0\xa4\xa5,0'
p1439
sS'chunkid'
p1440
S'NP5'
p1441
sS'creftype'
p1442
S'Coreference-Identity:i3'
p1443
sS'chunktype'
p1444
S'head:NP5'
p1445
sS'vpos'
p1446
S'vib_3_4'
p1447
sS'cref'
p1448
S'i15%1:t3'
p1449
sS'drel'
p1450
S'k2:VGF'
p1451
ssbsg34
I00
sg35
I00
sg36
Nsg37
Nsg38
I4
sg39
I2
sg40
Nsg41
Nsg42
S'NN'
p1452
sg44
g1429
sg45
I00
sba(issf_api
Word
p1453
(dp1454
g6
I00
sg7
V\u0915\u0947
p1455
sg9
(issf_api
FeatureSet
p1456
(dp1457
g12
(dp1458
S'posn'
p1459
S'150'
p1460
sS'name'
p1461
S'\xe0\xa4\x95\xe0\xa5\x874'
p1462
sS'drel'
p1463
S'lwg__psp:NP5'
p1464
sS'chunktype'
p1465
S'child:NP5'
p1466
sS'af'
p1467
S'\xe0\xa4\x95\xe0\xa5\x87,psp,,,,,,'
p1468
ssbsg34
I00
sg35
I00
sg36
Nsg37
Nsg38
I4
sg39
I2
sg40
Nsg41
Nsg42
S'PSP'
p1469
sg44
g1456
sg45
I00
sba(issf_api
Word
p1470
(dp1471
g6
I00
sg7
V\u0938\u093e\u0925
p1472
sg9
(issf_api
FeatureSet
p1473
(dp1474
g12
(dp1475
S'posn'
p1476
S'160'
p1477
sS'name'
p1478
S'\xe0\xa4\xb8\xe0\xa4\xbe\xe0\xa4\xa5'
p1479
sS'drel'
p1480
S'lwg__psp:NP5'
p1481
sS'chunktype'
p1482
S'child:NP5'
p1483
sS'af'
p1484
S'\xe0\xa4\xb8\xe0\xa4\xbe\xe0\xa4\xa5,nst,m,sg,3,d,,'
p1485
ssbsg34
I00
sg35
I00
sg36
Nsg37
Nsg38
I4
sg39
I2
sg40
Nsg41
Nsg42
S'NST'
p1486
sg44
g1473
sg45
I00
sba(issf_api
Word
p1487
(dp1488
g6
I00
sg7
V\u092c\u0932\u093e\u0924\u094d\u0915\u093e\u0930
p1489
sg9
(issf_api
FeatureSet
p1490
(dp1491
g12
(dp1492
S'crefhead'
p1493
S'\xe0\xa4\xac\xe0\xa4\xb2\xe0\xa4\xbe\xe0\xa4\xa4\xe0\xa5\x8d\xe0\xa4\x95\xe0\xa4\xbe\xe0\xa4\xb0:i16'
p1494
sS'posn'
p1495
S'170'
p1496
sS'name'
p1497
S'\xe0\xa4\xac\xe0\xa4\xb2\xe0\xa4\xbe\xe0\xa4\xa4\xe0\xa5\x8d\xe0\xa4\x95\xe0\xa4\xbe\xe0\xa4\xb0'
p1498
sS'af'
p1499
S'\xe0\xa4\xac\xe0\xa4\xb2\xe0\xa4\xbe\xe0\xa4\xa4\xe0\xa5\x8d\xe0\xa4\x95\xe0\xa4\xbe\xe0\xa4\xb0,n,m,sg,3,d,0,0'
p1500
sS'chunkid'
p1501
S'NP6'
p1502
sS'creftype'
p1503
S'Coreference-Identity:i4'
p1504
sS'chunktype'
p1505
S'head:NP6'
p1506
sS'cref'
p1507
S'i16%1:t4'
p1508
sS'drel'
p1509
S'pof:VGF'
p1510
ssbsg34
I00
sg35
I00
sg36
Nsg37
Nsg38
I5
sg39
I2
sg40
Nsg41
Nsg42
S'NN'
p1511
sg44
g1490
sg45
I00
sba(issf_api
Word
p1512
(dp1513
g6
I00
sg7
V\u0915\u093f\u092f\u093e
p1514
sg9
(issf_api
FeatureSet
p1515
(dp1516
g12
(dp1517
S'posn'
p1518
S'180'
p1519
sS'name'
p1520
S'\xe0\xa4\x95\xe0\xa4\xbf\xe0\xa4\xaf\xe0\xa4\xbe'
p1521
sS'af'
p1522
S'\xe0\xa4\x95\xe0\xa4\xb0,v,m,sg,any,,\xe0\xa4\xaf\xe0\xa4\xbe,yA'
p1523
sS'chunkid'
p1524
S'VGF'
p1525
sS'chunktype'
p1526
S'head:VGF'
p1527
sS'voicetype'
p1528
S'active'
p1529
sS'stype'
p1530
S'declarative'
p1531
ssbsg34
I00
sg35
I00
sg36
Nsg37
Nsg38
I6
sg39
I2
sg40
Nsg41
Nsg42
S'VM'
p1532
sg44
g1515
sg45
I00
sba(issf_api
Word
p1533
(dp1534
g6
I00
sg7
V\u0964
p1535
sg9
(issf_api
FeatureSet
p1536
(dp1537
g12
(dp1538
S'posn'
p1539
S'190'
p1540
sS'name'
p1541
S'\xe0\xa5\xa4'
p1542
sS'af'
p1543
S'\xe0\xa5\xa4,punc,,,,,,'
p1544
sS'chunkid'
p1545
S'BLK'
p1546
sS'drel'
p1547
S'rsym:VGF'
p1548
sS'chunktype'
p1549
S'head:BLK'
p1550
ssbsg34
I00
sg35
I00
sg36
Nsg37
Nsg38
I7
sg39
I2
sg40
Nsg41
Nsg42
S'SYM'
p1551
sg44
g1536
sg45
I00
sba(issf_api
Word
p1552
(dp1553
g6
I00
sg7
V\u092f\u0947
p1554
sg9
(issf_api
FeatureSet
p1555
(dp1556
g12
(dp1557
S'posn'
p1558
S'10'
p1559
sS'name'
p1560
S'\xe0\xa4\xaf\xe0\xa5\x87'
p1561
sS'af'
p1562
S'\xe0\xa4\xaf\xe0\xa4\xb9,pn,any,pl,3,d,,'
p1563
sS'drel'
p1564
S'nmod__adj:NP'
p1565
sS'chunktype'
p1566
S'child:NP'
p1567
sS'cref'
p1568
S'i17%0:t3'
p1569
ssbsg34
I00
sg35
I00
sg36
Nsg37
Nsg38
I0
sg39
I3
sg40
Nsg41
Nsg42
S'DEM'
p1570
sg44
g1555
sg45
I00
sba(issf_api
Word
p1571
(dp1572
g6
I00
sg7
V\u0932\u0921\u093c\u0915\u093f\u092f\u093e\u0902
p1573
sg9
(issf_api
FeatureSet
p1574
(dp1575
g12
(dp1576
S'crefhead'
p1577
S'\xe0\xa4\xb2\xe0\xa4\xa1\xe0\xa4\xbc\xe0\xa4\x95\xe0\xa4\xbf\xe0\xa4\xaf\xe0\xa4\xbe\xe0\xa4\x82:i17'
p1578
sS'posn'
p1579
S'20'
p1580
sS'name'
p1581
S'\xe0\xa4\xb2\xe0\xa4\xa1\xe0\xa4\xbc\xe0\xa4\x95\xe0\xa4\xbf\xe0\xa4\xaf\xe0\xa4\xbe\xe0\xa4\x82'
p1582
sS'af'
p1583
S'\xe0\xa4\xb2\xe0\xa4\xa1\xe0\xa4\xbc\xe0\xa4\x95\xe0\xa5\x80,n,f,pl,3,d,0,0'
p1584
sS'chunkid'
p1585
S'NP'
p1586
sS'creftype'
p1587
S'Coreference-Identity:i15'
p1588
sS'chunktype'
p1589
S'head:NP'
p1590
sS'cref'
p1591
S'i17%1:t3'
p1592
sS'drel'
p1593
S'k1:VGF'
p1594
ssbsg34
I00
sg35
I00
sg36
Nsg37
Nsg38
I0
sg39
I3
sg40
Nsg41
Nsg42
S'NN'
p1595
sg44
g1574
sg45
I00
sba(issf_api
Word
p1596
(dp1597
g6
I00
sg7
V\u092a\u093e\u0938
p1598
sg9
(issf_api
FeatureSet
p1599
(dp1600
g12
(dp1601
S'posn'
p1602
S'30'
p1603
sS'name'
p1604
S'\xe0\xa4\xaa\xe0\xa4\xbe\xe0\xa4\xb8'
p1605
sS'af'
p1606
S'\xe0\xa4\xaa\xe0\xa4\xbe\xe0\xa4\xb8,nst,m,sg,3,o,0_\xe0\xa4\x95\xe0\xa4\xbe,'
p1607
sS'chunkid'
p1608
S'NP2'
p1609
sS'drel'
p1610
S'r6:NP3'
p1611
sS'vpos'
p1612
S'2'
p1613
sS'chunktype'
p1614
S'head:NP2'
p1615
ssbsg34
I00
sg35
I00
sg36
Nsg37
Nsg38
I1
sg39
I3
sg40
Nsg41
Nsg42
S'NST'
p1616
sg44
g1599
sg45
I00
sba(issf_api
Word
p1617
(dp1618
g6
I00
sg7
V\u0915\u0940
p1619
sg9
(issf_api
FeatureSet
p1620
(dp1621
g12
(dp1622
S'posn'
p1623
S'40'
p1624
sS'name'
p1625
S'\xe0\xa4\x95\xe0\xa5\x80'
p1626
sS'drel'
p1627
S'lwg__psp:NP2'
p1628
sS'chunktype'
p1629
S'child:NP2'
p1630
sS'af'
p1631
S'\xe0\xa4\x95\xe0\xa4\xbe,psp,f,sg,,o,,'
p1632
ssbsg34
I00
sg35
I00
sg36
Nsg37
Nsg38
I1
sg39
I3
sg40
Nsg41
Nsg42
S'PSP'
p1633
sg44
g1620
sg45
I00
sba(issf_api
Word
p1634
(dp1635
g6
I00
sg7
V\u090f\u0915
p1636
sg9
(issf_api
FeatureSet
p1637
(dp1638
g12
(dp1639
S'posn'
p1640
S'50'
p1641
sS'name'
p1642
S'\xe0\xa4\x8f\xe0\xa4\x95'
p1643
sS'drel'
p1644
S'nmod__adj:NP3'
p1645
sS'chunktype'
p1646
S'child:NP3'
p1647
sS'af'
p1648
S'\xe0\xa4\x8f\xe0\xa4\x95,num,any,any,,any,,'
p1649
ssbsg34
I00
sg35
I00
sg36
Nsg37
Nsg38
I2
sg39
I3
sg40
Nsg41
Nsg42
S'QC'
p1650
sg44
g1637
sg45
I00
sba(issf_api
Word
p1651
(dp1652
g6
I00
sg7
V\u092b\u0948\u0915\u094d\u091f\u0930\u0940
p1653
sg9
(issf_api
FeatureSet
p1654
(dp1655
g12
(dp1656
S'posn'
p1657
S'60'
p1658
sS'name'
p1659
S'\xe0\xa4\xab\xe0\xa5\x88\xe0\xa4\x95\xe0\xa5\x8d\xe0\xa4\x9f\xe0\xa4\xb0\xe0\xa5\x80'
p1660
sS'af'
p1661
S'\xe0\xa4\xab\xe0\xa5\x88\xe0\xa4\x95\xe0\xa5\x8d\xe0\xa4\x9f\xe0\xa4\xb0\xe0\xa5\x80,n,f,sg,3,o,0_\xe0\xa4\xae\xe0\xa5\x87\xe0\xa4\x82,0'
p1662
sS'chunkid'
p1663
S'NP3'
p1664
sS'drel'
p1665
S'k7p:VGNF'
p1666
sS'vpos'
p1667
S'vib_3'
p1668
sS'chunktype'
p1669
S'head:NP3'
p1670
ssbsg34
I00
sg35
I00
sg36
Nsg37
Nsg38
I2
sg39
I3
sg40
Nsg41
Nsg42
S'NN'
p1671
sg44
g1654
sg45
I00
sba(issf_api
Word
p1672
(dp1673
g6
I00
sg7
V\u092e\u0947\u0902
p1674
sg9
(issf_api
FeatureSet
p1675
(dp1676
g12
(dp1677
S'posn'
p1678
S'70'
p1679
sS'name'
p1680
S'\xe0\xa4\xae\xe0\xa5\x87\xe0\xa4\x82'
p1681
sS'drel'
p1682
S'lwg__psp:NP3'
p1683
sS'chunktype'
p1684
S'child:NP3'
p1685
sS'af'
p1686
S'\xe0\xa4\xae\xe0\xa5\x87\xe0\xa4\x82,psp,,,,,,'
p1687
ssbsg34
I00
sg35
I00
sg36
Nsg37
Nsg38
I2
sg39
I3
sg40
Nsg41
Nsg42
S'PSP'
p1688
sg44
g1675
sg45
I00
sba(issf_api
Word
p1689
(dp1690
g6
I00
sg7
V\u092e\u091c\u0926\u0942\u0930\u0940
p1691
sg9
(issf_api
FeatureSet
p1692
(dp1693
g12
(dp1694
S'posn'
p1695
S'80'
p1696
sS'name'
p1697
S'\xe0\xa4\xae\xe0\xa4\x9c\xe0\xa4\xa6\xe0\xa5\x82\xe0\xa4\xb0\xe0\xa5\x80'
p1698
sS'af'
p1699
S'\xe0\xa4\xae\xe0\xa4\x9c\xe0\xa4\xa6\xe0\xa5\x82\xe0\xa4\xb0\xe0\xa5\x80,n,f,sg,3,d,0,0'
p1700
sS'chunkid'
p1701
S'NP4'
p1702
sS'drel'
p1703
S'pof:VGNF'
p1704
sS'chunktype'
p1705
S'head:NP4'
p1706
ssbsg34
I00
sg35
I00
sg36
Nsg37
Nsg38
I3
sg39
I3
sg40
Nsg41
Nsg42
S'NN'
p1707
sg44
g1692
sg45
I00
sba(issf_api
Word
p1708
(dp1709
g6
I00
sg7
V\u0915\u0930
p1710
sg9
(issf_api
FeatureSet
p1711
(dp1712
g12
(dp1713
S'posn'
p1714
S'90'
p1715
sS'name'
p1716
S'\xe0\xa4\x95\xe0\xa4\xb0'
p1717
sS'af'
p1718
S'\xe0\xa4\x95\xe0\xa4\xb0,v,any,any,any,,0,0'
p1719
sS'chunkid'
p1720
S'VGNF'
p1721
sS'drel'
p1722
S'vmod:VGF'
p1723
sS'chunktype'
p1724
S'head:VGNF'
p1725
ssbsg34
I00
sg35
I00
sg36
Nsg37
Nsg38
I4
sg39
I3
sg40
Nsg41
Nsg42
S'VM'
p1726
sg44
g1711
sg45
I00
sba(issf_api
Word
p1727
(dp1728
g6
I00
sg7
V\u0936\u093e\u092e
p1729
sg9
(issf_api
FeatureSet
p1730
(dp1731
g12
(dp1732
S'posn'
p1733
S'100'
p1734
sS'name'
p1735
S'\xe0\xa4\xb6\xe0\xa4\xbe\xe0\xa4\xae'
p1736
sS'af'
p1737
S'\xe0\xa4\xb6\xe0\xa4\xbe\xe0\xa4\xae,n,f,sg,3,o,0_\xe0\xa4\x95\xe0\xa5\x8b,0'
p1738
sS'chunkid'
p1739
S'NP5'
p1740
sS'drel'
p1741
S'k7t:VGF'
p1742
sS'vpos'
p1743
S'vib_2'
p1744
sS'chunktype'
p1745
S'head:NP5'
p1746
ssbsg34
I00
sg35
I00
sg36
Nsg37
Nsg38
I5
sg39
I3
sg40
Nsg41
Nsg42
S'NN'
p1747
sg44
g1730
sg45
I00
sba(issf_api
Word
p1748
(dp1749
g6
I00
sg7
V\u0915\u094b
p1750
sg9
(issf_api
FeatureSet
p1751
(dp1752
g12
(dp1753
S'posn'
p1754
S'110'
p1755
sS'name'
p1756
S'\xe0\xa4\x95\xe0\xa5\x8b'
p1757
sS'drel'
p1758
S'lwg__psp:NP5'
p1759
sS'chunktype'
p1760
S'child:NP5'
p1761
sS'af'
p1762
S'\xe0\xa4\x95\xe0\xa5\x8b,psp,,,,,,'
p1763
ssbsg34
I00
sg35
I00
sg36
Nsg37
Nsg38
I5
sg39
I3
sg40
Nsg41
Nsg42
S'PSP'
p1764
sg44
g1751
sg45
I00
sba(issf_api
Word
p1765
(dp1766
g6
I00
sg7
V\u0918\u0930
p1767
sg9
(issf_api
FeatureSet
p1768
(dp1769
g12
(dp1770
S'posn'
p1771
S'120'
p1772
sS'name'
p1773
S'\xe0\xa4\x98\xe0\xa4\xb0'
p1774
sS'af'
p1775
S'\xe0\xa4\x98\xe0\xa4\xb0,n,m,sg,3,d,0,0'
p1776
sS'chunkid'
p1777
S'NP6'
p1778
sS'drel'
p1779
S'k2p:VGF'
p1780
sS'chunktype'
p1781
S'head:NP6'
p1782
ssbsg34
I00
sg35
I00
sg36
Nsg37
Nsg38
I6
sg39
I3
sg40
Nsg41
Nsg42
S'NN'
p1783
sg44
g1768
sg45
I00
sba(issf_api
Word
p1784
(dp1785
g6
I00
sg7
V\u0932\u094c\u091f
p1786
sg9
(issf_api
FeatureSet
p1787
(dp1788
g12
(dp1789
S'posn'
p1790
S'130'
p1791
sS'name'
p1792
S'\xe0\xa4\xb2\xe0\xa5\x8c\xe0\xa4\x9f'
p1793
sS'af'
p1794
S'\xe0\xa4\xb2\xe0\xa5\x8c\xe0\xa4\x9f,v,f,pl,any,,0_\xe0\xa4\xb0\xe0\xa4\xb9+\xe0\xa4\xaf\xe0\xa4\xbe_\xe0\xa4\xa5\xe0\xa4\xbe,0'
p1795
sS'chunkid'
p1796
S'VGF'
p1797
sS'chunktype'
p1798
S'head:VGF'
p1799
sS'voicetype'
p1800
S'active'
p1801
sS'vpos'
p1802
S'tam_2_3'
p1803
sS'stype'
p1804
S'declarative'
p1805
ssbsg34
I00
sg35
I00
sg36
Nsg37
Nsg38
I7
sg39
I3
sg40
Nsg41
Nsg42
S'VM'
p1806
sg44
g1787
sg45
I00
sba(issf_api
Word
p1807
(dp1808
g6
I00
sg7
V\u0930\u0939\u0940\u0902
p1809
sg9
(issf_api
FeatureSet
p1810
(dp1811
g12
(dp1812
S'posn'
p1813
S'140'
p1814
sS'name'
p1815
S'\xe0\xa4\xb0\xe0\xa4\xb9\xe0\xa5\x80\xe0\xa4\x82'
p1816
sS'drel'
p1817
S'lwg__vaux:VGF'
p1818
sS'chunktype'
p1819
S'child:VGF'
p1820
sS'af'
p1821
S'\xe0\xa4\xb0\xe0\xa4\xb9,v,f,pl,any,,\xe0\xa4\xaf\xe0\xa4\xbe,yA'
p1822
ssbsg34
I00
sg35
I00
sg36
Nsg37
Nsg38
I7
sg39
I3
sg40
Nsg41
Nsg42
S'VAUX'
p1823
sg44
g1810
sg45
I00
sba(issf_api
Word
p1824
(dp1825
g6
I00
sg7
V\u0925\u0940\u0902
p1826
sg9
(issf_api
FeatureSet
p1827
(dp1828
g12
(dp1829
S'posn'
p1830
S'150'
p1831
sS'name'
p1832
S'\xe0\xa4\xa5\xe0\xa5\x80\xe0\xa4\x82'
p1833
sS'drel'
p1834
S'lwg__vaux:VGF'
p1835
sS'chunktype'
p1836
S'child:VGF'
p1837
sS'af'
p1838
S'\xe0\xa4\xa5\xe0\xa4\xbe,v,f,pl,any,,\xe0\xa4\xa5\xe0\xa4\xbe,WA'
p1839
ssbsg34
I00
sg35
I00
sg36
Nsg37
Nsg38
I7
sg39
I3
sg40
Nsg41
Nsg42
S'VAUX'
p1840
sg44
g1827
sg45
I00
sba(issf_api
Word
p1841
(dp1842
g6
I00
sg7
V\u0964
p1843
sg9
(issf_api
FeatureSet
p1844
(dp1845
g12
(dp1846
S'posn'
p1847
S'160'
p1848
sS'name'
p1849
S'\xe0\xa5\xa4'
p1850
sS'af'
p1851
S'\xe0\xa5\xa4,punc,,,,,,'
p1852
sS'chunkid'
p1853
S'BLK'
p1854
sS'drel'
p1855
S'rsym:VGF'
p1856
sS'chunktype'
p1857
S'head:BLK'
p1858
ssbsg34
I00
sg35
I00
sg36
Nsg37
Nsg38
I8
sg39
I3
sg40
Nsg41
Nsg42
S'SYM'
p1859
sg44
g1844
sg45
I00
sba(issf_api
Word
p1860
(dp1861
g6
I00
sg7
V\u092c\u0932\u093e\u0924\u094d\u0915\u093e\u0930
p1862
sg9
(issf_api
FeatureSet
p1863
(dp1864
g12
(dp1865
S'crefhead'
p1866
S'\xe0\xa4\xac\xe0\xa4\xb2\xe0\xa4\xbe\xe0\xa4\xa4\xe0\xa5\x8d\xe0\xa4\x95\xe0\xa4\xbe\xe0\xa4\xb0:i18'
p1867
sS'posn'
p1868
S'10'
p1869
sS'name'
p1870
S'\xe0\xa4\xac\xe0\xa4\xb2\xe0\xa4\xbe\xe0\xa4\xa4\xe0\xa5\x8d\xe0\xa4\x95\xe0\xa4\xbe\xe0\xa4\xb0'
p1871
sS'af'
p1872
S'\xe0\xa4\xac\xe0\xa4\xb2\xe0\xa4\xbe\xe0\xa4\xa4\xe0\xa5\x8d\xe0\xa4\x95\xe0\xa4\xbe\xe0\xa4\xb0,n,m,sg,3,o,0_\xe0\xa4\x95\xe0\xa4\xbe,0'
p1873
sS'chunkid'
p1874
S'NP'
p1875
sS'creftype'
p1876
S'Coreference-Identity:i16'
p1877
sS'chunktype'
p1878
S'head:NP'
p1879
sS'vpos'
p1880
S'vib_2'
p1881
sS'cref'
p1882
S'i18%1:t4'
p1883
sS'drel'
p1884
S'r6-k1:NP2'
p1885
ssbsg34
I00
sg35
I00
sg36
Nsg37
Nsg38
I0
sg39
I4
sg40
Nsg41
Nsg42
S'NN'
p1886
sg44
g1863
sg45
I00
sba(issf_api
Word
p1887
(dp1888
g6
I00
sg7
V\u0915\u0940
p1889
sg9
(issf_api
FeatureSet
p1890
(dp1891
g12
(dp1892
S'posn'
p1893
S'20'
p1894
sS'name'
p1895
S'\xe0\xa4\x95\xe0\xa5\x80'
p1896
sS'drel'
p1897
S'lwg__psp:NP'
p1898
sS'chunktype'
p1899
S'child:NP'
p1900
sS'af'
p1901
S'\xe0\xa4\x95\xe0\xa4\xbe,psp,f,sg,,d,,'
p1902
ssbsg34
I00
sg35
I00
sg36
Nsg37
Nsg38
I0
sg39
I4
sg40
Nsg41
Nsg42
S'PSP'
p1903
sg44
g1890
sg45
I00
sba(issf_api
Word
p1904
(dp1905
g6
I00
sg7
V\u0936\u093f\u0915\u093e\u0930
p1906
sg9
(issf_api
FeatureSet
p1907
(dp1908
g12
(dp1909
S'posn'
p1910
S'30'
p1911
sS'name'
p1912
S'\xe0\xa4\xb6\xe0\xa4\xbf\xe0\xa4\x95\xe0\xa4\xbe\xe0\xa4\xb0'
p1913
sS'af'
p1914
S'\xe0\xa4\xb6\xe0\xa4\xbf\xe0\xa4\x95\xe0\xa4\xbe\xe0\xa4\xb0,n,m,sg,3,d,0,0'
p1915
sS'chunkid'
p1916
S'NP2'
p1917
sS'drel'
p1918
S'pof:VGNF'
p1919
sS'chunktype'
p1920
S'head:NP2'
p1921
ssbsg34
I00
sg35
I00
sg36
Nsg37
Nsg38
I1
sg39
I4
sg40
Nsg41
Nsg42
S'NN'
p1922
sg44
g1907
sg45
I00
sba(issf_api
Word
p1923
(dp1924
g6
I00
sg7
V\u0939\u0941\u0908
p1925
sg9
(issf_api
FeatureSet
p1926
(dp1927
g12
(dp1928
S'posn'
p1929
S'40'
p1930
sS'name'
p1931
S'\xe0\xa4\xb9\xe0\xa5\x81\xe0\xa4\x88'
p1932
sS'af'
p1933
S'\xe0\xa4\xb9\xe0\xa5\x8b,v,f,sg,any,,\xe0\xa4\xaf\xe0\xa4\xbe,yA'
p1934
sS'chunkid'
p1935
S'VGNF'
p1936
sS'drel'
p1937
S'nmod__k2inv:NP3'
p1938
sS'chunktype'
p1939
S'head:VGNF'
p1940
ssbsg34
I00
sg35
I00
sg36
Nsg37
Nsg38
I2
sg39
I4
sg40
Nsg41
Nsg42
S'VM'
p1941
sg44
g1926
sg45
I00
sba(issf_api
Word
p1942
(dp1943
g6
I00
sg7
V\u0907\u0928
p1944
sg9
(issf_api
FeatureSet
p1945
(dp1946
g12
(dp1947
S'posn'
p1948
S'50'
p1949
sS'name'
p1950
S'\xe0\xa4\x87\xe0\xa4\xa8'
p1951
sS'af'
p1952
S'\xe0\xa4\xaf\xe0\xa4\xb9,pn,any,pl,3,o,,'
p1953
sS'drel'
p1954
S'nmod__adj:NP3'
p1955
sS'chunktype'
p1956
S'child:NP3'
p1957
sS'cref'
p1958
S'i19%0:t3'
p1959
ssbsg34
I00
sg35
I00
sg36
Nsg37
Nsg38
I3
sg39
I4
sg40
Nsg41
Nsg42
S'DEM'
p1960
sg44
g1945
sg45
I00
sba(issf_api
Word
p1961
(dp1962
g6
I00
sg7
V\u0932\u0921\u093c\u0915\u093f\u092f\u094b\u0902
p1963
sg9
(issf_api
FeatureSet
p1964
(dp1965
g12
(dp1966
S'crefhead'
p1967
S'\xe0\xa4\xb2\xe0\xa4\xa1\xe0\xa4\xbc\xe0\xa4\x95\xe0\xa4\xbf\xe0\xa4\xaf\xe0\xa5\x8b\xe0\xa4\x82:i19'
p1968
sS'posn'
p1969
S'60'
p1970
sS'name'
p1971
S'\xe0\xa4\xb2\xe0\xa4\xa1\xe0\xa4\xbc\xe0\xa4\x95\xe0\xa4\xbf\xe0\xa4\xaf\xe0\xa5\x8b\xe0\xa4\x82'
p1972
sS'af'
p1973
S'\xe0\xa4\xb2\xe0\xa4\xa1\xe0\xa4\x95\xe0\xa5\x80,n,f,pl,3,o,0_\xe0\xa4\x95\xe0\xa4\xbe,0'
p1974
sS'chunkid'
p1975
S'NP3'
p1976
sS'creftype'
p1977
S'Coreference-Identity:i17'
p1978
sS'chunktype'
p1979
S'head:NP3'
p1980
sS'vpos'
p1981
S'vib_3'
p1982
sS'cref'
p1983
S'i19%1:t3'
p1984
sS'drel'
p1985
S'r6:NP4'
p1986
ssbsg34
I00
sg35
I00
sg36
Nsg37
Nsg38
I3
sg39
I4
sg40
Nsg41
Nsg42
S'NN'
p1987
sg44
g1964
sg45
I00
sba(issf_api
Word
p1988
(dp1989
g6
I00
sg7
V\u0915\u0940
p1990
sg9
(issf_api
FeatureSet
p1991
(dp1992
g12
(dp1993
S'posn'
p1994
S'70'
p1995
sS'name'
p1996
S'\xe0\xa4\x95\xe0\xa5\x802'
p1997
sS'drel'
p1998
S'lwg__psp:NP3'
p1999
sS'chunktype'
p2000
S'child:NP3'
p2001
sS'af'
p2002
S'\xe0\xa4\x95\xe0\xa4\xbe,psp,f,sg,,d,,'
p2003
ssbsg34
I00
sg35
I00
sg36
Nsg37
Nsg38
I3
sg39
I4
sg40
Nsg41
Nsg42
S'PSP'
p2004
sg44
g1991
sg45
I00
sba(issf_api
Word
p2005
(dp2006
g6
I00
sg7
V\u0909\u092e\u094d\u0930
p2007
sg9
(issf_api
FeatureSet
p2008
(dp2009
g12
(dp2010
S'posn'
p2011
S'80'
p2012
sS'name'
p2013
S'\xe0\xa4\x89\xe0\xa4\xae\xe0\xa5\x8d\xe0\xa4\xb0'
p2014
sS'af'
p2015
S'\xe0\xa4\x89\xe0\xa4\xae\xe0\xa5\x8d\xe0\xa4\xb0,n,f,sg,3,d,0,0'
p2016
sS'chunkid'
p2017
S'NP4'
p2018
sS'drel'
p2019
S'k2:VGF'
p2020
sS'chunktype'
p2021
S'head:NP4'
p2022
ssbsg34
I00
sg35
I00
sg36
Nsg37
Nsg38
I4
sg39
I4
sg40
Nsg41
Nsg42
S'NN'
p2023
sg44
g2008
sg45
I00
sba(issf_api
Word
p2024
(dp2025
g6
I00
sg7
V\u0967\u096a
p2026
sg9
(issf_api
FeatureSet
p2027
(dp2028
g12
(dp2029
S'posn'
p2030
S'90'
p2031
sS'name'
p2032
S'\xe0\xa5\xa7\xe0\xa5\xaa'
p2033
sS'af'
p2034
S'\xe0\xa5\xa7\xe0\xa5\xaa,num,any,any,,o,0_\xe0\xa4\xb8\xe0\xa5\x87,'
p2035
sS'chunkid'
p2036
S'NP5'
p2037
sS'drel'
p2038
S'nmod:NP6'
p2039
sS'vpos'
p2040
g1613
sS'chunktype'
p2041
S'head:NP5'
p2042
ssbsg34
I00
sg35
I00
sg36
Nsg37
Nsg38
I5
sg39
I4
sg40
Nsg41
Nsg42
S'QC'
p2043
sg44
g2027
sg45
I00
sba(issf_api
Word
p2044
(dp2045
g6
I00
sg7
V\u0938\u0947
p2046
sg9
(issf_api
FeatureSet
p2047
(dp2048
g12
(dp2049
S'posn'
p2050
S'100'
p2051
sS'name'
p2052
S'\xe0\xa4\xb8\xe0\xa5\x87'
p2053
sS'drel'
p2054
S'lwg__psp:NP5'
p2055
sS'chunktype'
p2056
S'child:NP5'
p2057
sS'af'
p2058
S'\xe0\xa4\xb8\xe0\xa5\x87,psp,,,,,,'
p2059
ssbsg34
I00
sg35
I00
sg36
Nsg37
Nsg38
I5
sg39
I4
sg40
Nsg41
Nsg42
S'PSP'
p2060
sg44
g2047
sg45
I00
sba(issf_api
Word
p2061
(dp2062
g6
I00
sg7
V\u0967\u096c
p2063
sg9
(issf_api
FeatureSet
p2064
(dp2065
g12
(dp2066
S'posn'
p2067
S'110'
p2068
sS'name'
p2069
S'\xe0\xa5\xa7\xe0\xa5\xac'
p2070
sS'drel'
p2071
S'nmod__adj:NP6'
p2072
sS'chunktype'
p2073
S'child:NP6'
p2074
sS'af'
p2075
S'\xe0\xa5\xa7\xe0\xa5\xac,num,any,any,,any,,'
p2076
ssbsg34
I00
sg35
I00
sg36
Nsg37
Nsg38
I6
sg39
I4
sg40
Nsg41
Nsg42
S'QC'
p2077
sg44
g2064
sg45
I00
sba(issf_api
Word
p2078
(dp2079
g6
I00
sg7
V\u0935\u0930\u094d\u0937
p2080
sg9
(issf_api
FeatureSet
p2081
(dp2082
g12
(dp2083
S'posn'
p2084
S'120'
p2085
sS'name'
p2086
S'\xe0\xa4\xb5\xe0\xa4\xb0\xe0\xa5\x8d\xe0\xa4\xb7'
p2087
sS'af'
p2088
S'\xe0\xa4\xb5\xe0\xa4\xb0\xe0\xa5\x8d\xe0\xa4\xb7,n,m,sg,3,d,0,0'
p2089
sS'chunkid'
p2090
S'NP6'
p2091
sS'drel'
p2092
S'k2s:VGF'
p2093
sS'chunktype'
p2094
S'head:NP6'
p2095
ssbsg34
I00
sg35
I00
sg36
Nsg37
Nsg38
I6
sg39
I4
sg40
Nsg41
Nsg42
S'NN'
p2096
sg44
g2081
sg45
I00
sba(issf_api
Word
p2097
(dp2098
g6
I00
sg7
V\u092c\u0924\u093e\u0908
p2099
sg9
(issf_api
FeatureSet
p2100
(dp2101
g12
(dp2102
S'posn'
p2103
S'130'
p2104
sS'name'
p2105
S'\xe0\xa4\xac\xe0\xa4\xa4\xe0\xa4\xbe\xe0\xa4\x88'
p2106
sS'af'
p2107
S'\xe0\xa4\xac\xe0\xa4\xa4\xe0\xa4\xbe,v,f,sg,3,,\xe0\xa4\xaf\xe0\xa4\xbe_\xe0\xa4\x9c\xe0\xa4\xbe+\xe0\xa4\xaf\xe0\xa4\xbe\xe0\xa5\xa7_\xe0\xa4\xb9\xe0\xa5\x88,yA'
p2108
sS'chunkid'
p2109
S'VGF'
p2110
sS'chunktype'
p2111
S'head:VGF'
p2112
sS'voicetype'
p2113
S'passive'
p2114
sS'vpos'
p2115
S'tam_2_3'
p2116
sS'stype'
p2117
S'declarative'
p2118
ssbsg34
I00
sg35
I00
sg36
Nsg37
Nsg38
I7
sg39
I4
sg40
Nsg41
Nsg42
S'VM'
p2119
sg44
g2100
sg45
I00
sba(issf_api
Word
p2120
(dp2121
g6
I00
sg7
V\u0917\u092f\u0940
p2122
sg9
(issf_api
FeatureSet
p2123
(dp2124
g12
(dp2125
S'posn'
p2126
S'140'
p2127
sS'name'
p2128
S'\xe0\xa4\x97\xe0\xa4\xaf\xe0\xa5\x80'
p2129
sS'drel'
p2130
S'lwg__vaux:VGF'
p2131
sS'chunktype'
p2132
S'child:VGF'
p2133
sS'af'
p2134
S'\xe0\xa4\x9c\xe0\xa4\xbe,v,f,sg,any,,\xe0\xa4\xaf\xe0\xa4\xbe\xe0\xa5\xa7,yA1'
p2135
ssbsg34
I00
sg35
I00
sg36
Nsg37
Nsg38
I7
sg39
I4
sg40
Nsg41
Nsg42
S'VAUX'
p2136
sg44
g2123
sg45
I00
sba(issf_api
Word
p2137
(dp2138
g6
I00
sg7
V\u0939\u0948
p2139
sg9
(issf_api
FeatureSet
p2140
(dp2141
g12
(dp2142
S'posn'
p2143
S'150'
p2144
sS'name'
p2145
S'\xe0\xa4\xb9\xe0\xa5\x88'
p2146
sS'drel'
p2147
S'lwg__vaux:VGF'
p2148
sS'chunktype'
p2149
S'child:VGF'
p2150
sS'af'
p2151
S'\xe0\xa4\xb9\xe0\xa5\x88,v,any,sg,3,,\xe0\xa4\xb9\xe0\xa5\x88,hE'
p2152
ssbsg34
I00
sg35
I00
sg36
Nsg37
Nsg38
I7
sg39
I4
sg40
Nsg41
Nsg42
S'VAUX'
p2153
sg44
g2140
sg45
I00
sba(issf_api
Word
p2154
(dp2155
g6
I00
sg7
V\u0964
p2156
sg9
(issf_api
FeatureSet
p2157
(dp2158
g12
(dp2159
S'posn'
p2160
S'160'
p2161
sS'name'
p2162
S'\xe0\xa5\xa4'
p2163
sS'af'
p2164
S'\xe0\xa5\xa4,punc,,,,,,'
p2165
sS'chunkid'
p2166
S'BLK'
p2167
sS'drel'
p2168
S'rsym:VGF'
p2169
sS'chunktype'
p2170
S'head:BLK'
p2171
ssbsg34
I00
sg35
I00
sg36
Nsg37
Nsg38
I8
sg39
I4
sg40
Nsg41
Nsg42
S'SYM'
p2172
sg44
g2157
sg45
I00
sba(issf_api
Word
p2173
(dp2174
g6
I00
sg7
V\u090f\u0915
p2175
sg9
(issf_api
FeatureSet
p2176
(dp2177
g12
(dp2178
S'posn'
p2179
S'10'
p2180
sS'name'
p2181
S'\xe0\xa4\x8f\xe0\xa4\x95'
p2182
sS'drel'
p2183
S'nmod__adj:NP'
p2184
sS'chunktype'
p2185
S'child:NP'
p2186
sS'af'
p2187
S'\xe0\xa4\x8f\xe0\xa4\x95,num,any,any,,any,,'
p2188
ssbsg34
I00
sg35
I00
sg36
Nsg37
Nsg38
I0
sg39
I5
sg40
Nsg41
Nsg42
S'QC'
p2189
sg44
g2176
sg45
I00
sba(issf_api
Word
p2190
(dp2191
g6
I00
sg7
V\u0935\u0930\u093f\u0937\u094d\u0920
p2192
sg9
(issf_api
FeatureSet
p2193
(dp2194
g12
(dp2195
S'posn'
p2196
S'20'
p2197
sS'name'
p2198
S'\xe0\xa4\xb5\xe0\xa4\xb0\xe0\xa4\xbf\xe0\xa4\xb7\xe0\xa5\x8d\xe0\xa4\xa0'
p2199
sS'drel'
p2200
S'nmod__adj:NP'
p2201
sS'chunktype'
p2202
S'child:NP'
p2203
sS'af'
p2204
S'\xe0\xa4\xb5\xe0\xa4\xb0\xe0\xa4\xbf\xe0\xa4\xb7\xe0\xa5\x8d\xe0\xa4\xa0,adj,any,any,,d,,'
p2205
ssbsg34
I00
sg35
I00
sg36
Nsg37
Nsg38
I0
sg39
I5
sg40
Nsg41
Nsg42
S'JJ'
p2206
sg44
g2193
sg45
I00
sba(issf_api
Word
p2207
(dp2208
g6
I00
sg7
V\u092a\u0941\u0932\u093f\u0938
p2209
sg9
(issf_api
FeatureSet
p2210
(dp2211
g12
(dp2212
S'crefhead'
p2213
S'\xe0\xa4\xaa\xe0\xa5\x81\xe0\xa4\xb2\xe0\xa4\xbf\xe0\xa4\xb8:i20'
p2214
sS'posn'
p2215
S'30'
p2216
sS'name'
p2217
S'\xe0\xa4\xaa\xe0\xa5\x81\xe0\xa4\xb2\xe0\xa4\xbf\xe0\xa4\xb8'
p2218
sS'af'
p2219
S'\xe0\xa4\xaa\xe0\xa5\x81\xe0\xa4\xb2\xe0\xa4\xbf\xe0\xa4\xb8,n,f,sg,3,d,0,0'
p2220
sS'drel'
p2221
S'pof__cn:NP'
p2222
sS'crefchainhead'
p2223
S'i20:t8'
p2224
sS'chunktype'
p2225
S'child:NP'
p2226
sS'cref'
p2227
S'i20%1:t8'
p2228
ssbsg34
I00
sg35
I00
sg36
Nsg37
Nsg38
I0
sg39
I5
sg40
Nsg41
Nsg42
S'NNC'
p2229
sg44
g2210
sg45
I00
sba(issf_api
Word
p2230
(dp2231
g6
I00
sg7
V\u0905\u0927\u093f\u0915\u093e\u0930\u0940
p2232
sg9
(issf_api
FeatureSet
p2233
(dp2234
g12
(dp2235
S'posn'
p2236
S'40'
p2237
sS'name'
p2238
S'\xe0\xa4\x85\xe0\xa4\xa7\xe0\xa4\xbf\xe0\xa4\x95\xe0\xa4\xbe\xe0\xa4\xb0\xe0\xa5\x80'
p2239
sS'af'
p2240
S'\xe0\xa4\x85\xe0\xa4\xa7\xe0\xa4\xbf\xe0\xa4\x95\xe0\xa4\xbe\xe0\xa4\xb0\xe0\xa5\x80,n,m,sg,3,o,0_\xe0\xa4\xa8\xe0\xa5\x87,0'
p2241
sS'chunkid'
p2242
S'NP'
p2243
sS'drel'
p2244
S'k1:VGF'
p2245
sS'vpos'
p2246
S'vib_5'
p2247
sS'chunktype'
p2248
S'head:NP'
p2249
ssbsg34
I00
sg35
I00
sg36
Nsg37
Nsg38
I0
sg39
I5
sg40
Nsg41
Nsg42
S'NN'
p2250
sg44
g2233
sg45
I00
sba(issf_api
Word
p2251
(dp2252
g6
I00
sg7
V\u0928\u0947
p2253
sg9
(issf_api
FeatureSet
p2254
(dp2255
g12
(dp2256
S'posn'
p2257
S'50'
p2258
sS'name'
p2259
S'\xe0\xa4\xa8\xe0\xa5\x87'
p2260
sS'drel'
p2261
S'lwg__psp:NP'
p2262
sS'chunktype'
p2263
S'child:NP'
p2264
sS'af'
p2265
S'\xe0\xa4\xa8\xe0\xa5\x87,psp,,,,,,'
p2266
ssbsg34
I00
sg35
I00
sg36
Nsg37
Nsg38
I0
sg39
I5
sg40
Nsg41
Nsg42
S'PSP'
p2267
sg44
g2254
sg45
I00
sba(issf_api
Word
p2268
(dp2269
g6
I00
sg7
V\u092c\u0924\u093e\u092f\u093e
p2270
sg9
(issf_api
FeatureSet
p2271
(dp2272
g12
(dp2273
S'posn'
p2274
S'60'
p2275
sS'name'
p2276
S'\xe0\xa4\xac\xe0\xa4\xa4\xe0\xa4\xbe\xe0\xa4\xaf\xe0\xa4\xbe'
p2277
sS'af'
p2278
S'\xe0\xa4\xac\xe0\xa4\xa4\xe0\xa4\xbe,v,m,sg,any,,\xe0\xa4\xaf\xe0\xa4\xbe,yA'
p2279
sS'chunkid'
p2280
S'VGF'
p2281
sS'chunktype'
p2282
S'head:VGF'
p2283
sS'voicetype'
p2284
S'active'
p2285
sS'stype'
p2286
S'declarative'
p2287
ssbsg34
I00
sg35
I00
sg36
Nsg37
Nsg38
I1
sg39
I5
sg40
Nsg41
Nsg42
S'VM'
p2288
sg44
g2271
sg45
I00
sba(issf_api
Word
p2289
(dp2290
g6
I00
sg7
V\u0915\u093f
p2291
sg9
(issf_api
FeatureSet
p2292
(dp2293
g12
(dp2294
S'posn'
p2295
S'70'
p2296
sS'name'
p2297
S'\xe0\xa4\x95\xe0\xa4\xbf'
p2298
sS'af'
p2299
S'\xe0\xa4\x95\xe0\xa4\xbf,avy,,,,,,'
p2300
sS'chunkid'
p2301
S'CCP'
p2302
sS'drel'
p2303
S'k2:VGF'
p2304
sS'chunktype'
p2305
S'head:CCP'
p2306
ssbsg34
I00
sg35
I00
sg36
Nsg37
Nsg38
I2
sg39
I5
sg40
Nsg41
Nsg42
S'CC'
p2307
sg44
g2292
sg45
I00
sba(issf_api
Word
p2308
(dp2309
g6
I00
sg7
V\u0907\u0928
p2310
sg9
(issf_api
FeatureSet
p2311
(dp2312
g12
(dp2313
S'posn'
p2314
S'80'
p2315
sS'name'
p2316
S'\xe0\xa4\x87\xe0\xa4\xa8'
p2317
sS'drel'
p2318
S'nmod__adj:NP2'
p2319
sS'chunktype'
p2320
S'child:NP2'
p2321
sS'af'
p2322
S'\xe0\xa4\xaf\xe0\xa4\xb9,pn,any,pl,3,o,,'
p2323
ssbsg34
I00
sg35
I00
sg36
Nsg37
Nsg38
I3
sg39
I5
sg40
Nsg41
Nsg42
S'DEM'
p2324
sg44
g2311
sg45
I00
sba(issf_api
Word
p2325
(dp2326
g6
I00
sg7
V\u0906\u0920
p2327
sg9
(issf_api
FeatureSet
p2328
(dp2329
g12
(dp2330
S'posn'
p2331
S'90'
p2332
sS'name'
p2333
S'\xe0\xa4\x86\xe0\xa4\xa0'
p2334
sS'af'
p2335
S'\xe0\xa4\x86\xe0\xa4\xa0,num,any,any,,any,,'
p2336
sS'drel'
p2337
S'nmod__adj:NP2'
p2338
sS'chunktype'
p2339
S'child:NP2'
p2340
sS'cref'
p2341
S'i21%0:t7'
p2342
ssbsg34
I00
sg35
I00
sg36
Nsg37
Nsg38
I3
sg39
I5
sg40
Nsg41
Nsg42
S'QC'
p2343
sg44
g2328
sg45
I00
sba(issf_api
Word
p2344
(dp2345
g6
I00
sg7
V\u092f\u0941\u0935\u0915\u094b\u0902
p2346
sg9
(issf_api
FeatureSet
p2347
(dp2348
g12
(dp2349
S'crefhead'
p2350
S'\xe0\xa4\xaf\xe0\xa5\x81\xe0\xa4\xb5\xe0\xa4\x95\xe0\xa5\x8b\xe0\xa4\x82:i21'
p2351
sS'posn'
p2352
S'100'
p2353
sS'name'
p2354
S'\xe0\xa4\xaf\xe0\xa5\x81\xe0\xa4\xb5\xe0\xa4\x95\xe0\xa5\x8b\xe0\xa4\x82'
p2355
sS'af'
p2356
S'\xe0\xa4\xaf\xe0\xa5\x81\xe0\xa4\xb5\xe0\xa4\x95,n,m,pl,3,o,0_\xe0\xa4\xa8\xe0\xa5\x87,0'
p2357
sS'chunkid'
p2358
S'NP2'
p2359
sS'creftype'
p2360
S'Coreference-Identity:i14'
p2361
sS'chunktype'
p2362
S'head:NP2'
p2363
sS'vpos'
p2364
S'vib_4'
p2365
sS'cref'
p2366
S'i21%1:t7'
p2367
sS'drel'
p2368
S'k1:VGF2'
p2369
ssbsg34
I00
sg35
I00
sg36
Nsg37
Nsg38
I3
sg39
I5
sg40
Nsg41
Nsg42
S'NN'
p2370
sg44
g2347
sg45
I00
sba(issf_api
Word
p2371
(dp2372
g6
I00
sg7
V\u0928\u0947
p2373
sg9
(issf_api
FeatureSet
p2374
(dp2375
g12
(dp2376
S'posn'
p2377
S'110'
p2378
sS'name'
p2379
S'\xe0\xa4\xa8\xe0\xa5\x872'
p2380
sS'drel'
p2381
S'lwg__psp:NP2'
p2382
sS'chunktype'
p2383
S'child:NP2'
p2384
sS'af'
p2385
S'\xe0\xa4\xa8\xe0\xa5\x87,psp,,,,,,'
p2386
ssbsg34
I00
sg35
I00
sg36
Nsg37
Nsg38
I3
sg39
I5
sg40
Nsg41
Nsg42
S'PSP'
p2387
sg44
g2374
sg45
I00
sba(issf_api
Word
p2388
(dp2389
g6
I00
sg7
V\u092c\u0902\u0926\u0942\u0915
p2390
sg9
(issf_api
FeatureSet
p2391
(dp2392
g12
(dp2393
S'crefhead'
p2394
S'\xe0\xa4\xac\xe0\xa4\x82\xe0\xa4\xa6\xe0\xa5\x82\xe0\xa4\x95:i22'
p2395
sS'posn'
p2396
S'120'
p2397
sS'name'
p2398
S'\xe0\xa4\xac\xe0\xa4\x82\xe0\xa4\xa6\xe0\xa5\x82\xe0\xa4\x95'
p2399
sS'af'
p2400
S'\xe0\xa4\xac\xe0\xa4\x82\xe0\xa4\xa6\xe0\xa5\x82\xe0\xa4\x95,n,f,sg,3,o,0_\xe0\xa4\x95\xe0\xa4\xbe,0'
p2401
sS'chunkid'
p2402
S'NP3'
p2403
sS'chunktype'
p2404
S'head:NP3'
p2405
sS'crefchainhead'
p2406
S'i22:t9'
p2407
sS'vpos'
p2408
S'vib_2'
p2409
sS'cref'
p2410
S'i22%1:t9'
p2411
sS'drel'
p2412
S'r6:NP4'
p2413
ssbsg34
I00
sg35
I00
sg36
Nsg37
Nsg38
I4
sg39
I5
sg40
Nsg41
Nsg42
S'NN'
p2414
sg44
g2391
sg45
I00
sba(issf_api
Word
p2415
(dp2416
g6
I00
sg7
V\u0915\u0940
p2417
sg9
(issf_api
FeatureSet
p2418
(dp2419
g12
(dp2420
S'posn'
p2421
S'130'
p2422
sS'name'
p2423
S'\xe0\xa4\x95\xe0\xa5\x80'
p2424
sS'drel'
p2425
S'lwg__psp:NP3'
p2426
sS'chunktype'
p2427
S'child:NP3'
p2428
sS'af'
p2429
S'\xe0\xa4\x95\xe0\xa4\xbe,psp,f,sg,,o,,'
p2430
ssbsg34
I00
sg35
I00
sg36
Nsg37
Nsg38
I4
sg39
I5
sg40
Nsg41
Nsg42
S'PSP'
p2431
sg44
g2418
sg45
I00
sba(issf_api
Word
p2432
(dp2433
g6
I00
sg7
V\u0928\u094b\u0902\u0915
p2434
sg9
(issf_api
FeatureSet
p2435
(dp2436
g12
(dp2437
S'posn'
p2438
S'140'
p2439
sS'name'
p2440
S'\xe0\xa4\xa8\xe0\xa5\x8b\xe0\xa4\x82\xe0\xa4\x95'
p2441
sS'af'
p2442
S'\xe0\xa4\xa8\xe0\xa5\x8b\xe0\xa4\x82\xe0\xa4\x95,n,f,sg,3,o,0_\xe0\xa4\xaa\xe0\xa4\xb0,0'
p2443
sS'chunkid'
p2444
S'NP4'
p2445
sS'drel'
p2446
S'k7:VGF2'
p2447
sS'vpos'
p2448
S'vib_2'
p2449
sS'chunktype'
p2450
S'head:NP4'
p2451
ssbsg34
I00
sg35
I00
sg36
Nsg37
Nsg38
I5
sg39
I5
sg40
Nsg41
Nsg42
S'NN'
p2452
sg44
g2435
sg45
I00
sba(issf_api
Word
p2453
(dp2454
g6
I00
sg7
V\u092a\u0930
p2455
sg9
(issf_api
FeatureSet
p2456
(dp2457
g12
(dp2458
S'posn'
p2459
S'150'
p2460
sS'name'
p2461
S'\xe0\xa4\xaa\xe0\xa4\xb0'
p2462
sS'drel'
p2463
S'lwg__psp:NP4'
p2464
sS'chunktype'
p2465
S'child:NP4'
p2466
sS'af'
p2467
S'\xe0\xa4\xaa\xe0\xa4\xb0,psp,,,,,,'
p2468
ssbsg34
I00
sg35
I00
sg36
Nsg37
Nsg38
I5
sg39
I5
sg40
Nsg41
Nsg42
S'PSP'
p2469
sg44
g2456
sg45
I00
sba(issf_api
Word
p2470
(dp2471
g6
I00
sg7
V\u0907\u0928
p2472
sg9
(issf_api
FeatureSet
p2473
(dp2474
g12
(dp2475
S'posn'
p2476
S'160'
p2477
sS'name'
p2478
S'\xe0\xa4\x87\xe0\xa4\xa82'
p2479
sS'af'
p2480
S'\xe0\xa4\xaf\xe0\xa4\xb9,pn,any,pl,3,o,,'
p2481
sS'drel'
p2482
S'nmod__adj:NP5'
p2483
sS'chunktype'
p2484
S'child:NP5'
p2485
sS'cref'
p2486
S'i23%0:t3'
p2487
ssbsg34
I00
sg35
I00
sg36
Nsg37
Nsg38
I6
sg39
I5
sg40
Nsg41
Nsg42
S'DEM'
p2488
sg44
g2473
sg45
I00
sba(issf_api
Word
p2489
(dp2490
g6
I00
sg7
V\u0932\u0921\u093c\u0915\u093f\u092f\u094b\u0902
p2491
sg9
(issf_api
FeatureSet
p2492
(dp2493
g12
(dp2494
S'crefhead'
p2495
S'\xe0\xa4\xb2\xe0\xa4\xa1\xe0\xa4\xbc\xe0\xa4\x95\xe0\xa4\xbf\xe0\xa4\xaf\xe0\xa5\x8b\xe0\xa4\x82:i23'
p2496
sS'posn'
p2497
S'170'
p2498
sS'name'
p2499
S'\xe0\xa4\xb2\xe0\xa4\xa1\xe0\xa4\xbc\xe0\xa4\x95\xe0\xa4\xbf\xe0\xa4\xaf\xe0\xa5\x8b\xe0\xa4\x82'
p2500
sS'af'
p2501
S'\xe0\xa4\xb2\xe0\xa4\xa1\xe0\xa4\x95\xe0\xa5\x80,n,f,pl,3,o,0_\xe0\xa4\x95\xe0\xa5\x87_\xe0\xa4\xb8\xe0\xa4\xbe\xe0\xa4\xa5,0'
p2502
sS'chunkid'
p2503
S'NP5'
p2504
sS'creftype'
p2505
S'Coreference-Identity:i19'
p2506
sS'chunktype'
p2507
S'head:NP5'
p2508
sS'vpos'
p2509
S'vib_3_4'
p2510
sS'cref'
p2511
S'i23%1:t3'
p2512
sS'drel'
p2513
S'k2:VGF2'
p2514
ssbsg34
I00
sg35
I00
sg36
Nsg37
Nsg38
I6
sg39
I5
sg40
Nsg41
Nsg42
S'NN'
p2515
sg44
g2492
sg45
I00
sba(issf_api
Word
p2516
(dp2517
g6
I00
sg7
V\u0915\u0947
p2518
sg9
(issf_api
FeatureSet
p2519
(dp2520
g12
(dp2521
S'posn'
p2522
S'180'
p2523
sS'name'
p2524
S'\xe0\xa4\x95\xe0\xa5\x87'
p2525
sS'drel'
p2526
S'lwg__psp:NP5'
p2527
sS'chunktype'
p2528
S'child:NP5'
p2529
sS'af'
p2530
S'\xe0\xa4\x95\xe0\xa5\x87,psp,,,,,,'
p2531
ssbsg34
I00
sg35
I00
sg36
Nsg37
Nsg38
I6
sg39
I5
sg40
Nsg41
Nsg42
S'PSP'
p2532
sg44
g2519
sg45
I00
sba(issf_api
Word
p2533
(dp2534
g6
I00
sg7
V\u0938\u093e\u0925
p2535
sg9
(issf_api
FeatureSet
p2536
(dp2537
g12
(dp2538
S'posn'
p2539
S'190'
p2540
sS'name'
p2541
S'\xe0\xa4\xb8\xe0\xa4\xbe\xe0\xa4\xa5'
p2542
sS'drel'
p2543
S'lwg__psp:NP5'
p2544
sS'chunktype'
p2545
S'child:NP5'
p2546
sS'af'
p2547
S'\xe0\xa4\xb8\xe0\xa4\xbe\xe0\xa4\xa5,nst,m,sg,3,d,,'
p2548
ssbsg34
I00
sg35
I00
sg36
Nsg37
Nsg38
I6
sg39
I5
sg40
Nsg41
Nsg42
S'NST'
p2549
sg44
g2536
sg45
I00
sba(issf_api
Word
p2550
(dp2551
g6
I00
sg7
V\u092c\u0932\u093e\u0924\u094d\u0915\u093e\u0930
p2552
sg9
(issf_api
FeatureSet
p2553
(dp2554
g12
(dp2555
S'crefhead'
p2556
S'\xe0\xa4\xac\xe0\xa4\xb2\xe0\xa4\xbe\xe0\xa4\xa4\xe0\xa5\x8d\xe0\xa4\x95\xe0\xa4\xbe\xe0\xa4\xb0:i24'
p2557
sS'posn'
p2558
S'200'
p2559
sS'name'
p2560
S'\xe0\xa4\xac\xe0\xa4\xb2\xe0\xa4\xbe\xe0\xa4\xa4\xe0\xa5\x8d\xe0\xa4\x95\xe0\xa4\xbe\xe0\xa4\xb0'
p2561
sS'af'
p2562
S'\xe0\xa4\xac\xe0\xa4\xb2\xe0\xa4\xbe\xe0\xa4\xa4\xe0\xa5\x8d\xe0\xa4\x95\xe0\xa4\xbe\xe0\xa4\xb0,n,m,sg,3,d,0,0'
p2563
sS'chunkid'
p2564
S'NP6'
p2565
sS'creftype'
p2566
S'Coreference-Identity:i55:i16'
p2567
sS'chunktype'
p2568
S'head:NP6'
p2569
sS'cref'
p2570
S'i24%1:t4'
p2571
sS'drel'
p2572
S'pof:VGF2'
p2573
ssbsg34
I00
sg35
I00
sg36
Nsg37
Nsg38
I7
sg39
I5
sg40
Nsg41
Nsg42
S'NN'
p2574
sg44
g2553
sg45
I00
sba(issf_api
Word
p2575
(dp2576
g6
I00
sg7
V\u0915\u093f\u092f\u093e
p2577
sg9
(issf_api
FeatureSet
p2578
(dp2579
g12
(dp2580
S'posn'
p2581
S'210'
p2582
sS'name'
p2583
S'\xe0\xa4\x95\xe0\xa4\xbf\xe0\xa4\xaf\xe0\xa4\xbe'
p2584
sS'af'
p2585
S'\xe0\xa4\x95\xe0\xa4\xb0,v,m,sg,any,,\xe0\xa4\xaf\xe0\xa4\xbe,yA'
p2586
sS'chunkid'
p2587
S'VGF2'
p2588
sS'stype'
p2589
S'declarative'
p2590
sS'drel'
p2591
S'ccof:CCP'
p2592
sS'voicetype'
p2593
S'active'
p2594
sS'chunktype'
p2595
S'head:VGF2'
p2596
ssbsg34
I00
sg35
I00
sg36
Nsg37
Nsg38
I8
sg39
I5
sg40
Nsg41
Nsg42
S'VM'
p2597
sg44
g2578
sg45
I00
sba(issf_api
Word
p2598
(dp2599
g6
I00
sg7
V\u0964
p2600
sg9
(issf_api
FeatureSet
p2601
(dp2602
g12
(dp2603
S'posn'
p2604
S'220'
p2605
sS'name'
p2606
S'\xe0\xa5\xa4'
p2607
sS'af'
p2608
S'\xe0\xa5\xa4,punc,,,,,,'
p2609
sS'chunkid'
p2610
S'BLK'
p2611
sS'drel'
p2612
S'rsym:VGF'
p2613
sS'chunktype'
p2614
S'head:BLK'
p2615
ssbsg34
I00
sg35
I00
sg36
Nsg37
Nsg38
I9
sg39
I5
sg40
Nsg41
Nsg42
S'SYM'
p2616
sg44
g2601
sg45
I00
sba(issf_api
Word
p2617
(dp2618
g6
I00
sg7
V\u092f\u0947
p2619
sg9
(issf_api
FeatureSet
p2620
(dp2621
g12
(dp2622
S'posn'
p2623
S'10'
p2624
sS'name'
p2625
S'\xe0\xa4\xaf\xe0\xa5\x87'
p2626
sS'af'
p2627
S'\xe0\xa4\xaf\xe0\xa4\xb9,pn,any,pl,3,d,,'
p2628
sS'drel'
p2629
S'nmod__adj:NP'
p2630
sS'chunktype'
p2631
S'child:NP'
p2632
sS'cref'
p2633
S'i25%0:t7'
p2634
ssbsg34
I00
sg35
I00
sg36
Nsg37
Nsg38
I0
sg39
I6
sg40
Nsg41
Nsg42
S'DEM'
p2635
sg44
g2620
sg45
I00
sba(issf_api
Word
p2636
(dp2637
g6
I00
sg7
V\u0932\u0921\u093c\u0915\u0947
p2638
sg9
(issf_api
FeatureSet
p2639
(dp2640
g12
(dp2641
S'crefhead'
p2642
S'\xe0\xa4\xb2\xe0\xa4\xa1\xe0\xa4\xbc\xe0\xa4\x95\xe0\xa5\x87:i25'
p2643
sS'posn'
p2644
S'20'
p2645
sS'name'
p2646
S'\xe0\xa4\xb2\xe0\xa4\xa1\xe0\xa4\xbc\xe0\xa4\x95\xe0\xa5\x87'
p2647
sS'af'
p2648
S'\xe0\xa4\xb2\xe0\xa4\xa1\xe0\xa4\x95\xe0\xa4\xbe,n,m,pl,3,d,0,0'
p2649
sS'chunkid'
p2650
S'NP'
p2651
sS'creftype'
p2652
S'Coreference-InferedRelation:i21'
p2653
sS'chunktype'
p2654
S'head:NP'
p2655
sS'cref'
p2656
S'i25%1:t7'
p2657
sS'drel'
p2658
S'k1:VGF'
p2659
ssbsg34
I00
sg35
I00
sg36
Nsg37
Nsg38
I0
sg39
I6
sg40
Nsg41
Nsg42
S'NN'
p2660
sg44
g2639
sg45
I00
sba(issf_api
Word
p2661
(dp2662
g6
I00
sg7
V\u092a\u0939\u0932\u0947
p2663
sg9
(issf_api
FeatureSet
p2664
(dp2665
g12
(dp2666
S'posn'
p2667
S'30'
p2668
sS'name'
p2669
S'\xe0\xa4\xaa\xe0\xa4\xb9\xe0\xa4\xb2\xe0\xa5\x87'
p2670
sS'af'
p2671
S'\xe0\xa4\xaa\xe0\xa4\xb9\xe0\xa4\xb2\xe0\xa5\x87,nst,m,sg,3,o,0_\xe0\xa4\xb8\xe0\xa5\x87,'
p2672
sS'chunkid'
p2673
S'NP2'
p2674
sS'drel'
p2675
S'k7t:VGF'
p2676
sS'vpos'
p2677
S'2_RP'
p2678
sS'chunktype'
p2679
S'head:NP2'
p2680
ssbsg34
I00
sg35
I00
sg36
Nsg37
Nsg38
I1
sg39
I6
sg40
Nsg41
Nsg42
S'NST'
p2681
sg44
g2664
sg45
I00
sba(issf_api
Word
p2682
(dp2683
g6
I00
sg7
V\u0938\u0947
p2684
sg9
(issf_api
FeatureSet
p2685
(dp2686
g12
(dp2687
S'posn'
p2688
S'40'
p2689
sS'name'
p2690
S'\xe0\xa4\xb8\xe0\xa5\x87'
p2691
sS'drel'
p2692
S'lwg__psp:NP2'
p2693
sS'chunktype'
p2694
S'child:NP2'
p2695
sS'af'
p2696
S'\xe0\xa4\xb8\xe0\xa5\x87,psp,,,,,,'
p2697
ssbsg34
I00
sg35
I00
sg36
Nsg37
Nsg38
I1
sg39
I6
sg40
Nsg41
Nsg42
S'PSP'
p2698
sg44
g2685
sg45
I00
sba(issf_api
Word
p2699
(dp2700
g6
I00
sg7
V\u0939\u0940
p2701
sg9
(issf_api
FeatureSet
p2702
(dp2703
g12
(dp2704
S'posn'
p2705
S'50'
p2706
sS'name'
p2707
S'\xe0\xa4\xb9\xe0\xa5\x80'
p2708
sS'drel'
p2709
S'lwg__rp:NP2'
p2710
sS'chunktype'
p2711
S'child:NP2'
p2712
sS'af'
p2713
S'\xe0\xa4\xb9\xe0\xa5\x80,avy,,,,,,'
p2714
ssbsg34
I00
sg35
I00
sg36
Nsg37
Nsg38
I1
sg39
I6
sg40
Nsg41
Nsg42
S'RP'
p2715
sg44
g2702
sg45
I00
sba(issf_api
Word
p2716
(dp2717
g6
I00
sg7
V\u0932\u0921\u093c\u0915\u093f\u092f\u094b\u0902
p2718
sg9
(issf_api
FeatureSet
p2719
(dp2720
g12
(dp2721
S'crefhead'
p2722
S'\xe0\xa4\xb2\xe0\xa4\xa1\xe0\xa4\xbc\xe0\xa4\x95\xe0\xa4\xbf\xe0\xa4\xaf\xe0\xa5\x8b\xe0\xa4\x82:i26'
p2723
sS'posn'
p2724
S'60'
p2725
sS'name'
p2726
S'\xe0\xa4\xb2\xe0\xa4\xa1\xe0\xa4\xbc\xe0\xa4\x95\xe0\xa4\xbf\xe0\xa4\xaf\xe0\xa5\x8b\xe0\xa4\x82'
p2727
sS'af'
p2728
S'\xe0\xa4\xb2\xe0\xa4\xa1\xe0\xa4\x95\xe0\xa5\x80,n,f,pl,3,o,0_\xe0\xa4\x95\xe0\xa4\xbe,0'
p2729
sS'chunkid'
p2730
S'NP3'
p2731
sS'creftype'
p2732
S'Coreference-Identity:i23'
p2733
sS'chunktype'
p2734
S'head:NP3'
p2735
sS'vpos'
p2736
S'vib_2'
p2737
sS'cref'
p2738
S'i26%1:t3'
p2739
sS'drel'
p2740
S'r6-k2:NP4'
p2741
ssbsg34
I00
sg35
I00
sg36
Nsg37
Nsg38
I2
sg39
I6
sg40
Nsg41
Nsg42
S'NN'
p2742
sg44
g2719
sg45
I00
sba(issf_api
Word
p2743
(dp2744
g6
I00
sg7
V\u0915\u093e
p2745
sg9
(issf_api
FeatureSet
p2746
(dp2747
g12
(dp2748
S'posn'
p2749
S'70'
p2750
sS'name'
p2751
S'\xe0\xa4\x95\xe0\xa4\xbe'
p2752
sS'drel'
p2753
S'lwg__psp:NP3'
p2754
sS'chunktype'
p2755
S'child:NP3'
p2756
sS'af'
p2757
S'\xe0\xa4\x95\xe0\xa4\xbe,psp,m,sg,,d,,'
p2758
ssbsg34
I00
sg35
I00
sg36
Nsg37
Nsg38
I2
sg39
I6
sg40
Nsg41
Nsg42
S'PSP'
p2759
sg44
g2746
sg45
I00
sba(issf_api
Word
p2760
(dp2761
g6
I00
sg7
V\u0907\u0902\u0924\u091c\u093e\u0930
p2762
sg9
(issf_api
FeatureSet
p2763
(dp2764
g12
(dp2765
S'posn'
p2766
S'80'
p2767
sS'name'
p2768
S'\xe0\xa4\x87\xe0\xa4\x82\xe0\xa4\xa4\xe0\xa4\x9c\xe0\xa4\xbe\xe0\xa4\xb0'
p2769
sS'af'
p2770
S'\xe0\xa4\x87\xe0\xa4\x82\xe0\xa4\xa4\xe0\xa4\x9c\xe0\xa4\xbe\xe0\xa4\xb0,n,m,sg,3,d,0,0'
p2771
sS'chunkid'
p2772
S'NP4'
p2773
sS'drel'
p2774
S'pof:VGF'
p2775
sS'chunktype'
p2776
S'head:NP4'
p2777
ssbsg34
I00
sg35
I00
sg36
Nsg37
Nsg38
I3
sg39
I6
sg40
Nsg41
Nsg42
S'NN'
p2778
sg44
g2763
sg45
I00
sba(issf_api
Word
p2779
(dp2780
g6
I00
sg7
V\u0915\u0930
p2781
sg9
(issf_api
FeatureSet
p2782
(dp2783
g12
(dp2784
S'posn'
p2785
S'90'
p2786
sS'name'
p2787
S'\xe0\xa4\x95\xe0\xa4\xb0'
p2788
sS'af'
p2789
S'\xe0\xa4\x95\xe0\xa4\xb0,v,m,pl,3,,0_\xe0\xa4\xb0\xe0\xa4\xb9+\xe0\xa4\xaf\xe0\xa4\xbe_\xe0\xa4\xa5\xe0\xa4\xbe,0'
p2790
sS'chunkid'
p2791
S'VGF'
p2792
sS'chunktype'
p2793
S'head:VGF'
p2794
sS'voicetype'
p2795
S'active'
p2796
sS'vpos'
p2797
S'tam_2_3'
p2798
sS'stype'
p2799
S'declarative'
p2800
ssbsg34
I00
sg35
I00
sg36
Nsg37
Nsg38
I4
sg39
I6
sg40
Nsg41
Nsg42
S'VM'
p2801
sg44
g2782
sg45
I00
sba(issf_api
Word
p2802
(dp2803
g6
I00
sg7
V\u0930\u0939\u0947
p2804
sg9
(issf_api
FeatureSet
p2805
(dp2806
g12
(dp2807
S'posn'
p2808
S'100'
p2809
sS'name'
p2810
S'\xe0\xa4\xb0\xe0\xa4\xb9\xe0\xa5\x87'
p2811
sS'drel'
p2812
S'lwg__vaux:VGF'
p2813
sS'chunktype'
p2814
S'child:VGF'
p2815
sS'af'
p2816
S'\xe0\xa4\xb0\xe0\xa4\xb9,v,m,pl,any,,\xe0\xa4\xaf\xe0\xa4\xbe,yA'
p2817
ssbsg34
I00
sg35
I00
sg36
Nsg37
Nsg38
I4
sg39
I6
sg40
Nsg41
Nsg42
S'VAUX'
p2818
sg44
g2805
sg45
I00
sba(issf_api
Word
p2819
(dp2820
g6
I00
sg7
V\u0925\u0947
p2821
sg9
(issf_api
FeatureSet
p2822
(dp2823
g12
(dp2824
S'posn'
p2825
S'110'
p2826
sS'name'
p2827
S'\xe0\xa4\xa5\xe0\xa5\x87'
p2828
sS'drel'
p2829
S'lwg__vaux:VGF'
p2830
sS'chunktype'
p2831
S'child:VGF'
p2832
sS'af'
p2833
S'\xe0\xa4\xa5\xe0\xa4\xbe,v,m,pl,3,,\xe0\xa4\xa5\xe0\xa4\xbe,WA'
p2834
ssbsg34
I00
sg35
I00
sg36
Nsg37
Nsg38
I4
sg39
I6
sg40
Nsg41
Nsg42
S'VAUX'
p2835
sg44
g2822
sg45
I00
sba(issf_api
Word
p2836
(dp2837
g6
I00
sg7
V\u0964
p2838
sg9
(issf_api
FeatureSet
p2839
(dp2840
g12
(dp2841
S'posn'
p2842
S'120'
p2843
sS'name'
p2844
S'\xe0\xa5\xa4'
p2845
sS'af'
p2846
S'\xe0\xa5\xa4,punc,,,,,,'
p2847
sS'chunkid'
p2848
S'BLK'
p2849
sS'drel'
p2850
S'rsym:VGF'
p2851
sS'chunktype'
p2852
S'head:BLK'
p2853
ssbsg34
I00
sg35
I00
sg36
Nsg37
Nsg38
I5
sg39
I6
sg40
Nsg41
Nsg42
S'SYM'
p2854
sg44
g2839
sg45
I00
sba(issf_api
Word
p2855
(dp2856
g6
I00
sg7
V\u0909\u0928\u094d\u0939\u094b\u0902\u0928\u0947
p2857
sg9
(issf_api
FeatureSet
p2858
(dp2859
g12
(dp2860
S'crefhead'
p2861
S'\xe0\xa4\x89\xe0\xa4\xa8\xe0\xa5\x8d\xe0\xa4\xb9\xe0\xa5\x8b\xe0\xa4\x82\xe0\xa4\xa8\xe0\xa5\x87:i27'
p2862
sS'posn'
p2863
S'10'
p2864
sS'name'
p2865
S'\xe0\xa4\x89\xe0\xa4\xa8\xe0\xa5\x8d\xe0\xa4\xb9\xe0\xa5\x8b\xe0\xa4\x82\xe0\xa4\xa8\xe0\xa5\x87'
p2866
sS'af'
p2867
S'\xe0\xa4\xb5\xe0\xa4\xb9,pn,any,pl,3,o,\xe0\xa4\xa8\xe0\xa5\x87,ne'
p2868
sS'chunkid'
p2869
S'NP'
p2870
sS'creftype'
p2871
S'Anaphora-C:i25'
p2872
sS'chunktype'
p2873
S'head:NP'
p2874
sS'cref'
p2875
S'i27%1:t7'
p2876
sS'drel'
p2877
S'k1:VGF'
p2878
ssbsg34
I00
sg35
I00
sg36
Nsg37
Nsg38
I0
sg39
I7
sg40
Nsg41
Nsg42
S'PRP'
p2879
sg44
g2858
sg45
I00
sba(issf_api
Word
p2880
(dp2881
g6
I00
sg7
V\u092c\u0902\u0926\u0942\u0915
p2882
sg9
(issf_api
FeatureSet
p2883
(dp2884
g12
(dp2885
S'crefhead'
p2886
S'\xe0\xa4\xac\xe0\xa4\x82\xe0\xa4\xa6\xe0\xa5\x82\xe0\xa4\x95:i28'
p2887
sS'posn'
p2888
S'20'
p2889
sS'name'
p2890
S'\xe0\xa4\xac\xe0\xa4\x82\xe0\xa4\xa6\xe0\xa5\x82\xe0\xa4\x95'
p2891
sS'af'
p2892
S'\xe0\xa4\xac\xe0\xa4\x82\xe0\xa4\xa6\xe0\xa5\x82\xe0\xa4\x95,n,f,sg,3,o,0_\xe0\xa4\x95\xe0\xa4\xbe,0'
p2893
sS'chunkid'
p2894
S'NP2'
p2895
sS'creftype'
p2896
S'Coreference-Identity:i22'
p2897
sS'chunktype'
p2898
S'head:NP2'
p2899
sS'vpos'
p2900
S'vib_2'
p2901
sS'cref'
p2902
S'i28%1:t9'
p2903
sS'drel'
p2904
S'r6:NP3'
p2905
ssbsg34
I00
sg35
I00
sg36
Nsg37
Nsg38
I1
sg39
I7
sg40
Nsg41
Nsg42
S'NN'
p2906
sg44
g2883
sg45
I00
sba(issf_api
Word
p2907
(dp2908
g6
I00
sg7
V\u0915\u0940
p2909
sg9
(issf_api
FeatureSet
p2910
(dp2911
g12
(dp2912
S'posn'
p2913
S'30'
p2914
sS'name'
p2915
S'\xe0\xa4\x95\xe0\xa5\x80'
p2916
sS'drel'
p2917
S'lwg__psp:NP2'
p2918
sS'chunktype'
p2919
S'child:NP2'
p2920
sS'af'
p2921
S'\xe0\xa4\x95\xe0\xa4\xbe,psp,f,sg,,o,,'
p2922
ssbsg34
I00
sg35
I00
sg36
Nsg37
Nsg38
I1
sg39
I7
sg40
Nsg41
Nsg42
S'PSP'
p2923
sg44
g2910
sg45
I00
sba(issf_api
Word
p2924
(dp2925
g6
I00
sg7
V\u0928\u094b\u0902\u0915
p2926
sg9
(issf_api
FeatureSet
p2927
(dp2928
g12
(dp2929
S'posn'
p2930
S'40'
p2931
sS'name'
p2932
S'\xe0\xa4\xa8\xe0\xa5\x8b\xe0\xa4\x82\xe0\xa4\x95'
p2933
sS'af'
p2934
S'\xe0\xa4\xa8\xe0\xa5\x8b\xe0\xa4\x82\xe0\xa4\x95,n,f,sg,3,o,0_\xe0\xa4\xaa\xe0\xa4\xb0,0'
p2935
sS'chunkid'
p2936
S'NP3'
p2937
sS'drel'
p2938
S'k7:VGF'
p2939
sS'vpos'
p2940
S'vib_2'
p2941
sS'chunktype'
p2942
S'head:NP3'
p2943
ssbsg34
I00
sg35
I00
sg36
Nsg37
Nsg38
I2
sg39
I7
sg40
Nsg41
Nsg42
S'NN'
p2944
sg44
g2927
sg45
I00
sba(issf_api
Word
p2945
(dp2946
g6
I00
sg7
V\u092a\u0930
p2947
sg9
(issf_api
FeatureSet
p2948
(dp2949
g12
(dp2950
S'posn'
p2951
S'50'
p2952
sS'name'
p2953
S'\xe0\xa4\xaa\xe0\xa4\xb0'
p2954
sS'drel'
p2955
S'lwg__psp:NP3'
p2956
sS'chunktype'
p2957
S'child:NP3'
p2958
sS'af'
p2959
S'\xe0\xa4\xaa\xe0\xa4\xb0,psp,,,,,,'
p2960
ssbsg34
I00
sg35
I00
sg36
Nsg37
Nsg38
I2
sg39
I7
sg40
Nsg41
Nsg42
S'PSP'
p2961
sg44
g2948
sg45
I00
sba(issf_api
Word
p2962
(dp2963
g6
I00
sg7
V\u0907\u0928
p2964
sg9
(issf_api
FeatureSet
p2965
(dp2966
g12
(dp2967
S'posn'
p2968
S'60'
p2969
sS'name'
p2970
S'\xe0\xa4\x87\xe0\xa4\xa8'
p2971
sS'drel'
p2972
S'nmod__adj:NP4'
p2973
sS'chunktype'
p2974
S'child:NP4'
p2975
sS'af'
p2976
S'\xe0\xa4\xaf\xe0\xa4\xb9,pn,any,pl,3,o,,'
p2977
ssbsg34
I00
sg35
I00
sg36
Nsg37
Nsg38
I3
sg39
I7
sg40
Nsg41
Nsg42
S'DEM'
p2978
sg44
g2965
sg45
I00
sba(issf_api
Word
p2979
(dp2980
g6
I00
sg7
V\u0938\u092d\u0940
p2981
sg9
(issf_api
FeatureSet
p2982
(dp2983
g12
(dp2984
S'crefhead'
p2985
S'\xe0\xa4\xb8\xe0\xa4\xad\xe0\xa5\x80:i29'
p2986
sS'posn'
p2987
S'70'
p2988
sS'name'
p2989
S'\xe0\xa4\xb8\xe0\xa4\xad\xe0\xa5\x80'
p2990
sS'af'
p2991
S'\xe0\xa4\xb8\xe0\xa4\xac,pn,any,pl,any,o,0_\xe0\xa4\x95\xe0\xa5\x8b,0'
p2992
sS'chunkid'
p2993
S'NP4'
p2994
sS'creftype'
p2995
S'Anaphora-C:i26'
p2996
sS'chunktype'
p2997
S'head:NP4'
p2998
sS'vpos'
p2999
S'vib_3'
p3000
sS'cref'
p3001
S'i29%1:t3'
p3002
sS'drel'
p3003
S'k2:VGF'
p3004
ssbsg34
I00
sg35
I00
sg36
Nsg37
Nsg38
I3
sg39
I7
sg40
Nsg41
Nsg42
S'PRP'
p3005
sg44
g2982
sg45
I00
sba(issf_api
Word
p3006
(dp3007
g6
I00
sg7
V\u0915\u094b
p3008
sg9
(issf_api
FeatureSet
p3009
(dp3010
g12
(dp3011
S'posn'
p3012
S'80'
p3013
sS'name'
p3014
S'\xe0\xa4\x95\xe0\xa5\x8b'
p3015
sS'drel'
p3016
S'lwg__psp:NP4'
p3017
sS'chunktype'
p3018
S'child:NP4'
p3019
sS'af'
p3020
S'\xe0\xa4\x95\xe0\xa5\x8b,psp,,,,,,'
p3021
ssbsg34
I00
sg35
I00
sg36
Nsg37
Nsg38
I3
sg39
I7
sg40
Nsg41
Nsg42
S'PSP'
p3022
sg44
g3009
sg45
I00
sba(issf_api
Word
p3023
(dp3024
g6
I00
sg7
V\u0905\u092a\u0928\u0947
p3025
sg9
(issf_api
FeatureSet
p3026
(dp3027
g12
(dp3028
S'crefhead'
p3029
S'\xe0\xa4\x85\xe0\xa4\xaa\xe0\xa4\xa8\xe0\xa5\x87:i31'
p3030
sS'posn'
p3031
S'90'
p3032
sS'name'
p3033
S'\xe0\xa4\x85\xe0\xa4\xaa\xe0\xa4\xa8\xe0\xa5\x87'
p3034
sS'af'
p3035
S'\xe0\xa4\x85\xe0\xa4\xaa\xe0\xa4\xa8\xe0\xa4\xbe,pn,m,any,any,o,0,0'
p3036
sS'chunkid'
p3037
S'NP5'
p3038
sS'creftype'
p3039
S'Anaphora-C:i27'
p3040
sS'chunktype'
p3041
S'head:NP5'
p3042
sS'cref'
p3043
S'i31%1:t7'
p3044
sS'drel'
p3045
S'r6:NP6'
p3046
ssbsg34
I00
sg35
I00
sg36
Nsg37
Nsg38
I4
sg39
I7
sg40
Nsg41
Nsg42
S'PRP'
p3047
sg44
g3026
sg45
I00
sba(issf_api
Word
p3048
(dp3049
g6
I00
sg7
V\u0915\u092c\u094d\u091c\u0947
p3050
sg9
(issf_api
FeatureSet
p3051
(dp3052
g12
(dp3053
S'posn'
p3054
S'100'
p3055
sS'name'
p3056
S'\xe0\xa4\x95\xe0\xa4\xac\xe0\xa5\x8d\xe0\xa4\x9c\xe0\xa5\x87'
p3057
sS'af'
p3058
S'\xe0\xa4\x95\xe0\xa4\xac\xe0\xa5\x8d\xe0\xa4\x9c\xe0\xa4\xbe,n,m,sg,3,o,0_\xe0\xa4\xae\xe0\xa5\x87\xe0\xa4\x82,0'
p3059
sS'chunkid'
p3060
S'NP6'
p3061
sS'drel'
p3062
S'k7:VGF'
p3063
sS'vpos'
p3064
S'vib_2'
p3065
sS'chunktype'
p3066
S'head:NP6'
p3067
ssbsg34
I00
sg35
I00
sg36
Nsg37
Nsg38
I5
sg39
I7
sg40
Nsg41
Nsg42
S'NN'
p3068
sg44
g3051
sg45
I00
sba(issf_api
Word
p3069
(dp3070
g6
I00
sg7
V\u092e\u0947\u0902
p3071
sg9
(issf_api
FeatureSet
p3072
(dp3073
g12
(dp3074
S'posn'
p3075
S'110'
p3076
sS'name'
p3077
S'\xe0\xa4\xae\xe0\xa5\x87\xe0\xa4\x82'
p3078
sS'drel'
p3079
S'lwg__psp:NP6'
p3080
sS'chunktype'
p3081
S'child:NP6'
p3082
sS'af'
p3083
S'\xe0\xa4\xae\xe0\xa5\x87\xe0\xa4\x82,psp,,,,,,'
p3084
ssbsg34
I00
sg35
I00
sg36
Nsg37
Nsg38
I5
sg39
I7
sg40
Nsg41
Nsg42
S'PSP'
p3085
sg44
g3072
sg45
I00
sba(issf_api
Word
p3086
(dp3087
g6
I00
sg7
V\u0915\u0930
p3088
sg9
(issf_api
FeatureSet
p3089
(dp3090
g12
(dp3091
S'posn'
p3092
S'120'
p3093
sS'name'
p3094
S'\xe0\xa4\x95\xe0\xa4\xb0'
p3095
sS'af'
p3096
S'\xe0\xa4\x95\xe0\xa4\xb0,v,any,sg,any,,0_\xe0\xa4\xb2\xe0\xa5\x87+\xe0\xa4\xaf\xe0\xa4\xbe,0'
p3097
sS'chunkid'
p3098
S'VGF'
p3099
sS'stype'
p3100
S'declarative'
p3101
sS'drel'
p3102
S'ccof:CCP'
p3103
sS'voicetype'
p3104
S'active'
p3105
sS'vpos'
p3106
S'tam_2'
p3107
sS'chunktype'
p3108
S'head:VGF'
p3109
ssbsg34
I00
sg35
I00
sg36
Nsg37
Nsg38
I6
sg39
I7
sg40
Nsg41
Nsg42
S'VM'
p3110
sg44
g3089
sg45
I00
sba(issf_api
Word
p3111
(dp3112
g6
I00
sg7
V\u0932\u093f\u092f\u093e
p3113
sg9
(issf_api
FeatureSet
p3114
(dp3115
g12
(dp3116
S'posn'
p3117
S'130'
p3118
sS'name'
p3119
S'\xe0\xa4\xb2\xe0\xa4\xbf\xe0\xa4\xaf\xe0\xa4\xbe'
p3120
sS'drel'
p3121
S'lwg__vaux:VGF'
p3122
sS'chunktype'
p3123
S'child:VGF'
p3124
sS'af'
p3125
S'\xe0\xa4\xb2\xe0\xa5\x87,v,m,sg,any,,\xe0\xa4\xaf\xe0\xa4\xbe,yA'
p3126
ssbsg34
I00
sg35
I00
sg36
Nsg37
Nsg38
I6
sg39
I7
sg40
Nsg41
Nsg42
S'VAUX'
p3127
sg44
g3114
sg45
I00
sba(issf_api
Word
p3128
(dp3129
g6
I00
sg7
V\u0914\u0930
p3130
sg9
(issf_api
FeatureSet
p3131
(dp3132
g12
(dp3133
S'posn'
p3134
S'140'
p3135
sS'chunkid'
p3136
S'CCP'
p3137
sS'name'
p3138
S'\xe0\xa4\x94\xe0\xa4\xb0'
p3139
sS'chunktype'
p3140
S'head:CCP'
p3141
sS'af'
p3142
S'\xe0\xa4\x94\xe0\xa4\xb0,avy,,,,,,'
p3143
ssbsg34
I00
sg35
I00
sg36
Nsg37
Nsg38
I7
sg39
I7
sg40
Nsg41
Nsg42
S'CC'
p3144
sg44
g3131
sg45
I00
sba(issf_api
Word
p3145
(dp3146
g6
I00
sg7
V\u092b\u093f\u0930
p3147
sg9
(issf_api
FeatureSet
p3148
(dp3149
g12
(dp3150
S'posn'
p3151
S'150'
p3152
sS'name'
p3153
S'\xe0\xa4\xab\xe0\xa4\xbf\xe0\xa4\xb0'
p3154
sS'af'
p3155
S'\xe0\xa4\xab\xe0\xa4\xbf\xe0\xa4\xb0,adv,,,,,,'
p3156
sS'chunkid'
p3157
S'RBP'
p3158
sS'drel'
p3159
S'sent-adv:VGF2'
p3160
sS'chunktype'
p3161
S'head:RBP'
p3162
ssbsg34
I00
sg35
I00
sg36
Nsg37
Nsg38
I8
sg39
I7
sg40
Nsg41
Nsg42
S'RB'
p3163
sg44
g3148
sg45
I00
sba(issf_api
Word
p3164
(dp3165
g6
I00
sg7
V\u0909\u0928\u094d\u0939\u0947\u0902
p3166
sg9
(issf_api
FeatureSet
p3167
(dp3168
g12
(dp3169
S'crefhead'
p3170
S'\xe0\xa4\x89\xe0\xa4\xa8\xe0\xa5\x8d\xe0\xa4\xb9\xe0\xa5\x87\xe0\xa4\x82:i32'
p3171
sS'posn'
p3172
S'160'
p3173
sS'name'
p3174
S'\xe0\xa4\x89\xe0\xa4\xa8\xe0\xa5\x8d\xe0\xa4\xb9\xe0\xa5\x87\xe0\xa4\x82'
p3175
sS'af'
p3176
S'\xe0\xa4\xb5\xe0\xa4\xb9,pn,any,pl,3,o,\xe0\xa4\x95\xe0\xa5\x8b,ko'
p3177
sS'chunkid'
p3178
S'NP7'
p3179
sS'creftype'
p3180
S'Anaphora-C:i29'
p3181
sS'chunktype'
p3182
S'head:NP7'
p3183
sS'cref'
p3184
S'i32%1:t3'
p3185
sS'drel'
p3186
S'k2:VGF2'
p3187
ssbsg34
I00
sg35
I00
sg36
Nsg37
Nsg38
I9
sg39
I7
sg40
Nsg41
Nsg42
S'PRP'
p3188
sg44
g3167
sg45
I00
sba(issf_api
Word
p3189
(dp3190
g6
I00
sg7
V\u092a\u093e\u0938
p3191
sg9
(issf_api
FeatureSet
p3192
(dp3193
g12
(dp3194
S'posn'
p3195
S'170'
p3196
sS'name'
p3197
S'\xe0\xa4\xaa\xe0\xa4\xbe\xe0\xa4\xb8'
p3198
sS'af'
p3199
S'\xe0\xa4\xaa\xe0\xa4\xbe\xe0\xa4\xb8,nst,m,sg,3,o,0_\xe0\xa4\x95\xe0\xa4\xbe,'
p3200
sS'chunkid'
p3201
S'NP8'
p3202
sS'drel'
p3203
S'r6:NP9'
p3204
sS'vpos'
p3205
g1613
sS'chunktype'
p3206
S'head:NP8'
p3207
ssbsg34
I00
sg35
I00
sg36
Nsg37
Nsg38
I10
sg39
I7
sg40
Nsg41
Nsg42
S'NST'
p3208
sg44
g3192
sg45
I00
sba(issf_api
Word
p3209
(dp3210
g6
I00
sg7
V\u0915\u0947
p3211
sg9
(issf_api
FeatureSet
p3212
(dp3213
g12
(dp3214
S'posn'
p3215
S'180'
p3216
sS'name'
p3217
S'\xe0\xa4\x95\xe0\xa5\x87'
p3218
sS'drel'
p3219
S'lwg__psp:NP8'
p3220
sS'chunktype'
p3221
S'child:NP8'
p3222
sS'af'
p3223
S'\xe0\xa4\x95\xe0\xa4\xbe,psp,m,sg,,o,,'
p3224
ssbsg34
I00
sg35
I00
sg36
Nsg37
Nsg38
I10
sg39
I7
sg40
Nsg41
Nsg42
S'PSP'
p3225
sg44
g3212
sg45
I00
sba(issf_api
Word
p3226
(dp3227
g6
I00
sg7
V\u090f\u0915
p3228
sg9
(issf_api
FeatureSet
p3229
(dp3230
g12
(dp3231
S'posn'
p3232
S'190'
p3233
sS'name'
p3234
S'\xe0\xa4\x8f\xe0\xa4\x95'
p3235
sS'drel'
p3236
S'nmod__adj:NP9'
p3237
sS'chunktype'
p3238
S'child:NP9'
p3239
sS'af'
p3240
S'\xe0\xa4\x8f\xe0\xa4\x95,num,any,any,,any,,'
p3241
ssbsg34
I00
sg35
I00
sg36
Nsg37
Nsg38
I11
sg39
I7
sg40
Nsg41
Nsg42
S'QC'
p3242
sg44
g3229
sg45
I00
sba(issf_api
Word
p3243
(dp3244
g6
I00
sg7
V\u0916\u0947\u0924
p3245
sg9
(issf_api
FeatureSet
p3246
(dp3247
g12
(dp3248
S'posn'
p3249
S'200'
p3250
sS'name'
p3251
S'\xe0\xa4\x96\xe0\xa5\x87\xe0\xa4\xa4'
p3252
sS'af'
p3253
S'\xe0\xa4\x96\xe0\xa5\x87\xe0\xa4\xa4,n,m,sg,3,o,0_\xe0\xa4\xae\xe0\xa5\x87\xe0\xa4\x82,0'
p3254
sS'chunkid'
p3255
S'NP9'
p3256
sS'drel'
p3257
S'k7p:VGNF'
p3258
sS'vpos'
p3259
S'vib_3'
p3260
sS'chunktype'
p3261
S'head:NP9'
p3262
ssbsg34
I00
sg35
I00
sg36
Nsg37
Nsg38
I11
sg39
I7
sg40
Nsg41
Nsg42
S'NN'
p3263
sg44
g3246
sg45
I00
sba(issf_api
Word
p3264
(dp3265
g6
I00
sg7
V\u092e\u0947\u0902
p3266
sg9
(issf_api
FeatureSet
p3267
(dp3268
g12
(dp3269
S'posn'
p3270
S'210'
p3271
sS'name'
p3272
S'\xe0\xa4\xae\xe0\xa5\x87\xe0\xa4\x822'
p3273
sS'drel'
p3274
S'lwg__psp:NP9'
p3275
sS'chunktype'
p3276
S'child:NP9'
p3277
sS'af'
p3278
S'\xe0\xa4\xae\xe0\xa5\x87\xe0\xa4\x82,psp,,,,,,'
p3279
ssbsg34
I00
sg35
I00
sg36
Nsg37
Nsg38
I11
sg39
I7
sg40
Nsg41
Nsg42
S'PSP'
p3280
sg44
g3267
sg45
I00
sba(issf_api
Word
p3281
(dp3282
g6
I00
sg7
V\u0932\u0947
p3283
sg9
(issf_api
FeatureSet
p3284
(dp3285
g12
(dp3286
S'posn'
p3287
S'220'
p3288
sS'name'
p3289
S'\xe0\xa4\xb2\xe0\xa5\x87'
p3290
sS'af'
p3291
S'\xe0\xa4\xb2\xe0\xa5\x87,v,any,any,any,,0_\xe0\xa4\x9c\xe0\xa4\xbe+\xe0\xa4\x95\xe0\xa4\xb0,0'
p3292
sS'chunkid'
p3293
S'VGNF'
p3294
sS'drel'
p3295
S'vmod:VGF2'
p3296
sS'vpos'
p3297
S'tam_2'
p3298
sS'chunktype'
p3299
S'head:VGNF'
p3300
ssbsg34
I00
sg35
I00
sg36
Nsg37
Nsg38
I12
sg39
I7
sg40
Nsg41
Nsg42
S'VM'
p3301
sg44
g3284
sg45
I00
sba(issf_api
Word
p3302
(dp3303
g6
I00
sg7
V\u091c\u093e\u0915\u0930
p3304
sg9
(issf_api
FeatureSet
p3305
(dp3306
g12
(dp3307
S'posn'
p3308
S'230'
p3309
sS'name'
p3310
S'\xe0\xa4\x9c\xe0\xa4\xbe\xe0\xa4\x95\xe0\xa4\xb0'
p3311
sS'drel'
p3312
S'lwg__vaux:VGNF'
p3313
sS'chunktype'
p3314
S'child:VGNF'
p3315
sS'af'
p3316
S'\xe0\xa4\x9c\xe0\xa4\xbe,v,any,any,any,,\xe0\xa4\x95\xe0\xa4\xb0,kara'
p3317
ssbsg34
I00
sg35
I00
sg36
Nsg37
Nsg38
I12
sg39
I7
sg40
Nsg41
Nsg42
S'VAUX'
p3318
sg44
g3305
sg45
I00
sba(issf_api
Word
p3319
(dp3320
g6
I00
sg7
V\u0905\u092a\u0928\u0940
p3321
sg9
(issf_api
FeatureSet
p3322
(dp3323
g12
(dp3324
S'crefhead'
p3325
S'\xe0\xa4\x85\xe0\xa4\xaa\xe0\xa4\xa8\xe0\xa5\x80:i34'
p3326
sS'posn'
p3327
S'240'
p3328
sS'name'
p3329
S'\xe0\xa4\x85\xe0\xa4\xaa\xe0\xa4\xa8\xe0\xa5\x80'
p3330
sS'af'
p3331
S'\xe0\xa4\x85\xe0\xa4\xaa\xe0\xa4\xa8\xe0\xa4\xbe,pn,f,any,any,d,0,0'
p3332
sS'chunkid'
p3333
S'NP10'
p3334
sS'creftype'
p3335
S'Anaphora-C:i31'
p3336
sS'chunktype'
p3337
S'head:NP10'
p3338
sS'cref'
p3339
S'i34%1:t7'
p3340
sS'drel'
p3341
S'r6:NP11'
p3342
ssbsg34
I00
sg35
I00
sg36
Nsg37
Nsg38
I13
sg39
I7
sg40
Nsg41
Nsg42
S'PRP'
p3343
sg44
g3322
sg45
I00
sba(issf_api
Word
p3344
(dp3345
g6
I00
sg7
V\u0939\u0935\u0938
p3346
sg9
(issf_api
FeatureSet
p3347
(dp3348
g12
(dp3349
S'posn'
p3350
S'250'
p3351
sS'name'
p3352
S'\xe0\xa4\xb9\xe0\xa4\xb5\xe0\xa4\xb8'
p3353
sS'af'
p3354
S'\xe0\xa4\xb9\xe0\xa4\xb5\xe0\xa4\xb8,n,f,sg,3,o,0_\xe0\xa4\x95\xe0\xa4\xbe,0'
p3355
sS'chunkid'
p3356
S'NP11'
p3357
sS'drel'
p3358
S'r6-k2:NP12'
p3359
sS'vpos'
p3360
S'vib_2'
p3361
sS'chunktype'
p3362
S'head:NP11'
p3363
ssbsg34
I00
sg35
I00
sg36
Nsg37
Nsg38
I14
sg39
I7
sg40
Nsg41
Nsg42
S'NN'
p3364
sg44
g3347
sg45
I00
sba(issf_api
Word
p3365
(dp3366
g6
I00
sg7
V\u0915\u093e
p3367
sg9
(issf_api
FeatureSet
p3368
(dp3369
g12
(dp3370
S'posn'
p3371
S'260'
p3372
sS'name'
p3373
S'\xe0\xa4\x95\xe0\xa4\xbe'
p3374
sS'drel'
p3375
S'lwg__psp:NP11'
p3376
sS'chunktype'
p3377
S'child:NP11'
p3378
sS'af'
p3379
S'\xe0\xa4\x95\xe0\xa4\xbe,psp,m,sg,,d,,'
p3380
ssbsg34
I00
sg35
I00
sg36
Nsg37
Nsg38
I14
sg39
I7
sg40
Nsg41
Nsg42
S'PSP'
p3381
sg44
g3368
sg45
I00
sba(issf_api
Word
p3382
(dp3383
g6
I00
sg7
V\u0936\u093f\u0915\u093e\u0930
p3384
sg9
(issf_api
FeatureSet
p3385
(dp3386
g12
(dp3387
S'posn'
p3388
S'270'
p3389
sS'name'
p3390
S'\xe0\xa4\xb6\xe0\xa4\xbf\xe0\xa4\x95\xe0\xa4\xbe\xe0\xa4\xb0'
p3391
sS'af'
p3392
S'\xe0\xa4\xb6\xe0\xa4\xbf\xe0\xa4\x95\xe0\xa4\xbe\xe0\xa4\xb0,n,m,sg,3,d,0,0'
p3393
sS'chunkid'
p3394
S'NP12'
p3395
sS'drel'
p3396
S'pof:VGF2'
p3397
sS'chunktype'
p3398
S'head:NP12'
p3399
ssbsg34
I00
sg35
I00
sg36
Nsg37
Nsg38
I15
sg39
I7
sg40
Nsg41
Nsg42
S'NN'
p3400
sg44
g3385
sg45
I00
sba(issf_api
Word
p3401
(dp3402
g6
I00
sg7
V\u092c\u0928\u093e\u092f\u093e
p3403
sg9
(issf_api
FeatureSet
p3404
(dp3405
g12
(dp3406
S'posn'
p3407
S'280'
p3408
sS'name'
p3409
S'\xe0\xa4\xac\xe0\xa4\xa8\xe0\xa4\xbe\xe0\xa4\xaf\xe0\xa4\xbe'
p3410
sS'af'
p3411
S'\xe0\xa4\xac\xe0\xa4\xa8\xe0\xa4\xbe,v,m,sg,any,,\xe0\xa4\xaf\xe0\xa4\xbe,yA'
p3412
sS'chunkid'
p3413
S'VGF2'
p3414
sS'stype'
p3415
S'declarative'
p3416
sS'drel'
p3417
S'ccof:CCP'
p3418
sS'voicetype'
p3419
S'active'
p3420
sS'chunktype'
p3421
S'head:VGF2'
p3422
ssbsg34
I00
sg35
I00
sg36
Nsg37
Nsg38
I16
sg39
I7
sg40
Nsg41
Nsg42
S'VM'
p3423
sg44
g3404
sg45
I00
sba(issf_api
Word
p3424
(dp3425
g6
I00
sg7
V\u0964
p3426
sg9
(issf_api
FeatureSet
p3427
(dp3428
g12
(dp3429
S'posn'
p3430
S'290'
p3431
sS'name'
p3432
S'\xe0\xa5\xa4'
p3433
sS'af'
p3434
S'\xe0\xa5\xa4,punc,,,,,,'
p3435
sS'chunkid'
p3436
S'BLK'
p3437
sS'drel'
p3438
S'rsym:CCP'
p3439
sS'chunktype'
p3440
S'head:BLK'
p3441
ssbsg34
I00
sg35
I00
sg36
Nsg37
Nsg38
I17
sg39
I7
sg40
Nsg41
Nsg42
S'SYM'
p3442
sg44
g3427
sg45
I00
sba(issf_api
Word
p3443
(dp3444
g6
I00
sg7
V\u0907\u0928
p3445
sg9
(issf_api
FeatureSet
p3446
(dp3447
g12
(dp3448
S'posn'
p3449
S'10'
p3450
sS'name'
p3451
S'\xe0\xa4\x87\xe0\xa4\xa8'
p3452
sS'af'
p3453
S'\xe0\xa4\xaf\xe0\xa4\xb9,pn,any,pl,3,o,,'
p3454
sS'drel'
p3455
S'nmod__adj:NP'
p3456
sS'chunktype'
p3457
S'child:NP'
p3458
sS'cref'
p3459
S'i35%0:t7'
p3460
ssbsg34
I00
sg35
I00
sg36
Nsg37
Nsg38
I0
sg39
I8
sg40
Nsg41
Nsg42
S'DEM'
p3461
sg44
g3446
sg45
I00
sba(issf_api
Word
p3462
(dp3463
g6
I00
sg7
V\u092f\u0941\u0935\u0915\u094b\u0902
p3464
sg9
(issf_api
FeatureSet
p3465
(dp3466
g12
(dp3467
S'crefhead'
p3468
S'\xe0\xa4\xaf\xe0\xa5\x81\xe0\xa4\xb5\xe0\xa4\x95\xe0\xa5\x8b\xe0\xa4\x82:i35'
p3469
sS'posn'
p3470
S'20'
p3471
sS'name'
p3472
S'\xe0\xa4\xaf\xe0\xa5\x81\xe0\xa4\xb5\xe0\xa4\x95\xe0\xa5\x8b\xe0\xa4\x82'
p3473
sS'af'
p3474
S'\xe0\xa4\xaf\xe0\xa5\x81\xe0\xa4\xb5\xe0\xa4\x95,n,m,pl,3,o,0_\xe0\xa4\xa8\xe0\xa5\x87,0'
p3475
sS'chunkid'
p3476
S'NP'
p3477
sS'creftype'
p3478
S'Coreference-InferedRelation:i34'
p3479
sS'chunktype'
p3480
S'head:NP'
p3481
sS'vpos'
p3482
S'vib_3'
p3483
sS'cref'
p3484
S'i35%1:t7'
p3485
sS'drel'
p3486
S'k1:VGF'
p3487
ssbsg34
I00
sg35
I00
sg36
Nsg37
Nsg38
I0
sg39
I8
sg40
Nsg41
Nsg42
S'NN'
p3488
sg44
g3465
sg45
I00
sba(issf_api
Word
p3489
(dp3490
g6
I00
sg7
V\u0928\u0947
p3491
sg9
(issf_api
FeatureSet
p3492
(dp3493
g12
(dp3494
S'posn'
p3495
S'30'
p3496
sS'name'
p3497
S'\xe0\xa4\xa8\xe0\xa5\x87'
p3498
sS'drel'
p3499
S'lwg__psp:NP'
p3500
sS'chunktype'
p3501
S'child:NP'
p3502
sS'af'
p3503
S'\xe0\xa4\xa8\xe0\xa5\x87,psp,,,,,,'
p3504
ssbsg34
I00
sg35
I00
sg36
Nsg37
Nsg38
I0
sg39
I8
sg40
Nsg41
Nsg42
S'PSP'
p3505
sg44
g3492
sg45
I00
sba(issf_api
Word
p3506
(dp3507
g6
I00
sg7
V\u092d\u0941\u0915\u094d\u0924\u092d\u094b\u0917\u0940
p3508
sg9
(issf_api
FeatureSet
p3509
(dp3510
g12
(dp3511
S'posn'
p3512
S'40'
p3513
sS'name'
p3514
S'\xe0\xa4\xad\xe0\xa5\x81\xe0\xa4\x95\xe0\xa5\x8d\xe0\xa4\xa4\xe0\xa4\xad\xe0\xa5\x8b\xe0\xa4\x97\xe0\xa5\x80'
p3515
sS'drel'
p3516
S'nmod__adj:NP2'
p3517
sS'chunktype'
p3518
S'child:NP2'
p3519
sS'af'
p3520
S'\xe0\xa4\xad\xe0\xa5\x81\xe0\xa4\x95\xe0\xa5\x8d\xe0\xa4\xa4\xe0\xa4\xad\xe0\xa5\x8b\xe0\xa4\x97\xe0\xa5\x80,adj,any,any,,o,,'
p3521
ssbsg34
I00
sg35
I00
sg36
Nsg37
Nsg38
I1
sg39
I8
sg40
Nsg41
Nsg42
S'JJ'
p3522
sg44
g3509
sg45
I00
sba(issf_api
Word
p3523
(dp3524
g6
I00
sg7
V\u0932\u0921\u093c\u0915\u093f\u092f\u094b\u0902
p3525
sg9
(issf_api
FeatureSet
p3526
(dp3527
g12
(dp3528
S'crefhead'
p3529
S'\xe0\xa4\xb2\xe0\xa4\xa1\xe0\xa4\xbc\xe0\xa4\x95\xe0\xa4\xbf\xe0\xa4\xaf\xe0\xa5\x8b\xe0\xa4\x82:i36'
p3530
sS'posn'
p3531
S'50'
p3532
sS'name'
p3533
S'\xe0\xa4\xb2\xe0\xa4\xa1\xe0\xa4\xbc\xe0\xa4\x95\xe0\xa4\xbf\xe0\xa4\xaf\xe0\xa5\x8b\xe0\xa4\x82'
p3534
sS'af'
p3535
S'\xe0\xa4\xb2\xe0\xa4\xa1\xe0\xa4\x95\xe0\xa5\x80,n,f,pl,3,o,0_\xe0\xa4\xb8\xe0\xa5\x87,0'
p3536
sS'chunkid'
p3537
S'NP2'
p3538
sS'creftype'
p3539
S'Coreference-Identity:i57:i26'
p3540
sS'chunktype'
p3541
S'head:NP2'
p3542
sS'vpos'
p3543
S'vib_3'
p3544
sS'cref'
p3545
S'i36%1:t3'
p3546
sS'drel'
p3547
S'k5:VGF'
p3548
ssbsg34
I00
sg35
I00
sg36
Nsg37
Nsg38
I1
sg39
I8
sg40
Nsg41
Nsg42
S'NN'
p3549
sg44
g3526
sg45
I00
sba(issf_api
Word
p3550
(dp3551
g6
I00
sg7
V\u0938\u0947
p3552
sg9
(issf_api
FeatureSet
p3553
(dp3554
g12
(dp3555
S'posn'
p3556
S'60'
p3557
sS'name'
p3558
S'\xe0\xa4\xb8\xe0\xa5\x87'
p3559
sS'drel'
p3560
S'lwg__psp:NP2'
p3561
sS'chunktype'
p3562
S'child:NP2'
p3563
sS'af'
p3564
S'\xe0\xa4\xb8\xe0\xa5\x87,psp,,,,,,'
p3565
ssbsg34
I00
sg35
I00
sg36
Nsg37
Nsg38
I1
sg39
I8
sg40
Nsg41
Nsg42
S'PSP'
p3566
sg44
g3553
sg45
I00
sba(issf_api
Word
p3567
(dp3568
g6
I00
sg7
V\u092a\u0948\u0938\u0947
p3569
sg9
(issf_api
FeatureSet
p3570
(dp3571
g12
(dp3572
S'posn'
p3573
S'70'
p3574
sS'name'
p3575
S'\xe0\xa4\xaa\xe0\xa5\x88\xe0\xa4\xb8\xe0\xa5\x87'
p3576
sS'af'
p3577
S'\xe0\xa4\xaa\xe0\xa5\x88\xe0\xa4\xb8\xe0\xa4\xbe,n,m,pl,3,d,0,0'
p3578
sS'chunkid'
p3579
S'NP3'
p3580
sS'drel'
p3581
S'k2:VGF'
p3582
sS'chunktype'
p3583
S'head:NP3'
p3584
ssbsg34
I00
sg35
I00
sg36
Nsg37
Nsg38
I2
sg39
I8
sg40
Nsg41
Nsg42
S'NN'
p3585
sg44
g3570
sg45
I00
sba(issf_api
Word
p3586
(dp3587
g6
I00
sg7
V\u092d\u0940
p3588
sg9
(issf_api
FeatureSet
p3589
(dp3590
g12
(dp3591
S'posn'
p3592
S'80'
p3593
sS'name'
p3594
S'\xe0\xa4\xad\xe0\xa5\x80'
p3595
sS'drel'
p3596
S'lwg__rp:NP3'
p3597
sS'chunktype'
p3598
S'child:NP3'
p3599
sS'af'
p3600
S'\xe0\xa4\xad\xe0\xa5\x80,avy,,,,,,'
p3601
ssbsg34
I00
sg35
I00
sg36
Nsg37
Nsg38
I2
sg39
I8
sg40
Nsg41
Nsg42
S'RP'
p3602
sg44
g3589
sg45
I00
sba(issf_api
Word
p3603
(dp3604
g6
I00
sg7
V\u091b\u0940\u0928
p3605
sg9
(issf_api
FeatureSet
p3606
(dp3607
g12
(dp3608
S'posn'
p3609
S'90'
p3610
sS'name'
p3611
S'\xe0\xa4\x9b\xe0\xa5\x80\xe0\xa4\xa8'
p3612
sS'af'
p3613
S'\xe0\xa4\x9b\xe0\xa5\x80\xe0\xa4\xa8,v,any,pl,any,,0_\xe0\xa4\xb2\xe0\xa5\x87+\xe0\xa4\xaf\xe0\xa4\xbe,0'
p3614
sS'chunkid'
p3615
S'VGF'
p3616
sS'chunktype'
p3617
S'head:VGF'
p3618
sS'voicetype'
p3619
S'active'
p3620
sS'vpos'
p3621
S'tam_2'
p3622
sS'stype'
p3623
S'declarative'
p3624
ssbsg34
I00
sg35
I00
sg36
Nsg37
Nsg38
I3
sg39
I8
sg40
Nsg41
Nsg42
S'VM'
p3625
sg44
g3606
sg45
I00
sba(issf_api
Word
p3626
(dp3627
g6
I00
sg7
V\u0932\u093f\u090f
p3628
sg9
(issf_api
FeatureSet
p3629
(dp3630
g12
(dp3631
S'posn'
p3632
S'100'
p3633
sS'name'
p3634
S'\xe0\xa4\xb2\xe0\xa4\xbf\xe0\xa4\x8f'
p3635
sS'drel'
p3636
S'lwg__vaux:VGF'
p3637
sS'chunktype'
p3638
S'child:VGF'
p3639
sS'af'
p3640
S'\xe0\xa4\xb2\xe0\xa5\x87,v,m,pl,any,,\xe0\xa4\xaf\xe0\xa4\xbe,yA'
p3641
ssbsg34
I00
sg35
I00
sg36
Nsg37
Nsg38
I3
sg39
I8
sg40
Nsg41
Nsg42
S'VAUX'
p3642
sg44
g3629
sg45
I00
sba(issf_api
Word
p3643
(dp3644
g6
I00
sg7
V\u0964
p3645
sg9
(issf_api
FeatureSet
p3646
(dp3647
g12
(dp3648
S'posn'
p3649
S'110'
p3650
sS'name'
p3651
S'\xe0\xa5\xa4'
p3652
sS'af'
p3653
S'\xe0\xa5\xa4,punc,,,,,,'
p3654
sS'chunkid'
p3655
S'BLK'
p3656
sS'drel'
p3657
S'rsym:VGF'
p3658
sS'chunktype'
p3659
S'head:BLK'
p3660
ssbsg34
I00
sg35
I00
sg36
Nsg37
Nsg38
I4
sg39
I8
sg40
Nsg41
Nsg42
S'SYM'
p3661
sg44
g3646
sg45
I00
sba(issf_api
Word
p3662
(dp3663
g6
I00
sg7
V\u091c\u093e\u0924\u0947
p3664
sg9
(issf_api
FeatureSet
p3665
(dp3666
g12
(dp3667
S'posn'
p3668
S'10'
p3669
sS'name'
p3670
S'\xe0\xa4\x9c\xe0\xa4\xbe\xe0\xa4\xa4\xe0\xa5\x87'
p3671
sS'af'
p3672
S'\xe0\xa4\x9c\xe0\xa4\xbe,v,m,sg,any,o,\xe0\xa4\xa4\xe0\xa4\xbe_\xe0\xa4\xb5\xe0\xa4\x95\xe0\xa5\x8d\xe0\xa4\xa4,wA'
p3673
sS'chunkid'
p3674
S'VGNN'
p3675
sS'drel'
p3676
S'k7t:VGF'
p3677
sS'vpos'
p3678
S'tam_2'
p3679
sS'chunktype'
p3680
S'head:VGNN'
p3681
ssbsg34
I00
sg35
I00
sg36
Nsg37
Nsg38
I0
sg39
I9
sg40
Nsg41
Nsg42
S'VM'
p3682
sg44
g3665
sg45
I00
sba(issf_api
Word
p3683
(dp3684
g6
I00
sg7
V\u0935\u0915\u094d\u0924
p3685
sg9
(issf_api
FeatureSet
p3686
(dp3687
g12
(dp3688
S'posn'
p3689
S'20'
p3690
sS'name'
p3691
S'\xe0\xa4\xb5\xe0\xa4\x95\xe0\xa5\x8d\xe0\xa4\xa4'
p3692
sS'drel'
p3693
S'lwg__psp:VGNN'
p3694
sS'chunktype'
p3695
S'child:VGNN'
p3696
sS'af'
p3697
S'\xe0\xa4\xb5\xe0\xa4\x95\xe0\xa5\x8d\xe0\xa4\xa4,n,m,,,o,,'
p3698
ssbsg34
I00
sg35
I00
sg36
Nsg37
Nsg38
I0
sg39
I9
sg40
Nsg41
Nsg42
S'PSP'
p3699
sg44
g3686
sg45
I00
sba(issf_api
Word
p3700
(dp3701
g6
I00
sg7
V\u0909\u0928\u094d\u0939\u094b\u0902\u0928\u0947
p3702
sg9
(issf_api
FeatureSet
p3703
(dp3704
g12
(dp3705
S'crefhead'
p3706
S'\xe0\xa4\x89\xe0\xa4\xa8\xe0\xa5\x8d\xe0\xa4\xb9\xe0\xa5\x8b\xe0\xa4\x82\xe0\xa4\xa8\xe0\xa5\x87:i37'
p3707
sS'posn'
p3708
S'30'
p3709
sS'name'
p3710
S'\xe0\xa4\x89\xe0\xa4\xa8\xe0\xa5\x8d\xe0\xa4\xb9\xe0\xa5\x8b\xe0\xa4\x82\xe0\xa4\xa8\xe0\xa5\x87'
p3711
sS'af'
p3712
S'\xe0\xa4\xb5\xe0\xa4\xb9,pn,any,pl,3,o,\xe0\xa4\xa8\xe0\xa5\x87,ne'
p3713
sS'chunkid'
p3714
S'NP'
p3715
sS'creftype'
p3716
S'Anaphora-C:i35'
p3717
sS'chunktype'
p3718
S'head:NP'
p3719
sS'cref'
p3720
S'i37%1:t7'
p3721
sS'drel'
p3722
S'k1:VGF'
p3723
ssbsg34
I00
sg35
I00
sg36
Nsg37
Nsg38
I1
sg39
I9
sg40
Nsg41
Nsg42
S'PRP'
p3724
sg44
g3703
sg45
I00
sba(issf_api
Word
p3725
(dp3726
g6
I00
sg7
V\u0932\u0921\u093c\u0915\u093f\u092f\u094b\u0902
p3727
sg9
(issf_api
FeatureSet
p3728
(dp3729
g12
(dp3730
S'crefhead'
p3731
S'\xe0\xa4\xb2\xe0\xa4\xa1\xe0\xa4\xbc\xe0\xa4\x95\xe0\xa4\xbf\xe0\xa4\xaf\xe0\xa5\x8b\xe0\xa4\x82:i38'
p3732
sS'posn'
p3733
S'40'
p3734
sS'name'
p3735
S'\xe0\xa4\xb2\xe0\xa4\xa1\xe0\xa4\xbc\xe0\xa4\x95\xe0\xa4\xbf\xe0\xa4\xaf\xe0\xa5\x8b\xe0\xa4\x82'
p3736
sS'af'
p3737
S'\xe0\xa4\xb2\xe0\xa4\xa1\xe0\xa4\x95\xe0\xa5\x80,n,f,pl,3,o,0_\xe0\xa4\x95\xe0\xa5\x8b,0'
p3738
sS'chunkid'
p3739
S'NP2'
p3740
sS'creftype'
p3741
S'Coreference-Identity:i36'
p3742
sS'chunktype'
p3743
S'head:NP2'
p3744
sS'vpos'
p3745
S'vib_2'
p3746
sS'cref'
p3747
S'i38%1:t3'
p3748
sS'drel'
p3749
S'k4:VGF'
p3750
ssbsg34
I00
sg35
I00
sg36
Nsg37
Nsg38
I2
sg39
I9
sg40
Nsg41
Nsg42
S'NN'
p3751
sg44
g3728
sg45
I00
sba(issf_api
Word
p3752
(dp3753
g6
I00
sg7
V\u0915\u094b
p3754
sg9
(issf_api
FeatureSet
p3755
(dp3756
g12
(dp3757
S'posn'
p3758
S'50'
p3759
sS'name'
p3760
S'\xe0\xa4\x95\xe0\xa5\x8b'
p3761
sS'drel'
p3762
S'lwg__psp:NP2'
p3763
sS'chunktype'
p3764
S'child:NP2'
p3765
sS'af'
p3766
S'\xe0\xa4\x95\xe0\xa5\x8b,psp,,,,,,'
p3767
ssbsg34
I00
sg35
I00
sg36
Nsg37
Nsg38
I2
sg39
I9
sg40
Nsg41
Nsg42
S'PSP'
p3768
sg44
g3755
sg45
I00
sba(issf_api
Word
p3769
(dp3770
g6
I00
sg7
V\u0927\u092e\u0915\u0940
p3771
sg9
(issf_api
FeatureSet
p3772
(dp3773
g12
(dp3774
S'posn'
p3775
S'60'
p3776
sS'name'
p3777
S'\xe0\xa4\xa7\xe0\xa4\xae\xe0\xa4\x95\xe0\xa5\x80'
p3778
sS'af'
p3779
S'\xe0\xa4\xa7\xe0\xa4\xae\xe0\xa4\x95\xe0\xa5\x80,n,f,sg,3,d,0,0'
p3780
sS'chunkid'
p3781
S'NP3'
p3782
sS'drel'
p3783
S'pof:VGF'
p3784
sS'chunktype'
p3785
S'head:NP3'
p3786
ssbsg34
I00
sg35
I00
sg36
Nsg37
Nsg38
I3
sg39
I9
sg40
Nsg41
Nsg42
S'NN'
p3787
sg44
g3772
sg45
I00
sba(issf_api
Word
p3788
(dp3789
g6
I00
sg7
V\u0926\u0940
p3790
sg9
(issf_api
FeatureSet
p3791
(dp3792
g12
(dp3793
S'posn'
p3794
S'70'
p3795
sS'name'
p3796
S'\xe0\xa4\xa6\xe0\xa5\x80'
p3797
sS'af'
p3798
S'\xe0\xa4\xa6\xe0\xa5\x87,v,f,sg,any,,\xe0\xa4\xaf\xe0\xa4\xbe,yA'
p3799
sS'chunkid'
p3800
S'VGF'
p3801
sS'chunktype'
p3802
S'head:VGF'
p3803
sS'voicetype'
p3804
S'active'
p3805
sS'stype'
p3806
S'declarative'
p3807
ssbsg34
I00
sg35
I00
sg36
Nsg37
Nsg38
I4
sg39
I9
sg40
Nsg41
Nsg42
S'VM'
p3808
sg44
g3791
sg45
I00
sba(issf_api
Word
p3809
(dp3810
g6
I00
sg7
V\u0915\u093f
p3811
sg9
(issf_api
FeatureSet
p3812
(dp3813
g12
(dp3814
S'posn'
p3815
S'80'
p3816
sS'name'
p3817
S'\xe0\xa4\x95\xe0\xa4\xbf'
p3818
sS'af'
p3819
S'\xe0\xa4\x95\xe0\xa4\xbf,avy,,,,,,'
p3820
sS'chunkid'
p3821
S'CCP'
p3822
sS'drel'
p3823
S'k2:VGF'
p3824
sS'chunktype'
p3825
S'head:CCP'
p3826
ssbsg34
I00
sg35
I00
sg36
Nsg37
Nsg38
I5
sg39
I9
sg40
Nsg41
Nsg42
S'CC'
p3827
sg44
g3812
sg45
I00
sba(issf_api
Word
p3828
(dp3829
g6
I00
sg7
V\u0905\u0917\u0930
p3830
sg9
(issf_api
FeatureSet
p3831
(dp3832
g12
(dp3833
S'posn'
p3834
S'90'
p3835
sS'name'
p3836
S'\xe0\xa4\x85\xe0\xa4\x97\xe0\xa4\xb0'
p3837
sS'af'
p3838
S'\xe0\xa4\x85\xe0\xa4\x97\xe0\xa4\xb0,avy,,,,,,'
p3839
sS'chunkid'
p3840
S'CCP2'
p3841
sS'drel'
p3842
S'vmod:VGF3'
p3843
sS'chunktype'
p3844
S'head:CCP2'
p3845
ssbsg34
I00
sg35
I00
sg36
Nsg37
Nsg38
I6
sg39
I9
sg40
Nsg41
Nsg42
S'CC'
p3846
sg44
g3831
sg45
I00
sba(issf_api
Word
p3847
(dp3848
g6
I00
sg7
V\u0909\u0928\u094d\u0939\u094b\u0902\u0928\u0947
p3849
sg9
(issf_api
FeatureSet
p3850
(dp3851
g12
(dp3852
S'crefhead'
p3853
S'\xe0\xa4\x89\xe0\xa4\xa8\xe0\xa5\x8d\xe0\xa4\xb9\xe0\xa5\x8b\xe0\xa4\x82\xe0\xa4\xa8\xe0\xa5\x87:i39'
p3854
sS'posn'
p3855
S'100'
p3856
sS'name'
p3857
S'\xe0\xa4\x89\xe0\xa4\xa8\xe0\xa5\x8d\xe0\xa4\xb9\xe0\xa5\x8b\xe0\xa4\x82\xe0\xa4\xa8\xe0\xa5\x872'
p3858
sS'af'
p3859
S'\xe0\xa4\xb5\xe0\xa4\xb9,pn,any,pl,3,o,\xe0\xa4\xa8\xe0\xa5\x87,ne'
p3860
sS'chunkid'
p3861
S'NP4'
p3862
sS'creftype'
p3863
S'Anaphora-C:i37'
p3864
sS'chunktype'
p3865
S'head:NP4'
p3866
sS'cref'
p3867
S'i39%1:t7'
p3868
sS'drel'
p3869
S'k1:VGF2'
p3870
ssbsg34
I00
sg35
I00
sg36
Nsg37
Nsg38
I7
sg39
I9
sg40
Nsg41
Nsg42
S'PRP'
p3871
sg44
g3850
sg45
I00
sba(issf_api
Word
p3872
(dp3873
g6
I00
sg7
V\u092e\u0941\u0902\u0939
p3874
sg9
(issf_api
FeatureSet
p3875
(dp3876
g12
(dp3877
S'posn'
p3878
S'110'
p3879
sS'name'
p3880
S'\xe0\xa4\xae\xe0\xa5\x81\xe0\xa4\x82\xe0\xa4\xb9'
p3881
sS'af'
p3882
S'\xe0\xa4\xae\xe0\xa5\x81\xe0\xa4\x81\xe0\xa4\xb9,n,m,sg,3,d,0,0'
p3883
sS'chunkid'
p3884
S'NP5'
p3885
sS'drel'
p3886
S'k2:VGF2'
p3887
sS'chunktype'
p3888
S'head:NP5'
p3889
ssbsg34
I00
sg35
I00
sg36
Nsg37
Nsg38
I8
sg39
I9
sg40
Nsg41
Nsg42
S'NN'
p3890
sg44
g3875
sg45
I00
sba(issf_api
Word
p3891
(dp3892
g6
I00
sg7
V\u0916\u094b\u0932\u093e
p3893
sg9
(issf_api
FeatureSet
p3894
(dp3895
g12
(dp3896
S'posn'
p3897
S'120'
p3898
sS'name'
p3899
S'\xe0\xa4\x96\xe0\xa5\x8b\xe0\xa4\xb2\xe0\xa4\xbe'
p3900
sS'af'
p3901
S'\xe0\xa4\x96\xe0\xa5\x8b\xe0\xa4\xb2,v,m,sg,any,,\xe0\xa4\xaf\xe0\xa4\xbe,yA'
p3902
sS'chunkid'
p3903
S'VGF2'
p3904
sS'stype'
p3905
S'declarative'
p3906
sS'drel'
p3907
S'ccof:CCP2'
p3908
sS'voicetype'
p3909
S'active'
p3910
sS'chunktype'
p3911
S'head:VGF2'
p3912
ssbsg34
I00
sg35
I00
sg36
Nsg37
Nsg38
I9
sg39
I9
sg40
Nsg41
Nsg42
S'VM'
p3913
sg44
g3894
sg45
I00
sba(issf_api
Word
p3914
(dp3915
g6
I00
sg7
V\u0924\u094b
p3916
sg9
(issf_api
FeatureSet
p3917
(dp3918
g12
(dp3919
S'posn'
p3920
S'130'
p3921
sS'name'
p3922
S'\xe0\xa4\xa4\xe0\xa5\x8b'
p3923
sS'af'
p3924
S'\xe0\xa4\xa4\xe0\xa5\x8b,avy,,,,,,'
p3925
sS'chunkid'
p3926
S'CCP3'
p3927
sS'drel'
p3928
S'ccof:CCP'
p3929
sS'chunktype'
p3930
S'head:CCP3'
p3931
ssbsg34
I00
sg35
I00
sg36
Nsg37
Nsg38
I10
sg39
I9
sg40
Nsg41
Nsg42
S'CC'
p3932
sg44
g3917
sg45
I00
sba(issf_api
Word
p3933
(dp3934
g6
I00
sg7
V\u0909\u0928\u094d\u0939\u0947\u0902
p3935
sg9
(issf_api
FeatureSet
p3936
(dp3937
g12
(dp3938
S'crefhead'
p3939
S'\xe0\xa4\x89\xe0\xa4\xa8\xe0\xa5\x8d\xe0\xa4\xb9\xe0\xa5\x87\xe0\xa4\x82:i40'
p3940
sS'posn'
p3941
S'140'
p3942
sS'name'
p3943
S'\xe0\xa4\x89\xe0\xa4\xa8\xe0\xa5\x8d\xe0\xa4\xb9\xe0\xa5\x87\xe0\xa4\x82'
p3944
sS'af'
p3945
S'\xe0\xa4\xb5\xe0\xa4\xb9,pn,any,pl,3,o,\xe0\xa4\x95\xe0\xa5\x8b,ko'
p3946
sS'chunkid'
p3947
S'NP6'
p3948
sS'creftype'
p3949
S'Anaphora-C:i39'
p3950
sS'chunktype'
p3951
S'head:NP6'
p3952
sS'cref'
p3953
S'i40%1:t7'
p3954
sS'drel'
p3955
S'ccof:CCP4'
p3956
ssbsg34
I00
sg35
I00
sg36
Nsg37
Nsg38
I11
sg39
I9
sg40
Nsg41
Nsg42
S'PRP'
p3957
sg44
g3936
sg45
I00
sba(issf_api
Word
p3958
(dp3959
g6
I00
sg7
V\u0914\u0930
p3960
sg9
(issf_api
FeatureSet
p3961
(dp3962
g12
(dp3963
S'posn'
p3964
S'150'
p3965
sS'name'
p3966
S'\xe0\xa4\x94\xe0\xa4\xb0'
p3967
sS'af'
p3968
S'\xe0\xa4\x94\xe0\xa4\xb0,avy,,,,,,'
p3969
sS'chunkid'
p3970
S'CCP4'
p3971
sS'drel'
p3972
S'k2:VGF3'
p3973
sS'chunktype'
p3974
S'head:CCP4'
p3975
ssbsg34
I00
sg35
I00
sg36
Nsg37
Nsg38
I12
sg39
I9
sg40
Nsg41
Nsg42
S'CC'
p3976
sg44
g3961
sg45
I00
sba(issf_api
Word
p3977
(dp3978
g6
I00
sg7
V\u0909\u0928\u0915\u0947
p3979
sg9
(issf_api
FeatureSet
p3980
(dp3981
g12
(dp3982
S'crefhead'
p3983
S'\xe0\xa4\x89\xe0\xa4\xa8\xe0\xa4\x95\xe0\xa5\x87:i41'
p3984
sS'posn'
p3985
S'160'
p3986
sS'name'
p3987
S'\xe0\xa4\x89\xe0\xa4\xa8\xe0\xa4\x95\xe0\xa5\x87'
p3988
sS'af'
p3989
S'\xe0\xa4\xb5\xe0\xa4\xb9,pn,m,pl,3,o,\xe0\xa4\x95\xe0\xa4\xbe,kA'
p3990
sS'chunkid'
p3991
S'NP7'
p3992
sS'creftype'
p3993
S'Anaphora-C:i40'
p3994
sS'chunktype'
p3995
S'head:NP7'
p3996
sS'cref'
p3997
S'i41%1:t7'
p3998
sS'drel'
p3999
S'r6:NP8'
p4000
ssbsg34
I00
sg35
I00
sg36
Nsg37
Nsg38
I13
sg39
I9
sg40
Nsg41
Nsg42
S'PRP'
p4001
sg44
g3980
sg45
I00
sba(issf_api
Word
p4002
(dp4003
g6
I00
sg7
V\u092a\u0930\u093f\u0935\u093e\u0930
p4004
sg9
(issf_api
FeatureSet
p4005
(dp4006
g12
(dp4007
S'posn'
p4008
S'170'
p4009
sS'name'
p4010
S'\xe0\xa4\xaa\xe0\xa4\xb0\xe0\xa4\xbf\xe0\xa4\xb5\xe0\xa4\xbe\xe0\xa4\xb0'
p4011
sS'af'
p4012
S'\xe0\xa4\xaa\xe0\xa4\xb0\xe0\xa4\xbf\xe0\xa4\xb5\xe0\xa4\xbe\xe0\xa4\xb0,n,m,sg,3,o,0_\xe0\xa4\xb5\xe0\xa4\xbe\xe0\xa4\xb2\xe0\xa4\xbe_\xe0\xa4\x95\xe0\xa5\x8b,0'
p4013
sS'chunkid'
p4014
S'NP8'
p4015
sS'drel'
p4016
S'ccof:CCP4'
p4017
sS'vpos'
p4018
S'vib_2_3'
p4019
sS'chunktype'
p4020
S'head:NP8'
p4021
ssbsg34
I00
sg35
I00
sg36
Nsg37
Nsg38
I14
sg39
I9
sg40
Nsg41
Nsg42
S'NN'
p4022
sg44
g4005
sg45
I00
sba(issf_api
Word
p4023
(dp4024
g6
I00
sg7
V\u0935\u093e\u0932\u094b\u0902
p4025
sg9
(issf_api
FeatureSet
p4026
(dp4027
g12
(dp4028
S'posn'
p4029
S'180'
p4030
sS'name'
p4031
S'\xe0\xa4\xb5\xe0\xa4\xbe\xe0\xa4\xb2\xe0\xa5\x8b\xe0\xa4\x82'
p4032
sS'drel'
p4033
S'lwg__psp:NP8'
p4034
sS'chunktype'
p4035
S'child:NP8'
p4036
sS'af'
p4037
S'\xe0\xa4\xb5\xe0\xa4\xbe\xe0\xa4\xb2\xe0\xa4\xbe,psp,m,pl,,o,,'
p4038
ssbsg34
I00
sg35
I00
sg36
Nsg37
Nsg38
I14
sg39
I9
sg40
Nsg41
Nsg42
S'PSP'
p4039
sg44
g4026
sg45
I00
sba(issf_api
Word
p4040
(dp4041
g6
I00
sg7
V\u0915\u094b
p4042
sg9
(issf_api
FeatureSet
p4043
(dp4044
g12
(dp4045
S'posn'
p4046
S'190'
p4047
sS'name'
p4048
S'\xe0\xa4\x95\xe0\xa5\x8b2'
p4049
sS'drel'
p4050
S'lwg__psp:NP8'
p4051
sS'chunktype'
p4052
S'child:NP8'
p4053
sS'af'
p4054
S'\xe0\xa4\x95\xe0\xa5\x8b,psp,,,,,,'
p4055
ssbsg34
I00
sg35
I00
sg36
Nsg37
Nsg38
I14
sg39
I9
sg40
Nsg41
Nsg42
S'PSP'
p4056
sg44
g4043
sg45
I00
sba(issf_api
Word
p4057
(dp4058
g6
I00
sg7
V\u092e\u093e\u0930
p4059
sg9
(issf_api
FeatureSet
p4060
(dp4061
g12
(dp4062
S'posn'
p4063
S'200'
p4064
sS'name'
p4065
S'\xe0\xa4\xae\xe0\xa4\xbe\xe0\xa4\xb0'
p4066
sS'af'
p4067
S'\xe0\xa4\xae\xe0\xa4\xbe\xe0\xa4\xb0,v,m,sg,3,,0_\xe0\xa4\xa6\xe0\xa5\x87+\xe0\xa4\xaf\xe0\xa4\xbe_\xe0\xa4\x9c\xe0\xa4\xbe+\xe0\xa4\x97\xe0\xa4\xbe,0'
p4068
sS'chunkid'
p4069
S'VGF3'
p4070
sS'stype'
p4071
S'declarative'
p4072
sS'drel'
p4073
S'ccof:CCP3'
p4074
sS'voicetype'
p4075
S'passive'
p4076
sS'vpos'
p4077
S'tam_2_3'
p4078
sS'chunktype'
p4079
S'head:VGF3'
p4080
ssbsg34
I00
sg35
I00
sg36
Nsg37
Nsg38
I15
sg39
I9
sg40
Nsg41
Nsg42
S'VM'
p4081
sg44
g4060
sg45
I00
sba(issf_api
Word
p4082
(dp4083
g6
I00
sg7
V\u0926\u093f\u092f\u093e
p4084
sg9
(issf_api
FeatureSet
p4085
(dp4086
g12
(dp4087
S'posn'
p4088
S'210'
p4089
sS'name'
p4090
S'\xe0\xa4\xa6\xe0\xa4\xbf\xe0\xa4\xaf\xe0\xa4\xbe'
p4091
sS'drel'
p4092
S'lwg__vaux:VGF3'
p4093
sS'chunktype'
p4094
S'child:VGF3'
p4095
sS'af'
p4096
S'\xe0\xa4\xa6\xe0\xa5\x87,v,m,sg,any,,\xe0\xa4\xaf\xe0\xa4\xbe,yA'
p4097
ssbsg34
I00
sg35
I00
sg36
Nsg37
Nsg38
I15
sg39
I9
sg40
Nsg41
Nsg42
S'VAUX'
p4098
sg44
g4085
sg45
I00
sba(issf_api
Word
p4099
(dp4100
g6
I00
sg7
V\u091c\u093e\u090f\u0917\u093e
p4101
sg9
(issf_api
FeatureSet
p4102
(dp4103
g12
(dp4104
S'posn'
p4105
S'220'
p4106
sS'name'
p4107
S'\xe0\xa4\x9c\xe0\xa4\xbe\xe0\xa4\x8f\xe0\xa4\x97\xe0\xa4\xbe'
p4108
sS'drel'
p4109
S'lwg__vaux:VGF3'
p4110
sS'chunktype'
p4111
S'child:VGF3'
p4112
sS'af'
p4113
S'\xe0\xa4\x9c\xe0\xa4\xbe,v,m,sg,3,,\xe0\xa4\x97\xe0\xa4\xbe,gA'
p4114
ssbsg34
I00
sg35
I00
sg36
Nsg37
Nsg38
I15
sg39
I9
sg40
Nsg41
Nsg42
S'VAUX'
p4115
sg44
g4102
sg45
I00
sba(issf_api
Word
p4116
(dp4117
g6
I00
sg7
V\u0964
p4118
sg9
(issf_api
FeatureSet
p4119
(dp4120
g12
(dp4121
S'posn'
p4122
S'230'
p4123
sS'name'
p4124
S'\xe0\xa5\xa4'
p4125
sS'af'
p4126
S'\xe0\xa5\xa4,punc,,,,,,'
p4127
sS'chunkid'
p4128
S'BLK'
p4129
sS'drel'
p4130
S'rsym:VGF'
p4131
sS'chunktype'
p4132
S'head:BLK'
p4133
ssbsg34
I00
sg35
I00
sg36
Nsg37
Nsg38
I16
sg39
I9
sg40
Nsg41
Nsg42
S'SYM'
p4134
sg44
g4119
sg45
I00
sba(issf_api
Word
p4135
(dp4136
g6
I00
sg7
V\u092a\u0941\u0932\u093f\u0938
p4137
sg9
(issf_api
FeatureSet
p4138
(dp4139
g12
(dp4140
S'crefhead'
p4141
S'\xe0\xa4\xaa\xe0\xa5\x81\xe0\xa4\xb2\xe0\xa4\xbf\xe0\xa4\xb8:i42'
p4142
sS'posn'
p4143
S'10'
p4144
sS'name'
p4145
S'\xe0\xa4\xaa\xe0\xa5\x81\xe0\xa4\xb2\xe0\xa4\xbf\xe0\xa4\xb8'
p4146
sS'af'
p4147
S'\xe0\xa4\xaa\xe0\xa5\x81\xe0\xa4\xb2\xe0\xa4\xbf\xe0\xa4\xb8,n,f,sg,3,o,0_\xe0\xa4\xa8\xe0\xa5\x87,0'
p4148
sS'chunkid'
p4149
S'NP'
p4150
sS'creftype'
p4151
S'Coreference-Identity:i20'
p4152
sS'chunktype'
p4153
S'head:NP'
p4154
sS'vpos'
p4155
S'vib_2'
p4156
sS'cref'
p4157
S'i42%1:t8'
p4158
sS'drel'
p4159
S'k1:VGF'
p4160
ssbsg34
I00
sg35
I00
sg36
Nsg37
Nsg38
I0
sg39
I10
sg40
Nsg41
Nsg42
S'NN'
p4161
sg44
g4138
sg45
I00
sba(issf_api
Word
p4162
(dp4163
g6
I00
sg7
V\u0928\u0947
p4164
sg9
(issf_api
FeatureSet
p4165
(dp4166
g12
(dp4167
S'posn'
p4168
S'20'
p4169
sS'name'
p4170
S'\xe0\xa4\xa8\xe0\xa5\x87'
p4171
sS'drel'
p4172
S'lwg__psp:NP'
p4173
sS'chunktype'
p4174
S'child:NP'
p4175
sS'af'
p4176
S'\xe0\xa4\xa8\xe0\xa5\x87,psp,,,,,,'
p4177
ssbsg34
I00
sg35
I00
sg36
Nsg37
Nsg38
I0
sg39
I10
sg40
Nsg41
Nsg42
S'PSP'
p4178
sg44
g4165
sg45
I00
sba(issf_api
Word
p4179
(dp4180
g6
I00
sg7
V\u0938\u093e\u092e\u0942\u0939\u093f\u0915
p4181
sg9
(issf_api
FeatureSet
p4182
(dp4183
g12
(dp4184
S'posn'
p4185
S'30'
p4186
sS'name'
p4187
S'\xe0\xa4\xb8\xe0\xa4\xbe\xe0\xa4\xae\xe0\xa5\x82\xe0\xa4\xb9\xe0\xa4\xbf\xe0\xa4\x95'
p4188
sS'af'
p4189
S'\xe0\xa4\xb8\xe0\xa4\xbe\xe0\xa4\xae\xe0\xa5\x82\xe0\xa4\xb9\xe0\xa4\xbf\xe0\xa4\x95,adj,any,any,,o,,'
p4190
sS'drel'
p4191
S'nmod__adj:NP2'
p4192
sS'chunktype'
p4193
S'child:NP2'
p4194
sS'cref'
p4195
S'i43%0:t4'
p4196
ssbsg34
I00
sg35
I00
sg36
Nsg37
Nsg38
I1
sg39
I10
sg40
Nsg41
Nsg42
S'JJ'
p4197
sg44
g4182
sg45
I00
sba(issf_api
Word
p4198
(dp4199
g6
I00
sg7
V\u092c\u0932\u093e\u0924\u094d\u0915\u093e\u0930
p4200
sg9
(issf_api
FeatureSet
p4201
(dp4202
g12
(dp4203
S'crefhead'
p4204
S'\xe0\xa4\xac\xe0\xa4\xb2\xe0\xa4\xbe\xe0\xa4\xa4\xe0\xa5\x8d\xe0\xa4\x95\xe0\xa4\xbe\xe0\xa4\xb0:i43'
p4205
sS'posn'
p4206
S'40'
p4207
sS'name'
p4208
S'\xe0\xa4\xac\xe0\xa4\xb2\xe0\xa4\xbe\xe0\xa4\xa4\xe0\xa5\x8d\xe0\xa4\x95\xe0\xa4\xbe\xe0\xa4\xb0'
p4209
sS'af'
p4210
S'\xe0\xa4\xac\xe0\xa4\xb2\xe0\xa4\xbe\xe0\xa4\xa4\xe0\xa5\x8d\xe0\xa4\x95\xe0\xa4\xbe\xe0\xa4\xb0,n,m,sg,3,o,0_\xe0\xa4\x95\xe0\xa4\xbe,0'
p4211
sS'chunkid'
p4212
S'NP2'
p4213
sS'creftype'
p4214
S'Coreference-Identity:i24'
p4215
sS'chunktype'
p4216
S'head:NP2'
p4217
sS'vpos'
p4218
S'vib_3'
p4219
sS'cref'
p4220
S'i43%1:t4'
p4221
sS'drel'
p4222
S'r6:NP3'
p4223
ssbsg34
I00
sg35
I00
sg36
Nsg37
Nsg38
I1
sg39
I10
sg40
Nsg41
Nsg42
S'NN'
p4224
sg44
g4201
sg45
I00
sba(issf_api
Word
p4225
(dp4226
g6
I00
sg7
V\u0915\u093e
p4227
sg9
(issf_api
FeatureSet
p4228
(dp4229
g12
(dp4230
S'posn'
p4231
S'50'
p4232
sS'name'
p4233
S'\xe0\xa4\x95\xe0\xa4\xbe'
p4234
sS'drel'
p4235
S'lwg__psp:NP2'
p4236
sS'chunktype'
p4237
S'child:NP2'
p4238
sS'af'
p4239
S'\xe0\xa4\x95\xe0\xa4\xbe,psp,m,sg,,d,,'
p4240
ssbsg34
I00
sg35
I00
sg36
Nsg37
Nsg38
I1
sg39
I10
sg40
Nsg41
Nsg42
S'PSP'
p4241
sg44
g4228
sg45
I00
sba(issf_api
Word
p4242
(dp4243
g6
I00
sg7
V\u092e\u093e\u092e\u0932\u093e
p4244
sg9
(issf_api
FeatureSet
p4245
(dp4246
g12
(dp4247
S'posn'
p4248
S'60'
p4249
sS'name'
p4250
S'\xe0\xa4\xae\xe0\xa4\xbe\xe0\xa4\xae\xe0\xa4\xb2\xe0\xa4\xbe'
p4251
sS'af'
p4252
S'\xe0\xa4\xae\xe0\xa4\xbe\xe0\xa4\xae\xe0\xa4\xb2\xe0\xa4\xbe,n,m,sg,3,d,0,0'
p4253
sS'chunkid'
p4254
S'NP3'
p4255
sS'drel'
p4256
S'k2:VGF'
p4257
sS'chunktype'
p4258
S'head:NP3'
p4259
ssbsg34
I00
sg35
I00
sg36
Nsg37
Nsg38
I2
sg39
I10
sg40
Nsg41
Nsg42
S'NN'
p4260
sg44
g4245
sg45
I00
sba(issf_api
Word
p4261
(dp4262
g6
I00
sg7
V\u0926\u0930\u094d\u091c
p4263
sg9
(issf_api
FeatureSet
p4264
(dp4265
g12
(dp4266
S'posn'
p4267
S'70'
p4268
sS'name'
p4269
S'\xe0\xa4\xa6\xe0\xa4\xb0\xe0\xa5\x8d\xe0\xa4\x9c'
p4270
sS'af'
p4271
S'\xe0\xa4\xa6\xe0\xa4\xb0\xe0\xa5\x8d\xe0\xa4\x9c,adj,any,any,,,,'
p4272
sS'chunkid'
p4273
S'JJP'
p4274
sS'drel'
p4275
S'pof:VGF'
p4276
sS'chunktype'
p4277
S'head:JJP'
p4278
ssbsg34
I00
sg35
I00
sg36
Nsg37
Nsg38
I3
sg39
I10
sg40
Nsg41
Nsg42
S'JJ'
p4279
sg44
g4264
sg45
I00
sba(issf_api
Word
p4280
(dp4281
g6
I00
sg7
V\u0915\u0930
p4282
sg9
(issf_api
FeatureSet
p4283
(dp4284
g12
(dp4285
S'posn'
p4286
S'80'
p4287
sS'name'
p4288
S'\xe0\xa4\x95\xe0\xa4\xb0'
p4289
sS'af'
p4290
S'\xe0\xa4\x95\xe0\xa4\xb0,v,m,sg,3,,0_\xe0\xa4\xb2\xe0\xa5\x87+\xe0\xa4\xaf\xe0\xa4\xbe_\xe0\xa4\xb9\xe0\xa5\x88,0'
p4291
sS'chunkid'
p4292
S'VGF'
p4293
sS'chunktype'
p4294
S'head:VGF'
p4295
sS'voicetype'
p4296
S'active'
p4297
sS'vpos'
p4298
S'tam_2_3'
p4299
sS'stype'
p4300
S'declarative'
p4301
ssbsg34
I00
sg35
I00
sg36
Nsg37
Nsg38
I4
sg39
I10
sg40
Nsg41
Nsg42
S'VM'
p4302
sg44
g4283
sg45
I00
sba(issf_api
Word
p4303
(dp4304
g6
I00
sg7
V\u0932\u093f\u092f\u093e
p4305
sg9
(issf_api
FeatureSet
p4306
(dp4307
g12
(dp4308
S'posn'
p4309
S'90'
p4310
sS'name'
p4311
S'\xe0\xa4\xb2\xe0\xa4\xbf\xe0\xa4\xaf\xe0\xa4\xbe'
p4312
sS'drel'
p4313
S'lwg__vaux:VGF'
p4314
sS'chunktype'
p4315
S'child:VGF'
p4316
sS'af'
p4317
S'\xe0\xa4\xb2\xe0\xa5\x87,v,m,sg,any,,\xe0\xa4\xaf\xe0\xa4\xbe,yA'
p4318
ssbsg34
I00
sg35
I00
sg36
Nsg37
Nsg38
I4
sg39
I10
sg40
Nsg41
Nsg42
S'VAUX'
p4319
sg44
g4306
sg45
I00
sba(issf_api
Word
p4320
(dp4321
g6
I00
sg7
V\u0939\u0948
p4322
sg9
(issf_api
FeatureSet
p4323
(dp4324
g12
(dp4325
S'posn'
p4326
S'100'
p4327
sS'name'
p4328
S'\xe0\xa4\xb9\xe0\xa5\x88'
p4329
sS'drel'
p4330
S'lwg__vaux:VGF'
p4331
sS'chunktype'
p4332
S'child:VGF'
p4333
sS'af'
p4334
S'\xe0\xa4\xb9\xe0\xa5\x88,v,any,sg,3,,\xe0\xa4\xb9\xe0\xa5\x88,hE'
p4335
ssbsg34
I00
sg35
I00
sg36
Nsg37
Nsg38
I4
sg39
I10
sg40
Nsg41
Nsg42
S'VAUX'
p4336
sg44
g4323
sg45
I00
sba(issf_api
Word
p4337
(dp4338
g6
I00
sg7
V\u0964
p4339
sg9
(issf_api
FeatureSet
p4340
(dp4341
g12
(dp4342
S'posn'
p4343
S'110'
p4344
sS'name'
p4345
S'\xe0\xa5\xa4'
p4346
sS'af'
p4347
S'\xe0\xa5\xa4,punc,,,,,,'
p4348
sS'chunkid'
p4349
S'BLK'
p4350
sS'drel'
p4351
S'rsym:VGF'
p4352
sS'chunktype'
p4353
S'head:BLK'
p4354
ssbsg34
I00
sg35
I00
sg36
Nsg37
Nsg38
I5
sg39
I10
sg40
Nsg41
Nsg42
S'SYM'
p4355
sg44
g4340
sg45
I00
sba(issf_api
Word
p4356
(dp4357
g6
I00
sg7
V\u092f\u0947
p4358
sg9
(issf_api
FeatureSet
p4359
(dp4360
g12
(dp4361
S'posn'
p4362
S'10'
p4363
sS'name'
p4364
S'\xe0\xa4\xaf\xe0\xa5\x87'
p4365
sS'af'
p4366
S'\xe0\xa4\xaf\xe0\xa4\xb9,pn,any,pl,3,d,,'
p4367
sS'drel'
p4368
S'nmod__adj:NP'
p4369
sS'chunktype'
p4370
S'child:NP'
p4371
sS'cref'
p4372
S'i44%0:t7,i45%0:t10'
p4373
ssbsg34
I00
sg35
I00
sg36
Nsg37
Nsg38
I0
sg39
I11
sg40
Nsg41
Nsg42
S'DEM'
p4374
sg44
g4359
sg45
I00
sba(issf_api
Word
p4375
(dp4376
g6
I00
sg7
V\u0938\u092d\u0940
p4377
sg9
(issf_api
FeatureSet
p4378
(dp4379
g12
(dp4380
S'posn'
p4381
S'20'
p4382
sS'name'
p4383
S'\xe0\xa4\xb8\xe0\xa4\xad\xe0\xa5\x80'
p4384
sS'af'
p4385
S'\xe0\xa4\xb8\xe0\xa4\xad\xe0\xa5\x80,avy,,,,,,'
p4386
sS'drel'
p4387
S'nmod__adj:NP'
p4388
sS'chunktype'
p4389
S'child:NP'
p4390
sS'cref'
p4391
S'i44%0:t7,i45%0:t10'
p4392
ssbsg34
I00
sg35
I00
sg36
Nsg37
Nsg38
I0
sg39
I11
sg40
Nsg41
Nsg42
S'QF'
p4393
sg44
g4378
sg45
I00
sba(issf_api
Word
p4394
(dp4395
g6
I00
sg7
V\u092f\u0941\u0935\u0915
p4396
sg9
(issf_api
FeatureSet
p4397
(dp4398
g12
(dp4399
S'crefhead'
p4400
S'\xe0\xa4\xaf\xe0\xa5\x81\xe0\xa4\xb5\xe0\xa4\x95:i44'
p4401
sS'posn'
p4402
S'30'
p4403
sS'name'
p4404
S'\xe0\xa4\xaf\xe0\xa5\x81\xe0\xa4\xb5\xe0\xa4\x95'
p4405
sS'af'
p4406
S'\xe0\xa4\xaf\xe0\xa5\x81\xe0\xa4\xb5\xe0\xa4\x95,n,m,pl,3,d,0,0'
p4407
sS'chunkid'
p4408
S'NP'
p4409
sS'creftype'
p4410
S'Coreference-Identity:i41'
p4411
sS'chunktype'
p4412
S'head:NP'
p4413
sS'cref'
p4414
S'i44%1:t7,i45%0:t10'
p4415
sS'drel'
p4416
S'k1:VGF'
p4417
ssbsg34
I00
sg35
I00
sg36
Nsg37
Nsg38
I0
sg39
I11
sg40
Nsg41
Nsg42
S'NN'
p4418
sg44
g4397
sg45
I00
sba(issf_api
Word
p4419
(dp4420
g6
I00
sg7
V\u0928\u0915\u093e\u092c
p4421
sg9
(issf_api
FeatureSet
p4422
(dp4423
g12
(dp4424
S'posn'
p4425
S'40'
p4426
sS'name'
p4427
S'\xe0\xa4\xa8\xe0\xa4\x95\xe0\xa4\xbe\xe0\xa4\xac'
p4428
sS'af'
p4429
S'\xe0\xa4\xa8\xe0\xa4\x95\xe0\xa4\xbe\xe0\xa4\xac,n,m,sg,3,d,0,0'
p4430
sS'chunkid'
p4431
S'NP2'
p4432
sS'drel'
p4433
S'k2:VGF'
p4434
sS'chunktype'
p4435
S'head:NP2'
p4436
sS'cref'
p4437
S'i45%0:t10'
p4438
ssbsg34
I00
sg35
I00
sg36
Nsg37
Nsg38
I1
sg39
I11
sg40
Nsg41
Nsg42
S'NN'
p4439
sg44
g4422
sg45
I00
sba(issf_api
Word
p4440
(dp4441
g6
I00
sg7
V\u0932\u0917\u093e\u090f
p4442
sg9
(issf_api
FeatureSet
p4443
(dp4444
g12
(dp4445
S'posn'
p4446
S'50'
p4447
sS'name'
p4448
S'\xe0\xa4\xb2\xe0\xa4\x97\xe0\xa4\xbe\xe0\xa4\x8f'
p4449
sS'af'
p4450
S'\xe0\xa4\xb2\xe0\xa4\x97\xe0\xa4\xbe,v,m,pl,any,,\xe0\xa4\xaf\xe0\xa4\xbe_\xe0\xa4\xb9\xe0\xa5\x8b+\xe0\xa4\xaf\xe0\xa4\xbe_\xe0\xa4\xa5\xe0\xa4\xbe,yA'
p4451
sS'chunkid'
p4452
S'VGF'
p4453
sS'stype'
p4454
S'declarative'
p4455
sS'drel'
p4456
S'ccof:NULL__CCP'
p4457
sS'chunktype'
p4458
S'head:VGF'
p4459
sS'voicetype'
p4460
S'active'
p4461
sS'vpos'
p4462
S'tam_2_3'
p4463
sS'cref'
p4464
S'i45%0:t10'
p4465
ssbsg34
I00
sg35
I00
sg36
Nsg37
Nsg38
I2
sg39
I11
sg40
Nsg41
Nsg42
S'VM'
p4466
sg44
g4443
sg45
I00
sba(issf_api
Word
p4467
(dp4468
g6
I00
sg7
V\u0939\u0941\u090f
p4469
sg9
(issf_api
FeatureSet
p4470
(dp4471
g12
(dp4472
S'posn'
p4473
S'60'
p4474
sS'name'
p4475
S'\xe0\xa4\xb9\xe0\xa5\x81\xe0\xa4\x8f'
p4476
sS'af'
p4477
S'\xe0\xa4\xb9\xe0\xa5\x8b,v,m,pl,any,,\xe0\xa4\xaf\xe0\xa4\xbe,yA'
p4478
sS'drel'
p4479
S'lwg__vaux:VGF'
p4480
sS'chunktype'
p4481
S'child:VGF'
p4482
sS'cref'
p4483
S'i45%0:t10'
p4484
ssbsg34
I00
sg35
I00
sg36
Nsg37
Nsg38
I2
sg39
I11
sg40
Nsg41
Nsg42
S'VAUX'
p4485
sg44
g4470
sg45
I00
sba(issf_api
Word
p4486
(dp4487
g6
I00
sg7
V\u0925\u0947
p4488
sg9
(issf_api
FeatureSet
p4489
(dp4490
g12
(dp4491
S'crefhead'
p4492
S'\xe0\xa4\xa5\xe0\xa5\x87:i45'
p4493
sS'posn'
p4494
S'70'
p4495
sS'name'
p4496
S'\xe0\xa4\xa5\xe0\xa5\x87'
p4497
sS'af'
p4498
S'\xe0\xa4\xa5\xe0\xa4\xbe,v,m,pl,any,,\xe0\xa4\xa5\xe0\xa4\xbe,WA'
p4499
sS'drel'
p4500
S'lwg__vaux:VGF'
p4501
sS'crefchainhead'
p4502
S'i45:t10'
p4503
sS'chunktype'
p4504
S'child:VGF'
p4505
sS'cref'
p4506
S'i45%1:t10'
p4507
ssbsg34
I00
sg35
I00
sg36
Nsg37
Nsg38
I2
sg39
I11
sg40
Nsg41
Nsg42
S'VAUX'
p4508
sg44
g4489
sg45
I00
sba(issf_api
Word
p4509
(dp4510
g6
I00
sg7
V,
p4511
sg9
(issf_api
FeatureSet
p4512
(dp4513
g12
(dp4514
S'posn'
p4515
S'80'
p4516
sS'name'
p4517
g655
sS'drel'
p4518
S'rsym:VGF'
p4519
sS'chunktype'
p4520
S'child:VGF'
p4521
sS'af'
p4522
S'COMMA,punc,,,,,,'
p4523
ssbsg34
I00
sg35
I00
sg36
Nsg37
Nsg38
I2
sg39
I11
sg40
Nsg41
Nsg42
S'SYM'
p4524
sg44
g4512
sg45
I00
sba(issf_api
Word
p4525
(dp4526
g6
I00
sg7
V\u0907\u0938\u0932\u093f\u090f
p4527
sg9
(issf_api
FeatureSet
p4528
(dp4529
g12
(dp4530
S'crefhead'
p4531
S'\xe0\xa4\x87\xe0\xa4\xb8\xe0\xa4\xb2\xe0\xa4\xbf\xe0\xa4\x8f:i46'
p4532
sS'posn'
p4533
S'90'
p4534
sS'name'
p4535
S'\xe0\xa4\x87\xe0\xa4\xb8\xe0\xa4\xb2\xe0\xa4\xbf\xe0\xa4\x8f'
p4536
sS'af'
p4537
S'\xe0\xa4\x87\xe0\xa4\xb8\xe0\xa4\xb2\xe0\xa4\xbf\xe0\xa4\xaf\xe0\xa5\x87,pn,,,,,,'
p4538
sS'chunkid'
p4539
S'NP3'
p4540
sS'creftype'
p4541
S'Anaphora-E:i45'
p4542
sS'chunktype'
p4543
S'head:NP3'
p4544
sS'cref'
p4545
S'i46%1:t10'
p4546
sS'drel'
p4547
S'rh:VGF2'
p4548
ssbsg34
I00
sg35
I00
sg36
Nsg37
Nsg38
I3
sg39
I11
sg40
Nsg41
Nsg42
S'PRP'
p4549
sg44
g4528
sg45
I00
sba(issf_api
Word
p4550
(dp4551
g6
I00
sg7
V\u0932\u0921\u093c\u0915\u093f\u092f\u094b\u0902
p4552
sg9
(issf_api
FeatureSet
p4553
(dp4554
g12
(dp4555
S'crefhead'
p4556
S'\xe0\xa4\xb2\xe0\xa4\xa1\xe0\xa4\xbc\xe0\xa4\x95\xe0\xa4\xbf\xe0\xa4\xaf\xe0\xa5\x8b\xe0\xa4\x82:i47'
p4557
sS'posn'
p4558
S'100'
p4559
sS'name'
p4560
S'\xe0\xa4\xb2\xe0\xa4\xa1\xe0\xa4\xbc\xe0\xa4\x95\xe0\xa4\xbf\xe0\xa4\xaf\xe0\xa5\x8b\xe0\xa4\x82'
p4561
sS'af'
p4562
S'\xe0\xa4\xb2\xe0\xa4\xa1\xe0\xa4\x95\xe0\xa5\x80,n,f,pl,3,o,0_\xe0\xa4\x95\xe0\xa5\x87_\xe0\xa4\xb2\xe0\xa4\xbf\xe0\xa4\x8f,0'
p4563
sS'chunkid'
p4564
S'NP4'
p4565
sS'creftype'
p4566
S'Coreference-Identity:i38'
p4567
sS'chunktype'
p4568
S'head:NP4'
p4569
sS'vpos'
p4570
S'vib_2_3'
p4571
sS'cref'
p4572
S'i47%1:t3'
p4573
sS'drel'
p4574
S'rt:VGF2'
p4575
ssbsg34
I00
sg35
I00
sg36
Nsg37
Nsg38
I4
sg39
I11
sg40
Nsg41
Nsg42
S'NN'
p4576
sg44
g4553
sg45
I00
sba(issf_api
Word
p4577
(dp4578
g6
I00
sg7
V\u0915\u0947
p4579
sg9
(issf_api
FeatureSet
p4580
(dp4581
g12
(dp4582
S'posn'
p4583
S'110'
p4584
sS'name'
p4585
S'\xe0\xa4\x95\xe0\xa5\x87'
p4586
sS'drel'
p4587
S'lwg__psp:NP4'
p4588
sS'chunktype'
p4589
S'child:NP4'
p4590
sS'af'
p4591
S'\xe0\xa4\x95\xe0\xa5\x87,psp,,,,,,'
p4592
ssbsg34
I00
sg35
I00
sg36
Nsg37
Nsg38
I4
sg39
I11
sg40
Nsg41
Nsg42
S'PSP'
p4593
sg44
g4580
sg45
I00
sba(issf_api
Word
p4594
(dp4595
g6
I00
sg7
V\u0932\u093f\u090f
p4596
sg9
(issf_api
FeatureSet
p4597
(dp4598
g12
(dp4599
S'posn'
p4600
S'120'
p4601
sS'name'
p4602
S'\xe0\xa4\xb2\xe0\xa4\xbf\xe0\xa4\x8f'
p4603
sS'drel'
p4604
S'lwg__psp:NP4'
p4605
sS'chunktype'
p4606
S'child:NP4'
p4607
sS'af'
p4608
S'\xe0\xa4\xb2\xe0\xa4\xbf\xe0\xa4\x8f,psp,,,,,,'
p4609
ssbsg34
I00
sg35
I00
sg36
Nsg37
Nsg38
I4
sg39
I11
sg40
Nsg41
Nsg42
S'PSP'
p4610
sg44
g4597
sg45
I00
sba(issf_api
Word
p4611
(dp4612
g6
I00
sg7
V\u0909\u0928\u0915\u0940
p4613
sg9
(issf_api
FeatureSet
p4614
(dp4615
g12
(dp4616
S'crefhead'
p4617
S'\xe0\xa4\x89\xe0\xa4\xa8\xe0\xa4\x95\xe0\xa5\x80:i48'
p4618
sS'posn'
p4619
S'130'
p4620
sS'name'
p4621
S'\xe0\xa4\x89\xe0\xa4\xa8\xe0\xa4\x95\xe0\xa5\x80'
p4622
sS'af'
p4623
S'\xe0\xa4\xb5\xe0\xa4\xb9,pn,f,pl,3,o,\xe0\xa4\x95\xe0\xa4\xbe,kA'
p4624
sS'chunkid'
p4625
S'NP5'
p4626
sS'creftype'
p4627
S'Anaphora-C:i44'
p4628
sS'chunktype'
p4629
S'head:NP5'
p4630
sS'cref'
p4631
S'i48%1:t7'
p4632
sS'drel'
p4633
S'r6:NP6'
p4634
ssbsg34
I00
sg35
I00
sg36
Nsg37
Nsg38
I5
sg39
I11
sg40
Nsg41
Nsg42
S'PRP'
p4635
sg44
g4614
sg45
I00
sba(issf_api
Word
p4636
(dp4637
g6
I00
sg7
V\u092a\u0939\u091a\u093e\u0928
p4638
sg9
(issf_api
FeatureSet
p4639
(dp4640
g12
(dp4641
S'posn'
p4642
S'140'
p4643
sS'name'
p4644
S'\xe0\xa4\xaa\xe0\xa4\xb9\xe0\xa4\x9a\xe0\xa4\xbe\xe0\xa4\xa8'
p4645
sS'af'
p4646
S'\xe0\xa4\xaa\xe0\xa4\xb9\xe0\xa4\x9a\xe0\xa4\xbe\xe0\xa4\xa8,n,f,sg,3,d,0,0'
p4647
sS'chunkid'
p4648
S'NP6'
p4649
sS'drel'
p4650
S'k1:VGF2'
p4651
sS'chunktype'
p4652
S'head:NP6'
p4653
ssbsg34
I00
sg35
I00
sg36
Nsg37
Nsg38
I6
sg39
I11
sg40
Nsg41
Nsg42
S'NN'
p4654
sg44
g4639
sg45
I00
sba(issf_api
Word
p4655
(dp4656
g6
I00
sg7
V\u092e\u0941\u0936\u094d\u0915\u093f\u0932
p4657
sg9
(issf_api
FeatureSet
p4658
(dp4659
g12
(dp4660
S'posn'
p4661
S'150'
p4662
sS'name'
p4663
S'\xe0\xa4\xae\xe0\xa5\x81\xe0\xa4\xb6\xe0\xa5\x8d\xe0\xa4\x95\xe0\xa4\xbf\xe0\xa4\xb2'
p4664
sS'af'
p4665
S'\xe0\xa4\xae\xe0\xa5\x81\xe0\xa4\xb6\xe0\xa5\x8d\xe0\xa4\x95\xe0\xa4\xbf\xe0\xa4\xb2,adj,any,any,,,,'
p4666
sS'chunkid'
p4667
S'JJP'
p4668
sS'drel'
p4669
S'pof:VGF2'
p4670
sS'chunktype'
p4671
S'head:JJP'
p4672
ssbsg34
I00
sg35
I00
sg36
Nsg37
Nsg38
I7
sg39
I11
sg40
Nsg41
Nsg42
S'JJ'
p4673
sg44
g4658
sg45
I00
sba(issf_api
Word
p4674
(dp4675
g6
I00
sg7
V\u0939\u094b
p4676
sg9
(issf_api
FeatureSet
p4677
(dp4678
g12
(dp4679
S'posn'
p4680
S'160'
p4681
sS'name'
p4682
S'\xe0\xa4\xb9\xe0\xa5\x8b'
p4683
sS'af'
p4684
S'\xe0\xa4\xb9\xe0\xa5\x8b,v,f,sg,3,,0_\xe0\xa4\x9c\xe0\xa4\xbe+\xe0\xa4\xaf\xe0\xa4\xbe\xe0\xa5\xa7_\xe0\xa4\xb9\xe0\xa5\x88,0'
p4685
sS'chunkid'
p4686
S'VGF2'
p4687
sS'stype'
p4688
S'declarative'
p4689
sS'drel'
p4690
S'ccof:NULL__CCP'
p4691
sS'voicetype'
p4692
S'active'
p4693
sS'vpos'
p4694
S'tam_2_3'
p4695
sS'chunktype'
p4696
S'head:VGF2'
p4697
ssbsg34
I00
sg35
I00
sg36
Nsg37
Nsg38
I8
sg39
I11
sg40
Nsg41
Nsg42
S'VM'
p4698
sg44
g4677
sg45
I00
sba(issf_api
Word
p4699
(dp4700
g6
I00
sg7
V\u0917\u0908
p4701
sg9
(issf_api
FeatureSet
p4702
(dp4703
g12
(dp4704
S'posn'
p4705
S'170'
p4706
sS'name'
p4707
S'\xe0\xa4\x97\xe0\xa4\x88'
p4708
sS'drel'
p4709
S'lwg__vaux:VGF2'
p4710
sS'chunktype'
p4711
S'child:VGF2'
p4712
sS'af'
p4713
S'\xe0\xa4\x9c\xe0\xa4\xbe,v,f,sg,any,,\xe0\xa4\xaf\xe0\xa4\xbe\xe0\xa5\xa7,yA1'
p4714
ssbsg34
I00
sg35
I00
sg36
Nsg37
Nsg38
I8
sg39
I11
sg40
Nsg41
Nsg42
S'VAUX'
p4715
sg44
g4702
sg45
I00
sba(issf_api
Word
p4716
(dp4717
g6
I00
sg7
V\u0939\u0948
p4718
sg9
(issf_api
FeatureSet
p4719
(dp4720
g12
(dp4721
S'posn'
p4722
S'180'
p4723
sS'name'
p4724
S'\xe0\xa4\xb9\xe0\xa5\x88'
p4725
sS'drel'
p4726
S'lwg__vaux:VGF2'
p4727
sS'chunktype'
p4728
S'child:VGF2'
p4729
sS'af'
p4730
S'\xe0\xa4\xb9\xe0\xa5\x88,v,any,sg,3,,\xe0\xa4\xb9\xe0\xa5\x88,hE'
p4731
ssbsg34
I00
sg35
I00
sg36
Nsg37
Nsg38
I8
sg39
I11
sg40
Nsg41
Nsg42
S'VAUX'
p4732
sg44
g4719
sg45
I00
sba(issf_api
Word
p4733
(dp4734
g6
I00
sg7
V\u0964
p4735
sg9
(issf_api
FeatureSet
p4736
(dp4737
g12
(dp4738
S'posn'
p4739
S'190'
p4740
sS'name'
p4741
S'\xe0\xa5\xa4'
p4742
sS'af'
p4743
S'\xe0\xa5\xa4,punc,,,,,,'
p4744
sS'chunkid'
p4745
S'BLK'
p4746
sS'drel'
p4747
S'rsym:NULL__CCP'
p4748
sS'chunktype'
p4749
S'head:BLK'
p4750
ssbsg34
I00
sg35
I00
sg36
Nsg37
Nsg38
I9
sg39
I11
sg40
Nsg41
Nsg42
S'SYM'
p4751
sg44
g4736
sg45
I00
sba(issf_api
Word
p4752
(dp4753
g6
I00
sg7
V\u0935\u0948\u0938\u0947
p4754
sg9
(issf_api
FeatureSet
p4755
(dp4756
g12
(dp4757
S'posn'
p4758
S'10'
p4759
sS'name'
p4760
S'\xe0\xa4\xb5\xe0\xa5\x88\xe0\xa4\xb8\xe0\xa5\x87'
p4761
sS'af'
p4762
S'\xe0\xa4\xb5\xe0\xa5\x88\xe0\xa4\xb8\xe0\xa5\x87,adv,,,,,,'
p4763
sS'chunkid'
p4764
S'RBP'
p4765
sS'drel'
p4766
S'sent-adv:VGF'
p4767
sS'chunktype'
p4768
S'head:RBP'
p4769
ssbsg34
I00
sg35
I00
sg36
Nsg37
Nsg38
I0
sg39
I12
sg40
Nsg41
Nsg42
S'RB'
p4770
sg44
g4755
sg45
I00
sba(issf_api
Word
p4771
(dp4772
g6
I00
sg7
V\u092a\u0941\u0932\u093f\u0938
p4773
sg9
(issf_api
FeatureSet
p4774
(dp4775
g12
(dp4776
S'crefhead'
p4777
S'\xe0\xa4\xaa\xe0\xa5\x81\xe0\xa4\xb2\xe0\xa4\xbf\xe0\xa4\xb8:i50'
p4778
sS'posn'
p4779
S'20'
p4780
sS'name'
p4781
S'\xe0\xa4\xaa\xe0\xa5\x81\xe0\xa4\xb2\xe0\xa4\xbf\xe0\xa4\xb8'
p4782
sS'af'
p4783
S'\xe0\xa4\xaa\xe0\xa5\x81\xe0\xa4\xb2\xe0\xa4\xbf\xe0\xa4\xb8,n,f,sg,3,o,0_\xe0\xa4\x95\xe0\xa5\x8b,0'
p4784
sS'chunkid'
p4785
S'NP'
p4786
sS'creftype'
p4787
S'Coreference-Identity:i42'
p4788
sS'chunktype'
p4789
S'head:NP'
p4790
sS'vpos'
p4791
S'vib_2'
p4792
sS'cref'
p4793
S'i50%1:t8'
p4794
sS'drel'
p4795
S'k4a:VGF'
p4796
ssbsg34
I00
sg35
I00
sg36
Nsg37
Nsg38
I1
sg39
I12
sg40
Nsg41
Nsg42
S'NN'
p4797
sg44
g4774
sg45
I00
sba(issf_api
Word
p4798
(dp4799
g6
I00
sg7
V\u0915\u094b
p4800
sg9
(issf_api
FeatureSet
p4801
(dp4802
g12
(dp4803
S'posn'
p4804
S'30'
p4805
sS'name'
p4806
S'\xe0\xa4\x95\xe0\xa5\x8b'
p4807
sS'drel'
p4808
S'lwg__psp:NP'
p4809
sS'chunktype'
p4810
S'child:NP'
p4811
sS'af'
p4812
S'\xe0\xa4\x95\xe0\xa5\x8b,psp,,,,,,'
p4813
ssbsg34
I00
sg35
I00
sg36
Nsg37
Nsg38
I1
sg39
I12
sg40
Nsg41
Nsg42
S'PSP'
p4814
sg44
g4801
sg45
I00
sba(issf_api
Word
p4815
(dp4816
g6
I00
sg7
V\u0936\u0915
p4817
sg9
(issf_api
FeatureSet
p4818
(dp4819
g12
(dp4820
S'posn'
p4821
S'40'
p4822
sS'name'
p4823
S'\xe0\xa4\xb6\xe0\xa4\x95'
p4824
sS'af'
p4825
S'\xe0\xa4\xb6\xe0\xa4\x95,n,m,sg,3,d,0,0'
p4826
sS'chunkid'
p4827
S'NP2'
p4828
sS'drel'
p4829
S'k1:VGF'
p4830
sS'chunktype'
p4831
S'head:NP2'
p4832
ssbsg34
I00
sg35
I00
sg36
Nsg37
Nsg38
I2
sg39
I12
sg40
Nsg41
Nsg42
S'NN'
p4833
sg44
g4818
sg45
I00
sba(issf_api
Word
p4834
(dp4835
g6
I00
sg7
V\u0939\u0948
p4836
sg9
(issf_api
FeatureSet
p4837
(dp4838
g12
(dp4839
S'posn'
p4840
S'50'
p4841
sS'name'
p4842
S'\xe0\xa4\xb9\xe0\xa5\x88'
p4843
sS'af'
p4844
S'\xe0\xa4\xb9\xe0\xa5\x88,v,any,sg,3,,\xe0\xa4\xb9\xe0\xa5\x88,hE'
p4845
sS'chunkid'
p4846
S'VGF'
p4847
sS'chunktype'
p4848
S'head:VGF'
p4849
sS'voicetype'
p4850
S'active'
p4851
sS'stype'
p4852
S'declarative'
p4853
ssbsg34
I00
sg35
I00
sg36
Nsg37
Nsg38
I3
sg39
I12
sg40
Nsg41
Nsg42
S'VM'
p4854
sg44
g4837
sg45
I00
sba(issf_api
Word
p4855
(dp4856
g6
I00
sg7
V\u0915\u093f
p4857
sg9
(issf_api
FeatureSet
p4858
(dp4859
g12
(dp4860
S'posn'
p4861
S'60'
p4862
sS'name'
p4863
S'\xe0\xa4\x95\xe0\xa4\xbf'
p4864
sS'af'
p4865
S'\xe0\xa4\x95\xe0\xa4\xbf,avy,,,,,,'
p4866
sS'chunkid'
p4867
S'CCP'
p4868
sS'drel'
p4869
S'rs:NP2'
p4870
sS'chunktype'
p4871
S'head:CCP'
p4872
ssbsg34
I00
sg35
I00
sg36
Nsg37
Nsg38
I4
sg39
I12
sg40
Nsg41
Nsg42
S'CC'
p4873
sg44
g4858
sg45
I00
sba(issf_api
Word
p4874
(dp4875
g6
I00
sg7
V\u092c\u0932\u093e\u0924\u094d\u0915\u093e\u0930\u0940
p4876
sg9
(issf_api
FeatureSet
p4877
(dp4878
g12
(dp4879
S'crefhead'
p4880
S'\xe0\xa4\xac\xe0\xa4\xb2\xe0\xa4\xbe\xe0\xa4\xa4\xe0\xa5\x8d\xe0\xa4\x95\xe0\xa4\xbe\xe0\xa4\xb0\xe0\xa5\x80:i51'
p4881
sS'posn'
p4882
S'70'
p4883
sS'name'
p4884
S'\xe0\xa4\xac\xe0\xa4\xb2\xe0\xa4\xbe\xe0\xa4\xa4\xe0\xa5\x8d\xe0\xa4\x95\xe0\xa4\xbe\xe0\xa4\xb0\xe0\xa5\x80'
p4885
sS'af'
p4886
S'\xe0\xa4\xac\xe0\xa4\xb2\xe0\xa4\xbe\xe0\xa4\xa4\xe0\xa5\x8d\xe0\xa4\x95\xe0\xa4\xbe\xe0\xa4\xb0\xe0\xa5\x80,n,m,pl,3,d,0,0'
p4887
sS'chunkid'
p4888
S'NP3'
p4889
sS'creftype'
p4890
S'Coreference-Noun-Noun:i48'
p4891
sS'chunktype'
p4892
S'head:NP3'
p4893
sS'cref'
p4894
S'i51%1:t7'
p4895
sS'drel'
p4896
S'k1:VGF2'
p4897
ssbsg34
I00
sg35
I00
sg36
Nsg37
Nsg38
I5
sg39
I12
sg40
Nsg41
Nsg42
S'NN'
p4898
sg44
g4877
sg45
I00
sba(issf_api
Word
p4899
(dp4900
g6
I00
sg7
V\u092a\u093e\u0938
p4901
sg9
(issf_api
FeatureSet
p4902
(dp4903
g12
(dp4904
S'posn'
p4905
S'80'
p4906
sS'name'
p4907
S'\xe0\xa4\xaa\xe0\xa4\xbe\xe0\xa4\xb8'
p4908
sS'af'
p4909
S'\xe0\xa4\xaa\xe0\xa4\xbe\xe0\xa4\xb8,nst,m,sg,3,o,0_\xe0\xa4\x95\xe0\xa4\xbe,'
p4910
sS'chunkid'
p4911
S'NP4'
p4912
sS'drel'
p4913
S'r6:NP5'
p4914
sS'vpos'
p4915
g1613
sS'chunktype'
p4916
S'head:NP4'
p4917
ssbsg34
I00
sg35
I00
sg36
Nsg37
Nsg38
I6
sg39
I12
sg40
Nsg41
Nsg42
S'NST'
p4918
sg44
g4902
sg45
I00
sba(issf_api
Word
p4919
(dp4920
g6
I00
sg7
V\u0915\u0947
p4921
sg9
(issf_api
FeatureSet
p4922
(dp4923
g12
(dp4924
S'posn'
p4925
S'90'
p4926
sS'name'
p4927
S'\xe0\xa4\x95\xe0\xa5\x87'
p4928
sS'drel'
p4929
S'lwg__psp:NP4'
p4930
sS'chunktype'
p4931
S'child:NP4'
p4932
sS'af'
p4933
S'\xe0\xa4\x95\xe0\xa4\xbe,psp,m,sg,,o,,'
p4934
ssbsg34
I00
sg35
I00
sg36
Nsg37
Nsg38
I6
sg39
I12
sg40
Nsg41
Nsg42
S'PSP'
p4935
sg44
g4922
sg45
I00
sba(issf_api
Word
p4936
(dp4937
g6
I00
sg7
V\u090f\u0915
p4938
sg9
(issf_api
FeatureSet
p4939
(dp4940
g12
(dp4941
S'posn'
p4942
S'100'
p4943
sS'name'
p4944
S'\xe0\xa4\x8f\xe0\xa4\x95'
p4945
sS'drel'
p4946
S'nmod__adj:NP5'
p4947
sS'chunktype'
p4948
S'child:NP5'
p4949
sS'af'
p4950
S'\xe0\xa4\x8f\xe0\xa4\x95,num,any,any,,any,,'
p4951
ssbsg34
I00
sg35
I00
sg36
Nsg37
Nsg38
I7
sg39
I12
sg40
Nsg41
Nsg42
S'QC'
p4952
sg44
g4939
sg45
I00
sba(issf_api
Word
p4953
(dp4954
g6
I00
sg7
V\u0917\u093e\u0902\u0935
p4955
sg9
(issf_api
FeatureSet
p4956
(dp4957
g12
(dp4958
S'posn'
p4959
S'110'
p4960
sS'name'
p4961
S'\xe0\xa4\x97\xe0\xa4\xbe\xe0\xa4\x82\xe0\xa4\xb5'
p4962
sS'af'
p4963
S'\xe0\xa4\x97\xe0\xa4\xbe\xe0\xa4\x81\xe0\xa4\xb5,n,m,sg,3,o,0_\xe0\xa4\x95\xe0\xa4\xbe,0'
p4964
sS'chunkid'
p4965
S'NP5'
p4966
sS'drel'
p4967
S'r6:NULL__NP'
p4968
sS'vpos'
p4969
S'vib_3'
p4970
sS'chunktype'
p4971
S'head:NP5'
p4972
ssbsg34
I00
sg35
I00
sg36
Nsg37
Nsg38
I7
sg39
I12
sg40
Nsg41
Nsg42
S'NN'
p4973
sg44
g4956
sg45
I00
sba(issf_api
Word
p4974
(dp4975
g6
I00
sg7
V\u0915\u0947
p4976
sg9
(issf_api
FeatureSet
p4977
(dp4978
g12
(dp4979
S'posn'
p4980
S'120'
p4981
sS'name'
p4982
S'\xe0\xa4\x95\xe0\xa5\x872'
p4983
sS'drel'
p4984
S'lwg__psp:NP5'
p4985
sS'chunktype'
p4986
S'child:NP5'
p4987
sS'af'
p4988
S'\xe0\xa4\x95\xe0\xa4\xbe,psp,m,pl,,d,,'
p4989
ssbsg34
I00
sg35
I00
sg36
Nsg37
Nsg38
I7
sg39
I12
sg40
Nsg41
Nsg42
S'PSP'
p4990
sg44
g4977
sg45
I00
sba(issf_api
Word
p4991
(dp4992
g6
I00
sg7
V\u0939\u094b
p4993
sg9
(issf_api
FeatureSet
p4994
(dp4995
g12
(dp4996
S'posn'
p4997
S'130'
p4998
sS'name'
p4999
S'\xe0\xa4\xb9\xe0\xa5\x8b'
p5000
sS'af'
p5001
S'\xe0\xa4\xb9\xe0\xa5\x8b,v,m,pl,3,,0_\xe0\xa4\xb8\xe0\xa4\x95+\xe0\xa4\xa4\xe0\xa4\xbe_\xe0\xa4\xb9\xe0\xa5\x88,0'
p5002
sS'chunkid'
p5003
S'VGF2'
p5004
sS'stype'
p5005
S'declarative'
p5006
sS'drel'
p5007
S'ccof:CCP'
p5008
sS'voicetype'
p5009
S'active'
p5010
sS'vpos'
p5011
S'tam_2_3'
p5012
sS'chunktype'
p5013
S'head:VGF2'
p5014
ssbsg34
I00
sg35
I00
sg36
Nsg37
Nsg38
I8
sg39
I12
sg40
Nsg41
Nsg42
S'VM'
p5015
sg44
g4994
sg45
I00
sba(issf_api
Word
p5016
(dp5017
g6
I00
sg7
V\u0938\u0915\u0924\u0947
p5018
sg9
(issf_api
FeatureSet
p5019
(dp5020
g12
(dp5021
S'posn'
p5022
S'140'
p5023
sS'name'
p5024
S'\xe0\xa4\xb8\xe0\xa4\x95\xe0\xa4\xa4\xe0\xa5\x87'
p5025
sS'drel'
p5026
S'lwg__vaux:VGF2'
p5027
sS'chunktype'
p5028
S'child:VGF2'
p5029
sS'af'
p5030
S'\xe0\xa4\xb8\xe0\xa4\x95,v,m,pl,any,,\xe0\xa4\xa4\xe0\xa4\xbe,wA'
p5031
ssbsg34
I00
sg35
I00
sg36
Nsg37
Nsg38
I8
sg39
I12
sg40
Nsg41
Nsg42
S'VAUX'
p5032
sg44
g5019
sg45
I00
sba(issf_api
Word
p5033
(dp5034
g6
I00
sg7
V\u0939\u0948\u0902
p5035
sg9
(issf_api
FeatureSet
p5036
(dp5037
g12
(dp5038
S'posn'
p5039
S'150'
p5040
sS'name'
p5041
S'\xe0\xa4\xb9\xe0\xa5\x88\xe0\xa4\x82'
p5042
sS'drel'
p5043
S'lwg__vaux:VGF2'
p5044
sS'chunktype'
p5045
S'child:VGF2'
p5046
sS'af'
p5047
S'\xe0\xa4\xb9\xe0\xa5\x88,v,any,pl,3,,\xe0\xa4\xb9\xe0\xa5\x88,hE'
p5048
ssbsg34
I00
sg35
I00
sg36
Nsg37
Nsg38
I8
sg39
I12
sg40
Nsg41
Nsg42
S'VAUX'
p5049
sg44
g5036
sg45
I00
sba(issf_api
Word
p5050
(dp5051
g6
I00
sg7
V\u0964
p5052
sg9
(issf_api
FeatureSet
p5053
(dp5054
g12
(dp5055
S'posn'
p5056
S'160'
p5057
sS'name'
p5058
S'\xe0\xa5\xa4'
p5059
sS'af'
p5060
S'\xe0\xa5\xa4,punc,,,,,,'
p5061
sS'chunkid'
p5062
S'BLK'
p5063
sS'drel'
p5064
S'rsym:VGF'
p5065
sS'chunktype'
p5066
S'head:BLK'
p5067
ssbsg34
I00
sg35
I00
sg36
Nsg37
Nsg38
I9
sg39
I12
sg40
Nsg41
Nsg42
S'SYM'
p5068
sg44
g5053
sg45
I00
sbasS'sentenceList'
p5069
(lp5070
(issf_api
Sentence
p5071
(dp5072
S'rootNode'
p5073
(lp5074
sg39
I0
sS'wordNumList'
p5075
(lp5076
I0
aI1
aI2
aI3
aI4
aI5
aI6
aI7
aI8
aI9
aI10
aI11
aI12
aI13
aI14
aI15
aI16
aI17
aI18
aI19
aI20
aI21
aI22
aI23
aI24
asS'nodeDict'
p5077
(dp5078
S'VGF'
p5079
(issf_api
Node
p5080
(dp5081
S'nodeRelation'
p5082
S'None'
p5083
sS'nodeName'
p5084
g5079
sS'nodeParent'
p5085
g5083
sS'nodeLevel'
p5086
I-1
sg38
I7
sS'childList'
p5087
(lp5088
S'NP5'
p5089
aS'BLK'
p5090
aS'NP7'
p5091
aS'NP3'
p5092
aS'NP2'
p5093
asbsg5089
(issf_api
Node
p5094
(dp5095
g5082
S'k1'
p5096
sg5084
g5089
sg5085
S'VGF'
p5097
sg5086
I-1
sg38
I4
sg5087
(lp5098
S'NP4'
p5099
asbsg5090
(issf_api
Node
p5100
(dp5101
g5082
S'rsym'
p5102
sg5084
g5090
sg5085
S'VGF'
p5103
sg5086
I-1
sg38
I8
sg5087
(lp5104
sbsS'NP'
p5105
(issf_api
Node
p5106
(dp5107
g5082
S'r6'
p5108
sg5084
g5105
sg5085
S'NP2'
p5109
sg5086
I-1
sg38
I0
sg5087
(lp5110
sbsg5099
(issf_api
Node
p5111
(dp5112
g5082
S'r6'
p5113
sg5084
g5099
sg5085
S'NP5'
p5114
sg5086
I-1
sg38
I3
sg5087
(lp5115
sbsg5091
(issf_api
Node
p5116
(dp5117
g5082
S'pof'
p5118
sg5084
g5091
sg5085
S'VGF'
p5119
sg5086
I-1
sg38
I6
sg5087
(lp5120
S'NP6'
p5121
asbsg5121
(issf_api
Node
p5122
(dp5123
g5082
S'r6'
p5124
sg5084
g5121
sg5085
S'NP7'
p5125
sg5086
I-1
sg38
I5
sg5087
(lp5126
sbsg5092
(issf_api
Node
p5127
(dp5128
g5082
S'vmod'
p5129
sg5084
g5092
sg5085
S'VGF'
p5130
sg5086
I-1
sg38
I2
sg5087
(lp5131
sbsg5093
(issf_api
Node
p5132
(dp5133
g5082
S'k7p'
p5134
sg5084
g5093
sg5085
S'VGF'
p5135
sg5086
I-1
sg38
I1
sg5087
(lp5136
g5105
asbssS'chunkList'
p5137
(lp5138
(issf_api
Chunk
p5139
(dp5140
g5084
g23
sg38
I0
sS'chunkTag'
p5141
g43
sg39
I0
sg5075
(lp5142
I0
aI1
asg44
(issf_api
FeatureSet
p5143
(dp5144
g12
(dp5145
S'name'
p5146
g5105
sS'drel'
p5147
S'r6:NP2'
p5148
ssbsba(issf_api
Chunk
p5149
(dp5150
g5084
g97
sg38
I1
sg5141
g108
sg39
I0
sg5075
(lp5151
I2
aI3
aI4
asg44
(issf_api
FeatureSet
p5152
(dp5153
g12
(dp5154
S'name'
p5155
g5093
sS'drel'
p5156
S'k7p:VGF'
p5157
ssbsba(issf_api
Chunk
p5158
(dp5159
g5084
g198
sg38
I2
sg5141
g209
sg39
I0
sg5075
(lp5160
I5
aI6
aI7
aI8
aI9
aI10
asg44
(issf_api
FeatureSet
p5161
(dp5162
g12
(dp5163
S'name'
p5164
g5092
sS'drel'
p5165
S'vmod:VGF'
p5166
ssbsba(issf_api
Chunk
p5167
(dp5168
g5084
g282
sg38
I3
sg5141
g295
sg39
I0
sg5075
(lp5169
I11
aI12
aI13
asg44
(issf_api
FeatureSet
p5170
(dp5171
g12
(dp5172
S'name'
p5173
g5099
sS'drel'
p5174
S'r6:NP5'
p5175
ssbsba(issf_api
Chunk
p5176
(dp5177
g5084
g328
sg38
I4
sg5141
g341
sg39
I0
sg5075
(lp5178
I14
aI15
asg44
(issf_api
FeatureSet
p5179
(dp5180
g12
(dp5181
S'name'
p5182
g5089
sS'drel'
p5183
S'k1:VGF'
p5184
ssbsba(issf_api
Chunk
p5185
(dp5186
g5084
g406
sg38
I5
sg5141
g413
sg39
I0
sg5075
(lp5187
I16
aI17
aI18
aI19
asg44
(issf_api
FeatureSet
p5188
(dp5189
g12
(dp5190
S'name'
p5191
g5121
sS'drel'
p5192
S'r6:NP7'
p5193
ssbsba(issf_api
Chunk
p5194
(dp5195
g5084
g444
sg38
I6
sg5141
g449
sg39
I0
sg5075
(lp5196
I20
asg44
(issf_api
FeatureSet
p5197
(dp5198
g12
(dp5199
S'name'
p5200
g5091
sS'drel'
p5201
S'pof:VGF'
p5202
ssbsba(issf_api
Chunk
p5203
(dp5204
g5084
g463
sg38
I7
sg5141
g472
sg39
I0
sg5075
(lp5205
I21
aI22
aI23
asg44
(issf_api
FeatureSet
p5206
(dp5207
g12
(dp5208
S'name'
p5209
g5079
ssbsba(issf_api
Chunk
p5210
(dp5211
g5084
g520
sg38
I8
sg5141
g525
sg39
I0
sg5075
(lp5212
I24
asg44
(issf_api
FeatureSet
p5213
(dp5214
g12
(dp5215
S'name'
p5216
g5090
sS'drel'
p5217
S'rsym:VGF'
p5218
ssbsbasba(issf_api
Sentence
p5219
(dp5220
g5073
(lp5221
sg39
I1
sg5075
(lp5222
I25
aI26
aI27
aI28
aI29
aI30
aI31
aI32
aI33
aI34
aI35
aI36
aI37
aI38
aI39
aI40
aI41
aI42
aI43
aI44
aI45
aI46
aI47
aI48
aI49
aI50
aI51
aI52
aI53
aI54
aI55
asg5077
(dp5223
S'VGF2'
p5224
(issf_api
Node
p5225
(dp5226
g5082
S'ccof'
p5227
sg5084
g5224
sg5085
S'CCP'
p5228
sg5086
I-1
sg38
I8
sg5087
(lp5229
S'NP5'
p5230
aS'NP4'
p5231
aS'NP3'
p5232
asbsS'NP11'
p5233
(issf_api
Node
p5234
(dp5235
g5082
S'k2'
p5236
sg5084
g5233
sg5085
S'VGF3'
p5237
sg5086
I-1
sg38
I14
sg5087
(lp5238
S'NP10'
p5239
asbsg5239
(issf_api
Node
p5240
(dp5241
g5082
S'r6'
p5242
sg5084
g5239
sg5085
S'NP11'
p5243
sg5086
I-1
sg38
I13
sg5087
(lp5244
sbsS'VGF'
p5245
(issf_api
Node
p5246
(dp5247
g5082
S'ccof'
p5248
sg5084
g5245
sg5085
S'CCP'
p5249
sg5086
I-1
sg38
I3
sg5087
(lp5250
S'RBP'
p5251
aS'NP'
p5252
aS'NP2'
p5253
asbsS'VGF3'
p5254
(issf_api
Node
p5255
(dp5256
g5082
S'nmod__relc'
p5257
sg5084
g5254
sg5085
S'NP4'
p5258
sg5086
I-1
sg38
I16
sg5087
(lp5259
g5233
aS'JJP'
p5260
aS'NP9'
p5261
aS'NP8'
p5262
aS'NP6'
p5263
asbsS'CCP'
p5264
(issf_api
Node
p5265
(dp5266
g5082
g5083
sg5084
g5264
sg5085
g5083
sg5086
I-1
sg38
I4
sg5087
(lp5267
g5224
ag5245
aS'BLK'
p5268
asbsg5251
(issf_api
Node
p5269
(dp5270
g5082
S'sent-adv'
p5271
sg5084
g5251
sg5085
S'VGF'
p5272
sg5086
I-1
sg38
I0
sg5087
(lp5273
sbsg5230
(issf_api
Node
p5274
(dp5275
g5082
S'pof'
p5276
sg5084
g5230
sg5085
S'VGF2'
p5277
sg5086
I-1
sg38
I7
sg5087
(lp5278
sbsg5260
(issf_api
Node
p5279
(dp5280
g5082
S'pof'
p5281
sg5084
g5260
sg5085
S'VGF3'
p5282
sg5086
I-1
sg38
I15
sg5087
(lp5283
sbsg5261
(issf_api
Node
p5284
(dp5285
g5082
S'rd'
p5286
sg5084
g5261
sg5085
S'VGF3'
p5287
sg5086
I-1
sg38
I12
sg5087
(lp5288
sbsg5262
(issf_api
Node
p5289
(dp5290
g5082
S'k1'
p5291
sg5084
g5262
sg5085
S'VGF3'
p5292
sg5086
I-1
sg38
I11
sg5087
(lp5293
S'NP7'
p5294
asbsg5268
(issf_api
Node
p5295
(dp5296
g5082
S'rsym'
p5297
sg5084
g5268
sg5085
S'CCP'
p5298
sg5086
I-1
sg38
I17
sg5087
(lp5299
sbsg5252
(issf_api
Node
p5300
(dp5301
g5082
S'k1'
p5302
sg5084
g5252
sg5085
S'VGF'
p5303
sg5086
I-1
sg38
I1
sg5087
(lp5304
sbsg5231
(issf_api
Node
p5305
(dp5306
g5082
S'k7t'
p5307
sg5084
g5231
sg5085
S'VGF2'
p5308
sg5086
I-1
sg38
I6
sg5087
(lp5309
g5254
asbsg5294
(issf_api
Node
p5310
(dp5311
g5082
S'r6'
p5312
sg5084
g5294
sg5085
S'NP8'
p5313
sg5086
I-1
sg38
I10
sg5087
(lp5314
sbsg5263
(issf_api
Node
p5315
(dp5316
g5082
S'k7t'
p5317
sg5084
g5263
sg5085
S'VGF3'
p5318
sg5086
I-1
sg38
I9
sg5087
(lp5319
sbsg5232
(issf_api
Node
p5320
(dp5321
g5082
S'k1'
p5322
sg5084
g5232
sg5085
S'VGF2'
p5323
sg5086
I-1
sg38
I5
sg5087
(lp5324
sbsg5253
(issf_api
Node
p5325
(dp5326
g5082
S'k7t'
p5327
sg5084
g5253
sg5085
S'VGF'
p5328
sg5086
I-1
sg38
I2
sg5087
(lp5329
sbssg5137
(lp5330
(issf_api
Chunk
p5331
(dp5332
g5084
g539
sg38
I0
sg5141
g544
sg39
I1
sg5075
(lp5333
I25
aI26
asg44
(issf_api
FeatureSet
p5334
(dp5335
g12
(dp5336
S'name'
p5337
g5251
sS'drel'
p5338
S'sent-adv:VGF'
p5339
ssbsba(issf_api
Chunk
p5340
(dp5341
g5084
g577
sg38
I1
sg5141
g586
sg39
I1
sg5075
(lp5342
I27
asg44
(issf_api
FeatureSet
p5343
(dp5344
g12
(dp5345
S'name'
p5346
g5252
sS'drel'
p5347
S'k1:VGF'
p5348
ssbsba(issf_api
Chunk
p5349
(dp5350
g5084
g617
sg38
I2
sg5141
g622
sg39
I1
sg5075
(lp5351
I28
aI29
asg44
(issf_api
FeatureSet
p5352
(dp5353
g12
(dp5354
S'name'
p5355
g5253
sS'drel'
p5356
S'k7t:VGF'
p5357
ssbsba(issf_api
Chunk
p5358
(dp5359
g5084
g636
sg38
I3
sg5141
g645
sg39
I1
sg5075
(lp5360
I30
aI31
asg44
(issf_api
FeatureSet
p5361
(dp5362
g12
(dp5363
S'name'
p5364
g5245
sS'drel'
p5365
S'ccof:CCP'
p5366
ssbsba(issf_api
Chunk
p5367
(dp5368
g5084
g672
sg38
I4
sg5141
g679
sg39
I1
sg5075
(lp5369
I32
asg44
(issf_api
FeatureSet
p5370
(dp5371
g12
(dp5372
S'name'
p5373
g5264
ssbsba(issf_api
Chunk
p5374
(dp5375
g5084
g693
sg38
I5
sg5141
g700
sg39
I1
sg5075
(lp5376
I33
aI34
asg44
(issf_api
FeatureSet
p5377
(dp5378
g12
(dp5379
S'name'
p5380
g5232
sS'drel'
p5381
S'k1:VGF2'
p5382
ssbsba(issf_api
Chunk
p5383
(dp5384
g5084
g733
sg38
I6
sg5141
g740
sg39
I1
sg5075
(lp5385
I35
asg44
(issf_api
FeatureSet
p5386
(dp5387
g12
(dp5388
S'name'
p5389
g5231
sS'drel'
p5390
S'k7t:VGF2'
p5391
ssbsba(issf_api
Chunk
p5392
(dp5393
g5084
g754
sg38
I7
sg5141
g759
sg39
I1
sg5075
(lp5394
I36
asg44
(issf_api
FeatureSet
p5395
(dp5396
g12
(dp5397
S'name'
p5398
g5230
sS'drel'
p5399
S'pof:VGF2'
p5400
ssbsba(issf_api
Chunk
p5401
(dp5402
g5084
g773
sg38
I8
sg5141
g782
sg39
I1
sg5075
(lp5403
I37
asg44
(issf_api
FeatureSet
p5404
(dp5405
g12
(dp5406
S'name'
p5407
g5224
sS'drel'
p5408
S'ccof:CCP'
p5409
ssbsba(issf_api
Chunk
p5410
(dp5411
g5084
g800
sg38
I9
sg5141
g809
sg39
I1
sg5075
(lp5412
I38
asg44
(issf_api
FeatureSet
p5413
(dp5414
g12
(dp5415
S'name'
p5416
g5263
sS'drel'
p5417
S'k7t:VGF3'
p5418
ssbsba(issf_api
Chunk
p5419
(dp5420
g5084
g865
sg38
I10
sg5141
g874
sg39
I1
sg5075
(lp5421
I39
aI40
aI41
aI42
asg44
(issf_api
FeatureSet
p5422
(dp5423
g12
(dp5424
S'name'
p5425
g5294
sS'drel'
p5426
S'r6:NP8'
p5427
ssbsba(issf_api
Chunk
p5428
(dp5429
g5084
g926
sg38
I11
sg5141
g935
sg39
I1
sg5075
(lp5430
I43
aI44
aI45
asg44
(issf_api
FeatureSet
p5431
(dp5432
g12
(dp5433
S'name'
p5434
g5262
sS'drel'
p5435
S'k1:VGF3'
p5436
ssbsba(issf_api
Chunk
p5437
(dp5438
g5084
g989
sg38
I12
sg5141
g1000
sg39
I1
sg5075
(lp5439
I46
aI47
aI48
aI49
asg44
(issf_api
FeatureSet
p5440
(dp5441
g12
(dp5442
S'name'
p5443
g5261
sS'drel'
p5444
S'rd:VGF3'
p5445
ssbsba(issf_api
Chunk
p5446
(dp5447
g5084
g1052
sg38
I13
sg5141
g1061
sg39
I1
sg5075
(lp5448
I50
aI51
asg44
(issf_api
FeatureSet
p5449
(dp5450
g12
(dp5451
S'name'
p5452
g5239
sS'drel'
p5453
S'r6:NP11'
p5454
ssbsba(issf_api
Chunk
p5455
(dp5456
g5084
g1094
sg38
I14
sg5141
g1101
sg39
I1
sg5075
(lp5457
I52
asg44
(issf_api
FeatureSet
p5458
(dp5459
g12
(dp5460
S'name'
p5461
g5233
sS'drel'
p5462
S'k2:VGF3'
p5463
ssbsba(issf_api
Chunk
p5464
(dp5465
g5084
g1115
sg38
I15
sg5141
g1122
sg39
I1
sg5075
(lp5466
I53
asg44
(issf_api
FeatureSet
p5467
(dp5468
g12
(dp5469
S'name'
p5470
g5260
sS'drel'
p5471
S'pof:VGF3'
p5472
ssbsba(issf_api
Chunk
p5473
(dp5474
g5084
g1138
sg38
I16
sg5141
g1153
sg39
I1
sg5075
(lp5475
I54
asg44
(issf_api
FeatureSet
p5476
(dp5477
g12
(dp5478
S'name'
p5479
g5254
sS'drel'
p5480
S'nmod__relc:NP4'
p5481
ssbsba(issf_api
Chunk
p5482
(dp5483
g5084
g1167
sg38
I17
sg5141
g1172
sg39
I1
sg5075
(lp5484
I55
asg44
(issf_api
FeatureSet
p5485
(dp5486
g12
(dp5487
S'name'
p5488
g5268
sS'drel'
p5489
S'rsym:CCP'
p5490
ssbsbasba(issf_api
Sentence
p5491
(dp5492
g5073
(lp5493
sg39
I2
sg5075
(lp5494
I56
aI57
aI58
aI59
aI60
aI61
aI62
aI63
aI64
aI65
aI66
aI67
aI68
aI69
aI70
aI71
aI72
aI73
aI74
asg5077
(dp5495
S'VGF'
p5496
(issf_api
Node
p5497
(dp5498
g5082
g5083
sg5084
g5496
sg5085
g5083
sg5086
I-1
sg38
I6
sg5087
(lp5499
S'NP5'
p5500
aS'BLK'
p5501
aS'NP'
p5502
aS'NP4'
p5503
aS'NP6'
p5504
aS'NP3'
p5505
asbsg5500
(issf_api
Node
p5506
(dp5507
g5082
S'k2'
p5508
sg5084
g5500
sg5085
S'VGF'
p5509
sg5086
I-1
sg38
I4
sg5087
(lp5510
sbsg5501
(issf_api
Node
p5511
(dp5512
g5082
S'rsym'
p5513
sg5084
g5501
sg5085
S'VGF'
p5514
sg5086
I-1
sg38
I7
sg5087
(lp5515
sbsg5502
(issf_api
Node
p5516
(dp5517
g5082
S'k7a'
p5518
sg5084
g5502
sg5085
S'VGF'
p5519
sg5086
I-1
sg38
I0
sg5087
(lp5520
sbsg5503
(issf_api
Node
p5521
(dp5522
g5082
S'k1'
p5523
sg5084
g5503
sg5085
S'VGF'
p5524
sg5086
I-1
sg38
I3
sg5087
(lp5525
sbsg5504
(issf_api
Node
p5526
(dp5527
g5082
S'pof'
p5528
sg5084
g5504
sg5085
S'VGF'
p5529
sg5086
I-1
sg38
I5
sg5087
(lp5530
sbsg5505
(issf_api
Node
p5531
(dp5532
g5082
S'k7p'
p5533
sg5084
g5505
sg5085
S'VGF'
p5534
sg5086
I-1
sg38
I2
sg5087
(lp5535
S'NP2'
p5536
asbsg5536
(issf_api
Node
p5537
(dp5538
g5082
S'r6'
p5539
sg5084
g5536
sg5085
S'NP3'
p5540
sg5086
I-1
sg38
I1
sg5087
(lp5541
sbssg5137
(lp5542
(issf_api
Chunk
p5543
(dp5544
g5084
g1186
sg38
I0
sg5141
g1193
sg39
I2
sg5075
(lp5545
I56
aI57
aI58
asg44
(issf_api
FeatureSet
p5546
(dp5547
g12
(dp5548
S'name'
p5549
g5502
sS'drel'
p5550
S'k7a:VGF'
p5551
ssbsba(issf_api
Chunk
p5552
(dp5553
g5084
g1243
sg38
I1
sg5141
g1254
sg39
I2
sg5075
(lp5554
I59
aI60
asg44
(issf_api
FeatureSet
p5555
(dp5556
g12
(dp5557
S'name'
p5558
g5536
sS'drel'
p5559
S'r6:NP3'
p5560
ssbsba(issf_api
Chunk
p5561
(dp5562
g5084
g1302
sg38
I2
sg5141
g1309
sg39
I2
sg5075
(lp5563
I61
aI62
aI63
aI64
asg44
(issf_api
FeatureSet
p5564
(dp5565
g12
(dp5566
S'name'
p5567
g5505
sS'drel'
p5568
S'k7p:VGF'
p5569
ssbsba(issf_api
Chunk
p5570
(dp5571
g5084
g1378
sg38
I3
sg5141
g1389
sg39
I2
sg5075
(lp5572
I65
aI66
aI67
asg44
(issf_api
FeatureSet
p5573
(dp5574
g12
(dp5575
S'name'
p5576
g5503
sS'drel'
p5577
S'k1:VGF'
p5578
ssbsba(issf_api
Chunk
p5579
(dp5580
g5084
g1441
sg38
I4
sg5141
g1452
sg39
I2
sg5075
(lp5581
I68
aI69
aI70
aI71
asg44
(issf_api
FeatureSet
p5582
(dp5583
g12
(dp5584
S'name'
p5585
g5500
sS'drel'
p5586
S'k2:VGF'
p5587
ssbsba(issf_api
Chunk
p5588
(dp5589
g5084
g1502
sg38
I5
sg5141
g1511
sg39
I2
sg5075
(lp5590
I72
asg44
(issf_api
FeatureSet
p5591
(dp5592
g12
(dp5593
S'name'
p5594
g5504
sS'drel'
p5595
S'pof:VGF'
p5596
ssbsba(issf_api
Chunk
p5597
(dp5598
g5084
g1525
sg38
I6
sg5141
g1532
sg39
I2
sg5075
(lp5599
I73
asg44
(issf_api
FeatureSet
p5600
(dp5601
g12
(dp5602
S'name'
p5603
g5496
ssbsba(issf_api
Chunk
p5604
(dp5605
g5084
g1546
sg38
I7
sg5141
g1551
sg39
I2
sg5075
(lp5606
I74
asg44
(issf_api
FeatureSet
p5607
(dp5608
g12
(dp5609
S'name'
p5610
g5501
sS'drel'
p5611
S'rsym:VGF'
p5612
ssbsbasba(issf_api
Sentence
p5613
(dp5614
g5073
(lp5615
sg39
I3
sg5075
(lp5616
I75
aI76
aI77
aI78
aI79
aI80
aI81
aI82
aI83
aI84
aI85
aI86
aI87
aI88
aI89
aI90
asg5077
(dp5617
S'VGNF'
p5618
(issf_api
Node
p5619
(dp5620
g5082
S'vmod'
p5621
sg5084
g5618
sg5085
S'VGF'
p5622
sg5086
I-1
sg38
I4
sg5087
(lp5623
S'NP4'
p5624
aS'NP3'
p5625
asbsS'VGF'
p5626
(issf_api
Node
p5627
(dp5628
g5082
g5083
sg5084
g5626
sg5085
g5083
sg5086
I-1
sg38
I7
sg5087
(lp5629
g5618
aS'NP5'
p5630
aS'BLK'
p5631
aS'NP'
p5632
aS'NP6'
p5633
asbsg5630
(issf_api
Node
p5634
(dp5635
g5082
S'k7t'
p5636
sg5084
g5630
sg5085
S'VGF'
p5637
sg5086
I-1
sg38
I5
sg5087
(lp5638
sbsg5631
(issf_api
Node
p5639
(dp5640
g5082
S'rsym'
p5641
sg5084
g5631
sg5085
S'VGF'
p5642
sg5086
I-1
sg38
I8
sg5087
(lp5643
sbsg5632
(issf_api
Node
p5644
(dp5645
g5082
S'k1'
p5646
sg5084
g5632
sg5085
S'VGF'
p5647
sg5086
I-1
sg38
I0
sg5087
(lp5648
sbsg5624
(issf_api
Node
p5649
(dp5650
g5082
S'pof'
p5651
sg5084
g5624
sg5085
S'VGNF'
p5652
sg5086
I-1
sg38
I3
sg5087
(lp5653
sbsg5633
(issf_api
Node
p5654
(dp5655
g5082
S'k2p'
p5656
sg5084
g5633
sg5085
S'VGF'
p5657
sg5086
I-1
sg38
I6
sg5087
(lp5658
sbsg5625
(issf_api
Node
p5659
(dp5660
g5082
S'k7p'
p5661
sg5084
g5625
sg5085
S'VGNF'
p5662
sg5086
I-1
sg38
I2
sg5087
(lp5663
S'NP2'
p5664
asbsg5664
(issf_api
Node
p5665
(dp5666
g5082
S'r6'
p5667
sg5084
g5664
sg5085
S'NP3'
p5668
sg5086
I-1
sg38
I1
sg5087
(lp5669
sbssg5137
(lp5670
(issf_api
Chunk
p5671
(dp5672
g5084
g1586
sg38
I0
sg5141
g1595
sg39
I3
sg5075
(lp5673
I75
aI76
asg44
(issf_api
FeatureSet
p5674
(dp5675
g12
(dp5676
S'name'
p5677
g5632
sS'drel'
p5678
S'k1:VGF'
p5679
ssbsba(issf_api
Chunk
p5680
(dp5681
g5084
g1609
sg38
I1
sg5141
g1616
sg39
I3
sg5075
(lp5682
I77
aI78
asg44
(issf_api
FeatureSet
p5683
(dp5684
g12
(dp5685
S'name'
p5686
g5664
sS'drel'
p5687
S'r6:NP3'
p5688
ssbsba(issf_api
Chunk
p5689
(dp5690
g5084
g1664
sg38
I2
sg5141
g1671
sg39
I3
sg5075
(lp5691
I79
aI80
aI81
asg44
(issf_api
FeatureSet
p5692
(dp5693
g12
(dp5694
S'name'
p5695
g5625
sS'drel'
p5696
S'k7p:VGNF'
p5697
ssbsba(issf_api
Chunk
p5698
(dp5699
g5084
g1702
sg38
I3
sg5141
g1707
sg39
I3
sg5075
(lp5700
I82
asg44
(issf_api
FeatureSet
p5701
(dp5702
g12
(dp5703
S'name'
p5704
g5624
sS'drel'
p5705
S'pof:VGNF'
p5706
ssbsba(issf_api
Chunk
p5707
(dp5708
g5084
g1721
sg38
I4
sg5141
g1726
sg39
I3
sg5075
(lp5709
I83
asg44
(issf_api
FeatureSet
p5710
(dp5711
g12
(dp5712
S'name'
p5713
g5618
sS'drel'
p5714
S'vmod:VGF'
p5715
ssbsba(issf_api
Chunk
p5716
(dp5717
g5084
g1740
sg38
I5
sg5141
g1747
sg39
I3
sg5075
(lp5718
I84
aI85
asg44
(issf_api
FeatureSet
p5719
(dp5720
g12
(dp5721
S'name'
p5722
g5630
sS'drel'
p5723
S'k7t:VGF'
p5724
ssbsba(issf_api
Chunk
p5725
(dp5726
g5084
g1778
sg38
I6
sg5141
g1783
sg39
I3
sg5075
(lp5727
I86
asg44
(issf_api
FeatureSet
p5728
(dp5729
g12
(dp5730
S'name'
p5731
g5633
sS'drel'
p5732
S'k2p:VGF'
p5733
ssbsba(issf_api
Chunk
p5734
(dp5735
g5084
g1797
sg38
I7
sg5141
g1806
sg39
I3
sg5075
(lp5736
I87
aI88
aI89
asg44
(issf_api
FeatureSet
p5737
(dp5738
g12
(dp5739
S'name'
p5740
g5626
ssbsba(issf_api
Chunk
p5741
(dp5742
g5084
g1854
sg38
I8
sg5141
g1859
sg39
I3
sg5075
(lp5743
I90
asg44
(issf_api
FeatureSet
p5744
(dp5745
g12
(dp5746
S'name'
p5747
g5631
sS'drel'
p5748
S'rsym:VGF'
p5749
ssbsbasba(issf_api
Sentence
p5750
(dp5751
g5073
(lp5752
sg39
I4
sg5075
(lp5753
I91
aI92
aI93
aI94
aI95
aI96
aI97
aI98
aI99
aI100
aI101
aI102
aI103
aI104
aI105
aI106
asg5077
(dp5754
S'VGNF'
p5755
(issf_api
Node
p5756
(dp5757
g5082
S'nmod__k2inv'
p5758
sg5084
g5755
sg5085
S'NP3'
p5759
sg5086
I-1
sg38
I2
sg5087
(lp5760
S'NP2'
p5761
asbsS'VGF'
p5762
(issf_api
Node
p5763
(dp5764
g5082
g5083
sg5084
g5762
sg5085
g5083
sg5086
I-1
sg38
I7
sg5087
(lp5765
S'BLK'
p5766
aS'NP4'
p5767
aS'NP6'
p5768
asbsS'NP5'
p5769
(issf_api
Node
p5770
(dp5771
g5082
S'nmod'
p5772
sg5084
g5769
sg5085
S'NP6'
p5773
sg5086
I-1
sg38
I5
sg5087
(lp5774
sbsg5766
(issf_api
Node
p5775
(dp5776
g5082
S'rsym'
p5777
sg5084
g5766
sg5085
S'VGF'
p5778
sg5086
I-1
sg38
I8
sg5087
(lp5779
sbsS'NP'
p5780
(issf_api
Node
p5781
(dp5782
g5082
S'r6-k1'
p5783
sg5084
g5780
sg5085
S'NP2'
p5784
sg5086
I-1
sg38
I0
sg5087
(lp5785
sbsg5767
(issf_api
Node
p5786
(dp5787
g5082
S'k2'
p5788
sg5084
g5767
sg5085
S'VGF'
p5789
sg5086
I-1
sg38
I4
sg5087
(lp5790
S'NP3'
p5791
asbsg5768
(issf_api
Node
p5792
(dp5793
g5082
S'k2s'
p5794
sg5084
g5768
sg5085
S'VGF'
p5795
sg5086
I-1
sg38
I6
sg5087
(lp5796
g5769
asbsg5791
(issf_api
Node
p5797
(dp5798
g5082
S'r6'
p5799
sg5084
g5791
sg5085
S'NP4'
p5800
sg5086
I-1
sg38
I3
sg5087
(lp5801
g5755
asbsg5761
(issf_api
Node
p5802
(dp5803
g5082
S'pof'
p5804
sg5084
g5761
sg5085
S'VGNF'
p5805
sg5086
I-1
sg38
I1
sg5087
(lp5806
g5780
asbssg5137
(lp5807
(issf_api
Chunk
p5808
(dp5809
g5084
g1875
sg38
I0
sg5141
g1886
sg39
I4
sg5075
(lp5810
I91
aI92
asg44
(issf_api
FeatureSet
p5811
(dp5812
g12
(dp5813
S'name'
p5814
g5780
sS'drel'
p5815
S'r6-k1:NP2'
p5816
ssbsba(issf_api
Chunk
p5817
(dp5818
g5084
g1917
sg38
I1
sg5141
g1922
sg39
I4
sg5075
(lp5819
I93
asg44
(issf_api
FeatureSet
p5820
(dp5821
g12
(dp5822
S'name'
p5823
g5761
sS'drel'
p5824
S'pof:VGNF'
p5825
ssbsba(issf_api
Chunk
p5826
(dp5827
g5084
g1936
sg38
I2
sg5141
g1941
sg39
I4
sg5075
(lp5828
I94
asg44
(issf_api
FeatureSet
p5829
(dp5830
g12
(dp5831
S'name'
p5832
g5755
sS'drel'
p5833
S'nmod__k2inv:NP3'
p5834
ssbsba(issf_api
Chunk
p5835
(dp5836
g5084
g1976
sg38
I3
sg5141
g1987
sg39
I4
sg5075
(lp5837
I95
aI96
aI97
asg44
(issf_api
FeatureSet
p5838
(dp5839
g12
(dp5840
S'name'
p5841
g5791
sS'drel'
p5842
S'r6:NP4'
p5843
ssbsba(issf_api
Chunk
p5844
(dp5845
g5084
g2018
sg38
I4
sg5141
g2023
sg39
I4
sg5075
(lp5846
I98
asg44
(issf_api
FeatureSet
p5847
(dp5848
g12
(dp5849
S'name'
p5850
g5767
sS'drel'
p5851
S'k2:VGF'
p5852
ssbsba(issf_api
Chunk
p5853
(dp5854
g5084
g2037
sg38
I5
sg5141
g2043
sg39
I4
sg5075
(lp5855
I99
aI100
asg44
(issf_api
FeatureSet
p5856
(dp5857
g12
(dp5858
S'name'
p5859
g5769
sS'drel'
p5860
S'nmod:NP6'
p5861
ssbsba(issf_api
Chunk
p5862
(dp5863
g5084
g2091
sg38
I6
sg5141
g2096
sg39
I4
sg5075
(lp5864
I101
aI102
asg44
(issf_api
FeatureSet
p5865
(dp5866
g12
(dp5867
S'name'
p5868
g5768
sS'drel'
p5869
S'k2s:VGF'
p5870
ssbsba(issf_api
Chunk
p5871
(dp5872
g5084
g2110
sg38
I7
sg5141
g2119
sg39
I4
sg5075
(lp5873
I103
aI104
aI105
asg44
(issf_api
FeatureSet
p5874
(dp5875
g12
(dp5876
S'name'
p5877
g5762
ssbsba(issf_api
Chunk
p5878
(dp5879
g5084
g2167
sg38
I8
sg5141
g2172
sg39
I4
sg5075
(lp5880
I106
asg44
(issf_api
FeatureSet
p5881
(dp5882
g12
(dp5883
S'name'
p5884
g5766
sS'drel'
p5885
S'rsym:VGF'
p5886
ssbsbasba(issf_api
Sentence
p5887
(dp5888
g5073
(lp5889
sg39
I5
sg5075
(lp5890
I107
aI108
aI109
aI110
aI111
aI112
aI113
aI114
aI115
aI116
aI117
aI118
aI119
aI120
aI121
aI122
aI123
aI124
aI125
aI126
aI127
aI128
asg5077
(dp5891
S'VGF'
p5892
(issf_api
Node
p5893
(dp5894
g5082
g5083
sg5084
g5892
sg5085
g5083
sg5086
I-1
sg38
I1
sg5087
(lp5895
S'CCP'
p5896
aS'BLK'
p5897
aS'NP'
p5898
asbsg5896
(issf_api
Node
p5899
(dp5900
g5082
S'k2'
p5901
sg5084
g5896
sg5085
S'VGF'
p5902
sg5086
I-1
sg38
I2
sg5087
(lp5903
S'VGF2'
p5904
asbsg5904
(issf_api
Node
p5905
(dp5906
g5082
S'ccof'
p5907
sg5084
g5904
sg5085
S'CCP'
p5908
sg5086
I-1
sg38
I8
sg5087
(lp5909
S'NP5'
p5910
aS'NP4'
p5911
aS'NP6'
p5912
aS'NP2'
p5913
asbsg5910
(issf_api
Node
p5914
(dp5915
g5082
S'k2'
p5916
sg5084
g5910
sg5085
S'VGF2'
p5917
sg5086
I-1
sg38
I6
sg5087
(lp5918
sbsg5897
(issf_api
Node
p5919
(dp5920
g5082
S'rsym'
p5921
sg5084
g5897
sg5085
S'VGF'
p5922
sg5086
I-1
sg38
I9
sg5087
(lp5923
sbsg5898
(issf_api
Node
p5924
(dp5925
g5082
S'k1'
p5926
sg5084
g5898
sg5085
S'VGF'
p5927
sg5086
I-1
sg38
I0
sg5087
(lp5928
sbsg5911
(issf_api
Node
p5929
(dp5930
g5082
S'k7'
p5931
sg5084
g5911
sg5085
S'VGF2'
p5932
sg5086
I-1
sg38
I5
sg5087
(lp5933
S'NP3'
p5934
asbsg5912
(issf_api
Node
p5935
(dp5936
g5082
S'pof'
p5937
sg5084
g5912
sg5085
S'VGF2'
p5938
sg5086
I-1
sg38
I7
sg5087
(lp5939
sbsg5934
(issf_api
Node
p5940
(dp5941
g5082
S'r6'
p5942
sg5084
g5934
sg5085
S'NP4'
p5943
sg5086
I-1
sg38
I4
sg5087
(lp5944
sbsg5913
(issf_api
Node
p5945
(dp5946
g5082
S'k1'
p5947
sg5084
g5913
sg5085
S'VGF2'
p5948
sg5086
I-1
sg38
I3
sg5087
(lp5949
sbssg5137
(lp5950
(issf_api
Chunk
p5951
(dp5952
g5084
g2243
sg38
I0
sg5141
g2250
sg39
I5
sg5075
(lp5953
I107
aI108
aI109
aI110
aI111
asg44
(issf_api
FeatureSet
p5954
(dp5955
g12
(dp5956
S'name'
p5957
g5898
sS'drel'
p5958
S'k1:VGF'
p5959
ssbsba(issf_api
Chunk
p5960
(dp5961
g5084
g2281
sg38
I1
sg5141
g2288
sg39
I5
sg5075
(lp5962
I112
asg44
(issf_api
FeatureSet
p5963
(dp5964
g12
(dp5965
S'name'
p5966
g5892
ssbsba(issf_api
Chunk
p5967
(dp5968
g5084
g2302
sg38
I2
sg5141
g2307
sg39
I5
sg5075
(lp5969
I113
asg44
(issf_api
FeatureSet
p5970
(dp5971
g12
(dp5972
S'name'
p5973
g5896
sS'drel'
p5974
S'k2:VGF'
p5975
ssbsba(issf_api
Chunk
p5976
(dp5977
g5084
g2359
sg38
I3
sg5141
g2370
sg39
I5
sg5075
(lp5978
I114
aI115
aI116
aI117
asg44
(issf_api
FeatureSet
p5979
(dp5980
g12
(dp5981
S'name'
p5982
g5913
sS'drel'
p5983
S'k1:VGF2'
p5984
ssbsba(issf_api
Chunk
p5985
(dp5986
g5084
g2403
sg38
I4
sg5141
g2414
sg39
I5
sg5075
(lp5987
I118
aI119
asg44
(issf_api
FeatureSet
p5988
(dp5989
g12
(dp5990
S'name'
p5991
g5934
sS'drel'
p5992
S'r6:NP4'
p5993
ssbsba(issf_api
Chunk
p5994
(dp5995
g5084
g2445
sg38
I5
sg5141
g2452
sg39
I5
sg5075
(lp5996
I120
aI121
asg44
(issf_api
FeatureSet
p5997
(dp5998
g12
(dp5999
S'name'
p6000
g5911
sS'drel'
p6001
S'k7:VGF2'
p6002
ssbsba(issf_api
Chunk
p6003
(dp6004
g5084
g2504
sg38
I6
sg5141
g2515
sg39
I5
sg5075
(lp6005
I122
aI123
aI124
aI125
asg44
(issf_api
FeatureSet
p6006
(dp6007
g12
(dp6008
S'name'
p6009
g5910
sS'drel'
p6010
S'k2:VGF2'
p6011
ssbsba(issf_api
Chunk
p6012
(dp6013
g5084
g2565
sg38
I7
sg5141
g2574
sg39
I5
sg5075
(lp6014
I126
asg44
(issf_api
FeatureSet
p6015
(dp6016
g12
(dp6017
S'name'
p6018
g5912
sS'drel'
p6019
S'pof:VGF2'
p6020
ssbsba(issf_api
Chunk
p6021
(dp6022
g5084
g2588
sg38
I8
sg5141
g2597
sg39
I5
sg5075
(lp6023
I127
asg44
(issf_api
FeatureSet
p6024
(dp6025
g12
(dp6026
S'name'
p6027
g5904
sS'drel'
p6028
S'ccof:CCP'
p6029
ssbsba(issf_api
Chunk
p6030
(dp6031
g5084
g2611
sg38
I9
sg5141
g2616
sg39
I5
sg5075
(lp6032
I128
asg44
(issf_api
FeatureSet
p6033
(dp6034
g12
(dp6035
S'name'
p6036
g5897
sS'drel'
p6037
S'rsym:VGF'
p6038
ssbsbasba(issf_api
Sentence
p6039
(dp6040
g5073
(lp6041
sg39
I6
sg5075
(lp6042
I129
aI130
aI131
aI132
aI133
aI134
aI135
aI136
aI137
aI138
aI139
aI140
asg5077
(dp6043
S'VGF'
p6044
(issf_api
Node
p6045
(dp6046
g5082
g5083
sg5084
g6044
sg5085
g5083
sg5086
I-1
sg38
I4
sg5087
(lp6047
S'BLK'
p6048
aS'NP'
p6049
aS'NP4'
p6050
aS'NP2'
p6051
asbsg6048
(issf_api
Node
p6052
(dp6053
g5082
S'rsym'
p6054
sg5084
g6048
sg5085
S'VGF'
p6055
sg5086
I-1
sg38
I5
sg5087
(lp6056
sbsg6049
(issf_api
Node
p6057
(dp6058
g5082
S'k1'
p6059
sg5084
g6049
sg5085
S'VGF'
p6060
sg5086
I-1
sg38
I0
sg5087
(lp6061
sbsg6050
(issf_api
Node
p6062
(dp6063
g5082
S'pof'
p6064
sg5084
g6050
sg5085
S'VGF'
p6065
sg5086
I-1
sg38
I3
sg5087
(lp6066
S'NP3'
p6067
asbsg6067
(issf_api
Node
p6068
(dp6069
g5082
S'r6-k2'
p6070
sg5084
g6067
sg5085
S'NP4'
p6071
sg5086
I-1
sg38
I2
sg5087
(lp6072
sbsg6051
(issf_api
Node
p6073
(dp6074
g5082
S'k7t'
p6075
sg5084
g6051
sg5085
S'VGF'
p6076
sg5086
I-1
sg38
I1
sg5087
(lp6077
sbssg5137
(lp6078
(issf_api
Chunk
p6079
(dp6080
g5084
g2651
sg38
I0
sg5141
g2660
sg39
I6
sg5075
(lp6081
I129
aI130
asg44
(issf_api
FeatureSet
p6082
(dp6083
g12
(dp6084
S'name'
p6085
g6049
sS'drel'
p6086
S'k1:VGF'
p6087
ssbsba(issf_api
Chunk
p6088
(dp6089
g5084
g2674
sg38
I1
sg5141
g2681
sg39
I6
sg5075
(lp6090
I131
aI132
aI133
asg44
(issf_api
FeatureSet
p6091
(dp6092
g12
(dp6093
S'name'
p6094
g6051
sS'drel'
p6095
S'k7t:VGF'
p6096
ssbsba(issf_api
Chunk
p6097
(dp6098
g5084
g2731
sg38
I2
sg5141
g2742
sg39
I6
sg5075
(lp6099
I134
aI135
asg44
(issf_api
FeatureSet
p6100
(dp6101
g12
(dp6102
S'name'
p6103
g6067
sS'drel'
p6104
S'r6-k2:NP4'
p6105
ssbsba(issf_api
Chunk
p6106
(dp6107
g5084
g2773
sg38
I3
sg5141
g2778
sg39
I6
sg5075
(lp6108
I136
asg44
(issf_api
FeatureSet
p6109
(dp6110
g12
(dp6111
S'name'
p6112
g6050
sS'drel'
p6113
S'pof:VGF'
p6114
ssbsba(issf_api
Chunk
p6115
(dp6116
g5084
g2792
sg38
I4
sg5141
g2801
sg39
I6
sg5075
(lp6117
I137
aI138
aI139
asg44
(issf_api
FeatureSet
p6118
(dp6119
g12
(dp6120
S'name'
p6121
g6044
ssbsba(issf_api
Chunk
p6122
(dp6123
g5084
g2849
sg38
I5
sg5141
g2854
sg39
I6
sg5075
(lp6124
I140
asg44
(issf_api
FeatureSet
p6125
(dp6126
g12
(dp6127
S'name'
p6128
g6048
sS'drel'
p6129
S'rsym:VGF'
p6130
ssbsbasba(issf_api
Sentence
p6131
(dp6132
g5073
(lp6133
sg39
I7
sg5075
(lp6134
I141
aI142
aI143
aI144
aI145
aI146
aI147
aI148
aI149
aI150
aI151
aI152
aI153
aI154
aI155
aI156
aI157
aI158
aI159
aI160
aI161
aI162
aI163
aI164
aI165
aI166
aI167
aI168
aI169
asg5077
(dp6135
S'VGNF'
p6136
(issf_api
Node
p6137
(dp6138
g5082
S'vmod'
p6139
sg5084
g6136
sg5085
S'VGF2'
p6140
sg5086
I-1
sg38
I12
sg5087
(lp6141
S'NP9'
p6142
asbsS'NP11'
p6143
(issf_api
Node
p6144
(dp6145
g5082
S'r6-k2'
p6146
sg5084
g6143
sg5085
S'NP12'
p6147
sg5086
I-1
sg38
I14
sg5087
(lp6148
S'NP10'
p6149
asbsg6149
(issf_api
Node
p6150
(dp6151
g5082
S'r6'
p6152
sg5084
g6149
sg5085
S'NP11'
p6153
sg5086
I-1
sg38
I13
sg5087
(lp6154
sbsS'VGF'
p6155
(issf_api
Node
p6156
(dp6157
g5082
S'ccof'
p6158
sg5084
g6155
sg5085
S'CCP'
p6159
sg5086
I-1
sg38
I6
sg5087
(lp6160
S'NP'
p6161
aS'NP4'
p6162
aS'NP6'
p6163
aS'NP3'
p6164
asbsS'NP12'
p6165
(issf_api
Node
p6166
(dp6167
g5082
S'pof'
p6168
sg5084
g6165
sg5085
S'VGF2'
p6169
sg5086
I-1
sg38
I15
sg5087
(lp6170
g6143
asbsS'CCP'
p6171
(issf_api
Node
p6172
(dp6173
g5082
g5083
sg5084
g6171
sg5085
g5083
sg5086
I-1
sg38
I7
sg5087
(lp6174
g6155
aS'VGF2'
p6175
aS'BLK'
p6176
asbsS'RBP'
p6177
(issf_api
Node
p6178
(dp6179
g5082
S'sent-adv'
p6180
sg5084
g6177
sg5085
S'VGF2'
p6181
sg5086
I-1
sg38
I8
sg5087
(lp6182
sbsg6175
(issf_api
Node
p6183
(dp6184
g5082
S'ccof'
p6185
sg5084
g6175
sg5085
S'CCP'
p6186
sg5086
I-1
sg38
I16
sg5087
(lp6187
g6136
ag6165
ag6177
aS'NP7'
p6188
asbsS'NP5'
p6189
(issf_api
Node
p6190
(dp6191
g5082
S'r6'
p6192
sg5084
g6189
sg5085
S'NP6'
p6193
sg5086
I-1
sg38
I4
sg5087
(lp6194
sbsg6142
(issf_api
Node
p6195
(dp6196
g5082
S'k7p'
p6197
sg5084
g6142
sg5085
S'VGNF'
p6198
sg5086
I-1
sg38
I11
sg5087
(lp6199
S'NP8'
p6200
asbsg6200
(issf_api
Node
p6201
(dp6202
g5082
S'r6'
p6203
sg5084
g6200
sg5085
S'NP9'
p6204
sg5086
I-1
sg38
I10
sg5087
(lp6205
sbsg6176
(issf_api
Node
p6206
(dp6207
g5082
S'rsym'
p6208
sg5084
g6176
sg5085
S'CCP'
p6209
sg5086
I-1
sg38
I17
sg5087
(lp6210
sbsg6161
(issf_api
Node
p6211
(dp6212
g5082
S'k1'
p6213
sg5084
g6161
sg5085
S'VGF'
p6214
sg5086
I-1
sg38
I0
sg5087
(lp6215
sbsg6162
(issf_api
Node
p6216
(dp6217
g5082
S'k2'
p6218
sg5084
g6162
sg5085
S'VGF'
p6219
sg5086
I-1
sg38
I3
sg5087
(lp6220
sbsg6188
(issf_api
Node
p6221
(dp6222
g5082
S'k2'
p6223
sg5084
g6188
sg5085
S'VGF2'
p6224
sg5086
I-1
sg38
I9
sg5087
(lp6225
sbsg6163
(issf_api
Node
p6226
(dp6227
g5082
S'k7'
p6228
sg5084
g6163
sg5085
S'VGF'
p6229
sg5086
I-1
sg38
I5
sg5087
(lp6230
g6189
asbsg6164
(issf_api
Node
p6231
(dp6232
g5082
S'k7'
p6233
sg5084
g6164
sg5085
S'VGF'
p6234
sg5086
I-1
sg38
I2
sg5087
(lp6235
S'NP2'
p6236
asbsg6236
(issf_api
Node
p6237
(dp6238
g5082
S'r6'
p6239
sg5084
g6236
sg5085
S'NP3'
p6240
sg5086
I-1
sg38
I1
sg5087
(lp6241
sbssg5137
(lp6242
(issf_api
Chunk
p6243
(dp6244
g5084
g2870
sg38
I0
sg5141
g2879
sg39
I7
sg5075
(lp6245
I141
asg44
(issf_api
FeatureSet
p6246
(dp6247
g12
(dp6248
S'name'
p6249
g6161
sS'drel'
p6250
S'k1:VGF'
p6251
ssbsba(issf_api
Chunk
p6252
(dp6253
g5084
g2895
sg38
I1
sg5141
g2906
sg39
I7
sg5075
(lp6254
I142
aI143
asg44
(issf_api
FeatureSet
p6255
(dp6256
g12
(dp6257
S'name'
p6258
g6236
sS'drel'
p6259
S'r6:NP3'
p6260
ssbsba(issf_api
Chunk
p6261
(dp6262
g5084
g2937
sg38
I2
sg5141
g2944
sg39
I7
sg5075
(lp6263
I144
aI145
asg44
(issf_api
FeatureSet
p6264
(dp6265
g12
(dp6266
S'name'
p6267
g6164
sS'drel'
p6268
S'k7:VGF'
p6269
ssbsba(issf_api
Chunk
p6270
(dp6271
g5084
g2994
sg38
I3
sg5141
g3005
sg39
I7
sg5075
(lp6272
I146
aI147
aI148
asg44
(issf_api
FeatureSet
p6273
(dp6274
g12
(dp6275
S'name'
p6276
g6162
sS'drel'
p6277
S'k2:VGF'
p6278
ssbsba(issf_api
Chunk
p6279
(dp6280
g5084
g3038
sg38
I4
sg5141
g3047
sg39
I7
sg5075
(lp6281
I149
asg44
(issf_api
FeatureSet
p6282
(dp6283
g12
(dp6284
S'name'
p6285
g6189
sS'drel'
p6286
S'r6:NP6'
p6287
ssbsba(issf_api
Chunk
p6288
(dp6289
g5084
g3061
sg38
I5
sg5141
g3068
sg39
I7
sg5075
(lp6290
I150
aI151
asg44
(issf_api
FeatureSet
p6291
(dp6292
g12
(dp6293
S'name'
p6294
g6163
sS'drel'
p6295
S'k7:VGF'
p6296
ssbsba(issf_api
Chunk
p6297
(dp6298
g5084
g3099
sg38
I6
sg5141
g3110
sg39
I7
sg5075
(lp6299
I152
aI153
asg44
(issf_api
FeatureSet
p6300
(dp6301
g12
(dp6302
S'name'
p6303
g6155
sS'drel'
p6304
S'ccof:CCP'
p6305
ssbsba(issf_api
Chunk
p6306
(dp6307
g5084
g3137
sg38
I7
sg5141
g3144
sg39
I7
sg5075
(lp6308
I154
asg44
(issf_api
FeatureSet
p6309
(dp6310
g12
(dp6311
S'name'
p6312
g6171
ssbsba(issf_api
Chunk
p6313
(dp6314
g5084
g3158
sg38
I8
sg5141
g3163
sg39
I7
sg5075
(lp6315
I155
asg44
(issf_api
FeatureSet
p6316
(dp6317
g12
(dp6318
S'name'
p6319
g6177
sS'drel'
p6320
S'sent-adv:VGF2'
p6321
ssbsba(issf_api
Chunk
p6322
(dp6323
g5084
g3179
sg38
I9
sg5141
g3188
sg39
I7
sg5075
(lp6324
I156
asg44
(issf_api
FeatureSet
p6325
(dp6326
g12
(dp6327
S'name'
p6328
g6188
sS'drel'
p6329
S'k2:VGF2'
p6330
ssbsba(issf_api
Chunk
p6331
(dp6332
g5084
g3202
sg38
I10
sg5141
g3208
sg39
I7
sg5075
(lp6333
I157
aI158
asg44
(issf_api
FeatureSet
p6334
(dp6335
g12
(dp6336
S'name'
p6337
g6200
sS'drel'
p6338
S'r6:NP9'
p6339
ssbsba(issf_api
Chunk
p6340
(dp6341
g5084
g3256
sg38
I11
sg5141
g3263
sg39
I7
sg5075
(lp6342
I159
aI160
aI161
asg44
(issf_api
FeatureSet
p6343
(dp6344
g12
(dp6345
S'name'
p6346
g6142
sS'drel'
p6347
S'k7p:VGNF'
p6348
ssbsba(issf_api
Chunk
p6349
(dp6350
g5084
g3294
sg38
I12
sg5141
g3301
sg39
I7
sg5075
(lp6351
I162
aI163
asg44
(issf_api
FeatureSet
p6352
(dp6353
g12
(dp6354
S'name'
p6355
g6136
sS'drel'
p6356
S'vmod:VGF2'
p6357
ssbsba(issf_api
Chunk
p6358
(dp6359
g5084
g3334
sg38
I13
sg5141
g3343
sg39
I7
sg5075
(lp6360
I164
asg44
(issf_api
FeatureSet
p6361
(dp6362
g12
(dp6363
S'name'
p6364
g6149
sS'drel'
p6365
S'r6:NP11'
p6366
ssbsba(issf_api
Chunk
p6367
(dp6368
g5084
g3357
sg38
I14
sg5141
g3364
sg39
I7
sg5075
(lp6369
I165
aI166
asg44
(issf_api
FeatureSet
p6370
(dp6371
g12
(dp6372
S'name'
p6373
g6143
sS'drel'
p6374
S'r6-k2:NP12'
p6375
ssbsba(issf_api
Chunk
p6376
(dp6377
g5084
g3395
sg38
I15
sg5141
g3400
sg39
I7
sg5075
(lp6378
I167
asg44
(issf_api
FeatureSet
p6379
(dp6380
g12
(dp6381
S'name'
p6382
g6165
sS'drel'
p6383
S'pof:VGF2'
p6384
ssbsba(issf_api
Chunk
p6385
(dp6386
g5084
g3414
sg38
I16
sg5141
g3423
sg39
I7
sg5075
(lp6387
I168
asg44
(issf_api
FeatureSet
p6388
(dp6389
g12
(dp6390
S'name'
p6391
g6175
sS'drel'
p6392
S'ccof:CCP'
p6393
ssbsba(issf_api
Chunk
p6394
(dp6395
g5084
g3437
sg38
I17
sg5141
g3442
sg39
I7
sg5075
(lp6396
I169
asg44
(issf_api
FeatureSet
p6397
(dp6398
g12
(dp6399
S'name'
p6400
g6176
sS'drel'
p6401
S'rsym:CCP'
p6402
ssbsbasba(issf_api
Sentence
p6403
(dp6404
g5073
(lp6405
sg39
I8
sg5075
(lp6406
I170
aI171
aI172
aI173
aI174
aI175
aI176
aI177
aI178
aI179
aI180
asg5077
(dp6407
S'NP'
p6408
(issf_api
Node
p6409
(dp6410
g5082
S'k1'
p6411
sg5084
g6408
sg5085
S'VGF'
p6412
sg5086
I-1
sg38
I0
sg5087
(lp6413
sbsS'VGF'
p6414
(issf_api
Node
p6415
(dp6416
g5082
g5083
sg5084
g6414
sg5085
g5083
sg5086
I-1
sg38
I3
sg5087
(lp6417
g6408
aS'BLK'
p6418
aS'NP3'
p6419
aS'NP2'
p6420
asbsg6418
(issf_api
Node
p6421
(dp6422
g5082
S'rsym'
p6423
sg5084
g6418
sg5085
S'VGF'
p6424
sg5086
I-1
sg38
I4
sg5087
(lp6425
sbsg6419
(issf_api
Node
p6426
(dp6427
g5082
S'k2'
p6428
sg5084
g6419
sg5085
S'VGF'
p6429
sg5086
I-1
sg38
I2
sg5087
(lp6430
sbsg6420
(issf_api
Node
p6431
(dp6432
g5082
S'k5'
p6433
sg5084
g6420
sg5085
S'VGF'
p6434
sg5086
I-1
sg38
I1
sg5087
(lp6435
sbssg5137
(lp6436
(issf_api
Chunk
p6437
(dp6438
g5084
g3477
sg38
I0
sg5141
g3488
sg39
I8
sg5075
(lp6439
I170
aI171
aI172
asg44
(issf_api
FeatureSet
p6440
(dp6441
g12
(dp6442
S'name'
p6443
g6408
sS'drel'
p6444
S'k1:VGF'
p6445
ssbsba(issf_api
Chunk
p6446
(dp6447
g5084
g3538
sg38
I1
sg5141
g3549
sg39
I8
sg5075
(lp6448
I173
aI174
aI175
asg44
(issf_api
FeatureSet
p6449
(dp6450
g12
(dp6451
S'name'
p6452
g6420
sS'drel'
p6453
S'k5:VGF'
p6454
ssbsba(issf_api
Chunk
p6455
(dp6456
g5084
g3580
sg38
I2
sg5141
g3585
sg39
I8
sg5075
(lp6457
I176
aI177
asg44
(issf_api
FeatureSet
p6458
(dp6459
g12
(dp6460
S'name'
p6461
g6419
sS'drel'
p6462
S'k2:VGF'
p6463
ssbsba(issf_api
Chunk
p6464
(dp6465
g5084
g3616
sg38
I3
sg5141
g3625
sg39
I8
sg5075
(lp6466
I178
aI179
asg44
(issf_api
FeatureSet
p6467
(dp6468
g12
(dp6469
S'name'
p6470
g6414
ssbsba(issf_api
Chunk
p6471
(dp6472
g5084
g3656
sg38
I4
sg5141
g3661
sg39
I8
sg5075
(lp6473
I180
asg44
(issf_api
FeatureSet
p6474
(dp6475
g12
(dp6476
S'name'
p6477
g6418
sS'drel'
p6478
S'rsym:VGF'
p6479
ssbsbasba(issf_api
Sentence
p6480
(dp6481
g5073
(lp6482
sg39
I9
sg5075
(lp6483
I181
aI182
aI183
aI184
aI185
aI186
aI187
aI188
aI189
aI190
aI191
aI192
aI193
aI194
aI195
aI196
aI197
aI198
aI199
aI200
aI201
aI202
aI203
asg5077
(dp6484
S'VGNN'
p6485
(issf_api
Node
p6486
(dp6487
g5082
S'k7t'
p6488
sg5084
g6485
sg5085
S'VGF'
p6489
sg5086
I-1
sg38
I0
sg5087
(lp6490
sbsS'VGF'
p6491
(issf_api
Node
p6492
(dp6493
g5082
g5083
sg5084
g6491
sg5085
g5083
sg5086
I-1
sg38
I4
sg5087
(lp6494
g6485
aS'CCP'
p6495
aS'BLK'
p6496
aS'NP'
p6497
aS'NP3'
p6498
aS'NP2'
p6499
asbsS'VGF3'
p6500
(issf_api
Node
p6501
(dp6502
g5082
S'ccof'
p6503
sg5084
g6500
sg5085
S'CCP3'
p6504
sg5086
I-1
sg38
I15
sg5087
(lp6505
S'CCP4'
p6506
aS'CCP2'
p6507
asbsg6495
(issf_api
Node
p6508
(dp6509
g5082
S'k2'
p6510
sg5084
g6495
sg5085
S'VGF'
p6511
sg5086
I-1
sg38
I5
sg5087
(lp6512
S'CCP3'
p6513
asbsS'VGF2'
p6514
(issf_api
Node
p6515
(dp6516
g5082
S'ccof'
p6517
sg5084
g6514
sg5085
S'CCP2'
p6518
sg5086
I-1
sg38
I9
sg5087
(lp6519
S'NP5'
p6520
aS'NP4'
p6521
asbsg6520
(issf_api
Node
p6522
(dp6523
g5082
S'k2'
p6524
sg5084
g6520
sg5085
S'VGF2'
p6525
sg5086
I-1
sg38
I8
sg5087
(lp6526
sbsS'NP7'
p6527
(issf_api
Node
p6528
(dp6529
g5082
S'r6'
p6530
sg5084
g6527
sg5085
S'NP8'
p6531
sg5086
I-1
sg38
I13
sg5087
(lp6532
sbsS'NP8'
p6533
(issf_api
Node
p6534
(dp6535
g5082
S'ccof'
p6536
sg5084
g6533
sg5085
S'CCP4'
p6537
sg5086
I-1
sg38
I14
sg5087
(lp6538
g6527
asbsg6496
(issf_api
Node
p6539
(dp6540
g5082
S'rsym'
p6541
sg5084
g6496
sg5085
S'VGF'
p6542
sg5086
I-1
sg38
I16
sg5087
(lp6543
sbsg6497
(issf_api
Node
p6544
(dp6545
g5082
S'k1'
p6546
sg5084
g6497
sg5085
S'VGF'
p6547
sg5086
I-1
sg38
I1
sg5087
(lp6548
sbsg6521
(issf_api
Node
p6549
(dp6550
g5082
S'k1'
p6551
sg5084
g6521
sg5085
S'VGF2'
p6552
sg5086
I-1
sg38
I7
sg5087
(lp6553
sbsg6506
(issf_api
Node
p6554
(dp6555
g5082
S'k2'
p6556
sg5084
g6506
sg5085
S'VGF3'
p6557
sg5086
I-1
sg38
I12
sg5087
(lp6558
g6533
aS'NP6'
p6559
asbsg6559
(issf_api
Node
p6560
(dp6561
g5082
S'ccof'
p6562
sg5084
g6559
sg5085
S'CCP4'
p6563
sg5086
I-1
sg38
I11
sg5087
(lp6564
sbsg6507
(issf_api
Node
p6565
(dp6566
g5082
S'vmod'
p6567
sg5084
g6507
sg5085
S'VGF3'
p6568
sg5086
I-1
sg38
I6
sg5087
(lp6569
g6514
asbsg6513
(issf_api
Node
p6570
(dp6571
g5082
S'ccof'
p6572
sg5084
g6513
sg5085
S'CCP'
p6573
sg5086
I-1
sg38
I10
sg5087
(lp6574
g6500
asbsg6498
(issf_api
Node
p6575
(dp6576
g5082
S'pof'
p6577
sg5084
g6498
sg5085
S'VGF'
p6578
sg5086
I-1
sg38
I3
sg5087
(lp6579
sbsg6499
(issf_api
Node
p6580
(dp6581
g5082
S'k4'
p6582
sg5084
g6499
sg5085
S'VGF'
p6583
sg5086
I-1
sg38
I2
sg5087
(lp6584
sbssg5137
(lp6585
(issf_api
Chunk
p6586
(dp6587
g5084
g3675
sg38
I0
sg5141
g3682
sg39
I9
sg5075
(lp6588
I181
aI182
asg44
(issf_api
FeatureSet
p6589
(dp6590
g12
(dp6591
S'name'
p6592
g6485
sS'drel'
p6593
S'k7t:VGF'
p6594
ssbsba(issf_api
Chunk
p6595
(dp6596
g5084
g3715
sg38
I1
sg5141
g3724
sg39
I9
sg5075
(lp6597
I183
asg44
(issf_api
FeatureSet
p6598
(dp6599
g12
(dp6600
S'name'
p6601
g6497
sS'drel'
p6602
S'k1:VGF'
p6603
ssbsba(issf_api
Chunk
p6604
(dp6605
g5084
g3740
sg38
I2
sg5141
g3751
sg39
I9
sg5075
(lp6606
I184
aI185
asg44
(issf_api
FeatureSet
p6607
(dp6608
g12
(dp6609
S'name'
p6610
g6499
sS'drel'
p6611
S'k4:VGF'
p6612
ssbsba(issf_api
Chunk
p6613
(dp6614
g5084
g3782
sg38
I3
sg5141
g3787
sg39
I9
sg5075
(lp6615
I186
asg44
(issf_api
FeatureSet
p6616
(dp6617
g12
(dp6618
S'name'
p6619
g6498
sS'drel'
p6620
S'pof:VGF'
p6621
ssbsba(issf_api
Chunk
p6622
(dp6623
g5084
g3801
sg38
I4
sg5141
g3808
sg39
I9
sg5075
(lp6624
I187
asg44
(issf_api
FeatureSet
p6625
(dp6626
g12
(dp6627
S'name'
p6628
g6491
ssbsba(issf_api
Chunk
p6629
(dp6630
g5084
g3822
sg38
I5
sg5141
g3827
sg39
I9
sg5075
(lp6631
I188
asg44
(issf_api
FeatureSet
p6632
(dp6633
g12
(dp6634
S'name'
p6635
g6495
sS'drel'
p6636
S'k2:VGF'
p6637
ssbsba(issf_api
Chunk
p6638
(dp6639
g5084
g3841
sg38
I6
sg5141
g3846
sg39
I9
sg5075
(lp6640
I189
asg44
(issf_api
FeatureSet
p6641
(dp6642
g12
(dp6643
S'name'
p6644
g6507
sS'drel'
p6645
S'vmod:VGF3'
p6646
ssbsba(issf_api
Chunk
p6647
(dp6648
g5084
g3862
sg38
I7
sg5141
g3871
sg39
I9
sg5075
(lp6649
I190
asg44
(issf_api
FeatureSet
p6650
(dp6651
g12
(dp6652
S'name'
p6653
g6521
sS'drel'
p6654
S'k1:VGF2'
p6655
ssbsba(issf_api
Chunk
p6656
(dp6657
g5084
g3885
sg38
I8
sg5141
g3890
sg39
I9
sg5075
(lp6658
I191
asg44
(issf_api
FeatureSet
p6659
(dp6660
g12
(dp6661
S'name'
p6662
g6520
sS'drel'
p6663
S'k2:VGF2'
p6664
ssbsba(issf_api
Chunk
p6665
(dp6666
g5084
g3904
sg38
I9
sg5141
g3913
sg39
I9
sg5075
(lp6667
I192
asg44
(issf_api
FeatureSet
p6668
(dp6669
g12
(dp6670
S'name'
p6671
g6514
sS'drel'
p6672
S'ccof:CCP2'
p6673
ssbsba(issf_api
Chunk
p6674
(dp6675
g5084
g3927
sg38
I10
sg5141
g3932
sg39
I9
sg5075
(lp6676
I193
asg44
(issf_api
FeatureSet
p6677
(dp6678
g12
(dp6679
S'name'
p6680
g6513
sS'drel'
p6681
S'ccof:CCP'
p6682
ssbsba(issf_api
Chunk
p6683
(dp6684
g5084
g3948
sg38
I11
sg5141
g3957
sg39
I9
sg5075
(lp6685
I194
asg44
(issf_api
FeatureSet
p6686
(dp6687
g12
(dp6688
S'name'
p6689
g6559
sS'drel'
p6690
S'ccof:CCP4'
p6691
ssbsba(issf_api
Chunk
p6692
(dp6693
g5084
g3971
sg38
I12
sg5141
g3976
sg39
I9
sg5075
(lp6694
I195
asg44
(issf_api
FeatureSet
p6695
(dp6696
g12
(dp6697
S'name'
p6698
g6506
sS'drel'
p6699
S'k2:VGF3'
p6700
ssbsba(issf_api
Chunk
p6701
(dp6702
g5084
g3992
sg38
I13
sg5141
g4001
sg39
I9
sg5075
(lp6703
I196
asg44
(issf_api
FeatureSet
p6704
(dp6705
g12
(dp6706
S'name'
p6707
g6527
sS'drel'
p6708
S'r6:NP8'
p6709
ssbsba(issf_api
Chunk
p6710
(dp6711
g5084
g4015
sg38
I14
sg5141
g4022
sg39
I9
sg5075
(lp6712
I197
aI198
aI199
asg44
(issf_api
FeatureSet
p6713
(dp6714
g12
(dp6715
S'name'
p6716
g6533
sS'drel'
p6717
S'ccof:CCP4'
p6718
ssbsba(issf_api
Chunk
p6719
(dp6720
g5084
g4070
sg38
I15
sg5141
g4081
sg39
I9
sg5075
(lp6721
I200
aI201
aI202
asg44
(issf_api
FeatureSet
p6722
(dp6723
g12
(dp6724
S'name'
p6725
g6500
sS'drel'
p6726
S'ccof:CCP3'
p6727
ssbsba(issf_api
Chunk
p6728
(dp6729
g5084
g4129
sg38
I16
sg5141
g4134
sg39
I9
sg5075
(lp6730
I203
asg44
(issf_api
FeatureSet
p6731
(dp6732
g12
(dp6733
S'name'
p6734
g6496
sS'drel'
p6735
S'rsym:VGF'
p6736
ssbsbasba(issf_api
Sentence
p6737
(dp6738
g5073
(lp6739
sg39
I10
sg5075
(lp6740
I204
aI205
aI206
aI207
aI208
aI209
aI210
aI211
aI212
aI213
aI214
asg5077
(dp6741
S'VGF'
p6742
(issf_api
Node
p6743
(dp6744
g5082
g5083
sg5084
g6742
sg5085
g5083
sg5086
I-1
sg38
I4
sg5087
(lp6745
S'JJP'
p6746
aS'BLK'
p6747
aS'NP'
p6748
aS'NP3'
p6749
asbsg6746
(issf_api
Node
p6750
(dp6751
g5082
S'pof'
p6752
sg5084
g6746
sg5085
S'VGF'
p6753
sg5086
I-1
sg38
I3
sg5087
(lp6754
sbsg6747
(issf_api
Node
p6755
(dp6756
g5082
S'rsym'
p6757
sg5084
g6747
sg5085
S'VGF'
p6758
sg5086
I-1
sg38
I5
sg5087
(lp6759
sbsg6748
(issf_api
Node
p6760
(dp6761
g5082
S'k1'
p6762
sg5084
g6748
sg5085
S'VGF'
p6763
sg5086
I-1
sg38
I0
sg5087
(lp6764
sbsg6749
(issf_api
Node
p6765
(dp6766
g5082
S'k2'
p6767
sg5084
g6749
sg5085
S'VGF'
p6768
sg5086
I-1
sg38
I2
sg5087
(lp6769
S'NP2'
p6770
asbsg6770
(issf_api
Node
p6771
(dp6772
g5082
S'r6'
p6773
sg5084
g6770
sg5085
S'NP3'
p6774
sg5086
I-1
sg38
I1
sg5087
(lp6775
sbssg5137
(lp6776
(issf_api
Chunk
p6777
(dp6778
g5084
g4150
sg38
I0
sg5141
g4161
sg39
I10
sg5075
(lp6779
I204
aI205
asg44
(issf_api
FeatureSet
p6780
(dp6781
g12
(dp6782
S'name'
p6783
g6748
sS'drel'
p6784
S'k1:VGF'
p6785
ssbsba(issf_api
Chunk
p6786
(dp6787
g5084
g4213
sg38
I1
sg5141
g4224
sg39
I10
sg5075
(lp6788
I206
aI207
aI208
asg44
(issf_api
FeatureSet
p6789
(dp6790
g12
(dp6791
S'name'
p6792
g6770
sS'drel'
p6793
S'r6:NP3'
p6794
ssbsba(issf_api
Chunk
p6795
(dp6796
g5084
g4255
sg38
I2
sg5141
g4260
sg39
I10
sg5075
(lp6797
I209
asg44
(issf_api
FeatureSet
p6798
(dp6799
g12
(dp6800
S'name'
p6801
g6749
sS'drel'
p6802
S'k2:VGF'
p6803
ssbsba(issf_api
Chunk
p6804
(dp6805
g5084
g4274
sg38
I3
sg5141
g4279
sg39
I10
sg5075
(lp6806
I210
asg44
(issf_api
FeatureSet
p6807
(dp6808
g12
(dp6809
S'name'
p6810
g6746
sS'drel'
p6811
S'pof:VGF'
p6812
ssbsba(issf_api
Chunk
p6813
(dp6814
g5084
g4293
sg38
I4
sg5141
g4302
sg39
I10
sg5075
(lp6815
I211
aI212
aI213
asg44
(issf_api
FeatureSet
p6816
(dp6817
g12
(dp6818
S'name'
p6819
g6742
ssbsba(issf_api
Chunk
p6820
(dp6821
g5084
g4350
sg38
I5
sg5141
g4355
sg39
I10
sg5075
(lp6822
I214
asg44
(issf_api
FeatureSet
p6823
(dp6824
g12
(dp6825
S'name'
p6826
g6747
sS'drel'
p6827
S'rsym:VGF'
p6828
ssbsbasba(issf_api
Sentence
p6829
(dp6830
g5073
(lp6831
sg39
I11
sg5075
(lp6832
I215
aI216
aI217
aI218
aI219
aI220
aI221
aI222
aI223
aI224
aI225
aI226
aI227
aI228
aI229
aI230
aI231
aI232
aI233
asg5077
(dp6833
S'NULL__CCP'
p6834
(issf_api
Node
p6835
(dp6836
g5082
g5083
sg5084
g6834
sg5085
g5083
sg5086
I-1
sg38
I-1
sg5087
(lp6837
S'VGF'
p6838
aS'VGF2'
p6839
aS'BLK'
p6840
asbsg6838
(issf_api
Node
p6841
(dp6842
g5082
S'ccof'
p6843
sg5084
g6838
sg5085
S'NULL__CCP'
p6844
sg5086
I-1
sg38
I2
sg5087
(lp6845
S'NP'
p6846
aS'NP2'
p6847
asbsg6839
(issf_api
Node
p6848
(dp6849
g5082
S'ccof'
p6850
sg5084
g6839
sg5085
S'NULL__CCP'
p6851
sg5086
I-1
sg38
I8
sg5087
(lp6852
S'JJP'
p6853
aS'NP4'
p6854
aS'NP6'
p6855
aS'NP3'
p6856
asbsg6853
(issf_api
Node
p6857
(dp6858
g5082
S'pof'
p6859
sg5084
g6853
sg5085
S'VGF2'
p6860
sg5086
I-1
sg38
I7
sg5087
(lp6861
sbsS'NP5'
p6862
(issf_api
Node
p6863
(dp6864
g5082
S'r6'
p6865
sg5084
g6862
sg5085
S'NP6'
p6866
sg5086
I-1
sg38
I5
sg5087
(lp6867
sbsg6840
(issf_api
Node
p6868
(dp6869
g5082
S'rsym'
p6870
sg5084
g6840
sg5085
S'NULL__CCP'
p6871
sg5086
I-1
sg38
I9
sg5087
(lp6872
sbsg6846
(issf_api
Node
p6873
(dp6874
g5082
S'k1'
p6875
sg5084
g6846
sg5085
S'VGF'
p6876
sg5086
I-1
sg38
I0
sg5087
(lp6877
sbsg6854
(issf_api
Node
p6878
(dp6879
g5082
S'rt'
p6880
sg5084
g6854
sg5085
S'VGF2'
p6881
sg5086
I-1
sg38
I4
sg5087
(lp6882
sbsg6855
(issf_api
Node
p6883
(dp6884
g5082
S'k1'
p6885
sg5084
g6855
sg5085
S'VGF2'
p6886
sg5086
I-1
sg38
I6
sg5087
(lp6887
g6862
asbsg6856
(issf_api
Node
p6888
(dp6889
g5082
S'rh'
p6890
sg5084
g6856
sg5085
S'VGF2'
p6891
sg5086
I-1
sg38
I3
sg5087
(lp6892
sbsg6847
(issf_api
Node
p6893
(dp6894
g5082
S'k2'
p6895
sg5084
g6847
sg5085
S'VGF'
p6896
sg5086
I-1
sg38
I1
sg5087
(lp6897
sbssg5137
(lp6898
(issf_api
Chunk
p6899
(dp6900
g5084
g4409
sg38
I0
sg5141
g4418
sg39
I11
sg5075
(lp6901
I215
aI216
aI217
asg44
(issf_api
FeatureSet
p6902
(dp6903
g12
(dp6904
S'name'
p6905
g6846
sS'drel'
p6906
S'k1:VGF'
p6907
ssbsba(issf_api
Chunk
p6908
(dp6909
g5084
g4432
sg38
I1
sg5141
g4439
sg39
I11
sg5075
(lp6910
I218
asg44
(issf_api
FeatureSet
p6911
(dp6912
g12
(dp6913
S'name'
p6914
g6847
sS'drel'
p6915
S'k2:VGF'
p6916
ssbsba(issf_api
Chunk
p6917
(dp6918
g5084
g4453
sg38
I2
sg5141
g4466
sg39
I11
sg5075
(lp6919
I219
aI220
aI221
aI222
asg44
(issf_api
FeatureSet
p6920
(dp6921
g12
(dp6922
S'name'
p6923
g6838
sS'drel'
p6924
S'ccof:NULL__CCP'
p6925
ssbsba(issf_api
Chunk
p6926
(dp6927
g5084
g4540
sg38
I3
sg5141
g4549
sg39
I11
sg5075
(lp6928
I223
asg44
(issf_api
FeatureSet
p6929
(dp6930
g12
(dp6931
S'name'
p6932
g6856
sS'drel'
p6933
S'rh:VGF2'
p6934
ssbsba(issf_api
Chunk
p6935
(dp6936
g5084
g4565
sg38
I4
sg5141
g4576
sg39
I11
sg5075
(lp6937
I224
aI225
aI226
asg44
(issf_api
FeatureSet
p6938
(dp6939
g12
(dp6940
S'name'
p6941
g6854
sS'drel'
p6942
S'rt:VGF2'
p6943
ssbsba(issf_api
Chunk
p6944
(dp6945
g5084
g4626
sg38
I5
sg5141
g4635
sg39
I11
sg5075
(lp6946
I227
asg44
(issf_api
FeatureSet
p6947
(dp6948
g12
(dp6949
S'name'
p6950
g6862
sS'drel'
p6951
S'r6:NP6'
p6952
ssbsba(issf_api
Chunk
p6953
(dp6954
g5084
g4649
sg38
I6
sg5141
g4654
sg39
I11
sg5075
(lp6955
I228
asg44
(issf_api
FeatureSet
p6956
(dp6957
g12
(dp6958
S'name'
p6959
g6855
sS'drel'
p6960
S'k1:VGF2'
p6961
ssbsba(issf_api
Chunk
p6962
(dp6963
g5084
g4668
sg38
I7
sg5141
g4673
sg39
I11
sg5075
(lp6964
I229
asg44
(issf_api
FeatureSet
p6965
(dp6966
g12
(dp6967
S'name'
p6968
g6853
sS'drel'
p6969
S'pof:VGF2'
p6970
ssbsba(issf_api
Chunk
p6971
(dp6972
g5084
g4687
sg38
I8
sg5141
g4698
sg39
I11
sg5075
(lp6973
I230
aI231
aI232
asg44
(issf_api
FeatureSet
p6974
(dp6975
g12
(dp6976
S'name'
p6977
g6839
sS'drel'
p6978
S'ccof:NULL__CCP'
p6979
ssbsba(issf_api
Chunk
p6980
(dp6981
g5084
g4746
sg38
I9
sg5141
g4751
sg39
I11
sg5075
(lp6982
I233
asg44
(issf_api
FeatureSet
p6983
(dp6984
g12
(dp6985
S'name'
p6986
g6840
sS'drel'
p6987
S'rsym:NULL__CCP'
p6988
ssbsbasba(issf_api
Sentence
p6989
(dp6990
g5073
(lp6991
sg39
I12
sg5075
(lp6992
I234
aI235
aI236
aI237
aI238
aI239
aI240
aI241
aI242
aI243
aI244
aI245
aI246
aI247
aI248
aI249
asg5077
(dp6993
S'VGF2'
p6994
(issf_api
Node
p6995
(dp6996
g5082
S'ccof'
p6997
sg5084
g6994
sg5085
S'CCP'
p6998
sg5086
I-1
sg38
I8
sg5087
(lp6999
S'NP3'
p7000
asbsS'VGF'
p7001
(issf_api
Node
p7002
(dp7003
g5082
g5083
sg5084
g7001
sg5085
g5083
sg5086
I-1
sg38
I3
sg5087
(lp7004
S'RBP'
p7005
aS'BLK'
p7006
aS'NP'
p7007
aS'NP2'
p7008
asbsS'CCP'
p7009
(issf_api
Node
p7010
(dp7011
g5082
S'rs'
p7012
sg5084
g7009
sg5085
S'NP2'
p7013
sg5086
I-1
sg38
I4
sg5087
(lp7014
g6994
asbsg7005
(issf_api
Node
p7015
(dp7016
g5082
S'sent-adv'
p7017
sg5084
g7005
sg5085
S'VGF'
p7018
sg5086
I-1
sg38
I0
sg5087
(lp7019
sbsS'NP5'
p7020
(issf_api
Node
p7021
(dp7022
g5082
S'r6'
p7023
sg5084
g7020
sg5085
S'NULL__NP'
p7024
sg5086
I-1
sg38
I7
sg5087
(lp7025
S'NP4'
p7026
asbsg7006
(issf_api
Node
p7027
(dp7028
g5082
S'rsym'
p7029
sg5084
g7006
sg5085
S'VGF'
p7030
sg5086
I-1
sg38
I9
sg5087
(lp7031
sbsS'NULL__NP'
p7032
(issf_api
Node
p7033
(dp7034
g5082
g5083
sg5084
g7032
sg5085
g5083
sg5086
I-1
sg38
I-1
sg5087
(lp7035
g7020
asbsg7007
(issf_api
Node
p7036
(dp7037
g5082
S'k4a'
p7038
sg5084
g7007
sg5085
S'VGF'
p7039
sg5086
I-1
sg38
I1
sg5087
(lp7040
sbsg7026
(issf_api
Node
p7041
(dp7042
g5082
S'r6'
p7043
sg5084
g7026
sg5085
S'NP5'
p7044
sg5086
I-1
sg38
I6
sg5087
(lp7045
sbsg7000
(issf_api
Node
p7046
(dp7047
g5082
S'k1'
p7048
sg5084
g7000
sg5085
S'VGF2'
p7049
sg5086
I-1
sg38
I5
sg5087
(lp7050
sbsg7008
(issf_api
Node
p7051
(dp7052
g5082
S'k1'
p7053
sg5084
g7008
sg5085
S'VGF'
p7054
sg5086
I-1
sg38
I2
sg5087
(lp7055
g7009
asbssg5137
(lp7056
(issf_api
Chunk
p7057
(dp7058
g5084
g4765
sg38
I0
sg5141
g4770
sg39
I12
sg5075
(lp7059
I234
asg44
(issf_api
FeatureSet
p7060
(dp7061
g12
(dp7062
S'name'
p7063
g7005
sS'drel'
p7064
S'sent-adv:VGF'
p7065
ssbsba(issf_api
Chunk
p7066
(dp7067
g5084
g4786
sg38
I1
sg5141
g4797
sg39
I12
sg5075
(lp7068
I235
aI236
asg44
(issf_api
FeatureSet
p7069
(dp7070
g12
(dp7071
S'name'
p7072
g7007
sS'drel'
p7073
S'k4a:VGF'
p7074
ssbsba(issf_api
Chunk
p7075
(dp7076
g5084
g4828
sg38
I2
sg5141
g4833
sg39
I12
sg5075
(lp7077
I237
asg44
(issf_api
FeatureSet
p7078
(dp7079
g12
(dp7080
S'name'
p7081
g7008
sS'drel'
p7082
S'k1:VGF'
p7083
ssbsba(issf_api
Chunk
p7084
(dp7085
g5084
g4847
sg38
I3
sg5141
g4854
sg39
I12
sg5075
(lp7086
I238
asg44
(issf_api
FeatureSet
p7087
(dp7088
g12
(dp7089
S'name'
p7090
g7001
ssbsba(issf_api
Chunk
p7091
(dp7092
g5084
g4868
sg38
I4
sg5141
g4873
sg39
I12
sg5075
(lp7093
I239
asg44
(issf_api
FeatureSet
p7094
(dp7095
g12
(dp7096
S'name'
p7097
g7009
sS'drel'
p7098
S'rs:NP2'
p7099
ssbsba(issf_api
Chunk
p7100
(dp7101
g5084
g4889
sg38
I5
sg5141
g4898
sg39
I12
sg5075
(lp7102
I240
asg44
(issf_api
FeatureSet
p7103
(dp7104
g12
(dp7105
S'name'
p7106
g7000
sS'drel'
p7107
S'k1:VGF2'
p7108
ssbsba(issf_api
Chunk
p7109
(dp7110
g5084
g4912
sg38
I6
sg5141
g4918
sg39
I12
sg5075
(lp7111
I241
aI242
asg44
(issf_api
FeatureSet
p7112
(dp7113
g12
(dp7114
S'name'
p7115
g7026
sS'drel'
p7116
S'r6:NP5'
p7117
ssbsba(issf_api
Chunk
p7118
(dp7119
g5084
g4966
sg38
I7
sg5141
g4973
sg39
I12
sg5075
(lp7120
I243
aI244
aI245
asg44
(issf_api
FeatureSet
p7121
(dp7122
g12
(dp7123
S'name'
p7124
g7020
sS'drel'
p7125
S'r6:NULL__NP'
p7126
ssbsba(issf_api
Chunk
p7127
(dp7128
g5084
g5004
sg38
I8
sg5141
g5015
sg39
I12
sg5075
(lp7129
I246
aI247
aI248
asg44
(issf_api
FeatureSet
p7130
(dp7131
g12
(dp7132
S'name'
p7133
g6994
sS'drel'
p7134
S'ccof:CCP'
p7135
ssbsba(issf_api
Chunk
p7136
(dp7137
g5084
g5063
sg38
I9
sg5141
g5068
sg39
I12
sg5075
(lp7138
I249
asg44
(issf_api
FeatureSet
p7139
(dp7140
g12
(dp7141
S'name'
p7142
g7006
sS'drel'
p7143
S'rsym:VGF'
p7144
ssbsbasbasb.