(issf_api
SSFInfo
p0
(dp1
S'globalWordList'
p2
(lp3
(issf_api
Word
p4
(dp5
S'splitConn'
p6
I00
sS'word'
p7
V\u0926\u093f\u0932\u094d\u0932\u0940
p8
sS'extraFeatureSet'
p9
(issf_api
FeatureSet
p10
(dp11
S'featureDict'
p12
(dp13
S'crefhead'
p14
S'\xe0\xa4\xa6\xe0\xa4\xbf\xe0\xa4\xb2\xe0\xa5\x8d\xe0\xa4\xb2\xe0\xa5\x80:i1'
p15
sS'posn'
p16
S'10'
p17
sS'name'
p18
S'\xe0\xa4\xa6\xe0\xa4\xbf\xe0\xa4\xb2\xe0\xa5\x8d\xe0\xa4\xb2\xe0\xa5\x80'
p19
sS'af'
p20
S'\xe0\xa4\xa6\xe0\xa4\xbf\xe0\xa4\xb2\xe0\xa5\x8d\xe0\xa4\xb2\xe0\xa5\x80,n,f,sg,3,d,0,0'
p21
sS'chunkid'
p22
S'NP'
p23
sS'acrefmod'
p24
S'm1%0:i3'
p25
sS'chunktype'
p26
S'head:NP'
p27
sS'crefchainhead'
p28
S'i1:t1'
p29
sS'cref'
p30
S'i1%1:t1,i2%0:t2'
p31
sS'drel'
p32
S'ccof:CCP'
p33
ssbsS'arg1'
p34
I00
sS'arg2'
p35
I00
sS'sense'
p36
NsS'arg1Span'
p37
NsS'chunkNum'
p38
I0
sS'sentenceNum'
p39
I0
sS'relationNum'
p40
NsS'arg2Span'
p41
NsS'wordTag'
p42
S'NNP'
p43
sS'featureSet'
p44
g10
sS'conn'
p45
I00
sba(issf_api
Word
p46
(dp47
g6
I00
sg7
V\u0914\u0930
p48
sg9
(issf_api
FeatureSet
p49
(dp50
g12
(dp51
S'posn'
p52
S'20'
p53
sS'name'
p54
S'\xe0\xa4\x94\xe0\xa4\xb0'
p55
sS'af'
p56
S'\xe0\xa4\x94\xe0\xa4\xb0,avy,,,,,,'
p57
sS'chunkid'
p58
S'CCP'
p59
sS'acrefmod'
p60
S'm1%0:i3'
p61
sS'drel'
p62
S'nmod:NP3'
p63
sS'chunktype'
p64
S'head:CCP'
p65
sS'cref'
p66
S'i2%0:t2'
p67
ssbsg34
I00
sg35
I00
sg36
Nsg37
Nsg38
I1
sg39
I0
sg40
Nsg41
Nsg42
S'CC'
p68
sg44
g49
sg45
I00
sba(issf_api
Word
p69
(dp70
g6
I00
sg7
V\u092e\u0941\u0902\u092c\u0908
p71
sg9
(issf_api
FeatureSet
p72
(dp73
g12
(dp74
S'crefhead'
p75
S'\xe0\xa4\xae\xe0\xa5\x81\xe0\xa4\x82\xe0\xa4\xac\xe0\xa4\x88:i4'
p76
sS'posn'
p77
S'30'
p78
sS'name'
p79
S'\xe0\xa4\xae\xe0\xa5\x81\xe0\xa4\x82\xe0\xa4\xac\xe0\xa4\x88'
p80
sS'af'
p81
S'\xe0\xa4\xae\xe0\xa5\x81\xe0\xa4\x82\xe0\xa4\xac\xe0\xa4\x88,n,f,sg,3,d,0,0'
p82
sS'chunkid'
p83
S'NP2'
p84
sS'acrefmod'
p85
S'm1%0:i3'
p86
sS'chunktype'
p87
S'head:NP2'
p88
sS'crefchainhead'
p89
S'i4:t3'
p90
sS'cref'
p91
S'i4%1:t3,i2%0:t2'
p92
sS'drel'
p93
S'ccof:CCP'
p94
ssbsg34
I00
sg35
I00
sg36
Nsg37
Nsg38
I2
sg39
I0
sg40
Nsg41
Nsg42
S'NNP'
p95
sg44
g72
sg45
I00
sba(issf_api
Word
p96
(dp97
g6
I00
sg7
V\u0939\u0935\u093e\u0908
p98
sg9
(issf_api
FeatureSet
p99
(dp100
g12
(dp101
S'posn'
p102
S'40'
p103
sS'name'
p104
S'\xe0\xa4\xb9\xe0\xa4\xb5\xe0\xa4\xbe\xe0\xa4\x88'
p105
sS'af'
p106
S'\xe0\xa4\xb9\xe0\xa4\xb5\xe0\xa4\xbe\xe0\xa4\x88,adj,any,any,,o,,'
p107
sS'acrefmod'
p108
S'm1%0:i3'
p109
sS'drel'
p110
S'pof__cn:NP3'
p111
sS'chunktype'
p112
S'child:NP3'
p113
sS'cref'
p114
S'i2%0:t2'
p115
ssbsg34
I00
sg35
I00
sg36
Nsg37
Nsg38
I3
sg39
I0
sg40
Nsg41
Nsg42
S'NNC'
p116
sg44
g99
sg45
I00
sba(issf_api
Word
p117
(dp118
g6
I00
sg7
V\u0905\u0921\u094d\u0921\u094b\u0902
p119
sg9
(issf_api
FeatureSet
p120
(dp121
g12
(dp122
S'crefhead'
p123
S'\xe0\xa4\x85\xe0\xa4\xa1\xe0\xa5\x8d\xe0\xa4\xa1\xe0\xa5\x8b\xe0\xa4\x82:i2'
p124
sS'posn'
p125
S'50'
p126
sS'name'
p127
S'\xe0\xa4\x85\xe0\xa4\xa1\xe0\xa5\x8d\xe0\xa4\xa1\xe0\xa5\x8b\xe0\xa4\x82'
p128
sS'af'
p129
S'\xe0\xa4\x85\xe0\xa4\xa1\xe0\xa5\x8d\xe0\xa4\xa1\xe0\xa4\xbe,n,m,pl,3,o,0_\xe0\xa4\x95\xe0\xa4\xbe,0'
p130
sS'acrefmodhead'
p131
S'\xe0\xa4\x85\xe0\xa4\xa1\xe0\xa5\x8d\xe0\xa4\xa1\xe0\xa5\x8b\xe0\xa4\x82:m1'
p132
sS'chunkid'
p133
S'NP3'
p134
sS'acrefmod'
p135
S'm1%1:i3'
p136
sS'chunktype'
p137
S'head:NP3'
p138
sS'crefchainhead'
p139
S'i2:t2'
p140
sS'vpos'
p141
S'vib_3'
p142
sS'cref'
p143
S'i2%1:t2'
p144
sS'drel'
p145
S'r6:NP4'
p146
ssbsg34
I00
sg35
I00
sg36
Nsg37
Nsg38
I3
sg39
I0
sg40
Nsg41
Nsg42
S'NN'
p147
sg44
g120
sg45
I00
sba(issf_api
Word
p148
(dp149
g6
I00
sg7
V\u0915\u0947
p150
sg9
(issf_api
FeatureSet
p151
(dp152
g12
(dp153
S'posn'
p154
S'60'
p155
sS'name'
p156
S'\xe0\xa4\x95\xe0\xa5\x87'
p157
sS'drel'
p158
S'lwg__psp:NP3'
p159
sS'chunktype'
p160
S'child:NP3'
p161
sS'af'
p162
S'\xe0\xa4\x95\xe0\xa4\xbe,psp,m,sg,,o,,'
p163
ssbsg34
I00
sg35
I00
sg36
Nsg37
Nsg38
I3
sg39
I0
sg40
Nsg41
Nsg42
S'PSP'
p164
sg44
g151
sg45
I00
sba(issf_api
Word
p165
(dp166
g6
I00
sg7
V\u0906\u0927\u0941\u0928\u093f\u0915\u0940\u0915\u0930\u0923
p167
sg9
(issf_api
FeatureSet
p168
(dp169
g12
(dp170
S'crefhead'
p171
S'\xe0\xa4\x86\xe0\xa4\xa7\xe0\xa5\x81\xe0\xa4\xa8\xe0\xa4\xbf\xe0\xa4\x95\xe0\xa5\x80\xe0\xa4\x95\xe0\xa4\xb0\xe0\xa4\xa3:i3'
p172
sS'posn'
p173
S'70'
p174
sS'name'
p175
S'\xe0\xa4\x86\xe0\xa4\xa7\xe0\xa5\x81\xe0\xa4\xa8\xe0\xa4\xbf\xe0\xa4\x95\xe0\xa5\x80\xe0\xa4\x95\xe0\xa4\xb0\xe0\xa4\xa3'
p176
sS'af'
p177
S'\xe0\xa4\x86\xe0\xa4\xa7\xe0\xa5\x81\xe0\xa4\xa8\xe0\xa4\xbf\xe0\xa4\x95\xe0\xa5\x80\xe0\xa4\x95\xe0\xa4\xb0\xe0\xa4\xa3,n,m,sg,3,o,0_\xe0\xa4\xae\xe0\xa5\x87\xe0\xa4\x82,0'
p178
sS'chunkid'
p179
S'NP4'
p180
sS'crefmod'
p181
S'm1:i3'
p182
sS'chunktype'
p183
S'head:NP4'
p184
sS'vpos'
p185
S'vib_2'
p186
sS'cref'
p187
S'i3%1:t4'
p188
sS'drel'
p189
S'k7:VGF'
p190
ssbsg34
I00
sg35
I00
sg36
Nsg37
Nsg38
I4
sg39
I0
sg40
Nsg41
Nsg42
S'NN'
p191
sg44
g168
sg45
I00
sba(issf_api
Word
p192
(dp193
g6
I00
sg7
V\u092e\u0947\u0902
p194
sg9
(issf_api
FeatureSet
p195
(dp196
g12
(dp197
S'posn'
p198
S'80'
p199
sS'name'
p200
S'\xe0\xa4\xae\xe0\xa5\x87\xe0\xa4\x82'
p201
sS'drel'
p202
S'lwg__psp:NP4'
p203
sS'chunktype'
p204
S'child:NP4'
p205
sS'af'
p206
S'\xe0\xa4\xae\xe0\xa5\x87\xe0\xa4\x82,psp,,,,,,'
p207
ssbsg34
I00
sg35
I00
sg36
Nsg37
Nsg38
I4
sg39
I0
sg40
Nsg41
Nsg42
S'PSP'
p208
sg44
g195
sg45
I00
sba(issf_api
Word
p209
(dp210
g6
I00
sg7
V\u092a\u094d\u0930\u0924\u094d\u092f\u0915\u094d\u0937
p211
sg9
(issf_api
FeatureSet
p212
(dp213
g12
(dp214
S'posn'
p215
S'90'
p216
sS'name'
p217
S'\xe0\xa4\xaa\xe0\xa5\x8d\xe0\xa4\xb0\xe0\xa4\xa4\xe0\xa5\x8d\xe0\xa4\xaf\xe0\xa4\x95\xe0\xa5\x8d\xe0\xa4\xb7'
p218
sS'drel'
p219
S'nmod__adj:NP5'
p220
sS'chunktype'
p221
S'child:NP5'
p222
sS'af'
p223
S'\xe0\xa4\xaa\xe0\xa5\x8d\xe0\xa4\xb0\xe0\xa4\xa4\xe0\xa5\x8d\xe0\xa4\xaf\xe0\xa4\x95\xe0\xa5\x8d\xe0\xa4\xb7,adj,any,any,,o,,'
p224
ssbsg34
I00
sg35
I00
sg36
Nsg37
Nsg38
I5
sg39
I0
sg40
Nsg41
Nsg42
S'JJ'
p225
sg44
g212
sg45
I00
sba(issf_api
Word
p226
(dp227
g6
I00
sg7
V\u0935\u093f\u0926\u0947\u0936\u0940
p228
sg9
(issf_api
FeatureSet
p229
(dp230
g12
(dp231
S'posn'
p232
S'90'
p233
sS'name'
p234
S'\xe0\xa4\xb5\xe0\xa4\xbf\xe0\xa4\xa6\xe0\xa5\x87\xe0\xa4\xb6\xe0\xa5\x80'
p235
sS'drel'
p236
S'nmod__adj:NP5'
p237
sS'chunktype'
p238
S'child:NP5'
p239
sS'af'
p240
S'\xe0\xa4\xb5\xe0\xa4\xbf\xe0\xa4\xa6\xe0\xa5\x87\xe0\xa4\xb6\xe0\xa5\x80,adj,any,any,,o,,'
p241
ssbsg34
I00
sg35
I00
sg36
Nsg37
Nsg38
I5
sg39
I0
sg40
Nsg41
Nsg42
S'JJ'
p242
sg44
g229
sg45
I00
sba(issf_api
Word
p243
(dp244
g6
I00
sg7
V\u0928\u093f\u0935\u0947\u0936
p245
sg9
(issf_api
FeatureSet
p246
(dp247
g12
(dp248
S'posn'
p249
S'110'
p250
sS'name'
p251
S'\xe0\xa4\xa8\xe0\xa4\xbf\xe0\xa4\xb5\xe0\xa5\x87\xe0\xa4\xb6'
p252
sS'af'
p253
S'\xe0\xa4\xa8\xe0\xa4\xbf\xe0\xa4\xb5\xe0\xa5\x87\xe0\xa4\xb6,n,m,sg,3,o,0_\xe0\xa4\x95\xe0\xa4\xbe,0'
p254
sS'chunkid'
p255
S'NP5'
p256
sS'drel'
p257
S'r6:NP6'
p258
sS'vpos'
p259
S'vib_4'
p260
sS'chunktype'
p261
S'head:NP5'
p262
ssbsg34
I00
sg35
I00
sg36
Nsg37
Nsg38
I5
sg39
I0
sg40
Nsg41
Nsg42
S'NN'
p263
sg44
g246
sg45
I00
sba(issf_api
Word
p264
(dp265
g6
I00
sg7
V\u0915\u0940
p266
sg9
(issf_api
FeatureSet
p267
(dp268
g12
(dp269
S'posn'
p270
S'120'
p271
sS'name'
p272
S'\xe0\xa4\x95\xe0\xa5\x80'
p273
sS'drel'
p274
S'lwg__psp:NP5'
p275
sS'chunktype'
p276
S'child:NP5'
p277
sS'af'
p278
S'\xe0\xa4\x95\xe0\xa4\xbe,psp,f,sg,,d,,'
p279
ssbsg34
I00
sg35
I00
sg36
Nsg37
Nsg38
I5
sg39
I0
sg40
Nsg41
Nsg42
S'PSP'
p280
sg44
g267
sg45
I00
sba(issf_api
Word
p281
(dp282
g6
I00
sg7
V\u0938\u0940\u092e\u093e
p283
sg9
(issf_api
FeatureSet
p284
(dp285
g12
(dp286
S'posn'
p287
S'130'
p288
sS'name'
p289
S'\xe0\xa4\xb8\xe0\xa5\x80\xe0\xa4\xae\xe0\xa4\xbe'
p290
sS'af'
p291
S'\xe0\xa4\xb8\xe0\xa5\x80\xe0\xa4\xae\xe0\xa4\xbe,n,f,sg,3,d,0,0'
p292
sS'chunkid'
p293
S'NP6'
p294
sS'drel'
p295
S'k2:VGNF'
p296
sS'chunktype'
p297
S'head:NP6'
p298
ssbsg34
I00
sg35
I00
sg36
Nsg37
Nsg38
I6
sg39
I0
sg40
Nsg41
Nsg42
S'NN'
p299
sg44
g284
sg45
I00
sba(issf_api
Word
p300
(dp301
g6
I00
sg7
V\u096d\u096a
p302
sg9
(issf_api
FeatureSet
p303
(dp304
g12
(dp305
S'posn'
p306
S'140'
p307
sS'name'
p308
S'\xe0\xa5\xad\xe0\xa5\xaa'
p309
sS'drel'
p310
S'nmod__adj:NP7'
p311
sS'chunktype'
p312
S'child:NP7'
p313
sS'af'
p314
S'\xe0\xa5\xad\xe0\xa5\xaa,num,any,any,,any,,'
p315
ssbsg34
I00
sg35
I00
sg36
Nsg37
Nsg38
I7
sg39
I0
sg40
Nsg41
Nsg42
S'QC'
p316
sg44
g303
sg45
I00
sba(issf_api
Word
p317
(dp318
g6
I00
sg7
V\u092a\u094d\u0930\u0924\u093f\u0936\u0924
p319
sg9
(issf_api
FeatureSet
p320
(dp321
g12
(dp322
S'posn'
p323
S'150'
p324
sS'name'
p325
S'\xe0\xa4\xaa\xe0\xa5\x8d\xe0\xa4\xb0\xe0\xa4\xa4\xe0\xa4\xbf\xe0\xa4\xb6\xe0\xa4\xa4'
p326
sS'af'
p327
S'\xe0\xa4\xaa\xe0\xa5\x8d\xe0\xa4\xb0\xe0\xa4\xa4\xe0\xa4\xbf\xe0\xa4\xb6\xe0\xa4\xa4,n,m,sg,3,o,0_\xe0\xa4\xb8\xe0\xa5\x87,0'
p328
sS'chunkid'
p329
S'NP7'
p330
sS'drel'
p331
S'k5:VGNF'
p332
sS'vpos'
p333
S'vib_3'
p334
sS'chunktype'
p335
S'head:NP7'
p336
ssbsg34
I00
sg35
I00
sg36
Nsg37
Nsg38
I7
sg39
I0
sg40
Nsg41
Nsg42
S'NN'
p337
sg44
g320
sg45
I00
sba(issf_api
Word
p338
(dp339
g6
I00
sg7
V\u0938\u0947
p340
sg9
(issf_api
FeatureSet
p341
(dp342
g12
(dp343
S'posn'
p344
S'160'
p345
sS'name'
p346
S'\xe0\xa4\xb8\xe0\xa5\x87'
p347
sS'drel'
p348
S'lwg__psp:NP7'
p349
sS'chunktype'
p350
S'child:NP7'
p351
sS'af'
p352
S'\xe0\xa4\xb8\xe0\xa5\x87,psp,,,,,,'
p353
ssbsg34
I00
sg35
I00
sg36
Nsg37
Nsg38
I7
sg39
I0
sg40
Nsg41
Nsg42
S'PSP'
p354
sg44
g341
sg45
I00
sba(issf_api
Word
p355
(dp356
g6
I00
sg7
V\u0918\u091f\u093e\u0915\u0930
p357
sg9
(issf_api
FeatureSet
p358
(dp359
g12
(dp360
S'posn'
p361
S'170'
p362
sS'name'
p363
S'\xe0\xa4\x98\xe0\xa4\x9f\xe0\xa4\xbe\xe0\xa4\x95\xe0\xa4\xb0'
p364
sS'af'
p365
S'\xe0\xa4\x98\xe0\xa4\x9f\xe0\xa4\xbe,v,any,any,any,,\xe0\xa4\x95\xe0\xa4\xb0,kara'
p366
sS'chunkid'
p367
S'VGNF'
p368
sS'drel'
p369
S'vmod:VGF'
p370
sS'chunktype'
p371
S'head:VGNF'
p372
ssbsg34
I00
sg35
I00
sg36
Nsg37
Nsg38
I8
sg39
I0
sg40
Nsg41
Nsg42
S'VM'
p373
sg44
g358
sg45
I00
sba(issf_api
Word
p374
(dp375
g6
I00
sg7
V\u096a\u096f
p376
sg9
(issf_api
FeatureSet
p377
(dp378
g12
(dp379
S'posn'
p380
S'180'
p381
sS'name'
p382
S'\xe0\xa5\xaa\xe0\xa5\xaf'
p383
sS'af'
p384
S'\xe0\xa5\xaa\xe0\xa5\xaf,num,any,any,,any,,'
p385
sS'chunkid'
p386
S'NP8'
p387
sS'drel'
p388
S'k2:VGNN'
p389
sS'chunktype'
p390
S'head:NP8'
p391
ssbsg34
I00
sg35
I00
sg36
Nsg37
Nsg38
I9
sg39
I0
sg40
Nsg41
Nsg42
S'QC'
p392
sg44
g377
sg45
I00
sba(issf_api
Word
p393
(dp394
g6
I00
sg7
V\u0915\u0930\u0928\u0947
p395
sg9
(issf_api
FeatureSet
p396
(dp397
g12
(dp398
S'posn'
p399
S'190'
p400
sS'name'
p401
S'\xe0\xa4\x95\xe0\xa4\xb0\xe0\xa4\xa8\xe0\xa5\x87'
p402
sS'af'
p403
S'\xe0\xa4\x95\xe0\xa4\xb0,v,any,any,any,o,\xe0\xa4\xa8\xe0\xa4\xbe_\xe0\xa4\x95\xe0\xa5\x8b,nA'
p404
sS'chunkid'
p405
S'VGNN'
p406
sS'drel'
p407
S'rt:VGF'
p408
sS'vpos'
p409
S'tam_2'
p410
sS'chunktype'
p411
S'head:VGNN'
p412
ssbsg34
I00
sg35
I00
sg36
Nsg37
Nsg38
I10
sg39
I0
sg40
Nsg41
Nsg42
S'VM'
p413
sg44
g396
sg45
I00
sba(issf_api
Word
p414
(dp415
g6
I00
sg7
V\u0915\u094b
p416
sg9
(issf_api
FeatureSet
p417
(dp418
g12
(dp419
S'posn'
p420
S'200'
p421
sS'name'
p422
S'\xe0\xa4\x95\xe0\xa5\x8b'
p423
sS'drel'
p424
S'lwg__psp:VGNN'
p425
sS'chunktype'
p426
S'child:VGNN'
p427
sS'af'
p428
S'\xe0\xa4\x95\xe0\xa5\x8b,psp,,,,,,'
p429
ssbsg34
I00
sg35
I00
sg36
Nsg37
Nsg38
I10
sg39
I0
sg40
Nsg41
Nsg42
S'PSP'
p430
sg44
g417
sg45
I00
sba(issf_api
Word
p431
(dp432
g6
I00
sg7
V\u092e\u0902\u0924\u094d\u0930\u093f\u092f\u094b\u0902
p433
sg9
(issf_api
FeatureSet
p434
(dp435
g12
(dp436
S'posn'
p437
S'210'
p438
sS'name'
p439
S'\xe0\xa4\xae\xe0\xa4\x82\xe0\xa4\xa4\xe0\xa5\x8d\xe0\xa4\xb0\xe0\xa4\xbf\xe0\xa4\xaf\xe0\xa5\x8b\xe0\xa4\x82'
p440
sS'af'
p441
S'\xe0\xa4\xae\xe0\xa4\x82\xe0\xa4\xa4\xe0\xa5\x8d\xe0\xa4\xb0\xe0\xa5\x80,n,m,pl,3,o,0_\xe0\xa4\x95\xe0\xa4\xbe,0'
p442
sS'acrefmodhead'
p443
S'\xe0\xa4\xae\xe0\xa4\x82\xe0\xa4\xa4\xe0\xa5\x8d\xe0\xa4\xb0\xe0\xa4\xbf\xe0\xa4\xaf\xe0\xa5\x8b\xe0\xa4\x82:m2'
p444
sS'chunkid'
p445
S'NP9'
p446
sS'acrefmod'
p447
S'm2%1:i5'
p448
sS'drel'
p449
S'r6:NP10'
p450
sS'vpos'
p451
S'vib_2'
p452
sS'chunktype'
p453
S'head:NP9'
p454
ssbsg34
I00
sg35
I00
sg36
Nsg37
Nsg38
I11
sg39
I0
sg40
Nsg41
Nsg42
S'NN'
p455
sg44
g434
sg45
I00
sba(issf_api
Word
p456
(dp457
g6
I00
sg7
V\u0915\u0947
p458
sg9
(issf_api
FeatureSet
p459
(dp460
g12
(dp461
S'posn'
p462
S'220'
p463
sS'name'
p464
S'\xe0\xa4\x95\xe0\xa5\x872'
p465
sS'drel'
p466
S'lwg__psp:NP9'
p467
sS'chunktype'
p468
S'child:NP9'
p469
sS'af'
p470
S'\xe0\xa4\x95\xe0\xa4\xbe,psp,m,sg,,o,,'
p471
ssbsg34
I00
sg35
I00
sg36
Nsg37
Nsg38
I11
sg39
I0
sg40
Nsg41
Nsg42
S'PSP'
p472
sg44
g459
sg45
I00
sba(issf_api
Word
p473
(dp474
g6
I00
sg7
V\u0938\u092e\u0942\u0939
p475
sg9
(issf_api
FeatureSet
p476
(dp477
g12
(dp478
S'crefhead'
p479
S'\xe0\xa4\xb8\xe0\xa4\xae\xe0\xa5\x82\xe0\xa4\xb9:i5'
p480
sS'posn'
p481
S'230'
p482
sS'name'
p483
S'\xe0\xa4\xb8\xe0\xa4\xae\xe0\xa5\x82\xe0\xa4\xb9'
p484
sS'af'
p485
S'\xe0\xa4\xb8\xe0\xa4\xae\xe0\xa5\x82\xe0\xa4\xb9,n,m,sg,3,o,0,0'
p486
sS'chunkid'
p487
S'NP10'
p488
sS'crefmod'
p489
S'm2:i5'
p490
sS'chunktype'
p491
S'head:NP10'
p492
sS'crefchainhead'
p493
S'i5:t5'
p494
sS'cref'
p495
S'i5%1:t5'
p496
sS'drel'
p497
S'k1:VGF'
p498
ssbsg34
I00
sg35
I00
sg36
Nsg37
Nsg38
I12
sg39
I0
sg40
Nsg41
Nsg42
S'NN'
p499
sg44
g476
sg45
I00
sba(issf_api
Word
p500
(dp501
g6
I00
sg7
V(
p502
sg9
(issf_api
FeatureSet
p503
(dp504
g12
(dp505
S'posn'
p506
S'240'
p507
sS'name'
p508
S'('
p509
sS'drel'
p510
S'rsym:NP11'
p511
sS'chunktype'
p512
S'child:NP11'
p513
sS'af'
p514
S'(,punc,,,,,,'
p515
ssbsg34
I00
sg35
I00
sg36
Nsg37
Nsg38
I13
sg39
I0
sg40
Nsg41
Nsg42
S'SYM'
p516
sg44
g503
sg45
I00
sba(issf_api
Word
p517
(dp518
g6
I00
sg7
V\u091c\u0940\u0913\u090f\u092e
p519
sg9
(issf_api
FeatureSet
p520
(dp521
g12
(dp522
S'crefhead'
p523
S'\xe0\xa4\x9c\xe0\xa5\x80\xe0\xa4\x93\xe0\xa4\x8f\xe0\xa4\xae:i6'
p524
sS'posn'
p525
S'250'
p526
sS'name'
p527
S'\xe0\xa4\x9c\xe0\xa5\x80\xe0\xa4\x93\xe0\xa4\x8f\xe0\xa4\xae'
p528
sS'af'
p529
S'\xe0\xa4\x9c\xe0\xa5\x80\xe0\xa4\x93\xe0\xa4\x8f\xe0\xa4\xae,n,m,sg,3,o,0,0'
p530
sS'chunkid'
p531
S'NP11'
p532
sS'creftype'
p533
S'Coreference-Noun-Noun:i5'
p534
sS'chunktype'
p535
S'head:NP11'
p536
sS'cref'
p537
S'i6%1:t5'
p538
sS'drel'
p539
S'rs:NP10'
p540
ssbsg34
I00
sg35
I00
sg36
Nsg37
Nsg38
I13
sg39
I0
sg40
Nsg41
Nsg42
S'NNP'
p541
sg44
g520
sg45
I00
sba(issf_api
Word
p542
(dp543
g6
I00
sg7
V)
p544
sg9
(issf_api
FeatureSet
p545
(dp546
g12
(dp547
S'posn'
p548
S'260'
p549
sS'name'
p550
S')'
p551
sS'drel'
p552
S'rsym:NP11'
p553
sS'chunktype'
p554
S'child:NP11'
p555
sS'af'
p556
S'),punc,,,,,,'
p557
ssbsg34
I00
sg35
I00
sg36
Nsg37
Nsg38
I13
sg39
I0
sg40
Nsg41
Nsg42
S'SYM'
p558
sg44
g545
sg45
I00
sba(issf_api
Word
p559
(dp560
g6
I00
sg7
V\u0928\u0947
p561
sg9
(issf_api
FeatureSet
p562
(dp563
g12
(dp564
S'name'
p565
S'\xe0\xa4\xa8\xe0\xa5\x87'
p566
sS'drel'
p567
S'fragof:NP10'
p568
sS'chunktype'
p569
S'head:FRAGP'
p570
sS'chunkid'
p571
S'FRAGP'
p572
ssbsg34
I00
sg35
I00
sg36
Nsg37
Nsg38
I14
sg39
I0
sg40
Nsg41
Nsg42
S'PSP'
p573
sg44
g562
sg45
I00
sba(issf_api
Word
p574
(dp575
g6
I00
sg7
V\u0938\u094b\u092e\u0935\u093e\u0930
p576
sg9
(issf_api
FeatureSet
p577
(dp578
g12
(dp579
S'posn'
p580
S'280'
p581
sS'name'
p582
S'\xe0\xa4\xb8\xe0\xa5\x8b\xe0\xa4\xae\xe0\xa4\xb5\xe0\xa4\xbe\xe0\xa4\xb0'
p583
sS'af'
p584
S'\xe0\xa4\xb8\xe0\xa5\x8b\xe0\xa4\xae\xe0\xa4\xb5\xe0\xa4\xbe\xe0\xa4\xb0,n,m,sg,3,o,0_\xe0\xa4\x95\xe0\xa5\x8b,0'
p585
sS'chunkid'
p586
S'NP12'
p587
sS'drel'
p588
S'k7t:VGF'
p589
sS'vpos'
p590
S'vib_2'
p591
sS'chunktype'
p592
S'head:NP12'
p593
ssbsg34
I00
sg35
I00
sg36
Nsg37
Nsg38
I15
sg39
I0
sg40
Nsg41
Nsg42
S'NNP'
p594
sg44
g577
sg45
I00
sba(issf_api
Word
p595
(dp596
g6
I00
sg7
V\u0915\u094b
p597
sg9
(issf_api
FeatureSet
p598
(dp599
g12
(dp600
S'posn'
p601
S'290'
p602
sS'name'
p603
S'\xe0\xa4\x95\xe0\xa5\x8b2'
p604
sS'drel'
p605
S'lwg__psp:NP12'
p606
sS'chunktype'
p607
S'child:NP12'
p608
sS'af'
p609
S'\xe0\xa4\x95\xe0\xa5\x8b,psp,,,,,,'
p610
ssbsg34
I00
sg35
I00
sg36
Nsg37
Nsg38
I15
sg39
I0
sg40
Nsg41
Nsg42
S'PSP'
p611
sg44
g598
sg45
I00
sba(issf_api
Word
p612
(dp613
g6
I00
sg7
V\u092e\u0902\u091c\u0942\u0930\u0940
p614
sg9
(issf_api
FeatureSet
p615
(dp616
g12
(dp617
S'posn'
p618
S'300'
p619
sS'name'
p620
S'\xe0\xa4\xae\xe0\xa4\x82\xe0\xa4\x9c\xe0\xa5\x82\xe0\xa4\xb0\xe0\xa5\x80'
p621
sS'af'
p622
S'\xe0\xa4\xae\xe0\xa4\x82\xe0\xa4\x9c\xe0\xa5\x82\xe0\xa4\xb0\xe0\xa5\x80,n,f,sg,3,d,0,0'
p623
sS'chunkid'
p624
S'NP13'
p625
sS'drel'
p626
S'pof:VGF'
p627
sS'chunktype'
p628
S'head:NP13'
p629
ssbsg34
I00
sg35
I00
sg36
Nsg37
Nsg38
I16
sg39
I0
sg40
Nsg41
Nsg42
S'NN'
p630
sg44
g615
sg45
I00
sba(issf_api
Word
p631
(dp632
g6
I00
sg7
V\u0926\u0947
p633
sg9
(issf_api
FeatureSet
p634
(dp635
g12
(dp636
S'posn'
p637
S'310'
p638
sS'name'
p639
S'\xe0\xa4\xa6\xe0\xa5\x87'
p640
sS'af'
p641
S'\xe0\xa4\xa6\xe0\xa5\x87,v,any,sg,any,,0_\xe0\xa4\xa6\xe0\xa5\x87+\xe0\xa4\xaf\xe0\xa4\xbe,0'
p642
sS'chunkid'
p643
S'VGF'
p644
sS'chunktype'
p645
S'head:VGF'
p646
sS'voicetype'
p647
S'active'
p648
sS'vpos'
p649
S'tam_2'
p650
sS'stype'
p651
S'declarative'
p652
ssbsg34
I00
sg35
I00
sg36
Nsg37
Nsg38
I17
sg39
I0
sg40
Nsg41
Nsg42
S'VM'
p653
sg44
g634
sg45
I00
sba(issf_api
Word
p654
(dp655
g6
I00
sg7
V\u0926\u0940
p656
sg9
(issf_api
FeatureSet
p657
(dp658
g12
(dp659
S'posn'
p660
S'320'
p661
sS'name'
p662
S'\xe0\xa4\xa6\xe0\xa5\x80'
p663
sS'drel'
p664
S'lwg__vaux:VGF'
p665
sS'chunktype'
p666
S'child:VGF'
p667
sS'af'
p668
S'\xe0\xa4\xa6\xe0\xa5\x87,v,f,sg,any,,\xe0\xa4\xaf\xe0\xa4\xbe,yA'
p669
ssbsg34
I00
sg35
I00
sg36
Nsg37
Nsg38
I17
sg39
I0
sg40
Nsg41
Nsg42
S'VAUX'
p670
sg44
g657
sg45
I00
sba(issf_api
Word
p671
(dp672
g6
I00
sg7
V\u0964
p673
sg9
(issf_api
FeatureSet
p674
(dp675
g12
(dp676
S'posn'
p677
S'330'
p678
sS'name'
p679
S'\xe0\xa5\xa4'
p680
sS'af'
p681
S'\xe0\xa5\xa4,punc,,,,,,'
p682
sS'chunkid'
p683
S'BLK'
p684
sS'drel'
p685
S'rsym:VGF'
p686
sS'chunktype'
p687
S'head:BLK'
p688
ssbsg34
I00
sg35
I00
sg36
Nsg37
Nsg38
I18
sg39
I0
sg40
Nsg41
Nsg42
S'SYM'
p689
sg44
g674
sg45
I00
sba(issf_api
Word
p690
(dp691
g6
I00
sg7
V\u0930\u0915\u094d\u0937\u093e
p692
sg9
(issf_api
FeatureSet
p693
(dp694
g12
(dp695
S'posn'
p696
S'10'
p697
sS'name'
p698
S'\xe0\xa4\xb0\xe0\xa4\x95\xe0\xa5\x8d\xe0\xa4\xb7\xe0\xa4\xbe'
p699
sS'af'
p700
S'\xe0\xa4\xb0\xe0\xa4\x95\xe0\xa5\x8d\xe0\xa4\xb7\xe0\xa4\xbe,n,f,sg,3,d,0,0'
p701
sS'drel'
p702
S'pof__cn:NP'
p703
sS'chunktype'
p704
S'child:NP'
p705
sS'cref'
p706
S'i7%0:t6'
p707
ssbsg34
I00
sg35
I00
sg36
Nsg37
Nsg38
I0
sg39
I1
sg40
Nsg41
Nsg42
S'NNPC'
p708
sg44
g693
sg45
I00
sba(issf_api
Word
p709
(dp710
g6
I00
sg7
V\u092e\u0902\u0924\u094d\u0930\u0940
p711
sg9
(issf_api
FeatureSet
p712
(dp713
g12
(dp714
S'crefhead'
p715
S'\xe0\xa4\xae\xe0\xa4\x82\xe0\xa4\xa4\xe0\xa5\x8d\xe0\xa4\xb0\xe0\xa5\x80:i7'
p716
sS'posn'
p717
S'20'
p718
sS'name'
p719
S'\xe0\xa4\xae\xe0\xa4\x82\xe0\xa4\xa4\xe0\xa5\x8d\xe0\xa4\xb0\xe0\xa5\x80'
p720
sS'af'
p721
S'\xe0\xa4\xae\xe0\xa4\x82\xe0\xa4\xa4\xe0\xa5\x8d\xe0\xa4\xb0\xe0\xa5\x80,n,m,sg,3,d,0,0'
p722
sS'drel'
p723
S'nmod__adj:NP'
p724
sS'chunktype'
p725
S'child:NP'
p726
sS'cref'
p727
S'i7%1:t6'
p728
ssbsg34
I00
sg35
I00
sg36
Nsg37
Nsg38
I0
sg39
I1
sg40
Nsg41
Nsg42
S'NNP'
p729
sg44
g712
sg45
I00
sba(issf_api
Word
p730
(dp731
g6
I00
sg7
V\u092a\u094d\u0930\u0923\u0935
p732
sg9
(issf_api
FeatureSet
p733
(dp734
g12
(dp735
S'posn'
p736
S'30'
p737
sS'name'
p738
S'\xe0\xa4\xaa\xe0\xa5\x8d\xe0\xa4\xb0\xe0\xa4\xa3\xe0\xa4\xb5'
p739
sS'af'
p740
S'\xe0\xa4\xaa\xe0\xa5\x8d\xe0\xa4\xb0\xe0\xa4\xa3\xe0\xa4\xb5,n,m,sg,3,d,0,0'
p741
sS'drel'
p742
S'pof__cn:NP'
p743
sS'chunktype'
p744
S'child:NP'
p745
sS'cref'
p746
S'i8%0:t6'
p747
ssbsg34
I00
sg35
I00
sg36
Nsg37
Nsg38
I0
sg39
I1
sg40
Nsg41
Nsg42
S'NNPC'
p748
sg44
g733
sg45
I00
sba(issf_api
Word
p749
(dp750
g6
I00
sg7
V\u092e\u0941\u0916\u0930\u094d\u091c\u0940
p751
sg9
(issf_api
FeatureSet
p752
(dp753
g12
(dp754
S'crefhead'
p755
S'\xe0\xa4\xae\xe0\xa5\x81\xe0\xa4\x96\xe0\xa4\xb0\xe0\xa5\x8d\xe0\xa4\x9c\xe0\xa5\x80:i8'
p756
sS'posn'
p757
S'40'
p758
sS'name'
p759
S'\xe0\xa4\xae\xe0\xa5\x81\xe0\xa4\x96\xe0\xa4\xb0\xe0\xa5\x8d\xe0\xa4\x9c\xe0\xa5\x80'
p760
sS'af'
p761
S'\xe0\xa4\xae\xe0\xa5\x81\xe0\xa4\x96\xe0\xa4\xb0\xe0\xa5\x8d\xe0\xa4\x9c\xe0\xa5\x80,n,any,sg,3,o,0_\xe0\xa4\x95\xe0\xa4\xbe,0'
p762
sS'chunkid'
p763
S'NP'
p764
sS'creftype'
p765
S'Coreference-NounComplement:i7'
p766
sS'chunktype'
p767
S'head:NP'
p768
sS'crefchainhead'
p769
S'i8:t6'
p770
sS'vpos'
p771
S'vib_vib_5'
p772
sS'cref'
p773
S'i8%1:t6'
p774
sS'drel'
p775
S'r6:NP2'
p776
ssbsg34
I00
sg35
I00
sg36
Nsg37
Nsg38
I0
sg39
I1
sg40
Nsg41
Nsg42
S'NNP'
p777
sg44
g752
sg45
I00
sba(issf_api
Word
p778
(dp779
g6
I00
sg7
V\u0915\u0940
p780
sg9
(issf_api
FeatureSet
p781
(dp782
g12
(dp783
S'posn'
p784
S'50'
p785
sS'name'
p786
S'\xe0\xa4\x95\xe0\xa5\x80'
p787
sS'drel'
p788
S'lwg__psp:NP'
p789
sS'chunktype'
p790
S'child:NP'
p791
sS'af'
p792
S'\xe0\xa4\x95\xe0\xa4\xbe,psp,f,sg,,o,,'
p793
ssbsg34
I00
sg35
I00
sg36
Nsg37
Nsg38
I0
sg39
I1
sg40
Nsg41
Nsg42
S'PSP'
p794
sg44
g781
sg45
I00
sba(issf_api
Word
p795
(dp796
g6
I00
sg7
V\u0905\u0927\u094d\u092f\u0915\u094d\u0937\u0924\u093e
p797
sg9
(issf_api
FeatureSet
p798
(dp799
g12
(dp800
S'posn'
p801
S'60'
p802
sS'name'
p803
S'\xe0\xa4\x85\xe0\xa4\xa7\xe0\xa5\x8d\xe0\xa4\xaf\xe0\xa4\x95\xe0\xa5\x8d\xe0\xa4\xb7\xe0\xa4\xa4\xe0\xa4\xbe'
p804
sS'af'
p805
S'\xe0\xa4\x85\xe0\xa4\xa7\xe0\xa5\x8d\xe0\xa4\xaf\xe0\xa4\x95\xe0\xa5\x8d\xe0\xa4\xb7\xe0\xa4\xa4\xe0\xa4\xbe,n,f,sg,3,o,0_\xe0\xa4\xae\xe0\xa5\x87\xe0\xa4\x82,0'
p806
sS'chunkid'
p807
S'NP2'
p808
sS'drel'
p809
S'k7:VGF'
p810
sS'vpos'
p811
S'vib_2'
p812
sS'chunktype'
p813
S'head:NP2'
p814
ssbsg34
I00
sg35
I00
sg36
Nsg37
Nsg38
I1
sg39
I1
sg40
Nsg41
Nsg42
S'NN'
p815
sg44
g798
sg45
I00
sba(issf_api
Word
p816
(dp817
g6
I00
sg7
V\u092e\u0947\u0902
p818
sg9
(issf_api
FeatureSet
p819
(dp820
g12
(dp821
S'posn'
p822
S'70'
p823
sS'name'
p824
S'\xe0\xa4\xae\xe0\xa5\x87\xe0\xa4\x82'
p825
sS'drel'
p826
S'lwg__psp:NP2'
p827
sS'chunktype'
p828
S'child:NP2'
p829
sS'af'
p830
S'\xe0\xa4\xae\xe0\xa5\x87\xe0\xa4\x82,psp,,,,,,'
p831
ssbsg34
I00
sg35
I00
sg36
Nsg37
Nsg38
I1
sg39
I1
sg40
Nsg41
Nsg42
S'PSP'
p832
sg44
g819
sg45
I00
sba(issf_api
Word
p833
(dp834
g6
I00
sg7
V\u091c\u0940\u0913\u090f\u092e
p835
sg9
(issf_api
FeatureSet
p836
(dp837
g12
(dp838
S'crefhead'
p839
S'\xe0\xa4\x9c\xe0\xa5\x80\xe0\xa4\x93\xe0\xa4\x8f\xe0\xa4\xae:i9'
p840
sS'posn'
p841
S'80'
p842
sS'name'
p843
S'\xe0\xa4\x9c\xe0\xa5\x80\xe0\xa4\x93\xe0\xa4\x8f\xe0\xa4\xae'
p844
sS'af'
p845
S'\xe0\xa4\x9c\xe0\xa5\x80\xe0\xa4\x93\xe0\xa4\x8f\xe0\xa4\xae,n,m,sg,3,o,0_\xe0\xa4\xa8\xe0\xa5\x87,0'
p846
sS'chunkid'
p847
S'NP3'
p848
sS'creftype'
p849
S'Coreference-Identity:i6'
p850
sS'chunktype'
p851
S'head:NP3'
p852
sS'vpos'
p853
S'vib_2'
p854
sS'cref'
p855
S'i9%1:t5'
p856
sS'drel'
p857
S'k1:VGF'
p858
ssbsg34
I00
sg35
I00
sg36
Nsg37
Nsg38
I2
sg39
I1
sg40
Nsg41
Nsg42
S'NNP'
p859
sg44
g836
sg45
I00
sba(issf_api
Word
p860
(dp861
g6
I00
sg7
V\u0928\u0947
p862
sg9
(issf_api
FeatureSet
p863
(dp864
g12
(dp865
S'posn'
p866
S'90'
p867
sS'name'
p868
S'\xe0\xa4\xa8\xe0\xa5\x87'
p869
sS'drel'
p870
S'lwg__psp:NP3'
p871
sS'chunktype'
p872
S'child:NP3'
p873
sS'af'
p874
S'\xe0\xa4\xa8\xe0\xa5\x87,psp,,,,,,'
p875
ssbsg34
I00
sg35
I00
sg36
Nsg37
Nsg38
I2
sg39
I1
sg40
Nsg41
Nsg42
S'PSP'
p876
sg44
g863
sg45
I00
sba(issf_api
Word
p877
(dp878
g6
I00
sg7
V\u0926\u093f\u0932\u094d\u0932\u0940
p879
sg9
(issf_api
FeatureSet
p880
(dp881
g12
(dp882
S'crefhead'
p883
S'\xe0\xa4\xa6\xe0\xa4\xbf\xe0\xa4\xb2\xe0\xa5\x8d\xe0\xa4\xb2\xe0\xa5\x80:i10'
p884
sS'posn'
p885
S'100'
p886
sS'name'
p887
S'\xe0\xa4\xa6\xe0\xa4\xbf\xe0\xa4\xb2\xe0\xa5\x8d\xe0\xa4\xb2\xe0\xa5\x80'
p888
sS'af'
p889
S'\xe0\xa4\xa6\xe0\xa4\xbf\xe0\xa4\xb2\xe0\xa5\x8d\xe0\xa4\xb2\xe0\xa5\x80,n,f,sg,3,d,0,0'
p890
sS'chunkid'
p891
S'NP4'
p892
sS'acrefmod'
p893
S'm3%0:i12'
p894
sS'creftype'
p895
S'Coreference-Identity:i1'
p896
sS'chunktype'
p897
S'head:NP4'
p898
sS'cref'
p899
S'i10%1:t1,i11%0:t2'
p900
sS'drel'
p901
S'ccof:CCP'
p902
ssbsg34
I00
sg35
I00
sg36
Nsg37
Nsg38
I3
sg39
I1
sg40
Nsg41
Nsg42
S'NNP'
p903
sg44
g880
sg45
I00
sba(issf_api
Word
p904
(dp905
g6
I00
sg7
V\u0914\u0930
p906
sg9
(issf_api
FeatureSet
p907
(dp908
g12
(dp909
S'posn'
p910
S'110'
p911
sS'name'
p912
S'\xe0\xa4\x94\xe0\xa4\xb0'
p913
sS'af'
p914
S'\xe0\xa4\x94\xe0\xa4\xb0,avy,,,,,,'
p915
sS'chunkid'
p916
S'CCP'
p917
sS'acrefmod'
p918
S'm3%0:i12'
p919
sS'drel'
p920
S'nmod:NP6'
p921
sS'chunktype'
p922
S'head:CCP'
p923
sS'cref'
p924
S'i11%0:t2'
p925
ssbsg34
I00
sg35
I00
sg36
Nsg37
Nsg38
I4
sg39
I1
sg40
Nsg41
Nsg42
S'CC'
p926
sg44
g907
sg45
I00
sba(issf_api
Word
p927
(dp928
g6
I00
sg7
V\u092e\u0941\u0902\u092c\u0908
p929
sg9
(issf_api
FeatureSet
p930
(dp931
g12
(dp932
S'crefhead'
p933
S'\xe0\xa4\xae\xe0\xa5\x81\xe0\xa4\x82\xe0\xa4\xac\xe0\xa4\x88:i13'
p934
sS'posn'
p935
S'120'
p936
sS'name'
p937
S'\xe0\xa4\xae\xe0\xa5\x81\xe0\xa4\x82\xe0\xa4\xac\xe0\xa4\x88'
p938
sS'af'
p939
S'\xe0\xa4\xae\xe0\xa5\x81\xe0\xa4\x82\xe0\xa4\xac\xe0\xa4\x88,n,f,sg,3,d,0,0'
p940
sS'chunkid'
p941
S'NP5'
p942
sS'acrefmod'
p943
S'm3%0:i12'
p944
sS'creftype'
p945
S'Coreference-Identity:i4'
p946
sS'chunktype'
p947
S'head:NP5'
p948
sS'cref'
p949
S'i13%1:t3,i11%0:t2'
p950
sS'drel'
p951
S'ccof:CCP'
p952
ssbsg34
I00
sg35
I00
sg36
Nsg37
Nsg38
I5
sg39
I1
sg40
Nsg41
Nsg42
S'NNP'
p953
sg44
g930
sg45
I00
sba(issf_api
Word
p954
(dp955
g6
I00
sg7
V\u0939\u0935\u093e\u0908
p956
sg9
(issf_api
FeatureSet
p957
(dp958
g12
(dp959
S'posn'
p960
S'130'
p961
sS'name'
p962
S'\xe0\xa4\xb9\xe0\xa4\xb5\xe0\xa4\xbe\xe0\xa4\x88'
p963
sS'af'
p964
S'\xe0\xa4\xb9\xe0\xa4\xb5\xe0\xa4\xbe\xe0\xa4\x88,adj,any,any,,o,,'
p965
sS'acrefmod'
p966
S'm3%0:i12'
p967
sS'drel'
p968
S'pof__cn:NP6'
p969
sS'chunktype'
p970
S'child:NP6'
p971
sS'cref'
p972
S'i11%0:t2'
p973
ssbsg34
I00
sg35
I00
sg36
Nsg37
Nsg38
I6
sg39
I1
sg40
Nsg41
Nsg42
S'NNC'
p974
sg44
g957
sg45
I00
sba(issf_api
Word
p975
(dp976
g6
I00
sg7
V\u0905\u0921\u094d\u0921\u094b\u0902
p977
sg9
(issf_api
FeatureSet
p978
(dp979
g12
(dp980
S'crefhead'
p981
S'\xe0\xa4\x85\xe0\xa4\xa1\xe0\xa5\x8d\xe0\xa4\xa1\xe0\xa5\x8b\xe0\xa4\x82:i11'
p982
sS'posn'
p983
S'140'
p984
sS'name'
p985
S'\xe0\xa4\x85\xe0\xa4\xa1\xe0\xa5\x8d\xe0\xa4\xa1\xe0\xa5\x8b\xe0\xa4\x82'
p986
sS'af'
p987
S'\xe0\xa4\x85\xe0\xa4\xa1\xe0\xa5\x8d\xe0\xa4\xa1\xe0\xa4\xbe,n,m,pl,3,o,0_\xe0\xa4\x95\xe0\xa4\xbe,0'
p988
sS'acrefmodhead'
p989
S'\xe0\xa4\x85\xe0\xa4\xa1\xe0\xa5\x8d\xe0\xa4\xa1\xe0\xa5\x8b\xe0\xa4\x82:m3'
p990
sS'chunkid'
p991
S'NP6'
p992
sS'acrefmod'
p993
S'm3%1:i12'
p994
sS'creftype'
p995
S'Coreference-Identity:i2'
p996
sS'chunktype'
p997
S'head:NP6'
p998
sS'vpos'
p999
S'vib_3'
p1000
sS'cref'
p1001
S'i11%1:t2'
p1002
sS'drel'
p1003
S'r6:NP7'
p1004
ssbsg34
I00
sg35
I00
sg36
Nsg37
Nsg38
I6
sg39
I1
sg40
Nsg41
Nsg42
S'NN'
p1005
sg44
g978
sg45
I00
sba(issf_api
Word
p1006
(dp1007
g6
I00
sg7
V\u0915\u0947
p1008
sg9
(issf_api
FeatureSet
p1009
(dp1010
g12
(dp1011
S'posn'
p1012
S'150'
p1013
sS'name'
p1014
S'\xe0\xa4\x95\xe0\xa5\x87'
p1015
sS'drel'
p1016
S'lwg__psp:NP6'
p1017
sS'chunktype'
p1018
S'child:NP6'
p1019
sS'af'
p1020
S'\xe0\xa4\x95\xe0\xa4\xbe,psp,m,sg,,o,,'
p1021
ssbsg34
I00
sg35
I00
sg36
Nsg37
Nsg38
I6
sg39
I1
sg40
Nsg41
Nsg42
S'PSP'
p1022
sg44
g1009
sg45
I00
sba(issf_api
Word
p1023
(dp1024
g6
I00
sg7
V\u092a\u0941\u0928\u0930\u094d\u0917\u0920\u0928
p1025
sg9
(issf_api
FeatureSet
p1026
(dp1027
g12
(dp1028
S'posn'
p1029
S'160'
p1030
sS'name'
p1031
S'\xe0\xa4\xaa\xe0\xa5\x81\xe0\xa4\xa8\xe0\xa4\xb0\xe0\xa5\x8d\xe0\xa4\x97\xe0\xa4\xa0\xe0\xa4\xa8'
p1032
sS'af'
p1033
S'\xe0\xa4\xaa\xe0\xa5\x81\xe0\xa4\xa8\xe0\xa4\xb0\xe0\xa5\x8d\xe0\xa4\x97\xe0\xa4\xa0\xe0\xa4\xa8,n,m,sg,3,o,0,0'
p1034
sS'chunkid'
p1035
S'NP7'
p1036
sS'drel'
p1037
S'ccof:CCP2'
p1038
sS'chunktype'
p1039
S'head:NP7'
p1040
sS'cref'
p1041
S'i12%0:t4'
p1042
ssbsg34
I00
sg35
I00
sg36
Nsg37
Nsg38
I7
sg39
I1
sg40
Nsg41
Nsg42
S'NN'
p1043
sg44
g1026
sg45
I00
sba(issf_api
Word
p1044
(dp1045
g6
I00
sg7
V\u0914\u0930
p1046
sg9
(issf_api
FeatureSet
p1047
(dp1048
g12
(dp1049
S'crefhead'
p1050
S'\xe0\xa4\x94\xe0\xa4\xb0:i12'
p1051
sS'posn'
p1052
S'170'
p1053
sS'name'
p1054
S'\xe0\xa4\x94\xe0\xa4\xb02'
p1055
sS'af'
p1056
S'\xe0\xa4\x94\xe0\xa4\xb0,avy,,,,,,'
p1057
sS'chunkid'
p1058
S'CCP2'
p1059
sS'crefmod'
p1060
S'm3:i12'
p1061
sS'creftype'
p1062
S'Coreference-Identity:i3'
p1063
sS'chunktype'
p1064
S'head:CCP2'
p1065
sS'crefchainhead'
p1066
S'i12:t4'
p1067
sS'cref'
p1068
S'i12%0:t4'
p1069
sS'drel'
p1070
S'rt:VGF'
p1071
ssbsg34
I00
sg35
I00
sg36
Nsg37
Nsg38
I8
sg39
I1
sg40
Nsg41
Nsg42
S'CC'
p1072
sg44
g1047
sg45
I00
sba(issf_api
Word
p1073
(dp1074
g6
I00
sg7
V\u0906\u0927\u0941\u0928\u093f\u0915\u0940\u0915\u0930\u0923
p1075
sg9
(issf_api
FeatureSet
p1076
(dp1077
g12
(dp1078
S'posn'
p1079
S'180'
p1080
sS'name'
p1081
S'\xe0\xa4\x86\xe0\xa4\xa7\xe0\xa5\x81\xe0\xa4\xa8\xe0\xa4\xbf\xe0\xa4\x95\xe0\xa5\x80\xe0\xa4\x95\xe0\xa4\xb0\xe0\xa4\xa3'
p1082
sS'af'
p1083
S'\xe0\xa4\x86\xe0\xa4\xa7\xe0\xa5\x81\xe0\xa4\xa8\xe0\xa4\xbf\xe0\xa4\x95\xe0\xa5\x80\xe0\xa4\x95\xe0\xa4\xb0\xe0\xa4\xa3,n,m,sg,3,o,0_\xe0\xa4\x95\xe0\xa5\x87_\xe0\xa4\xb2\xe0\xa4\xbf\xe0\xa4\x8f,0'
p1084
sS'chunkid'
p1085
S'NP8'
p1086
sS'drel'
p1087
S'ccof:CCP2'
p1088
sS'chunktype'
p1089
S'head:NP8'
p1090
sS'vpos'
p1091
S'vib_2_3'
p1092
sS'cref'
p1093
S'i12%1:t4'
p1094
ssbsg34
I00
sg35
I00
sg36
Nsg37
Nsg38
I9
sg39
I1
sg40
Nsg41
Nsg42
S'NN'
p1095
sg44
g1076
sg45
I00
sba(issf_api
Word
p1096
(dp1097
g6
I00
sg7
V\u0915\u0947
p1098
sg9
(issf_api
FeatureSet
p1099
(dp1100
g12
(dp1101
S'posn'
p1102
S'190'
p1103
sS'name'
p1104
S'\xe0\xa4\x95\xe0\xa5\x872'
p1105
sS'drel'
p1106
S'lwg__psp:NP8'
p1107
sS'chunktype'
p1108
S'child:NP8'
p1109
sS'af'
p1110
S'\xe0\xa4\x95\xe0\xa5\x87,psp,,,,,,'
p1111
ssbsg34
I00
sg35
I00
sg36
Nsg37
Nsg38
I9
sg39
I1
sg40
Nsg41
Nsg42
S'PSP'
p1112
sg44
g1099
sg45
I00
sba(issf_api
Word
p1113
(dp1114
g6
I00
sg7
V\u0932\u093f\u090f
p1115
sg9
(issf_api
FeatureSet
p1116
(dp1117
g12
(dp1118
S'posn'
p1119
S'200'
p1120
sS'name'
p1121
S'\xe0\xa4\xb2\xe0\xa4\xbf\xe0\xa4\x8f'
p1122
sS'drel'
p1123
S'lwg__psp:NP8'
p1124
sS'chunktype'
p1125
S'child:NP8'
p1126
sS'af'
p1127
S'\xe0\xa4\xb2\xe0\xa4\xbf\xe0\xa4\x8f,psp,,,,,,'
p1128
ssbsg34
I00
sg35
I00
sg36
Nsg37
Nsg38
I9
sg39
I1
sg40
Nsg41
Nsg42
S'PSP'
p1129
sg44
g1116
sg45
I00
sba(issf_api
Word
p1130
(dp1131
g6
I00
sg7
V\u0938\u0902\u092f\u0941\u0915\u094d\u0924
p1132
sg9
(issf_api
FeatureSet
p1133
(dp1134
g12
(dp1135
S'posn'
p1136
S'210'
p1137
sS'name'
p1138
S'\xe0\xa4\xb8\xe0\xa4\x82\xe0\xa4\xaf\xe0\xa5\x81\xe0\xa4\x95\xe0\xa5\x8d\xe0\xa4\xa4'
p1139
sS'drel'
p1140
S'nmod__adj:NP9'
p1141
sS'chunktype'
p1142
S'child:NP9'
p1143
sS'af'
p1144
S'\xe0\xa4\xb8\xe0\xa4\x82\xe0\xa4\xaf\xe0\xa5\x81\xe0\xa4\x95\xe0\xa5\x8d\xe0\xa4\xa4,adj,any,any,,o,,'
p1145
ssbsg34
I00
sg35
I00
sg36
Nsg37
Nsg38
I10
sg39
I1
sg40
Nsg41
Nsg42
S'JJ'
p1146
sg44
g1133
sg45
I00
sba(issf_api
Word
p1147
(dp1148
g6
I00
sg7
V\u0909\u0926\u094d\u092f\u092e\u094b\u0902
p1149
sg9
(issf_api
FeatureSet
p1150
(dp1151
g12
(dp1152
S'posn'
p1153
S'220'
p1154
sS'name'
p1155
S'\xe0\xa4\x89\xe0\xa4\xa6\xe0\xa5\x8d\xe0\xa4\xaf\xe0\xa4\xae\xe0\xa5\x8b\xe0\xa4\x82'
p1156
sS'af'
p1157
S'\xe0\xa4\x89\xe0\xa4\xa6\xe0\xa5\x8d\xe0\xa4\xaf\xe0\xa4\xae,n,m,pl,3,o,0_\xe0\xa4\xae\xe0\xa5\x87\xe0\xa4\x82,0'
p1158
sS'chunkid'
p1159
S'NP9'
p1160
sS'drel'
p1161
S'k7:VGF'
p1162
sS'vpos'
p1163
S'vib_3'
p1164
sS'chunktype'
p1165
S'head:NP9'
p1166
ssbsg34
I00
sg35
I00
sg36
Nsg37
Nsg38
I10
sg39
I1
sg40
Nsg41
Nsg42
S'NN'
p1167
sg44
g1150
sg45
I00
sba(issf_api
Word
p1168
(dp1169
g6
I00
sg7
V\u092e\u0947\u0902
p1170
sg9
(issf_api
FeatureSet
p1171
(dp1172
g12
(dp1173
S'posn'
p1174
S'230'
p1175
sS'name'
p1176
S'\xe0\xa4\xae\xe0\xa5\x87\xe0\xa4\x822'
p1177
sS'drel'
p1178
S'lwg__psp:NP9'
p1179
sS'chunktype'
p1180
S'child:NP9'
p1181
sS'af'
p1182
S'\xe0\xa4\xae\xe0\xa5\x87\xe0\xa4\x82,psp,,,,,,'
p1183
ssbsg34
I00
sg35
I00
sg36
Nsg37
Nsg38
I10
sg39
I1
sg40
Nsg41
Nsg42
S'PSP'
p1184
sg44
g1171
sg45
I00
sba(issf_api
Word
p1185
(dp1186
g6
I00
sg7
V\u0905\u0927\u093f\u0938\u0942\u091a\u093f\u0924
p1187
sg9
(issf_api
FeatureSet
p1188
(dp1189
g12
(dp1190
S'posn'
p1191
S'240'
p1192
sS'name'
p1193
S'\xe0\xa4\x85\xe0\xa4\xa7\xe0\xa4\xbf\xe0\xa4\xb8\xe0\xa5\x82\xe0\xa4\x9a\xe0\xa4\xbf\xe0\xa4\xa4'
p1194
sS'drel'
p1195
S'nmod__adj:NP10'
p1196
sS'chunktype'
p1197
S'child:NP10'
p1198
sS'af'
p1199
S'\xe0\xa4\x85\xe0\xa4\xa7\xe0\xa4\xbf\xe0\xa4\xb8\xe0\xa5\x82\xe0\xa4\x9a\xe0\xa4\xbf\xe0\xa4\xa4,adj,any,any,,o,,'
p1200
ssbsg34
I00
sg35
I00
sg36
Nsg37
Nsg38
I11
sg39
I1
sg40
Nsg41
Nsg42
S'JJ'
p1201
sg44
g1188
sg45
I00
sba(issf_api
Word
p1202
(dp1203
g6
I00
sg7
V\u092d\u093e\u0930\u0924\u0940\u092f
p1204
sg9
(issf_api
FeatureSet
p1205
(dp1206
g12
(dp1207
S'posn'
p1208
S'250'
p1209
sS'name'
p1210
S'\xe0\xa4\xad\xe0\xa4\xbe\xe0\xa4\xb0\xe0\xa4\xa4\xe0\xa5\x80\xe0\xa4\xaf'
p1211
sS'drel'
p1212
S'nmod__adj:NP10'
p1213
sS'chunktype'
p1214
S'child:NP10'
p1215
sS'af'
p1216
S'\xe0\xa4\xad\xe0\xa4\xbe\xe0\xa4\xb0\xe0\xa4\xa4\xe0\xa5\x80\xe0\xa4\xaf,adj,any,any,,o,,'
p1217
ssbsg34
I00
sg35
I00
sg36
Nsg37
Nsg38
I11
sg39
I1
sg40
Nsg41
Nsg42
S'JJ'
p1218
sg44
g1205
sg45
I00
sba(issf_api
Word
p1219
(dp1220
g6
I00
sg7
V\u0935\u093f\u092e\u093e\u0928
p1221
sg9
(issf_api
FeatureSet
p1222
(dp1223
g12
(dp1224
S'posn'
p1225
S'260'
p1226
sS'name'
p1227
S'\xe0\xa4\xb5\xe0\xa4\xbf\xe0\xa4\xae\xe0\xa4\xbe\xe0\xa4\xa8'
p1228
sS'drel'
p1229
S'pof__cn:NP10'
p1230
sS'chunktype'
p1231
S'child:NP10'
p1232
sS'af'
p1233
S'\xe0\xa4\xb5\xe0\xa4\xbf\xe0\xa4\xae\xe0\xa4\xbe\xe0\xa4\xa8,n,m,sg,3,d,0,0'
p1234
ssbsg34
I00
sg35
I00
sg36
Nsg37
Nsg38
I11
sg39
I1
sg40
Nsg41
Nsg42
S'NNC'
p1235
sg44
g1222
sg45
I00
sba(issf_api
Word
p1236
(dp1237
g6
I00
sg7
V\u0915\u0902\u092a\u0928\u093f\u092f\u094b\u0902
p1238
sg9
(issf_api
FeatureSet
p1239
(dp1240
g12
(dp1241
S'posn'
p1242
S'270'
p1243
sS'name'
p1244
S'\xe0\xa4\x95\xe0\xa4\x82\xe0\xa4\xaa\xe0\xa4\xa8\xe0\xa4\xbf\xe0\xa4\xaf\xe0\xa5\x8b\xe0\xa4\x82'
p1245
sS'af'
p1246
S'\xe0\xa4\x95\xe0\xa4\x82\xe0\xa4\xaa\xe0\xa4\xa8\xe0\xa5\x80,n,f,pl,3,o,0_\xe0\xa4\x95\xe0\xa4\xbe,0'
p1247
sS'chunkid'
p1248
S'NP10'
p1249
sS'drel'
p1250
S'r6:NP11'
p1251
sS'vpos'
p1252
S'vib_5'
p1253
sS'chunktype'
p1254
S'head:NP10'
p1255
ssbsg34
I00
sg35
I00
sg36
Nsg37
Nsg38
I11
sg39
I1
sg40
Nsg41
Nsg42
S'NN'
p1256
sg44
g1239
sg45
I00
sba(issf_api
Word
p1257
(dp1258
g6
I00
sg7
V\u0915\u0940
p1259
sg9
(issf_api
FeatureSet
p1260
(dp1261
g12
(dp1262
S'posn'
p1263
S'280'
p1264
sS'name'
p1265
S'\xe0\xa4\x95\xe0\xa5\x802'
p1266
sS'drel'
p1267
S'lwg__psp:NP10'
p1268
sS'chunktype'
p1269
S'child:NP10'
p1270
sS'af'
p1271
S'\xe0\xa4\x95\xe0\xa4\xbe,psp,f,sg,,o,,'
p1272
ssbsg34
I00
sg35
I00
sg36
Nsg37
Nsg38
I11
sg39
I1
sg40
Nsg41
Nsg42
S'PSP'
p1273
sg44
g1260
sg45
I00
sba(issf_api
Word
p1274
(dp1275
g6
I00
sg7
V\u0967\u0966
p1276
sg9
(issf_api
FeatureSet
p1277
(dp1278
g12
(dp1279
S'posn'
p1280
S'290'
p1281
sS'name'
p1282
S'\xe0\xa5\xa7\xe0\xa5\xa6'
p1283
sS'drel'
p1284
S'nmod__adj:NP11'
p1285
sS'chunktype'
p1286
S'child:NP11'
p1287
sS'af'
p1288
S'\xe0\xa5\xa7\xe0\xa5\xa6,num,any,any,,any,,'
p1289
ssbsg34
I00
sg35
I00
sg36
Nsg37
Nsg38
I12
sg39
I1
sg40
Nsg41
Nsg42
S'QC'
p1290
sg44
g1277
sg45
I00
sba(issf_api
Word
p1291
(dp1292
g6
I00
sg7
V\u092a\u094d\u0930\u0924\u093f\u0936\u0924
p1293
sg9
(issf_api
FeatureSet
p1294
(dp1295
g12
(dp1296
S'posn'
p1297
S'300'
p1298
sS'name'
p1299
S'\xe0\xa4\xaa\xe0\xa5\x8d\xe0\xa4\xb0\xe0\xa4\xa4\xe0\xa4\xbf\xe0\xa4\xb6\xe0\xa4\xa4'
p1300
sS'drel'
p1301
S'nmod:NP11'
p1302
sS'chunktype'
p1303
S'child:NP11'
p1304
sS'af'
p1305
S'\xe0\xa4\xaa\xe0\xa5\x8d\xe0\xa4\xb0\xe0\xa4\xa4\xe0\xa4\xbf\xe0\xa4\xb6\xe0\xa4\xa4,n,m,sg,3,d,0,0'
p1306
ssbsg34
I00
sg35
I00
sg36
Nsg37
Nsg38
I12
sg39
I1
sg40
Nsg41
Nsg42
S'NN'
p1307
sg44
g1294
sg45
I00
sba(issf_api
Word
p1308
(dp1309
g6
I00
sg7
V\u092d\u093e\u0917\u0940\u0926\u093e\u0930\u0940
p1310
sg9
(issf_api
FeatureSet
p1311
(dp1312
g12
(dp1313
S'posn'
p1314
S'310'
p1315
sS'name'
p1316
S'\xe0\xa4\xad\xe0\xa4\xbe\xe0\xa4\x97\xe0\xa5\x80\xe0\xa4\xa6\xe0\xa4\xbe\xe0\xa4\xb0\xe0\xa5\x80'
p1317
sS'af'
p1318
S'\xe0\xa4\xad\xe0\xa4\xbe\xe0\xa4\x97\xe0\xa5\x80\xe0\xa4\xa6\xe0\xa4\xbe\xe0\xa4\xb0\xe0\xa5\x80,n,f,sg,3,o,0_\xe0\xa4\x95\xe0\xa4\xbe,0'
p1319
sS'chunkid'
p1320
S'NP11'
p1321
sS'drel'
p1322
S'r6:NP12'
p1323
sS'vpos'
p1324
S'vib_vib_4'
p1325
sS'chunktype'
p1326
S'head:NP11'
p1327
ssbsg34
I00
sg35
I00
sg36
Nsg37
Nsg38
I12
sg39
I1
sg40
Nsg41
Nsg42
S'NN'
p1328
sg44
g1311
sg45
I00
sba(issf_api
Word
p1329
(dp1330
g6
I00
sg7
V\u0915\u0947
p1331
sg9
(issf_api
FeatureSet
p1332
(dp1333
g12
(dp1334
S'posn'
p1335
S'320'
p1336
sS'name'
p1337
S'\xe0\xa4\x95\xe0\xa5\x873'
p1338
sS'drel'
p1339
S'lwg__psp:NP11'
p1340
sS'chunktype'
p1341
S'child:NP11'
p1342
sS'af'
p1343
S'\xe0\xa4\x95\xe0\xa4\xbe,psp,m,sg,,o,,'
p1344
ssbsg34
I00
sg35
I00
sg36
Nsg37
Nsg38
I12
sg39
I1
sg40
Nsg41
Nsg42
S'PSP'
p1345
sg44
g1332
sg45
I00
sba(issf_api
Word
p1346
(dp1347
g6
I00
sg7
V\u092a\u094d\u0930\u0938\u094d\u0924\u093e\u0935
p1348
sg9
(issf_api
FeatureSet
p1349
(dp1350
g12
(dp1351
S'posn'
p1352
S'330'
p1353
sS'name'
p1354
S'\xe0\xa4\xaa\xe0\xa5\x8d\xe0\xa4\xb0\xe0\xa4\xb8\xe0\xa5\x8d\xe0\xa4\xa4\xe0\xa4\xbe\xe0\xa4\xb5'
p1355
sS'af'
p1356
S'\xe0\xa4\xaa\xe0\xa5\x8d\xe0\xa4\xb0\xe0\xa4\xb8\xe0\xa5\x8d\xe0\xa4\xa4\xe0\xa4\xbe\xe0\xa4\xb5,n,m,sg,3,o,0_\xe0\xa4\x95\xe0\xa5\x8b,0'
p1357
sS'chunkid'
p1358
S'NP12'
p1359
sS'drel'
p1360
S'k4:VGF'
p1361
sS'vpos'
p1362
S'vib_2_RP'
p1363
sS'chunktype'
p1364
S'head:NP12'
p1365
ssbsg34
I00
sg35
I00
sg36
Nsg37
Nsg38
I13
sg39
I1
sg40
Nsg41
Nsg42
S'NN'
p1366
sg44
g1349
sg45
I00
sba(issf_api
Word
p1367
(dp1368
g6
I00
sg7
V\u0915\u094b
p1369
sg9
(issf_api
FeatureSet
p1370
(dp1371
g12
(dp1372
S'posn'
p1373
S'340'
p1374
sS'name'
p1375
S'\xe0\xa4\x95\xe0\xa5\x8b'
p1376
sS'drel'
p1377
S'lwg__psp:NP12'
p1378
sS'chunktype'
p1379
S'child:NP12'
p1380
sS'af'
p1381
S'\xe0\xa4\x95\xe0\xa5\x8b,psp,,,,,,'
p1382
ssbsg34
I00
sg35
I00
sg36
Nsg37
Nsg38
I13
sg39
I1
sg40
Nsg41
Nsg42
S'PSP'
p1383
sg44
g1370
sg45
I00
sba(issf_api
Word
p1384
(dp1385
g6
I00
sg7
V\u092d\u0940
p1386
sg9
(issf_api
FeatureSet
p1387
(dp1388
g12
(dp1389
S'posn'
p1390
S'350'
p1391
sS'name'
p1392
S'\xe0\xa4\xad\xe0\xa5\x80'
p1393
sS'drel'
p1394
S'lwg__rp:NP12'
p1395
sS'chunktype'
p1396
S'child:NP12'
p1397
sS'af'
p1398
S'\xe0\xa4\xad\xe0\xa5\x80,avy,,,,,,'
p1399
ssbsg34
I00
sg35
I00
sg36
Nsg37
Nsg38
I13
sg39
I1
sg40
Nsg41
Nsg42
S'RP'
p1400
sg44
g1387
sg45
I00
sba(issf_api
Word
p1401
(dp1402
g6
I00
sg7
V\u0939\u0930\u0940
p1403
sg9
(issf_api
FeatureSet
p1404
(dp1405
g12
(dp1406
S'posn'
p1407
S'360'
p1408
sS'name'
p1409
S'\xe0\xa4\xb9\xe0\xa4\xb0\xe0\xa5\x80'
p1410
sS'drel'
p1411
S'nmod__adj:NP13'
p1412
sS'chunktype'
p1413
S'child:NP13'
p1414
sS'af'
p1415
S'\xe0\xa4\xb9\xe0\xa4\xb0\xe0\xa4\xbe,adj,f,sg,,d,,'
p1416
ssbsg34
I00
sg35
I00
sg36
Nsg37
Nsg38
I14
sg39
I1
sg40
Nsg41
Nsg42
S'JJ'
p1417
sg44
g1404
sg45
I00
sba(issf_api
Word
p1418
(dp1419
g6
I00
sg7
V\u091d\u0902\u0921\u0940
p1420
sg9
(issf_api
FeatureSet
p1421
(dp1422
g12
(dp1423
S'posn'
p1424
S'370'
p1425
sS'name'
p1426
S'\xe0\xa4\x9d\xe0\xa4\x82\xe0\xa4\xa1\xe0\xa5\x80'
p1427
sS'af'
p1428
S'\xe0\xa4\x9d\xe0\xa4\x82\xe0\xa4\xa1\xe0\xa5\x80,n,f,sg,3,d,0,0'
p1429
sS'chunkid'
p1430
S'NP13'
p1431
sS'drel'
p1432
S'pof:VGF'
p1433
sS'chunktype'
p1434
S'head:NP13'
p1435
ssbsg34
I00
sg35
I00
sg36
Nsg37
Nsg38
I14
sg39
I1
sg40
Nsg41
Nsg42
S'NN'
p1436
sg44
g1421
sg45
I00
sba(issf_api
Word
p1437
(dp1438
g6
I00
sg7
V\u0926\u0947
p1439
sg9
(issf_api
FeatureSet
p1440
(dp1441
g12
(dp1442
S'posn'
p1443
S'380'
p1444
sS'name'
p1445
S'\xe0\xa4\xa6\xe0\xa5\x87'
p1446
sS'af'
p1447
S'\xe0\xa4\xa6\xe0\xa5\x87,v,any,sg,any,,0_\xe0\xa4\xa6\xe0\xa5\x87+\xe0\xa4\xaf\xe0\xa4\xbe,0'
p1448
sS'chunkid'
p1449
S'VGF'
p1450
sS'chunktype'
p1451
S'head:VGF'
p1452
sS'voicetype'
p1453
S'active'
p1454
sS'vpos'
p1455
S'tam_2'
p1456
sS'stype'
p1457
S'declarative'
p1458
ssbsg34
I00
sg35
I00
sg36
Nsg37
Nsg38
I15
sg39
I1
sg40
Nsg41
Nsg42
S'VM'
p1459
sg44
g1440
sg45
I00
sba(issf_api
Word
p1460
(dp1461
g6
I00
sg7
V\u0926\u0940
p1462
sg9
(issf_api
FeatureSet
p1463
(dp1464
g12
(dp1465
S'posn'
p1466
S'390'
p1467
sS'name'
p1468
S'\xe0\xa4\xa6\xe0\xa5\x80'
p1469
sS'drel'
p1470
S'lwg__vaux:VGF'
p1471
sS'chunktype'
p1472
S'child:VGF'
p1473
sS'af'
p1474
S'\xe0\xa4\xa6\xe0\xa5\x87,v,f,sg,any,,\xe0\xa4\xaf\xe0\xa4\xbe,yA'
p1475
ssbsg34
I00
sg35
I00
sg36
Nsg37
Nsg38
I15
sg39
I1
sg40
Nsg41
Nsg42
S'VAUX'
p1476
sg44
g1463
sg45
I00
sba(issf_api
Word
p1477
(dp1478
g6
I00
sg7
V\u0964
p1479
sg9
(issf_api
FeatureSet
p1480
(dp1481
g12
(dp1482
S'posn'
p1483
S'400'
p1484
sS'name'
p1485
S'\xe0\xa5\xa4'
p1486
sS'af'
p1487
S'\xe0\xa5\xa4,punc,,,,,,'
p1488
sS'chunkid'
p1489
S'BLK'
p1490
sS'drel'
p1491
S'rsym:VGF'
p1492
sS'chunktype'
p1493
S'head:BLK'
p1494
ssbsg34
I00
sg35
I00
sg36
Nsg37
Nsg38
I16
sg39
I1
sg40
Nsg41
Nsg42
S'SYM'
p1495
sg44
g1480
sg45
I00
sba(issf_api
Word
p1496
(dp1497
g6
I00
sg7
V\u092d\u093e\u0930\u0924\u0940\u092f
p1498
sg9
(issf_api
FeatureSet
p1499
(dp1500
g12
(dp1501
S'posn'
p1502
S'130'
p1503
sS'name'
p1504
S'\xe0\xa4\xad\xe0\xa4\xbe\xe0\xa4\xb0\xe0\xa4\xa4\xe0\xa5\x80\xe0\xa4\xaf'
p1505
sS'drel'
p1506
S'pof__cn:NP'
p1507
sS'chunktype'
p1508
S'child:NP'
p1509
sS'af'
p1510
S'\xe0\xa4\xad\xe0\xa4\xbe\xe0\xa4\xb0\xe0\xa4\xa4\xe0\xa5\x80\xe0\xa4\xaf,adj,any,any,,o,,'
p1511
ssbsg34
I00
sg35
I00
sg36
Nsg37
Nsg38
I0
sg39
I2
sg40
Nsg41
Nsg42
S'NNPC'
p1512
sg44
g1499
sg45
I00
sba(issf_api
Word
p1513
(dp1514
g6
I00
sg7
V\u0939\u0935\u093e\u0908
p1515
sg9
(issf_api
FeatureSet
p1516
(dp1517
g12
(dp1518
S'posn'
p1519
S'130'
p1520
sS'name'
p1521
S'\xe0\xa4\xb9\xe0\xa4\xb5\xe0\xa4\xbe\xe0\xa4\x88'
p1522
sS'drel'
p1523
S'pof__cn:NP'
p1524
sS'chunktype'
p1525
S'child:NP'
p1526
sS'af'
p1527
S'\xe0\xa4\xb9\xe0\xa4\xb5\xe0\xa4\xbe\xe0\xa4\x88,adj,any,any,,o,,'
p1528
ssbsg34
I00
sg35
I00
sg36
Nsg37
Nsg38
I0
sg39
I2
sg40
Nsg41
Nsg42
S'NNPC'
p1529
sg44
g1516
sg45
I00
sba(issf_api
Word
p1530
(dp1531
g6
I00
sg7
V\u0905\u0921\u094d\u0921\u093e
p1532
sg9
(issf_api
FeatureSet
p1533
(dp1534
g12
(dp1535
S'posn'
p1536
S'30'
p1537
sS'name'
p1538
S'\xe0\xa4\x85\xe0\xa4\xa1\xe0\xa5\x8d\xe0\xa4\xa1\xe0\xa4\xbe'
p1539
sS'drel'
p1540
S'pof__cn:NP'
p1541
sS'chunktype'
p1542
S'child:NP'
p1543
sS'af'
p1544
S'\xe0\xa4\x85\xe0\xa4\xa1\xe0\xa5\x8d\xe0\xa4\xa1\xe0\xa4\xbe,n,m,sg,3,d,0,0'
p1545
ssbsg34
I00
sg35
I00
sg36
Nsg37
Nsg38
I0
sg39
I2
sg40
Nsg41
Nsg42
S'NNPC'
p1546
sg44
g1533
sg45
I00
sba(issf_api
Word
p1547
(dp1548
g6
I00
sg7
V\u092a\u094d\u0930\u093e\u0927\u093f\u0915\u0930\u0923
p1549
sg9
(issf_api
FeatureSet
p1550
(dp1551
g12
(dp1552
S'posn'
p1553
S'40'
p1554
sS'name'
p1555
S'\xe0\xa4\xaa\xe0\xa5\x8d\xe0\xa4\xb0\xe0\xa4\xbe\xe0\xa4\xa7\xe0\xa4\xbf\xe0\xa4\x95\xe0\xa4\xb0\xe0\xa4\xa3'
p1556
sS'af'
p1557
S'\xe0\xa4\xaa\xe0\xa5\x8d\xe0\xa4\xb0\xe0\xa4\xbe\xe0\xa4\xa7\xe0\xa4\xbf\xe0\xa4\x95\xe0\xa4\xb0\xe0\xa4\xa3,n,m,sg,3,o,0_\xe0\xa4\x95\xe0\xa4\xbe,0'
p1558
sS'chunkid'
p1559
S'NP'
p1560
sS'drel'
p1561
S'r6:NP2'
p1562
sS'vpos'
p1563
S'vib_5'
p1564
sS'chunktype'
p1565
S'head:NP'
p1566
ssbsg34
I00
sg35
I00
sg36
Nsg37
Nsg38
I0
sg39
I2
sg40
Nsg41
Nsg42
S'NNP'
p1567
sg44
g1550
sg45
I00
sba(issf_api
Word
p1568
(dp1569
g6
I00
sg7
V\u0915\u0947
p1570
sg9
(issf_api
FeatureSet
p1571
(dp1572
g12
(dp1573
S'posn'
p1574
S'50'
p1575
sS'name'
p1576
S'\xe0\xa4\x95\xe0\xa5\x87'
p1577
sS'drel'
p1578
S'lwg__psp:NP'
p1579
sS'chunktype'
p1580
S'child:NP'
p1581
sS'af'
p1582
S'\xe0\xa4\x95\xe0\xa4\xbe,psp,m,pl,,d,,'
p1583
ssbsg34
I00
sg35
I00
sg36
Nsg37
Nsg38
I0
sg39
I2
sg40
Nsg41
Nsg42
S'PSP'
p1584
sg44
g1571
sg45
I00
sba(issf_api
Word
p1585
(dp1586
g6
I00
sg7
V\u0915\u092e
p1587
sg9
(issf_api
FeatureSet
p1588
(dp1589
g12
(dp1590
S'posn'
p1591
S'60'
p1592
sS'name'
p1593
S'\xe0\xa4\x95\xe0\xa4\xae'
p1594
sS'drel'
p1595
S'nmod__adj:NP2'
p1596
sS'chunktype'
p1597
S'child:NP2'
p1598
sS'af'
p1599
S'\xe0\xa4\x95\xe0\xa4\xae,avy,,,,,,'
p1600
ssbsg34
I00
sg35
I00
sg36
Nsg37
Nsg38
I1
sg39
I2
sg40
Nsg41
Nsg42
S'QF'
p1601
sg44
g1588
sg45
I00
sba(issf_api
Word
p1602
(dp1603
g6
I00
sg7
V\u0938\u0947
p1604
sg9
(issf_api
FeatureSet
p1605
(dp1606
g12
(dp1607
S'posn'
p1608
S'70'
p1609
sS'name'
p1610
S'\xe0\xa4\xb8\xe0\xa5\x87'
p1611
sS'drel'
p1612
S'lwg__rp:NP2'
p1613
sS'chunktype'
p1614
S'child:NP2'
p1615
sS'af'
p1616
S'\xe0\xa4\xb8\xe0\xa5\x87,avy,,,,,,'
p1617
ssbsg34
I00
sg35
I00
sg36
Nsg37
Nsg38
I1
sg39
I2
sg40
Nsg41
Nsg42
S'RP'
p1618
sg44
g1605
sg45
I00
sba(issf_api
Word
p1619
(dp1620
g6
I00
sg7
V\u0915\u092e
p1621
sg9
(issf_api
FeatureSet
p1622
(dp1623
g12
(dp1624
S'posn'
p1625
S'80'
p1626
sS'name'
p1627
S'\xe0\xa4\x95\xe0\xa4\xae2'
p1628
sS'drel'
p1629
S'nmod__adj:NP2'
p1630
sS'chunktype'
p1631
S'child:NP2'
p1632
sS'af'
p1633
S'\xe0\xa4\x95\xe0\xa4\xae,avy,,,,,,'
p1634
ssbsg34
I00
sg35
I00
sg36
Nsg37
Nsg38
I1
sg39
I2
sg40
Nsg41
Nsg42
S'QF'
p1635
sg44
g1622
sg45
I00
sba(issf_api
Word
p1636
(dp1637
g6
I00
sg7
V\u096a\u0966
p1638
sg9
(issf_api
FeatureSet
p1639
(dp1640
g12
(dp1641
S'posn'
p1642
S'90'
p1643
sS'name'
p1644
S'\xe0\xa5\xaa\xe0\xa5\xa6'
p1645
sS'drel'
p1646
S'nmod__adj:NP2'
p1647
sS'chunktype'
p1648
S'child:NP2'
p1649
sS'af'
p1650
S'\xe0\xa5\xaa\xe0\xa5\xa6,num,any,any,,any,,'
p1651
ssbsg34
I00
sg35
I00
sg36
Nsg37
Nsg38
I1
sg39
I2
sg40
Nsg41
Nsg42
S'QC'
p1652
sg44
g1639
sg45
I00
sba(issf_api
Word
p1653
(dp1654
g6
I00
sg7
V\u092a\u094d\u0930\u0924\u093f\u0936\u0924
p1655
sg9
(issf_api
FeatureSet
p1656
(dp1657
g12
(dp1658
S'posn'
p1659
S'100'
p1660
sS'name'
p1661
S'\xe0\xa4\xaa\xe0\xa5\x8d\xe0\xa4\xb0\xe0\xa4\xa4\xe0\xa4\xbf\xe0\xa4\xb6\xe0\xa4\xa4'
p1662
sS'drel'
p1663
S'nmod:NP2'
p1664
sS'chunktype'
p1665
S'child:NP2'
p1666
sS'af'
p1667
S'\xe0\xa4\xaa\xe0\xa5\x8d\xe0\xa4\xb0\xe0\xa4\xa4\xe0\xa4\xbf\xe0\xa4\xb6\xe0\xa4\xa4,n,m,sg,3,d,0,0'
p1668
ssbsg34
I00
sg35
I00
sg36
Nsg37
Nsg38
I1
sg39
I2
sg40
Nsg41
Nsg42
S'NN'
p1669
sg44
g1656
sg45
I00
sba(issf_api
Word
p1670
(dp1671
g6
I00
sg7
V\u0915\u0930\u094d\u092e\u091a\u093e\u0930\u0940
p1672
sg9
(issf_api
FeatureSet
p1673
(dp1674
g12
(dp1675
S'posn'
p1676
S'110'
p1677
sS'name'
p1678
S'\xe0\xa4\x95\xe0\xa4\xb0\xe0\xa5\x8d\xe0\xa4\xae\xe0\xa4\x9a\xe0\xa4\xbe\xe0\xa4\xb0\xe0\xa5\x80'
p1679
sS'af'
p1680
S'\xe0\xa4\x95\xe0\xa4\xb0\xe0\xa5\x8d\xe0\xa4\xae\xe0\xa4\x9a\xe0\xa4\xbe\xe0\xa4\xb0\xe0\xa5\x80,n,m,pl,3,d,0,0'
p1681
sS'chunkid'
p1682
S'NP2'
p1683
sS'drel'
p1684
S'k1:VGF'
p1685
sS'chunktype'
p1686
S'head:NP2'
p1687
ssbsg34
I00
sg35
I00
sg36
Nsg37
Nsg38
I1
sg39
I2
sg40
Nsg41
Nsg42
S'NN'
p1688
sg44
g1673
sg45
I00
sba(issf_api
Word
p1689
(dp1690
g6
I00
sg7
V\u0924\u0940\u0928
p1691
sg9
(issf_api
FeatureSet
p1692
(dp1693
g12
(dp1694
S'posn'
p1695
S'120'
p1696
sS'name'
p1697
S'\xe0\xa4\xa4\xe0\xa5\x80\xe0\xa4\xa8'
p1698
sS'drel'
p1699
S'nmod__adj:NP3'
p1700
sS'chunktype'
p1701
S'child:NP3'
p1702
sS'af'
p1703
S'\xe0\xa4\xa4\xe0\xa5\x80\xe0\xa4\xa8,num,any,any,,any,,'
p1704
ssbsg34
I00
sg35
I00
sg36
Nsg37
Nsg38
I2
sg39
I2
sg40
Nsg41
Nsg42
S'QC'
p1705
sg44
g1692
sg45
I00
sba(issf_api
Word
p1706
(dp1707
g6
I00
sg7
V\u0935\u0930\u094d\u0937
p1708
sg9
(issf_api
FeatureSet
p1709
(dp1710
g12
(dp1711
S'posn'
p1712
S'130'
p1713
sS'name'
p1714
S'\xe0\xa4\xb5\xe0\xa4\xb0\xe0\xa5\x8d\xe0\xa4\xb7'
p1715
sS'af'
p1716
S'\xe0\xa4\xb5\xe0\xa4\xb0\xe0\xa5\x8d\xe0\xa4\xb7,n,m,sg,3,o,0_\xe0\xa4\x95\xe0\xa5\x87_\xe0\xa4\xb2\xe0\xa4\xbf\xe0\xa4\x8f,0'
p1717
sS'chunkid'
p1718
S'NP3'
p1719
sS'drel'
p1720
S'rt:VGF'
p1721
sS'vpos'
p1722
S'vib_3_4'
p1723
sS'chunktype'
p1724
S'head:NP3'
p1725
ssbsg34
I00
sg35
I00
sg36
Nsg37
Nsg38
I2
sg39
I2
sg40
Nsg41
Nsg42
S'NN'
p1726
sg44
g1709
sg45
I00
sba(issf_api
Word
p1727
(dp1728
g6
I00
sg7
V\u0915\u0947
p1729
sg9
(issf_api
FeatureSet
p1730
(dp1731
g12
(dp1732
S'posn'
p1733
S'140'
p1734
sS'name'
p1735
S'\xe0\xa4\x95\xe0\xa5\x872'
p1736
sS'drel'
p1737
S'lwg__psp:NP3'
p1738
sS'chunktype'
p1739
S'child:NP3'
p1740
sS'af'
p1741
S'\xe0\xa4\x95\xe0\xa5\x87,psp,,,,,,'
p1742
ssbsg34
I00
sg35
I00
sg36
Nsg37
Nsg38
I2
sg39
I2
sg40
Nsg41
Nsg42
S'PSP'
p1743
sg44
g1730
sg45
I00
sba(issf_api
Word
p1744
(dp1745
g6
I00
sg7
V\u0932\u093f\u090f
p1746
sg9
(issf_api
FeatureSet
p1747
(dp1748
g12
(dp1749
S'posn'
p1750
S'150'
p1751
sS'name'
p1752
S'\xe0\xa4\xb2\xe0\xa4\xbf\xe0\xa4\x8f'
p1753
sS'drel'
p1754
S'lwg__psp:NP3'
p1755
sS'chunktype'
p1756
S'child:NP3'
p1757
sS'af'
p1758
S'\xe0\xa4\xb2\xe0\xa4\xbf\xe0\xa4\x8f,psp,,,,,,'
p1759
ssbsg34
I00
sg35
I00
sg36
Nsg37
Nsg38
I2
sg39
I2
sg40
Nsg41
Nsg42
S'PSP'
p1760
sg44
g1747
sg45
I00
sba(issf_api
Word
p1761
(dp1762
g6
I00
sg7
V\u092a\u094d\u0930\u0924\u093f\u0928\u093f\u092f\u0941\u0915\u094d\u0924\u093f
p1763
sg9
(issf_api
FeatureSet
p1764
(dp1765
g12
(dp1766
S'posn'
p1767
S'160'
p1768
sS'name'
p1769
S'\xe0\xa4\xaa\xe0\xa5\x8d\xe0\xa4\xb0\xe0\xa4\xa4\xe0\xa4\xbf\xe0\xa4\xa8\xe0\xa4\xbf\xe0\xa4\xaf\xe0\xa5\x81\xe0\xa4\x95\xe0\xa5\x8d\xe0\xa4\xa4\xe0\xa4\xbf'
p1770
sS'af'
p1771
S'\xe0\xa4\xaa\xe0\xa5\x8d\xe0\xa4\xb0\xe0\xa4\xa4\xe0\xa4\xbf\xe0\xa4\xa8\xe0\xa4\xbf\xe0\xa4\xaf\xe0\xa5\x81\xe0\xa4\x95\xe0\xa5\x8d\xe0\xa4\xa4\xe0\xa4\xbf,n,f,sg,3,o,0_\xe0\xa4\xaa\xe0\xa4\xb0,0'
p1772
sS'chunkid'
p1773
S'NP4'
p1774
sS'drel'
p1775
S'k7:VGF'
p1776
sS'vpos'
p1777
S'vib_2'
p1778
sS'chunktype'
p1779
S'head:NP4'
p1780
ssbsg34
I00
sg35
I00
sg36
Nsg37
Nsg38
I3
sg39
I2
sg40
Nsg41
Nsg42
S'NN'
p1781
sg44
g1764
sg45
I00
sba(issf_api
Word
p1782
(dp1783
g6
I00
sg7
V\u092a\u0930
p1784
sg9
(issf_api
FeatureSet
p1785
(dp1786
g12
(dp1787
S'posn'
p1788
S'170'
p1789
sS'name'
p1790
S'\xe0\xa4\xaa\xe0\xa4\xb0'
p1791
sS'drel'
p1792
S'lwg__psp:NP4'
p1793
sS'chunktype'
p1794
S'child:NP4'
p1795
sS'af'
p1796
S'\xe0\xa4\xaa\xe0\xa4\xb0,psp,,,,,,'
p1797
ssbsg34
I00
sg35
I00
sg36
Nsg37
Nsg38
I3
sg39
I2
sg40
Nsg41
Nsg42
S'PSP'
p1798
sg44
g1785
sg45
I00
sba(issf_api
Word
p1799
(dp1800
g6
I00
sg7
V\u0928\u0908
p1801
sg9
(issf_api
FeatureSet
p1802
(dp1803
g12
(dp1804
S'posn'
p1805
S'180'
p1806
sS'name'
p1807
S'\xe0\xa4\xa8\xe0\xa4\x88'
p1808
sS'drel'
p1809
S'nmod__adj:NP5'
p1810
sS'chunktype'
p1811
S'child:NP5'
p1812
sS'af'
p1813
S'\xe0\xa4\xa8\xe0\xa4\xaf\xe0\xa4\xbe,adj,f,sg,,o,,'
p1814
ssbsg34
I00
sg35
I00
sg36
Nsg37
Nsg38
I4
sg39
I2
sg40
Nsg41
Nsg42
S'JJ'
p1815
sg44
g1802
sg45
I00
sba(issf_api
Word
p1816
(dp1817
g6
I00
sg7
V\u0938\u0902\u092f\u0941\u0915\u094d\u0924
p1818
sg9
(issf_api
FeatureSet
p1819
(dp1820
g12
(dp1821
S'posn'
p1822
S'130'
p1823
sS'name'
p1824
S'\xe0\xa4\xb8\xe0\xa4\x82\xe0\xa4\xaf\xe0\xa5\x81\xe0\xa4\x95\xe0\xa5\x8d\xe0\xa4\xa4'
p1825
sS'drel'
p1826
S'pof__cn:NP5'
p1827
sS'chunktype'
p1828
S'child:NP5'
p1829
sS'af'
p1830
S'\xe0\xa4\xb8\xe0\xa4\x82\xe0\xa4\xaf\xe0\xa5\x81\xe0\xa4\x95\xe0\xa5\x8d\xe0\xa4\xa4,adj,any,any,,o,,'
p1831
ssbsg34
I00
sg35
I00
sg36
Nsg37
Nsg38
I4
sg39
I2
sg40
Nsg41
Nsg42
S'NNPC'
p1832
sg44
g1819
sg45
I00
sba(issf_api
Word
p1833
(dp1834
g6
I00
sg7
V\u0909\u0926\u094d\u092f\u092e
p1835
sg9
(issf_api
FeatureSet
p1836
(dp1837
g12
(dp1838
S'posn'
p1839
S'200'
p1840
sS'name'
p1841
S'\xe0\xa4\x89\xe0\xa4\xa6\xe0\xa5\x8d\xe0\xa4\xaf\xe0\xa4\xae'
p1842
sS'drel'
p1843
S'pof__cn:NP5'
p1844
sS'chunktype'
p1845
S'child:NP5'
p1846
sS'af'
p1847
S'\xe0\xa4\x89\xe0\xa4\xa6\xe0\xa5\x8d\xe0\xa4\xaf\xe0\xa4\xae,n,m,sg,3,d,0,0'
p1848
ssbsg34
I00
sg35
I00
sg36
Nsg37
Nsg38
I4
sg39
I2
sg40
Nsg41
Nsg42
S'NNPC'
p1849
sg44
g1836
sg45
I00
sba(issf_api
Word
p1850
(dp1851
g6
I00
sg7
V\u0915\u0902\u092a\u0928\u0940
p1852
sg9
(issf_api
FeatureSet
p1853
(dp1854
g12
(dp1855
S'posn'
p1856
S'210'
p1857
sS'name'
p1858
S'\xe0\xa4\x95\xe0\xa4\x82\xe0\xa4\xaa\xe0\xa4\xa8\xe0\xa5\x80'
p1859
sS'af'
p1860
S'\xe0\xa4\x95\xe0\xa4\x82\xe0\xa4\xaa\xe0\xa4\xa8\xe0\xa5\x80,n,f,sg,3,o,0_\xe0\xa4\xae\xe0\xa5\x87\xe0\xa4\x82,0'
p1861
sS'chunkid'
p1862
S'NP5'
p1863
sS'drel'
p1864
S'k7p:VGF'
p1865
sS'vpos'
p1866
S'vib_5'
p1867
sS'chunktype'
p1868
S'head:NP5'
p1869
ssbsg34
I00
sg35
I00
sg36
Nsg37
Nsg38
I4
sg39
I2
sg40
Nsg41
Nsg42
S'NNP'
p1870
sg44
g1853
sg45
I00
sba(issf_api
Word
p1871
(dp1872
g6
I00
sg7
V\u092e\u0947\u0902
p1873
sg9
(issf_api
FeatureSet
p1874
(dp1875
g12
(dp1876
S'posn'
p1877
S'220'
p1878
sS'name'
p1879
S'\xe0\xa4\xae\xe0\xa5\x87\xe0\xa4\x82'
p1880
sS'drel'
p1881
S'lwg__psp:NP5'
p1882
sS'chunktype'
p1883
S'child:NP5'
p1884
sS'af'
p1885
S'\xe0\xa4\xae\xe0\xa5\x87\xe0\xa4\x82,psp,,,,,,'
p1886
ssbsg34
I00
sg35
I00
sg36
Nsg37
Nsg38
I4
sg39
I2
sg40
Nsg41
Nsg42
S'PSP'
p1887
sg44
g1874
sg45
I00
sba(issf_api
Word
p1888
(dp1889
g6
I00
sg7
V\u0924\u0948\u0928\u093e\u0924
p1890
sg9
(issf_api
FeatureSet
p1891
(dp1892
g12
(dp1893
S'posn'
p1894
S'230'
p1895
sS'name'
p1896
S'\xe0\xa4\xa4\xe0\xa5\x88\xe0\xa4\xa8\xe0\xa4\xbe\xe0\xa4\xa4'
p1897
sS'af'
p1898
S'\xe0\xa4\xa4\xe0\xa5\x88\xe0\xa4\xa8\xe0\xa4\xbe\xe0\xa4\xa4,adj,any,any,,,,'
p1899
sS'chunkid'
p1900
S'JJP'
p1901
sS'drel'
p1902
S'pof:VGF'
p1903
sS'chunktype'
p1904
S'head:JJP'
p1905
ssbsg34
I00
sg35
I00
sg36
Nsg37
Nsg38
I5
sg39
I2
sg40
Nsg41
Nsg42
S'JJ'
p1906
sg44
g1891
sg45
I00
sba(issf_api
Word
p1907
(dp1908
g6
I00
sg7
V\u0915\u093f\u090f
p1909
sg9
(issf_api
FeatureSet
p1910
(dp1911
g12
(dp1912
S'posn'
p1913
S'240'
p1914
sS'name'
p1915
S'\xe0\xa4\x95\xe0\xa4\xbf\xe0\xa4\x8f'
p1916
sS'af'
p1917
S'\xe0\xa4\x95\xe0\xa4\xb0,v,m,pl,3,,\xe0\xa4\xaf\xe0\xa4\xbe_\xe0\xa4\x9c\xe0\xa4\xbe+\xe0\xa4\x97\xe0\xa4\xbe,yA'
p1918
sS'chunkid'
p1919
S'VGF'
p1920
sS'chunktype'
p1921
S'head:VGF'
p1922
sS'voicetype'
p1923
S'active'
p1924
sS'vpos'
p1925
S'tam_2'
p1926
sS'stype'
p1927
S'declarative'
p1928
ssbsg34
I00
sg35
I00
sg36
Nsg37
Nsg38
I6
sg39
I2
sg40
Nsg41
Nsg42
S'VM'
p1929
sg44
g1910
sg45
I00
sba(issf_api
Word
p1930
(dp1931
g6
I00
sg7
V\u091c\u093e\u090f\u0902\u0917\u0947
p1932
sg9
(issf_api
FeatureSet
p1933
(dp1934
g12
(dp1935
S'posn'
p1936
S'250'
p1937
sS'name'
p1938
S'\xe0\xa4\x9c\xe0\xa4\xbe\xe0\xa4\x8f\xe0\xa4\x82\xe0\xa4\x97\xe0\xa5\x87'
p1939
sS'drel'
p1940
S'lwg__vaux:VGF'
p1941
sS'chunktype'
p1942
S'child:VGF'
p1943
sS'af'
p1944
S'\xe0\xa4\x9c\xe0\xa4\xbe,v,m,pl,3,,\xe0\xa4\x97\xe0\xa4\xbe,gA'
p1945
ssbsg34
I00
sg35
I00
sg36
Nsg37
Nsg38
I6
sg39
I2
sg40
Nsg41
Nsg42
S'VAUX'
p1946
sg44
g1933
sg45
I00
sba(issf_api
Word
p1947
(dp1948
g6
I00
sg7
V\u0964
p1949
sg9
(issf_api
FeatureSet
p1950
(dp1951
g12
(dp1952
S'posn'
p1953
S'260'
p1954
sS'name'
p1955
S'\xe0\xa5\xa4'
p1956
sS'af'
p1957
S'\xe0\xa5\xa4,punc,,,,,,'
p1958
sS'chunkid'
p1959
S'BLK'
p1960
sS'drel'
p1961
S'rsym:VGF'
p1962
sS'chunktype'
p1963
S'head:BLK'
p1964
ssbsg34
I00
sg35
I00
sg36
Nsg37
Nsg38
I7
sg39
I2
sg40
Nsg41
Nsg42
S'SYM'
p1965
sg44
g1950
sg45
I00
sba(issf_api
Word
p1966
(dp1967
g6
I00
sg7
V\u091c\u092c\u0915\u093f
p1968
sg9
(issf_api
FeatureSet
p1969
(dp1970
g12
(dp1971
S'posn'
p1972
S'10'
p1973
sS'chunkid'
p1974
S'CCP'
p1975
sS'name'
p1976
S'\xe0\xa4\x9c\xe0\xa4\xac\xe0\xa4\x95\xe0\xa4\xbf'
p1977
sS'chunktype'
p1978
S'head:CCP'
p1979
sS'af'
p1980
S'\xe0\xa4\x9c\xe0\xa4\xac\xe0\xa4\x95\xe0\xa4\xbf,avy,,,,,,'
p1981
ssbsg34
I00
sg35
I00
sg36
Nsg37
Nsg38
I0
sg39
I3
sg40
Nsg41
Nsg42
S'CC'
p1982
sg44
g1969
sg45
I00
sba(issf_api
Word
p1983
(dp1984
g6
I00
sg7
V\u0936\u0947\u0937
p1985
sg9
(issf_api
FeatureSet
p1986
(dp1987
g12
(dp1988
S'posn'
p1989
S'20'
p1990
sS'name'
p1991
S'\xe0\xa4\xb6\xe0\xa5\x87\xe0\xa4\xb7'
p1992
sS'drel'
p1993
S'nmod__adj:NP'
p1994
sS'chunktype'
p1995
S'child:NP'
p1996
sS'af'
p1997
S'\xe0\xa4\xb6\xe0\xa5\x87\xe0\xa4\xb7,adj,any,any,,d,,'
p1998
ssbsg34
I00
sg35
I00
sg36
Nsg37
Nsg38
I1
sg39
I3
sg40
Nsg41
Nsg42
S'JJ'
p1999
sg44
g1986
sg45
I00
sba(issf_api
Word
p2000
(dp2001
g6
I00
sg7
V\u0915\u0930\u094d\u092e\u091a\u093e\u0930\u0940
p2002
sg9
(issf_api
FeatureSet
p2003
(dp2004
g12
(dp2005
S'posn'
p2006
S'30'
p2007
sS'name'
p2008
S'\xe0\xa4\x95\xe0\xa4\xb0\xe0\xa5\x8d\xe0\xa4\xae\xe0\xa4\x9a\xe0\xa4\xbe\xe0\xa4\xb0\xe0\xa5\x80'
p2009
sS'af'
p2010
S'\xe0\xa4\x95\xe0\xa4\xb0\xe0\xa5\x8d\xe0\xa4\xae\xe0\xa4\x9a\xe0\xa4\xbe\xe0\xa4\xb0\xe0\xa5\x80,n,m,pl,3,d,0,0'
p2011
sS'chunkid'
p2012
S'NP'
p2013
sS'drel'
p2014
S'k1:VGF'
p2015
sS'chunktype'
p2016
S'head:NP'
p2017
ssbsg34
I00
sg35
I00
sg36
Nsg37
Nsg38
I1
sg39
I3
sg40
Nsg41
Nsg42
S'NN'
p2018
sg44
g2003
sg45
I00
sba(issf_api
Word
p2019
(dp2020
g6
I00
sg7
V\u092a\u094d\u0930\u093e\u0927\u093f\u0915\u0930\u0923
p2021
sg9
(issf_api
FeatureSet
p2022
(dp2023
g12
(dp2024
S'posn'
p2025
S'40'
p2026
sS'name'
p2027
S'\xe0\xa4\xaa\xe0\xa5\x8d\xe0\xa4\xb0\xe0\xa4\xbe\xe0\xa4\xa7\xe0\xa4\xbf\xe0\xa4\x95\xe0\xa4\xb0\xe0\xa4\xa3'
p2028
sS'af'
p2029
S'\xe0\xa4\xaa\xe0\xa5\x8d\xe0\xa4\xb0\xe0\xa4\xbe\xe0\xa4\xa7\xe0\xa4\xbf\xe0\xa4\x95\xe0\xa4\xb0\xe0\xa4\xa3,n,m,sg,3,o,0_\xe0\xa4\xae\xe0\xa5\x87\xe0\xa4\x82,0'
p2030
sS'chunkid'
p2031
S'NP2'
p2032
sS'drel'
p2033
S'k7:VGF'
p2034
sS'vpos'
p2035
S'vib_2_RP'
p2036
sS'chunktype'
p2037
S'head:NP2'
p2038
ssbsg34
I00
sg35
I00
sg36
Nsg37
Nsg38
I2
sg39
I3
sg40
Nsg41
Nsg42
S'NN'
p2039
sg44
g2022
sg45
I00
sba(issf_api
Word
p2040
(dp2041
g6
I00
sg7
V\u092e\u0947\u0902
p2042
sg9
(issf_api
FeatureSet
p2043
(dp2044
g12
(dp2045
S'posn'
p2046
S'50'
p2047
sS'name'
p2048
S'\xe0\xa4\xae\xe0\xa5\x87\xe0\xa4\x82'
p2049
sS'drel'
p2050
S'lwg__psp:NP2'
p2051
sS'chunktype'
p2052
S'child:NP2'
p2053
sS'af'
p2054
S'\xe0\xa4\xae\xe0\xa5\x87\xe0\xa4\x82,psp,,,,,,'
p2055
ssbsg34
I00
sg35
I00
sg36
Nsg37
Nsg38
I2
sg39
I3
sg40
Nsg41
Nsg42
S'PSP'
p2056
sg44
g2043
sg45
I00
sba(issf_api
Word
p2057
(dp2058
g6
I00
sg7
V\u0939\u0940
p2059
sg9
(issf_api
FeatureSet
p2060
(dp2061
g12
(dp2062
S'posn'
p2063
S'60'
p2064
sS'name'
p2065
S'\xe0\xa4\xb9\xe0\xa5\x80'
p2066
sS'drel'
p2067
S'lwg__rp:NP2'
p2068
sS'chunktype'
p2069
S'child:NP2'
p2070
sS'af'
p2071
S'\xe0\xa4\xb9\xe0\xa5\x80,avy,,,,,,'
p2072
ssbsg34
I00
sg35
I00
sg36
Nsg37
Nsg38
I2
sg39
I3
sg40
Nsg41
Nsg42
S'RP'
p2073
sg44
g2060
sg45
I00
sba(issf_api
Word
p2074
(dp2075
g6
I00
sg7
V\u0930\u0939\u0947\u0902\u0917\u0947
p2076
sg9
(issf_api
FeatureSet
p2077
(dp2078
g12
(dp2079
S'posn'
p2080
S'70'
p2081
sS'name'
p2082
S'\xe0\xa4\xb0\xe0\xa4\xb9\xe0\xa5\x87\xe0\xa4\x82\xe0\xa4\x97\xe0\xa5\x87'
p2083
sS'af'
p2084
S'\xe0\xa4\xb0\xe0\xa4\xb9,v,m,pl,3,,\xe0\xa4\x97\xe0\xa4\xbe,gA'
p2085
sS'chunkid'
p2086
S'VGF'
p2087
sS'stype'
p2088
S'declarative'
p2089
sS'drel'
p2090
S'ccof:CCP'
p2091
sS'voicetype'
p2092
S'active'
p2093
sS'chunktype'
p2094
S'head:VGF'
p2095
ssbsg34
I00
sg35
I00
sg36
Nsg37
Nsg38
I3
sg39
I3
sg40
Nsg41
Nsg42
S'VM'
p2096
sg44
g2077
sg45
I00
sba(issf_api
Word
p2097
(dp2098
g6
I00
sg7
V\u0964
p2099
sg9
(issf_api
FeatureSet
p2100
(dp2101
g12
(dp2102
S'posn'
p2103
S'80'
p2104
sS'name'
p2105
S'\xe0\xa5\xa4'
p2106
sS'af'
p2107
S'\xe0\xa5\xa4,punc,,,,,,'
p2108
sS'chunkid'
p2109
S'BLK'
p2110
sS'drel'
p2111
S'rsym:CCP'
p2112
sS'chunktype'
p2113
S'head:BLK'
p2114
ssbsg34
I00
sg35
I00
sg36
Nsg37
Nsg38
I4
sg39
I3
sg40
Nsg41
Nsg42
S'SYM'
p2115
sg44
g2100
sg45
I00
sba(issf_api
Word
p2116
(dp2117
g6
I00
sg7
V\u091c\u0940\u0913\u090f\u092e
p2118
sg9
(issf_api
FeatureSet
p2119
(dp2120
g12
(dp2121
S'crefhead'
p2122
S'\xe0\xa4\x9c\xe0\xa5\x80\xe0\xa4\x93\xe0\xa4\x8f\xe0\xa4\xae:i14'
p2123
sS'posn'
p2124
S'10'
p2125
sS'name'
p2126
S'\xe0\xa4\x9c\xe0\xa5\x80\xe0\xa4\x93\xe0\xa4\x8f\xe0\xa4\xae'
p2127
sS'af'
p2128
S'\xe0\xa4\x9c\xe0\xa5\x80\xe0\xa4\x93\xe0\xa4\x8f\xe0\xa4\xae,n,m,sg,3,o,0_\xe0\xa4\xae\xe0\xa5\x87\xe0\xa4\x82,0'
p2129
sS'chunkid'
p2130
S'NP'
p2131
sS'creftype'
p2132
S'Coreference-Identity:i9'
p2133
sS'chunktype'
p2134
S'head:NP'
p2135
sS'vpos'
p2136
S'vib_2'
p2137
sS'cref'
p2138
S'i14%1:t5'
p2139
sS'drel'
p2140
S'k7:VGF'
p2141
ssbsg34
I00
sg35
I00
sg36
Nsg37
Nsg38
I0
sg39
I4
sg40
Nsg41
Nsg42
S'NNP'
p2142
sg44
g2119
sg45
I00
sba(issf_api
Word
p2143
(dp2144
g6
I00
sg7
V\u092e\u0947\u0902
p2145
sg9
(issf_api
FeatureSet
p2146
(dp2147
g12
(dp2148
S'posn'
p2149
S'20'
p2150
sS'name'
p2151
S'\xe0\xa4\xae\xe0\xa5\x87\xe0\xa4\x82'
p2152
sS'drel'
p2153
S'lwg__psp:NP'
p2154
sS'chunktype'
p2155
S'child:NP'
p2156
sS'af'
p2157
S'\xe0\xa4\xae\xe0\xa5\x87\xe0\xa4\x82,psp,,,,,,'
p2158
ssbsg34
I00
sg35
I00
sg36
Nsg37
Nsg38
I0
sg39
I4
sg40
Nsg41
Nsg42
S'PSP'
p2159
sg44
g2146
sg45
I00
sba(issf_api
Word
p2160
(dp2161
g6
I00
sg7
V\u0915\u0947\u0902\u0926\u094d\u0930\u0940\u092f
p2162
sg9
(issf_api
FeatureSet
p2163
(dp2164
g12
(dp2165
S'posn'
p2166
S'130'
p2167
sS'name'
p2168
S'\xe0\xa4\x95\xe0\xa5\x87\xe0\xa4\x82\xe0\xa4\xa6\xe0\xa5\x8d\xe0\xa4\xb0\xe0\xa5\x80\xe0\xa4\xaf'
p2169
sS'af'
p2170
S'\xe0\xa4\x95\xe0\xa5\x87\xe0\xa4\x82\xe0\xa4\xa6\xe0\xa5\x8d\xe0\xa4\xb0\xe0\xa5\x80\xe0\xa4\xaf,adj,any,any,,d,,'
p2171
sS'drel'
p2172
S'pof__cn:NP2'
p2173
sS'chunktype'
p2174
S'child:NP2'
p2175
sS'cref'
p2176
S'i15%0:t7'
p2177
ssbsg34
I00
sg35
I00
sg36
Nsg37
Nsg38
I1
sg39
I4
sg40
Nsg41
Nsg42
S'NNPC'
p2178
sg44
g2163
sg45
I00
sba(issf_api
Word
p2179
(dp2180
g6
I00
sg7
V\u0935\u093f\u0927\u093f
p2181
sg9
(issf_api
FeatureSet
p2182
(dp2183
g12
(dp2184
S'posn'
p2185
S'40'
p2186
sS'name'
p2187
S'\xe0\xa4\xb5\xe0\xa4\xbf\xe0\xa4\xa7\xe0\xa4\xbf'
p2188
sS'af'
p2189
S'\xe0\xa4\xb5\xe0\xa4\xbf\xe0\xa4\xa7\xe0\xa4\xbf,n,f,sg,3,d,0,0'
p2190
sS'drel'
p2191
S'pof__cn:NP2'
p2192
sS'chunktype'
p2193
S'child:NP2'
p2194
sS'cref'
p2195
S'i15%0:t7'
p2196
ssbsg34
I00
sg35
I00
sg36
Nsg37
Nsg38
I1
sg39
I4
sg40
Nsg41
Nsg42
S'NNPC'
p2197
sg44
g2182
sg45
I00
sba(issf_api
Word
p2198
(dp2199
g6
I00
sg7
V\u092e\u0902\u0924\u094d\u0930\u0940
p2200
sg9
(issf_api
FeatureSet
p2201
(dp2202
g12
(dp2203
S'crefhead'
p2204
S'\xe0\xa4\xae\xe0\xa4\x82\xe0\xa4\xa4\xe0\xa5\x8d\xe0\xa4\xb0\xe0\xa5\x80:i15'
p2205
sS'posn'
p2206
S'50'
p2207
sS'name'
p2208
S'\xe0\xa4\xae\xe0\xa4\x82\xe0\xa4\xa4\xe0\xa5\x8d\xe0\xa4\xb0\xe0\xa5\x80'
p2209
sS'af'
p2210
S'\xe0\xa4\xae\xe0\xa4\x82\xe0\xa4\xa4\xe0\xa5\x8d\xe0\xa4\xb0\xe0\xa5\x80,n,m,sg,3,d,0,0'
p2211
sS'drel'
p2212
S'nmod__adj:NP2'
p2213
sS'chunktype'
p2214
S'child:NP2'
p2215
sS'cref'
p2216
S'i15%1:t7'
p2217
ssbsg34
I00
sg35
I00
sg36
Nsg37
Nsg38
I1
sg39
I4
sg40
Nsg41
Nsg42
S'NNP'
p2218
sg44
g2201
sg45
I00
sba(issf_api
Word
p2219
(dp2220
g6
I00
sg7
V\u090f\u091a.
p2221
sg9
(issf_api
FeatureSet
p2222
(dp2223
g12
(dp2224
S'posn'
p2225
S'60'
p2226
sS'name'
p2227
S'\xe0\xa4\x8f\xe0\xa4\x9a.'
p2228
sS'af'
p2229
S'\xe0\xa4\x8f\xe0\xa4\x9a.,n,m,sg,3,d,0,0'
p2230
sS'drel'
p2231
S'pof__cn:NP2'
p2232
sS'chunktype'
p2233
S'child:NP2'
p2234
sS'cref'
p2235
S'i16%0:t7'
p2236
ssbsg34
I00
sg35
I00
sg36
Nsg37
Nsg38
I1
sg39
I4
sg40
Nsg41
Nsg42
S'NNPC'
p2237
sg44
g2222
sg45
I00
sba(issf_api
Word
p2238
(dp2239
g6
I00
sg7
V\u0906\u0930.
p2240
sg9
(issf_api
FeatureSet
p2241
(dp2242
g12
(dp2243
S'posn'
p2244
S'70'
p2245
sS'name'
p2246
S'\xe0\xa4\x86\xe0\xa4\xb0.'
p2247
sS'af'
p2248
S'\xe0\xa4\x86\xe0\xa4\xb0.,n,m,sg,3,d,0,0'
p2249
sS'drel'
p2250
S'pof__cn:NP2'
p2251
sS'chunktype'
p2252
S'child:NP2'
p2253
sS'cref'
p2254
S'i16%0:t7'
p2255
ssbsg34
I00
sg35
I00
sg36
Nsg37
Nsg38
I1
sg39
I4
sg40
Nsg41
Nsg42
S'NNPC'
p2256
sg44
g2241
sg45
I00
sba(issf_api
Word
p2257
(dp2258
g6
I00
sg7
V\u092d\u093e\u0930\u0926\u094d\u0935\u093e\u091c
p2259
sg9
(issf_api
FeatureSet
p2260
(dp2261
g12
(dp2262
S'crefhead'
p2263
S'\xe0\xa4\xad\xe0\xa4\xbe\xe0\xa4\xb0\xe0\xa4\xa6\xe0\xa5\x8d\xe0\xa4\xb5\xe0\xa4\xbe\xe0\xa4\x9c:i16'
p2264
sS'posn'
p2265
S'80'
p2266
sS'name'
p2267
S'\xe0\xa4\xad\xe0\xa4\xbe\xe0\xa4\xb0\xe0\xa4\xa6\xe0\xa5\x8d\xe0\xa4\xb5\xe0\xa4\xbe\xe0\xa4\x9c'
p2268
sS'af'
p2269
S'\xe0\xa4\xad\xe0\xa4\xbe\xe0\xa4\xb0\xe0\xa4\xa6\xe0\xa5\x8d\xe0\xa4\xb5\xe0\xa4\xbe\xe0\xa4\x9c,n,any,sg,3,d,0,0'
p2270
sS'chunkid'
p2271
S'NP2'
p2272
sS'creftype'
p2273
S'Coreference-NounComplement:i15'
p2274
sS'chunktype'
p2275
S'head:NP2'
p2276
sS'crefchainhead'
p2277
S'i16:t7'
p2278
sS'cref'
p2279
S'i16%1:t7'
p2280
sS'drel'
p2281
S'ccof:CCP'
p2282
ssbsg34
I00
sg35
I00
sg36
Nsg37
Nsg38
I1
sg39
I4
sg40
Nsg41
Nsg42
S'NNP'
p2283
sg44
g2260
sg45
I00
sba(issf_api
Word
p2284
(dp2285
g6
I00
sg7
V,
p2286
sg9
(issf_api
FeatureSet
p2287
(dp2288
g12
(dp2289
S'posn'
p2290
S'90'
p2291
sS'name'
p2292
S','
p2293
sS'drel'
p2294
S'rsym:NP2'
p2295
sS'chunktype'
p2296
S'child:NP2'
p2297
sS'af'
p2298
S'COMMA,punc,,,,,,'
p2299
ssbsg34
I00
sg35
I00
sg36
Nsg37
Nsg38
I1
sg39
I4
sg40
Nsg41
Nsg42
S'SYM'
p2300
sg44
g2287
sg45
I00
sba(issf_api
Word
p2301
(dp2302
g6
I00
sg7
V\u0915\u0947\u0902\u0926\u094d\u0930\u0940\u092f
p2303
sg9
(issf_api
FeatureSet
p2304
(dp2305
g12
(dp2306
S'posn'
p2307
S'130'
p2308
sS'name'
p2309
S'\xe0\xa4\x95\xe0\xa5\x87\xe0\xa4\x82\xe0\xa4\xa6\xe0\xa5\x8d\xe0\xa4\xb0\xe0\xa5\x80\xe0\xa4\xaf2'
p2310
sS'af'
p2311
S'\xe0\xa4\x95\xe0\xa5\x87\xe0\xa4\x82\xe0\xa4\xa6\xe0\xa5\x8d\xe0\xa4\xb0\xe0\xa5\x80\xe0\xa4\xaf,adj,any,any,,d,,'
p2312
sS'drel'
p2313
S'pof__cn:NP3'
p2314
sS'chunktype'
p2315
S'child:NP3'
p2316
sS'cref'
p2317
S'i17%0:t8'
p2318
ssbsg34
I00
sg35
I00
sg36
Nsg37
Nsg38
I2
sg39
I4
sg40
Nsg41
Nsg42
S'NNPC'
p2319
sg44
g2304
sg45
I00
sba(issf_api
Word
p2320
(dp2321
g6
I00
sg7
V\u0928\u093e\u0917\u0930\u093f\u0915
p2322
sg9
(issf_api
FeatureSet
p2323
(dp2324
g12
(dp2325
S'posn'
p2326
S'110'
p2327
sS'name'
p2328
S'\xe0\xa4\xa8\xe0\xa4\xbe\xe0\xa4\x97\xe0\xa4\xb0\xe0\xa4\xbf\xe0\xa4\x95'
p2329
sS'af'
p2330
S'\xe0\xa4\xa8\xe0\xa4\xbe\xe0\xa4\x97\xe0\xa4\xb0\xe0\xa4\xbf\xe0\xa4\x95,n,m,sg,3,d,0,0'
p2331
sS'drel'
p2332
S'pof__cn:NP3'
p2333
sS'chunktype'
p2334
S'child:NP3'
p2335
sS'cref'
p2336
S'i17%0:t8'
p2337
ssbsg34
I00
sg35
I00
sg36
Nsg37
Nsg38
I2
sg39
I4
sg40
Nsg41
Nsg42
S'NNPC'
p2338
sg44
g2323
sg45
I00
sba(issf_api
Word
p2339
(dp2340
g6
I00
sg7
V\u0909\u0921\u094d\u0921\u092f\u0928
p2341
sg9
(issf_api
FeatureSet
p2342
(dp2343
g12
(dp2344
S'posn'
p2345
S'120'
p2346
sS'name'
p2347
S'\xe0\xa4\x89\xe0\xa4\xa1\xe0\xa5\x8d\xe0\xa4\xa1\xe0\xa4\xaf\xe0\xa4\xa8'
p2348
sS'af'
p2349
S'\xe0\xa4\x89\xe0\xa4\xa1\xe0\xa5\x8d\xe0\xa4\xa1\xe0\xa4\xaf\xe0\xa4\xa8,n,m,sg,3,d,0,0'
p2350
sS'drel'
p2351
S'pof__cn:NP3'
p2352
sS'chunktype'
p2353
S'child:NP3'
p2354
sS'cref'
p2355
S'i17%0:t8'
p2356
ssbsg34
I00
sg35
I00
sg36
Nsg37
Nsg38
I2
sg39
I4
sg40
Nsg41
Nsg42
S'NNPC'
p2357
sg44
g2342
sg45
I00
sba(issf_api
Word
p2358
(dp2359
g6
I00
sg7
V\u092e\u0902\u0924\u094d\u0930\u0940
p2360
sg9
(issf_api
FeatureSet
p2361
(dp2362
g12
(dp2363
S'crefhead'
p2364
S'\xe0\xa4\xae\xe0\xa4\x82\xe0\xa4\xa4\xe0\xa5\x8d\xe0\xa4\xb0\xe0\xa5\x80:i17'
p2365
sS'posn'
p2366
S'130'
p2367
sS'name'
p2368
S'\xe0\xa4\xae\xe0\xa4\x82\xe0\xa4\xa4\xe0\xa5\x8d\xe0\xa4\xb0\xe0\xa5\x802'
p2369
sS'af'
p2370
S'\xe0\xa4\xae\xe0\xa4\x82\xe0\xa4\xa4\xe0\xa5\x8d\xe0\xa4\xb0\xe0\xa5\x80,n,m,sg,3,d,0,0'
p2371
sS'drel'
p2372
S'nmod__adj:NP3'
p2373
sS'chunktype'
p2374
S'child:NP3'
p2375
sS'cref'
p2376
S'i17%1:t8'
p2377
ssbsg34
I00
sg35
I00
sg36
Nsg37
Nsg38
I2
sg39
I4
sg40
Nsg41
Nsg42
S'NNP'
p2378
sg44
g2361
sg45
I00
sba(issf_api
Word
p2379
(dp2380
g6
I00
sg7
V\u092a\u094d\u0930\u092b\u0941\u0932\u094d\u0932
p2381
sg9
(issf_api
FeatureSet
p2382
(dp2383
g12
(dp2384
S'posn'
p2385
S'140'
p2386
sS'name'
p2387
S'\xe0\xa4\xaa\xe0\xa5\x8d\xe0\xa4\xb0\xe0\xa4\xab\xe0\xa5\x81\xe0\xa4\xb2\xe0\xa5\x8d\xe0\xa4\xb2'
p2388
sS'af'
p2389
S'\xe0\xa4\xaa\xe0\xa5\x8d\xe0\xa4\xb0\xe0\xa4\xab\xe0\xa5\x81\xe0\xa4\xb2\xe0\xa5\x8d\xe0\xa4\xb2,n,m,sg,3,d,0,0'
p2390
sS'drel'
p2391
S'pof__cn:NP3'
p2392
sS'chunktype'
p2393
S'child:NP3'
p2394
sS'cref'
p2395
S'i18%0:t8'
p2396
ssbsg34
I00
sg35
I00
sg36
Nsg37
Nsg38
I2
sg39
I4
sg40
Nsg41
Nsg42
S'NNPC'
p2397
sg44
g2382
sg45
I00
sba(issf_api
Word
p2398
(dp2399
g6
I00
sg7
V\u092a\u091f\u0947\u0932
p2400
sg9
(issf_api
FeatureSet
p2401
(dp2402
g12
(dp2403
S'crefhead'
p2404
S'\xe0\xa4\xaa\xe0\xa4\x9f\xe0\xa5\x87\xe0\xa4\xb2:i18'
p2405
sS'posn'
p2406
S'150'
p2407
sS'name'
p2408
S'\xe0\xa4\xaa\xe0\xa4\x9f\xe0\xa5\x87\xe0\xa4\xb2'
p2409
sS'af'
p2410
S'\xe0\xa4\xaa\xe0\xa4\x9f\xe0\xa5\x87\xe0\xa4\xb2,n,any,sg,3,d,0,0'
p2411
sS'chunkid'
p2412
S'NP3'
p2413
sS'creftype'
p2414
S'Coreference-NounComplement:i17'
p2415
sS'chunktype'
p2416
S'head:NP3'
p2417
sS'crefchainhead'
p2418
S'i18:t8'
p2419
sS'cref'
p2420
S'i18%1:t8'
p2421
sS'drel'
p2422
S'ccof:CCP'
p2423
ssbsg34
I00
sg35
I00
sg36
Nsg37
Nsg38
I2
sg39
I4
sg40
Nsg41
Nsg42
S'NNP'
p2424
sg44
g2401
sg45
I00
sba(issf_api
Word
p2425
(dp2426
g6
I00
sg7
V\u0914\u0930
p2427
sg9
(issf_api
FeatureSet
p2428
(dp2429
g12
(dp2430
S'posn'
p2431
S'160'
p2432
sS'name'
p2433
S'\xe0\xa4\x94\xe0\xa4\xb0'
p2434
sS'af'
p2435
S'\xe0\xa4\x94\xe0\xa4\xb0,avy,,,,,,'
p2436
sS'chunkid'
p2437
S'CCP'
p2438
sS'drel'
p2439
S'k1:VGF'
p2440
sS'chunktype'
p2441
S'head:CCP'
p2442
ssbsg34
I00
sg35
I00
sg36
Nsg37
Nsg38
I3
sg39
I4
sg40
Nsg41
Nsg42
S'CC'
p2443
sg44
g2428
sg45
I00
sba(issf_api
Word
p2444
(dp2445
g6
I00
sg7
V\u0915\u0947\u0902\u0926\u094d\u0930\u0940\u092f
p2446
sg9
(issf_api
FeatureSet
p2447
(dp2448
g12
(dp2449
S'posn'
p2450
S'130'
p2451
sS'name'
p2452
S'\xe0\xa4\x95\xe0\xa5\x87\xe0\xa4\x82\xe0\xa4\xa6\xe0\xa5\x8d\xe0\xa4\xb0\xe0\xa5\x80\xe0\xa4\xaf3'
p2453
sS'af'
p2454
S'\xe0\xa4\x95\xe0\xa5\x87\xe0\xa4\x82\xe0\xa4\xa6\xe0\xa5\x8d\xe0\xa4\xb0\xe0\xa5\x80\xe0\xa4\xaf,adj,any,any,,d,,'
p2455
sS'drel'
p2456
S'pof__cn:NP4'
p2457
sS'chunktype'
p2458
S'child:NP4'
p2459
sS'cref'
p2460
S'i19%0:t9'
p2461
ssbsg34
I00
sg35
I00
sg36
Nsg37
Nsg38
I4
sg39
I4
sg40
Nsg41
Nsg42
S'NNPC'
p2462
sg44
g2447
sg45
I00
sba(issf_api
Word
p2463
(dp2464
g6
I00
sg7
V\u0935\u093f\u0924\u094d\u0924
p2465
sg9
(issf_api
FeatureSet
p2466
(dp2467
g12
(dp2468
S'posn'
p2469
S'180'
p2470
sS'name'
p2471
S'\xe0\xa4\xb5\xe0\xa4\xbf\xe0\xa4\xa4\xe0\xa5\x8d\xe0\xa4\xa4'
p2472
sS'af'
p2473
S'\xe0\xa4\xb5\xe0\xa4\xbf\xe0\xa4\xa4\xe0\xa5\x8d\xe0\xa4\xa4,n,m,sg,3,d,0,0'
p2474
sS'drel'
p2475
S'pof__cn:NP4'
p2476
sS'chunktype'
p2477
S'child:NP4'
p2478
sS'cref'
p2479
S'i19%0:t9'
p2480
ssbsg34
I00
sg35
I00
sg36
Nsg37
Nsg38
I4
sg39
I4
sg40
Nsg41
Nsg42
S'NNPC'
p2481
sg44
g2466
sg45
I00
sba(issf_api
Word
p2482
(dp2483
g6
I00
sg7
V\u092e\u0902\u0924\u094d\u0930\u0940
p2484
sg9
(issf_api
FeatureSet
p2485
(dp2486
g12
(dp2487
S'crefhead'
p2488
S'\xe0\xa4\xae\xe0\xa4\x82\xe0\xa4\xa4\xe0\xa5\x8d\xe0\xa4\xb0\xe0\xa5\x80:i19'
p2489
sS'posn'
p2490
S'190'
p2491
sS'name'
p2492
S'\xe0\xa4\xae\xe0\xa4\x82\xe0\xa4\xa4\xe0\xa5\x8d\xe0\xa4\xb0\xe0\xa5\x803'
p2493
sS'af'
p2494
S'\xe0\xa4\xae\xe0\xa4\x82\xe0\xa4\xa4\xe0\xa5\x8d\xe0\xa4\xb0\xe0\xa5\x80,n,m,sg,3,d,0,0'
p2495
sS'drel'
p2496
S'nmod__adj:NP4'
p2497
sS'chunktype'
p2498
S'child:NP4'
p2499
sS'cref'
p2500
S'i19%1:t9'
p2501
ssbsg34
I00
sg35
I00
sg36
Nsg37
Nsg38
I4
sg39
I4
sg40
Nsg41
Nsg42
S'NNP'
p2502
sg44
g2485
sg45
I00
sba(issf_api
Word
p2503
(dp2504
g6
I00
sg7
V\u092a\u0940.
p2505
sg9
(issf_api
FeatureSet
p2506
(dp2507
g12
(dp2508
S'posn'
p2509
S'200'
p2510
sS'name'
p2511
S'\xe0\xa4\xaa\xe0\xa5\x80.'
p2512
sS'af'
p2513
S'\xe0\xa4\xaa\xe0\xa5\x80.,n,m,sg,3,d,0,0'
p2514
sS'drel'
p2515
S'pof__cn:NP4'
p2516
sS'chunktype'
p2517
S'child:NP4'
p2518
sS'cref'
p2519
S'i20%0:t9'
p2520
ssbsg34
I00
sg35
I00
sg36
Nsg37
Nsg38
I4
sg39
I4
sg40
Nsg41
Nsg42
S'NNPC'
p2521
sg44
g2506
sg45
I00
sba(issf_api
Word
p2522
(dp2523
g6
I00
sg7
V\u091a\u093f\u0926\u0902\u092c\u0930\u092e
p2524
sg9
(issf_api
FeatureSet
p2525
(dp2526
g12
(dp2527
S'crefhead'
p2528
S'\xe0\xa4\x9a\xe0\xa4\xbf\xe0\xa4\xa6\xe0\xa4\x82\xe0\xa4\xac\xe0\xa4\xb0\xe0\xa4\xae:i20'
p2529
sS'posn'
p2530
S'210'
p2531
sS'name'
p2532
S'\xe0\xa4\x9a\xe0\xa4\xbf\xe0\xa4\xa6\xe0\xa4\x82\xe0\xa4\xac\xe0\xa4\xb0\xe0\xa4\xae'
p2533
sS'af'
p2534
S'\xe0\xa4\x9a\xe0\xa4\xbf\xe0\xa4\xa6\xe0\xa4\x82\xe0\xa4\xac\xe0\xa4\xb0\xe0\xa4\xae,n,m,sg,3,d,0,0'
p2535
sS'chunkid'
p2536
S'NP4'
p2537
sS'creftype'
p2538
S'Coreference-NounComplement:i19'
p2539
sS'chunktype'
p2540
S'head:NP4'
p2541
sS'crefchainhead'
p2542
S'i20:t9'
p2543
sS'cref'
p2544
S'i20%1:t9'
p2545
sS'drel'
p2546
S'ccof:CCP'
p2547
ssbsg34
I00
sg35
I00
sg36
Nsg37
Nsg38
I4
sg39
I4
sg40
Nsg41
Nsg42
S'NNP'
p2548
sg44
g2525
sg45
I00
sba(issf_api
Word
p2549
(dp2550
g6
I00
sg7
V\u0936\u093e\u092e\u093f\u0932
p2551
sg9
(issf_api
FeatureSet
p2552
(dp2553
g12
(dp2554
S'posn'
p2555
S'220'
p2556
sS'name'
p2557
S'\xe0\xa4\xb6\xe0\xa4\xbe\xe0\xa4\xae\xe0\xa4\xbf\xe0\xa4\xb2'
p2558
sS'af'
p2559
S'\xe0\xa4\xb6\xe0\xa4\xbe\xe0\xa4\xae\xe0\xa4\xbf\xe0\xa4\xb2,adj,any,any,,,,'
p2560
sS'chunkid'
p2561
S'JJP'
p2562
sS'drel'
p2563
S'k1s:VGF'
p2564
sS'chunktype'
p2565
S'head:JJP'
p2566
ssbsg34
I00
sg35
I00
sg36
Nsg37
Nsg38
I5
sg39
I4
sg40
Nsg41
Nsg42
S'JJ'
p2567
sg44
g2552
sg45
I00
sba(issf_api
Word
p2568
(dp2569
g6
I00
sg7
V\u0939\u0948\u0902
p2570
sg9
(issf_api
FeatureSet
p2571
(dp2572
g12
(dp2573
S'posn'
p2574
S'230'
p2575
sS'name'
p2576
S'\xe0\xa4\xb9\xe0\xa5\x88\xe0\xa4\x82'
p2577
sS'af'
p2578
S'\xe0\xa4\xb9\xe0\xa5\x88,v,any,pl,3,,\xe0\xa4\xb9\xe0\xa5\x88,hE'
p2579
sS'chunkid'
p2580
S'VGF'
p2581
sS'chunktype'
p2582
S'head:VGF'
p2583
sS'voicetype'
p2584
S'active'
p2585
sS'stype'
p2586
S'declarative'
p2587
ssbsg34
I00
sg35
I00
sg36
Nsg37
Nsg38
I6
sg39
I4
sg40
Nsg41
Nsg42
S'VM'
p2588
sg44
g2571
sg45
I00
sba(issf_api
Word
p2589
(dp2590
g6
I00
sg7
V\u0964
p2591
sg9
(issf_api
FeatureSet
p2592
(dp2593
g12
(dp2594
S'posn'
p2595
S'240'
p2596
sS'name'
p2597
S'\xe0\xa5\xa4'
p2598
sS'af'
p2599
S'\xe0\xa5\xa4,punc,,,,,,'
p2600
sS'chunkid'
p2601
S'BLK'
p2602
sS'drel'
p2603
S'rsym:VGF'
p2604
sS'chunktype'
p2605
S'head:BLK'
p2606
ssbsg34
I00
sg35
I00
sg36
Nsg37
Nsg38
I7
sg39
I4
sg40
Nsg41
Nsg42
S'SYM'
p2607
sg44
g2592
sg45
I00
sbasS'sentenceList'
p2608
(lp2609
(issf_api
Sentence
p2610
(dp2611
S'rootNode'
p2612
(lp2613
sg39
I0
sS'wordNumList'
p2614
(lp2615
I0
aI1
aI2
aI3
aI4
aI5
aI6
aI7
aI8
aI9
aI10
aI11
aI12
aI13
aI14
aI15
aI16
aI17
aI18
aI19
aI20
aI21
aI22
aI23
aI24
aI25
aI26
aI27
aI28
aI29
aI30
aI31
aI32
asS'nodeDict'
p2616
(dp2617
S'FRAGP'
p2618
(issf_api
Node
p2619
(dp2620
S'nodeRelation'
p2621
S'fragof'
p2622
sS'nodeName'
p2623
g2618
sS'nodeParent'
p2624
S'NP10'
p2625
sS'nodeLevel'
p2626
I-1
sg38
I14
sS'childList'
p2627
(lp2628
sbsS'VGNF'
p2629
(issf_api
Node
p2630
(dp2631
g2621
S'vmod'
p2632
sg2623
g2629
sg2624
S'VGF'
p2633
sg2626
I-1
sg38
I8
sg2627
(lp2634
S'NP7'
p2635
aS'NP6'
p2636
asbsS'NP11'
p2637
(issf_api
Node
p2638
(dp2639
g2621
S'rs'
p2640
sg2623
g2637
sg2624
S'NP10'
p2641
sg2626
I-1
sg38
I13
sg2627
(lp2642
sbsS'VGNN'
p2643
(issf_api
Node
p2644
(dp2645
g2621
S'rt'
p2646
sg2623
g2643
sg2624
S'VGF'
p2647
sg2626
I-1
sg38
I10
sg2627
(lp2648
S'NP8'
p2649
asbsS'NP13'
p2650
(issf_api
Node
p2651
(dp2652
g2621
S'pof'
p2653
sg2623
g2650
sg2624
S'VGF'
p2654
sg2626
I-1
sg38
I16
sg2627
(lp2655
sbsS'NP12'
p2656
(issf_api
Node
p2657
(dp2658
g2621
S'k7t'
p2659
sg2623
g2656
sg2624
S'VGF'
p2660
sg2626
I-1
sg38
I15
sg2627
(lp2661
sbsS'CCP'
p2662
(issf_api
Node
p2663
(dp2664
g2621
S'nmod'
p2665
sg2623
g2662
sg2624
S'NP3'
p2666
sg2626
I-1
sg38
I1
sg2627
(lp2667
S'NP'
p2668
aS'NP2'
p2669
asbsS'NP5'
p2670
(issf_api
Node
p2671
(dp2672
g2621
S'r6'
p2673
sg2623
g2670
sg2624
S'NP6'
p2674
sg2626
I-1
sg38
I5
sg2627
(lp2675
sbsS'NP9'
p2676
(issf_api
Node
p2677
(dp2678
g2621
S'r6'
p2679
sg2623
g2676
sg2624
S'NP10'
p2680
sg2626
I-1
sg38
I11
sg2627
(lp2681
sbsg2649
(issf_api
Node
p2682
(dp2683
g2621
S'k2'
p2684
sg2623
g2649
sg2624
S'VGNN'
p2685
sg2626
I-1
sg38
I9
sg2627
(lp2686
sbsS'BLK'
p2687
(issf_api
Node
p2688
(dp2689
g2621
S'rsym'
p2690
sg2623
g2687
sg2624
S'VGF'
p2691
sg2626
I-1
sg38
I18
sg2627
(lp2692
sbsS'NP10'
p2693
(issf_api
Node
p2694
(dp2695
g2621
S'k1'
p2696
sg2623
g2693
sg2624
S'VGF'
p2697
sg2626
I-1
sg38
I12
sg2627
(lp2698
g2618
ag2637
ag2676
asbsg2668
(issf_api
Node
p2699
(dp2700
g2621
S'ccof'
p2701
sg2623
g2668
sg2624
S'CCP'
p2702
sg2626
I-1
sg38
I0
sg2627
(lp2703
sbsS'NP4'
p2704
(issf_api
Node
p2705
(dp2706
g2621
S'k7'
p2707
sg2623
g2704
sg2624
S'VGF'
p2708
sg2626
I-1
sg38
I4
sg2627
(lp2709
S'NP3'
p2710
asbsg2635
(issf_api
Node
p2711
(dp2712
g2621
S'k5'
p2713
sg2623
g2635
sg2624
S'VGNF'
p2714
sg2626
I-1
sg38
I7
sg2627
(lp2715
sbsg2636
(issf_api
Node
p2716
(dp2717
g2621
S'k2'
p2718
sg2623
g2636
sg2624
S'VGNF'
p2719
sg2626
I-1
sg38
I6
sg2627
(lp2720
g2670
asbsS'VGF'
p2721
(issf_api
Node
p2722
(dp2723
g2621
S'None'
p2724
sg2623
g2721
sg2624
g2724
sg2626
I-1
sg38
I17
sg2627
(lp2725
g2629
ag2643
ag2650
ag2656
ag2687
ag2693
ag2704
asbsg2710
(issf_api
Node
p2726
(dp2727
g2621
S'r6'
p2728
sg2623
g2710
sg2624
S'NP4'
p2729
sg2626
I-1
sg38
I3
sg2627
(lp2730
g2662
asbsg2669
(issf_api
Node
p2731
(dp2732
g2621
S'ccof'
p2733
sg2623
g2669
sg2624
S'CCP'
p2734
sg2626
I-1
sg38
I2
sg2627
(lp2735
sbssS'chunkList'
p2736
(lp2737
(issf_api
Chunk
p2738
(dp2739
g2623
g23
sg38
I0
sS'chunkTag'
p2740
g43
sg39
I0
sg2614
(lp2741
I0
asg44
(issf_api
FeatureSet
p2742
(dp2743
g12
(dp2744
S'name'
p2745
g2668
sS'drel'
p2746
S'ccof:CCP'
p2747
ssbsba(issf_api
Chunk
p2748
(dp2749
g2623
g59
sg38
I1
sg2740
g68
sg39
I0
sg2614
(lp2750
I1
asg44
(issf_api
FeatureSet
p2751
(dp2752
g12
(dp2753
S'name'
p2754
g2662
sS'drel'
p2755
S'nmod:NP3'
p2756
ssbsba(issf_api
Chunk
p2757
(dp2758
g2623
g84
sg38
I2
sg2740
g95
sg39
I0
sg2614
(lp2759
I2
asg44
(issf_api
FeatureSet
p2760
(dp2761
g12
(dp2762
S'name'
p2763
g2669
sS'drel'
p2764
S'ccof:CCP'
p2765
ssbsba(issf_api
Chunk
p2766
(dp2767
g2623
g134
sg38
I3
sg2740
g147
sg39
I0
sg2614
(lp2768
I3
aI4
aI5
asg44
(issf_api
FeatureSet
p2769
(dp2770
g12
(dp2771
S'name'
p2772
g2710
sS'drel'
p2773
S'r6:NP4'
p2774
ssbsba(issf_api
Chunk
p2775
(dp2776
g2623
g180
sg38
I4
sg2740
g191
sg39
I0
sg2614
(lp2777
I6
aI7
asg44
(issf_api
FeatureSet
p2778
(dp2779
g12
(dp2780
S'name'
p2781
g2704
sS'drel'
p2782
S'k7:VGF'
p2783
ssbsba(issf_api
Chunk
p2784
(dp2785
g2623
g256
sg38
I5
sg2740
g263
sg39
I0
sg2614
(lp2786
I8
aI9
aI10
aI11
asg44
(issf_api
FeatureSet
p2787
(dp2788
g12
(dp2789
S'name'
p2790
g2670
sS'drel'
p2791
S'r6:NP6'
p2792
ssbsba(issf_api
Chunk
p2793
(dp2794
g2623
g294
sg38
I6
sg2740
g299
sg39
I0
sg2614
(lp2795
I12
asg44
(issf_api
FeatureSet
p2796
(dp2797
g12
(dp2798
S'name'
p2799
g2636
sS'drel'
p2800
S'k2:VGNF'
p2801
ssbsba(issf_api
Chunk
p2802
(dp2803
g2623
g330
sg38
I7
sg2740
g337
sg39
I0
sg2614
(lp2804
I13
aI14
aI15
asg44
(issf_api
FeatureSet
p2805
(dp2806
g12
(dp2807
S'name'
p2808
g2635
sS'drel'
p2809
S'k5:VGNF'
p2810
ssbsba(issf_api
Chunk
p2811
(dp2812
g2623
g368
sg38
I8
sg2740
g373
sg39
I0
sg2614
(lp2813
I16
asg44
(issf_api
FeatureSet
p2814
(dp2815
g12
(dp2816
S'name'
p2817
g2629
sS'drel'
p2818
S'vmod:VGF'
p2819
ssbsba(issf_api
Chunk
p2820
(dp2821
g2623
g387
sg38
I9
sg2740
g392
sg39
I0
sg2614
(lp2822
I17
asg44
(issf_api
FeatureSet
p2823
(dp2824
g12
(dp2825
S'name'
p2826
g2649
sS'drel'
p2827
S'k2:VGNN'
p2828
ssbsba(issf_api
Chunk
p2829
(dp2830
g2623
g406
sg38
I10
sg2740
g413
sg39
I0
sg2614
(lp2831
I18
aI19
asg44
(issf_api
FeatureSet
p2832
(dp2833
g12
(dp2834
S'name'
p2835
g2643
sS'drel'
p2836
S'rt:VGF'
p2837
ssbsba(issf_api
Chunk
p2838
(dp2839
g2623
g446
sg38
I11
sg2740
g455
sg39
I0
sg2614
(lp2840
I20
aI21
asg44
(issf_api
FeatureSet
p2841
(dp2842
g12
(dp2843
S'name'
p2844
g2676
sS'drel'
p2845
S'r6:NP10'
p2846
ssbsba(issf_api
Chunk
p2847
(dp2848
g2623
g488
sg38
I12
sg2740
g499
sg39
I0
sg2614
(lp2849
I22
asg44
(issf_api
FeatureSet
p2850
(dp2851
g12
(dp2852
S'name'
p2853
g2693
sS'drel'
p2854
S'k1:VGF'
p2855
ssbsba(issf_api
Chunk
p2856
(dp2857
g2623
g532
sg38
I13
sg2740
g541
sg39
I0
sg2614
(lp2858
I23
aI24
aI25
asg44
(issf_api
FeatureSet
p2859
(dp2860
g12
(dp2861
S'name'
p2862
g2637
sS'drel'
p2863
S'rs:NP10'
p2864
ssbsba(issf_api
Chunk
p2865
(dp2866
g2623
g572
sg38
I14
sg2740
g573
sg39
I0
sg2614
(lp2867
I26
asg44
(issf_api
FeatureSet
p2868
(dp2869
g12
(dp2870
S'name'
p2871
g2618
sS'drel'
p2872
S'fragof:NP10'
p2873
ssbsba(issf_api
Chunk
p2874
(dp2875
g2623
g587
sg38
I15
sg2740
g594
sg39
I0
sg2614
(lp2876
I27
aI28
asg44
(issf_api
FeatureSet
p2877
(dp2878
g12
(dp2879
S'name'
p2880
g2656
sS'drel'
p2881
S'k7t:VGF'
p2882
ssbsba(issf_api
Chunk
p2883
(dp2884
g2623
g625
sg38
I16
sg2740
g630
sg39
I0
sg2614
(lp2885
I29
asg44
(issf_api
FeatureSet
p2886
(dp2887
g12
(dp2888
S'name'
p2889
g2650
sS'drel'
p2890
S'pof:VGF'
p2891
ssbsba(issf_api
Chunk
p2892
(dp2893
g2623
g644
sg38
I17
sg2740
g653
sg39
I0
sg2614
(lp2894
I30
aI31
asg44
(issf_api
FeatureSet
p2895
(dp2896
g12
(dp2897
S'name'
p2898
g2721
ssbsba(issf_api
Chunk
p2899
(dp2900
g2623
g684
sg38
I18
sg2740
g689
sg39
I0
sg2614
(lp2901
I32
asg44
(issf_api
FeatureSet
p2902
(dp2903
g12
(dp2904
S'name'
p2905
g2687
sS'drel'
p2906
S'rsym:VGF'
p2907
ssbsbasba(issf_api
Sentence
p2908
(dp2909
g2612
(lp2910
sg39
I1
sg2614
(lp2911
I33
aI34
aI35
aI36
aI37
aI38
aI39
aI40
aI41
aI42
aI43
aI44
aI45
aI46
aI47
aI48
aI49
aI50
aI51
aI52
aI53
aI54
aI55
aI56
aI57
aI58
aI59
aI60
aI61
aI62
aI63
aI64
aI65
aI66
aI67
aI68
aI69
aI70
aI71
aI72
asg2616
(dp2912
S'NP11'
p2913
(issf_api
Node
p2914
(dp2915
g2621
S'r6'
p2916
sg2623
g2913
sg2624
S'NP12'
p2917
sg2626
I-1
sg38
I12
sg2627
(lp2918
S'NP10'
p2919
asbsg2919
(issf_api
Node
p2920
(dp2921
g2621
S'r6'
p2922
sg2623
g2919
sg2624
S'NP11'
p2923
sg2626
I-1
sg38
I11
sg2627
(lp2924
sbsS'NP13'
p2925
(issf_api
Node
p2926
(dp2927
g2621
S'pof'
p2928
sg2623
g2925
sg2624
S'VGF'
p2929
sg2626
I-1
sg38
I14
sg2627
(lp2930
sbsS'NP12'
p2931
(issf_api
Node
p2932
(dp2933
g2621
S'k4'
p2934
sg2623
g2931
sg2624
S'VGF'
p2935
sg2626
I-1
sg38
I13
sg2627
(lp2936
g2913
asbsS'CCP'
p2937
(issf_api
Node
p2938
(dp2939
g2621
S'nmod'
p2940
sg2623
g2937
sg2624
S'NP6'
p2941
sg2626
I-1
sg38
I4
sg2627
(lp2942
S'NP5'
p2943
aS'NP4'
p2944
asbsg2943
(issf_api
Node
p2945
(dp2946
g2621
S'ccof'
p2947
sg2623
g2943
sg2624
S'CCP'
p2948
sg2626
I-1
sg38
I5
sg2627
(lp2949
sbsS'NP9'
p2950
(issf_api
Node
p2951
(dp2952
g2621
S'k7'
p2953
sg2623
g2950
sg2624
S'VGF'
p2954
sg2626
I-1
sg38
I10
sg2627
(lp2955
sbsS'NP8'
p2956
(issf_api
Node
p2957
(dp2958
g2621
S'ccof'
p2959
sg2623
g2956
sg2624
S'CCP2'
p2960
sg2626
I-1
sg38
I9
sg2627
(lp2961
sbsS'BLK'
p2962
(issf_api
Node
p2963
(dp2964
g2621
S'rsym'
p2965
sg2623
g2962
sg2624
S'VGF'
p2966
sg2626
I-1
sg38
I16
sg2627
(lp2967
sbsS'NP'
p2968
(issf_api
Node
p2969
(dp2970
g2621
S'r6'
p2971
sg2623
g2968
sg2624
S'NP2'
p2972
sg2626
I-1
sg38
I0
sg2627
(lp2973
sbsg2944
(issf_api
Node
p2974
(dp2975
g2621
S'ccof'
p2976
sg2623
g2944
sg2624
S'CCP'
p2977
sg2626
I-1
sg38
I3
sg2627
(lp2978
sbsS'NP7'
p2979
(issf_api
Node
p2980
(dp2981
g2621
S'ccof'
p2982
sg2623
g2979
sg2624
S'CCP2'
p2983
sg2626
I-1
sg38
I7
sg2627
(lp2984
S'NP6'
p2985
asbsg2985
(issf_api
Node
p2986
(dp2987
g2621
S'r6'
p2988
sg2623
g2985
sg2624
S'NP7'
p2989
sg2626
I-1
sg38
I6
sg2627
(lp2990
g2937
asbsS'CCP2'
p2991
(issf_api
Node
p2992
(dp2993
g2621
S'rt'
p2994
sg2623
g2991
sg2624
S'VGF'
p2995
sg2626
I-1
sg38
I8
sg2627
(lp2996
g2956
ag2979
asbsS'VGF'
p2997
(issf_api
Node
p2998
(dp2999
g2621
g2724
sg2623
g2997
sg2624
g2724
sg2626
I-1
sg38
I15
sg2627
(lp3000
g2925
ag2931
ag2950
ag2962
ag2991
aS'NP3'
p3001
aS'NP2'
p3002
asbsg3001
(issf_api
Node
p3003
(dp3004
g2621
S'k1'
p3005
sg2623
g3001
sg2624
S'VGF'
p3006
sg2626
I-1
sg38
I2
sg2627
(lp3007
sbsg3002
(issf_api
Node
p3008
(dp3009
g2621
S'k7'
p3010
sg2623
g3002
sg2624
S'VGF'
p3011
sg2626
I-1
sg38
I1
sg2627
(lp3012
g2968
asbssg2736
(lp3013
(issf_api
Chunk
p3014
(dp3015
g2623
g764
sg38
I0
sg2740
g777
sg39
I1
sg2614
(lp3016
I33
aI34
aI35
aI36
aI37
asg44
(issf_api
FeatureSet
p3017
(dp3018
g12
(dp3019
S'name'
p3020
g2968
sS'drel'
p3021
S'r6:NP2'
p3022
ssbsba(issf_api
Chunk
p3023
(dp3024
g2623
g808
sg38
I1
sg2740
g815
sg39
I1
sg2614
(lp3025
I38
aI39
asg44
(issf_api
FeatureSet
p3026
(dp3027
g12
(dp3028
S'name'
p3029
g3002
sS'drel'
p3030
S'k7:VGF'
p3031
ssbsba(issf_api
Chunk
p3032
(dp3033
g2623
g848
sg38
I2
sg2740
g859
sg39
I1
sg2614
(lp3034
I40
aI41
asg44
(issf_api
FeatureSet
p3035
(dp3036
g12
(dp3037
S'name'
p3038
g3001
sS'drel'
p3039
S'k1:VGF'
p3040
ssbsba(issf_api
Chunk
p3041
(dp3042
g2623
g892
sg38
I3
sg2740
g903
sg39
I1
sg2614
(lp3043
I42
asg44
(issf_api
FeatureSet
p3044
(dp3045
g12
(dp3046
S'name'
p3047
g2944
sS'drel'
p3048
S'ccof:CCP'
p3049
ssbsba(issf_api
Chunk
p3050
(dp3051
g2623
g917
sg38
I4
sg2740
g926
sg39
I1
sg2614
(lp3052
I43
asg44
(issf_api
FeatureSet
p3053
(dp3054
g12
(dp3055
S'name'
p3056
g2937
sS'drel'
p3057
S'nmod:NP6'
p3058
ssbsba(issf_api
Chunk
p3059
(dp3060
g2623
g942
sg38
I5
sg2740
g953
sg39
I1
sg2614
(lp3061
I44
asg44
(issf_api
FeatureSet
p3062
(dp3063
g12
(dp3064
S'name'
p3065
g2943
sS'drel'
p3066
S'ccof:CCP'
p3067
ssbsba(issf_api
Chunk
p3068
(dp3069
g2623
g992
sg38
I6
sg2740
g1005
sg39
I1
sg2614
(lp3070
I45
aI46
aI47
asg44
(issf_api
FeatureSet
p3071
(dp3072
g12
(dp3073
S'name'
p3074
g2985
sS'drel'
p3075
S'r6:NP7'
p3076
ssbsba(issf_api
Chunk
p3077
(dp3078
g2623
g1036
sg38
I7
sg2740
g1043
sg39
I1
sg2614
(lp3079
I48
asg44
(issf_api
FeatureSet
p3080
(dp3081
g12
(dp3082
S'name'
p3083
g2979
sS'drel'
p3084
S'ccof:CCP2'
p3085
ssbsba(issf_api
Chunk
p3086
(dp3087
g2623
g1059
sg38
I8
sg2740
g1072
sg39
I1
sg2614
(lp3088
I49
asg44
(issf_api
FeatureSet
p3089
(dp3090
g12
(dp3091
S'name'
p3092
g2991
sS'drel'
p3093
S'rt:VGF'
p3094
ssbsba(issf_api
Chunk
p3095
(dp3096
g2623
g1086
sg38
I9
sg2740
g1095
sg39
I1
sg2614
(lp3097
I50
aI51
aI52
asg44
(issf_api
FeatureSet
p3098
(dp3099
g12
(dp3100
S'name'
p3101
g2956
sS'drel'
p3102
S'ccof:CCP2'
p3103
ssbsba(issf_api
Chunk
p3104
(dp3105
g2623
g1160
sg38
I10
sg2740
g1167
sg39
I1
sg2614
(lp3106
I53
aI54
aI55
asg44
(issf_api
FeatureSet
p3107
(dp3108
g12
(dp3109
S'name'
p3110
g2950
sS'drel'
p3111
S'k7:VGF'
p3112
ssbsba(issf_api
Chunk
p3113
(dp3114
g2623
g1249
sg38
I11
sg2740
g1256
sg39
I1
sg2614
(lp3115
I56
aI57
aI58
aI59
aI60
asg44
(issf_api
FeatureSet
p3116
(dp3117
g12
(dp3118
S'name'
p3119
g2919
sS'drel'
p3120
S'r6:NP11'
p3121
ssbsba(issf_api
Chunk
p3122
(dp3123
g2623
g1321
sg38
I12
sg2740
g1328
sg39
I1
sg2614
(lp3124
I61
aI62
aI63
aI64
asg44
(issf_api
FeatureSet
p3125
(dp3126
g12
(dp3127
S'name'
p3128
g2913
sS'drel'
p3129
S'r6:NP12'
p3130
ssbsba(issf_api
Chunk
p3131
(dp3132
g2623
g1359
sg38
I13
sg2740
g1366
sg39
I1
sg2614
(lp3133
I65
aI66
aI67
asg44
(issf_api
FeatureSet
p3134
(dp3135
g12
(dp3136
S'name'
p3137
g2931
sS'drel'
p3138
S'k4:VGF'
p3139
ssbsba(issf_api
Chunk
p3140
(dp3141
g2623
g1431
sg38
I14
sg2740
g1436
sg39
I1
sg2614
(lp3142
I68
aI69
asg44
(issf_api
FeatureSet
p3143
(dp3144
g12
(dp3145
S'name'
p3146
g2925
sS'drel'
p3147
S'pof:VGF'
p3148
ssbsba(issf_api
Chunk
p3149
(dp3150
g2623
g1450
sg38
I15
sg2740
g1459
sg39
I1
sg2614
(lp3151
I70
aI71
asg44
(issf_api
FeatureSet
p3152
(dp3153
g12
(dp3154
S'name'
p3155
g2997
ssbsba(issf_api
Chunk
p3156
(dp3157
g2623
g1490
sg38
I16
sg2740
g1495
sg39
I1
sg2614
(lp3158
I72
asg44
(issf_api
FeatureSet
p3159
(dp3160
g12
(dp3161
S'name'
p3162
g2962
sS'drel'
p3163
S'rsym:VGF'
p3164
ssbsbasba(issf_api
Sentence
p3165
(dp3166
g2612
(lp3167
sg39
I2
sg2614
(lp3168
I73
aI74
aI75
aI76
aI77
aI78
aI79
aI80
aI81
aI82
aI83
aI84
aI85
aI86
aI87
aI88
aI89
aI90
aI91
aI92
aI93
aI94
aI95
aI96
aI97
aI98
asg2616
(dp3169
S'VGF'
p3170
(issf_api
Node
p3171
(dp3172
g2621
g2724
sg2623
g3170
sg2624
g2724
sg2626
I-1
sg38
I6
sg2627
(lp3173
S'JJP'
p3174
aS'NP5'
p3175
aS'BLK'
p3176
aS'NP4'
p3177
aS'NP3'
p3178
aS'NP2'
p3179
asbsg3174
(issf_api
Node
p3180
(dp3181
g2621
S'pof'
p3182
sg2623
g3174
sg2624
S'VGF'
p3183
sg2626
I-1
sg38
I5
sg2627
(lp3184
sbsg3175
(issf_api
Node
p3185
(dp3186
g2621
S'k7p'
p3187
sg2623
g3175
sg2624
S'VGF'
p3188
sg2626
I-1
sg38
I4
sg2627
(lp3189
sbsg3176
(issf_api
Node
p3190
(dp3191
g2621
S'rsym'
p3192
sg2623
g3176
sg2624
S'VGF'
p3193
sg2626
I-1
sg38
I7
sg2627
(lp3194
sbsS'NP'
p3195
(issf_api
Node
p3196
(dp3197
g2621
S'r6'
p3198
sg2623
g3195
sg2624
S'NP2'
p3199
sg2626
I-1
sg38
I0
sg2627
(lp3200
sbsg3177
(issf_api
Node
p3201
(dp3202
g2621
S'k7'
p3203
sg2623
g3177
sg2624
S'VGF'
p3204
sg2626
I-1
sg38
I3
sg2627
(lp3205
sbsg3178
(issf_api
Node
p3206
(dp3207
g2621
S'rt'
p3208
sg2623
g3178
sg2624
S'VGF'
p3209
sg2626
I-1
sg38
I2
sg2627
(lp3210
sbsg3179
(issf_api
Node
p3211
(dp3212
g2621
S'k1'
p3213
sg2623
g3179
sg2624
S'VGF'
p3214
sg2626
I-1
sg38
I1
sg2627
(lp3215
g3195
asbssg2736
(lp3216
(issf_api
Chunk
p3217
(dp3218
g2623
g1560
sg38
I0
sg2740
g1567
sg39
I2
sg2614
(lp3219
I73
aI74
aI75
aI76
aI77
asg44
(issf_api
FeatureSet
p3220
(dp3221
g12
(dp3222
S'name'
p3223
g3195
sS'drel'
p3224
S'r6:NP2'
p3225
ssbsba(issf_api
Chunk
p3226
(dp3227
g2623
g1683
sg38
I1
sg2740
g1688
sg39
I2
sg2614
(lp3228
I78
aI79
aI80
aI81
aI82
aI83
asg44
(issf_api
FeatureSet
p3229
(dp3230
g12
(dp3231
S'name'
p3232
g3179
sS'drel'
p3233
S'k1:VGF'
p3234
ssbsba(issf_api
Chunk
p3235
(dp3236
g2623
g1719
sg38
I2
sg2740
g1726
sg39
I2
sg2614
(lp3237
I84
aI85
aI86
aI87
asg44
(issf_api
FeatureSet
p3238
(dp3239
g12
(dp3240
S'name'
p3241
g3178
sS'drel'
p3242
S'rt:VGF'
p3243
ssbsba(issf_api
Chunk
p3244
(dp3245
g2623
g1774
sg38
I3
sg2740
g1781
sg39
I2
sg2614
(lp3246
I88
aI89
asg44
(issf_api
FeatureSet
p3247
(dp3248
g12
(dp3249
S'name'
p3250
g3177
sS'drel'
p3251
S'k7:VGF'
p3252
ssbsba(issf_api
Chunk
p3253
(dp3254
g2623
g1863
sg38
I4
sg2740
g1870
sg39
I2
sg2614
(lp3255
I90
aI91
aI92
aI93
aI94
asg44
(issf_api
FeatureSet
p3256
(dp3257
g12
(dp3258
S'name'
p3259
g3175
sS'drel'
p3260
S'k7p:VGF'
p3261
ssbsba(issf_api
Chunk
p3262
(dp3263
g2623
g1901
sg38
I5
sg2740
g1906
sg39
I2
sg2614
(lp3264
I95
asg44
(issf_api
FeatureSet
p3265
(dp3266
g12
(dp3267
S'name'
p3268
g3174
sS'drel'
p3269
S'pof:VGF'
p3270
ssbsba(issf_api
Chunk
p3271
(dp3272
g2623
g1920
sg38
I6
sg2740
g1929
sg39
I2
sg2614
(lp3273
I96
aI97
asg44
(issf_api
FeatureSet
p3274
(dp3275
g12
(dp3276
S'name'
p3277
g3170
ssbsba(issf_api
Chunk
p3278
(dp3279
g2623
g1960
sg38
I7
sg2740
g1965
sg39
I2
sg2614
(lp3280
I98
asg44
(issf_api
FeatureSet
p3281
(dp3282
g12
(dp3283
S'name'
p3284
g3176
sS'drel'
p3285
S'rsym:VGF'
p3286
ssbsbasba(issf_api
Sentence
p3287
(dp3288
g2612
(lp3289
sg39
I3
sg2614
(lp3290
I99
aI100
aI101
aI102
aI103
aI104
aI105
aI106
asg2616
(dp3291
S'NP'
p3292
(issf_api
Node
p3293
(dp3294
g2621
S'k1'
p3295
sg2623
g3292
sg2624
S'VGF'
p3296
sg2626
I-1
sg38
I1
sg2627
(lp3297
sbsS'VGF'
p3298
(issf_api
Node
p3299
(dp3300
g2621
S'ccof'
p3301
sg2623
g3298
sg2624
S'CCP'
p3302
sg2626
I-1
sg38
I3
sg2627
(lp3303
g3292
aS'NP2'
p3304
asbsS'CCP'
p3305
(issf_api
Node
p3306
(dp3307
g2621
g2724
sg2623
g3305
sg2624
g2724
sg2626
I-1
sg38
I0
sg2627
(lp3308
g3298
aS'BLK'
p3309
asbsg3309
(issf_api
Node
p3310
(dp3311
g2621
S'rsym'
p3312
sg2623
g3309
sg2624
S'CCP'
p3313
sg2626
I-1
sg38
I4
sg2627
(lp3314
sbsg3304
(issf_api
Node
p3315
(dp3316
g2621
S'k7'
p3317
sg2623
g3304
sg2624
S'VGF'
p3318
sg2626
I-1
sg38
I2
sg2627
(lp3319
sbssg2736
(lp3320
(issf_api
Chunk
p3321
(dp3322
g2623
g1975
sg38
I0
sg2740
g1982
sg39
I3
sg2614
(lp3323
I99
asg44
(issf_api
FeatureSet
p3324
(dp3325
g12
(dp3326
S'name'
p3327
g3305
ssbsba(issf_api
Chunk
p3328
(dp3329
g2623
g2013
sg38
I1
sg2740
g2018
sg39
I3
sg2614
(lp3330
I100
aI101
asg44
(issf_api
FeatureSet
p3331
(dp3332
g12
(dp3333
S'name'
p3334
g3292
sS'drel'
p3335
S'k1:VGF'
p3336
ssbsba(issf_api
Chunk
p3337
(dp3338
g2623
g2032
sg38
I2
sg2740
g2039
sg39
I3
sg2614
(lp3339
I102
aI103
aI104
asg44
(issf_api
FeatureSet
p3340
(dp3341
g12
(dp3342
S'name'
p3343
g3304
sS'drel'
p3344
S'k7:VGF'
p3345
ssbsba(issf_api
Chunk
p3346
(dp3347
g2623
g2087
sg38
I3
sg2740
g2096
sg39
I3
sg2614
(lp3348
I105
asg44
(issf_api
FeatureSet
p3349
(dp3350
g12
(dp3351
S'name'
p3352
g3298
sS'drel'
p3353
S'ccof:CCP'
p3354
ssbsba(issf_api
Chunk
p3355
(dp3356
g2623
g2110
sg38
I4
sg2740
g2115
sg39
I3
sg2614
(lp3357
I106
asg44
(issf_api
FeatureSet
p3358
(dp3359
g12
(dp3360
S'name'
p3361
g3309
sS'drel'
p3362
S'rsym:CCP'
p3363
ssbsbasba(issf_api
Sentence
p3364
(dp3365
g2612
(lp3366
sg39
I4
sg2614
(lp3367
I107
aI108
aI109
aI110
aI111
aI112
aI113
aI114
aI115
aI116
aI117
aI118
aI119
aI120
aI121
aI122
aI123
aI124
aI125
aI126
aI127
aI128
aI129
aI130
asg2616
(dp3368
S'VGF'
p3369
(issf_api
Node
p3370
(dp3371
g2621
g2724
sg2623
g3369
sg2624
g2724
sg2626
I-1
sg38
I6
sg2627
(lp3372
S'CCP'
p3373
aS'JJP'
p3374
aS'BLK'
p3375
aS'NP'
p3376
asbsg3373
(issf_api
Node
p3377
(dp3378
g2621
S'k1'
p3379
sg2623
g3373
sg2624
S'VGF'
p3380
sg2626
I-1
sg38
I3
sg2627
(lp3381
S'NP4'
p3382
aS'NP3'
p3383
aS'NP2'
p3384
asbsg3374
(issf_api
Node
p3385
(dp3386
g2621
S'k1s'
p3387
sg2623
g3374
sg2624
S'VGF'
p3388
sg2626
I-1
sg38
I5
sg2627
(lp3389
sbsg3375
(issf_api
Node
p3390
(dp3391
g2621
S'rsym'
p3392
sg2623
g3375
sg2624
S'VGF'
p3393
sg2626
I-1
sg38
I7
sg2627
(lp3394
sbsg3376
(issf_api
Node
p3395
(dp3396
g2621
S'k7'
p3397
sg2623
g3376
sg2624
S'VGF'
p3398
sg2626
I-1
sg38
I0
sg2627
(lp3399
sbsg3382
(issf_api
Node
p3400
(dp3401
g2621
S'ccof'
p3402
sg2623
g3382
sg2624
S'CCP'
p3403
sg2626
I-1
sg38
I4
sg2627
(lp3404
sbsg3383
(issf_api
Node
p3405
(dp3406
g2621
S'ccof'
p3407
sg2623
g3383
sg2624
S'CCP'
p3408
sg2626
I-1
sg38
I2
sg2627
(lp3409
sbsg3384
(issf_api
Node
p3410
(dp3411
g2621
S'ccof'
p3412
sg2623
g3384
sg2624
S'CCP'
p3413
sg2626
I-1
sg38
I1
sg2627
(lp3414
sbssg2736
(lp3415
(issf_api
Chunk
p3416
(dp3417
g2623
g2131
sg38
I0
sg2740
g2142
sg39
I4
sg2614
(lp3418
I107
aI108
asg44
(issf_api
FeatureSet
p3419
(dp3420
g12
(dp3421
S'name'
p3422
g3376
sS'drel'
p3423
S'k7:VGF'
p3424
ssbsba(issf_api
Chunk
p3425
(dp3426
g2623
g2272
sg38
I1
sg2740
g2283
sg39
I4
sg2614
(lp3427
I109
aI110
aI111
aI112
aI113
aI114
aI115
asg44
(issf_api
FeatureSet
p3428
(dp3429
g12
(dp3430
S'name'
p3431
g3384
sS'drel'
p3432
S'ccof:CCP'
p3433
ssbsba(issf_api
Chunk
p3434
(dp3435
g2623
g2413
sg38
I2
sg2740
g2424
sg39
I4
sg2614
(lp3436
I116
aI117
aI118
aI119
aI120
aI121
asg44
(issf_api
FeatureSet
p3437
(dp3438
g12
(dp3439
S'name'
p3440
g3383
sS'drel'
p3441
S'ccof:CCP'
p3442
ssbsba(issf_api
Chunk
p3443
(dp3444
g2623
g2438
sg38
I3
sg2740
g2443
sg39
I4
sg2614
(lp3445
I122
asg44
(issf_api
FeatureSet
p3446
(dp3447
g12
(dp3448
S'name'
p3449
g3373
sS'drel'
p3450
S'k1:VGF'
p3451
ssbsba(issf_api
Chunk
p3452
(dp3453
g2623
g2537
sg38
I4
sg2740
g2548
sg39
I4
sg2614
(lp3454
I123
aI124
aI125
aI126
aI127
asg44
(issf_api
FeatureSet
p3455
(dp3456
g12
(dp3457
S'name'
p3458
g3382
sS'drel'
p3459
S'ccof:CCP'
p3460
ssbsba(issf_api
Chunk
p3461
(dp3462
g2623
g2562
sg38
I5
sg2740
g2567
sg39
I4
sg2614
(lp3463
I128
asg44
(issf_api
FeatureSet
p3464
(dp3465
g12
(dp3466
S'name'
p3467
g3374
sS'drel'
p3468
S'k1s:VGF'
p3469
ssbsba(issf_api
Chunk
p3470
(dp3471
g2623
g2581
sg38
I6
sg2740
g2588
sg39
I4
sg2614
(lp3472
I129
asg44
(issf_api
FeatureSet
p3473
(dp3474
g12
(dp3475
S'name'
p3476
g3369
ssbsba(issf_api
Chunk
p3477
(dp3478
g2623
g2602
sg38
I7
sg2740
g2607
sg39
I4
sg2614
(lp3479
I130
asg44
(issf_api
FeatureSet
p3480
(dp3481
g12
(dp3482
S'name'
p3483
g3375
sS'drel'
p3484
S'rsym:VGF'
p3485
ssbsbasbasb.