(issf_api
SSFInfo
p0
(dp1
S'globalWordList'
p2
(lp3
(issf_api
Word
p4
(dp5
S'splitConn'
p6
I00
sS'word'
p7
V\u0916\u093e\u0926\u094d\u092f
p8
sS'extraFeatureSet'
p9
(issf_api
FeatureSet
p10
(dp11
S'featureDict'
p12
(dp13
S'posn'
p14
S'10'
p15
sS'name'
p16
S'\xe0\xa4\x96\xe0\xa4\xbe\xe0\xa4\xa6\xe0\xa5\x8d\xe0\xa4\xaf'
p17
sS'af'
p18
S'\xe0\xa4\x96\xe0\xa4\xbe\xe0\xa4\xa6\xe0\xa5\x8d\xe0\xa4\xaf,n,m,sg,3,d,0,0'
p19
sS'drel'
p20
S'pof__cn:NP'
p21
sS'chunktype'
p22
S'child:NP'
p23
sS'cref'
p24
S'i1%0:t1,i2%0:t2'
p25
ssbsS'arg1'
p26
I00
sS'arg2'
p27
I00
sS'sense'
p28
NsS'arg1Span'
p29
NsS'chunkNum'
p30
I0
sS'sentenceNum'
p31
I0
sS'relationNum'
p32
NsS'arg2Span'
p33
NsS'wordTag'
p34
S'NNC'
p35
sS'featureSet'
p36
g10
sS'conn'
p37
I00
sba(issf_api
Word
p38
(dp39
g6
I00
sg7
V\u092a\u0926\u093e\u0930\u094d\u0925\u094b\u0902
p40
sg9
(issf_api
FeatureSet
p41
(dp42
g12
(dp43
S'crefhead'
p44
S'\xe0\xa4\xaa\xe0\xa4\xa6\xe0\xa4\xbe\xe0\xa4\xb0\xe0\xa5\x8d\xe0\xa4\xa5\xe0\xa5\x8b\xe0\xa4\x82:i1'
p45
sS'posn'
p46
S'20'
p47
sS'name'
p48
S'\xe0\xa4\xaa\xe0\xa4\xa6\xe0\xa4\xbe\xe0\xa4\xb0\xe0\xa5\x8d\xe0\xa4\xa5\xe0\xa5\x8b\xe0\xa4\x82'
p49
sS'af'
p50
S'\xe0\xa4\xaa\xe0\xa4\xa6\xe0\xa4\xbe\xe0\xa4\xb0\xe0\xa5\x8d\xe0\xa4\xa5,n,m,pl,3,o,0_\xe0\xa4\xae\xe0\xa5\x87\xe0\xa4\x82,0'
p51
sS'chunkid'
p52
S'NP'
p53
sS'chunktype'
p54
S'head:NP'
p55
sS'crefchainhead'
p56
S'i1:t1'
p57
sS'vpos'
p58
S'vib_3'
p59
sS'cref'
p60
S'i1%1:t1,i2%0:t2'
p61
sS'drel'
p62
S'k7:VGNN'
p63
ssbsg26
I00
sg27
I00
sg28
Nsg29
Nsg30
I0
sg31
I0
sg32
Nsg33
Nsg34
S'NN'
p64
sg36
g41
sg37
I00
sba(issf_api
Word
p65
(dp66
g6
I00
sg7
V\u092e\u0947\u0902
p67
sg9
(issf_api
FeatureSet
p68
(dp69
g12
(dp70
S'posn'
p71
S'30'
p72
sS'name'
p73
S'\xe0\xa4\xae\xe0\xa5\x87\xe0\xa4\x82'
p74
sS'af'
p75
S'\xe0\xa4\xae\xe0\xa5\x87\xe0\xa4\x82,psp,,,,,,'
p76
sS'drel'
p77
S'lwg__psp:NP'
p78
sS'chunktype'
p79
S'child:NP'
p80
sS'cref'
p81
S'i2%0:t2'
p82
ssbsg26
I00
sg27
I00
sg28
Nsg29
Nsg30
I0
sg31
I0
sg32
Nsg33
Nsg34
S'PSP'
p83
sg36
g68
sg37
I00
sba(issf_api
Word
p84
(dp85
g6
I00
sg7
V\u092e\u093f\u0932\u093e\u0935\u091f
p86
sg9
(issf_api
FeatureSet
p87
(dp88
g12
(dp89
S'crefhead'
p90
S'\xe0\xa4\xae\xe0\xa4\xbf\xe0\xa4\xb2\xe0\xa4\xbe\xe0\xa4\xb5\xe0\xa4\x9f:i2'
p91
sS'posn'
p92
S'40'
p93
sS'name'
p94
S'\xe0\xa4\xae\xe0\xa4\xbf\xe0\xa4\xb2\xe0\xa4\xbe\xe0\xa4\xb5\xe0\xa4\x9f'
p95
sS'af'
p96
S'\xe0\xa4\xae\xe0\xa4\xbf\xe0\xa4\xb2\xe0\xa4\xbe\xe0\xa4\xb5\xe0\xa4\x9f,n,f,sg,3,o,0_\xe0\xa4\x95\xe0\xa5\x8b,0'
p97
sS'chunkid'
p98
S'NP2'
p99
sS'chunktype'
p100
S'head:NP2'
p101
sS'crefchainhead'
p102
S'i2:t2'
p103
sS'vpos'
p104
S'vib_2'
p105
sS'cref'
p106
S'i2%1:t2'
p107
sS'drel'
p108
S'k2:VGNN'
p109
ssbsg26
I00
sg27
I00
sg28
Nsg29
Nsg30
I1
sg31
I0
sg32
Nsg33
Nsg34
S'NN'
p110
sg36
g87
sg37
I00
sba(issf_api
Word
p111
(dp112
g6
I00
sg7
V\u0915\u094b
p113
sg9
(issf_api
FeatureSet
p114
(dp115
g12
(dp116
S'posn'
p117
S'50'
p118
sS'name'
p119
S'\xe0\xa4\x95\xe0\xa5\x8b'
p120
sS'drel'
p121
S'lwg__psp:NP2'
p122
sS'chunktype'
p123
S'child:NP2'
p124
sS'af'
p125
S'\xe0\xa4\x95\xe0\xa5\x8b,psp,,,,,,'
p126
ssbsg26
I00
sg27
I00
sg28
Nsg29
Nsg30
I1
sg31
I0
sg32
Nsg33
Nsg34
S'PSP'
p127
sg36
g114
sg37
I00
sba(issf_api
Word
p128
(dp129
g6
I00
sg7
V\u0930\u094b\u0915\u0928\u0947
p130
sg9
(issf_api
FeatureSet
p131
(dp132
g12
(dp133
S'posn'
p134
S'60'
p135
sS'name'
p136
S'\xe0\xa4\xb0\xe0\xa5\x8b\xe0\xa4\x95\xe0\xa4\xa8\xe0\xa5\x87'
p137
sS'af'
p138
S'\xe0\xa4\xb0\xe0\xa5\x8b\xe0\xa4\x95,v,any,any,any,o,\xe0\xa4\xa8\xe0\xa4\xbe_\xe0\xa4\x95\xe0\xa5\x87_\xe0\xa4\xb2\xe0\xa4\xbf\xe0\xa4\x8f,nA'
p139
sS'chunkid'
p140
S'VGNN'
p141
sS'drel'
p142
S'rt:VGF'
p143
sS'vpos'
p144
S'tam_2_3'
p145
sS'chunktype'
p146
S'head:VGNN'
p147
ssbsg26
I00
sg27
I00
sg28
Nsg29
Nsg30
I2
sg31
I0
sg32
Nsg33
Nsg34
S'VM'
p148
sg36
g131
sg37
I00
sba(issf_api
Word
p149
(dp150
g6
I00
sg7
V\u0915\u0947
p151
sg9
(issf_api
FeatureSet
p152
(dp153
g12
(dp154
S'posn'
p155
S'70'
p156
sS'name'
p157
S'\xe0\xa4\x95\xe0\xa5\x87'
p158
sS'drel'
p159
S'lwg__psp:VGNN'
p160
sS'chunktype'
p161
S'child:VGNN'
p162
sS'af'
p163
S'\xe0\xa4\x95\xe0\xa5\x87,psp,,,,,,'
p164
ssbsg26
I00
sg27
I00
sg28
Nsg29
Nsg30
I2
sg31
I0
sg32
Nsg33
Nsg34
S'PSP'
p165
sg36
g152
sg37
I00
sba(issf_api
Word
p166
(dp167
g6
I00
sg7
V\u0932\u093f\u090f
p168
sg9
(issf_api
FeatureSet
p169
(dp170
g12
(dp171
S'posn'
p172
S'80'
p173
sS'name'
p174
S'\xe0\xa4\xb2\xe0\xa4\xbf\xe0\xa4\x8f'
p175
sS'drel'
p176
S'lwg__psp:VGNN'
p177
sS'chunktype'
p178
S'child:VGNN'
p179
sS'af'
p180
S'\xe0\xa4\xb2\xe0\xa4\xbf\xe0\xa4\x8f,psp,,,,,,'
p181
ssbsg26
I00
sg27
I00
sg28
Nsg29
Nsg30
I2
sg31
I0
sg32
Nsg33
Nsg34
S'PSP'
p182
sg36
g169
sg37
I00
sba(issf_api
Word
p183
(dp184
g6
I00
sg7
V\u092d\u093e\u0930\u0924\u0940\u092f
p185
sg9
(issf_api
FeatureSet
p186
(dp187
g12
(dp188
S'posn'
p189
S'80'
p190
sS'name'
p191
S'\xe0\xa4\xad\xe0\xa4\xbe\xe0\xa4\xb0\xe0\xa4\xa4\xe0\xa5\x80\xe0\xa4\xaf'
p192
sS'af'
p193
S'\xe0\xa4\xad\xe0\xa4\xbe\xe0\xa4\xb0\xe0\xa4\xa4\xe0\xa5\x80\xe0\xa4\xaf,adj,any,any,,d,,'
p194
sS'drel'
p195
S'pof__cn:NP3'
p196
sS'chunktype'
p197
S'child:NP3'
p198
sS'cref'
p199
S'i3%0:t3'
p200
ssbsg26
I00
sg27
I00
sg28
Nsg29
Nsg30
I3
sg31
I0
sg32
Nsg33
Nsg34
S'NNPC'
p201
sg36
g186
sg37
I00
sba(issf_api
Word
p202
(dp203
g6
I00
sg7
V\u092e\u093e\u0928\u0915
p204
sg9
(issf_api
FeatureSet
p205
(dp206
g12
(dp207
S'posn'
p208
S'100'
p209
sS'name'
p210
S'\xe0\xa4\xae\xe0\xa4\xbe\xe0\xa4\xa8\xe0\xa4\x95'
p211
sS'af'
p212
S'\xe0\xa4\xae\xe0\xa4\xbe\xe0\xa4\xa8\xe0\xa4\x95,n,m,sg,3,d,0,0'
p213
sS'drel'
p214
S'pof__cn:NP3'
p215
sS'chunktype'
p216
S'child:NP3'
p217
sS'cref'
p218
S'i3%0:t3'
p219
ssbsg26
I00
sg27
I00
sg28
Nsg29
Nsg30
I3
sg31
I0
sg32
Nsg33
Nsg34
S'NNPC'
p220
sg36
g205
sg37
I00
sba(issf_api
Word
p221
(dp222
g6
I00
sg7
V\u092c\u094d\u092f\u0942\u0930\u094b
p223
sg9
(issf_api
FeatureSet
p224
(dp225
g12
(dp226
S'crefhead'
p227
S'\xe0\xa4\xac\xe0\xa5\x8d\xe0\xa4\xaf\xe0\xa5\x82\xe0\xa4\xb0\xe0\xa5\x8b:i3'
p228
sS'posn'
p229
S'110'
p230
sS'name'
p231
S'\xe0\xa4\xac\xe0\xa5\x8d\xe0\xa4\xaf\xe0\xa5\x82\xe0\xa4\xb0\xe0\xa5\x8b'
p232
sS'af'
p233
S'\xe0\xa4\xac\xe0\xa5\x8d\xe0\xa4\xaf\xe0\xa5\x82\xe0\xa4\xb0\xe0\xa5\x8b,n,m,sg,3,d,0,0'
p234
sS'chunkid'
p235
S'NP3'
p236
sS'chunktype'
p237
S'head:NP3'
p238
sS'crefchainhead'
p239
S'i3:t3'
p240
sS'cref'
p241
S'i3%1:t3'
p242
sS'drel'
p243
S'ccof:CCP'
p244
ssbsg26
I00
sg27
I00
sg28
Nsg29
Nsg30
I3
sg31
I0
sg32
Nsg33
Nsg34
S'NNP'
p245
sg36
g224
sg37
I00
sba(issf_api
Word
p246
(dp247
g6
I00
sg7
V\u092f\u093e\u0928\u093f
p248
sg9
(issf_api
FeatureSet
p249
(dp250
g12
(dp251
S'posn'
p252
S'120'
p253
sS'name'
p254
S'\xe0\xa4\xaf\xe0\xa4\xbe\xe0\xa4\xa8\xe0\xa4\xbf'
p255
sS'af'
p256
S'\xe0\xa4\xaf\xe0\xa4\xbe\xe0\xa4\xa8\xe0\xa4\xbf,avy,,,,,,'
p257
sS'chunkid'
p258
S'CCP'
p259
sS'drel'
p260
S'nmod:NP4'
p261
sS'chunktype'
p262
S'head:CCP'
p263
ssbsg26
I00
sg27
I00
sg28
Nsg29
Nsg30
I4
sg31
I0
sg32
Nsg33
Nsg34
S'CC'
p264
sg36
g249
sg37
I00
sba(issf_api
Word
p265
(dp266
g6
I00
sg7
V\u092c\u0940\u0906\u0908\u090f\u0938
p267
sg9
(issf_api
FeatureSet
p268
(dp269
g12
(dp270
S'crefhead'
p271
S'\xe0\xa4\xac\xe0\xa5\x80\xe0\xa4\x86\xe0\xa4\x88\xe0\xa4\x8f\xe0\xa4\xb8:i4'
p272
sS'posn'
p273
S'130'
p274
sS'name'
p275
S'\xe0\xa4\xac\xe0\xa5\x80\xe0\xa4\x86\xe0\xa4\x88\xe0\xa4\x8f\xe0\xa4\xb8'
p276
sS'af'
p277
S'\xe0\xa4\xac\xe0\xa5\x80\xe0\xa4\x86\xe0\xa4\x88\xe0\xa4\x8f\xe0\xa4\xb8,n,m,sg,3,d,0,0'
p278
sS'chunkid'
p279
S'NP4'
p280
sS'creftype'
p281
S'Coreference-Bracketed/Abbraviation:i1:i4'
p282
sS'chunktype'
p283
S'head:NP4'
p284
sS'cref'
p285
S'i4%1:t3'
p286
sS'drel'
p287
S'k1:VGF'
p288
ssbsg26
I00
sg27
I00
sg28
Nsg29
Nsg30
I5
sg31
I0
sg32
Nsg33
Nsg34
S'NNP'
p289
sg36
g268
sg37
I00
sba(issf_api
Word
p290
(dp291
g6
I00
sg7
V\u091c\u0932\u094d\u0926
p292
sg9
(issf_api
FeatureSet
p293
(dp294
g12
(dp295
S'posn'
p296
S'140'
p297
sS'name'
p298
S'\xe0\xa4\x9c\xe0\xa4\xb2\xe0\xa5\x8d\xe0\xa4\xa6'
p299
sS'af'
p300
S'\xe0\xa4\x9c\xe0\xa4\xb2\xe0\xa5\x8d\xe0\xa4\xa6,adv,,,,,,'
p301
sS'chunkid'
p302
S'RBP'
p303
sS'drel'
p304
S'adv:VGF'
p305
sS'chunktype'
p306
S'head:RBP'
p307
ssbsg26
I00
sg27
I00
sg28
Nsg29
Nsg30
I6
sg31
I0
sg32
Nsg33
Nsg34
S'RB'
p308
sg36
g293
sg37
I00
sba(issf_api
Word
p309
(dp310
g6
I00
sg7
V\u0939\u0940
p311
sg9
(issf_api
FeatureSet
p312
(dp313
g12
(dp314
S'posn'
p315
S'150'
p316
sS'name'
p317
S'\xe0\xa4\xb9\xe0\xa5\x80'
p318
sS'drel'
p319
S'lwg__rp:RBP'
p320
sS'chunktype'
p321
S'child:RBP'
p322
sS'af'
p323
S'\xe0\xa4\xb9\xe0\xa5\x80,avy,,,,,,'
p324
ssbsg26
I00
sg27
I00
sg28
Nsg29
Nsg30
I6
sg31
I0
sg32
Nsg33
Nsg34
S'RP'
p325
sg36
g312
sg37
I00
sba(issf_api
Word
p326
(dp327
g6
I00
sg7
V\u090f\u0915
p328
sg9
(issf_api
FeatureSet
p329
(dp330
g12
(dp331
S'posn'
p332
S'160'
p333
sS'name'
p334
S'\xe0\xa4\x8f\xe0\xa4\x95'
p335
sS'drel'
p336
S'nmod__adj:NP5'
p337
sS'chunktype'
p338
S'child:NP5'
p339
sS'af'
p340
S'\xe0\xa4\x8f\xe0\xa4\x95,num,any,any,,any,,'
p341
ssbsg26
I00
sg27
I00
sg28
Nsg29
Nsg30
I7
sg31
I0
sg32
Nsg33
Nsg34
S'QC'
p342
sg36
g329
sg37
I00
sba(issf_api
Word
p343
(dp344
g6
I00
sg7
V'
p345
sg9
(issf_api
FeatureSet
p346
(dp347
g12
(dp348
S'posn'
p349
S'170'
p350
sS'name'
p351
S''
p352
sS'drel'
p353
S'rsym:NP5'
p354
sS'chunktype'
p355
S'child:NP5'
p356
sS'af'
p357
S'SINGLE_QUOTE,punc,,,,,,'
p358
ssbsg26
I00
sg27
I00
sg28
Nsg29
Nsg30
I7
sg31
I0
sg32
Nsg33
Nsg34
S'SYM'
p359
sg36
g346
sg37
I00
sba(issf_api
Word
p360
(dp361
g6
I00
sg7
V\u0915\u094d\u0935\u093f\u0915
p362
sg9
(issf_api
FeatureSet
p363
(dp364
g12
(dp365
S'posn'
p366
S'180'
p367
sS'name'
p368
S'\xe0\xa4\x95\xe0\xa5\x8d\xe0\xa4\xb5\xe0\xa4\xbf\xe0\xa4\x95'
p369
sS'af'
p370
S'\xe0\xa4\x95\xe0\xa5\x8d\xe0\xa4\xb5\xe0\xa4\xbf\xe0\xa4\x95,adj,any,any,,o,,'
p371
sS'drel'
p372
S'nmod__adj:NP5'
p373
sS'chunktype'
p374
S'child:NP5'
p375
sS'cref'
p376
S'i5%0:t4'
p377
ssbsg26
I00
sg27
I00
sg28
Nsg29
Nsg30
I7
sg31
I0
sg32
Nsg33
Nsg34
S'JJ'
p378
sg36
g363
sg37
I00
sba(issf_api
Word
p379
(dp380
g6
I00
sg7
V\u091f\u0947\u0938\u094d\u091f
p381
sg9
(issf_api
FeatureSet
p382
(dp383
g12
(dp384
S'posn'
p385
S'190'
p386
sS'name'
p387
S'\xe0\xa4\x9f\xe0\xa5\x87\xe0\xa4\xb8\xe0\xa5\x8d\xe0\xa4\x9f'
p388
sS'af'
p389
S'\xe0\xa4\x9f\xe0\xa5\x87\xe0\xa4\xb8\xe0\xa5\x8d\xe0\xa4\x9f,n,m,sg,3,d,0,0'
p390
sS'drel'
p391
S'pof__cn:NP5'
p392
sS'chunktype'
p393
S'child:NP5'
p394
sS'cref'
p395
S'i5%0:t4'
p396
ssbsg26
I00
sg27
I00
sg28
Nsg29
Nsg30
I7
sg31
I0
sg32
Nsg33
Nsg34
S'NNC'
p397
sg36
g382
sg37
I00
sba(issf_api
Word
p398
(dp399
g6
I00
sg7
V\u0915\u093f\u091f
p400
sg9
(issf_api
FeatureSet
p401
(dp402
g12
(dp403
S'crefhead'
p404
S'\xe0\xa4\x95\xe0\xa4\xbf\xe0\xa4\x9f:i5'
p405
sS'posn'
p406
S'200'
p407
sS'name'
p408
S'\xe0\xa4\x95\xe0\xa4\xbf\xe0\xa4\x9f'
p409
sS'af'
p410
S'\xe0\xa4\x95\xe0\xa4\xbf\xe0\xa4\x9f,n,m,sg,3,o,0_\xe0\xa4\x95\xe0\xa5\x8b,0'
p411
sS'chunkid'
p412
S'NP5'
p413
sS'chunktype'
p414
S'head:NP5'
p415
sS'crefchainhead'
p416
S'i5:t4'
p417
sS'vpos'
p418
S'vib_7'
p419
sS'cref'
p420
S'i5%1:t4'
p421
sS'drel'
p422
S'k2:VGNN2'
p423
ssbsg26
I00
sg27
I00
sg28
Nsg29
Nsg30
I7
sg31
I0
sg32
Nsg33
Nsg34
S'NN'
p424
sg36
g401
sg37
I00
sba(issf_api
Word
p425
(dp426
g6
I00
sg7
V'
p427
sg9
(issf_api
FeatureSet
p428
(dp429
g12
(dp430
S'posn'
p431
S'210'
p432
sS'name'
p433
g352
sS'drel'
p434
S'rsym:NP5'
p435
sS'chunktype'
p436
S'child:NP5'
p437
sS'af'
p438
S'SINGLE_QUOTE,punc,,,,,,'
p439
ssbsg26
I00
sg27
I00
sg28
Nsg29
Nsg30
I7
sg31
I0
sg32
Nsg33
Nsg34
S'SYM'
p440
sg36
g428
sg37
I00
sba(issf_api
Word
p441
(dp442
g6
I00
sg7
V\u0915\u094b
p443
sg9
(issf_api
FeatureSet
p444
(dp445
g12
(dp446
S'posn'
p447
S'220'
p448
sS'name'
p449
S'\xe0\xa4\x95\xe0\xa5\x8b2'
p450
sS'drel'
p451
S'lwg__psp:NP5'
p452
sS'chunktype'
p453
S'child:NP5'
p454
sS'af'
p455
S'\xe0\xa4\x95\xe0\xa5\x8b,psp,,,,,,'
p456
ssbsg26
I00
sg27
I00
sg28
Nsg29
Nsg30
I7
sg31
I0
sg32
Nsg33
Nsg34
S'PSP'
p457
sg36
g444
sg37
I00
sba(issf_api
Word
p458
(dp459
g6
I00
sg7
V\u092d\u093e\u0930\u0924\u0940\u092f
p460
sg9
(issf_api
FeatureSet
p461
(dp462
g12
(dp463
S'posn'
p464
S'230'
p465
sS'name'
p466
S'\xe0\xa4\xad\xe0\xa4\xbe\xe0\xa4\xb0\xe0\xa4\xa4\xe0\xa5\x80\xe0\xa4\xaf2'
p467
sS'drel'
p468
S'nmod__adj:NP6'
p469
sS'chunktype'
p470
S'child:NP6'
p471
sS'af'
p472
S'\xe0\xa4\xad\xe0\xa4\xbe\xe0\xa4\xb0\xe0\xa4\xa4\xe0\xa5\x80\xe0\xa4\xaf,adj,any,any,,o,,'
p473
ssbsg26
I00
sg27
I00
sg28
Nsg29
Nsg30
I8
sg31
I0
sg32
Nsg33
Nsg34
S'JJ'
p474
sg36
g461
sg37
I00
sba(issf_api
Word
p475
(dp476
g6
I00
sg7
V\u0909\u092a\u092d\u094b\u0915\u094d\u0924\u093e\u0913\u0902
p477
sg9
(issf_api
FeatureSet
p478
(dp479
g12
(dp480
S'posn'
p481
S'240'
p482
sS'name'
p483
S'\xe0\xa4\x89\xe0\xa4\xaa\xe0\xa4\xad\xe0\xa5\x8b\xe0\xa4\x95\xe0\xa5\x8d\xe0\xa4\xa4\xe0\xa4\xbe\xe0\xa4\x93\xe0\xa4\x82'
p484
sS'af'
p485
S'\xe0\xa4\x89\xe0\xa4\xaa\xe0\xa4\xad\xe0\xa5\x8b\xe0\xa4\x95\xe0\xa5\x8d\xe0\xa4\xa4\xe0\xa4\xbe,n,m,pl,3,o,0_\xe0\xa4\x95\xe0\xa5\x87_\xe0\xa4\xb2\xe0\xa4\xbf\xe0\xa4\x8f,0'
p486
sS'chunkid'
p487
S'NP6'
p488
sS'drel'
p489
S'rt:VGNN2'
p490
sS'vpos'
p491
S'vib_3_4'
p492
sS'chunktype'
p493
S'head:NP6'
p494
ssbsg26
I00
sg27
I00
sg28
Nsg29
Nsg30
I8
sg31
I0
sg32
Nsg33
Nsg34
S'NN'
p495
sg36
g478
sg37
I00
sba(issf_api
Word
p496
(dp497
g6
I00
sg7
V\u0915\u0947
p498
sg9
(issf_api
FeatureSet
p499
(dp500
g12
(dp501
S'posn'
p502
S'250'
p503
sS'name'
p504
S'\xe0\xa4\x95\xe0\xa5\x872'
p505
sS'drel'
p506
S'lwg__psp:NP6'
p507
sS'chunktype'
p508
S'child:NP6'
p509
sS'af'
p510
S'\xe0\xa4\x95\xe0\xa5\x87,psp,,,,,,'
p511
ssbsg26
I00
sg27
I00
sg28
Nsg29
Nsg30
I8
sg31
I0
sg32
Nsg33
Nsg34
S'PSP'
p512
sg36
g499
sg37
I00
sba(issf_api
Word
p513
(dp514
g6
I00
sg7
V\u0932\u093f\u090f
p515
sg9
(issf_api
FeatureSet
p516
(dp517
g12
(dp518
S'posn'
p519
S'260'
p520
sS'name'
p521
S'\xe0\xa4\xb2\xe0\xa4\xbf\xe0\xa4\x8f2'
p522
sS'drel'
p523
S'lwg__psp:NP6'
p524
sS'chunktype'
p525
S'child:NP6'
p526
sS'af'
p527
S'\xe0\xa4\xb2\xe0\xa4\xbf\xe0\xa4\x8f,psp,,,,,,'
p528
ssbsg26
I00
sg27
I00
sg28
Nsg29
Nsg30
I8
sg31
I0
sg32
Nsg33
Nsg34
S'PSP'
p529
sg36
g516
sg37
I00
sba(issf_api
Word
p530
(dp531
g6
I00
sg7
V\u0932\u093e\u0928\u0947
p532
sg9
(issf_api
FeatureSet
p533
(dp534
g12
(dp535
S'posn'
p536
S'270'
p537
sS'name'
p538
S'\xe0\xa4\xb2\xe0\xa4\xbe\xe0\xa4\xa8\xe0\xa5\x87'
p539
sS'af'
p540
S'\xe0\xa4\xb2\xe0\xa4\xbe,v,any,sg,any,o,\xe0\xa4\xa8\xe0\xa4\xbe_\xe0\xa4\x95\xe0\xa4\xbe,nA'
p541
sS'chunkid'
p542
S'VGNN2'
p543
sS'drel'
p544
S'r6-k2:NP7'
p545
sS'vpos'
p546
S'tam_2'
p547
sS'chunktype'
p548
S'head:VGNN2'
p549
ssbsg26
I00
sg27
I00
sg28
Nsg29
Nsg30
I9
sg31
I0
sg32
Nsg33
Nsg34
S'VM'
p550
sg36
g533
sg37
I00
sba(issf_api
Word
p551
(dp552
g6
I00
sg7
V\u0915\u0940
p553
sg9
(issf_api
FeatureSet
p554
(dp555
g12
(dp556
S'posn'
p557
S'280'
p558
sS'name'
p559
S'\xe0\xa4\x95\xe0\xa5\x80'
p560
sS'drel'
p561
S'lwg__psp:VGNN2'
p562
sS'chunktype'
p563
S'child:VGNN2'
p564
sS'af'
p565
S'\xe0\xa4\x95\xe0\xa4\xbe,psp,f,sg,,d,,'
p566
ssbsg26
I00
sg27
I00
sg28
Nsg29
Nsg30
I9
sg31
I0
sg32
Nsg33
Nsg34
S'PSP'
p567
sg36
g554
sg37
I00
sba(issf_api
Word
p568
(dp569
g6
I00
sg7
V\u092f\u094b\u091c\u0928\u093e
p570
sg9
(issf_api
FeatureSet
p571
(dp572
g12
(dp573
S'posn'
p574
S'290'
p575
sS'name'
p576
S'\xe0\xa4\xaf\xe0\xa5\x8b\xe0\xa4\x9c\xe0\xa4\xa8\xe0\xa4\xbe'
p577
sS'af'
p578
S'\xe0\xa4\xaf\xe0\xa5\x8b\xe0\xa4\x9c\xe0\xa4\xa8\xe0\xa4\xbe,n,f,sg,3,d,0,0'
p579
sS'chunkid'
p580
S'NP7'
p581
sS'drel'
p582
S'pof:VGF'
p583
sS'chunktype'
p584
S'head:NP7'
p585
ssbsg26
I00
sg27
I00
sg28
Nsg29
Nsg30
I10
sg31
I0
sg32
Nsg33
Nsg34
S'NN'
p586
sg36
g571
sg37
I00
sba(issf_api
Word
p587
(dp588
g6
I00
sg7
V\u092c\u0928\u093e
p589
sg9
(issf_api
FeatureSet
p590
(dp591
g12
(dp592
S'posn'
p593
S'300'
p594
sS'name'
p595
S'\xe0\xa4\xac\xe0\xa4\xa8\xe0\xa4\xbe'
p596
sS'af'
p597
S'\xe0\xa4\xac\xe0\xa4\xa8\xe0\xa4\xbe,v,m,sg,3,,0_\xe0\xa4\xb0\xe0\xa4\xb9+\xe0\xa4\xaf\xe0\xa4\xbe_\xe0\xa4\xb9\xe0\xa5\x88,0'
p598
sS'chunkid'
p599
S'VGF'
p600
sS'chunktype'
p601
S'head:VGF'
p602
sS'voicetype'
p603
S'active'
p604
sS'vpos'
p605
S'tam_2_3'
p606
sS'stype'
p607
S'declarative'
p608
ssbsg26
I00
sg27
I00
sg28
Nsg29
Nsg30
I11
sg31
I0
sg32
Nsg33
Nsg34
S'VM'
p609
sg36
g590
sg37
I00
sba(issf_api
Word
p610
(dp611
g6
I00
sg7
V\u0930\u0939\u093e
p612
sg9
(issf_api
FeatureSet
p613
(dp614
g12
(dp615
S'posn'
p616
S'310'
p617
sS'name'
p618
S'\xe0\xa4\xb0\xe0\xa4\xb9\xe0\xa4\xbe'
p619
sS'drel'
p620
S'lwg__vaux:VGF'
p621
sS'chunktype'
p622
S'child:VGF'
p623
sS'af'
p624
S'\xe0\xa4\xb0\xe0\xa4\xb9,v,m,sg,any,,\xe0\xa4\xaf\xe0\xa4\xbe,yA'
p625
ssbsg26
I00
sg27
I00
sg28
Nsg29
Nsg30
I11
sg31
I0
sg32
Nsg33
Nsg34
S'VAUX'
p626
sg36
g613
sg37
I00
sba(issf_api
Word
p627
(dp628
g6
I00
sg7
V\u0939\u0948
p629
sg9
(issf_api
FeatureSet
p630
(dp631
g12
(dp632
S'posn'
p633
S'320'
p634
sS'name'
p635
S'\xe0\xa4\xb9\xe0\xa5\x88'
p636
sS'drel'
p637
S'lwg__vaux:VGF'
p638
sS'chunktype'
p639
S'child:VGF'
p640
sS'af'
p641
S'\xe0\xa4\xb9\xe0\xa5\x88,v,any,sg,3,,\xe0\xa4\xb9\xe0\xa5\x88,hE'
p642
ssbsg26
I00
sg27
I00
sg28
Nsg29
Nsg30
I11
sg31
I0
sg32
Nsg33
Nsg34
S'VAUX'
p643
sg36
g630
sg37
I00
sba(issf_api
Word
p644
(dp645
g6
I00
sg7
V\u0964
p646
sg9
(issf_api
FeatureSet
p647
(dp648
g12
(dp649
S'posn'
p650
S'330'
p651
sS'name'
p652
S'\xe0\xa5\xa4'
p653
sS'af'
p654
S'\xe0\xa5\xa4,punc,,,,,,'
p655
sS'chunkid'
p656
S'BLK'
p657
sS'drel'
p658
S'rsym:VGF'
p659
sS'chunktype'
p660
S'head:BLK'
p661
ssbsg26
I00
sg27
I00
sg28
Nsg29
Nsg30
I12
sg31
I0
sg32
Nsg33
Nsg34
S'SYM'
p662
sg36
g647
sg37
I00
sba(issf_api
Word
p663
(dp664
g6
I00
sg7
V\u0907\u0938
p665
sg9
(issf_api
FeatureSet
p666
(dp667
g12
(dp668
S'posn'
p669
S'10'
p670
sS'name'
p671
S'\xe0\xa4\x87\xe0\xa4\xb8'
p672
sS'af'
p673
S'\xe0\xa4\xaf\xe0\xa4\xb9,pn,any,sg,3,o,,'
p674
sS'drel'
p675
S'nmod__adj:NP'
p676
sS'chunktype'
p677
S'child:NP'
p678
sS'cref'
p679
S'i6%0:t4'
p680
ssbsg26
I00
sg27
I00
sg28
Nsg29
Nsg30
I0
sg31
I1
sg32
Nsg33
Nsg34
S'DEM'
p681
sg36
g666
sg37
I00
sba(issf_api
Word
p682
(dp683
g6
I00
sg7
V\u0924\u0915\u0928\u0940\u0915
p684
sg9
(issf_api
FeatureSet
p685
(dp686
g12
(dp687
S'crefhead'
p688
S'\xe0\xa4\xa4\xe0\xa4\x95\xe0\xa4\xa8\xe0\xa5\x80\xe0\xa4\x95:i6'
p689
sS'posn'
p690
S'20'
p691
sS'name'
p692
S'\xe0\xa4\xa4\xe0\xa4\x95\xe0\xa4\xa8\xe0\xa5\x80\xe0\xa4\x95'
p693
sS'af'
p694
S'\xe0\xa4\xa4\xe0\xa4\x95\xe0\xa4\xa8\xe0\xa5\x80\xe0\xa4\x95,n,f,sg,3,o,0_\xe0\xa4\x95\xe0\xa5\x87_\xe0\xa4\x9c\xe0\xa4\xb0\xe0\xa4\xbf\xe0\xa4\xaf\xe0\xa5\x87,0'
p695
sS'chunkid'
p696
S'NP'
p697
sS'creftype'
p698
S'Coreference-Noun-Noun:i5'
p699
sS'chunktype'
p700
S'head:NP'
p701
sS'vpos'
p702
S'vib_3_4'
p703
sS'cref'
p704
S'i6%1:t4'
p705
sS'drel'
p706
S'k3:VGF'
p707
ssbsg26
I00
sg27
I00
sg28
Nsg29
Nsg30
I0
sg31
I1
sg32
Nsg33
Nsg34
S'NN'
p708
sg36
g685
sg37
I00
sba(issf_api
Word
p709
(dp710
g6
I00
sg7
V\u0915\u0947
p711
sg9
(issf_api
FeatureSet
p712
(dp713
g12
(dp714
S'posn'
p715
S'30'
p716
sS'name'
p717
S'\xe0\xa4\x95\xe0\xa5\x87'
p718
sS'drel'
p719
S'lwg__psp:NP'
p720
sS'chunktype'
p721
S'child:NP'
p722
sS'af'
p723
S'\xe0\xa4\x95\xe0\xa5\x87,psp,,,,,,'
p724
ssbsg26
I00
sg27
I00
sg28
Nsg29
Nsg30
I0
sg31
I1
sg32
Nsg33
Nsg34
S'PSP'
p725
sg36
g712
sg37
I00
sba(issf_api
Word
p726
(dp727
g6
I00
sg7
V\u091c\u0930\u093f\u090f
p728
sg9
(issf_api
FeatureSet
p729
(dp730
g12
(dp731
S'posn'
p732
S'40'
p733
sS'name'
p734
S'\xe0\xa4\x9c\xe0\xa4\xb0\xe0\xa4\xbf\xe0\xa4\x8f'
p735
sS'drel'
p736
S'lwg__psp:NP'
p737
sS'chunktype'
p738
S'child:NP'
p739
sS'af'
p740
S'\xe0\xa4\x9c\xe0\xa4\xb0\xe0\xa4\xbf\xe0\xa4\xaf\xe0\xa5\x87,psp,,,,,,'
p741
ssbsg26
I00
sg27
I00
sg28
Nsg29
Nsg30
I0
sg31
I1
sg32
Nsg33
Nsg34
S'PSP'
p742
sg36
g729
sg37
I00
sba(issf_api
Word
p743
(dp744
g6
I00
sg7
V\u0930\u094b\u091c\u092e\u0930\u094d\u0930\u093e
p745
sg9
(issf_api
FeatureSet
p746
(dp747
g12
(dp748
S'posn'
p749
S'50'
p750
sS'name'
p751
S'\xe0\xa4\xb0\xe0\xa5\x8b\xe0\xa4\x9c\xe0\xa4\xae\xe0\xa4\xb0\xe0\xa5\x8d\xe0\xa4\xb0\xe0\xa4\xbe'
p752
sS'af'
p753
S'\xe0\xa4\xb0\xe0\xa5\x8b\xe0\xa4\x9c\xe0\xa4\xae\xe0\xa4\xb0\xe0\xa5\x8d\xe0\xa4\xb0\xe0\xa4\xbe,n,m,sg,3,o,0_\xe0\xa4\x95\xe0\xa4\xbe,0'
p754
sS'chunkid'
p755
S'NP2'
p756
sS'drel'
p757
S'r6:NP3'
p758
sS'vpos'
p759
S'vib_2'
p760
sS'chunktype'
p761
S'head:NP2'
p762
ssbsg26
I00
sg27
I00
sg28
Nsg29
Nsg30
I1
sg31
I1
sg32
Nsg33
Nsg34
S'NN'
p763
sg36
g746
sg37
I00
sba(issf_api
Word
p764
(dp765
g6
I00
sg7
V\u0915\u0940
p766
sg9
(issf_api
FeatureSet
p767
(dp768
g12
(dp769
S'posn'
p770
S'60'
p771
sS'name'
p772
S'\xe0\xa4\x95\xe0\xa5\x80'
p773
sS'drel'
p774
S'lwg__psp:NP2'
p775
sS'chunktype'
p776
S'child:NP2'
p777
sS'af'
p778
S'\xe0\xa4\x95\xe0\xa4\xbe,psp,f,sg,,o,,'
p779
ssbsg26
I00
sg27
I00
sg28
Nsg29
Nsg30
I1
sg31
I1
sg32
Nsg33
Nsg34
S'PSP'
p780
sg36
g767
sg37
I00
sba(issf_api
Word
p781
(dp782
g6
I00
sg7
V\u091c\u0930\u0942\u0930\u0924
p783
sg9
(issf_api
FeatureSet
p784
(dp785
g12
(dp786
S'posn'
p787
S'70'
p788
sS'name'
p789
S'\xe0\xa4\x9c\xe0\xa4\xb0\xe0\xa5\x82\xe0\xa4\xb0\xe0\xa4\xa4'
p790
sS'af'
p791
S'\xe0\xa4\x9c\xe0\xa4\xb0\xe0\xa5\x82\xe0\xa4\xb0\xe0\xa4\xa4,n,f,sg,3,o,0_\xe0\xa4\x95\xe0\xa4\xbe,0'
p792
sS'chunkid'
p793
S'NP3'
p794
sS'drel'
p795
S'r6:NP4'
p796
sS'vpos'
p797
S'vib_2'
p798
sS'chunktype'
p799
S'head:NP3'
p800
ssbsg26
I00
sg27
I00
sg28
Nsg29
Nsg30
I2
sg31
I1
sg32
Nsg33
Nsg34
S'NN'
p801
sg36
g784
sg37
I00
sba(issf_api
Word
p802
(dp803
g6
I00
sg7
V\u0915\u0947
p804
sg9
(issf_api
FeatureSet
p805
(dp806
g12
(dp807
S'posn'
p808
S'80'
p809
sS'name'
p810
S'\xe0\xa4\x95\xe0\xa5\x872'
p811
sS'drel'
p812
S'lwg__psp:NP3'
p813
sS'chunktype'
p814
S'child:NP3'
p815
sS'af'
p816
S'\xe0\xa4\x95\xe0\xa4\xbe,psp,m,pl,,o,,'
p817
ssbsg26
I00
sg27
I00
sg28
Nsg29
Nsg30
I2
sg31
I1
sg32
Nsg33
Nsg34
S'PSP'
p818
sg36
g805
sg37
I00
sba(issf_api
Word
p819
(dp820
g6
I00
sg7
V\u0916\u093e\u0926\u094d\u092f
p821
sg9
(issf_api
FeatureSet
p822
(dp823
g12
(dp824
S'posn'
p825
S'90'
p826
sS'name'
p827
S'\xe0\xa4\x96\xe0\xa4\xbe\xe0\xa4\xa6\xe0\xa5\x8d\xe0\xa4\xaf'
p828
sS'af'
p829
S'\xe0\xa4\x96\xe0\xa4\xbe\xe0\xa4\xa6\xe0\xa5\x8d\xe0\xa4\xaf,n,m,sg,3,d,0,0'
p830
sS'drel'
p831
S'pof__cn:NP4'
p832
sS'chunktype'
p833
S'child:NP4'
p834
sS'cref'
p835
S'i7%0:t1,i8%0:t2'
p836
ssbsg26
I00
sg27
I00
sg28
Nsg29
Nsg30
I3
sg31
I1
sg32
Nsg33
Nsg34
S'NNC'
p837
sg36
g822
sg37
I00
sba(issf_api
Word
p838
(dp839
g6
I00
sg7
V\u092a\u0926\u093e\u0930\u094d\u0925\u094b\u0902
p840
sg9
(issf_api
FeatureSet
p841
(dp842
g12
(dp843
S'crefhead'
p844
S'\xe0\xa4\xaa\xe0\xa4\xa6\xe0\xa4\xbe\xe0\xa4\xb0\xe0\xa5\x8d\xe0\xa4\xa5\xe0\xa5\x8b\xe0\xa4\x82:i7'
p845
sS'posn'
p846
S'100'
p847
sS'name'
p848
S'\xe0\xa4\xaa\xe0\xa4\xa6\xe0\xa4\xbe\xe0\xa4\xb0\xe0\xa5\x8d\xe0\xa4\xa5\xe0\xa5\x8b\xe0\xa4\x82'
p849
sS'af'
p850
S'\xe0\xa4\xaa\xe0\xa4\xa6\xe0\xa4\xbe\xe0\xa4\xb0\xe0\xa5\x8d\xe0\xa4\xa5,n,m,pl,3,o,0_\xe0\xa4\xae\xe0\xa5\x87\xe0\xa4\x82,0'
p851
sS'chunkid'
p852
S'NP4'
p853
sS'creftype'
p854
S'Coreference-Identity:i1'
p855
sS'chunktype'
p856
S'head:NP4'
p857
sS'vpos'
p858
S'vib_3'
p859
sS'cref'
p860
S'i7%1:t1,i8%0:t2'
p861
sS'drel'
p862
S'k7:VGF'
p863
ssbsg26
I00
sg27
I00
sg28
Nsg29
Nsg30
I3
sg31
I1
sg32
Nsg33
Nsg34
S'NN'
p864
sg36
g841
sg37
I00
sba(issf_api
Word
p865
(dp866
g6
I00
sg7
V\u092e\u0947\u0902
p867
sg9
(issf_api
FeatureSet
p868
(dp869
g12
(dp870
S'posn'
p871
S'110'
p872
sS'name'
p873
S'\xe0\xa4\xae\xe0\xa5\x87\xe0\xa4\x82'
p874
sS'af'
p875
S'\xe0\xa4\xae\xe0\xa5\x87\xe0\xa4\x82,psp,,,,,,'
p876
sS'drel'
p877
S'lwg__psp:NP4'
p878
sS'chunktype'
p879
S'child:NP4'
p880
sS'cref'
p881
S'i8%0:t2'
p882
ssbsg26
I00
sg27
I00
sg28
Nsg29
Nsg30
I3
sg31
I1
sg32
Nsg33
Nsg34
S'PSP'
p883
sg36
g868
sg37
I00
sba(issf_api
Word
p884
(dp885
g6
I00
sg7
V\u092e\u093f\u0932\u093e\u0935\u091f
p886
sg9
(issf_api
FeatureSet
p887
(dp888
g12
(dp889
S'crefhead'
p890
S'\xe0\xa4\xae\xe0\xa4\xbf\xe0\xa4\xb2\xe0\xa4\xbe\xe0\xa4\xb5\xe0\xa4\x9f:i8'
p891
sS'posn'
p892
S'120'
p893
sS'name'
p894
S'\xe0\xa4\xae\xe0\xa4\xbf\xe0\xa4\xb2\xe0\xa4\xbe\xe0\xa4\xb5\xe0\xa4\x9f'
p895
sS'af'
p896
S'\xe0\xa4\xae\xe0\xa4\xbf\xe0\xa4\xb2\xe0\xa4\xbe\xe0\xa4\xb5\xe0\xa4\x9f,n,f,sg,3,d,0,0'
p897
sS'chunkid'
p898
S'NP5'
p899
sS'creftype'
p900
S'Coreference-Identity:i2'
p901
sS'chunktype'
p902
S'head:NP5'
p903
sS'cref'
p904
S'i8%1:t2'
p905
sS'drel'
p906
S'pof:VGNN'
p907
ssbsg26
I00
sg27
I00
sg28
Nsg29
Nsg30
I4
sg31
I1
sg32
Nsg33
Nsg34
S'NN'
p908
sg36
g887
sg37
I00
sba(issf_api
Word
p909
(dp910
g6
I00
sg7
V\u0939\u094b\u0928\u0947
p911
sg9
(issf_api
FeatureSet
p912
(dp913
g12
(dp914
S'posn'
p915
S'130'
p916
sS'name'
p917
S'\xe0\xa4\xb9\xe0\xa5\x8b\xe0\xa4\xa8\xe0\xa5\x87'
p918
sS'af'
p919
S'\xe0\xa4\xb9\xe0\xa5\x8b,v,any,sg,any,o,\xe0\xa4\xa8\xe0\xa4\xbe_\xe0\xa4\x95\xe0\xa4\xbe,nA'
p920
sS'chunkid'
p921
S'VGNN'
p922
sS'drel'
p923
S'r6:NP6'
p924
sS'vpos'
p925
S'tam_2'
p926
sS'chunktype'
p927
S'head:VGNN'
p928
ssbsg26
I00
sg27
I00
sg28
Nsg29
Nsg30
I5
sg31
I1
sg32
Nsg33
Nsg34
S'VM'
p929
sg36
g912
sg37
I00
sba(issf_api
Word
p930
(dp931
g6
I00
sg7
V\u0915\u0940
p932
sg9
(issf_api
FeatureSet
p933
(dp934
g12
(dp935
S'posn'
p936
S'140'
p937
sS'name'
p938
S'\xe0\xa4\x95\xe0\xa5\x802'
p939
sS'drel'
p940
S'lwg__psp:VGNN'
p941
sS'chunktype'
p942
S'child:VGNN'
p943
sS'af'
p944
S'\xe0\xa4\x95\xe0\xa4\xbe,psp,f,sg,,o,,'
p945
ssbsg26
I00
sg27
I00
sg28
Nsg29
Nsg30
I5
sg31
I1
sg32
Nsg33
Nsg34
S'PSP'
p946
sg36
g933
sg37
I00
sba(issf_api
Word
p947
(dp948
g6
I00
sg7
V\u0936\u093f\u0915\u093e\u092f\u0924
p949
sg9
(issf_api
FeatureSet
p950
(dp951
g12
(dp952
S'posn'
p953
S'150'
p954
sS'name'
p955
S'\xe0\xa4\xb6\xe0\xa4\xbf\xe0\xa4\x95\xe0\xa4\xbe\xe0\xa4\xaf\xe0\xa4\xa4'
p956
sS'af'
p957
S'\xe0\xa4\xb6\xe0\xa4\xbf\xe0\xa4\x95\xe0\xa4\xbe\xe0\xa4\xaf\xe0\xa4\xa4,n,f,sg,3,o,0_\xe0\xa4\xaa\xe0\xa4\xb0,0'
p958
sS'chunkid'
p959
S'NP6'
p960
sS'drel'
p961
S'k7:VGF'
p962
sS'vpos'
p963
S'vib_2'
p964
sS'chunktype'
p965
S'head:NP6'
p966
ssbsg26
I00
sg27
I00
sg28
Nsg29
Nsg30
I6
sg31
I1
sg32
Nsg33
Nsg34
S'NN'
p967
sg36
g950
sg37
I00
sba(issf_api
Word
p968
(dp969
g6
I00
sg7
V\u092a\u0930
p970
sg9
(issf_api
FeatureSet
p971
(dp972
g12
(dp973
S'posn'
p974
S'160'
p975
sS'name'
p976
S'\xe0\xa4\xaa\xe0\xa4\xb0'
p977
sS'drel'
p978
S'lwg__psp:NP6'
p979
sS'chunktype'
p980
S'child:NP6'
p981
sS'af'
p982
S'\xe0\xa4\xaa\xe0\xa4\xb0,psp,,,,,,'
p983
ssbsg26
I00
sg27
I00
sg28
Nsg29
Nsg30
I6
sg31
I1
sg32
Nsg33
Nsg34
S'PSP'
p984
sg36
g971
sg37
I00
sba(issf_api
Word
p985
(dp986
g6
I00
sg7
V\u0906\u0938\u093e\u0928\u0940
p987
sg9
(issf_api
FeatureSet
p988
(dp989
g12
(dp990
S'posn'
p991
S'170'
p992
sS'name'
p993
S'\xe0\xa4\x86\xe0\xa4\xb8\xe0\xa4\xbe\xe0\xa4\xa8\xe0\xa5\x80'
p994
sS'af'
p995
S'\xe0\xa4\x86\xe0\xa4\xb8\xe0\xa4\xbe\xe0\xa4\xa8\xe0\xa5\x80,n,f,sg,3,o,0_\xe0\xa4\xb8\xe0\xa5\x87,0'
p996
sS'chunkid'
p997
S'NP7'
p998
sS'drel'
p999
S'adv:VGF'
p1000
sS'vpos'
p1001
S'vib_2'
p1002
sS'chunktype'
p1003
S'head:NP7'
p1004
ssbsg26
I00
sg27
I00
sg28
Nsg29
Nsg30
I7
sg31
I1
sg32
Nsg33
Nsg34
S'NN'
p1005
sg36
g988
sg37
I00
sba(issf_api
Word
p1006
(dp1007
g6
I00
sg7
V\u0938\u0947
p1008
sg9
(issf_api
FeatureSet
p1009
(dp1010
g12
(dp1011
S'posn'
p1012
S'180'
p1013
sS'name'
p1014
S'\xe0\xa4\xb8\xe0\xa5\x87'
p1015
sS'drel'
p1016
S'lwg__psp:NP7'
p1017
sS'chunktype'
p1018
S'child:NP7'
p1019
sS'af'
p1020
S'\xe0\xa4\xb8\xe0\xa5\x87,psp,,,,,,'
p1021
ssbsg26
I00
sg27
I00
sg28
Nsg29
Nsg30
I7
sg31
I1
sg32
Nsg33
Nsg34
S'PSP'
p1022
sg36
g1009
sg37
I00
sba(issf_api
Word
p1023
(dp1024
g6
I00
sg7
V\u091c\u093e\u0902\u091a
p1025
sg9
(issf_api
FeatureSet
p1026
(dp1027
g12
(dp1028
S'crefhead'
p1029
S'\xe0\xa4\x9c\xe0\xa4\xbe\xe0\xa4\x82\xe0\xa4\x9a:i9'
p1030
sS'posn'
p1031
S'190'
p1032
sS'name'
p1033
S'\xe0\xa4\x9c\xe0\xa4\xbe\xe0\xa4\x82\xe0\xa4\x9a'
p1034
sS'af'
p1035
S'\xe0\xa4\x9c\xe0\xa4\xbe\xe0\xa4\x82\xe0\xa4\x9a,n,f,sg,3,d,0,0'
p1036
sS'chunkid'
p1037
S'NP8'
p1038
sS'drel'
p1039
S'pof:VGF'
p1040
sS'chunktype'
p1041
S'head:NP8'
p1042
sS'cref'
p1043
S'i9%1:t5'
p1044
ssbsg26
I00
sg27
I00
sg28
Nsg29
Nsg30
I8
sg31
I1
sg32
Nsg33
Nsg34
S'NN'
p1045
sg36
g1026
sg37
I00
sba(issf_api
Word
p1046
(dp1047
g6
I00
sg7
V\u0915\u0940
p1048
sg9
(issf_api
FeatureSet
p1049
(dp1050
g12
(dp1051
S'posn'
p1052
S'200'
p1053
sS'name'
p1054
S'\xe0\xa4\x95\xe0\xa5\x803'
p1055
sS'af'
p1056
S'\xe0\xa4\x95\xe0\xa4\xb0,v,any,sg,3,,\xe0\xa4\xaf\xe0\xa4\xbe_\xe0\xa4\x9c\xe0\xa4\xbe_\xe0\xa4\xb8\xe0\xa4\x95+\xe0\xa4\x8f\xe0\xa4\x82,yA'
p1057
sS'chunkid'
p1058
S'VGF'
p1059
sS'chunktype'
p1060
S'head:VGF'
p1061
sS'voicetype'
p1062
S'active'
p1063
sS'vpos'
p1064
S'tam_2_3'
p1065
sS'stype'
p1066
S'declarative'
p1067
ssbsg26
I00
sg27
I00
sg28
Nsg29
Nsg30
I9
sg31
I1
sg32
Nsg33
Nsg34
S'VM'
p1068
sg36
g1049
sg37
I00
sba(issf_api
Word
p1069
(dp1070
g6
I00
sg7
V\u091c\u093e
p1071
sg9
(issf_api
FeatureSet
p1072
(dp1073
g12
(dp1074
S'posn'
p1075
S'210'
p1076
sS'name'
p1077
S'\xe0\xa4\x9c\xe0\xa4\xbe'
p1078
sS'drel'
p1079
S'lwg__vaux:VGF'
p1080
sS'chunktype'
p1081
S'child:VGF'
p1082
sS'af'
p1083
S'\xe0\xa4\x9c\xe0\xa4\xbe,v,any,any,any,,0,0'
p1084
ssbsg26
I00
sg27
I00
sg28
Nsg29
Nsg30
I9
sg31
I1
sg32
Nsg33
Nsg34
S'VAUX'
p1085
sg36
g1072
sg37
I00
sba(issf_api
Word
p1086
(dp1087
g6
I00
sg7
V\u0938\u0915\u0947
p1088
sg9
(issf_api
FeatureSet
p1089
(dp1090
g12
(dp1091
S'posn'
p1092
S'220'
p1093
sS'name'
p1094
S'\xe0\xa4\xb8\xe0\xa4\x95\xe0\xa5\x87'
p1095
sS'drel'
p1096
S'lwg__vaux:VGF'
p1097
sS'chunktype'
p1098
S'child:VGF'
p1099
sS'af'
p1100
S'\xe0\xa4\xb8\xe0\xa4\x95,v,any,sg,3,,\xe0\xa4\x8f\xe0\xa4\x82,eM'
p1101
ssbsg26
I00
sg27
I00
sg28
Nsg29
Nsg30
I9
sg31
I1
sg32
Nsg33
Nsg34
S'VAUX'
p1102
sg36
g1089
sg37
I00
sba(issf_api
Word
p1103
(dp1104
g6
I00
sg7
V\u0964
p1105
sg9
(issf_api
FeatureSet
p1106
(dp1107
g12
(dp1108
S'posn'
p1109
S'230'
p1110
sS'name'
p1111
S'\xe0\xa5\xa4'
p1112
sS'af'
p1113
S'\xe0\xa5\xa4,punc,,,,,,'
p1114
sS'chunkid'
p1115
S'BLK'
p1116
sS'drel'
p1117
S'rsym:VGF'
p1118
sS'chunktype'
p1119
S'head:BLK'
p1120
ssbsg26
I00
sg27
I00
sg28
Nsg29
Nsg30
I10
sg31
I1
sg32
Nsg33
Nsg34
S'SYM'
p1121
sg36
g1106
sg37
I00
sba(issf_api
Word
p1122
(dp1123
g6
I00
sg7
V\u0926\u0930\u0905\u0938\u0932
p1124
sg9
(issf_api
FeatureSet
p1125
(dp1126
g12
(dp1127
S'posn'
p1128
S'10'
p1129
sS'name'
p1130
S'\xe0\xa4\xa6\xe0\xa4\xb0\xe0\xa4\x85\xe0\xa4\xb8\xe0\xa4\xb2'
p1131
sS'af'
p1132
S'\xe0\xa4\xa6\xe0\xa4\xb0\xe0\xa4\x85\xe0\xa4\xb8\xe0\xa4\xb2,adv,,,,,,'
p1133
sS'chunkid'
p1134
S'RBP'
p1135
sS'drel'
p1136
S'sent-adv:VGF'
p1137
sS'chunktype'
p1138
S'head:RBP'
p1139
ssbsg26
I00
sg27
I00
sg28
Nsg29
Nsg30
I0
sg31
I2
sg32
Nsg33
Nsg34
S'RB'
p1140
sg36
g1125
sg37
I00
sba(issf_api
Word
p1141
(dp1142
g6
I00
sg7
V\u092d\u093e\u0930\u0924\u0940\u092f
p1143
sg9
(issf_api
FeatureSet
p1144
(dp1145
g12
(dp1146
S'posn'
p1147
S'80'
p1148
sS'name'
p1149
S'\xe0\xa4\xad\xe0\xa4\xbe\xe0\xa4\xb0\xe0\xa4\xa4\xe0\xa5\x80\xe0\xa4\xaf'
p1150
sS'af'
p1151
S'\xe0\xa4\xad\xe0\xa4\xbe\xe0\xa4\xb0\xe0\xa4\xa4\xe0\xa5\x80\xe0\xa4\xaf,adj,any,any,,o,,'
p1152
sS'drel'
p1153
S'pof__cn:NP'
p1154
sS'chunktype'
p1155
S'child:NP'
p1156
sS'cref'
p1157
S'i10%0:t3'
p1158
ssbsg26
I00
sg27
I00
sg28
Nsg29
Nsg30
I1
sg31
I2
sg32
Nsg33
Nsg34
S'NNPC'
p1159
sg36
g1144
sg37
I00
sba(issf_api
Word
p1160
(dp1161
g6
I00
sg7
V\u092e\u093e\u0928\u0915
p1162
sg9
(issf_api
FeatureSet
p1163
(dp1164
g12
(dp1165
S'posn'
p1166
S'30'
p1167
sS'name'
p1168
S'\xe0\xa4\xae\xe0\xa4\xbe\xe0\xa4\xa8\xe0\xa4\x95'
p1169
sS'af'
p1170
S'\xe0\xa4\xae\xe0\xa4\xbe\xe0\xa4\xa8\xe0\xa4\x95,n,m,sg,3,d,0,0'
p1171
sS'drel'
p1172
S'pof__cn:NP'
p1173
sS'chunktype'
p1174
S'child:NP'
p1175
sS'cref'
p1176
S'i10%0:t3'
p1177
ssbsg26
I00
sg27
I00
sg28
Nsg29
Nsg30
I1
sg31
I2
sg32
Nsg33
Nsg34
S'NNPC'
p1178
sg36
g1163
sg37
I00
sba(issf_api
Word
p1179
(dp1180
g6
I00
sg7
V\u092c\u094d\u092f\u0942\u0930\u094b
p1181
sg9
(issf_api
FeatureSet
p1182
(dp1183
g12
(dp1184
S'crefhead'
p1185
S'\xe0\xa4\xac\xe0\xa5\x8d\xe0\xa4\xaf\xe0\xa5\x82\xe0\xa4\xb0\xe0\xa5\x8b:i10'
p1186
sS'posn'
p1187
S'40'
p1188
sS'name'
p1189
S'\xe0\xa4\xac\xe0\xa5\x8d\xe0\xa4\xaf\xe0\xa5\x82\xe0\xa4\xb0\xe0\xa5\x8b'
p1190
sS'af'
p1191
S'\xe0\xa4\xac\xe0\xa5\x8d\xe0\xa4\xaf\xe0\xa5\x82\xe0\xa4\xb0\xe0\xa5\x8b,n,m,sg,3,o,0_\xe0\xa4\x95\xe0\xa5\x8b,0'
p1192
sS'chunkid'
p1193
S'NP'
p1194
sS'creftype'
p1195
S'Coreference-Noun-Noun:i4'
p1196
sS'chunktype'
p1197
S'head:NP'
p1198
sS'vpos'
p1199
S'vib_4'
p1200
sS'cref'
p1201
S'i10%1:t3'
p1202
sS'drel'
p1203
S'k4:VGF'
p1204
ssbsg26
I00
sg27
I00
sg28
Nsg29
Nsg30
I1
sg31
I2
sg32
Nsg33
Nsg34
S'NNP'
p1205
sg36
g1182
sg37
I00
sba(issf_api
Word
p1206
(dp1207
g6
I00
sg7
V\u0915\u094b
p1208
sg9
(issf_api
FeatureSet
p1209
(dp1210
g12
(dp1211
S'posn'
p1212
S'50'
p1213
sS'name'
p1214
S'\xe0\xa4\x95\xe0\xa5\x8b'
p1215
sS'drel'
p1216
S'lwg__psp:NP'
p1217
sS'chunktype'
p1218
S'child:NP'
p1219
sS'af'
p1220
S'\xe0\xa4\x95\xe0\xa5\x8b,psp,,,,,,'
p1221
ssbsg26
I00
sg27
I00
sg28
Nsg29
Nsg30
I1
sg31
I2
sg32
Nsg33
Nsg34
S'PSP'
p1222
sg36
g1209
sg37
I00
sba(issf_api
Word
p1223
(dp1224
g6
I00
sg7
V\u0938\u092c\u0938\u0947
p1225
sg9
(issf_api
FeatureSet
p1226
(dp1227
g12
(dp1228
S'posn'
p1229
S'60'
p1230
sS'name'
p1231
S'\xe0\xa4\xb8\xe0\xa4\xac\xe0\xa4\xb8\xe0\xa5\x87'
p1232
sS'af'
p1233
S'\xe0\xa4\xb8\xe0\xa4\xac\xe0\xa4\xb8\xe0\xa5\x87,avy,,,,,,'
p1234
sS'chunkid'
p1235
S'NP2'
p1236
sS'drel'
p1237
S'vmod:VGF'
p1238
sS'chunktype'
p1239
S'head:NP2'
p1240
ssbsg26
I00
sg27
I00
sg28
Nsg29
Nsg30
I2
sg31
I2
sg32
Nsg33
Nsg34
S'INTF'
p1241
sg36
g1226
sg37
I00
sba(issf_api
Word
p1242
(dp1243
g6
I00
sg7
V\u091c\u094d\u092f\u093e\u0926\u093e
p1244
sg9
(issf_api
FeatureSet
p1245
(dp1246
g12
(dp1247
S'posn'
p1248
S'70'
p1249
sS'name'
p1250
S'\xe0\xa4\x9c\xe0\xa5\x8d\xe0\xa4\xaf\xe0\xa4\xbe\xe0\xa4\xa6\xe0\xa4\xbe'
p1251
sS'drel'
p1252
S'nmod__adj:NP2'
p1253
sS'chunktype'
p1254
S'child:NP2'
p1255
sS'af'
p1256
S'\xe0\xa4\x9c\xe0\xa5\x8d\xe0\xa4\xaf\xe0\xa4\xbe\xe0\xa4\xa6\xe0\xa4\xbe,avy,,,,,,'
p1257
ssbsg26
I00
sg27
I00
sg28
Nsg29
Nsg30
I2
sg31
I2
sg32
Nsg33
Nsg34
S'QF'
p1258
sg36
g1245
sg37
I00
sba(issf_api
Word
p1259
(dp1260
g6
I00
sg7
V\u0916\u093e\u0926\u094d\u092f
p1261
sg9
(issf_api
FeatureSet
p1262
(dp1263
g12
(dp1264
S'posn'
p1265
S'80'
p1266
sS'name'
p1267
S'\xe0\xa4\x96\xe0\xa4\xbe\xe0\xa4\xa6\xe0\xa5\x8d\xe0\xa4\xaf'
p1268
sS'af'
p1269
S'\xe0\xa4\x96\xe0\xa4\xbe\xe0\xa4\xa6\xe0\xa5\x8d\xe0\xa4\xaf,n,m,sg,3,d,0,0'
p1270
sS'drel'
p1271
S'pof__cn:NP3'
p1272
sS'chunktype'
p1273
S'child:NP3'
p1274
sS'cref'
p1275
S'i11%0:t1,i12%0:t2'
p1276
ssbsg26
I00
sg27
I00
sg28
Nsg29
Nsg30
I3
sg31
I2
sg32
Nsg33
Nsg34
S'NNC'
p1277
sg36
g1262
sg37
I00
sba(issf_api
Word
p1278
(dp1279
g6
I00
sg7
V\u092a\u0926\u093e\u0930\u094d\u0925\u094b\u0902
p1280
sg9
(issf_api
FeatureSet
p1281
(dp1282
g12
(dp1283
S'crefhead'
p1284
S'\xe0\xa4\xaa\xe0\xa4\xa6\xe0\xa4\xbe\xe0\xa4\xb0\xe0\xa5\x8d\xe0\xa4\xa5\xe0\xa5\x8b\xe0\xa4\x82:i11'
p1285
sS'posn'
p1286
S'90'
p1287
sS'name'
p1288
S'\xe0\xa4\xaa\xe0\xa4\xa6\xe0\xa4\xbe\xe0\xa4\xb0\xe0\xa5\x8d\xe0\xa4\xa5\xe0\xa5\x8b\xe0\xa4\x82'
p1289
sS'af'
p1290
S'\xe0\xa4\xaa\xe0\xa4\xa6\xe0\xa4\xbe\xe0\xa4\xb0\xe0\xa5\x8d\xe0\xa4\xa5,n,m,pl,3,o,0_\xe0\xa4\xae\xe0\xa5\x87\xe0\xa4\x82,0'
p1291
sS'chunkid'
p1292
S'NP3'
p1293
sS'creftype'
p1294
S'Coreference-Identity:i7'
p1295
sS'chunktype'
p1296
S'head:NP3'
p1297
sS'vpos'
p1298
S'vib_3'
p1299
sS'cref'
p1300
S'i11%1:t1,i12%0:t2'
p1301
sS'drel'
p1302
S'k7:VGF'
p1303
ssbsg26
I00
sg27
I00
sg28
Nsg29
Nsg30
I3
sg31
I2
sg32
Nsg33
Nsg34
S'NN'
p1304
sg36
g1281
sg37
I00
sba(issf_api
Word
p1305
(dp1306
g6
I00
sg7
V\u092e\u0947\u0902
p1307
sg9
(issf_api
FeatureSet
p1308
(dp1309
g12
(dp1310
S'posn'
p1311
S'100'
p1312
sS'name'
p1313
S'\xe0\xa4\xae\xe0\xa5\x87\xe0\xa4\x82'
p1314
sS'af'
p1315
S'\xe0\xa4\xae\xe0\xa5\x87\xe0\xa4\x82,psp,,,,,,'
p1316
sS'drel'
p1317
S'lwg__psp:NP3'
p1318
sS'chunktype'
p1319
S'child:NP3'
p1320
sS'cref'
p1321
S'i12%0:t2'
p1322
ssbsg26
I00
sg27
I00
sg28
Nsg29
Nsg30
I3
sg31
I2
sg32
Nsg33
Nsg34
S'PSP'
p1323
sg36
g1308
sg37
I00
sba(issf_api
Word
p1324
(dp1325
g6
I00
sg7
V\u092e\u093f\u0932\u093e\u0935\u091f
p1326
sg9
(issf_api
FeatureSet
p1327
(dp1328
g12
(dp1329
S'crefhead'
p1330
S'\xe0\xa4\xae\xe0\xa4\xbf\xe0\xa4\xb2\xe0\xa4\xbe\xe0\xa4\xb5\xe0\xa4\x9f:i12'
p1331
sS'posn'
p1332
S'110'
p1333
sS'name'
p1334
S'\xe0\xa4\xae\xe0\xa4\xbf\xe0\xa4\xb2\xe0\xa4\xbe\xe0\xa4\xb5\xe0\xa4\x9f'
p1335
sS'af'
p1336
S'\xe0\xa4\xae\xe0\xa4\xbf\xe0\xa4\xb2\xe0\xa4\xbe\xe0\xa4\xb5\xe0\xa4\x9f,n,f,sg,3,o,0_\xe0\xa4\x95\xe0\xa4\xbe,0'
p1337
sS'chunkid'
p1338
S'NP4'
p1339
sS'creftype'
p1340
S'Coreference-Identity:i8'
p1341
sS'chunktype'
p1342
S'head:NP4'
p1343
sS'vpos'
p1344
S'vib_2'
p1345
sS'cref'
p1346
S'i12%1:t2'
p1347
sS'drel'
p1348
S'r6:NP5'
p1349
ssbsg26
I00
sg27
I00
sg28
Nsg29
Nsg30
I4
sg31
I2
sg32
Nsg33
Nsg34
S'NN'
p1350
sg36
g1327
sg37
I00
sba(issf_api
Word
p1351
(dp1352
g6
I00
sg7
V\u0915\u0940
p1353
sg9
(issf_api
FeatureSet
p1354
(dp1355
g12
(dp1356
S'posn'
p1357
S'120'
p1358
sS'name'
p1359
S'\xe0\xa4\x95\xe0\xa5\x80'
p1360
sS'drel'
p1361
S'lwg__psp:NP4'
p1362
sS'chunktype'
p1363
S'child:NP4'
p1364
sS'af'
p1365
S'\xe0\xa4\x95\xe0\xa4\xbe,psp,f,pl,,d,,'
p1366
ssbsg26
I00
sg27
I00
sg28
Nsg29
Nsg30
I4
sg31
I2
sg32
Nsg33
Nsg34
S'PSP'
p1367
sg36
g1354
sg37
I00
sba(issf_api
Word
p1368
(dp1369
g6
I00
sg7
V\u0936\u093f\u0915\u093e\u092f\u0924\u0947\u0902
p1370
sg9
(issf_api
FeatureSet
p1371
(dp1372
g12
(dp1373
S'posn'
p1374
S'130'
p1375
sS'name'
p1376
S'\xe0\xa4\xb6\xe0\xa4\xbf\xe0\xa4\x95\xe0\xa4\xbe\xe0\xa4\xaf\xe0\xa4\xa4\xe0\xa5\x87\xe0\xa4\x82'
p1377
sS'af'
p1378
S'\xe0\xa4\xb6\xe0\xa4\xbf\xe0\xa4\x95\xe0\xa4\xbe\xe0\xa4\xaf\xe0\xa4\xa4,n,f,pl,3,d,0,0'
p1379
sS'chunkid'
p1380
S'NP5'
p1381
sS'drel'
p1382
S'k2:VGF'
p1383
sS'chunktype'
p1384
S'head:NP5'
p1385
ssbsg26
I00
sg27
I00
sg28
Nsg29
Nsg30
I5
sg31
I2
sg32
Nsg33
Nsg34
S'NN'
p1386
sg36
g1371
sg37
I00
sba(issf_api
Word
p1387
(dp1388
g6
I00
sg7
V\u092e\u093f\u0932\u0924\u0940
p1389
sg9
(issf_api
FeatureSet
p1390
(dp1391
g12
(dp1392
S'posn'
p1393
S'140'
p1394
sS'name'
p1395
S'\xe0\xa4\xae\xe0\xa4\xbf\xe0\xa4\xb2\xe0\xa4\xa4\xe0\xa5\x80'
p1396
sS'af'
p1397
S'\xe0\xa4\xae\xe0\xa4\xbf\xe0\xa4\xb2,v,f,pl,3,,\xe0\xa4\xa4\xe0\xa4\xbe_\xe0\xa4\xb9\xe0\xa5\x88,wA'
p1398
sS'chunkid'
p1399
S'VGF'
p1400
sS'chunktype'
p1401
S'head:VGF'
p1402
sS'voicetype'
p1403
S'active'
p1404
sS'vpos'
p1405
S'tam_2'
p1406
sS'stype'
p1407
S'declarative'
p1408
ssbsg26
I00
sg27
I00
sg28
Nsg29
Nsg30
I6
sg31
I2
sg32
Nsg33
Nsg34
S'VM'
p1409
sg36
g1390
sg37
I00
sba(issf_api
Word
p1410
(dp1411
g6
I00
sg7
V\u0939\u0948\u0902
p1412
sg9
(issf_api
FeatureSet
p1413
(dp1414
g12
(dp1415
S'posn'
p1416
S'150'
p1417
sS'name'
p1418
S'\xe0\xa4\xb9\xe0\xa5\x88\xe0\xa4\x82'
p1419
sS'drel'
p1420
S'lwg__vaux:VGF'
p1421
sS'chunktype'
p1422
S'child:VGF'
p1423
sS'af'
p1424
S'\xe0\xa4\xb9\xe0\xa5\x88,v,any,pl,3,,\xe0\xa4\xb9\xe0\xa5\x88,hE'
p1425
ssbsg26
I00
sg27
I00
sg28
Nsg29
Nsg30
I6
sg31
I2
sg32
Nsg33
Nsg34
S'VAUX'
p1426
sg36
g1413
sg37
I00
sba(issf_api
Word
p1427
(dp1428
g6
I00
sg7
V\u0964
p1429
sg9
(issf_api
FeatureSet
p1430
(dp1431
g12
(dp1432
S'posn'
p1433
S'160'
p1434
sS'name'
p1435
S'\xe0\xa5\xa4'
p1436
sS'af'
p1437
S'\xe0\xa5\xa4,punc,,,,,,'
p1438
sS'chunkid'
p1439
S'BLK'
p1440
sS'drel'
p1441
S'rsym:VGF'
p1442
sS'chunktype'
p1443
S'head:BLK'
p1444
ssbsg26
I00
sg27
I00
sg28
Nsg29
Nsg30
I7
sg31
I2
sg32
Nsg33
Nsg34
S'SYM'
p1445
sg36
g1430
sg37
I00
sba(issf_api
Word
p1446
(dp1447
g6
I00
sg7
V\u0939\u093e\u0932\u093e\u0902\u0915\u093f
p1448
sg9
(issf_api
FeatureSet
p1449
(dp1450
g12
(dp1451
S'posn'
p1452
S'10'
p1453
sS'chunkid'
p1454
S'CCP'
p1455
sS'name'
p1456
S'\xe0\xa4\xb9\xe0\xa4\xbe\xe0\xa4\xb2\xe0\xa4\xbe\xe0\xa4\x82\xe0\xa4\x95\xe0\xa4\xbf'
p1457
sS'chunktype'
p1458
S'head:CCP'
p1459
sS'af'
p1460
S'\xe0\xa4\xb9\xe0\xa4\xbe\xe0\xa4\xb2\xe0\xa4\xbe\xe0\xa4\x82\xe0\xa4\x95\xe0\xa4\xbf,avy,,,,,,'
p1461
ssbsg26
I00
sg27
I00
sg28
Nsg29
Nsg30
I0
sg31
I3
sg32
Nsg33
Nsg34
S'CC'
p1462
sg36
g1449
sg37
I00
sba(issf_api
Word
p1463
(dp1464
g6
I00
sg7
V\u0926\u0947\u0936
p1465
sg9
(issf_api
FeatureSet
p1466
(dp1467
g12
(dp1468
S'posn'
p1469
S'20'
p1470
sS'name'
p1471
S'\xe0\xa4\xa6\xe0\xa5\x87\xe0\xa4\xb6'
p1472
sS'af'
p1473
S'\xe0\xa4\xa6\xe0\xa5\x87\xe0\xa4\xb6,n,m,sg,3,o,0_\xe0\xa4\xae\xe0\xa5\x87\xe0\xa4\x82,0'
p1474
sS'chunkid'
p1475
S'NP'
p1476
sS'drel'
p1477
S'k7:VGF'
p1478
sS'vpos'
p1479
S'vib_RP_3'
p1480
sS'chunktype'
p1481
S'head:NP'
p1482
ssbsg26
I00
sg27
I00
sg28
Nsg29
Nsg30
I1
sg31
I3
sg32
Nsg33
Nsg34
S'NN'
p1483
sg36
g1466
sg37
I00
sba(issf_api
Word
p1484
(dp1485
g6
I00
sg7
V\u092d\u0930
p1486
sg9
(issf_api
FeatureSet
p1487
(dp1488
g12
(dp1489
S'posn'
p1490
S'30'
p1491
sS'name'
p1492
S'\xe0\xa4\xad\xe0\xa4\xb0'
p1493
sS'drel'
p1494
S'lwg__rp:NP'
p1495
sS'chunktype'
p1496
S'child:NP'
p1497
sS'af'
p1498
S'\xe0\xa4\xad\xe0\xa4\xb0,avy,,,,,,'
p1499
ssbsg26
I00
sg27
I00
sg28
Nsg29
Nsg30
I1
sg31
I3
sg32
Nsg33
Nsg34
S'RP'
p1500
sg36
g1487
sg37
I00
sba(issf_api
Word
p1501
(dp1502
g6
I00
sg7
V\u092e\u0947\u0902
p1503
sg9
(issf_api
FeatureSet
p1504
(dp1505
g12
(dp1506
S'posn'
p1507
S'40'
p1508
sS'name'
p1509
S'\xe0\xa4\xae\xe0\xa5\x87\xe0\xa4\x82'
p1510
sS'drel'
p1511
S'lwg__psp:NP'
p1512
sS'chunktype'
p1513
S'child:NP'
p1514
sS'af'
p1515
S'\xe0\xa4\xae\xe0\xa5\x87\xe0\xa4\x82,psp,,,,,,'
p1516
ssbsg26
I00
sg27
I00
sg28
Nsg29
Nsg30
I1
sg31
I3
sg32
Nsg33
Nsg34
S'PSP'
p1517
sg36
g1504
sg37
I00
sba(issf_api
Word
p1518
(dp1519
g6
I00
sg7
V\u092c\u0940\u0906\u0908\u090f\u0938
p1520
sg9
(issf_api
FeatureSet
p1521
(dp1522
g12
(dp1523
S'crefhead'
p1524
S'\xe0\xa4\xac\xe0\xa5\x80\xe0\xa4\x86\xe0\xa4\x88\xe0\xa4\x8f\xe0\xa4\xb8:i13'
p1525
sS'posn'
p1526
S'50'
p1527
sS'name'
p1528
S'\xe0\xa4\xac\xe0\xa5\x80\xe0\xa4\x86\xe0\xa4\x88\xe0\xa4\x8f\xe0\xa4\xb8'
p1529
sS'af'
p1530
S'\xe0\xa4\xac\xe0\xa5\x80\xe0\xa4\x86\xe0\xa4\x88\xe0\xa4\x8f\xe0\xa4\xb8,n,m,sg,3,o,0_\xe0\xa4\x95\xe0\xa4\xbe,0'
p1531
sS'acrefmodhead'
p1532
S'\xe0\xa4\xac\xe0\xa5\x80\xe0\xa4\x86\xe0\xa4\x88\xe0\xa4\x8f\xe0\xa4\xb8:m1'
p1533
sS'chunkid'
p1534
S'NP2'
p1535
sS'acrefmod'
p1536
S'm1%1:i14'
p1537
sS'creftype'
p1538
S'Coreference-Bracketed/Abbraviation:i10'
p1539
sS'chunktype'
p1540
S'head:NP2'
p1541
sS'vpos'
p1542
S'vib_2'
p1543
sS'cref'
p1544
S'i13%1:t3'
p1545
sS'drel'
p1546
S'r6:NP3'
p1547
ssbsg26
I00
sg27
I00
sg28
Nsg29
Nsg30
I2
sg31
I3
sg32
Nsg33
Nsg34
S'NNP'
p1548
sg36
g1521
sg37
I00
sba(issf_api
Word
p1549
(dp1550
g6
I00
sg7
V\u0915\u0947
p1551
sg9
(issf_api
FeatureSet
p1552
(dp1553
g12
(dp1554
S'posn'
p1555
S'60'
p1556
sS'name'
p1557
S'\xe0\xa4\x95\xe0\xa5\x87'
p1558
sS'drel'
p1559
S'lwg__psp:NP2'
p1560
sS'chunktype'
p1561
S'child:NP2'
p1562
sS'af'
p1563
S'\xe0\xa4\x95\xe0\xa4\xbe,psp,m,pl,,d,,'
p1564
ssbsg26
I00
sg27
I00
sg28
Nsg29
Nsg30
I2
sg31
I3
sg32
Nsg33
Nsg34
S'PSP'
p1565
sg36
g1552
sg37
I00
sba(issf_api
Word
p1566
(dp1567
g6
I00
sg7
V\u0915\u093e\u0930\u094d\u092f\u093e\u0932\u092f
p1568
sg9
(issf_api
FeatureSet
p1569
(dp1570
g12
(dp1571
S'crefhead'
p1572
S'\xe0\xa4\x95\xe0\xa4\xbe\xe0\xa4\xb0\xe0\xa5\x8d\xe0\xa4\xaf\xe0\xa4\xbe\xe0\xa4\xb2\xe0\xa4\xaf:i14'
p1573
sS'posn'
p1574
S'70'
p1575
sS'name'
p1576
S'\xe0\xa4\x95\xe0\xa4\xbe\xe0\xa4\xb0\xe0\xa5\x8d\xe0\xa4\xaf\xe0\xa4\xbe\xe0\xa4\xb2\xe0\xa4\xaf'
p1577
sS'af'
p1578
S'\xe0\xa4\x95\xe0\xa4\xbe\xe0\xa4\xb0\xe0\xa5\x8d\xe0\xa4\xaf\xe0\xa4\xbe\xe0\xa4\xb2\xe0\xa4\xaf,n,m,pl,3,d,0,0'
p1579
sS'chunkid'
p1580
S'NP3'
p1581
sS'crefmod'
p1582
S'm1:i14'
p1583
sS'chunktype'
p1584
S'head:NP3'
p1585
sS'crefchainhead'
p1586
S'i14:t6'
p1587
sS'cref'
p1588
S'i14%1:t6'
p1589
sS'drel'
p1590
S'k1:VGF'
p1591
ssbsg26
I00
sg27
I00
sg28
Nsg29
Nsg30
I3
sg31
I3
sg32
Nsg33
Nsg34
S'NN'
p1592
sg36
g1569
sg37
I00
sba(issf_api
Word
p1593
(dp1594
g6
I00
sg7
V\u092e\u094c\u091c\u0942\u0926
p1595
sg9
(issf_api
FeatureSet
p1596
(dp1597
g12
(dp1598
S'posn'
p1599
S'80'
p1600
sS'name'
p1601
S'\xe0\xa4\xae\xe0\xa5\x8c\xe0\xa4\x9c\xe0\xa5\x82\xe0\xa4\xa6'
p1602
sS'af'
p1603
S'\xe0\xa4\xae\xe0\xa5\x8c\xe0\xa4\x9c\xe0\xa5\x82\xe0\xa4\xa6,adj,any,any,,,,'
p1604
sS'chunkid'
p1605
S'JJP'
p1606
sS'drel'
p1607
S'k1s:VGF'
p1608
sS'chunktype'
p1609
S'head:JJP'
p1610
ssbsg26
I00
sg27
I00
sg28
Nsg29
Nsg30
I4
sg31
I3
sg32
Nsg33
Nsg34
S'JJ'
p1611
sg36
g1596
sg37
I00
sba(issf_api
Word
p1612
(dp1613
g6
I00
sg7
V\u0939\u0948\u0902
p1614
sg9
(issf_api
FeatureSet
p1615
(dp1616
g12
(dp1617
S'posn'
p1618
S'90'
p1619
sS'name'
p1620
S'\xe0\xa4\xb9\xe0\xa5\x88\xe0\xa4\x82'
p1621
sS'af'
p1622
S'\xe0\xa4\xb9\xe0\xa5\x88,v,any,pl,3,,\xe0\xa4\xb9\xe0\xa5\x88,hE'
p1623
sS'chunkid'
p1624
S'VGF'
p1625
sS'stype'
p1626
S'declarative'
p1627
sS'drel'
p1628
S'ccof:CCP'
p1629
sS'voicetype'
p1630
S'active'
p1631
sS'chunktype'
p1632
S'head:VGF'
p1633
ssbsg26
I00
sg27
I00
sg28
Nsg29
Nsg30
I5
sg31
I3
sg32
Nsg33
Nsg34
S'VM'
p1634
sg36
g1615
sg37
I00
sba(issf_api
Word
p1635
(dp1636
g6
I00
sg7
V\u091c\u0939\u093e\u0902
p1637
sg9
(issf_api
FeatureSet
p1638
(dp1639
g12
(dp1640
S'crefhead'
p1641
S'\xe0\xa4\x9c\xe0\xa4\xb9\xe0\xa4\xbe\xe0\xa4\x82:i15'
p1642
sS'posn'
p1643
S'100'
p1644
sS'name'
p1645
S'\xe0\xa4\x9c\xe0\xa4\xb9\xe0\xa4\xbe\xe0\xa4\x82'
p1646
sS'af'
p1647
S'\xe0\xa4\x9c\xe0\xa4\xb9\xe0\xa4\xbe\xe0\xa4\x81,pn,,,,d,,'
p1648
sS'coref'
p1649
S':NP3'
p1650
sS'chunkid'
p1651
S'NP4'
p1652
sS'creftype'
p1653
S'Anaphora-C:i14'
p1654
sS'chunktype'
p1655
S'head:NP4'
p1656
sS'cref'
p1657
S'i15%1:t6'
p1658
sS'drel'
p1659
S'k7p:VGF2'
p1660
ssbsg26
I00
sg27
I00
sg28
Nsg29
Nsg30
I6
sg31
I3
sg32
Nsg33
Nsg34
S'PRP'
p1661
sg36
g1638
sg37
I00
sba(issf_api
Word
p1662
(dp1663
g6
I00
sg7
V\u0916\u093e\u0926\u094d\u092f
p1664
sg9
(issf_api
FeatureSet
p1665
(dp1666
g12
(dp1667
S'posn'
p1668
S'110'
p1669
sS'name'
p1670
S'\xe0\xa4\x96\xe0\xa4\xbe\xe0\xa4\xa6\xe0\xa5\x8d\xe0\xa4\xaf'
p1671
sS'af'
p1672
S'\xe0\xa4\x96\xe0\xa4\xbe\xe0\xa4\xa6\xe0\xa5\x8d\xe0\xa4\xaf,n,m,pl,3,d,0,0'
p1673
sS'acrefmod'
p1674
S'm2%0:i18'
p1675
sS'drel'
p1676
S'pof__cn:NP5'
p1677
sS'chunktype'
p1678
S'child:NP5'
p1679
sS'cref'
p1680
S'i16%0:t1,i17%0:t2'
p1681
ssbsg26
I00
sg27
I00
sg28
Nsg29
Nsg30
I7
sg31
I3
sg32
Nsg33
Nsg34
S'NNC'
p1682
sg36
g1665
sg37
I00
sba(issf_api
Word
p1683
(dp1684
g6
I00
sg7
V\u092a\u0926\u093e\u0930\u094d\u0925\u094b\u0902
p1685
sg9
(issf_api
FeatureSet
p1686
(dp1687
g12
(dp1688
S'crefhead'
p1689
S'\xe0\xa4\xaa\xe0\xa4\xa6\xe0\xa4\xbe\xe0\xa4\xb0\xe0\xa5\x8d\xe0\xa4\xa5\xe0\xa5\x8b\xe0\xa4\x82:i16'
p1690
sS'posn'
p1691
S'120'
p1692
sS'name'
p1693
S'\xe0\xa4\xaa\xe0\xa4\xa6\xe0\xa4\xbe\xe0\xa4\xb0\xe0\xa5\x8d\xe0\xa4\xa5\xe0\xa5\x8b\xe0\xa4\x82'
p1694
sS'af'
p1695
S'\xe0\xa4\xaa\xe0\xa4\xa6\xe0\xa4\xbe\xe0\xa4\xb0\xe0\xa5\x8d\xe0\xa4\xa5,n,m,pl,3,o,0_\xe0\xa4\xae\xe0\xa5\x87\xe0\xa4\x82,0'
p1696
sS'chunkid'
p1697
S'NP5'
p1698
sS'acrefmod'
p1699
S'm2%0:i18'
p1700
sS'creftype'
p1701
S'Coreference-Identity:i11'
p1702
sS'chunktype'
p1703
S'head:NP5'
p1704
sS'vpos'
p1705
S'vib_3'
p1706
sS'cref'
p1707
S'i16%1:t1,i17%0:t2'
p1708
sS'drel'
p1709
S'k7:VGF2'
p1710
ssbsg26
I00
sg27
I00
sg28
Nsg29
Nsg30
I7
sg31
I3
sg32
Nsg33
Nsg34
S'NN'
p1711
sg36
g1686
sg37
I00
sba(issf_api
Word
p1712
(dp1713
g6
I00
sg7
V\u092e\u0947\u0902
p1714
sg9
(issf_api
FeatureSet
p1715
(dp1716
g12
(dp1717
S'posn'
p1718
S'130'
p1719
sS'name'
p1720
S'\xe0\xa4\xae\xe0\xa5\x87\xe0\xa4\x822'
p1721
sS'af'
p1722
S'\xe0\xa4\xae\xe0\xa5\x87\xe0\xa4\x82,psp,,,,,,'
p1723
sS'acrefmod'
p1724
S'm2%0:i18'
p1725
sS'drel'
p1726
S'lwg__psp:NP5'
p1727
sS'chunktype'
p1728
S'child:NP5'
p1729
sS'cref'
p1730
S'i17%0:t2'
p1731
ssbsg26
I00
sg27
I00
sg28
Nsg29
Nsg30
I7
sg31
I3
sg32
Nsg33
Nsg34
S'PSP'
p1732
sg36
g1715
sg37
I00
sba(issf_api
Word
p1733
(dp1734
g6
I00
sg7
V\u092e\u093f\u0932\u093e\u0935\u091f
p1735
sg9
(issf_api
FeatureSet
p1736
(dp1737
g12
(dp1738
S'crefhead'
p1739
S'\xe0\xa4\xae\xe0\xa4\xbf\xe0\xa4\xb2\xe0\xa4\xbe\xe0\xa4\xb5\xe0\xa4\x9f:i17'
p1740
sS'posn'
p1741
S'140'
p1742
sS'name'
p1743
S'\xe0\xa4\xae\xe0\xa4\xbf\xe0\xa4\xb2\xe0\xa4\xbe\xe0\xa4\xb5\xe0\xa4\x9f'
p1744
sS'af'
p1745
S'\xe0\xa4\xae\xe0\xa4\xbf\xe0\xa4\xb2\xe0\xa4\xbe\xe0\xa4\xb5\xe0\xa4\x9f,n,f,sg,3,o,0_\xe0\xa4\x95\xe0\xa4\xbe,0'
p1746
sS'acrefmodhead'
p1747
S'\xe0\xa4\xae\xe0\xa4\xbf\xe0\xa4\xb2\xe0\xa4\xbe\xe0\xa4\xb5\xe0\xa4\x9f:m2'
p1748
sS'chunkid'
p1749
S'NP6'
p1750
sS'acrefmod'
p1751
S'm2%1:i18'
p1752
sS'creftype'
p1753
S'Coreference-Identity:i12'
p1754
sS'chunktype'
p1755
S'head:NP6'
p1756
sS'vpos'
p1757
S'vib_2'
p1758
sS'cref'
p1759
S'i17%1:t2'
p1760
sS'drel'
p1761
S'r6-k2:NP7'
p1762
ssbsg26
I00
sg27
I00
sg28
Nsg29
Nsg30
I8
sg31
I3
sg32
Nsg33
Nsg34
S'NN'
p1763
sg36
g1736
sg37
I00
sba(issf_api
Word
p1764
(dp1765
g6
I00
sg7
V\u0915\u0940
p1766
sg9
(issf_api
FeatureSet
p1767
(dp1768
g12
(dp1769
S'posn'
p1770
S'150'
p1771
sS'name'
p1772
S'\xe0\xa4\x95\xe0\xa5\x80'
p1773
sS'drel'
p1774
S'lwg__psp:NP6'
p1775
sS'chunktype'
p1776
S'child:NP6'
p1777
sS'af'
p1778
S'\xe0\xa4\x95\xe0\xa4\xbe,psp,f,sg,,d,,'
p1779
ssbsg26
I00
sg27
I00
sg28
Nsg29
Nsg30
I8
sg31
I3
sg32
Nsg33
Nsg34
S'PSP'
p1780
sg36
g1767
sg37
I00
sba(issf_api
Word
p1781
(dp1782
g6
I00
sg7
V\u091c\u093e\u0902\u091a
p1783
sg9
(issf_api
FeatureSet
p1784
(dp1785
g12
(dp1786
S'crefhead'
p1787
S'\xe0\xa4\x9c\xe0\xa4\xbe\xe0\xa4\x82\xe0\xa4\x9a:i18'
p1788
sS'posn'
p1789
S'160'
p1790
sS'name'
p1791
S'\xe0\xa4\x9c\xe0\xa4\xbe\xe0\xa4\x82\xe0\xa4\x9a'
p1792
sS'af'
p1793
S'\xe0\xa4\x9c\xe0\xa4\xbe\xe0\xa4\x82\xe0\xa4\x9a,n,f,sg,3,d,0,0'
p1794
sS'chunkid'
p1795
S'NP7'
p1796
sS'crefmod'
p1797
S'm2:i18'
p1798
sS'creftype'
p1799
S'Coreference-Identity:i9'
p1800
sS'chunktype'
p1801
S'head:NP7'
p1802
sS'crefchainhead'
p1803
S'i18:t5'
p1804
sS'cref'
p1805
S'i18%1:t5'
p1806
sS'drel'
p1807
S'pof:VGF2'
p1808
ssbsg26
I00
sg27
I00
sg28
Nsg29
Nsg30
I9
sg31
I3
sg32
Nsg33
Nsg34
S'NN'
p1809
sg36
g1784
sg37
I00
sba(issf_api
Word
p1810
(dp1811
g6
I00
sg7
V\u0915\u0940
p1812
sg9
(issf_api
FeatureSet
p1813
(dp1814
g12
(dp1815
S'posn'
p1816
S'170'
p1817
sS'name'
p1818
S'\xe0\xa4\x95\xe0\xa5\x802'
p1819
sS'af'
p1820
S'\xe0\xa4\x95\xe0\xa4\xb0,v,f,sg,3,,\xe0\xa4\xaf\xe0\xa4\xbe_\xe0\xa4\x9c\xe0\xa4\xbe+\xe0\xa4\xa4\xe0\xa4\xbe_\xe0\xa4\xb9\xe0\xa5\x88,yA'
p1821
sS'chunkid'
p1822
S'VGF2'
p1823
sS'stype'
p1824
S'declarative'
p1825
sS'drel'
p1826
S'nmod__relc:NP3'
p1827
sS'voicetype'
p1828
S'passive'
p1829
sS'vpos'
p1830
S'tam_2_3'
p1831
sS'chunktype'
p1832
S'head:VGF2'
p1833
ssbsg26
I00
sg27
I00
sg28
Nsg29
Nsg30
I10
sg31
I3
sg32
Nsg33
Nsg34
S'VM'
p1834
sg36
g1813
sg37
I00
sba(issf_api
Word
p1835
(dp1836
g6
I00
sg7
V\u091c\u093e\u0924\u0940
p1837
sg9
(issf_api
FeatureSet
p1838
(dp1839
g12
(dp1840
S'posn'
p1841
S'180'
p1842
sS'name'
p1843
S'\xe0\xa4\x9c\xe0\xa4\xbe\xe0\xa4\xa4\xe0\xa5\x80'
p1844
sS'drel'
p1845
S'lwg__vaux:VGF2'
p1846
sS'chunktype'
p1847
S'child:VGF2'
p1848
sS'af'
p1849
S'\xe0\xa4\x9c\xe0\xa4\xbe,v,f,sg,any,,\xe0\xa4\xa4\xe0\xa4\xbe,wA'
p1850
ssbsg26
I00
sg27
I00
sg28
Nsg29
Nsg30
I10
sg31
I3
sg32
Nsg33
Nsg34
S'VAUX'
p1851
sg36
g1838
sg37
I00
sba(issf_api
Word
p1852
(dp1853
g6
I00
sg7
V\u0939\u0948
p1854
sg9
(issf_api
FeatureSet
p1855
(dp1856
g12
(dp1857
S'posn'
p1858
S'190'
p1859
sS'name'
p1860
S'\xe0\xa4\xb9\xe0\xa5\x88'
p1861
sS'drel'
p1862
S'lwg__vaux:VGF2'
p1863
sS'chunktype'
p1864
S'child:VGF2'
p1865
sS'af'
p1866
S'\xe0\xa4\xb9\xe0\xa5\x88,v,any,sg,3,,\xe0\xa4\xb9\xe0\xa5\x88,hE'
p1867
ssbsg26
I00
sg27
I00
sg28
Nsg29
Nsg30
I10
sg31
I3
sg32
Nsg33
Nsg34
S'VAUX'
p1868
sg36
g1855
sg37
I00
sba(issf_api
Word
p1869
(dp1870
g6
I00
sg7
V\u0964
p1871
sg9
(issf_api
FeatureSet
p1872
(dp1873
g12
(dp1874
S'posn'
p1875
S'200'
p1876
sS'name'
p1877
S'\xe0\xa5\xa4'
p1878
sS'af'
p1879
S'\xe0\xa5\xa4,punc,,,,,,'
p1880
sS'chunkid'
p1881
S'BLK'
p1882
sS'drel'
p1883
S'rsym:CCP'
p1884
sS'chunktype'
p1885
S'head:BLK'
p1886
ssbsg26
I00
sg27
I00
sg28
Nsg29
Nsg30
I11
sg31
I3
sg32
Nsg33
Nsg34
S'SYM'
p1887
sg36
g1872
sg37
I00
sba(issf_api
Word
p1888
(dp1889
g6
I00
sg7
V\u0932\u0947\u0915\u093f\u0928
p1890
sg9
(issf_api
FeatureSet
p1891
(dp1892
g12
(dp1893
S'posn'
p1894
S'10'
p1895
sS'chunkid'
p1896
S'CCP'
p1897
sS'name'
p1898
S'\xe0\xa4\xb2\xe0\xa5\x87\xe0\xa4\x95\xe0\xa4\xbf\xe0\xa4\xa8'
p1899
sS'chunktype'
p1900
S'head:CCP'
p1901
sS'af'
p1902
S'\xe0\xa4\xb2\xe0\xa5\x87\xe0\xa4\x95\xe0\xa4\xbf\xe0\xa4\xa8,avy,,,,,,'
p1903
ssbsg26
I00
sg27
I00
sg28
Nsg29
Nsg30
I0
sg31
I4
sg32
Nsg33
Nsg34
S'CC'
p1904
sg36
g1891
sg37
I00
sba(issf_api
Word
p1905
(dp1906
g6
I00
sg7
V\u0905\u0902\u0924\u0930\u094d\u0930\u093e\u0937\u094d\u091f\u094d\u0930\u0940\u092f
p1907
sg9
(issf_api
FeatureSet
p1908
(dp1909
g12
(dp1910
S'posn'
p1911
S'20'
p1912
sS'name'
p1913
S'\xe0\xa4\x85\xe0\xa4\x82\xe0\xa4\xa4\xe0\xa4\xb0\xe0\xa5\x8d\xe0\xa4\xb0\xe0\xa4\xbe\xe0\xa4\xb7\xe0\xa5\x8d\xe0\xa4\x9f\xe0\xa5\x8d\xe0\xa4\xb0\xe0\xa5\x80\xe0\xa4\xaf'
p1914
sS'drel'
p1915
S'nmod__adj:NP'
p1916
sS'chunktype'
p1917
S'child:NP'
p1918
sS'af'
p1919
S'\xe0\xa4\x85\xe0\xa4\x82\xe0\xa4\xa4\xe0\xa4\xb0\xe0\xa5\x8d\xe0\xa4\xb0\xe0\xa4\xbe\xe0\xa4\xb7\xe0\xa5\x8d\xe0\xa4\x9f\xe0\xa5\x8d\xe0\xa4\xb0\xe0\xa5\x80\xe0\xa4\xaf,adj,any,any,,o,,'
p1920
ssbsg26
I00
sg27
I00
sg28
Nsg29
Nsg30
I1
sg31
I4
sg32
Nsg33
Nsg34
S'JJ'
p1921
sg36
g1908
sg37
I00
sba(issf_api
Word
p1922
(dp1923
g6
I00
sg7
V\u0938\u094d\u0924\u0930
p1924
sg9
(issf_api
FeatureSet
p1925
(dp1926
g12
(dp1927
S'posn'
p1928
S'30'
p1929
sS'name'
p1930
S'\xe0\xa4\xb8\xe0\xa5\x8d\xe0\xa4\xa4\xe0\xa4\xb0'
p1931
sS'af'
p1932
S'\xe0\xa4\xb8\xe0\xa5\x8d\xe0\xa4\xa4\xe0\xa4\xb0,n,m,sg,3,o,0_\xe0\xa4\x95\xe0\xa4\xbe,0'
p1933
sS'chunkid'
p1934
S'NP'
p1935
sS'drel'
p1936
S'r6:NP2'
p1937
sS'vpos'
p1938
S'vib_3'
p1939
sS'chunktype'
p1940
S'head:NP'
p1941
ssbsg26
I00
sg27
I00
sg28
Nsg29
Nsg30
I1
sg31
I4
sg32
Nsg33
Nsg34
S'NN'
p1942
sg36
g1925
sg37
I00
sba(issf_api
Word
p1943
(dp1944
g6
I00
sg7
V\u0915\u0940
p1945
sg9
(issf_api
FeatureSet
p1946
(dp1947
g12
(dp1948
S'posn'
p1949
S'40'
p1950
sS'name'
p1951
S'\xe0\xa4\x95\xe0\xa5\x80'
p1952
sS'drel'
p1953
S'lwg__psp:NP'
p1954
sS'chunktype'
p1955
S'child:NP'
p1956
sS'af'
p1957
S'\xe0\xa4\x95\xe0\xa4\xbe,psp,f,sg,,d,,'
p1958
ssbsg26
I00
sg27
I00
sg28
Nsg29
Nsg30
I1
sg31
I4
sg32
Nsg33
Nsg34
S'PSP'
p1959
sg36
g1946
sg37
I00
sba(issf_api
Word
p1960
(dp1961
g6
I00
sg7
V\u0915\u094b\u0908
p1962
sg9
(issf_api
FeatureSet
p1963
(dp1964
g12
(dp1965
S'crefhead'
p1966
S'\xe0\xa4\x95\xe0\xa5\x8b\xe0\xa4\x88:i19'
p1967
sS'posn'
p1968
S'50'
p1969
sS'name'
p1970
S'\xe0\xa4\x95\xe0\xa5\x8b\xe0\xa4\x88'
p1971
sS'af'
p1972
S'\xe0\xa4\x95\xe0\xa5\x8b\xe0\xa4\x88,pn,any,sg,3,d,0,0'
p1973
sS'drel'
p1974
S'nmod__adj:NP2'
p1975
sS'crefchainhead'
p1976
S'i19:t7'
p1977
sS'chunktype'
p1978
S'child:NP2'
p1979
sS'cref'
p1980
S'i19%1:t7'
p1981
ssbsg26
I00
sg27
I00
sg28
Nsg29
Nsg30
I2
sg31
I4
sg32
Nsg33
Nsg34
S'PRP'
p1982
sg36
g1963
sg37
I00
sba(issf_api
Word
p1983
(dp1984
g6
I00
sg7
V\u0924\u0915\u0928\u0940\u0915
p1985
sg9
(issf_api
FeatureSet
p1986
(dp1987
g12
(dp1988
S'posn'
p1989
S'60'
p1990
sS'name'
p1991
S'\xe0\xa4\xa4\xe0\xa4\x95\xe0\xa4\xa8\xe0\xa5\x80\xe0\xa4\x95'
p1992
sS'af'
p1993
S'\xe0\xa4\xa4\xe0\xa4\x95\xe0\xa4\xa8\xe0\xa5\x80\xe0\xa4\x95,n,f,sg,3,d,0,0'
p1994
sS'chunkid'
p1995
S'NP2'
p1996
sS'drel'
p1997
S'k2:VGNN'
p1998
sS'chunktype'
p1999
S'head:NP2'
p2000
ssbsg26
I00
sg27
I00
sg28
Nsg29
Nsg30
I2
sg31
I4
sg32
Nsg33
Nsg34
S'NN'
p2001
sg36
g1986
sg37
I00
sba(issf_api
Word
p2002
(dp2003
g6
I00
sg7
V\u0928
p2004
sg9
(issf_api
FeatureSet
p2005
(dp2006
g12
(dp2007
S'posn'
p2008
S'70'
p2009
sS'name'
p2010
S'\xe0\xa4\xa8'
p2011
sS'drel'
p2012
S'lwg__neg:VGNN'
p2013
sS'chunktype'
p2014
S'child:VGNN'
p2015
sS'af'
p2016
S'\xe0\xa4\xa8,avy,,,,,,'
p2017
ssbsg26
I00
sg27
I00
sg28
Nsg29
Nsg30
I3
sg31
I4
sg32
Nsg33
Nsg34
S'NEG'
p2018
sg36
g2005
sg37
I00
sba(issf_api
Word
p2019
(dp2020
g6
I00
sg7
V\u0939\u094b\u0928\u0947
p2021
sg9
(issf_api
FeatureSet
p2022
(dp2023
g12
(dp2024
S'posn'
p2025
S'80'
p2026
sS'name'
p2027
S'\xe0\xa4\xb9\xe0\xa5\x8b\xe0\xa4\xa8\xe0\xa5\x87'
p2028
sS'af'
p2029
S'\xe0\xa4\xb9\xe0\xa5\x8b,v,m,any,any,o,\xe0\xa4\xa8\xe0\xa4\xbe_\xe0\xa4\x95\xe0\xa5\x87_\xe0\xa4\x95\xe0\xa4\xbe\xe0\xa4\xb0\xe0\xa4\xa3,nA'
p2030
sS'chunkid'
p2031
S'VGNN'
p2032
sS'drel'
p2033
S'rh:VGF'
p2034
sS'vpos'
p2035
S'tam_3_4'
p2036
sS'chunktype'
p2037
S'head:VGNN'
p2038
ssbsg26
I00
sg27
I00
sg28
Nsg29
Nsg30
I3
sg31
I4
sg32
Nsg33
Nsg34
S'VM'
p2039
sg36
g2022
sg37
I00
sba(issf_api
Word
p2040
(dp2041
g6
I00
sg7
V\u0915\u0947
p2042
sg9
(issf_api
FeatureSet
p2043
(dp2044
g12
(dp2045
S'posn'
p2046
S'90'
p2047
sS'name'
p2048
S'\xe0\xa4\x95\xe0\xa5\x87'
p2049
sS'drel'
p2050
S'lwg__psp:VGNN'
p2051
sS'chunktype'
p2052
S'child:VGNN'
p2053
sS'af'
p2054
S'\xe0\xa4\x95\xe0\xa5\x87,psp,m,,,o,,'
p2055
ssbsg26
I00
sg27
I00
sg28
Nsg29
Nsg30
I3
sg31
I4
sg32
Nsg33
Nsg34
S'PSP'
p2056
sg36
g2043
sg37
I00
sba(issf_api
Word
p2057
(dp2058
g6
I00
sg7
V\u0915\u093e\u0930\u0923
p2059
sg9
(issf_api
FeatureSet
p2060
(dp2061
g12
(dp2062
S'posn'
p2063
S'100'
p2064
sS'name'
p2065
S'\xe0\xa4\x95\xe0\xa4\xbe\xe0\xa4\xb0\xe0\xa4\xa3'
p2066
sS'drel'
p2067
S'lwg__psp:VGNN'
p2068
sS'chunktype'
p2069
S'child:VGNN'
p2070
sS'af'
p2071
S'\xe0\xa4\x95\xe0\xa4\xbe\xe0\xa4\xb0\xe0\xa4\xa3,n,m,,,o,,'
p2072
ssbsg26
I00
sg27
I00
sg28
Nsg29
Nsg30
I3
sg31
I4
sg32
Nsg33
Nsg34
S'PSP'
p2073
sg36
g2060
sg37
I00
sba(issf_api
Word
p2074
(dp2075
g6
I00
sg7
V\u0905\u0915\u0938\u0930
p2076
sg9
(issf_api
FeatureSet
p2077
(dp2078
g12
(dp2079
S'posn'
p2080
S'110'
p2081
sS'name'
p2082
S'\xe0\xa4\x85\xe0\xa4\x95\xe0\xa4\xb8\xe0\xa4\xb0'
p2083
sS'af'
p2084
S'\xe0\xa4\x85\xe0\xa4\x95\xe0\xa4\xb8\xe0\xa4\xb0,adv,,,,,,'
p2085
sS'chunkid'
p2086
S'RBP'
p2087
sS'drel'
p2088
S'adv:VGF'
p2089
sS'chunktype'
p2090
S'head:RBP'
p2091
ssbsg26
I00
sg27
I00
sg28
Nsg29
Nsg30
I4
sg31
I4
sg32
Nsg33
Nsg34
S'RB'
p2092
sg36
g2077
sg37
I00
sba(issf_api
Word
p2093
(dp2094
g6
I00
sg7
V\u0905\u0927\u093f\u0915\u093e\u0930\u093f\u092f\u094b\u0902
p2095
sg9
(issf_api
FeatureSet
p2096
(dp2097
g12
(dp2098
S'posn'
p2099
S'120'
p2100
sS'name'
p2101
S'\xe0\xa4\x85\xe0\xa4\xa7\xe0\xa4\xbf\xe0\xa4\x95\xe0\xa4\xbe\xe0\xa4\xb0\xe0\xa4\xbf\xe0\xa4\xaf\xe0\xa5\x8b\xe0\xa4\x82'
p2102
sS'af'
p2103
S'\xe0\xa4\x85\xe0\xa4\xa7\xe0\xa4\xbf\xe0\xa4\x95\xe0\xa4\xbe\xe0\xa4\xb0\xe0\xa5\x80,n,m,pl,3,o,0_\xe0\xa4\x95\xe0\xa5\x8b,0'
p2104
sS'chunkid'
p2105
S'NP3'
p2106
sS'drel'
p2107
S'k4a:VGF'
p2108
sS'vpos'
p2109
S'vib_2'
p2110
sS'chunktype'
p2111
S'head:NP3'
p2112
ssbsg26
I00
sg27
I00
sg28
Nsg29
Nsg30
I5
sg31
I4
sg32
Nsg33
Nsg34
S'NN'
p2113
sg36
g2096
sg37
I00
sba(issf_api
Word
p2114
(dp2115
g6
I00
sg7
V\u0915\u094b
p2116
sg9
(issf_api
FeatureSet
p2117
(dp2118
g12
(dp2119
S'posn'
p2120
S'130'
p2121
sS'name'
p2122
S'\xe0\xa4\x95\xe0\xa5\x8b'
p2123
sS'drel'
p2124
S'lwg__psp:NP3'
p2125
sS'chunktype'
p2126
S'child:NP3'
p2127
sS'af'
p2128
S'\xe0\xa4\x95\xe0\xa5\x8b,psp,,,,,,'
p2129
ssbsg26
I00
sg27
I00
sg28
Nsg29
Nsg30
I5
sg31
I4
sg32
Nsg33
Nsg34
S'PSP'
p2130
sg36
g2117
sg37
I00
sba(issf_api
Word
p2131
(dp2132
g6
I00
sg7
V\u092e\u093f\u0932\u093e\u0935\u091f
p2133
sg9
(issf_api
FeatureSet
p2134
(dp2135
g12
(dp2136
S'crefhead'
p2137
S'\xe0\xa4\xae\xe0\xa4\xbf\xe0\xa4\xb2\xe0\xa4\xbe\xe0\xa4\xb5\xe0\xa4\x9f:i20'
p2138
sS'posn'
p2139
S'140'
p2140
sS'name'
p2141
S'\xe0\xa4\xae\xe0\xa4\xbf\xe0\xa4\xb2\xe0\xa4\xbe\xe0\xa4\xb5\xe0\xa4\x9f'
p2142
sS'af'
p2143
S'\xe0\xa4\xae\xe0\xa4\xbf\xe0\xa4\xb2\xe0\xa4\xbe\xe0\xa4\xb5\xe0\xa4\x9f,n,f,sg,3,d,0,0'
p2144
sS'chunkid'
p2145
S'NP4'
p2146
sS'creftype'
p2147
S'Coreference-Identity:i17'
p2148
sS'chunktype'
p2149
S'head:NP4'
p2150
sS'cref'
p2151
S'i20%1:t2'
p2152
sS'drel'
p2153
S'pof:VGNN2'
p2154
ssbsg26
I00
sg27
I00
sg28
Nsg29
Nsg30
I6
sg31
I4
sg32
Nsg33
Nsg34
S'NN'
p2155
sg36
g2134
sg37
I00
sba(issf_api
Word
p2156
(dp2157
g6
I00
sg7
V\u0915\u0930\u0928\u0947
p2158
sg9
(issf_api
FeatureSet
p2159
(dp2160
g12
(dp2161
S'posn'
p2162
S'150'
p2163
sS'name'
p2164
S'\xe0\xa4\x95\xe0\xa4\xb0\xe0\xa4\xa8\xe0\xa5\x87'
p2165
sS'af'
p2166
S'\xe0\xa4\x95\xe0\xa4\xb0,v,any,any,any,o,\xe0\xa4\xa8\xe0\xa4\xbe_\xe0\xa4\xb5\xe0\xa4\xbe\xe0\xa4\xb2\xe0\xa4\xbe_\xe0\xa4\x95\xe0\xa5\x87_\xe0\xa4\x96\xe0\xa4\xbf\xe0\xa4\xb2\xe0\xa4\xbe\xe0\xa4\xab,nA'
p2167
sS'chunkid'
p2168
S'VGNN2'
p2169
sS'drel'
p2170
S'vmod:VGF'
p2171
sS'vpos'
p2172
S'tam_2_3_4'
p2173
sS'chunktype'
p2174
S'head:VGNN2'
p2175
ssbsg26
I00
sg27
I00
sg28
Nsg29
Nsg30
I7
sg31
I4
sg32
Nsg33
Nsg34
S'VM'
p2176
sg36
g2159
sg37
I00
sba(issf_api
Word
p2177
(dp2178
g6
I00
sg7
V\u0935\u093e\u0932\u0947
p2179
sg9
(issf_api
FeatureSet
p2180
(dp2181
g12
(dp2182
S'posn'
p2183
S'160'
p2184
sS'name'
p2185
S'\xe0\xa4\xb5\xe0\xa4\xbe\xe0\xa4\xb2\xe0\xa5\x87'
p2186
sS'drel'
p2187
S'lwg__psp:VGNN2'
p2188
sS'chunktype'
p2189
S'child:VGNN2'
p2190
sS'af'
p2191
S'\xe0\xa4\xb5\xe0\xa4\xbe\xe0\xa4\xb2\xe0\xa4\xbe,psp,m,sg,,o,,'
p2192
ssbsg26
I00
sg27
I00
sg28
Nsg29
Nsg30
I7
sg31
I4
sg32
Nsg33
Nsg34
S'PSP'
p2193
sg36
g2180
sg37
I00
sba(issf_api
Word
p2194
(dp2195
g6
I00
sg7
V\u0915\u0947
p2196
sg9
(issf_api
FeatureSet
p2197
(dp2198
g12
(dp2199
S'posn'
p2200
S'170'
p2201
sS'name'
p2202
S'\xe0\xa4\x95\xe0\xa5\x872'
p2203
sS'drel'
p2204
S'lwg__psp:VGNN2'
p2205
sS'chunktype'
p2206
S'child:VGNN2'
p2207
sS'af'
p2208
S'\xe0\xa4\x95\xe0\xa5\x87,psp,,,,,,'
p2209
ssbsg26
I00
sg27
I00
sg28
Nsg29
Nsg30
I7
sg31
I4
sg32
Nsg33
Nsg34
S'PSP'
p2210
sg36
g2197
sg37
I00
sba(issf_api
Word
p2211
(dp2212
g6
I00
sg7
V\u0916\u093f\u0932\u093e\u092b
p2213
sg9
(issf_api
FeatureSet
p2214
(dp2215
g12
(dp2216
S'posn'
p2217
S'180'
p2218
sS'name'
p2219
S'\xe0\xa4\x96\xe0\xa4\xbf\xe0\xa4\xb2\xe0\xa4\xbe\xe0\xa4\xab'
p2220
sS'drel'
p2221
S'lwg__psp:VGNN2'
p2222
sS'chunktype'
p2223
S'child:VGNN2'
p2224
sS'af'
p2225
S'\xe0\xa4\x96\xe0\xa4\xbf\xe0\xa4\xb2\xe0\xa4\xbe\xe0\xa4\xab,psp,,,,,,'
p2226
ssbsg26
I00
sg27
I00
sg28
Nsg29
Nsg30
I7
sg31
I4
sg32
Nsg33
Nsg34
S'PSP'
p2227
sg36
g2214
sg37
I00
sba(issf_api
Word
p2228
(dp2229
g6
I00
sg7
V\u0915\u093e\u0930\u094d\u0930\u0935\u093e\u0908
p2230
sg9
(issf_api
FeatureSet
p2231
(dp2232
g12
(dp2233
S'posn'
p2234
S'190'
p2235
sS'name'
p2236
S'\xe0\xa4\x95\xe0\xa4\xbe\xe0\xa4\xb0\xe0\xa5\x8d\xe0\xa4\xb0\xe0\xa4\xb5\xe0\xa4\xbe\xe0\xa4\x88'
p2237
sS'af'
p2238
S'\xe0\xa4\x95\xe0\xa4\xbe\xe0\xa4\xb0\xe0\xa5\x8d\xe0\xa4\xb0\xe0\xa4\xb5\xe0\xa4\xbe\xe0\xa4\x88,n,f,sg,3,d,0,0'
p2239
sS'chunkid'
p2240
S'NP5'
p2241
sS'drel'
p2242
S'pof:VGNN3'
p2243
sS'chunktype'
p2244
S'head:NP5'
p2245
ssbsg26
I00
sg27
I00
sg28
Nsg29
Nsg30
I8
sg31
I4
sg32
Nsg33
Nsg34
S'NN'
p2246
sg36
g2231
sg37
I00
sba(issf_api
Word
p2247
(dp2248
g6
I00
sg7
V\u0915\u0930\u0928\u0947
p2249
sg9
(issf_api
FeatureSet
p2250
(dp2251
g12
(dp2252
S'posn'
p2253
S'200'
p2254
sS'name'
p2255
S'\xe0\xa4\x95\xe0\xa4\xb0\xe0\xa4\xa8\xe0\xa5\x872'
p2256
sS'af'
p2257
S'\xe0\xa4\x95\xe0\xa4\xb0,v,any,any,any,o,\xe0\xa4\xa8\xe0\xa4\xbe_\xe0\xa4\xae\xe0\xa5\x87\xe0\xa4\x82,nA'
p2258
sS'chunkid'
p2259
S'VGNN3'
p2260
sS'drel'
p2261
S'k7:VGF'
p2262
sS'vpos'
p2263
S'tam_2'
p2264
sS'chunktype'
p2265
S'head:VGNN3'
p2266
ssbsg26
I00
sg27
I00
sg28
Nsg29
Nsg30
I9
sg31
I4
sg32
Nsg33
Nsg34
S'VM'
p2267
sg36
g2250
sg37
I00
sba(issf_api
Word
p2268
(dp2269
g6
I00
sg7
V\u092e\u0947\u0902
p2270
sg9
(issf_api
FeatureSet
p2271
(dp2272
g12
(dp2273
S'posn'
p2274
S'210'
p2275
sS'name'
p2276
S'\xe0\xa4\xae\xe0\xa5\x87\xe0\xa4\x82'
p2277
sS'drel'
p2278
S'lwg__psp:VGNN3'
p2279
sS'chunktype'
p2280
S'child:VGNN3'
p2281
sS'af'
p2282
S'\xe0\xa4\xae\xe0\xa5\x87\xe0\xa4\x82,psp,,,,,,'
p2283
ssbsg26
I00
sg27
I00
sg28
Nsg29
Nsg30
I9
sg31
I4
sg32
Nsg33
Nsg34
S'PSP'
p2284
sg36
g2271
sg37
I00
sba(issf_api
Word
p2285
(dp2286
g6
I00
sg7
V\u0926\u093f\u0915\u094d\u0915\u0924
p2287
sg9
(issf_api
FeatureSet
p2288
(dp2289
g12
(dp2290
S'posn'
p2291
S'220'
p2292
sS'name'
p2293
S'\xe0\xa4\xa6\xe0\xa4\xbf\xe0\xa4\x95\xe0\xa5\x8d\xe0\xa4\x95\xe0\xa4\xa4'
p2294
sS'af'
p2295
S'\xe0\xa4\xa6\xe0\xa4\xbf\xe0\xa4\x95\xe0\xa5\x8d\xe0\xa4\x95\xe0\xa4\xa4,n,f,sg,3,d,0,0'
p2296
sS'chunkid'
p2297
S'NP6'
p2298
sS'drel'
p2299
S'pof:VGF'
p2300
sS'chunktype'
p2301
S'head:NP6'
p2302
ssbsg26
I00
sg27
I00
sg28
Nsg29
Nsg30
I10
sg31
I4
sg32
Nsg33
Nsg34
S'NN'
p2303
sg36
g2288
sg37
I00
sba(issf_api
Word
p2304
(dp2305
g6
I00
sg7
V\u0939\u094b\u0924\u0940
p2306
sg9
(issf_api
FeatureSet
p2307
(dp2308
g12
(dp2309
S'posn'
p2310
S'230'
p2311
sS'name'
p2312
S'\xe0\xa4\xb9\xe0\xa5\x8b\xe0\xa4\xa4\xe0\xa5\x80'
p2313
sS'af'
p2314
S'\xe0\xa4\xb9\xe0\xa5\x8b,v,f,sg,any,,\xe0\xa4\xa4\xe0\xa4\xbe_\xe0\xa4\xa5\xe0\xa4\xbe,wA'
p2315
sS'chunkid'
p2316
S'VGF'
p2317
sS'stype'
p2318
S'declarative'
p2319
sS'drel'
p2320
S'ccof:CCP'
p2321
sS'voicetype'
p2322
S'active'
p2323
sS'vpos'
p2324
S'tam_2'
p2325
sS'chunktype'
p2326
S'head:VGF'
p2327
ssbsg26
I00
sg27
I00
sg28
Nsg29
Nsg30
I11
sg31
I4
sg32
Nsg33
Nsg34
S'VM'
p2328
sg36
g2307
sg37
I00
sba(issf_api
Word
p2329
(dp2330
g6
I00
sg7
V\u0925\u0940
p2331
sg9
(issf_api
FeatureSet
p2332
(dp2333
g12
(dp2334
S'posn'
p2335
S'240'
p2336
sS'name'
p2337
S'\xe0\xa4\xa5\xe0\xa5\x80'
p2338
sS'drel'
p2339
S'lwg__vaux:VGF'
p2340
sS'chunktype'
p2341
S'child:VGF'
p2342
sS'af'
p2343
S'\xe0\xa4\xa5\xe0\xa4\xbe,v,f,sg,any,,\xe0\xa4\xa5\xe0\xa4\xbe,WA'
p2344
ssbsg26
I00
sg27
I00
sg28
Nsg29
Nsg30
I11
sg31
I4
sg32
Nsg33
Nsg34
S'VAUX'
p2345
sg36
g2332
sg37
I00
sba(issf_api
Word
p2346
(dp2347
g6
I00
sg7
V\u0964
p2348
sg9
(issf_api
FeatureSet
p2349
(dp2350
g12
(dp2351
S'posn'
p2352
S'250'
p2353
sS'name'
p2354
S'\xe0\xa5\xa4'
p2355
sS'af'
p2356
S'\xe0\xa5\xa4,punc,,,,,,'
p2357
sS'chunkid'
p2358
S'BLK'
p2359
sS'drel'
p2360
S'rsym:CCP'
p2361
sS'chunktype'
p2362
S'head:BLK'
p2363
ssbsg26
I00
sg27
I00
sg28
Nsg29
Nsg30
I12
sg31
I4
sg32
Nsg33
Nsg34
S'SYM'
p2364
sg36
g2349
sg37
I00
sba(issf_api
Word
p2365
(dp2366
g6
I00
sg7
V\u0932\u0947\u0915\u093f\u0928
p2367
sg9
(issf_api
FeatureSet
p2368
(dp2369
g12
(dp2370
S'posn'
p2371
S'10'
p2372
sS'chunkid'
p2373
S'CCP'
p2374
sS'name'
p2375
S'\xe0\xa4\xb2\xe0\xa5\x87\xe0\xa4\x95\xe0\xa4\xbf\xe0\xa4\xa8'
p2376
sS'chunktype'
p2377
S'head:CCP'
p2378
sS'af'
p2379
S'\xe0\xa4\xb2\xe0\xa5\x87\xe0\xa4\x95\xe0\xa4\xbf\xe0\xa4\xa8,avy,,,,,,'
p2380
ssbsg26
I00
sg27
I00
sg28
Nsg29
Nsg30
I0
sg31
I5
sg32
Nsg33
Nsg34
S'CC'
p2381
sg36
g2368
sg37
I00
sba(issf_api
Word
p2382
(dp2383
g6
I00
sg7
V\u0905\u092c
p2384
sg9
(issf_api
FeatureSet
p2385
(dp2386
g12
(dp2387
S'crefhead'
p2388
S'\xe0\xa4\x85\xe0\xa4\xac:i21'
p2389
sS'posn'
p2390
S'20'
p2391
sS'name'
p2392
S'\xe0\xa4\x85\xe0\xa4\xac'
p2393
sS'af'
p2394
S'\xe0\xa4\x85\xe0\xa4\xac,pn,,,,d,,'
p2395
sS'chunkid'
p2396
S'NP'
p2397
sS'chunktype'
p2398
S'head:NP'
p2399
sS'crefchainhead'
p2400
S'i21:t8'
p2401
sS'cref'
p2402
S'i21%1:t8'
p2403
sS'drel'
p2404
S'k7t:VGF'
p2405
ssbsg26
I00
sg27
I00
sg28
Nsg29
Nsg30
I1
sg31
I5
sg32
Nsg33
Nsg34
S'PRP'
p2406
sg36
g2385
sg37
I00
sba(issf_api
Word
p2407
(dp2408
g6
I00
sg7
V\u0907\u0938
p2409
sg9
(issf_api
FeatureSet
p2410
(dp2411
g12
(dp2412
S'posn'
p2413
S'30'
p2414
sS'name'
p2415
S'\xe0\xa4\x87\xe0\xa4\xb8'
p2416
sS'af'
p2417
S'\xe0\xa4\xaf\xe0\xa4\xb9,pn,any,sg,3,o,,'
p2418
sS'drel'
p2419
S'nmod__adj:NP2'
p2420
sS'chunktype'
p2421
S'child:NP2'
p2422
sS'cref'
p2423
S'i22%0:t4'
p2424
ssbsg26
I00
sg27
I00
sg28
Nsg29
Nsg30
I2
sg31
I5
sg32
Nsg33
Nsg34
S'DEM'
p2425
sg36
g2410
sg37
I00
sba(issf_api
Word
p2426
(dp2427
g6
I00
sg7
V\u0924\u0915\u0928\u0940\u0915
p2428
sg9
(issf_api
FeatureSet
p2429
(dp2430
g12
(dp2431
S'crefhead'
p2432
S'\xe0\xa4\xa4\xe0\xa4\x95\xe0\xa4\xa8\xe0\xa5\x80\xe0\xa4\x95:i22'
p2433
sS'posn'
p2434
S'40'
p2435
sS'name'
p2436
S'\xe0\xa4\xa4\xe0\xa4\x95\xe0\xa4\xa8\xe0\xa5\x80\xe0\xa4\x95'
p2437
sS'af'
p2438
S'\xe0\xa4\xa4\xe0\xa4\x95\xe0\xa4\xa8\xe0\xa5\x80\xe0\xa4\x95,n,f,sg,3,o,0_\xe0\xa4\x95\xe0\xa4\xbe,0'
p2439
sS'chunkid'
p2440
S'NP2'
p2441
sS'creftype'
p2442
S'Coreference-Identity:i6'
p2443
sS'chunktype'
p2444
S'head:NP2'
p2445
sS'vpos'
p2446
S'vib_3'
p2447
sS'cref'
p2448
S'i22%1:t4'
p2449
sS'drel'
p2450
S'k1:VGNN'
p2451
ssbsg26
I00
sg27
I00
sg28
Nsg29
Nsg30
I2
sg31
I5
sg32
Nsg33
Nsg34
S'NN'
p2452
sg36
g2429
sg37
I00
sba(issf_api
Word
p2453
(dp2454
g6
I00
sg7
V\u0915\u0947
p2455
sg9
(issf_api
FeatureSet
p2456
(dp2457
g12
(dp2458
S'posn'
p2459
S'50'
p2460
sS'name'
p2461
S'\xe0\xa4\x95\xe0\xa5\x87'
p2462
sS'drel'
p2463
S'lwg__psp:NP2'
p2464
sS'chunktype'
p2465
S'child:NP2'
p2466
sS'af'
p2467
S'\xe0\xa4\x95\xe0\xa4\xbe,psp,,,,o,,'
p2468
ssbsg26
I00
sg27
I00
sg28
Nsg29
Nsg30
I2
sg31
I5
sg32
Nsg33
Nsg34
S'PSP'
p2469
sg36
g2456
sg37
I00
sba(issf_api
Word
p2470
(dp2471
g6
I00
sg7
V\u0906
p2472
sg9
(issf_api
FeatureSet
p2473
(dp2474
g12
(dp2475
S'posn'
p2476
S'60'
p2477
sS'name'
p2478
S'\xe0\xa4\x86'
p2479
sS'af'
p2480
S'\xe0\xa4\x86,v,any,any,any,,0_\xe0\xa4\x9c\xe0\xa4\xbe+\xe0\xa4\xa8\xe0\xa4\xbe_\xe0\xa4\xb8\xe0\xa5\x87,0'
p2481
sS'chunkid'
p2482
S'VGNN'
p2483
sS'drel'
p2484
S'rh:VGF'
p2485
sS'vpos'
p2486
S'tam_2_3'
p2487
sS'chunktype'
p2488
S'head:VGNN'
p2489
ssbsg26
I00
sg27
I00
sg28
Nsg29
Nsg30
I3
sg31
I5
sg32
Nsg33
Nsg34
S'VM'
p2490
sg36
g2473
sg37
I00
sba(issf_api
Word
p2491
(dp2492
g6
I00
sg7
V\u091c\u093e\u0928\u0947
p2493
sg9
(issf_api
FeatureSet
p2494
(dp2495
g12
(dp2496
S'posn'
p2497
S'70'
p2498
sS'name'
p2499
S'\xe0\xa4\x9c\xe0\xa4\xbe\xe0\xa4\xa8\xe0\xa5\x87'
p2500
sS'drel'
p2501
S'lwg__vaux:VGNN'
p2502
sS'chunktype'
p2503
S'child:VGNN'
p2504
sS'af'
p2505
S'\xe0\xa4\x9c\xe0\xa4\xbe,v,any,any,any,o,\xe0\xa4\xa8\xe0\xa4\xbe,nA'
p2506
ssbsg26
I00
sg27
I00
sg28
Nsg29
Nsg30
I3
sg31
I5
sg32
Nsg33
Nsg34
S'VAUX'
p2507
sg36
g2494
sg37
I00
sba(issf_api
Word
p2508
(dp2509
g6
I00
sg7
V\u0938\u0947
p2510
sg9
(issf_api
FeatureSet
p2511
(dp2512
g12
(dp2513
S'posn'
p2514
S'80'
p2515
sS'name'
p2516
S'\xe0\xa4\xb8\xe0\xa5\x87'
p2517
sS'drel'
p2518
S'lwg__psp:VGNN'
p2519
sS'chunktype'
p2520
S'child:VGNN'
p2521
sS'af'
p2522
S'\xe0\xa4\xb8\xe0\xa5\x87,psp,,,,,,'
p2523
ssbsg26
I00
sg27
I00
sg28
Nsg29
Nsg30
I3
sg31
I5
sg32
Nsg33
Nsg34
S'PSP'
p2524
sg36
g2511
sg37
I00
sba(issf_api
Word
p2525
(dp2526
g6
I00
sg7
V\u0916\u093e\u0926\u094d\u092f
p2527
sg9
(issf_api
FeatureSet
p2528
(dp2529
g12
(dp2530
S'posn'
p2531
S'90'
p2532
sS'name'
p2533
S'\xe0\xa4\x96\xe0\xa4\xbe\xe0\xa4\xa6\xe0\xa5\x8d\xe0\xa4\xaf'
p2534
sS'af'
p2535
S'\xe0\xa4\x96\xe0\xa4\xbe\xe0\xa4\xa6\xe0\xa5\x8d\xe0\xa4\xaf,n,m,pl,3,d,0,0'
p2536
sS'acrefmod'
p2537
S'm3%0:i25'
p2538
sS'drel'
p2539
S'pof__cn:NP3'
p2540
sS'chunktype'
p2541
S'child:NP3'
p2542
sS'cref'
p2543
S'i23%0:t1,i24%0:t2'
p2544
ssbsg26
I00
sg27
I00
sg28
Nsg29
Nsg30
I4
sg31
I5
sg32
Nsg33
Nsg34
S'NNC'
p2545
sg36
g2528
sg37
I00
sba(issf_api
Word
p2546
(dp2547
g6
I00
sg7
V\u092a\u0926\u093e\u0930\u094d\u0925\u094b\u0902
p2548
sg9
(issf_api
FeatureSet
p2549
(dp2550
g12
(dp2551
S'crefhead'
p2552
S'\xe0\xa4\xaa\xe0\xa4\xa6\xe0\xa4\xbe\xe0\xa4\xb0\xe0\xa5\x8d\xe0\xa4\xa5\xe0\xa5\x8b\xe0\xa4\x82:i23'
p2553
sS'posn'
p2554
S'100'
p2555
sS'name'
p2556
S'\xe0\xa4\xaa\xe0\xa4\xa6\xe0\xa4\xbe\xe0\xa4\xb0\xe0\xa5\x8d\xe0\xa4\xa5\xe0\xa5\x8b\xe0\xa4\x82'
p2557
sS'af'
p2558
S'\xe0\xa4\xaa\xe0\xa4\xa6\xe0\xa4\xbe\xe0\xa4\xb0\xe0\xa5\x8d\xe0\xa4\xa5,n,m,pl,3,o,0_\xe0\xa4\xae\xe0\xa5\x87\xe0\xa4\x82,0'
p2559
sS'chunkid'
p2560
S'NP3'
p2561
sS'acrefmod'
p2562
S'm3%0:i25'
p2563
sS'creftype'
p2564
S'Coreference-Identity:i16'
p2565
sS'chunktype'
p2566
S'head:NP3'
p2567
sS'vpos'
p2568
S'vib_3'
p2569
sS'cref'
p2570
S'i23%1:t1,i24%0:t2'
p2571
sS'drel'
p2572
S'k7:VGF'
p2573
ssbsg26
I00
sg27
I00
sg28
Nsg29
Nsg30
I4
sg31
I5
sg32
Nsg33
Nsg34
S'NN'
p2574
sg36
g2549
sg37
I00
sba(issf_api
Word
p2575
(dp2576
g6
I00
sg7
V\u092e\u0947\u0902
p2577
sg9
(issf_api
FeatureSet
p2578
(dp2579
g12
(dp2580
S'posn'
p2581
S'110'
p2582
sS'name'
p2583
S'\xe0\xa4\xae\xe0\xa5\x87\xe0\xa4\x82'
p2584
sS'af'
p2585
S'\xe0\xa4\xae\xe0\xa5\x87\xe0\xa4\x82,psp,,,,,,'
p2586
sS'acrefmod'
p2587
S'm3%0:i25'
p2588
sS'drel'
p2589
S'lwg__psp:NP3'
p2590
sS'chunktype'
p2591
S'child:NP3'
p2592
sS'cref'
p2593
S'i24%0:t2'
p2594
ssbsg26
I00
sg27
I00
sg28
Nsg29
Nsg30
I4
sg31
I5
sg32
Nsg33
Nsg34
S'PSP'
p2595
sg36
g2578
sg37
I00
sba(issf_api
Word
p2596
(dp2597
g6
I00
sg7
V\u092e\u093f\u0932\u093e\u0935\u091f
p2598
sg9
(issf_api
FeatureSet
p2599
(dp2600
g12
(dp2601
S'crefhead'
p2602
S'\xe0\xa4\xae\xe0\xa4\xbf\xe0\xa4\xb2\xe0\xa4\xbe\xe0\xa4\xb5\xe0\xa4\x9f:i24'
p2603
sS'posn'
p2604
S'120'
p2605
sS'name'
p2606
S'\xe0\xa4\xae\xe0\xa4\xbf\xe0\xa4\xb2\xe0\xa4\xbe\xe0\xa4\xb5\xe0\xa4\x9f'
p2607
sS'af'
p2608
S'\xe0\xa4\xae\xe0\xa4\xbf\xe0\xa4\xb2\xe0\xa4\xbe\xe0\xa4\xb5\xe0\xa4\x9f,n,f,sg,3,o,0_\xe0\xa4\x95\xe0\xa4\xbe,0'
p2609
sS'acrefmodhead'
p2610
S'\xe0\xa4\xae\xe0\xa4\xbf\xe0\xa4\xb2\xe0\xa4\xbe\xe0\xa4\xb5\xe0\xa4\x9f:m3'
p2611
sS'chunkid'
p2612
S'NP4'
p2613
sS'acrefmod'
p2614
S'm3%1:i25'
p2615
sS'creftype'
p2616
S'Coreference-Identity:i20'
p2617
sS'chunktype'
p2618
S'head:NP4'
p2619
sS'vpos'
p2620
S'vib_2'
p2621
sS'cref'
p2622
S'i24%1:t2'
p2623
sS'drel'
p2624
S'r6-k2:NP5'
p2625
ssbsg26
I00
sg27
I00
sg28
Nsg29
Nsg30
I5
sg31
I5
sg32
Nsg33
Nsg34
S'NN'
p2626
sg36
g2599
sg37
I00
sba(issf_api
Word
p2627
(dp2628
g6
I00
sg7
V\u0915\u0940
p2629
sg9
(issf_api
FeatureSet
p2630
(dp2631
g12
(dp2632
S'posn'
p2633
S'130'
p2634
sS'name'
p2635
S'\xe0\xa4\x95\xe0\xa5\x80'
p2636
sS'drel'
p2637
S'lwg__psp:NP4'
p2638
sS'chunktype'
p2639
S'child:NP4'
p2640
sS'af'
p2641
S'\xe0\xa4\x95\xe0\xa4\xbe,psp,f,sg,,d,,'
p2642
ssbsg26
I00
sg27
I00
sg28
Nsg29
Nsg30
I5
sg31
I5
sg32
Nsg33
Nsg34
S'PSP'
p2643
sg36
g2630
sg37
I00
sba(issf_api
Word
p2644
(dp2645
g6
I00
sg7
V\u091c\u093e\u0902\u091a
p2646
sg9
(issf_api
FeatureSet
p2647
(dp2648
g12
(dp2649
S'crefhead'
p2650
S'\xe0\xa4\x9c\xe0\xa4\xbe\xe0\xa4\x82\xe0\xa4\x9a:i25'
p2651
sS'posn'
p2652
S'140'
p2653
sS'name'
p2654
S'\xe0\xa4\x9c\xe0\xa4\xbe\xe0\xa4\x82\xe0\xa4\x9a'
p2655
sS'af'
p2656
S'\xe0\xa4\x9c\xe0\xa4\xbe\xe0\xa4\x82\xe0\xa4\x9a,n,f,sg,3,d,0,0'
p2657
sS'chunkid'
p2658
S'NP5'
p2659
sS'crefmod'
p2660
S'm3:i25'
p2661
sS'creftype'
p2662
S'Coreference-Identity:i18'
p2663
sS'chunktype'
p2664
S'head:NP5'
p2665
sS'cref'
p2666
S'i25%1:t5'
p2667
sS'drel'
p2668
S'pof:VGF'
p2669
ssbsg26
I00
sg27
I00
sg28
Nsg29
Nsg30
I6
sg31
I5
sg32
Nsg33
Nsg34
S'NN'
p2670
sg36
g2647
sg37
I00
sba(issf_api
Word
p2671
(dp2672
g6
I00
sg7
V\u0906\u0938\u093e\u0928\u0940
p2673
sg9
(issf_api
FeatureSet
p2674
(dp2675
g12
(dp2676
S'posn'
p2677
S'150'
p2678
sS'name'
p2679
S'\xe0\xa4\x86\xe0\xa4\xb8\xe0\xa4\xbe\xe0\xa4\xa8\xe0\xa5\x80'
p2680
sS'af'
p2681
S'\xe0\xa4\x86\xe0\xa4\xb8\xe0\xa4\xbe\xe0\xa4\xa8\xe0\xa5\x80,n,f,sg,3,o,0_\xe0\xa4\xb8\xe0\xa5\x87,0'
p2682
sS'chunkid'
p2683
S'NP6'
p2684
sS'drel'
p2685
S'adv:VGF'
p2686
sS'vpos'
p2687
S'vib_2'
p2688
sS'chunktype'
p2689
S'head:NP6'
p2690
ssbsg26
I00
sg27
I00
sg28
Nsg29
Nsg30
I7
sg31
I5
sg32
Nsg33
Nsg34
S'NN'
p2691
sg36
g2674
sg37
I00
sba(issf_api
Word
p2692
(dp2693
g6
I00
sg7
V\u0938\u0947
p2694
sg9
(issf_api
FeatureSet
p2695
(dp2696
g12
(dp2697
S'posn'
p2698
S'160'
p2699
sS'name'
p2700
S'\xe0\xa4\xb8\xe0\xa5\x872'
p2701
sS'drel'
p2702
S'lwg__psp:NP6'
p2703
sS'chunktype'
p2704
S'child:NP6'
p2705
sS'af'
p2706
S'\xe0\xa4\xb8\xe0\xa5\x87,psp,,,,,,'
p2707
ssbsg26
I00
sg27
I00
sg28
Nsg29
Nsg30
I7
sg31
I5
sg32
Nsg33
Nsg34
S'PSP'
p2708
sg36
g2695
sg37
I00
sba(issf_api
Word
p2709
(dp2710
g6
I00
sg7
V\u0915\u0940
p2711
sg9
(issf_api
FeatureSet
p2712
(dp2713
g12
(dp2714
S'posn'
p2715
S'170'
p2716
sS'name'
p2717
S'\xe0\xa4\x95\xe0\xa5\x802'
p2718
sS'af'
p2719
S'\xe0\xa4\x95\xe0\xa4\xb0,v,any,sg,3,,\xe0\xa4\xaf\xe0\xa4\xbe_\xe0\xa4\x9c\xe0\xa4\xbe_\xe0\xa4\xb8\xe0\xa4\x95+\xe0\xa4\x97\xe0\xa4\xbe,yA'
p2720
sS'chunkid'
p2721
S'VGF'
p2722
sS'stype'
p2723
S'declarative'
p2724
sS'drel'
p2725
S'ccof:CCP'
p2726
sS'voicetype'
p2727
S'passive'
p2728
sS'vpos'
p2729
S'tam_2_3'
p2730
sS'chunktype'
p2731
S'head:VGF'
p2732
ssbsg26
I00
sg27
I00
sg28
Nsg29
Nsg30
I8
sg31
I5
sg32
Nsg33
Nsg34
S'VM'
p2733
sg36
g2712
sg37
I00
sba(issf_api
Word
p2734
(dp2735
g6
I00
sg7
V\u091c\u093e
p2736
sg9
(issf_api
FeatureSet
p2737
(dp2738
g12
(dp2739
S'posn'
p2740
S'180'
p2741
sS'name'
p2742
S'\xe0\xa4\x9c\xe0\xa4\xbe'
p2743
sS'drel'
p2744
S'lwg__vaux:VGF'
p2745
sS'chunktype'
p2746
S'child:VGF'
p2747
sS'af'
p2748
S'\xe0\xa4\x9c\xe0\xa4\xbe,v,any,any,any,,0,0'
p2749
ssbsg26
I00
sg27
I00
sg28
Nsg29
Nsg30
I8
sg31
I5
sg32
Nsg33
Nsg34
S'VAUX'
p2750
sg36
g2737
sg37
I00
sba(issf_api
Word
p2751
(dp2752
g6
I00
sg7
V\u0938\u0915\u0947\u0917\u0940
p2753
sg9
(issf_api
FeatureSet
p2754
(dp2755
g12
(dp2756
S'posn'
p2757
S'190'
p2758
sS'name'
p2759
S'\xe0\xa4\xb8\xe0\xa4\x95\xe0\xa5\x87\xe0\xa4\x97\xe0\xa5\x80'
p2760
sS'drel'
p2761
S'lwg__vaux:VGF'
p2762
sS'chunktype'
p2763
S'child:VGF'
p2764
sS'af'
p2765
S'\xe0\xa4\xb8\xe0\xa4\x95,v,f,sg,3,,\xe0\xa4\x97\xe0\xa4\xbe,gA'
p2766
ssbsg26
I00
sg27
I00
sg28
Nsg29
Nsg30
I8
sg31
I5
sg32
Nsg33
Nsg34
S'VAUX'
p2767
sg36
g2754
sg37
I00
sba(issf_api
Word
p2768
(dp2769
g6
I00
sg7
V\u0964
p2770
sg9
(issf_api
FeatureSet
p2771
(dp2772
g12
(dp2773
S'posn'
p2774
S'200'
p2775
sS'name'
p2776
S'\xe0\xa5\xa4'
p2777
sS'af'
p2778
S'\xe0\xa5\xa4,punc,,,,,,'
p2779
sS'chunkid'
p2780
S'BLK'
p2781
sS'drel'
p2782
S'rsym:CCP'
p2783
sS'chunktype'
p2784
S'head:BLK'
p2785
ssbsg26
I00
sg27
I00
sg28
Nsg29
Nsg30
I9
sg31
I5
sg32
Nsg33
Nsg34
S'SYM'
p2786
sg36
g2771
sg37
I00
sba(issf_api
Word
p2787
(dp2788
g6
I00
sg7
V\u0907\u0938\u0915\u0947
p2789
sg9
(issf_api
FeatureSet
p2790
(dp2791
g12
(dp2792
S'posn'
p2793
S'10'
p2794
sS'name'
p2795
S'\xe0\xa4\x87\xe0\xa4\xb8\xe0\xa4\x95\xe0\xa5\x87'
p2796
sS'af'
p2797
S'\xe0\xa4\xaf\xe0\xa4\xb9,pn,any,sg,3,o,0_\xe0\xa4\xb2\xe0\xa4\xbf\xe0\xa4\x8f,ke'
p2798
sS'chunkid'
p2799
S'NP'
p2800
sS'drel'
p2801
S'rt:VGF'
p2802
sS'vpos'
p2803
S'vib_2'
p2804
sS'chunktype'
p2805
S'head:NP'
p2806
ssbsg26
I00
sg27
I00
sg28
Nsg29
Nsg30
I0
sg31
I6
sg32
Nsg33
Nsg34
S'PRP'
p2807
sg36
g2790
sg37
I00
sba(issf_api
Word
p2808
(dp2809
g6
I00
sg7
V\u0932\u093f\u090f
p2810
sg9
(issf_api
FeatureSet
p2811
(dp2812
g12
(dp2813
S'posn'
p2814
S'20'
p2815
sS'name'
p2816
S'\xe0\xa4\xb2\xe0\xa4\xbf\xe0\xa4\x8f'
p2817
sS'drel'
p2818
S'lwg__psp:NP'
p2819
sS'chunktype'
p2820
S'child:NP'
p2821
sS'af'
p2822
S'\xe0\xa4\xb2\xe0\xa4\xbf\xe0\xa4\x8f,psp,,,,,,'
p2823
ssbsg26
I00
sg27
I00
sg28
Nsg29
Nsg30
I0
sg31
I6
sg32
Nsg33
Nsg34
S'PSP'
p2824
sg36
g2811
sg37
I00
sba(issf_api
Word
p2825
(dp2826
g6
I00
sg7
V\u092c\u094d\u092f\u0942\u0930\u094b
p2827
sg9
(issf_api
FeatureSet
p2828
(dp2829
g12
(dp2830
S'crefhead'
p2831
S'\xe0\xa4\xac\xe0\xa5\x8d\xe0\xa4\xaf\xe0\xa5\x82\xe0\xa4\xb0\xe0\xa5\x8b:i26'
p2832
sS'posn'
p2833
S'30'
p2834
sS'name'
p2835
S'\xe0\xa4\xac\xe0\xa5\x8d\xe0\xa4\xaf\xe0\xa5\x82\xe0\xa4\xb0\xe0\xa5\x8b'
p2836
sS'af'
p2837
S'\xe0\xa4\xac\xe0\xa5\x8d\xe0\xa4\xaf\xe0\xa5\x82\xe0\xa4\xb0\xe0\xa5\x8b,n,m,sg,3,d,0,0'
p2838
sS'chunkid'
p2839
S'NP2'
p2840
sS'creftype'
p2841
S'Coreference-Noun-Noun:i13'
p2842
sS'chunktype'
p2843
S'head:NP2'
p2844
sS'cref'
p2845
S'i26%1:t3'
p2846
sS'drel'
p2847
S'k1:VGF'
p2848
ssbsg26
I00
sg27
I00
sg28
Nsg29
Nsg30
I1
sg31
I6
sg32
Nsg33
Nsg34
S'NN'
p2849
sg36
g2828
sg37
I00
sba(issf_api
Word
p2850
(dp2851
g6
I00
sg7
V\u0938\u094d\u0935\u092f\u0902\u0938\u0947\u0935\u0940
p2852
sg9
(issf_api
FeatureSet
p2853
(dp2854
g12
(dp2855
S'posn'
p2856
S'40'
p2857
sS'name'
p2858
S'\xe0\xa4\xb8\xe0\xa5\x8d\xe0\xa4\xb5\xe0\xa4\xaf\xe0\xa4\x82\xe0\xa4\xb8\xe0\xa5\x87\xe0\xa4\xb5\xe0\xa5\x80'
p2859
sS'drel'
p2860
S'nmod__adj:NP3'
p2861
sS'chunktype'
p2862
S'child:NP3'
p2863
sS'af'
p2864
S'\xe0\xa4\xb8\xe0\xa5\x8d\xe0\xa4\xb5\xe0\xa4\xaf\xe0\xa4\x82\xe0\xa4\xb8\xe0\xa5\x87\xe0\xa4\xb5\xe0\xa5\x80,adj,any,any,,o,,'
p2865
ssbsg26
I00
sg27
I00
sg28
Nsg29
Nsg30
I2
sg31
I6
sg32
Nsg33
Nsg34
S'JJ'
p2866
sg36
g2853
sg37
I00
sba(issf_api
Word
p2867
(dp2868
g6
I00
sg7
V\u0938\u0902\u0938\u094d\u0925\u093e\u0913\u0902
p2869
sg9
(issf_api
FeatureSet
p2870
(dp2871
g12
(dp2872
S'posn'
p2873
S'50'
p2874
sS'name'
p2875
S'\xe0\xa4\xb8\xe0\xa4\x82\xe0\xa4\xb8\xe0\xa5\x8d\xe0\xa4\xa5\xe0\xa4\xbe\xe0\xa4\x93\xe0\xa4\x82'
p2876
sS'af'
p2877
S'\xe0\xa4\xb8\xe0\xa4\x82\xe0\xa4\xb8\xe0\xa5\x8d\xe0\xa4\xa5\xe0\xa4\xbe,n,f,pl,3,o,0_\xe0\xa4\x95\xe0\xa4\xbe,0'
p2878
sS'chunkid'
p2879
S'NP3'
p2880
sS'drel'
p2881
S'r6-k2:NP4'
p2882
sS'vpos'
p2883
S'vib_3'
p2884
sS'chunktype'
p2885
S'head:NP3'
p2886
ssbsg26
I00
sg27
I00
sg28
Nsg29
Nsg30
I2
sg31
I6
sg32
Nsg33
Nsg34
S'NN'
p2887
sg36
g2870
sg37
I00
sba(issf_api
Word
p2888
(dp2889
g6
I00
sg7
V\u0915\u0940
p2890
sg9
(issf_api
FeatureSet
p2891
(dp2892
g12
(dp2893
S'posn'
p2894
S'60'
p2895
sS'name'
p2896
S'\xe0\xa4\x95\xe0\xa5\x80'
p2897
sS'drel'
p2898
S'lwg__psp:NP3'
p2899
sS'chunktype'
p2900
S'child:NP3'
p2901
sS'af'
p2902
S'\xe0\xa4\x95\xe0\xa4\xbe,psp,f,sg,,d,,'
p2903
ssbsg26
I00
sg27
I00
sg28
Nsg29
Nsg30
I2
sg31
I6
sg32
Nsg33
Nsg34
S'PSP'
p2904
sg36
g2891
sg37
I00
sba(issf_api
Word
p2905
(dp2906
g6
I00
sg7
V\u092e\u0926\u0926
p2907
sg9
(issf_api
FeatureSet
p2908
(dp2909
g12
(dp2910
S'posn'
p2911
S'70'
p2912
sS'name'
p2913
S'\xe0\xa4\xae\xe0\xa4\xa6\xe0\xa4\xa6'
p2914
sS'af'
p2915
S'\xe0\xa4\xae\xe0\xa4\xa6\xe0\xa4\xa6,n,f,sg,3,d,0,0'
p2916
sS'chunkid'
p2917
S'NP4'
p2918
sS'drel'
p2919
S'pof:VGF'
p2920
sS'chunktype'
p2921
S'head:NP4'
p2922
ssbsg26
I00
sg27
I00
sg28
Nsg29
Nsg30
I3
sg31
I6
sg32
Nsg33
Nsg34
S'NN'
p2923
sg36
g2908
sg37
I00
sba(issf_api
Word
p2924
(dp2925
g6
I00
sg7
V\u0932\u0947\u0917\u0940
p2926
sg9
(issf_api
FeatureSet
p2927
(dp2928
g12
(dp2929
S'posn'
p2930
S'80'
p2931
sS'name'
p2932
S'\xe0\xa4\xb2\xe0\xa5\x87\xe0\xa4\x97\xe0\xa5\x80'
p2933
sS'af'
p2934
S'\xe0\xa4\xb2\xe0\xa5\x87,v,m,sg,3,,\xe0\xa4\x97\xe0\xa4\xbe,gA'
p2935
sS'chunkid'
p2936
S'VGF'
p2937
sS'stype'
p2938
S'declarative'
p2939
sS'drel'
p2940
S'ccof:CCP'
p2941
sS'voicetype'
p2942
S'active'
p2943
sS'chunktype'
p2944
S'head:VGF'
p2945
ssbsg26
I00
sg27
I00
sg28
Nsg29
Nsg30
I4
sg31
I6
sg32
Nsg33
Nsg34
S'VM'
p2946
sg36
g2927
sg37
I00
sba(issf_api
Word
p2947
(dp2948
g6
I00
sg7
V\u0914\u0930
p2949
sg9
(issf_api
FeatureSet
p2950
(dp2951
g12
(dp2952
S'posn'
p2953
S'90'
p2954
sS'chunkid'
p2955
S'CCP'
p2956
sS'name'
p2957
S'\xe0\xa4\x94\xe0\xa4\xb0'
p2958
sS'chunktype'
p2959
S'head:CCP'
p2960
sS'af'
p2961
S'\xe0\xa4\x94\xe0\xa4\xb0,avy,,,,,,'
p2962
ssbsg26
I00
sg27
I00
sg28
Nsg29
Nsg30
I5
sg31
I6
sg32
Nsg33
Nsg34
S'CC'
p2963
sg36
g2950
sg37
I00
sba(issf_api
Word
p2964
(dp2965
g6
I00
sg7
V\u0909\u0928\u094d\u0939\u0947\u0902
p2966
sg9
(issf_api
FeatureSet
p2967
(dp2968
g12
(dp2969
S'posn'
p2970
S'100'
p2971
sS'name'
p2972
S'\xe0\xa4\x89\xe0\xa4\xa8\xe0\xa5\x8d\xe0\xa4\xb9\xe0\xa5\x87\xe0\xa4\x82'
p2973
sS'af'
p2974
S'\xe0\xa4\xb5\xe0\xa4\xb9,pn,any,pl,3,o,\xe0\xa4\x95\xe0\xa5\x8b,ko'
p2975
sS'chunkid'
p2976
S'NP5'
p2977
sS'drel'
p2978
S'k4:VGF2'
p2979
sS'chunktype'
p2980
S'head:NP5'
p2981
ssbsg26
I00
sg27
I00
sg28
Nsg29
Nsg30
I6
sg31
I6
sg32
Nsg33
Nsg34
S'PRP'
p2982
sg36
g2967
sg37
I00
sba(issf_api
Word
p2983
(dp2984
g6
I00
sg7
V\u092f\u0939
p2985
sg9
(issf_api
FeatureSet
p2986
(dp2987
g12
(dp2988
S'posn'
p2989
S'110'
p2990
sS'name'
p2991
S'\xe0\xa4\xaf\xe0\xa4\xb9'
p2992
sS'af'
p2993
S'\xe0\xa4\xaf\xe0\xa4\xb9,pn,any,sg,3,d,,'
p2994
sS'drel'
p2995
S'nmod__adj:NP6'
p2996
sS'chunktype'
p2997
S'child:NP6'
p2998
sS'cref'
p2999
S'i27%0:t4'
p3000
ssbsg26
I00
sg27
I00
sg28
Nsg29
Nsg30
I7
sg31
I6
sg32
Nsg33
Nsg34
S'DEM'
p3001
sg36
g2986
sg37
I00
sba(issf_api
Word
p3002
(dp3003
g6
I00
sg7
V\u0915\u093f\u091f
p3004
sg9
(issf_api
FeatureSet
p3005
(dp3006
g12
(dp3007
S'crefhead'
p3008
S'\xe0\xa4\x95\xe0\xa4\xbf\xe0\xa4\x9f:i27'
p3009
sS'posn'
p3010
S'120'
p3011
sS'name'
p3012
S'\xe0\xa4\x95\xe0\xa4\xbf\xe0\xa4\x9f'
p3013
sS'af'
p3014
S'\xe0\xa4\x95\xe0\xa4\xbf\xe0\xa4\x9f,n,m,sg,3,d,0,0'
p3015
sS'chunkid'
p3016
S'NP6'
p3017
sS'creftype'
p3018
S'Coreference-Noun-Noun:i22'
p3019
sS'chunktype'
p3020
S'head:NP6'
p3021
sS'cref'
p3022
S'i27%1:t4'
p3023
sS'drel'
p3024
S'k2:VGF2'
p3025
ssbsg26
I00
sg27
I00
sg28
Nsg29
Nsg30
I7
sg31
I6
sg32
Nsg33
Nsg34
S'NN'
p3026
sg36
g3005
sg37
I00
sba(issf_api
Word
p3027
(dp3028
g6
I00
sg7
V\u0909\u092a\u0932\u092c\u094d\u0927
p3029
sg9
(issf_api
FeatureSet
p3030
(dp3031
g12
(dp3032
S'posn'
p3033
S'130'
p3034
sS'name'
p3035
S'\xe0\xa4\x89\xe0\xa4\xaa\xe0\xa4\xb2\xe0\xa4\xac\xe0\xa5\x8d\xe0\xa4\xa7'
p3036
sS'af'
p3037
S'\xe0\xa4\x89\xe0\xa4\xaa\xe0\xa4\xb2\xe0\xa4\xac\xe0\xa5\x8d\xe0\xa4\xa7,adj,any,any,,,,'
p3038
sS'chunkid'
p3039
S'JJP'
p3040
sS'drel'
p3041
S'pof:VGF2'
p3042
sS'chunktype'
p3043
S'head:JJP'
p3044
ssbsg26
I00
sg27
I00
sg28
Nsg29
Nsg30
I8
sg31
I6
sg32
Nsg33
Nsg34
S'JJ'
p3045
sg36
g3030
sg37
I00
sba(issf_api
Word
p3046
(dp3047
g6
I00
sg7
V\u0915\u0930\u093e\u090f\u0917\u0940
p3048
sg9
(issf_api
FeatureSet
p3049
(dp3050
g12
(dp3051
S'posn'
p3052
S'140'
p3053
sS'name'
p3054
S'\xe0\xa4\x95\xe0\xa4\xb0\xe0\xa4\xbe\xe0\xa4\x8f\xe0\xa4\x97\xe0\xa5\x80'
p3055
sS'af'
p3056
S'\xe0\xa4\x95\xe0\xa4\xb0\xe0\xa4\xbe,v,f,sg,3,,\xe0\xa4\x97\xe0\xa4\xbe,gA'
p3057
sS'chunkid'
p3058
S'VGF2'
p3059
sS'stype'
p3060
S'declarative'
p3061
sS'drel'
p3062
S'ccof:CCP'
p3063
sS'voicetype'
p3064
S'active'
p3065
sS'chunktype'
p3066
S'head:VGF2'
p3067
ssbsg26
I00
sg27
I00
sg28
Nsg29
Nsg30
I9
sg31
I6
sg32
Nsg33
Nsg34
S'VM'
p3068
sg36
g3049
sg37
I00
sba(issf_api
Word
p3069
(dp3070
g6
I00
sg7
V\u0964
p3071
sg9
(issf_api
FeatureSet
p3072
(dp3073
g12
(dp3074
S'posn'
p3075
S'150'
p3076
sS'name'
p3077
S'\xe0\xa5\xa4'
p3078
sS'af'
p3079
S'\xe0\xa5\xa4,punc,,,,,,'
p3080
sS'chunkid'
p3081
S'BLK'
p3082
sS'drel'
p3083
S'rsym:CCP'
p3084
sS'chunktype'
p3085
S'head:BLK'
p3086
ssbsg26
I00
sg27
I00
sg28
Nsg29
Nsg30
I10
sg31
I6
sg32
Nsg33
Nsg34
S'SYM'
p3087
sg36
g3072
sg37
I00
sba(issf_api
Word
p3088
(dp3089
g6
I00
sg7
V\u091c\u094b
p3090
sg9
(issf_api
FeatureSet
p3091
(dp3092
g12
(dp3093
S'posn'
p3094
S'10'
p3095
sS'name'
p3096
S'\xe0\xa4\x9c\xe0\xa5\x8b'
p3097
sS'af'
p3098
S'\xe0\xa4\x9c\xe0\xa5\x8b,pn,any,sg,3,d,,'
p3099
sS'chunkid'
p3100
S'NP'
p3101
sS'drel'
p3102
S'k1:VGF'
p3103
sS'chunktype'
p3104
S'head:NP'
p3105
ssbsg26
I00
sg27
I00
sg28
Nsg29
Nsg30
I0
sg31
I7
sg32
Nsg33
Nsg34
S'PRP'
p3106
sg36
g3091
sg37
I00
sba(issf_api
Word
p3107
(dp3108
g6
I00
sg7
V\u092e\u093f\u0932\u093e\u0935\u091f
p3109
sg9
(issf_api
FeatureSet
p3110
(dp3111
g12
(dp3112
S'crefhead'
p3113
S'\xe0\xa4\xae\xe0\xa4\xbf\xe0\xa4\xb2\xe0\xa4\xbe\xe0\xa4\xb5\xe0\xa4\x9f:i28'
p3114
sS'posn'
p3115
S'20'
p3116
sS'name'
p3117
S'\xe0\xa4\xae\xe0\xa4\xbf\xe0\xa4\xb2\xe0\xa4\xbe\xe0\xa4\xb5\xe0\xa4\x9f'
p3118
sS'af'
p3119
S'\xe0\xa4\xae\xe0\xa4\xbf\xe0\xa4\xb2\xe0\xa4\xbe\xe0\xa4\xb5\xe0\xa4\x9f,n,f,sg,3,o,0_\xe0\xa4\x95\xe0\xa4\xbe,0'
p3120
sS'chunkid'
p3121
S'NP2'
p3122
sS'creftype'
p3123
S'Coreference-Identity:i24'
p3124
sS'chunktype'
p3125
S'head:NP2'
p3126
sS'vpos'
p3127
S'vib_2'
p3128
sS'cref'
p3129
S'i28%1:t2'
p3130
sS'drel'
p3131
S'r6-k1:NP3'
p3132
ssbsg26
I00
sg27
I00
sg28
Nsg29
Nsg30
I1
sg31
I7
sg32
Nsg33
Nsg34
S'NN'
p3133
sg36
g3110
sg37
I00
sba(issf_api
Word
p3134
(dp3135
g6
I00
sg7
V\u0915\u0940
p3136
sg9
(issf_api
FeatureSet
p3137
(dp3138
g12
(dp3139
S'posn'
p3140
S'30'
p3141
sS'name'
p3142
S'\xe0\xa4\x95\xe0\xa5\x80'
p3143
sS'drel'
p3144
S'lwg__psp:NP2'
p3145
sS'chunktype'
p3146
S'child:NP2'
p3147
sS'af'
p3148
S'\xe0\xa4\x95\xe0\xa4\xbe,psp,f,sg,,d,,'
p3149
ssbsg26
I00
sg27
I00
sg28
Nsg29
Nsg30
I1
sg31
I7
sg32
Nsg33
Nsg34
S'PSP'
p3150
sg36
g3137
sg37
I00
sba(issf_api
Word
p3151
(dp3152
g6
I00
sg7
V\u0936\u093f\u0915\u093e\u092f\u0924
p3153
sg9
(issf_api
FeatureSet
p3154
(dp3155
g12
(dp3156
S'posn'
p3157
S'40'
p3158
sS'name'
p3159
S'\xe0\xa4\xb6\xe0\xa4\xbf\xe0\xa4\x95\xe0\xa4\xbe\xe0\xa4\xaf\xe0\xa4\xa4'
p3160
sS'af'
p3161
S'\xe0\xa4\xb6\xe0\xa4\xbf\xe0\xa4\x95\xe0\xa4\xbe\xe0\xa4\xaf\xe0\xa4\xa4,n,f,sg,3,d,0,0'
p3162
sS'chunkid'
p3163
S'NP3'
p3164
sS'drel'
p3165
S'pof:VGNN'
p3166
sS'chunktype'
p3167
S'head:NP3'
p3168
ssbsg26
I00
sg27
I00
sg28
Nsg29
Nsg30
I2
sg31
I7
sg32
Nsg33
Nsg34
S'NN'
p3169
sg36
g3154
sg37
I00
sba(issf_api
Word
p3170
(dp3171
g6
I00
sg7
V\u0939\u094b\u0928\u0947
p3172
sg9
(issf_api
FeatureSet
p3173
(dp3174
g12
(dp3175
S'posn'
p3176
S'50'
p3177
sS'name'
p3178
S'\xe0\xa4\xb9\xe0\xa5\x8b\xe0\xa4\xa8\xe0\xa5\x87'
p3179
sS'af'
p3180
S'\xe0\xa4\xb9\xe0\xa5\x8b,v,any,any,any,o,\xe0\xa4\xa8\xe0\xa4\xbe_\xe0\xa4\xaa\xe0\xa4\xb0,nA'
p3181
sS'chunkid'
p3182
S'VGNN'
p3183
sS'drel'
p3184
S'k7:VGF'
p3185
sS'vpos'
p3186
S'tam_2'
p3187
sS'chunktype'
p3188
S'head:VGNN'
p3189
ssbsg26
I00
sg27
I00
sg28
Nsg29
Nsg30
I3
sg31
I7
sg32
Nsg33
Nsg34
S'VM'
p3190
sg36
g3173
sg37
I00
sba(issf_api
Word
p3191
(dp3192
g6
I00
sg7
V\u092a\u0930
p3193
sg9
(issf_api
FeatureSet
p3194
(dp3195
g12
(dp3196
S'posn'
p3197
S'60'
p3198
sS'name'
p3199
S'\xe0\xa4\xaa\xe0\xa4\xb0'
p3200
sS'drel'
p3201
S'lwg__psp:VGNN'
p3202
sS'chunktype'
p3203
S'child:VGNN'
p3204
sS'af'
p3205
S'\xe0\xa4\xaa\xe0\xa4\xb0,psp,,,,,,'
p3206
ssbsg26
I00
sg27
I00
sg28
Nsg29
Nsg30
I3
sg31
I7
sg32
Nsg33
Nsg34
S'PSP'
p3207
sg36
g3194
sg37
I00
sba(issf_api
Word
p3208
(dp3209
g6
I00
sg7
V\u092e\u094c\u0915\u0947
p3210
sg9
(issf_api
FeatureSet
p3211
(dp3212
g12
(dp3213
S'posn'
p3214
S'70'
p3215
sS'name'
p3216
S'\xe0\xa4\xae\xe0\xa5\x8c\xe0\xa4\x95\xe0\xa5\x87'
p3217
sS'af'
p3218
S'\xe0\xa4\xae\xe0\xa5\x8c\xe0\xa4\x95\xe0\xa4\xbe,n,m,sg,3,o,0_\xe0\xa4\xaa\xe0\xa4\xb0,0'
p3219
sS'chunkid'
p3220
S'NP4'
p3221
sS'drel'
p3222
S'k7:VGNF'
p3223
sS'vpos'
p3224
S'vib_2'
p3225
sS'chunktype'
p3226
S'head:NP4'
p3227
ssbsg26
I00
sg27
I00
sg28
Nsg29
Nsg30
I4
sg31
I7
sg32
Nsg33
Nsg34
S'NN'
p3228
sg36
g3211
sg37
I00
sba(issf_api
Word
p3229
(dp3230
g6
I00
sg7
V\u092a\u0930
p3231
sg9
(issf_api
FeatureSet
p3232
(dp3233
g12
(dp3234
S'posn'
p3235
S'80'
p3236
sS'name'
p3237
S'\xe0\xa4\xaa\xe0\xa4\xb02'
p3238
sS'drel'
p3239
S'lwg__psp:NP4'
p3240
sS'chunktype'
p3241
S'child:NP4'
p3242
sS'af'
p3243
S'\xe0\xa4\xaa\xe0\xa4\xb0,psp,,,,,,'
p3244
ssbsg26
I00
sg27
I00
sg28
Nsg29
Nsg30
I4
sg31
I7
sg32
Nsg33
Nsg34
S'PSP'
p3245
sg36
g3232
sg37
I00
sba(issf_api
Word
p3246
(dp3247
g6
I00
sg7
V\u091c\u093e\u0915\u0930
p3248
sg9
(issf_api
FeatureSet
p3249
(dp3250
g12
(dp3251
S'posn'
p3252
S'90'
p3253
sS'name'
p3254
S'\xe0\xa4\x9c\xe0\xa4\xbe\xe0\xa4\x95\xe0\xa4\xb0'
p3255
sS'af'
p3256
S'\xe0\xa4\x9c\xe0\xa4\xbe,v,any,any,any,,\xe0\xa4\x95\xe0\xa4\xb0,kara'
p3257
sS'chunkid'
p3258
S'VGNF'
p3259
sS'drel'
p3260
S'vmod:VGF'
p3261
sS'chunktype'
p3262
S'head:VGNF'
p3263
ssbsg26
I00
sg27
I00
sg28
Nsg29
Nsg30
I5
sg31
I7
sg32
Nsg33
Nsg34
S'VM'
p3264
sg36
g3249
sg37
I00
sba(issf_api
Word
p3265
(dp3266
g6
I00
sg7
V\u091c\u093e\u0902\u091a
p3267
sg9
(issf_api
FeatureSet
p3268
(dp3269
g12
(dp3270
S'crefhead'
p3271
S'\xe0\xa4\x9c\xe0\xa4\xbe\xe0\xa4\x82\xe0\xa4\x9a:i29'
p3272
sS'posn'
p3273
S'100'
p3274
sS'name'
p3275
S'\xe0\xa4\x9c\xe0\xa4\xbe\xe0\xa4\x82\xe0\xa4\x9a'
p3276
sS'af'
p3277
S'\xe0\xa4\x9c\xe0\xa4\xbe\xe0\xa4\x82\xe0\xa4\x9a,n,f,sg,3,d,0,0'
p3278
sS'chunkid'
p3279
S'NP5'
p3280
sS'creftype'
p3281
S'Coreference-Identity:i25'
p3282
sS'chunktype'
p3283
S'head:NP5'
p3284
sS'cref'
p3285
S'i29%1:t5'
p3286
sS'drel'
p3287
S'pof:VGF'
p3288
ssbsg26
I00
sg27
I00
sg28
Nsg29
Nsg30
I6
sg31
I7
sg32
Nsg33
Nsg34
S'NN'
p3289
sg36
g3268
sg37
I00
sba(issf_api
Word
p3290
(dp3291
g6
I00
sg7
V\u0915\u0930\u0947\u0917\u0940
p3292
sg9
(issf_api
FeatureSet
p3293
(dp3294
g12
(dp3295
S'posn'
p3296
S'110'
p3297
sS'name'
p3298
S'\xe0\xa4\x95\xe0\xa4\xb0\xe0\xa5\x87\xe0\xa4\x97\xe0\xa5\x80'
p3299
sS'af'
p3300
S'\xe0\xa4\x95\xe0\xa4\xb0,v,f,sg,3,,\xe0\xa4\x97\xe0\xa4\xbe,gA'
p3301
sS'chunkid'
p3302
S'VGF'
p3303
sS'chunktype'
p3304
S'head:VGF'
p3305
sS'voicetype'
p3306
S'active'
p3307
sS'stype'
p3308
S'declarative'
p3309
ssbsg26
I00
sg27
I00
sg28
Nsg29
Nsg30
I7
sg31
I7
sg32
Nsg33
Nsg34
S'VM'
p3310
sg36
g3293
sg37
I00
sba(issf_api
Word
p3311
(dp3312
g6
I00
sg7
V\u0964
p3313
sg9
(issf_api
FeatureSet
p3314
(dp3315
g12
(dp3316
S'posn'
p3317
S'120'
p3318
sS'name'
p3319
S'\xe0\xa5\xa4'
p3320
sS'af'
p3321
S'\xe0\xa5\xa4,punc,,,,,,'
p3322
sS'chunkid'
p3323
S'BLK'
p3324
sS'drel'
p3325
S'rsym:VGF'
p3326
sS'chunktype'
p3327
S'head:BLK'
p3328
ssbsg26
I00
sg27
I00
sg28
Nsg29
Nsg30
I8
sg31
I7
sg32
Nsg33
Nsg34
S'SYM'
p3329
sg36
g3314
sg37
I00
sba(issf_api
Word
p3330
(dp3331
g6
I00
sg7
V\u0907\u0938\u0938\u0947
p3332
sg9
(issf_api
FeatureSet
p3333
(dp3334
g12
(dp3335
S'posn'
p3336
S'10'
p3337
sS'name'
p3338
S'\xe0\xa4\x87\xe0\xa4\xb8\xe0\xa4\xb8\xe0\xa5\x87'
p3339
sS'af'
p3340
S'\xe0\xa4\xaf\xe0\xa4\xb9,pn,any,sg,3,o,\xe0\xa4\xb8\xe0\xa5\x87,se'
p3341
sS'chunkid'
p3342
S'NP'
p3343
sS'drel'
p3344
S'rh:VGF'
p3345
sS'chunktype'
p3346
S'head:NP'
p3347
ssbsg26
I00
sg27
I00
sg28
Nsg29
Nsg30
I0
sg31
I8
sg32
Nsg33
Nsg34
S'PRP'
p3348
sg36
g3333
sg37
I00
sba(issf_api
Word
p3349
(dp3350
g6
I00
sg7
V\u0909\u092a\u0915\u0930\u0923
p3351
sg9
(issf_api
FeatureSet
p3352
(dp3353
g12
(dp3354
S'posn'
p3355
S'20'
p3356
sS'name'
p3357
S'\xe0\xa4\x89\xe0\xa4\xaa\xe0\xa4\x95\xe0\xa4\xb0\xe0\xa4\xa3'
p3358
sS'af'
p3359
S'\xe0\xa4\x89\xe0\xa4\xaa\xe0\xa4\x95\xe0\xa4\xb0\xe0\xa4\xa3,n,m,sg,3,o,0_\xe0\xa4\x95\xe0\xa5\x87_\xe0\xa4\x9c\xe0\xa4\xb0\xe0\xa4\xbf\xe0\xa4\xaf\xe0\xa5\x87,0'
p3360
sS'chunkid'
p3361
S'NP2'
p3362
sS'drel'
p3363
S'k3:VGF'
p3364
sS'vpos'
p3365
S'vib_2_3'
p3366
sS'chunktype'
p3367
S'head:NP2'
p3368
ssbsg26
I00
sg27
I00
sg28
Nsg29
Nsg30
I1
sg31
I8
sg32
Nsg33
Nsg34
S'NN'
p3369
sg36
g3352
sg37
I00
sba(issf_api
Word
p3370
(dp3371
g6
I00
sg7
V\u0915\u0947
p3372
sg9
(issf_api
FeatureSet
p3373
(dp3374
g12
(dp3375
S'posn'
p3376
S'30'
p3377
sS'name'
p3378
S'\xe0\xa4\x95\xe0\xa5\x87'
p3379
sS'drel'
p3380
S'lwg__psp:NP2'
p3381
sS'chunktype'
p3382
S'child:NP2'
p3383
sS'af'
p3384
S'\xe0\xa4\x95\xe0\xa5\x87,psp,,,,,,'
p3385
ssbsg26
I00
sg27
I00
sg28
Nsg29
Nsg30
I1
sg31
I8
sg32
Nsg33
Nsg34
S'PSP'
p3386
sg36
g3373
sg37
I00
sba(issf_api
Word
p3387
(dp3388
g6
I00
sg7
V\u091c\u0930\u093f\u090f
p3389
sg9
(issf_api
FeatureSet
p3390
(dp3391
g12
(dp3392
S'posn'
p3393
S'40'
p3394
sS'name'
p3395
S'\xe0\xa4\x9c\xe0\xa4\xb0\xe0\xa4\xbf\xe0\xa4\x8f'
p3396
sS'drel'
p3397
S'lwg__psp:NP2'
p3398
sS'chunktype'
p3399
S'child:NP2'
p3400
sS'af'
p3401
S'\xe0\xa4\x9c\xe0\xa4\xb0\xe0\xa4\xbf\xe0\xa4\xaf\xe0\xa5\x87,psp,,,,,,'
p3402
ssbsg26
I00
sg27
I00
sg28
Nsg29
Nsg30
I1
sg31
I8
sg32
Nsg33
Nsg34
S'PSP'
p3403
sg36
g3390
sg37
I00
sba(issf_api
Word
p3404
(dp3405
g6
I00
sg7
V\u0924\u0941\u0930\u0902\u0924
p3406
sg9
(issf_api
FeatureSet
p3407
(dp3408
g12
(dp3409
S'posn'
p3410
S'50'
p3411
sS'name'
p3412
S'\xe0\xa4\xa4\xe0\xa5\x81\xe0\xa4\xb0\xe0\xa4\x82\xe0\xa4\xa4'
p3413
sS'af'
p3414
S'\xe0\xa4\xa4\xe0\xa5\x81\xe0\xa4\xb0\xe0\xa4\x82\xe0\xa4\xa4,adv,,,,,,'
p3415
sS'chunkid'
p3416
S'RBP'
p3417
sS'drel'
p3418
S'adv:VGF'
p3419
sS'chunktype'
p3420
S'head:RBP'
p3421
ssbsg26
I00
sg27
I00
sg28
Nsg29
Nsg30
I2
sg31
I8
sg32
Nsg33
Nsg34
S'RB'
p3422
sg36
g3407
sg37
I00
sba(issf_api
Word
p3423
(dp3424
g6
I00
sg7
V\u0939\u0940
p3425
sg9
(issf_api
FeatureSet
p3426
(dp3427
g12
(dp3428
S'posn'
p3429
S'60'
p3430
sS'name'
p3431
S'\xe0\xa4\xb9\xe0\xa5\x80'
p3432
sS'drel'
p3433
S'lwg__rp:RBP'
p3434
sS'chunktype'
p3435
S'child:RBP'
p3436
sS'af'
p3437
S'\xe0\xa4\xb9\xe0\xa5\x80,avy,,,,,,'
p3438
ssbsg26
I00
sg27
I00
sg28
Nsg29
Nsg30
I2
sg31
I8
sg32
Nsg33
Nsg34
S'RP'
p3439
sg36
g3426
sg37
I00
sba(issf_api
Word
p3440
(dp3441
g6
I00
sg7
V\u092e\u093f\u0932\u093e\u0935\u091f
p3442
sg9
(issf_api
FeatureSet
p3443
(dp3444
g12
(dp3445
S'crefhead'
p3446
S'\xe0\xa4\xae\xe0\xa4\xbf\xe0\xa4\xb2\xe0\xa4\xbe\xe0\xa4\xb5\xe0\xa4\x9f:i30'
p3447
sS'posn'
p3448
S'70'
p3449
sS'name'
p3450
S'\xe0\xa4\xae\xe0\xa4\xbf\xe0\xa4\xb2\xe0\xa4\xbe\xe0\xa4\xb5\xe0\xa4\x9f'
p3451
sS'af'
p3452
S'\xe0\xa4\xae\xe0\xa4\xbf\xe0\xa4\xb2\xe0\xa4\xbe\xe0\xa4\xb5\xe0\xa4\x9f,n,f,sg,3,o,0_\xe0\xa4\x95\xe0\xa4\xbe,0'
p3453
sS'acrefmodhead'
p3454
S'\xe0\xa4\xae\xe0\xa4\xbf\xe0\xa4\xb2\xe0\xa4\xbe\xe0\xa4\xb5\xe0\xa4\x9f:m4'
p3455
sS'chunkid'
p3456
S'NP3'
p3457
sS'acrefmod'
p3458
S'm4%1:i31'
p3459
sS'creftype'
p3460
S'Coreference-Identity:i28'
p3461
sS'chunktype'
p3462
S'head:NP3'
p3463
sS'vpos'
p3464
S'vib_2'
p3465
sS'cref'
p3466
S'i30%1:t2'
p3467
sS'drel'
p3468
S'r6-k2:NP4'
p3469
ssbsg26
I00
sg27
I00
sg28
Nsg29
Nsg30
I3
sg31
I8
sg32
Nsg33
Nsg34
S'NN'
p3470
sg36
g3443
sg37
I00
sba(issf_api
Word
p3471
(dp3472
g6
I00
sg7
V\u0915\u0940
p3473
sg9
(issf_api
FeatureSet
p3474
(dp3475
g12
(dp3476
S'posn'
p3477
S'80'
p3478
sS'name'
p3479
S'\xe0\xa4\x95\xe0\xa5\x80'
p3480
sS'drel'
p3481
S'lwg__psp:NP3'
p3482
sS'chunktype'
p3483
S'child:NP3'
p3484
sS'af'
p3485
S'\xe0\xa4\x95\xe0\xa4\xbe,psp,f,sg,,d,,'
p3486
ssbsg26
I00
sg27
I00
sg28
Nsg29
Nsg30
I3
sg31
I8
sg32
Nsg33
Nsg34
S'PSP'
p3487
sg36
g3474
sg37
I00
sba(issf_api
Word
p3488
(dp3489
g6
I00
sg7
V\u091c\u093e\u0902\u091a
p3490
sg9
(issf_api
FeatureSet
p3491
(dp3492
g12
(dp3493
S'crefhead'
p3494
S'\xe0\xa4\x9c\xe0\xa4\xbe\xe0\xa4\x82\xe0\xa4\x9a:i31'
p3495
sS'posn'
p3496
S'90'
p3497
sS'name'
p3498
S'\xe0\xa4\x9c\xe0\xa4\xbe\xe0\xa4\x82\xe0\xa4\x9a'
p3499
sS'af'
p3500
S'\xe0\xa4\x9c\xe0\xa4\xbe\xe0\xa4\x82\xe0\xa4\x9a,n,f,sg,3,d,0,0'
p3501
sS'chunkid'
p3502
S'NP4'
p3503
sS'crefmod'
p3504
S'm4:i31'
p3505
sS'creftype'
p3506
S'Coreference-Identity:i29'
p3507
sS'chunktype'
p3508
S'head:NP4'
p3509
sS'cref'
p3510
S'i31%1:t5'
p3511
sS'drel'
p3512
S'pof:VGF'
p3513
ssbsg26
I00
sg27
I00
sg28
Nsg29
Nsg30
I4
sg31
I8
sg32
Nsg33
Nsg34
S'NN'
p3514
sg36
g3491
sg37
I00
sba(issf_api
Word
p3515
(dp3516
g6
I00
sg7
V\u0939\u094b
p3517
sg9
(issf_api
FeatureSet
p3518
(dp3519
g12
(dp3520
S'posn'
p3521
S'100'
p3522
sS'name'
p3523
S'\xe0\xa4\xb9\xe0\xa5\x8b'
p3524
sS'af'
p3525
S'\xe0\xa4\xb9\xe0\xa5\x8b,v,any,sg,3,,0_\xe0\xa4\x9c\xe0\xa4\xbe+\xe0\xa4\x97\xe0\xa4\xbe,0'
p3526
sS'chunkid'
p3527
S'VGF'
p3528
sS'chunktype'
p3529
S'head:VGF'
p3530
sS'voicetype'
p3531
S'active'
p3532
sS'vpos'
p3533
S'tam_2'
p3534
sS'stype'
p3535
S'declarative'
p3536
ssbsg26
I00
sg27
I00
sg28
Nsg29
Nsg30
I5
sg31
I8
sg32
Nsg33
Nsg34
S'VM'
p3537
sg36
g3518
sg37
I00
sba(issf_api
Word
p3538
(dp3539
g6
I00
sg7
V\u091c\u093e\u090f\u0917\u0940
p3540
sg9
(issf_api
FeatureSet
p3541
(dp3542
g12
(dp3543
S'posn'
p3544
S'110'
p3545
sS'name'
p3546
S'\xe0\xa4\x9c\xe0\xa4\xbe\xe0\xa4\x8f\xe0\xa4\x97\xe0\xa5\x80'
p3547
sS'drel'
p3548
S'lwg__vaux:VGF'
p3549
sS'chunktype'
p3550
S'child:VGF'
p3551
sS'af'
p3552
S'\xe0\xa4\x9c\xe0\xa4\xbe,v,f,sg,3,,\xe0\xa4\x97\xe0\xa4\xbe,gA'
p3553
ssbsg26
I00
sg27
I00
sg28
Nsg29
Nsg30
I5
sg31
I8
sg32
Nsg33
Nsg34
S'VAUX'
p3554
sg36
g3541
sg37
I00
sba(issf_api
Word
p3555
(dp3556
g6
I00
sg7
V\u0964
p3557
sg9
(issf_api
FeatureSet
p3558
(dp3559
g12
(dp3560
S'posn'
p3561
S'120'
p3562
sS'name'
p3563
S'\xe0\xa5\xa4'
p3564
sS'af'
p3565
S'\xe0\xa5\xa4,punc,,,,,,'
p3566
sS'chunkid'
p3567
S'BLK'
p3568
sS'drel'
p3569
S'rsym:VGF'
p3570
sS'chunktype'
p3571
S'head:BLK'
p3572
ssbsg26
I00
sg27
I00
sg28
Nsg29
Nsg30
I6
sg31
I8
sg32
Nsg33
Nsg34
S'SYM'
p3573
sg36
g3558
sg37
I00
sba(issf_api
Word
p3574
(dp3575
g6
I00
sg7
V\u092d\u093e\u0930\u0924\u0940\u092f
p3576
sg9
(issf_api
FeatureSet
p3577
(dp3578
g12
(dp3579
S'posn'
p3580
S'80'
p3581
sS'name'
p3582
S'\xe0\xa4\xad\xe0\xa4\xbe\xe0\xa4\xb0\xe0\xa4\xa4\xe0\xa5\x80\xe0\xa4\xaf'
p3583
sS'af'
p3584
S'\xe0\xa4\xad\xe0\xa4\xbe\xe0\xa4\xb0\xe0\xa4\xa4\xe0\xa5\x80\xe0\xa4\xaf,adj,any,any,,o,,'
p3585
sS'drel'
p3586
S'pof__cn:NP'
p3587
sS'chunktype'
p3588
S'child:NP'
p3589
sS'cref'
p3590
S'i32%0:t3'
p3591
ssbsg26
I00
sg27
I00
sg28
Nsg29
Nsg30
I0
sg31
I9
sg32
Nsg33
Nsg34
S'NNPC'
p3592
sg36
g3577
sg37
I00
sba(issf_api
Word
p3593
(dp3594
g6
I00
sg7
V\u092e\u093e\u0928\u0915
p3595
sg9
(issf_api
FeatureSet
p3596
(dp3597
g12
(dp3598
S'posn'
p3599
S'20'
p3600
sS'name'
p3601
S'\xe0\xa4\xae\xe0\xa4\xbe\xe0\xa4\xa8\xe0\xa4\x95'
p3602
sS'af'
p3603
S'\xe0\xa4\xae\xe0\xa4\xbe\xe0\xa4\xa8\xe0\xa4\x95,n,m,sg,3,d,0,0'
p3604
sS'drel'
p3605
S'pof__cn:NP'
p3606
sS'chunktype'
p3607
S'child:NP'
p3608
sS'cref'
p3609
S'i32%0:t3'
p3610
ssbsg26
I00
sg27
I00
sg28
Nsg29
Nsg30
I0
sg31
I9
sg32
Nsg33
Nsg34
S'NNPC'
p3611
sg36
g3596
sg37
I00
sba(issf_api
Word
p3612
(dp3613
g6
I00
sg7
V\u092c\u094d\u092f\u0942\u0930\u094b
p3614
sg9
(issf_api
FeatureSet
p3615
(dp3616
g12
(dp3617
S'crefhead'
p3618
S'\xe0\xa4\xac\xe0\xa5\x8d\xe0\xa4\xaf\xe0\xa5\x82\xe0\xa4\xb0\xe0\xa5\x8b:i32'
p3619
sS'posn'
p3620
S'30'
p3621
sS'name'
p3622
S'\xe0\xa4\xac\xe0\xa5\x8d\xe0\xa4\xaf\xe0\xa5\x82\xe0\xa4\xb0\xe0\xa5\x8b'
p3623
sS'af'
p3624
S'\xe0\xa4\xac\xe0\xa5\x8d\xe0\xa4\xaf\xe0\xa5\x82\xe0\xa4\xb0\xe0\xa5\x8b,n,m,sg,3,o,0_\xe0\xa4\x95\xe0\xa4\xbe,0'
p3625
sS'chunkid'
p3626
S'NP'
p3627
sS'creftype'
p3628
S'Coreference-Identity:i26'
p3629
sS'chunktype'
p3630
S'head:NP'
p3631
sS'vpos'
p3632
S'vib_4'
p3633
sS'cref'
p3634
S'i32%1:t3'
p3635
sS'drel'
p3636
S'r6:NP2'
p3637
ssbsg26
I00
sg27
I00
sg28
Nsg29
Nsg30
I0
sg31
I9
sg32
Nsg33
Nsg34
S'NNP'
p3638
sg36
g3615
sg37
I00
sba(issf_api
Word
p3639
(dp3640
g6
I00
sg7
V\u0915\u0947
p3641
sg9
(issf_api
FeatureSet
p3642
(dp3643
g12
(dp3644
S'posn'
p3645
S'40'
p3646
sS'name'
p3647
S'\xe0\xa4\x95\xe0\xa5\x87'
p3648
sS'drel'
p3649
S'lwg__psp:NP'
p3650
sS'chunktype'
p3651
S'child:NP'
p3652
sS'af'
p3653
S'\xe0\xa4\x95\xe0\xa4\xbe,psp,m,pl,,o,,'
p3654
ssbsg26
I00
sg27
I00
sg28
Nsg29
Nsg30
I0
sg31
I9
sg32
Nsg33
Nsg34
S'PSP'
p3655
sg36
g3642
sg37
I00
sba(issf_api
Word
p3656
(dp3657
g6
I00
sg7
V\u0905\u0927\u093f\u0915\u093e\u0930\u093f\u092f\u094b\u0902
p3658
sg9
(issf_api
FeatureSet
p3659
(dp3660
g12
(dp3661
S'posn'
p3662
S'50'
p3663
sS'name'
p3664
S'\xe0\xa4\x85\xe0\xa4\xa7\xe0\xa4\xbf\xe0\xa4\x95\xe0\xa4\xbe\xe0\xa4\xb0\xe0\xa4\xbf\xe0\xa4\xaf\xe0\xa5\x8b\xe0\xa4\x82'
p3665
sS'af'
p3666
S'\xe0\xa4\x85\xe0\xa4\xa7\xe0\xa4\xbf\xe0\xa4\x95\xe0\xa4\xbe\xe0\xa4\xb0\xe0\xa5\x80,n,m,pl,3,o,0_\xe0\xa4\x95\xe0\xa5\x87_\xe0\xa4\xae\xe0\xa5\x81\xe0\xa4\xa4\xe0\xa4\xbe\xe0\xa4\xac\xe0\xa4\xbf\xe0\xa4\x95,0'
p3667
sS'chunkid'
p3668
S'NP2'
p3669
sS'drel'
p3670
S'k7a:VGF'
p3671
sS'vpos'
p3672
S'vib_2_3'
p3673
sS'chunktype'
p3674
S'head:NP2'
p3675
ssbsg26
I00
sg27
I00
sg28
Nsg29
Nsg30
I1
sg31
I9
sg32
Nsg33
Nsg34
S'NN'
p3676
sg36
g3659
sg37
I00
sba(issf_api
Word
p3677
(dp3678
g6
I00
sg7
V\u0915\u0947
p3679
sg9
(issf_api
FeatureSet
p3680
(dp3681
g12
(dp3682
S'posn'
p3683
S'60'
p3684
sS'name'
p3685
S'\xe0\xa4\x95\xe0\xa5\x872'
p3686
sS'drel'
p3687
S'lwg__psp:NP2'
p3688
sS'chunktype'
p3689
S'child:NP2'
p3690
sS'af'
p3691
S'\xe0\xa4\x95\xe0\xa5\x87,psp,,,,,,'
p3692
ssbsg26
I00
sg27
I00
sg28
Nsg29
Nsg30
I1
sg31
I9
sg32
Nsg33
Nsg34
S'PSP'
p3693
sg36
g3680
sg37
I00
sba(issf_api
Word
p3694
(dp3695
g6
I00
sg7
V\u092e\u0941\u0924\u093e\u092c\u093f\u0915
p3696
sg9
(issf_api
FeatureSet
p3697
(dp3698
g12
(dp3699
S'posn'
p3700
S'70'
p3701
sS'name'
p3702
S'\xe0\xa4\xae\xe0\xa5\x81\xe0\xa4\xa4\xe0\xa4\xbe\xe0\xa4\xac\xe0\xa4\xbf\xe0\xa4\x95'
p3703
sS'drel'
p3704
S'lwg__psp:NP2'
p3705
sS'chunktype'
p3706
S'child:NP2'
p3707
sS'af'
p3708
S'\xe0\xa4\xae\xe0\xa5\x81\xe0\xa4\xa4\xe0\xa4\xbe\xe0\xa4\xac\xe0\xa4\xbf\xe0\xa4\x95,psp,,,,,,'
p3709
ssbsg26
I00
sg27
I00
sg28
Nsg29
Nsg30
I1
sg31
I9
sg32
Nsg33
Nsg34
S'PSP'
p3710
sg36
g3697
sg37
I00
sba(issf_api
Word
p3711
(dp3712
g6
I00
sg7
V\u0907\u0938
p3713
sg9
(issf_api
FeatureSet
p3714
(dp3715
g12
(dp3716
S'posn'
p3717
S'80'
p3718
sS'name'
p3719
S'\xe0\xa4\x87\xe0\xa4\xb8'
p3720
sS'af'
p3721
S'\xe0\xa4\xaf\xe0\xa4\xb9,pn,any,sg,3,o,,'
p3722
sS'drel'
p3723
S'nmod__adj:NP3'
p3724
sS'chunktype'
p3725
S'child:NP3'
p3726
sS'cref'
p3727
S'i33%0:t4'
p3728
ssbsg26
I00
sg27
I00
sg28
Nsg29
Nsg30
I2
sg31
I9
sg32
Nsg33
Nsg34
S'DEM'
p3729
sg36
g3714
sg37
I00
sba(issf_api
Word
p3730
(dp3731
g6
I00
sg7
V\u0909\u092a\u0915\u0930\u0923
p3732
sg9
(issf_api
FeatureSet
p3733
(dp3734
g12
(dp3735
S'crefhead'
p3736
S'\xe0\xa4\x89\xe0\xa4\xaa\xe0\xa4\x95\xe0\xa4\xb0\xe0\xa4\xa3:i33'
p3737
sS'posn'
p3738
S'90'
p3739
sS'name'
p3740
S'\xe0\xa4\x89\xe0\xa4\xaa\xe0\xa4\x95\xe0\xa4\xb0\xe0\xa4\xa3'
p3741
sS'af'
p3742
S'\xe0\xa4\x89\xe0\xa4\xaa\xe0\xa4\x95\xe0\xa4\xb0\xe0\xa4\xa3,n,m,sg,3,o,0_\xe0\xa4\x95\xe0\xa5\x87_\xe0\xa4\x9c\xe0\xa4\xb0\xe0\xa4\xbf\xe0\xa4\xaf\xe0\xa5\x87,0'
p3743
sS'chunkid'
p3744
S'NP3'
p3745
sS'creftype'
p3746
S'Coreference-Noun-Noun:i27'
p3747
sS'chunktype'
p3748
S'head:NP3'
p3749
sS'vpos'
p3750
S'vib_3_4'
p3751
sS'cref'
p3752
S'i33%1:t4'
p3753
sS'drel'
p3754
S'k3:VGNN'
p3755
ssbsg26
I00
sg27
I00
sg28
Nsg29
Nsg30
I2
sg31
I9
sg32
Nsg33
Nsg34
S'NN'
p3756
sg36
g3733
sg37
I00
sba(issf_api
Word
p3757
(dp3758
g6
I00
sg7
V\u0915\u0947
p3759
sg9
(issf_api
FeatureSet
p3760
(dp3761
g12
(dp3762
S'posn'
p3763
S'100'
p3764
sS'name'
p3765
S'\xe0\xa4\x95\xe0\xa5\x873'
p3766
sS'drel'
p3767
S'lwg__psp:NP3'
p3768
sS'chunktype'
p3769
S'child:NP3'
p3770
sS'af'
p3771
S'\xe0\xa4\x95\xe0\xa5\x87,psp,,,,,,'
p3772
ssbsg26
I00
sg27
I00
sg28
Nsg29
Nsg30
I2
sg31
I9
sg32
Nsg33
Nsg34
S'PSP'
p3773
sg36
g3760
sg37
I00
sba(issf_api
Word
p3774
(dp3775
g6
I00
sg7
V\u091c\u0930\u093f\u090f
p3776
sg9
(issf_api
FeatureSet
p3777
(dp3778
g12
(dp3779
S'posn'
p3780
S'110'
p3781
sS'name'
p3782
S'\xe0\xa4\x9c\xe0\xa4\xb0\xe0\xa4\xbf\xe0\xa4\x8f'
p3783
sS'drel'
p3784
S'lwg__psp:NP3'
p3785
sS'chunktype'
p3786
S'child:NP3'
p3787
sS'af'
p3788
S'\xe0\xa4\x9c\xe0\xa4\xb0\xe0\xa4\xbf\xe0\xa4\xaf\xe0\xa5\x87,psp,,,,,,'
p3789
ssbsg26
I00
sg27
I00
sg28
Nsg29
Nsg30
I2
sg31
I9
sg32
Nsg33
Nsg34
S'PSP'
p3790
sg36
g3777
sg37
I00
sba(issf_api
Word
p3791
(dp3792
g6
I00
sg7
V\u0918\u0940
p3793
sg9
(issf_api
FeatureSet
p3794
(dp3795
g12
(dp3796
S'posn'
p3797
S'120'
p3798
sS'name'
p3799
S'\xe0\xa4\x98\xe0\xa5\x80'
p3800
sS'af'
p3801
S'\xe0\xa4\x98\xe0\xa5\x80,n,m,sg,3,o,0,0'
p3802
sS'chunkid'
p3803
S'NP4'
p3804
sS'drel'
p3805
S'ccof:NULL__CCP'
p3806
sS'chunktype'
p3807
S'head:NP4'
p3808
ssbsg26
I00
sg27
I00
sg28
Nsg29
Nsg30
I3
sg31
I9
sg32
Nsg33
Nsg34
S'NN'
p3809
sg36
g3794
sg37
I00
sba(issf_api
Word
p3810
(dp3811
g6
I00
sg7
V,
p3812
sg9
(issf_api
FeatureSet
p3813
(dp3814
g12
(dp3815
S'posn'
p3816
S'130'
p3817
sS'name'
p3818
S','
p3819
sS'drel'
p3820
S'rsym:NP4'
p3821
sS'chunktype'
p3822
S'child:NP4'
p3823
sS'af'
p3824
S'COMMA,punc,,,,,,'
p3825
ssbsg26
I00
sg27
I00
sg28
Nsg29
Nsg30
I3
sg31
I9
sg32
Nsg33
Nsg34
S'SYM'
p3826
sg36
g3813
sg37
I00
sba(issf_api
Word
p3827
(dp3828
g6
I00
sg7
V\u092e\u0938\u093e\u0932\u0947
p3829
sg9
(issf_api
FeatureSet
p3830
(dp3831
g12
(dp3832
S'posn'
p3833
S'140'
p3834
sS'name'
p3835
S'\xe0\xa4\xae\xe0\xa4\xb8\xe0\xa4\xbe\xe0\xa4\xb2\xe0\xa5\x87'
p3836
sS'af'
p3837
S'\xe0\xa4\xae\xe0\xa4\xb8\xe0\xa4\xbe\xe0\xa4\xb2\xe0\xa4\xbe,n,m,pl,3,o,0,0'
p3838
sS'chunkid'
p3839
S'NP5'
p3840
sS'drel'
p3841
S'ccof:NULL__CCP'
p3842
sS'chunktype'
p3843
S'head:NP5'
p3844
ssbsg26
I00
sg27
I00
sg28
Nsg29
Nsg30
I4
sg31
I9
sg32
Nsg33
Nsg34
S'NN'
p3845
sg36
g3830
sg37
I00
sba(issf_api
Word
p3846
(dp3847
g6
I00
sg7
V,
p3848
sg9
(issf_api
FeatureSet
p3849
(dp3850
g12
(dp3851
S'posn'
p3852
S'150'
p3853
sS'name'
p3854
S',2'
p3855
sS'drel'
p3856
S'rsym:NP5'
p3857
sS'chunktype'
p3858
S'child:NP5'
p3859
sS'af'
p3860
S'COMMA,punc,,,,,,'
p3861
ssbsg26
I00
sg27
I00
sg28
Nsg29
Nsg30
I4
sg31
I9
sg32
Nsg33
Nsg34
S'SYM'
p3862
sg36
g3849
sg37
I00
sba(issf_api
Word
p3863
(dp3864
g6
I00
sg7
V\u092a\u0928\u0940\u0930
p3865
sg9
(issf_api
FeatureSet
p3866
(dp3867
g12
(dp3868
S'posn'
p3869
S'160'
p3870
sS'name'
p3871
S'\xe0\xa4\xaa\xe0\xa4\xa8\xe0\xa5\x80\xe0\xa4\xb0'
p3872
sS'af'
p3873
S'\xe0\xa4\xaa\xe0\xa4\xa8\xe0\xa5\x80\xe0\xa4\xb0,n,m,sg,3,o,0,0'
p3874
sS'chunkid'
p3875
S'NP6'
p3876
sS'drel'
p3877
S'ccof:NULL__CCP'
p3878
sS'chunktype'
p3879
S'head:NP6'
p3880
ssbsg26
I00
sg27
I00
sg28
Nsg29
Nsg30
I5
sg31
I9
sg32
Nsg33
Nsg34
S'NN'
p3881
sg36
g3866
sg37
I00
sba(issf_api
Word
p3882
(dp3883
g6
I00
sg7
V,
p3884
sg9
(issf_api
FeatureSet
p3885
(dp3886
g12
(dp3887
S'posn'
p3888
S'170'
p3889
sS'name'
p3890
S',3'
p3891
sS'drel'
p3892
S'rsym:NP6'
p3893
sS'chunktype'
p3894
S'child:NP6'
p3895
sS'af'
p3896
S'COMMA,punc,,,,,,'
p3897
ssbsg26
I00
sg27
I00
sg28
Nsg29
Nsg30
I5
sg31
I9
sg32
Nsg33
Nsg34
S'SYM'
p3898
sg36
g3885
sg37
I00
sba(issf_api
Word
p3899
(dp3900
g6
I00
sg7
V\u092e\u0915\u094d\u0916\u0928
p3901
sg9
(issf_api
FeatureSet
p3902
(dp3903
g12
(dp3904
S'posn'
p3905
S'180'
p3906
sS'name'
p3907
S'\xe0\xa4\xae\xe0\xa4\x95\xe0\xa5\x8d\xe0\xa4\x96\xe0\xa4\xa8'
p3908
sS'af'
p3909
S'\xe0\xa4\xae\xe0\xa4\x95\xe0\xa5\x8d\xe0\xa4\x96\xe0\xa4\xa8,n,m,sg,3,o,0,0'
p3910
sS'chunkid'
p3911
S'NP7'
p3912
sS'drel'
p3913
S'ccof:NULL__CCP'
p3914
sS'chunktype'
p3915
S'head:NP7'
p3916
ssbsg26
I00
sg27
I00
sg28
Nsg29
Nsg30
I6
sg31
I9
sg32
Nsg33
Nsg34
S'NN'
p3917
sg36
g3902
sg37
I00
sba(issf_api
Word
p3918
(dp3919
g6
I00
sg7
V,
p3920
sg9
(issf_api
FeatureSet
p3921
(dp3922
g12
(dp3923
S'posn'
p3924
S'190'
p3925
sS'name'
p3926
S',4'
p3927
sS'drel'
p3928
S'rsym:NP7'
p3929
sS'chunktype'
p3930
S'child:NP7'
p3931
sS'af'
p3932
S'COMMA,punc,,,,,,'
p3933
ssbsg26
I00
sg27
I00
sg28
Nsg29
Nsg30
I6
sg31
I9
sg32
Nsg33
Nsg34
S'SYM'
p3934
sg36
g3921
sg37
I00
sba(issf_api
Word
p3935
(dp3936
g6
I00
sg7
V\u091a\u0940\u0928\u0940
p3937
sg9
(issf_api
FeatureSet
p3938
(dp3939
g12
(dp3940
S'posn'
p3941
S'200'
p3942
sS'name'
p3943
S'\xe0\xa4\x9a\xe0\xa5\x80\xe0\xa4\xa8\xe0\xa5\x80'
p3944
sS'af'
p3945
S'\xe0\xa4\x9a\xe0\xa5\x80\xe0\xa4\xa8\xe0\xa5\x80,n,f,sg,3,o,0,0'
p3946
sS'chunkid'
p3947
S'NP8'
p3948
sS'drel'
p3949
S'ccof:NULL__CCP'
p3950
sS'chunktype'
p3951
S'head:NP8'
p3952
ssbsg26
I00
sg27
I00
sg28
Nsg29
Nsg30
I7
sg31
I9
sg32
Nsg33
Nsg34
S'NN'
p3953
sg36
g3938
sg37
I00
sba(issf_api
Word
p3954
(dp3955
g6
I00
sg7
V,
p3956
sg9
(issf_api
FeatureSet
p3957
(dp3958
g12
(dp3959
S'posn'
p3960
S'210'
p3961
sS'name'
p3962
S',5'
p3963
sS'drel'
p3964
S'rsym:NP8'
p3965
sS'chunktype'
p3966
S'child:NP8'
p3967
sS'af'
p3968
S'COMMA,punc,,,,,,'
p3969
ssbsg26
I00
sg27
I00
sg28
Nsg29
Nsg30
I7
sg31
I9
sg32
Nsg33
Nsg34
S'SYM'
p3970
sg36
g3957
sg37
I00
sba(issf_api
Word
p3971
(dp3972
g6
I00
sg7
V\u0936\u0939\u0926
p3973
sg9
(issf_api
FeatureSet
p3974
(dp3975
g12
(dp3976
S'posn'
p3977
S'220'
p3978
sS'name'
p3979
S'\xe0\xa4\xb6\xe0\xa4\xb9\xe0\xa4\xa6'
p3980
sS'af'
p3981
S'\xe0\xa4\xb6\xe0\xa4\xb9\xe0\xa4\xa6,n,m,sg,3,o,0_\xe0\xa4\xb8\xe0\xa4\xae\xe0\xa5\x87\xe0\xa4\xa4,0'
p3982
sS'chunkid'
p3983
S'NP9'
p3984
sS'drel'
p3985
S'ccof:NULL__CCP'
p3986
sS'vpos'
p3987
S'vib_2'
p3988
sS'chunktype'
p3989
S'head:NP9'
p3990
ssbsg26
I00
sg27
I00
sg28
Nsg29
Nsg30
I8
sg31
I9
sg32
Nsg33
Nsg34
S'NN'
p3991
sg36
g3974
sg37
I00
sba(issf_api
Word
p3992
(dp3993
g6
I00
sg7
V\u0938\u092e\u0947\u0924
p3994
sg9
(issf_api
FeatureSet
p3995
(dp3996
g12
(dp3997
S'posn'
p3998
S'230'
p3999
sS'name'
p4000
S'\xe0\xa4\xb8\xe0\xa4\xae\xe0\xa5\x87\xe0\xa4\xa4'
p4001
sS'drel'
p4002
S'lwg__psp:NP9'
p4003
sS'chunktype'
p4004
S'child:NP9'
p4005
sS'af'
p4006
S'\xe0\xa4\xb8\xe0\xa4\xae\xe0\xa5\x87\xe0\xa4\xa4,psp,,,,,,'
p4007
ssbsg26
I00
sg27
I00
sg28
Nsg29
Nsg30
I8
sg31
I9
sg32
Nsg33
Nsg34
S'PSP'
p4008
sg36
g3995
sg37
I00
sba(issf_api
Word
p4009
(dp4010
g6
I00
sg7
V\u0915\u0908
p4011
sg9
(issf_api
FeatureSet
p4012
(dp4013
g12
(dp4014
S'posn'
p4015
S'240'
p4016
sS'name'
p4017
S'\xe0\xa4\x95\xe0\xa4\x88'
p4018
sS'drel'
p4019
S'nmod__adj:NP10'
p4020
sS'chunktype'
p4021
S'child:NP10'
p4022
sS'af'
p4023
S'\xe0\xa4\x95\xe0\xa4\x88,avy,,,,,,'
p4024
ssbsg26
I00
sg27
I00
sg28
Nsg29
Nsg30
I9
sg31
I9
sg32
Nsg33
Nsg34
S'QF'
p4025
sg36
g4012
sg37
I00
sba(issf_api
Word
p4026
(dp4027
g6
I00
sg7
V\u0916\u093e\u0926\u094d\u092f
p4028
sg9
(issf_api
FeatureSet
p4029
(dp4030
g12
(dp4031
S'posn'
p4032
S'250'
p4033
sS'name'
p4034
S'\xe0\xa4\x96\xe0\xa4\xbe\xe0\xa4\xa6\xe0\xa5\x8d\xe0\xa4\xaf'
p4035
sS'af'
p4036
S'\xe0\xa4\x96\xe0\xa4\xbe\xe0\xa4\xa6\xe0\xa5\x8d\xe0\xa4\xaf,n,m,sg,3,d,0,0'
p4037
sS'acrefmod'
p4038
S'm5%0:i35'
p4039
sS'drel'
p4040
S'pof__cn:NP10'
p4041
sS'chunktype'
p4042
S'child:NP10'
p4043
sS'cref'
p4044
S'i34%0:t1'
p4045
ssbsg26
I00
sg27
I00
sg28
Nsg29
Nsg30
I9
sg31
I9
sg32
Nsg33
Nsg34
S'NNC'
p4046
sg36
g4029
sg37
I00
sba(issf_api
Word
p4047
(dp4048
g6
I00
sg7
V\u092a\u0926\u093e\u0930\u094d\u0925\u094b\u0902
p4049
sg9
(issf_api
FeatureSet
p4050
(dp4051
g12
(dp4052
S'crefhead'
p4053
S'\xe0\xa4\xaa\xe0\xa4\xa6\xe0\xa4\xbe\xe0\xa4\xb0\xe0\xa5\x8d\xe0\xa4\xa5\xe0\xa5\x8b\xe0\xa4\x82:i34'
p4054
sS'posn'
p4055
S'260'
p4056
sS'name'
p4057
S'\xe0\xa4\xaa\xe0\xa4\xa6\xe0\xa4\xbe\xe0\xa4\xb0\xe0\xa5\x8d\xe0\xa4\xa5\xe0\xa5\x8b\xe0\xa4\x82'
p4058
sS'af'
p4059
S'\xe0\xa4\xaa\xe0\xa4\xa6\xe0\xa4\xbe\xe0\xa4\xb0\xe0\xa5\x8d\xe0\xa4\xa5,n,m,pl,3,o,0_\xe0\xa4\x95\xe0\xa4\xbe,0'
p4060
sS'acrefmodhead'
p4061
S'\xe0\xa4\xaa\xe0\xa4\xa6\xe0\xa4\xbe\xe0\xa4\xb0\xe0\xa5\x8d\xe0\xa4\xa5\xe0\xa5\x8b\xe0\xa4\x82:m5'
p4062
sS'chunkid'
p4063
S'NP10'
p4064
sS'acrefmod'
p4065
S'm5%1:i35'
p4066
sS'creftype'
p4067
S'Coreference-Identity:i23'
p4068
sS'chunktype'
p4069
S'head:NP10'
p4070
sS'vpos'
p4071
S'vib_4'
p4072
sS'cref'
p4073
S'i34%1:t1'
p4074
sS'drel'
p4075
S'r6-k2:NP11'
p4076
ssbsg26
I00
sg27
I00
sg28
Nsg29
Nsg30
I9
sg31
I9
sg32
Nsg33
Nsg34
S'NN'
p4077
sg36
g4050
sg37
I00
sba(issf_api
Word
p4078
(dp4079
g6
I00
sg7
V\u0915\u0940
p4080
sg9
(issf_api
FeatureSet
p4081
(dp4082
g12
(dp4083
S'posn'
p4084
S'270'
p4085
sS'name'
p4086
S'\xe0\xa4\x95\xe0\xa5\x80'
p4087
sS'drel'
p4088
S'lwg__psp:NP10'
p4089
sS'chunktype'
p4090
S'child:NP10'
p4091
sS'af'
p4092
S'\xe0\xa4\x95\xe0\xa4\xbe,psp,f,sg,,d,,'
p4093
ssbsg26
I00
sg27
I00
sg28
Nsg29
Nsg30
I9
sg31
I9
sg32
Nsg33
Nsg34
S'PSP'
p4094
sg36
g4081
sg37
I00
sba(issf_api
Word
p4095
(dp4096
g6
I00
sg7
V\u091c\u093e\u0902\u091a
p4097
sg9
(issf_api
FeatureSet
p4098
(dp4099
g12
(dp4100
S'crefhead'
p4101
S'\xe0\xa4\x9c\xe0\xa4\xbe\xe0\xa4\x82\xe0\xa4\x9a:i35'
p4102
sS'posn'
p4103
S'280'
p4104
sS'name'
p4105
S'\xe0\xa4\x9c\xe0\xa4\xbe\xe0\xa4\x82\xe0\xa4\x9a'
p4106
sS'af'
p4107
S'\xe0\xa4\x9c\xe0\xa4\xbe\xe0\xa4\x82\xe0\xa4\x9a,n,f,sg,3,d,0,0'
p4108
sS'chunkid'
p4109
S'NP11'
p4110
sS'crefmod'
p4111
S'm5:i35'
p4112
sS'creftype'
p4113
S'Coreference-Identity:i31'
p4114
sS'chunktype'
p4115
S'head:NP11'
p4116
sS'cref'
p4117
S'i35%1:t5'
p4118
sS'drel'
p4119
S'pof:VGNN'
p4120
ssbsg26
I00
sg27
I00
sg28
Nsg29
Nsg30
I10
sg31
I9
sg32
Nsg33
Nsg34
S'NN'
p4121
sg36
g4098
sg37
I00
sba(issf_api
Word
p4122
(dp4123
g6
I00
sg7
V\u0915\u0930\u0928\u0947
p4124
sg9
(issf_api
FeatureSet
p4125
(dp4126
g12
(dp4127
S'posn'
p4128
S'290'
p4129
sS'name'
p4130
S'\xe0\xa4\x95\xe0\xa4\xb0\xe0\xa4\xa8\xe0\xa5\x87'
p4131
sS'af'
p4132
S'\xe0\xa4\x95\xe0\xa4\xb0,v,any,any,any,o,\xe0\xa4\xa8\xe0\xa4\xbe_\xe0\xa4\xae\xe0\xa5\x87\xe0\xa4\x82,nA'
p4133
sS'chunkid'
p4134
S'VGNN'
p4135
sS'drel'
p4136
S'k7:VGF'
p4137
sS'vpos'
p4138
S'tam_2'
p4139
sS'chunktype'
p4140
S'head:VGNN'
p4141
ssbsg26
I00
sg27
I00
sg28
Nsg29
Nsg30
I11
sg31
I9
sg32
Nsg33
Nsg34
S'VM'
p4142
sg36
g4125
sg37
I00
sba(issf_api
Word
p4143
(dp4144
g6
I00
sg7
V\u092e\u0947\u0902
p4145
sg9
(issf_api
FeatureSet
p4146
(dp4147
g12
(dp4148
S'posn'
p4149
S'300'
p4150
sS'name'
p4151
S'\xe0\xa4\xae\xe0\xa5\x87\xe0\xa4\x82'
p4152
sS'drel'
p4153
S'lwg__psp:VGNN'
p4154
sS'chunktype'
p4155
S'child:VGNN'
p4156
sS'af'
p4157
S'\xe0\xa4\xae\xe0\xa5\x87\xe0\xa4\x82,psp,,,,,,'
p4158
ssbsg26
I00
sg27
I00
sg28
Nsg29
Nsg30
I11
sg31
I9
sg32
Nsg33
Nsg34
S'PSP'
p4159
sg36
g4146
sg37
I00
sba(issf_api
Word
p4160
(dp4161
g6
I00
sg7
V\u0906\u0938\u093e\u0928\u0940
p4162
sg9
(issf_api
FeatureSet
p4163
(dp4164
g12
(dp4165
S'posn'
p4166
S'310'
p4167
sS'name'
p4168
S'\xe0\xa4\x86\xe0\xa4\xb8\xe0\xa4\xbe\xe0\xa4\xa8\xe0\xa5\x80'
p4169
sS'af'
p4170
S'\xe0\xa4\x86\xe0\xa4\xb8\xe0\xa4\xbe\xe0\xa4\xa8\xe0\xa5\x80,n,f,sg,3,d,0,0'
p4171
sS'chunkid'
p4172
S'NP12'
p4173
sS'drel'
p4174
S'adv:VGF'
p4175
sS'chunktype'
p4176
S'head:NP12'
p4177
ssbsg26
I00
sg27
I00
sg28
Nsg29
Nsg30
I12
sg31
I9
sg32
Nsg33
Nsg34
S'NN'
p4178
sg36
g4163
sg37
I00
sba(issf_api
Word
p4179
(dp4180
g6
I00
sg7
V\u0939\u094b\u0917\u0940
p4181
sg9
(issf_api
FeatureSet
p4182
(dp4183
g12
(dp4184
S'posn'
p4185
S'320'
p4186
sS'name'
p4187
S'\xe0\xa4\xb9\xe0\xa5\x8b\xe0\xa4\x97\xe0\xa5\x80'
p4188
sS'af'
p4189
S'\xe0\xa4\xb9\xe0\xa5\x8b,v,f,sg,3,,\xe0\xa4\x97\xe0\xa4\xbe,gA'
p4190
sS'chunkid'
p4191
S'VGF'
p4192
sS'chunktype'
p4193
S'head:VGF'
p4194
sS'voicetype'
p4195
S'active'
p4196
sS'stype'
p4197
S'declarative'
p4198
ssbsg26
I00
sg27
I00
sg28
Nsg29
Nsg30
I13
sg31
I9
sg32
Nsg33
Nsg34
S'VM'
p4199
sg36
g4182
sg37
I00
sba(issf_api
Word
p4200
(dp4201
g6
I00
sg7
V\u0964
p4202
sg9
(issf_api
FeatureSet
p4203
(dp4204
g12
(dp4205
S'posn'
p4206
S'330'
p4207
sS'name'
p4208
S'\xe0\xa5\xa4'
p4209
sS'af'
p4210
S'\xe0\xa5\xa4,punc,,,,,,'
p4211
sS'chunkid'
p4212
S'BLK'
p4213
sS'drel'
p4214
S'rsym:VGF'
p4215
sS'chunktype'
p4216
S'head:BLK'
p4217
ssbsg26
I00
sg27
I00
sg28
Nsg29
Nsg30
I14
sg31
I9
sg32
Nsg33
Nsg34
S'SYM'
p4218
sg36
g4203
sg37
I00
sbasS'sentenceList'
p4219
(lp4220
(issf_api
Sentence
p4221
(dp4222
S'rootNode'
p4223
(lp4224
sg31
I0
sS'wordNumList'
p4225
(lp4226
I0
aI1
aI2
aI3
aI4
aI5
aI6
aI7
aI8
aI9
aI10
aI11
aI12
aI13
aI14
aI15
aI16
aI17
aI18
aI19
aI20
aI21
aI22
aI23
aI24
aI25
aI26
aI27
aI28
aI29
aI30
aI31
aI32
asS'nodeDict'
p4227
(dp4228
S'VGNN'
p4229
(issf_api
Node
p4230
(dp4231
S'nodeRelation'
p4232
S'rt'
p4233
sS'nodeName'
p4234
g4229
sS'nodeParent'
p4235
S'VGF'
p4236
sS'nodeLevel'
p4237
I-1
sg30
I2
sS'childList'
p4238
(lp4239
S'NP'
p4240
aS'NP2'
p4241
asbsS'VGF'
p4242
(issf_api
Node
p4243
(dp4244
g4232
S'None'
p4245
sg4234
g4242
sg4235
g4245
sg4237
I-1
sg30
I11
sg4238
(lp4246
g4229
aS'RBP'
p4247
aS'BLK'
p4248
aS'NP4'
p4249
aS'NP7'
p4250
asbsS'CCP'
p4251
(issf_api
Node
p4252
(dp4253
g4232
S'nmod'
p4254
sg4234
g4251
sg4235
S'NP4'
p4255
sg4237
I-1
sg30
I4
sg4238
(lp4256
S'NP3'
p4257
asbsg4247
(issf_api
Node
p4258
(dp4259
g4232
S'adv'
p4260
sg4234
g4247
sg4235
S'VGF'
p4261
sg4237
I-1
sg30
I6
sg4238
(lp4262
sbsS'VGNN2'
p4263
(issf_api
Node
p4264
(dp4265
g4232
S'r6-k2'
p4266
sg4234
g4263
sg4235
S'NP7'
p4267
sg4237
I-1
sg30
I9
sg4238
(lp4268
S'NP5'
p4269
aS'NP6'
p4270
asbsg4269
(issf_api
Node
p4271
(dp4272
g4232
S'k2'
p4273
sg4234
g4269
sg4235
S'VGNN2'
p4274
sg4237
I-1
sg30
I7
sg4238
(lp4275
sbsg4248
(issf_api
Node
p4276
(dp4277
g4232
S'rsym'
p4278
sg4234
g4248
sg4235
S'VGF'
p4279
sg4237
I-1
sg30
I12
sg4238
(lp4280
sbsg4240
(issf_api
Node
p4281
(dp4282
g4232
S'k7'
p4283
sg4234
g4240
sg4235
S'VGNN'
p4284
sg4237
I-1
sg30
I0
sg4238
(lp4285
sbsg4249
(issf_api
Node
p4286
(dp4287
g4232
S'k1'
p4288
sg4234
g4249
sg4235
S'VGF'
p4289
sg4237
I-1
sg30
I5
sg4238
(lp4290
g4251
asbsg4250
(issf_api
Node
p4291
(dp4292
g4232
S'pof'
p4293
sg4234
g4250
sg4235
S'VGF'
p4294
sg4237
I-1
sg30
I10
sg4238
(lp4295
g4263
asbsg4270
(issf_api
Node
p4296
(dp4297
g4232
S'rt'
p4298
sg4234
g4270
sg4235
S'VGNN2'
p4299
sg4237
I-1
sg30
I8
sg4238
(lp4300
sbsg4257
(issf_api
Node
p4301
(dp4302
g4232
S'ccof'
p4303
sg4234
g4257
sg4235
S'CCP'
p4304
sg4237
I-1
sg30
I3
sg4238
(lp4305
sbsg4241
(issf_api
Node
p4306
(dp4307
g4232
S'k2'
p4308
sg4234
g4241
sg4235
S'VGNN'
p4309
sg4237
I-1
sg30
I1
sg4238
(lp4310
sbssS'chunkList'
p4311
(lp4312
(issf_api
Chunk
p4313
(dp4314
g4234
g53
sg30
I0
sS'chunkTag'
p4315
g64
sg31
I0
sg4225
(lp4316
I0
aI1
aI2
asg36
(issf_api
FeatureSet
p4317
(dp4318
g12
(dp4319
S'name'
p4320
g4240
sS'drel'
p4321
S'k7:VGNN'
p4322
ssbsba(issf_api
Chunk
p4323
(dp4324
g4234
g99
sg30
I1
sg4315
g110
sg31
I0
sg4225
(lp4325
I3
aI4
asg36
(issf_api
FeatureSet
p4326
(dp4327
g12
(dp4328
S'name'
p4329
g4241
sS'drel'
p4330
S'k2:VGNN'
p4331
ssbsba(issf_api
Chunk
p4332
(dp4333
g4234
g141
sg30
I2
sg4315
g148
sg31
I0
sg4225
(lp4334
I5
aI6
aI7
asg36
(issf_api
FeatureSet
p4335
(dp4336
g12
(dp4337
S'name'
p4338
g4229
sS'drel'
p4339
S'rt:VGF'
p4340
ssbsba(issf_api
Chunk
p4341
(dp4342
g4234
g236
sg30
I3
sg4315
g245
sg31
I0
sg4225
(lp4343
I8
aI9
aI10
asg36
(issf_api
FeatureSet
p4344
(dp4345
g12
(dp4346
S'name'
p4347
g4257
sS'drel'
p4348
S'ccof:CCP'
p4349
ssbsba(issf_api
Chunk
p4350
(dp4351
g4234
g259
sg30
I4
sg4315
g264
sg31
I0
sg4225
(lp4352
I11
asg36
(issf_api
FeatureSet
p4353
(dp4354
g12
(dp4355
S'name'
p4356
g4251
sS'drel'
p4357
S'nmod:NP4'
p4358
ssbsba(issf_api
Chunk
p4359
(dp4360
g4234
g280
sg30
I5
sg4315
g289
sg31
I0
sg4225
(lp4361
I12
asg36
(issf_api
FeatureSet
p4362
(dp4363
g12
(dp4364
S'name'
p4365
g4249
sS'drel'
p4366
S'k1:VGF'
p4367
ssbsba(issf_api
Chunk
p4368
(dp4369
g4234
g303
sg30
I6
sg4315
g308
sg31
I0
sg4225
(lp4370
I13
aI14
asg36
(issf_api
FeatureSet
p4371
(dp4372
g12
(dp4373
S'name'
p4374
g4247
sS'drel'
p4375
S'adv:VGF'
p4376
ssbsba(issf_api
Chunk
p4377
(dp4378
g4234
g413
sg30
I7
sg4315
g424
sg31
I0
sg4225
(lp4379
I15
aI16
aI17
aI18
aI19
aI20
aI21
asg36
(issf_api
FeatureSet
p4380
(dp4381
g12
(dp4382
S'name'
p4383
g4269
sS'drel'
p4384
S'k2:VGNN2'
p4385
ssbsba(issf_api
Chunk
p4386
(dp4387
g4234
g488
sg30
I8
sg4315
g495
sg31
I0
sg4225
(lp4388
I22
aI23
aI24
aI25
asg36
(issf_api
FeatureSet
p4389
(dp4390
g12
(dp4391
S'name'
p4392
g4270
sS'drel'
p4393
S'rt:VGNN2'
p4394
ssbsba(issf_api
Chunk
p4395
(dp4396
g4234
g543
sg30
I9
sg4315
g550
sg31
I0
sg4225
(lp4397
I26
aI27
asg36
(issf_api
FeatureSet
p4398
(dp4399
g12
(dp4400
S'name'
p4401
g4263
sS'drel'
p4402
S'r6-k2:NP7'
p4403
ssbsba(issf_api
Chunk
p4404
(dp4405
g4234
g581
sg30
I10
sg4315
g586
sg31
I0
sg4225
(lp4406
I28
asg36
(issf_api
FeatureSet
p4407
(dp4408
g12
(dp4409
S'name'
p4410
g4250
sS'drel'
p4411
S'pof:VGF'
p4412
ssbsba(issf_api
Chunk
p4413
(dp4414
g4234
g600
sg30
I11
sg4315
g609
sg31
I0
sg4225
(lp4415
I29
aI30
aI31
asg36
(issf_api
FeatureSet
p4416
(dp4417
g12
(dp4418
S'name'
p4419
g4242
ssbsba(issf_api
Chunk
p4420
(dp4421
g4234
g657
sg30
I12
sg4315
g662
sg31
I0
sg4225
(lp4422
I32
asg36
(issf_api
FeatureSet
p4423
(dp4424
g12
(dp4425
S'name'
p4426
g4248
sS'drel'
p4427
S'rsym:VGF'
p4428
ssbsbasba(issf_api
Sentence
p4429
(dp4430
g4223
(lp4431
sg31
I1
sg4225
(lp4432
I33
aI34
aI35
aI36
aI37
aI38
aI39
aI40
aI41
aI42
aI43
aI44
aI45
aI46
aI47
aI48
aI49
aI50
aI51
aI52
aI53
aI54
aI55
asg4227
(dp4433
S'VGNN'
p4434
(issf_api
Node
p4435
(dp4436
g4232
S'r6'
p4437
sg4234
g4434
sg4235
S'NP6'
p4438
sg4237
I-1
sg30
I5
sg4238
(lp4439
S'NP5'
p4440
asbsS'VGF'
p4441
(issf_api
Node
p4442
(dp4443
g4232
g4245
sg4234
g4441
sg4235
g4245
sg4237
I-1
sg30
I9
sg4238
(lp4444
S'NP8'
p4445
aS'BLK'
p4446
aS'NP'
p4447
aS'NP4'
p4448
aS'NP7'
p4449
aS'NP6'
p4450
asbsg4440
(issf_api
Node
p4451
(dp4452
g4232
S'pof'
p4453
sg4234
g4440
sg4235
S'VGNN'
p4454
sg4237
I-1
sg30
I4
sg4238
(lp4455
sbsg4445
(issf_api
Node
p4456
(dp4457
g4232
S'pof'
p4458
sg4234
g4445
sg4235
S'VGF'
p4459
sg4237
I-1
sg30
I8
sg4238
(lp4460
sbsg4446
(issf_api
Node
p4461
(dp4462
g4232
S'rsym'
p4463
sg4234
g4446
sg4235
S'VGF'
p4464
sg4237
I-1
sg30
I10
sg4238
(lp4465
sbsg4447
(issf_api
Node
p4466
(dp4467
g4232
S'k3'
p4468
sg4234
g4447
sg4235
S'VGF'
p4469
sg4237
I-1
sg30
I0
sg4238
(lp4470
sbsg4448
(issf_api
Node
p4471
(dp4472
g4232
S'k7'
p4473
sg4234
g4448
sg4235
S'VGF'
p4474
sg4237
I-1
sg30
I3
sg4238
(lp4475
S'NP3'
p4476
asbsg4449
(issf_api
Node
p4477
(dp4478
g4232
S'adv'
p4479
sg4234
g4449
sg4235
S'VGF'
p4480
sg4237
I-1
sg30
I7
sg4238
(lp4481
sbsg4450
(issf_api
Node
p4482
(dp4483
g4232
S'k7'
p4484
sg4234
g4450
sg4235
S'VGF'
p4485
sg4237
I-1
sg30
I6
sg4238
(lp4486
g4434
asbsg4476
(issf_api
Node
p4487
(dp4488
g4232
S'r6'
p4489
sg4234
g4476
sg4235
S'NP4'
p4490
sg4237
I-1
sg30
I2
sg4238
(lp4491
S'NP2'
p4492
asbsg4492
(issf_api
Node
p4493
(dp4494
g4232
S'r6'
p4495
sg4234
g4492
sg4235
S'NP3'
p4496
sg4237
I-1
sg30
I1
sg4238
(lp4497
sbssg4311
(lp4498
(issf_api
Chunk
p4499
(dp4500
g4234
g697
sg30
I0
sg4315
g708
sg31
I1
sg4225
(lp4501
I33
aI34
aI35
aI36
asg36
(issf_api
FeatureSet
p4502
(dp4503
g12
(dp4504
S'name'
p4505
g4447
sS'drel'
p4506
S'k3:VGF'
p4507
ssbsba(issf_api
Chunk
p4508
(dp4509
g4234
g756
sg30
I1
sg4315
g763
sg31
I1
sg4225
(lp4510
I37
aI38
asg36
(issf_api
FeatureSet
p4511
(dp4512
g12
(dp4513
S'name'
p4514
g4492
sS'drel'
p4515
S'r6:NP3'
p4516
ssbsba(issf_api
Chunk
p4517
(dp4518
g4234
g794
sg30
I2
sg4315
g801
sg31
I1
sg4225
(lp4519
I39
aI40
asg36
(issf_api
FeatureSet
p4520
(dp4521
g12
(dp4522
S'name'
p4523
g4476
sS'drel'
p4524
S'r6:NP4'
p4525
ssbsba(issf_api
Chunk
p4526
(dp4527
g4234
g853
sg30
I3
sg4315
g864
sg31
I1
sg4225
(lp4528
I41
aI42
aI43
asg36
(issf_api
FeatureSet
p4529
(dp4530
g12
(dp4531
S'name'
p4532
g4448
sS'drel'
p4533
S'k7:VGF'
p4534
ssbsba(issf_api
Chunk
p4535
(dp4536
g4234
g899
sg30
I4
sg4315
g908
sg31
I1
sg4225
(lp4537
I44
asg36
(issf_api
FeatureSet
p4538
(dp4539
g12
(dp4540
S'name'
p4541
g4440
sS'drel'
p4542
S'pof:VGNN'
p4543
ssbsba(issf_api
Chunk
p4544
(dp4545
g4234
g922
sg30
I5
sg4315
g929
sg31
I1
sg4225
(lp4546
I45
aI46
asg36
(issf_api
FeatureSet
p4547
(dp4548
g12
(dp4549
S'name'
p4550
g4434
sS'drel'
p4551
S'r6:NP6'
p4552
ssbsba(issf_api
Chunk
p4553
(dp4554
g4234
g960
sg30
I6
sg4315
g967
sg31
I1
sg4225
(lp4555
I47
aI48
asg36
(issf_api
FeatureSet
p4556
(dp4557
g12
(dp4558
S'name'
p4559
g4450
sS'drel'
p4560
S'k7:VGF'
p4561
ssbsba(issf_api
Chunk
p4562
(dp4563
g4234
g998
sg30
I7
sg4315
g1005
sg31
I1
sg4225
(lp4564
I49
aI50
asg36
(issf_api
FeatureSet
p4565
(dp4566
g12
(dp4567
S'name'
p4568
g4449
sS'drel'
p4569
S'adv:VGF'
p4570
ssbsba(issf_api
Chunk
p4571
(dp4572
g4234
g1038
sg30
I8
sg4315
g1045
sg31
I1
sg4225
(lp4573
I51
asg36
(issf_api
FeatureSet
p4574
(dp4575
g12
(dp4576
S'name'
p4577
g4445
sS'drel'
p4578
S'pof:VGF'
p4579
ssbsba(issf_api
Chunk
p4580
(dp4581
g4234
g1059
sg30
I9
sg4315
g1068
sg31
I1
sg4225
(lp4582
I52
aI53
aI54
asg36
(issf_api
FeatureSet
p4583
(dp4584
g12
(dp4585
S'name'
p4586
g4441
ssbsba(issf_api
Chunk
p4587
(dp4588
g4234
g1116
sg30
I10
sg4315
g1121
sg31
I1
sg4225
(lp4589
I55
asg36
(issf_api
FeatureSet
p4590
(dp4591
g12
(dp4592
S'name'
p4593
g4446
sS'drel'
p4594
S'rsym:VGF'
p4595
ssbsbasba(issf_api
Sentence
p4596
(dp4597
g4223
(lp4598
sg31
I2
sg4225
(lp4599
I56
aI57
aI58
aI59
aI60
aI61
aI62
aI63
aI64
aI65
aI66
aI67
aI68
aI69
aI70
aI71
asg4227
(dp4600
S'VGF'
p4601
(issf_api
Node
p4602
(dp4603
g4232
g4245
sg4234
g4601
sg4235
g4245
sg4237
I-1
sg30
I6
sg4238
(lp4604
S'RBP'
p4605
aS'NP5'
p4606
aS'BLK'
p4607
aS'NP'
p4608
aS'NP3'
p4609
aS'NP2'
p4610
asbsg4605
(issf_api
Node
p4611
(dp4612
g4232
S'sent-adv'
p4613
sg4234
g4605
sg4235
S'VGF'
p4614
sg4237
I-1
sg30
I0
sg4238
(lp4615
sbsg4606
(issf_api
Node
p4616
(dp4617
g4232
S'k2'
p4618
sg4234
g4606
sg4235
S'VGF'
p4619
sg4237
I-1
sg30
I5
sg4238
(lp4620
S'NP4'
p4621
asbsg4607
(issf_api
Node
p4622
(dp4623
g4232
S'rsym'
p4624
sg4234
g4607
sg4235
S'VGF'
p4625
sg4237
I-1
sg30
I7
sg4238
(lp4626
sbsg4608
(issf_api
Node
p4627
(dp4628
g4232
S'k4'
p4629
sg4234
g4608
sg4235
S'VGF'
p4630
sg4237
I-1
sg30
I1
sg4238
(lp4631
sbsg4621
(issf_api
Node
p4632
(dp4633
g4232
S'r6'
p4634
sg4234
g4621
sg4235
S'NP5'
p4635
sg4237
I-1
sg30
I4
sg4238
(lp4636
sbsg4609
(issf_api
Node
p4637
(dp4638
g4232
S'k7'
p4639
sg4234
g4609
sg4235
S'VGF'
p4640
sg4237
I-1
sg30
I3
sg4238
(lp4641
sbsg4610
(issf_api
Node
p4642
(dp4643
g4232
S'vmod'
p4644
sg4234
g4610
sg4235
S'VGF'
p4645
sg4237
I-1
sg30
I2
sg4238
(lp4646
sbssg4311
(lp4647
(issf_api
Chunk
p4648
(dp4649
g4234
g1135
sg30
I0
sg4315
g1140
sg31
I2
sg4225
(lp4650
I56
asg36
(issf_api
FeatureSet
p4651
(dp4652
g12
(dp4653
S'name'
p4654
g4605
sS'drel'
p4655
S'sent-adv:VGF'
p4656
ssbsba(issf_api
Chunk
p4657
(dp4658
g4234
g1194
sg30
I1
sg4315
g1205
sg31
I2
sg4225
(lp4659
I57
aI58
aI59
aI60
asg36
(issf_api
FeatureSet
p4660
(dp4661
g12
(dp4662
S'name'
p4663
g4608
sS'drel'
p4664
S'k4:VGF'
p4665
ssbsba(issf_api
Chunk
p4666
(dp4667
g4234
g1236
sg30
I2
sg4315
g1241
sg31
I2
sg4225
(lp4668
I61
aI62
asg36
(issf_api
FeatureSet
p4669
(dp4670
g12
(dp4671
S'name'
p4672
g4610
sS'drel'
p4673
S'vmod:VGF'
p4674
ssbsba(issf_api
Chunk
p4675
(dp4676
g4234
g1293
sg30
I3
sg4315
g1304
sg31
I2
sg4225
(lp4677
I63
aI64
aI65
asg36
(issf_api
FeatureSet
p4678
(dp4679
g12
(dp4680
S'name'
p4681
g4609
sS'drel'
p4682
S'k7:VGF'
p4683
ssbsba(issf_api
Chunk
p4684
(dp4685
g4234
g1339
sg30
I4
sg4315
g1350
sg31
I2
sg4225
(lp4686
I66
aI67
asg36
(issf_api
FeatureSet
p4687
(dp4688
g12
(dp4689
S'name'
p4690
g4621
sS'drel'
p4691
S'r6:NP5'
p4692
ssbsba(issf_api
Chunk
p4693
(dp4694
g4234
g1381
sg30
I5
sg4315
g1386
sg31
I2
sg4225
(lp4695
I68
asg36
(issf_api
FeatureSet
p4696
(dp4697
g12
(dp4698
S'name'
p4699
g4606
sS'drel'
p4700
S'k2:VGF'
p4701
ssbsba(issf_api
Chunk
p4702
(dp4703
g4234
g1400
sg30
I6
sg4315
g1409
sg31
I2
sg4225
(lp4704
I69
aI70
asg36
(issf_api
FeatureSet
p4705
(dp4706
g12
(dp4707
S'name'
p4708
g4601
ssbsba(issf_api
Chunk
p4709
(dp4710
g4234
g1440
sg30
I7
sg4315
g1445
sg31
I2
sg4225
(lp4711
I71
asg36
(issf_api
FeatureSet
p4712
(dp4713
g12
(dp4714
S'name'
p4715
g4607
sS'drel'
p4716
S'rsym:VGF'
p4717
ssbsbasba(issf_api
Sentence
p4718
(dp4719
g4223
(lp4720
sg31
I3
sg4225
(lp4721
I72
aI73
aI74
aI75
aI76
aI77
aI78
aI79
aI80
aI81
aI82
aI83
aI84
aI85
aI86
aI87
aI88
aI89
aI90
aI91
asg4227
(dp4722
S'VGF2'
p4723
(issf_api
Node
p4724
(dp4725
g4232
S'nmod__relc'
p4726
sg4234
g4723
sg4235
S'NP3'
p4727
sg4237
I-1
sg30
I10
sg4238
(lp4728
S'NP5'
p4729
aS'NP4'
p4730
aS'NP7'
p4731
asbsS'VGF'
p4732
(issf_api
Node
p4733
(dp4734
g4232
S'ccof'
p4735
sg4234
g4732
sg4235
S'CCP'
p4736
sg4237
I-1
sg30
I5
sg4238
(lp4737
S'JJP'
p4738
aS'NP'
p4739
aS'NP3'
p4740
asbsS'CCP'
p4741
(issf_api
Node
p4742
(dp4743
g4232
g4245
sg4234
g4741
sg4235
g4245
sg4237
I-1
sg30
I0
sg4238
(lp4744
g4732
aS'BLK'
p4745
asbsg4738
(issf_api
Node
p4746
(dp4747
g4232
S'k1s'
p4748
sg4234
g4738
sg4235
S'VGF'
p4749
sg4237
I-1
sg30
I4
sg4238
(lp4750
sbsg4729
(issf_api
Node
p4751
(dp4752
g4232
S'k7'
p4753
sg4234
g4729
sg4235
S'VGF2'
p4754
sg4237
I-1
sg30
I7
sg4238
(lp4755
sbsg4745
(issf_api
Node
p4756
(dp4757
g4232
S'rsym'
p4758
sg4234
g4745
sg4235
S'CCP'
p4759
sg4237
I-1
sg30
I11
sg4238
(lp4760
sbsg4739
(issf_api
Node
p4761
(dp4762
g4232
S'k7'
p4763
sg4234
g4739
sg4235
S'VGF'
p4764
sg4237
I-1
sg30
I1
sg4238
(lp4765
sbsg4730
(issf_api
Node
p4766
(dp4767
g4232
S'k7p'
p4768
sg4234
g4730
sg4235
S'VGF2'
p4769
sg4237
I-1
sg30
I6
sg4238
(lp4770
sbsg4731
(issf_api
Node
p4771
(dp4772
g4232
S'pof'
p4773
sg4234
g4731
sg4235
S'VGF2'
p4774
sg4237
I-1
sg30
I9
sg4238
(lp4775
S'NP6'
p4776
asbsg4776
(issf_api
Node
p4777
(dp4778
g4232
S'r6-k2'
p4779
sg4234
g4776
sg4235
S'NP7'
p4780
sg4237
I-1
sg30
I8
sg4238
(lp4781
sbsg4740
(issf_api
Node
p4782
(dp4783
g4232
S'k1'
p4784
sg4234
g4740
sg4235
S'VGF'
p4785
sg4237
I-1
sg30
I3
sg4238
(lp4786
g4723
aS'NP2'
p4787
asbsg4787
(issf_api
Node
p4788
(dp4789
g4232
S'r6'
p4790
sg4234
g4787
sg4235
S'NP3'
p4791
sg4237
I-1
sg30
I2
sg4238
(lp4792
sbssg4311
(lp4793
(issf_api
Chunk
p4794
(dp4795
g4234
g1455
sg30
I0
sg4315
g1462
sg31
I3
sg4225
(lp4796
I72
asg36
(issf_api
FeatureSet
p4797
(dp4798
g12
(dp4799
S'name'
p4800
g4741
ssbsba(issf_api
Chunk
p4801
(dp4802
g4234
g1476
sg30
I1
sg4315
g1483
sg31
I3
sg4225
(lp4803
I73
aI74
aI75
asg36
(issf_api
FeatureSet
p4804
(dp4805
g12
(dp4806
S'name'
p4807
g4739
sS'drel'
p4808
S'k7:VGF'
p4809
ssbsba(issf_api
Chunk
p4810
(dp4811
g4234
g1535
sg30
I2
sg4315
g1548
sg31
I3
sg4225
(lp4812
I76
aI77
asg36
(issf_api
FeatureSet
p4813
(dp4814
g12
(dp4815
S'name'
p4816
g4787
sS'drel'
p4817
S'r6:NP3'
p4818
ssbsba(issf_api
Chunk
p4819
(dp4820
g4234
g1581
sg30
I3
sg4315
g1592
sg31
I3
sg4225
(lp4821
I78
asg36
(issf_api
FeatureSet
p4822
(dp4823
g12
(dp4824
S'name'
p4825
g4740
sS'drel'
p4826
S'k1:VGF'
p4827
ssbsba(issf_api
Chunk
p4828
(dp4829
g4234
g1606
sg30
I4
sg4315
g1611
sg31
I3
sg4225
(lp4830
I79
asg36
(issf_api
FeatureSet
p4831
(dp4832
g12
(dp4833
S'name'
p4834
g4738
sS'drel'
p4835
S'k1s:VGF'
p4836
ssbsba(issf_api
Chunk
p4837
(dp4838
g4234
g1625
sg30
I5
sg4315
g1634
sg31
I3
sg4225
(lp4839
I80
asg36
(issf_api
FeatureSet
p4840
(dp4841
g12
(dp4842
S'name'
p4843
g4732
sS'drel'
p4844
S'ccof:CCP'
p4845
ssbsba(issf_api
Chunk
p4846
(dp4847
g4234
g1652
sg30
I6
sg4315
g1661
sg31
I3
sg4225
(lp4848
I81
asg36
(issf_api
FeatureSet
p4849
(dp4850
g12
(dp4851
S'name'
p4852
g4730
sS'drel'
p4853
S'k7p:VGF2'
p4854
ssbsba(issf_api
Chunk
p4855
(dp4856
g4234
g1698
sg30
I7
sg4315
g1711
sg31
I3
sg4225
(lp4857
I82
aI83
aI84
asg36
(issf_api
FeatureSet
p4858
(dp4859
g12
(dp4860
S'name'
p4861
g4729
sS'drel'
p4862
S'k7:VGF2'
p4863
ssbsba(issf_api
Chunk
p4864
(dp4865
g4234
g1750
sg30
I8
sg4315
g1763
sg31
I3
sg4225
(lp4866
I85
aI86
asg36
(issf_api
FeatureSet
p4867
(dp4868
g12
(dp4869
S'name'
p4870
g4776
sS'drel'
p4871
S'r6-k2:NP7'
p4872
ssbsba(issf_api
Chunk
p4873
(dp4874
g4234
g1796
sg30
I9
sg4315
g1809
sg31
I3
sg4225
(lp4875
I87
asg36
(issf_api
FeatureSet
p4876
(dp4877
g12
(dp4878
S'name'
p4879
g4731
sS'drel'
p4880
S'pof:VGF2'
p4881
ssbsba(issf_api
Chunk
p4882
(dp4883
g4234
g1823
sg30
I10
sg4315
g1834
sg31
I3
sg4225
(lp4884
I88
aI89
aI90
asg36
(issf_api
FeatureSet
p4885
(dp4886
g12
(dp4887
S'name'
p4888
g4723
sS'drel'
p4889
S'nmod__relc:NP3'
p4890
ssbsba(issf_api
Chunk
p4891
(dp4892
g4234
g1882
sg30
I11
sg4315
g1887
sg31
I3
sg4225
(lp4893
I91
asg36
(issf_api
FeatureSet
p4894
(dp4895
g12
(dp4896
S'name'
p4897
g4745
sS'drel'
p4898
S'rsym:CCP'
p4899
ssbsbasba(issf_api
Sentence
p4900
(dp4901
g4223
(lp4902
sg31
I4
sg4225
(lp4903
I92
aI93
aI94
aI95
aI96
aI97
aI98
aI99
aI100
aI101
aI102
aI103
aI104
aI105
aI106
aI107
aI108
aI109
aI110
aI111
aI112
aI113
aI114
aI115
aI116
asg4227
(dp4904
S'VGNN3'
p4905
(issf_api
Node
p4906
(dp4907
g4232
S'k7'
p4908
sg4234
g4905
sg4235
S'VGF'
p4909
sg4237
I-1
sg30
I9
sg4238
(lp4910
S'NP5'
p4911
asbsS'VGNN'
p4912
(issf_api
Node
p4913
(dp4914
g4232
S'rh'
p4915
sg4234
g4912
sg4235
S'VGF'
p4916
sg4237
I-1
sg30
I3
sg4238
(lp4917
S'NP2'
p4918
asbsS'VGF'
p4919
(issf_api
Node
p4920
(dp4921
g4232
S'ccof'
p4922
sg4234
g4919
sg4235
S'CCP'
p4923
sg4237
I-1
sg30
I11
sg4238
(lp4924
g4905
ag4912
aS'RBP'
p4925
aS'VGNN2'
p4926
aS'NP6'
p4927
aS'NP3'
p4928
asbsS'CCP'
p4929
(issf_api
Node
p4930
(dp4931
g4232
g4245
sg4234
g4929
sg4235
g4245
sg4237
I-1
sg30
I0
sg4238
(lp4932
g4919
aS'BLK'
p4933
asbsg4925
(issf_api
Node
p4934
(dp4935
g4232
S'adv'
p4936
sg4234
g4925
sg4235
S'VGF'
p4937
sg4237
I-1
sg30
I4
sg4238
(lp4938
sbsg4926
(issf_api
Node
p4939
(dp4940
g4232
S'vmod'
p4941
sg4234
g4926
sg4235
S'VGF'
p4942
sg4237
I-1
sg30
I7
sg4238
(lp4943
S'NP4'
p4944
asbsg4911
(issf_api
Node
p4945
(dp4946
g4232
S'pof'
p4947
sg4234
g4911
sg4235
S'VGNN3'
p4948
sg4237
I-1
sg30
I8
sg4238
(lp4949
sbsg4933
(issf_api
Node
p4950
(dp4951
g4232
S'rsym'
p4952
sg4234
g4933
sg4235
S'CCP'
p4953
sg4237
I-1
sg30
I12
sg4238
(lp4954
sbsS'NP'
p4955
(issf_api
Node
p4956
(dp4957
g4232
S'r6'
p4958
sg4234
g4955
sg4235
S'NP2'
p4959
sg4237
I-1
sg30
I1
sg4238
(lp4960
sbsg4944
(issf_api
Node
p4961
(dp4962
g4232
S'pof'
p4963
sg4234
g4944
sg4235
S'VGNN2'
p4964
sg4237
I-1
sg30
I6
sg4238
(lp4965
sbsg4927
(issf_api
Node
p4966
(dp4967
g4232
S'pof'
p4968
sg4234
g4927
sg4235
S'VGF'
p4969
sg4237
I-1
sg30
I10
sg4238
(lp4970
sbsg4928
(issf_api
Node
p4971
(dp4972
g4232
S'k4a'
p4973
sg4234
g4928
sg4235
S'VGF'
p4974
sg4237
I-1
sg30
I5
sg4238
(lp4975
sbsg4918
(issf_api
Node
p4976
(dp4977
g4232
S'k2'
p4978
sg4234
g4918
sg4235
S'VGNN'
p4979
sg4237
I-1
sg30
I2
sg4238
(lp4980
g4955
asbssg4311
(lp4981
(issf_api
Chunk
p4982
(dp4983
g4234
g1897
sg30
I0
sg4315
g1904
sg31
I4
sg4225
(lp4984
I92
asg36
(issf_api
FeatureSet
p4985
(dp4986
g12
(dp4987
S'name'
p4988
g4929
ssbsba(issf_api
Chunk
p4989
(dp4990
g4234
g1935
sg30
I1
sg4315
g1942
sg31
I4
sg4225
(lp4991
I93
aI94
aI95
asg36
(issf_api
FeatureSet
p4992
(dp4993
g12
(dp4994
S'name'
p4995
g4955
sS'drel'
p4996
S'r6:NP2'
p4997
ssbsba(issf_api
Chunk
p4998
(dp4999
g4234
g1996
sg30
I2
sg4315
g2001
sg31
I4
sg4225
(lp5000
I96
aI97
asg36
(issf_api
FeatureSet
p5001
(dp5002
g12
(dp5003
S'name'
p5004
g4918
sS'drel'
p5005
S'k2:VGNN'
p5006
ssbsba(issf_api
Chunk
p5007
(dp5008
g4234
g2032
sg30
I3
sg4315
g2039
sg31
I4
sg4225
(lp5009
I98
aI99
aI100
aI101
asg36
(issf_api
FeatureSet
p5010
(dp5011
g12
(dp5012
S'name'
p5013
g4912
sS'drel'
p5014
S'rh:VGF'
p5015
ssbsba(issf_api
Chunk
p5016
(dp5017
g4234
g2087
sg30
I4
sg4315
g2092
sg31
I4
sg4225
(lp5018
I102
asg36
(issf_api
FeatureSet
p5019
(dp5020
g12
(dp5021
S'name'
p5022
g4925
sS'drel'
p5023
S'adv:VGF'
p5024
ssbsba(issf_api
Chunk
p5025
(dp5026
g4234
g2106
sg30
I5
sg4315
g2113
sg31
I4
sg4225
(lp5027
I103
aI104
asg36
(issf_api
FeatureSet
p5028
(dp5029
g12
(dp5030
S'name'
p5031
g4928
sS'drel'
p5032
S'k4a:VGF'
p5033
ssbsba(issf_api
Chunk
p5034
(dp5035
g4234
g2146
sg30
I6
sg4315
g2155
sg31
I4
sg4225
(lp5036
I105
asg36
(issf_api
FeatureSet
p5037
(dp5038
g12
(dp5039
S'name'
p5040
g4944
sS'drel'
p5041
S'pof:VGNN2'
p5042
ssbsba(issf_api
Chunk
p5043
(dp5044
g4234
g2169
sg30
I7
sg4315
g2176
sg31
I4
sg4225
(lp5045
I106
aI107
aI108
aI109
asg36
(issf_api
FeatureSet
p5046
(dp5047
g12
(dp5048
S'name'
p5049
g4926
sS'drel'
p5050
S'vmod:VGF'
p5051
ssbsba(issf_api
Chunk
p5052
(dp5053
g4234
g2241
sg30
I8
sg4315
g2246
sg31
I4
sg4225
(lp5054
I110
asg36
(issf_api
FeatureSet
p5055
(dp5056
g12
(dp5057
S'name'
p5058
g4911
sS'drel'
p5059
S'pof:VGNN3'
p5060
ssbsba(issf_api
Chunk
p5061
(dp5062
g4234
g2260
sg30
I9
sg4315
g2267
sg31
I4
sg4225
(lp5063
I111
aI112
asg36
(issf_api
FeatureSet
p5064
(dp5065
g12
(dp5066
S'name'
p5067
g4905
sS'drel'
p5068
S'k7:VGF'
p5069
ssbsba(issf_api
Chunk
p5070
(dp5071
g4234
g2298
sg30
I10
sg4315
g2303
sg31
I4
sg4225
(lp5072
I113
asg36
(issf_api
FeatureSet
p5073
(dp5074
g12
(dp5075
S'name'
p5076
g4927
sS'drel'
p5077
S'pof:VGF'
p5078
ssbsba(issf_api
Chunk
p5079
(dp5080
g4234
g2317
sg30
I11
sg4315
g2328
sg31
I4
sg4225
(lp5081
I114
aI115
asg36
(issf_api
FeatureSet
p5082
(dp5083
g12
(dp5084
S'name'
p5085
g4919
sS'drel'
p5086
S'ccof:CCP'
p5087
ssbsba(issf_api
Chunk
p5088
(dp5089
g4234
g2359
sg30
I12
sg4315
g2364
sg31
I4
sg4225
(lp5090
I116
asg36
(issf_api
FeatureSet
p5091
(dp5092
g12
(dp5093
S'name'
p5094
g4933
sS'drel'
p5095
S'rsym:CCP'
p5096
ssbsbasba(issf_api
Sentence
p5097
(dp5098
g4223
(lp5099
sg31
I5
sg4225
(lp5100
I117
aI118
aI119
aI120
aI121
aI122
aI123
aI124
aI125
aI126
aI127
aI128
aI129
aI130
aI131
aI132
aI133
aI134
aI135
aI136
asg4227
(dp5101
S'VGNN'
p5102
(issf_api
Node
p5103
(dp5104
g4232
S'rh'
p5105
sg4234
g5102
sg4235
S'VGF'
p5106
sg4237
I-1
sg30
I3
sg4238
(lp5107
S'NP2'
p5108
asbsS'VGF'
p5109
(issf_api
Node
p5110
(dp5111
g4232
S'ccof'
p5112
sg4234
g5109
sg4235
S'CCP'
p5113
sg4237
I-1
sg30
I8
sg4238
(lp5114
g5102
aS'NP5'
p5115
aS'NP'
p5116
aS'NP6'
p5117
aS'NP3'
p5118
asbsS'CCP'
p5119
(issf_api
Node
p5120
(dp5121
g4232
g4245
sg4234
g5119
sg4235
g4245
sg4237
I-1
sg30
I0
sg4238
(lp5122
g5109
aS'BLK'
p5123
asbsg5115
(issf_api
Node
p5124
(dp5125
g4232
S'pof'
p5126
sg4234
g5115
sg4235
S'VGF'
p5127
sg4237
I-1
sg30
I6
sg4238
(lp5128
S'NP4'
p5129
asbsg5123
(issf_api
Node
p5130
(dp5131
g4232
S'rsym'
p5132
sg4234
g5123
sg4235
S'CCP'
p5133
sg4237
I-1
sg30
I9
sg4238
(lp5134
sbsg5116
(issf_api
Node
p5135
(dp5136
g4232
S'k7t'
p5137
sg4234
g5116
sg4235
S'VGF'
p5138
sg4237
I-1
sg30
I1
sg4238
(lp5139
sbsg5129
(issf_api
Node
p5140
(dp5141
g4232
S'r6-k2'
p5142
sg4234
g5129
sg4235
S'NP5'
p5143
sg4237
I-1
sg30
I5
sg4238
(lp5144
sbsg5117
(issf_api
Node
p5145
(dp5146
g4232
S'adv'
p5147
sg4234
g5117
sg4235
S'VGF'
p5148
sg4237
I-1
sg30
I7
sg4238
(lp5149
sbsg5118
(issf_api
Node
p5150
(dp5151
g4232
S'k7'
p5152
sg4234
g5118
sg4235
S'VGF'
p5153
sg4237
I-1
sg30
I4
sg4238
(lp5154
sbsg5108
(issf_api
Node
p5155
(dp5156
g4232
S'k1'
p5157
sg4234
g5108
sg4235
S'VGNN'
p5158
sg4237
I-1
sg30
I2
sg4238
(lp5159
sbssg4311
(lp5160
(issf_api
Chunk
p5161
(dp5162
g4234
g2374
sg30
I0
sg4315
g2381
sg31
I5
sg4225
(lp5163
I117
asg36
(issf_api
FeatureSet
p5164
(dp5165
g12
(dp5166
S'name'
p5167
g5119
ssbsba(issf_api
Chunk
p5168
(dp5169
g4234
g2397
sg30
I1
sg4315
g2406
sg31
I5
sg4225
(lp5170
I118
asg36
(issf_api
FeatureSet
p5171
(dp5172
g12
(dp5173
S'name'
p5174
g5116
sS'drel'
p5175
S'k7t:VGF'
p5176
ssbsba(issf_api
Chunk
p5177
(dp5178
g4234
g2441
sg30
I2
sg4315
g2452
sg31
I5
sg4225
(lp5179
I119
aI120
aI121
asg36
(issf_api
FeatureSet
p5180
(dp5181
g12
(dp5182
S'name'
p5183
g5108
sS'drel'
p5184
S'k1:VGNN'
p5185
ssbsba(issf_api
Chunk
p5186
(dp5187
g4234
g2483
sg30
I3
sg4315
g2490
sg31
I5
sg4225
(lp5188
I122
aI123
aI124
asg36
(issf_api
FeatureSet
p5189
(dp5190
g12
(dp5191
S'name'
p5192
g5102
sS'drel'
p5193
S'rh:VGF'
p5194
ssbsba(issf_api
Chunk
p5195
(dp5196
g4234
g2561
sg30
I4
sg4315
g2574
sg31
I5
sg4225
(lp5197
I125
aI126
aI127
asg36
(issf_api
FeatureSet
p5198
(dp5199
g12
(dp5200
S'name'
p5201
g5118
sS'drel'
p5202
S'k7:VGF'
p5203
ssbsba(issf_api
Chunk
p5204
(dp5205
g4234
g2613
sg30
I5
sg4315
g2626
sg31
I5
sg4225
(lp5206
I128
aI129
asg36
(issf_api
FeatureSet
p5207
(dp5208
g12
(dp5209
S'name'
p5210
g5129
sS'drel'
p5211
S'r6-k2:NP5'
p5212
ssbsba(issf_api
Chunk
p5213
(dp5214
g4234
g2659
sg30
I6
sg4315
g2670
sg31
I5
sg4225
(lp5215
I130
asg36
(issf_api
FeatureSet
p5216
(dp5217
g12
(dp5218
S'name'
p5219
g5115
sS'drel'
p5220
S'pof:VGF'
p5221
ssbsba(issf_api
Chunk
p5222
(dp5223
g4234
g2684
sg30
I7
sg4315
g2691
sg31
I5
sg4225
(lp5224
I131
aI132
asg36
(issf_api
FeatureSet
p5225
(dp5226
g12
(dp5227
S'name'
p5228
g5117
sS'drel'
p5229
S'adv:VGF'
p5230
ssbsba(issf_api
Chunk
p5231
(dp5232
g4234
g2722
sg30
I8
sg4315
g2733
sg31
I5
sg4225
(lp5233
I133
aI134
aI135
asg36
(issf_api
FeatureSet
p5234
(dp5235
g12
(dp5236
S'name'
p5237
g5109
sS'drel'
p5238
S'ccof:CCP'
p5239
ssbsba(issf_api
Chunk
p5240
(dp5241
g4234
g2781
sg30
I9
sg4315
g2786
sg31
I5
sg4225
(lp5242
I136
asg36
(issf_api
FeatureSet
p5243
(dp5244
g12
(dp5245
S'name'
p5246
g5123
sS'drel'
p5247
S'rsym:CCP'
p5248
ssbsbasba(issf_api
Sentence
p5249
(dp5250
g4223
(lp5251
sg31
I6
sg4225
(lp5252
I137
aI138
aI139
aI140
aI141
aI142
aI143
aI144
aI145
aI146
aI147
aI148
aI149
aI150
aI151
asg4227
(dp5253
S'VGF2'
p5254
(issf_api
Node
p5255
(dp5256
g4232
S'ccof'
p5257
sg4234
g5254
sg4235
S'CCP'
p5258
sg4237
I-1
sg30
I9
sg4238
(lp5259
S'JJP'
p5260
aS'NP5'
p5261
aS'NP6'
p5262
asbsS'VGF'
p5263
(issf_api
Node
p5264
(dp5265
g4232
S'ccof'
p5266
sg4234
g5263
sg4235
S'CCP'
p5267
sg4237
I-1
sg30
I4
sg4238
(lp5268
S'NP'
p5269
aS'NP4'
p5270
aS'NP2'
p5271
asbsS'CCP'
p5272
(issf_api
Node
p5273
(dp5274
g4232
g4245
sg4234
g5272
sg4235
g4245
sg4237
I-1
sg30
I5
sg4238
(lp5275
g5254
ag5263
aS'BLK'
p5276
asbsg5260
(issf_api
Node
p5277
(dp5278
g4232
S'pof'
p5279
sg4234
g5260
sg4235
S'VGF2'
p5280
sg4237
I-1
sg30
I8
sg4238
(lp5281
sbsg5261
(issf_api
Node
p5282
(dp5283
g4232
S'k4'
p5284
sg4234
g5261
sg4235
S'VGF2'
p5285
sg4237
I-1
sg30
I6
sg4238
(lp5286
sbsg5276
(issf_api
Node
p5287
(dp5288
g4232
S'rsym'
p5289
sg4234
g5276
sg4235
S'CCP'
p5290
sg4237
I-1
sg30
I10
sg4238
(lp5291
sbsg5269
(issf_api
Node
p5292
(dp5293
g4232
S'rt'
p5294
sg4234
g5269
sg4235
S'VGF'
p5295
sg4237
I-1
sg30
I0
sg4238
(lp5296
sbsg5270
(issf_api
Node
p5297
(dp5298
g4232
S'pof'
p5299
sg4234
g5270
sg4235
S'VGF'
p5300
sg4237
I-1
sg30
I3
sg4238
(lp5301
S'NP3'
p5302
asbsg5262
(issf_api
Node
p5303
(dp5304
g4232
S'k2'
p5305
sg4234
g5262
sg4235
S'VGF2'
p5306
sg4237
I-1
sg30
I7
sg4238
(lp5307
sbsg5302
(issf_api
Node
p5308
(dp5309
g4232
S'r6-k2'
p5310
sg4234
g5302
sg4235
S'NP4'
p5311
sg4237
I-1
sg30
I2
sg4238
(lp5312
sbsg5271
(issf_api
Node
p5313
(dp5314
g4232
S'k1'
p5315
sg4234
g5271
sg4235
S'VGF'
p5316
sg4237
I-1
sg30
I1
sg4238
(lp5317
sbssg4311
(lp5318
(issf_api
Chunk
p5319
(dp5320
g4234
g2800
sg30
I0
sg4315
g2807
sg31
I6
sg4225
(lp5321
I137
aI138
asg36
(issf_api
FeatureSet
p5322
(dp5323
g12
(dp5324
S'name'
p5325
g5269
sS'drel'
p5326
S'rt:VGF'
p5327
ssbsba(issf_api
Chunk
p5328
(dp5329
g4234
g2840
sg30
I1
sg4315
g2849
sg31
I6
sg4225
(lp5330
I139
asg36
(issf_api
FeatureSet
p5331
(dp5332
g12
(dp5333
S'name'
p5334
g5271
sS'drel'
p5335
S'k1:VGF'
p5336
ssbsba(issf_api
Chunk
p5337
(dp5338
g4234
g2880
sg30
I2
sg4315
g2887
sg31
I6
sg4225
(lp5339
I140
aI141
aI142
asg36
(issf_api
FeatureSet
p5340
(dp5341
g12
(dp5342
S'name'
p5343
g5302
sS'drel'
p5344
S'r6-k2:NP4'
p5345
ssbsba(issf_api
Chunk
p5346
(dp5347
g4234
g2918
sg30
I3
sg4315
g2923
sg31
I6
sg4225
(lp5348
I143
asg36
(issf_api
FeatureSet
p5349
(dp5350
g12
(dp5351
S'name'
p5352
g5270
sS'drel'
p5353
S'pof:VGF'
p5354
ssbsba(issf_api
Chunk
p5355
(dp5356
g4234
g2937
sg30
I4
sg4315
g2946
sg31
I6
sg4225
(lp5357
I144
asg36
(issf_api
FeatureSet
p5358
(dp5359
g12
(dp5360
S'name'
p5361
g5263
sS'drel'
p5362
S'ccof:CCP'
p5363
ssbsba(issf_api
Chunk
p5364
(dp5365
g4234
g2956
sg30
I5
sg4315
g2963
sg31
I6
sg4225
(lp5366
I145
asg36
(issf_api
FeatureSet
p5367
(dp5368
g12
(dp5369
S'name'
p5370
g5272
ssbsba(issf_api
Chunk
p5371
(dp5372
g4234
g2977
sg30
I6
sg4315
g2982
sg31
I6
sg4225
(lp5373
I146
asg36
(issf_api
FeatureSet
p5374
(dp5375
g12
(dp5376
S'name'
p5377
g5261
sS'drel'
p5378
S'k4:VGF2'
p5379
ssbsba(issf_api
Chunk
p5380
(dp5381
g4234
g3017
sg30
I7
sg4315
g3026
sg31
I6
sg4225
(lp5382
I147
aI148
asg36
(issf_api
FeatureSet
p5383
(dp5384
g12
(dp5385
S'name'
p5386
g5262
sS'drel'
p5387
S'k2:VGF2'
p5388
ssbsba(issf_api
Chunk
p5389
(dp5390
g4234
g3040
sg30
I8
sg4315
g3045
sg31
I6
sg4225
(lp5391
I149
asg36
(issf_api
FeatureSet
p5392
(dp5393
g12
(dp5394
S'name'
p5395
g5260
sS'drel'
p5396
S'pof:VGF2'
p5397
ssbsba(issf_api
Chunk
p5398
(dp5399
g4234
g3059
sg30
I9
sg4315
g3068
sg31
I6
sg4225
(lp5400
I150
asg36
(issf_api
FeatureSet
p5401
(dp5402
g12
(dp5403
S'name'
p5404
g5254
sS'drel'
p5405
S'ccof:CCP'
p5406
ssbsba(issf_api
Chunk
p5407
(dp5408
g4234
g3082
sg30
I10
sg4315
g3087
sg31
I6
sg4225
(lp5409
I151
asg36
(issf_api
FeatureSet
p5410
(dp5411
g12
(dp5412
S'name'
p5413
g5276
sS'drel'
p5414
S'rsym:CCP'
p5415
ssbsbasba(issf_api
Sentence
p5416
(dp5417
g4223
(lp5418
sg31
I7
sg4225
(lp5419
I152
aI153
aI154
aI155
aI156
aI157
aI158
aI159
aI160
aI161
aI162
aI163
asg4227
(dp5420
S'VGNF'
p5421
(issf_api
Node
p5422
(dp5423
g4232
S'vmod'
p5424
sg4234
g5421
sg4235
S'VGF'
p5425
sg4237
I-1
sg30
I5
sg4238
(lp5426
S'NP4'
p5427
asbsS'VGNN'
p5428
(issf_api
Node
p5429
(dp5430
g4232
S'k7'
p5431
sg4234
g5428
sg4235
S'VGF'
p5432
sg4237
I-1
sg30
I3
sg4238
(lp5433
S'NP3'
p5434
asbsS'VGF'
p5435
(issf_api
Node
p5436
(dp5437
g4232
g4245
sg4234
g5435
sg4235
g4245
sg4237
I-1
sg30
I7
sg4238
(lp5438
g5421
ag5428
aS'NP5'
p5439
aS'BLK'
p5440
aS'NP'
p5441
asbsg5439
(issf_api
Node
p5442
(dp5443
g4232
S'pof'
p5444
sg4234
g5439
sg4235
S'VGF'
p5445
sg4237
I-1
sg30
I6
sg4238
(lp5446
sbsg5440
(issf_api
Node
p5447
(dp5448
g4232
S'rsym'
p5449
sg4234
g5440
sg4235
S'VGF'
p5450
sg4237
I-1
sg30
I8
sg4238
(lp5451
sbsg5441
(issf_api
Node
p5452
(dp5453
g4232
S'k1'
p5454
sg4234
g5441
sg4235
S'VGF'
p5455
sg4237
I-1
sg30
I0
sg4238
(lp5456
sbsg5427
(issf_api
Node
p5457
(dp5458
g4232
S'k7'
p5459
sg4234
g5427
sg4235
S'VGNF'
p5460
sg4237
I-1
sg30
I4
sg4238
(lp5461
sbsg5434
(issf_api
Node
p5462
(dp5463
g4232
S'pof'
p5464
sg4234
g5434
sg4235
S'VGNN'
p5465
sg4237
I-1
sg30
I2
sg4238
(lp5466
S'NP2'
p5467
asbsg5467
(issf_api
Node
p5468
(dp5469
g4232
S'r6-k1'
p5470
sg4234
g5467
sg4235
S'NP3'
p5471
sg4237
I-1
sg30
I1
sg4238
(lp5472
sbssg4311
(lp5473
(issf_api
Chunk
p5474
(dp5475
g4234
g3101
sg30
I0
sg4315
g3106
sg31
I7
sg4225
(lp5476
I152
asg36
(issf_api
FeatureSet
p5477
(dp5478
g12
(dp5479
S'name'
p5480
g5441
sS'drel'
p5481
S'k1:VGF'
p5482
ssbsba(issf_api
Chunk
p5483
(dp5484
g4234
g3122
sg30
I1
sg4315
g3133
sg31
I7
sg4225
(lp5485
I153
aI154
asg36
(issf_api
FeatureSet
p5486
(dp5487
g12
(dp5488
S'name'
p5489
g5467
sS'drel'
p5490
S'r6-k1:NP3'
p5491
ssbsba(issf_api
Chunk
p5492
(dp5493
g4234
g3164
sg30
I2
sg4315
g3169
sg31
I7
sg4225
(lp5494
I155
asg36
(issf_api
FeatureSet
p5495
(dp5496
g12
(dp5497
S'name'
p5498
g5434
sS'drel'
p5499
S'pof:VGNN'
p5500
ssbsba(issf_api
Chunk
p5501
(dp5502
g4234
g3183
sg30
I3
sg4315
g3190
sg31
I7
sg4225
(lp5503
I156
aI157
asg36
(issf_api
FeatureSet
p5504
(dp5505
g12
(dp5506
S'name'
p5507
g5428
sS'drel'
p5508
S'k7:VGF'
p5509
ssbsba(issf_api
Chunk
p5510
(dp5511
g4234
g3221
sg30
I4
sg4315
g3228
sg31
I7
sg4225
(lp5512
I158
aI159
asg36
(issf_api
FeatureSet
p5513
(dp5514
g12
(dp5515
S'name'
p5516
g5427
sS'drel'
p5517
S'k7:VGNF'
p5518
ssbsba(issf_api
Chunk
p5519
(dp5520
g4234
g3259
sg30
I5
sg4315
g3264
sg31
I7
sg4225
(lp5521
I160
asg36
(issf_api
FeatureSet
p5522
(dp5523
g12
(dp5524
S'name'
p5525
g5421
sS'drel'
p5526
S'vmod:VGF'
p5527
ssbsba(issf_api
Chunk
p5528
(dp5529
g4234
g3280
sg30
I6
sg4315
g3289
sg31
I7
sg4225
(lp5530
I161
asg36
(issf_api
FeatureSet
p5531
(dp5532
g12
(dp5533
S'name'
p5534
g5439
sS'drel'
p5535
S'pof:VGF'
p5536
ssbsba(issf_api
Chunk
p5537
(dp5538
g4234
g3303
sg30
I7
sg4315
g3310
sg31
I7
sg4225
(lp5539
I162
asg36
(issf_api
FeatureSet
p5540
(dp5541
g12
(dp5542
S'name'
p5543
g5435
ssbsba(issf_api
Chunk
p5544
(dp5545
g4234
g3324
sg30
I8
sg4315
g3329
sg31
I7
sg4225
(lp5546
I163
asg36
(issf_api
FeatureSet
p5547
(dp5548
g12
(dp5549
S'name'
p5550
g5440
sS'drel'
p5551
S'rsym:VGF'
p5552
ssbsbasba(issf_api
Sentence
p5553
(dp5554
g4223
(lp5555
sg31
I8
sg4225
(lp5556
I164
aI165
aI166
aI167
aI168
aI169
aI170
aI171
aI172
aI173
aI174
aI175
asg4227
(dp5557
S'VGF'
p5558
(issf_api
Node
p5559
(dp5560
g4232
g4245
sg4234
g5558
sg4235
g4245
sg4237
I-1
sg30
I5
sg4238
(lp5561
S'RBP'
p5562
aS'BLK'
p5563
aS'NP'
p5564
aS'NP4'
p5565
aS'NP2'
p5566
asbsg5562
(issf_api
Node
p5567
(dp5568
g4232
S'adv'
p5569
sg4234
g5562
sg4235
S'VGF'
p5570
sg4237
I-1
sg30
I2
sg4238
(lp5571
sbsg5563
(issf_api
Node
p5572
(dp5573
g4232
S'rsym'
p5574
sg4234
g5563
sg4235
S'VGF'
p5575
sg4237
I-1
sg30
I6
sg4238
(lp5576
sbsg5564
(issf_api
Node
p5577
(dp5578
g4232
S'rh'
p5579
sg4234
g5564
sg4235
S'VGF'
p5580
sg4237
I-1
sg30
I0
sg4238
(lp5581
sbsg5565
(issf_api
Node
p5582
(dp5583
g4232
S'pof'
p5584
sg4234
g5565
sg4235
S'VGF'
p5585
sg4237
I-1
sg30
I4
sg4238
(lp5586
S'NP3'
p5587
asbsg5587
(issf_api
Node
p5588
(dp5589
g4232
S'r6-k2'
p5590
sg4234
g5587
sg4235
S'NP4'
p5591
sg4237
I-1
sg30
I3
sg4238
(lp5592
sbsg5566
(issf_api
Node
p5593
(dp5594
g4232
S'k3'
p5595
sg4234
g5566
sg4235
S'VGF'
p5596
sg4237
I-1
sg30
I1
sg4238
(lp5597
sbssg4311
(lp5598
(issf_api
Chunk
p5599
(dp5600
g4234
g3343
sg30
I0
sg4315
g3348
sg31
I8
sg4225
(lp5601
I164
asg36
(issf_api
FeatureSet
p5602
(dp5603
g12
(dp5604
S'name'
p5605
g5564
sS'drel'
p5606
S'rh:VGF'
p5607
ssbsba(issf_api
Chunk
p5608
(dp5609
g4234
g3362
sg30
I1
sg4315
g3369
sg31
I8
sg4225
(lp5610
I165
aI166
aI167
asg36
(issf_api
FeatureSet
p5611
(dp5612
g12
(dp5613
S'name'
p5614
g5566
sS'drel'
p5615
S'k3:VGF'
p5616
ssbsba(issf_api
Chunk
p5617
(dp5618
g4234
g3417
sg30
I2
sg4315
g3422
sg31
I8
sg4225
(lp5619
I168
aI169
asg36
(issf_api
FeatureSet
p5620
(dp5621
g12
(dp5622
S'name'
p5623
g5562
sS'drel'
p5624
S'adv:VGF'
p5625
ssbsba(issf_api
Chunk
p5626
(dp5627
g4234
g3457
sg30
I3
sg4315
g3470
sg31
I8
sg4225
(lp5628
I170
aI171
asg36
(issf_api
FeatureSet
p5629
(dp5630
g12
(dp5631
S'name'
p5632
g5587
sS'drel'
p5633
S'r6-k2:NP4'
p5634
ssbsba(issf_api
Chunk
p5635
(dp5636
g4234
g3503
sg30
I4
sg4315
g3514
sg31
I8
sg4225
(lp5637
I172
asg36
(issf_api
FeatureSet
p5638
(dp5639
g12
(dp5640
S'name'
p5641
g5565
sS'drel'
p5642
S'pof:VGF'
p5643
ssbsba(issf_api
Chunk
p5644
(dp5645
g4234
g3528
sg30
I5
sg4315
g3537
sg31
I8
sg4225
(lp5646
I173
aI174
asg36
(issf_api
FeatureSet
p5647
(dp5648
g12
(dp5649
S'name'
p5650
g5558
ssbsba(issf_api
Chunk
p5651
(dp5652
g4234
g3568
sg30
I6
sg4315
g3573
sg31
I8
sg4225
(lp5653
I175
asg36
(issf_api
FeatureSet
p5654
(dp5655
g12
(dp5656
S'name'
p5657
g5563
sS'drel'
p5658
S'rsym:VGF'
p5659
ssbsbasba(issf_api
Sentence
p5660
(dp5661
g4223
(lp5662
sg31
I9
sg4225
(lp5663
I176
aI177
aI178
aI179
aI180
aI181
aI182
aI183
aI184
aI185
aI186
aI187
aI188
aI189
aI190
aI191
aI192
aI193
aI194
aI195
aI196
aI197
aI198
aI199
aI200
aI201
aI202
aI203
aI204
aI205
aI206
aI207
aI208
asg4227
(dp5664
S'NP11'
p5665
(issf_api
Node
p5666
(dp5667
g4232
S'pof'
p5668
sg4234
g5665
sg4235
S'VGNN'
p5669
sg4237
I-1
sg30
I10
sg4238
(lp5670
S'NP10'
p5671
asbsS'NULL__CCP'
p5672
(issf_api
Node
p5673
(dp5674
g4232
g4245
sg4234
g5672
sg4235
g4245
sg4237
I-1
sg30
I-1
sg4238
(lp5675
S'NP5'
p5676
aS'NP9'
p5677
aS'NP8'
p5678
aS'NP4'
p5679
aS'NP7'
p5680
aS'NP6'
p5681
asbsg5671
(issf_api
Node
p5682
(dp5683
g4232
S'r6-k2'
p5684
sg4234
g5671
sg4235
S'NP11'
p5685
sg4237
I-1
sg30
I9
sg4238
(lp5686
sbsS'VGF'
p5687
(issf_api
Node
p5688
(dp5689
g4232
g4245
sg4234
g5687
sg4235
g4245
sg4237
I-1
sg30
I13
sg4238
(lp5690
S'NP12'
p5691
aS'BLK'
p5692
aS'VGNN'
p5693
aS'NP2'
p5694
asbsg5691
(issf_api
Node
p5695
(dp5696
g4232
S'adv'
p5697
sg4234
g5691
sg4235
S'VGF'
p5698
sg4237
I-1
sg30
I12
sg4238
(lp5699
sbsg5676
(issf_api
Node
p5700
(dp5701
g4232
S'ccof'
p5702
sg4234
g5676
sg4235
S'NULL__CCP'
p5703
sg4237
I-1
sg30
I4
sg4238
(lp5704
sbsg5677
(issf_api
Node
p5705
(dp5706
g4232
S'ccof'
p5707
sg4234
g5677
sg4235
S'NULL__CCP'
p5708
sg4237
I-1
sg30
I8
sg4238
(lp5709
sbsg5678
(issf_api
Node
p5710
(dp5711
g4232
S'ccof'
p5712
sg4234
g5678
sg4235
S'NULL__CCP'
p5713
sg4237
I-1
sg30
I7
sg4238
(lp5714
sbsg5692
(issf_api
Node
p5715
(dp5716
g4232
S'rsym'
p5717
sg4234
g5692
sg4235
S'VGF'
p5718
sg4237
I-1
sg30
I14
sg4238
(lp5719
sbsg5693
(issf_api
Node
p5720
(dp5721
g4232
S'k7'
p5722
sg4234
g5693
sg4235
S'VGF'
p5723
sg4237
I-1
sg30
I11
sg4238
(lp5724
g5665
aS'NP3'
p5725
asbsS'NP'
p5726
(issf_api
Node
p5727
(dp5728
g4232
S'r6'
p5729
sg4234
g5726
sg4235
S'NP2'
p5730
sg4237
I-1
sg30
I0
sg4238
(lp5731
sbsg5679
(issf_api
Node
p5732
(dp5733
g4232
S'ccof'
p5734
sg4234
g5679
sg4235
S'NULL__CCP'
p5735
sg4237
I-1
sg30
I3
sg4238
(lp5736
sbsg5680
(issf_api
Node
p5737
(dp5738
g4232
S'ccof'
p5739
sg4234
g5680
sg4235
S'NULL__CCP'
p5740
sg4237
I-1
sg30
I6
sg4238
(lp5741
sbsg5681
(issf_api
Node
p5742
(dp5743
g4232
S'ccof'
p5744
sg4234
g5681
sg4235
S'NULL__CCP'
p5745
sg4237
I-1
sg30
I5
sg4238
(lp5746
sbsg5725
(issf_api
Node
p5747
(dp5748
g4232
S'k3'
p5749
sg4234
g5725
sg4235
S'VGNN'
p5750
sg4237
I-1
sg30
I2
sg4238
(lp5751
sbsg5694
(issf_api
Node
p5752
(dp5753
g4232
S'k7a'
p5754
sg4234
g5694
sg4235
S'VGF'
p5755
sg4237
I-1
sg30
I1
sg4238
(lp5756
g5726
asbssg4311
(lp5757
(issf_api
Chunk
p5758
(dp5759
g4234
g3627
sg30
I0
sg4315
g3638
sg31
I9
sg4225
(lp5760
I176
aI177
aI178
aI179
asg36
(issf_api
FeatureSet
p5761
(dp5762
g12
(dp5763
S'name'
p5764
g5726
sS'drel'
p5765
S'r6:NP2'
p5766
ssbsba(issf_api
Chunk
p5767
(dp5768
g4234
g3669
sg30
I1
sg4315
g3676
sg31
I9
sg4225
(lp5769
I180
aI181
aI182
asg36
(issf_api
FeatureSet
p5770
(dp5771
g12
(dp5772
S'name'
p5773
g5694
sS'drel'
p5774
S'k7a:VGF'
p5775
ssbsba(issf_api
Chunk
p5776
(dp5777
g4234
g3745
sg30
I2
sg4315
g3756
sg31
I9
sg4225
(lp5778
I183
aI184
aI185
aI186
asg36
(issf_api
FeatureSet
p5779
(dp5780
g12
(dp5781
S'name'
p5782
g5725
sS'drel'
p5783
S'k3:VGNN'
p5784
ssbsba(issf_api
Chunk
p5785
(dp5786
g4234
g3804
sg30
I3
sg4315
g3809
sg31
I9
sg4225
(lp5787
I187
aI188
asg36
(issf_api
FeatureSet
p5788
(dp5789
g12
(dp5790
S'name'
p5791
g5679
sS'drel'
p5792
S'ccof:NULL__CCP'
p5793
ssbsba(issf_api
Chunk
p5794
(dp5795
g4234
g3840
sg30
I4
sg4315
g3845
sg31
I9
sg4225
(lp5796
I189
aI190
asg36
(issf_api
FeatureSet
p5797
(dp5798
g12
(dp5799
S'name'
p5800
g5676
sS'drel'
p5801
S'ccof:NULL__CCP'
p5802
ssbsba(issf_api
Chunk
p5803
(dp5804
g4234
g3876
sg30
I5
sg4315
g3881
sg31
I9
sg4225
(lp5805
I191
aI192
asg36
(issf_api
FeatureSet
p5806
(dp5807
g12
(dp5808
S'name'
p5809
g5681
sS'drel'
p5810
S'ccof:NULL__CCP'
p5811
ssbsba(issf_api
Chunk
p5812
(dp5813
g4234
g3912
sg30
I6
sg4315
g3917
sg31
I9
sg4225
(lp5814
I193
aI194
asg36
(issf_api
FeatureSet
p5815
(dp5816
g12
(dp5817
S'name'
p5818
g5680
sS'drel'
p5819
S'ccof:NULL__CCP'
p5820
ssbsba(issf_api
Chunk
p5821
(dp5822
g4234
g3948
sg30
I7
sg4315
g3953
sg31
I9
sg4225
(lp5823
I195
aI196
asg36
(issf_api
FeatureSet
p5824
(dp5825
g12
(dp5826
S'name'
p5827
g5678
sS'drel'
p5828
S'ccof:NULL__CCP'
p5829
ssbsba(issf_api
Chunk
p5830
(dp5831
g4234
g3984
sg30
I8
sg4315
g3991
sg31
I9
sg4225
(lp5832
I197
aI198
asg36
(issf_api
FeatureSet
p5833
(dp5834
g12
(dp5835
S'name'
p5836
g5677
sS'drel'
p5837
S'ccof:NULL__CCP'
p5838
ssbsba(issf_api
Chunk
p5839
(dp5840
g4234
g4064
sg30
I9
sg4315
g4077
sg31
I9
sg4225
(lp5841
I199
aI200
aI201
aI202
asg36
(issf_api
FeatureSet
p5842
(dp5843
g12
(dp5844
S'name'
p5845
g5671
sS'drel'
p5846
S'r6-k2:NP11'
p5847
ssbsba(issf_api
Chunk
p5848
(dp5849
g4234
g4110
sg30
I10
sg4315
g4121
sg31
I9
sg4225
(lp5850
I203
asg36
(issf_api
FeatureSet
p5851
(dp5852
g12
(dp5853
S'name'
p5854
g5665
sS'drel'
p5855
S'pof:VGNN'
p5856
ssbsba(issf_api
Chunk
p5857
(dp5858
g4234
g4135
sg30
I11
sg4315
g4142
sg31
I9
sg4225
(lp5859
I204
aI205
asg36
(issf_api
FeatureSet
p5860
(dp5861
g12
(dp5862
S'name'
p5863
g5693
sS'drel'
p5864
S'k7:VGF'
p5865
ssbsba(issf_api
Chunk
p5866
(dp5867
g4234
g4173
sg30
I12
sg4315
g4178
sg31
I9
sg4225
(lp5868
I206
asg36
(issf_api
FeatureSet
p5869
(dp5870
g12
(dp5871
S'name'
p5872
g5691
sS'drel'
p5873
S'adv:VGF'
p5874
ssbsba(issf_api
Chunk
p5875
(dp5876
g4234
g4192
sg30
I13
sg4315
g4199
sg31
I9
sg4225
(lp5877
I207
asg36
(issf_api
FeatureSet
p5878
(dp5879
g12
(dp5880
S'name'
p5881
g5687
ssbsba(issf_api
Chunk
p5882
(dp5883
g4234
g4213
sg30
I14
sg4315
g4218
sg31
I9
sg4225
(lp5884
I208
asg36
(issf_api
FeatureSet
p5885
(dp5886
g12
(dp5887
S'name'
p5888
g5692
sS'drel'
p5889
S'rsym:VGF'
p5890
ssbsbasbasb.