(issf_api
SSFInfo
p0
(dp1
S'globalWordList'
p2
(lp3
(issf_api
Word
p4
(dp5
S'splitConn'
p6
I00
sS'word'
p7
V\u0906\u0902\u0927\u094d\u0930\u092a\u094d\u0930\u0926\u0947\u0936
p8
sS'extraFeatureSet'
p9
(issf_api
FeatureSet
p10
(dp11
S'featureDict'
p12
(dp13
S'crefhead'
p14
S'\xe0\xa4\x86\xe0\xa4\x82\xe0\xa4\xa7\xe0\xa5\x8d\xe0\xa4\xb0\xe0\xa4\xaa\xe0\xa5\x8d\xe0\xa4\xb0\xe0\xa4\xa6\xe0\xa5\x87\xe0\xa4\xb6:i1'
p15
sS'posn'
p16
S'10'
p17
sS'name'
p18
S'\xe0\xa4\x86\xe0\xa4\x82\xe0\xa4\xa7\xe0\xa5\x8d\xe0\xa4\xb0\xe0\xa4\xaa\xe0\xa5\x8d\xe0\xa4\xb0\xe0\xa4\xa6\xe0\xa5\x87\xe0\xa4\xb6'
p19
sS'af'
p20
S'\xe0\xa4\x86\xe0\xa4\x82\xe0\xa4\xa7\xe0\xa5\x8d\xe0\xa4\xb0\xe0\xa4\xaa\xe0\xa5\x8d\xe0\xa4\xb0\xe0\xa4\xa6\xe0\xa5\x87\xe0\xa4\xb6,n,m,sg,3,d,0,0'
p21
sS'drel'
p22
S'pof__cn:NP'
p23
sS'crefchainhead'
p24
S'i1:t1'
p25
sS'chunktype'
p26
S'child:NP'
p27
sS'cref'
p28
S'i1%1:t1'
p29
ssbsS'arg1'
p30
I00
sS'arg2'
p31
I00
sS'sense'
p32
NsS'arg1Span'
p33
NsS'chunkNum'
p34
I0
sS'sentenceNum'
p35
I0
sS'relationNum'
p36
NsS'arg2Span'
p37
NsS'wordTag'
p38
S'NNPC'
p39
sS'featureSet'
p40
g10
sS'conn'
p41
I00
sba(issf_api
Word
p42
(dp43
g6
I00
sg7
V\u0938\u0930\u0915\u093e\u0930
p44
sg9
(issf_api
FeatureSet
p45
(dp46
g12
(dp47
S'posn'
p48
S'20'
p49
sS'name'
p50
S'\xe0\xa4\xb8\xe0\xa4\xb0\xe0\xa4\x95\xe0\xa4\xbe\xe0\xa4\xb0'
p51
sS'af'
p52
S'\xe0\xa4\xb8\xe0\xa4\xb0\xe0\xa4\x95\xe0\xa4\xbe\xe0\xa4\xb0,n,f,sg,3,o,0_\xe0\xa4\xa8\xe0\xa5\x87,0'
p53
sS'chunkid'
p54
S'NP'
p55
sS'drel'
p56
S'k1:VGF'
p57
sS'vpos'
p58
S'vib_3'
p59
sS'chunktype'
p60
S'head:NP'
p61
ssbsg30
I00
sg31
I00
sg32
Nsg33
Nsg34
I0
sg35
I0
sg36
Nsg37
Nsg38
S'NNP'
p62
sg40
g45
sg41
I00
sba(issf_api
Word
p63
(dp64
g6
I00
sg7
V\u0928\u0947
p65
sg9
(issf_api
FeatureSet
p66
(dp67
g12
(dp68
S'posn'
p69
S'30'
p70
sS'name'
p71
S'\xe0\xa4\xa8\xe0\xa5\x87'
p72
sS'drel'
p73
S'lwg__psp:NP'
p74
sS'chunktype'
p75
S'child:NP'
p76
sS'af'
p77
S'\xe0\xa4\xa8\xe0\xa5\x87,psp,,,,,,'
p78
ssbsg30
I00
sg31
I00
sg32
Nsg33
Nsg34
I0
sg35
I0
sg36
Nsg37
Nsg38
S'PSP'
p79
sg40
g66
sg41
I00
sba(issf_api
Word
p80
(dp81
g6
I00
sg7
V\u092c\u093e\u0924
p82
sg9
(issf_api
FeatureSet
p83
(dp84
g12
(dp85
S'posn'
p86
S'40'
p87
sS'name'
p88
S'\xe0\xa4\xac\xe0\xa4\xbe\xe0\xa4\xa4'
p89
sS'drel'
p90
S'pof__cn:NP2'
p91
sS'chunktype'
p92
S'child:NP2'
p93
sS'af'
p94
S'\xe0\xa4\xac\xe0\xa4\xbe\xe0\xa4\xa4,n,f,sg,3,d,0,0'
p95
ssbsg30
I00
sg31
I00
sg32
Nsg33
Nsg34
I1
sg35
I0
sg36
Nsg37
Nsg38
S'NNC'
p96
sg40
g83
sg41
I00
sba(issf_api
Word
p97
(dp98
g6
I00
sg7
V-
p99
sg9
(issf_api
FeatureSet
p100
(dp101
g12
(dp102
S'posn'
p103
S'50'
p104
sS'name'
p105
S'-'
p106
sS'drel'
p107
S'pof__cn:NP2'
p108
sS'chunktype'
p109
S'child:NP2'
p110
sS'af'
p111
S'-,punc,,,,,,'
p112
ssbsg30
I00
sg31
I00
sg32
Nsg33
Nsg34
I1
sg35
I0
sg36
Nsg37
Nsg38
S'SYM'
p113
sg40
g100
sg41
I00
sba(issf_api
Word
p114
(dp115
g6
I00
sg7
V\u091a\u0940\u0924
p116
sg9
(issf_api
FeatureSet
p117
(dp118
g12
(dp119
S'posn'
p120
S'60'
p121
sS'name'
p122
S'\xe0\xa4\x9a\xe0\xa5\x80\xe0\xa4\xa4'
p123
sS'af'
p124
S'\xe0\xa4\x9a\xe0\xa5\x80\xe0\xa4\xa4,n,f,sg,3,o,0_\xe0\xa4\x95\xe0\xa5\x87_\xe0\xa4\xb2\xe0\xa4\xbf\xe0\xa4\x8f,0'
p125
sS'chunkid'
p126
S'NP2'
p127
sS'drel'
p128
S'rt:VGF'
p129
sS'vpos'
p130
S'vib_4_5'
p131
sS'chunktype'
p132
S'head:NP2'
p133
ssbsg30
I00
sg31
I00
sg32
Nsg33
Nsg34
I1
sg35
I0
sg36
Nsg37
Nsg38
S'NN'
p134
sg40
g117
sg41
I00
sba(issf_api
Word
p135
(dp136
g6
I00
sg7
V\u0915\u0947
p137
sg9
(issf_api
FeatureSet
p138
(dp139
g12
(dp140
S'posn'
p141
S'70'
p142
sS'name'
p143
S'\xe0\xa4\x95\xe0\xa5\x87'
p144
sS'drel'
p145
S'lwg__psp:NP2'
p146
sS'chunktype'
p147
S'child:NP2'
p148
sS'af'
p149
S'\xe0\xa4\x95\xe0\xa5\x87,psp,,,,,,'
p150
ssbsg30
I00
sg31
I00
sg32
Nsg33
Nsg34
I1
sg35
I0
sg36
Nsg37
Nsg38
S'PSP'
p151
sg40
g138
sg41
I00
sba(issf_api
Word
p152
(dp153
g6
I00
sg7
V\u0932\u093f\u090f
p154
sg9
(issf_api
FeatureSet
p155
(dp156
g12
(dp157
S'posn'
p158
S'80'
p159
sS'name'
p160
S'\xe0\xa4\xb2\xe0\xa4\xbf\xe0\xa4\x8f'
p161
sS'drel'
p162
S'lwg__psp:NP2'
p163
sS'chunktype'
p164
S'child:NP2'
p165
sS'af'
p166
S'\xe0\xa4\xb2\xe0\xa4\xbf\xe0\xa4\x8f,psp,,,,,,'
p167
ssbsg30
I00
sg31
I00
sg32
Nsg33
Nsg34
I1
sg35
I0
sg36
Nsg37
Nsg38
S'PSP'
p168
sg40
g155
sg41
I00
sba(issf_api
Word
p169
(dp170
g6
I00
sg7
V\u092c\u0941\u0927\u0935\u093e\u0930
p171
sg9
(issf_api
FeatureSet
p172
(dp173
g12
(dp174
S'posn'
p175
S'90'
p176
sS'name'
p177
S'\xe0\xa4\xac\xe0\xa5\x81\xe0\xa4\xa7\xe0\xa4\xb5\xe0\xa4\xbe\xe0\xa4\xb0'
p178
sS'af'
p179
S'\xe0\xa4\xac\xe0\xa5\x81\xe0\xa4\xa7\xe0\xa4\xb5\xe0\xa4\xbe\xe0\xa4\xb0,n,m,sg,3,o,0_\xe0\xa4\x95\xe0\xa5\x8b,0'
p180
sS'chunkid'
p181
S'NP3'
p182
sS'drel'
p183
S'k7t:VGF'
p184
sS'vpos'
p185
S'vib_2'
p186
sS'chunktype'
p187
S'head:NP3'
p188
ssbsg30
I00
sg31
I00
sg32
Nsg33
Nsg34
I2
sg35
I0
sg36
Nsg37
Nsg38
S'NNP'
p189
sg40
g172
sg41
I00
sba(issf_api
Word
p190
(dp191
g6
I00
sg7
V\u0915\u094b
p192
sg9
(issf_api
FeatureSet
p193
(dp194
g12
(dp195
S'posn'
p196
S'100'
p197
sS'name'
p198
S'\xe0\xa4\x95\xe0\xa5\x8b'
p199
sS'drel'
p200
S'lwg__psp:NP3'
p201
sS'chunktype'
p202
S'child:NP3'
p203
sS'af'
p204
S'\xe0\xa4\x95\xe0\xa5\x8b,psp,,,,,,'
p205
ssbsg30
I00
sg31
I00
sg32
Nsg33
Nsg34
I2
sg35
I0
sg36
Nsg37
Nsg38
S'PSP'
p206
sg40
g193
sg41
I00
sba(issf_api
Word
p207
(dp208
g6
I00
sg7
V\u0928\u0915\u094d\u0938\u0932\u093f\u092f\u094b\u0902
p209
sg9
(issf_api
FeatureSet
p210
(dp211
g12
(dp212
S'posn'
p213
S'110'
p214
sS'name'
p215
S'\xe0\xa4\xa8\xe0\xa4\x95\xe0\xa5\x8d\xe0\xa4\xb8\xe0\xa4\xb2\xe0\xa4\xbf\xe0\xa4\xaf\xe0\xa5\x8b\xe0\xa4\x82'
p216
sS'af'
p217
S'\xe0\xa4\xa8\xe0\xa4\x95\xe0\xa5\x8d\xe0\xa4\xb8\xe0\xa4\xb2\xe0\xa5\x80,n,m,pl,3,o,0_\xe0\xa4\x95\xe0\xa5\x87_\xe0\xa4\x96\xe0\xa4\xbf\xe0\xa4\xb2\xe0\xa4\xbe\xe0\xa4\xab,0'
p218
sS'chunkid'
p219
S'NP4'
p220
sS'drel'
p221
S'vmod:VGF'
p222
sS'vpos'
p223
S'vib_2_3'
p224
sS'chunktype'
p225
S'head:NP4'
p226
ssbsg30
I00
sg31
I00
sg32
Nsg33
Nsg34
I3
sg35
I0
sg36
Nsg37
Nsg38
S'NN'
p227
sg40
g210
sg41
I00
sba(issf_api
Word
p228
(dp229
g6
I00
sg7
V\u0915\u0947
p230
sg9
(issf_api
FeatureSet
p231
(dp232
g12
(dp233
S'posn'
p234
S'120'
p235
sS'name'
p236
S'\xe0\xa4\x95\xe0\xa5\x872'
p237
sS'drel'
p238
S'lwg__psp:NP4'
p239
sS'chunktype'
p240
S'child:NP4'
p241
sS'af'
p242
S'\xe0\xa4\x95\xe0\xa5\x87,psp,,,,,,'
p243
ssbsg30
I00
sg31
I00
sg32
Nsg33
Nsg34
I3
sg35
I0
sg36
Nsg37
Nsg38
S'PSP'
p244
sg40
g231
sg41
I00
sba(issf_api
Word
p245
(dp246
g6
I00
sg7
V\u0916\u093f\u0932\u093e\u092b
p247
sg9
(issf_api
FeatureSet
p248
(dp249
g12
(dp250
S'posn'
p251
S'130'
p252
sS'name'
p253
S'\xe0\xa4\x96\xe0\xa4\xbf\xe0\xa4\xb2\xe0\xa4\xbe\xe0\xa4\xab'
p254
sS'drel'
p255
S'lwg__psp:NP4'
p256
sS'chunktype'
p257
S'child:NP4'
p258
sS'af'
p259
S'\xe0\xa4\x96\xe0\xa4\xbf\xe0\xa4\xb2\xe0\xa4\xbe\xe0\xa4\xab,adj,,,,,,'
p260
ssbsg30
I00
sg31
I00
sg32
Nsg33
Nsg34
I3
sg35
I0
sg36
Nsg37
Nsg38
S'PSP'
p261
sg40
g248
sg41
I00
sba(issf_api
Word
p262
(dp263
g6
I00
sg7
V\u0938\u0902\u0918\u0930\u094d\u0937
p264
sg9
(issf_api
FeatureSet
p265
(dp266
g12
(dp267
S'posn'
p268
S'140'
p269
sS'name'
p270
S'\xe0\xa4\xb8\xe0\xa4\x82\xe0\xa4\x98\xe0\xa4\xb0\xe0\xa5\x8d\xe0\xa4\xb7'
p271
sS'af'
p272
S'\xe0\xa4\xb8\xe0\xa4\x82\xe0\xa4\x98\xe0\xa4\xb0\xe0\xa5\x8d\xe0\xa4\xb7,n,m,sg,3,d,0,0'
p273
sS'drel'
p274
S'pof__cn:NP5'
p275
sS'chunktype'
p276
S'child:NP5'
p277
sS'cref'
p278
S'i2%0:t2'
p279
ssbsg30
I00
sg31
I00
sg32
Nsg33
Nsg34
I4
sg35
I0
sg36
Nsg37
Nsg38
S'NNC'
p280
sg40
g265
sg41
I00
sba(issf_api
Word
p281
(dp282
g6
I00
sg7
V\u0935\u093f\u0930\u093e\u092e
p283
sg9
(issf_api
FeatureSet
p284
(dp285
g12
(dp286
S'crefhead'
p287
S'\xe0\xa4\xb5\xe0\xa4\xbf\xe0\xa4\xb0\xe0\xa4\xbe\xe0\xa4\xae:i2'
p288
sS'posn'
p289
S'150'
p290
sS'name'
p291
S'\xe0\xa4\xb5\xe0\xa4\xbf\xe0\xa4\xb0\xe0\xa4\xbe\xe0\xa4\xae'
p292
sS'af'
p293
S'\xe0\xa4\xb5\xe0\xa4\xbf\xe0\xa4\xb0\xe0\xa4\xbe\xe0\xa4\xae,n,m,sg,3,o,0_\xe0\xa4\x95\xe0\xa4\xbe,0'
p294
sS'chunkid'
p295
S'NP5'
p296
sS'chunktype'
p297
S'head:NP5'
p298
sS'crefchainhead'
p299
S'i2:t2'
p300
sS'vpos'
p301
S'vib_3'
p302
sS'cref'
p303
S'i2%1:t2'
p304
sS'drel'
p305
S'r6-k2:NP6'
p306
ssbsg30
I00
sg31
I00
sg32
Nsg33
Nsg34
I4
sg35
I0
sg36
Nsg37
Nsg38
S'NN'
p307
sg40
g284
sg41
I00
sba(issf_api
Word
p308
(dp309
g6
I00
sg7
V\u0915\u0940
p310
sg9
(issf_api
FeatureSet
p311
(dp312
g12
(dp313
S'posn'
p314
S'160'
p315
sS'name'
p316
S'\xe0\xa4\x95\xe0\xa5\x80'
p317
sS'drel'
p318
S'lwg__psp:NP5'
p319
sS'chunktype'
p320
S'child:NP5'
p321
sS'af'
p322
S'\xe0\xa4\x95\xe0\xa4\xbe,psp,f,sg,,d,,'
p323
ssbsg30
I00
sg31
I00
sg32
Nsg33
Nsg34
I4
sg35
I0
sg36
Nsg37
Nsg38
S'PSP'
p324
sg40
g311
sg41
I00
sba(issf_api
Word
p325
(dp326
g6
I00
sg7
V\u0918\u094b\u0937\u0923\u093e
p327
sg9
(issf_api
FeatureSet
p328
(dp329
g12
(dp330
S'posn'
p331
S'170'
p332
sS'name'
p333
S'\xe0\xa4\x98\xe0\xa5\x8b\xe0\xa4\xb7\xe0\xa4\xa3\xe0\xa4\xbe'
p334
sS'af'
p335
S'\xe0\xa4\x98\xe0\xa5\x8b\xe0\xa4\xb7\xe0\xa4\xa3\xe0\xa4\xbe,n,f,sg,3,d,0,0'
p336
sS'chunkid'
p337
S'NP6'
p338
sS'drel'
p339
S'pof:VGF'
p340
sS'chunktype'
p341
S'head:NP6'
p342
ssbsg30
I00
sg31
I00
sg32
Nsg33
Nsg34
I5
sg35
I0
sg36
Nsg37
Nsg38
S'NN'
p343
sg40
g328
sg41
I00
sba(issf_api
Word
p344
(dp345
g6
I00
sg7
V\u0915\u0940
p346
sg9
(issf_api
FeatureSet
p347
(dp348
g12
(dp349
S'posn'
p350
S'180'
p351
sS'name'
p352
S'\xe0\xa4\x95\xe0\xa5\x802'
p353
sS'af'
p354
S'\xe0\xa4\x95\xe0\xa4\xb0,v,f,sg,3,,\xe0\xa4\xaf\xe0\xa4\xbe_\xe0\xa4\xb9\xe0\xa5\x88,yA'
p355
sS'chunkid'
p356
S'VGF'
p357
sS'chunktype'
p358
S'head:VGF'
p359
sS'voicetype'
p360
S'active'
p361
sS'vpos'
p362
S'tam_2'
p363
sS'stype'
p364
S'declarative'
p365
ssbsg30
I00
sg31
I00
sg32
Nsg33
Nsg34
I6
sg35
I0
sg36
Nsg37
Nsg38
S'VM'
p366
sg40
g347
sg41
I00
sba(issf_api
Word
p367
(dp368
g6
I00
sg7
V\u0939\u0948
p369
sg9
(issf_api
FeatureSet
p370
(dp371
g12
(dp372
S'posn'
p373
S'190'
p374
sS'name'
p375
S'\xe0\xa4\xb9\xe0\xa5\x88'
p376
sS'drel'
p377
S'lwg__vaux:VGF'
p378
sS'chunktype'
p379
S'child:VGF'
p380
sS'af'
p381
S'\xe0\xa4\xb9\xe0\xa5\x88,v,any,sg,3,,\xe0\xa4\xb9\xe0\xa5\x88,hE'
p382
ssbsg30
I00
sg31
I00
sg32
Nsg33
Nsg34
I6
sg35
I0
sg36
Nsg37
Nsg38
S'VAUX'
p383
sg40
g370
sg41
I00
sba(issf_api
Word
p384
(dp385
g6
I00
sg7
V\u0964
p386
sg9
(issf_api
FeatureSet
p387
(dp388
g12
(dp389
S'posn'
p390
S'200'
p391
sS'name'
p392
S'\xe0\xa5\xa4'
p393
sS'af'
p394
S'\xe0\xa5\xa4,punc,,,,,,'
p395
sS'chunkid'
p396
S'BLK'
p397
sS'drel'
p398
S'rsym:VGF'
p399
sS'chunktype'
p400
S'head:BLK'
p401
ssbsg30
I00
sg31
I00
sg32
Nsg33
Nsg34
I7
sg35
I0
sg36
Nsg37
Nsg38
S'SYM'
p402
sg40
g387
sg41
I00
sba(issf_api
Word
p403
(dp404
g6
I00
sg7
V\u0930\u093e\u091c\u094d\u092f
p405
sg9
(issf_api
FeatureSet
p406
(dp407
g12
(dp408
S'crefhead'
p409
S'\xe0\xa4\xb0\xe0\xa4\xbe\xe0\xa4\x9c\xe0\xa5\x8d\xe0\xa4\xaf:i3'
p410
sS'posn'
p411
S'10'
p412
sS'name'
p413
S'\xe0\xa4\xb0\xe0\xa4\xbe\xe0\xa4\x9c\xe0\xa5\x8d\xe0\xa4\xaf'
p414
sS'af'
p415
S'\xe0\xa4\xb0\xe0\xa4\xbe\xe0\xa4\x9c\xe0\xa5\x8d\xe0\xa4\xaf,n,m,sg,3,o,0_\xe0\xa4\x95\xe0\xa4\xbe,0'
p416
sS'acrefmodhead'
p417
S'\xe0\xa4\xb0\xe0\xa4\xbe\xe0\xa4\x9c\xe0\xa5\x8d\xe0\xa4\xaf:m1'
p418
sS'chunkid'
p419
S'NP'
p420
sS'acrefmod'
p421
S'm1%1:i4'
p422
sS'creftype'
p423
S'Coreference-InferedRelation:i1'
p424
sS'chunktype'
p425
S'head:NP'
p426
sS'vpos'
p427
S'vib_2'
p428
sS'cref'
p429
S'i3%1:t1'
p430
sS'drel'
p431
S'r6:NP2'
p432
ssbsg30
I00
sg31
I00
sg32
Nsg33
Nsg34
I0
sg35
I1
sg36
Nsg37
Nsg38
S'NN'
p433
sg40
g406
sg41
I00
sba(issf_api
Word
p434
(dp435
g6
I00
sg7
V\u0915\u0947
p436
sg9
(issf_api
FeatureSet
p437
(dp438
g12
(dp439
S'posn'
p440
S'20'
p441
sS'name'
p442
S'\xe0\xa4\x95\xe0\xa5\x87'
p443
sS'drel'
p444
S'lwg__psp:NP'
p445
sS'chunktype'
p446
S'child:NP'
p447
sS'af'
p448
S'\xe0\xa4\x95\xe0\xa4\xbe,psp,m,sg,,o,,'
p449
ssbsg30
I00
sg31
I00
sg32
Nsg33
Nsg34
I0
sg35
I1
sg36
Nsg37
Nsg38
S'PSP'
p450
sg40
g437
sg41
I00
sba(issf_api
Word
p451
(dp452
g6
I00
sg7
V\u0917\u0943\u0939
p453
sg9
(issf_api
FeatureSet
p454
(dp455
g12
(dp456
S'posn'
p457
S'30'
p458
sS'name'
p459
S'\xe0\xa4\x97\xe0\xa5\x83\xe0\xa4\xb9'
p460
sS'af'
p461
S'\xe0\xa4\x97\xe0\xa5\x83\xe0\xa4\xb9,n,m,sg,3,d,0,0'
p462
sS'drel'
p463
S'pof__cn:NP2'
p464
sS'chunktype'
p465
S'child:NP2'
p466
sS'cref'
p467
S'i4%0:t3'
p468
ssbsg30
I00
sg31
I00
sg32
Nsg33
Nsg34
I1
sg35
I1
sg36
Nsg37
Nsg38
S'NNPC'
p469
sg40
g454
sg41
I00
sba(issf_api
Word
p470
(dp471
g6
I00
sg7
V\u092e\u0902\u0924\u094d\u0930\u0940
p472
sg9
(issf_api
FeatureSet
p473
(dp474
g12
(dp475
S'crefhead'
p476
S'\xe0\xa4\xae\xe0\xa4\x82\xe0\xa4\xa4\xe0\xa5\x8d\xe0\xa4\xb0\xe0\xa5\x80:i4'
p477
sS'posn'
p478
S'40'
p479
sS'name'
p480
S'\xe0\xa4\xae\xe0\xa4\x82\xe0\xa4\xa4\xe0\xa5\x8d\xe0\xa4\xb0\xe0\xa5\x80'
p481
sS'af'
p482
S'\xe0\xa4\xae\xe0\xa4\x82\xe0\xa4\xa4\xe0\xa5\x8d\xe0\xa4\xb0\xe0\xa5\x80,n,m,sg,3,o,0,0'
p483
sS'chunkid'
p484
S'NP2'
p485
sS'crefmod'
p486
S'm1:i4'
p487
sS'chunktype'
p488
S'head:NP2'
p489
sS'cref'
p490
S'i4%1:t3'
p491
sS'drel'
p492
S'nmod:NP3'
p493
ssbsg30
I00
sg31
I00
sg32
Nsg33
Nsg34
I1
sg35
I1
sg36
Nsg37
Nsg38
S'NNP'
p494
sg40
g473
sg41
I00
sba(issf_api
Word
p495
(dp496
g6
I00
sg7
V\u0915\u0947.
p497
sg9
(issf_api
FeatureSet
p498
(dp499
g12
(dp500
S'posn'
p501
S'50'
p502
sS'name'
p503
S'\xe0\xa4\x95\xe0\xa5\x87.'
p504
sS'af'
p505
S'\xe0\xa4\x95\xe0\xa5\x87.,n,m,sg,3,d,0,0'
p506
sS'drel'
p507
S'pof__cn:NP3'
p508
sS'chunktype'
p509
S'child:NP3'
p510
sS'cref'
p511
S'i5%0:t3'
p512
ssbsg30
I00
sg31
I00
sg32
Nsg33
Nsg34
I2
sg35
I1
sg36
Nsg37
Nsg38
S'NNPC'
p513
sg40
g498
sg41
I00
sba(issf_api
Word
p514
(dp515
g6
I00
sg7
V\u091c\u093e\u0928\u093e\u0930\u0947\u0921\u094d\u0921\u0940
p516
sg9
(issf_api
FeatureSet
p517
(dp518
g12
(dp519
S'crefhead'
p520
S'\xe0\xa4\x9c\xe0\xa4\xbe\xe0\xa4\xa8\xe0\xa4\xbe\xe0\xa4\xb0\xe0\xa5\x87\xe0\xa4\xa1\xe0\xa5\x8d\xe0\xa4\xa1\xe0\xa5\x80:i5'
p521
sS'posn'
p522
S'60'
p523
sS'name'
p524
S'\xe0\xa4\x9c\xe0\xa4\xbe\xe0\xa4\xa8\xe0\xa4\xbe\xe0\xa4\xb0\xe0\xa5\x87\xe0\xa4\xa1\xe0\xa5\x8d\xe0\xa4\xa1\xe0\xa5\x80'
p525
sS'af'
p526
S'\xe0\xa4\x9c\xe0\xa4\xbe\xe0\xa4\xa8\xe0\xa4\xbe\xe0\xa4\xb0\xe0\xa5\x87\xe0\xa4\xa1\xe0\xa5\x8d\xe0\xa4\xa1\xe0\xa5\x80,n,m,sg,3,o,0_\xe0\xa4\xa8\xe0\xa5\x87,0'
p527
sS'chunkid'
p528
S'NP3'
p529
sS'creftype'
p530
S'Coreference-NounComplement:i4'
p531
sS'chunktype'
p532
S'head:NP3'
p533
sS'crefchainhead'
p534
S'i5:t3'
p535
sS'vpos'
p536
S'vib_3'
p537
sS'cref'
p538
S'i5%1:t3'
p539
sS'drel'
p540
S'k1:VGF'
p541
ssbsg30
I00
sg31
I00
sg32
Nsg33
Nsg34
I2
sg35
I1
sg36
Nsg37
Nsg38
S'NNP'
p542
sg40
g517
sg41
I00
sba(issf_api
Word
p543
(dp544
g6
I00
sg7
V\u0928\u0947
p545
sg9
(issf_api
FeatureSet
p546
(dp547
g12
(dp548
S'posn'
p549
S'70'
p550
sS'name'
p551
S'\xe0\xa4\xa8\xe0\xa5\x87'
p552
sS'drel'
p553
S'lwg__psp:NP3'
p554
sS'chunktype'
p555
S'child:NP3'
p556
sS'af'
p557
S'\xe0\xa4\xa8\xe0\xa5\x87,psp,,,,,,'
p558
ssbsg30
I00
sg31
I00
sg32
Nsg33
Nsg34
I2
sg35
I1
sg36
Nsg37
Nsg38
S'PSP'
p559
sg40
g546
sg41
I00
sba(issf_api
Word
p560
(dp561
g6
I00
sg7
V\u090f\u0915
p562
sg9
(issf_api
FeatureSet
p563
(dp564
g12
(dp565
S'posn'
p566
S'80'
p567
sS'name'
p568
S'\xe0\xa4\x8f\xe0\xa4\x95'
p569
sS'drel'
p570
S'nmod__adj:NP4'
p571
sS'chunktype'
p572
S'child:NP4'
p573
sS'af'
p574
S'\xe0\xa4\x8f\xe0\xa4\x95,num,any,any,,any,,'
p575
ssbsg30
I00
sg31
I00
sg32
Nsg33
Nsg34
I3
sg35
I1
sg36
Nsg37
Nsg38
S'QC'
p576
sg40
g563
sg41
I00
sba(issf_api
Word
p577
(dp578
g6
I00
sg7
V\u092a\u094d\u0930\u0947\u0938
p579
sg9
(issf_api
FeatureSet
p580
(dp581
g12
(dp582
S'posn'
p583
S'90'
p584
sS'name'
p585
S'\xe0\xa4\xaa\xe0\xa5\x8d\xe0\xa4\xb0\xe0\xa5\x87\xe0\xa4\xb8'
p586
sS'drel'
p587
S'pof__cn:NP4'
p588
sS'chunktype'
p589
S'child:NP4'
p590
sS'af'
p591
S'\xe0\xa4\xaa\xe0\xa5\x8d\xe0\xa4\xb0\xe0\xa5\x87\xe0\xa4\xb8,n,f,sg,3,d,0,0'
p592
ssbsg30
I00
sg31
I00
sg32
Nsg33
Nsg34
I3
sg35
I1
sg36
Nsg37
Nsg38
S'NNC'
p593
sg40
g580
sg41
I00
sba(issf_api
Word
p594
(dp595
g6
I00
sg7
V\u0915\u093e\u0901\u092b\u094d\u0930\u0947\u0902\u0938
p596
sg9
(issf_api
FeatureSet
p597
(dp598
g12
(dp599
S'posn'
p600
S'100'
p601
sS'name'
p602
S'\xe0\xa4\x95\xe0\xa4\xbe\xe0\xa4\x81\xe0\xa4\xab\xe0\xa5\x8d\xe0\xa4\xb0\xe0\xa5\x87\xe0\xa4\x82\xe0\xa4\xb8'
p603
sS'af'
p604
S'\xe0\xa4\x95\xe0\xa4\xbe\xe0\xa4\x81\xe0\xa4\xab\xe0\xa5\x8d\xe0\xa4\xb0\xe0\xa5\x87\xe0\xa4\x82\xe0\xa4\xb8,n,f,sg,3,o,0_\xe0\xa4\xae\xe0\xa5\x87\xe0\xa4\x82,0'
p605
sS'chunkid'
p606
S'NP4'
p607
sS'drel'
p608
S'k7:VGF'
p609
sS'vpos'
p610
S'vib_4'
p611
sS'chunktype'
p612
S'head:NP4'
p613
ssbsg30
I00
sg31
I00
sg32
Nsg33
Nsg34
I3
sg35
I1
sg36
Nsg37
Nsg38
S'NN'
p614
sg40
g597
sg41
I00
sba(issf_api
Word
p615
(dp616
g6
I00
sg7
V\u092e\u0947\u0902
p617
sg9
(issf_api
FeatureSet
p618
(dp619
g12
(dp620
S'posn'
p621
S'110'
p622
sS'name'
p623
S'\xe0\xa4\xae\xe0\xa5\x87\xe0\xa4\x82'
p624
sS'drel'
p625
S'lwg__psp:NP4'
p626
sS'chunktype'
p627
S'child:NP4'
p628
sS'af'
p629
S'\xe0\xa4\xae\xe0\xa5\x87\xe0\xa4\x82,psp,,,,,,'
p630
ssbsg30
I00
sg31
I00
sg32
Nsg33
Nsg34
I3
sg35
I1
sg36
Nsg37
Nsg38
S'PSP'
p631
sg40
g618
sg41
I00
sba(issf_api
Word
p632
(dp633
g6
I00
sg7
V\u0924\u0940\u0928
p634
sg9
(issf_api
FeatureSet
p635
(dp636
g12
(dp637
S'posn'
p638
S'120'
p639
sS'name'
p640
S'\xe0\xa4\xa4\xe0\xa5\x80\xe0\xa4\xa8'
p641
sS'drel'
p642
S'nmod__adj:NP5'
p643
sS'chunktype'
p644
S'child:NP5'
p645
sS'af'
p646
S'\xe0\xa4\xa4\xe0\xa5\x80\xe0\xa4\xa8,num,any,any,,any,,'
p647
ssbsg30
I00
sg31
I00
sg32
Nsg33
Nsg34
I4
sg35
I1
sg36
Nsg37
Nsg38
S'QC'
p648
sg40
g635
sg41
I00
sba(issf_api
Word
p649
(dp650
g6
I00
sg7
V\u092e\u0939\u0940\u0928\u0947
p651
sg9
(issf_api
FeatureSet
p652
(dp653
g12
(dp654
S'posn'
p655
S'130'
p656
sS'name'
p657
S'\xe0\xa4\xae\xe0\xa4\xb9\xe0\xa5\x80\xe0\xa4\xa8\xe0\xa5\x87'
p658
sS'af'
p659
S'\xe0\xa4\xae\xe0\xa4\xb9\xe0\xa5\x80\xe0\xa4\xa8\xe0\xa4\xbe,n,m,sg,3,o,0_\xe0\xa4\x95\xe0\xa5\x87_\xe0\xa4\xb2\xe0\xa4\xbf\xe0\xa4\x8f,0'
p660
sS'chunkid'
p661
S'NP5'
p662
sS'drel'
p663
S'rt:VGF'
p664
sS'vpos'
p665
S'vib_3_4'
p666
sS'chunktype'
p667
S'head:NP5'
p668
ssbsg30
I00
sg31
I00
sg32
Nsg33
Nsg34
I4
sg35
I1
sg36
Nsg37
Nsg38
S'NN'
p669
sg40
g652
sg41
I00
sba(issf_api
Word
p670
(dp671
g6
I00
sg7
V\u0915\u0947
p672
sg9
(issf_api
FeatureSet
p673
(dp674
g12
(dp675
S'posn'
p676
S'140'
p677
sS'name'
p678
S'\xe0\xa4\x95\xe0\xa5\x872'
p679
sS'drel'
p680
S'lwg__psp:NP5'
p681
sS'chunktype'
p682
S'child:NP5'
p683
sS'af'
p684
S'\xe0\xa4\x95\xe0\xa5\x87,psp,,,,,,'
p685
ssbsg30
I00
sg31
I00
sg32
Nsg33
Nsg34
I4
sg35
I1
sg36
Nsg37
Nsg38
S'PSP'
p686
sg40
g673
sg41
I00
sba(issf_api
Word
p687
(dp688
g6
I00
sg7
V\u0932\u093f\u090f
p689
sg9
(issf_api
FeatureSet
p690
(dp691
g12
(dp692
S'posn'
p693
S'150'
p694
sS'name'
p695
S'\xe0\xa4\xb2\xe0\xa4\xbf\xe0\xa4\x8f'
p696
sS'drel'
p697
S'lwg__psp:NP5'
p698
sS'chunktype'
p699
S'child:NP5'
p700
sS'af'
p701
S'\xe0\xa4\xb2\xe0\xa4\xbf\xe0\xa4\x8f,psp,,,,,,'
p702
ssbsg30
I00
sg31
I00
sg32
Nsg33
Nsg34
I4
sg35
I1
sg36
Nsg37
Nsg38
S'PSP'
p703
sg40
g690
sg41
I00
sba(issf_api
Word
p704
(dp705
g6
I00
sg7
V\u0938\u0902\u0918\u0930\u094d\u0937
p706
sg9
(issf_api
FeatureSet
p707
(dp708
g12
(dp709
S'posn'
p710
S'160'
p711
sS'name'
p712
S'\xe0\xa4\xb8\xe0\xa4\x82\xe0\xa4\x98\xe0\xa4\xb0\xe0\xa5\x8d\xe0\xa4\xb7'
p713
sS'af'
p714
S'\xe0\xa4\xb8\xe0\xa4\x82\xe0\xa4\x98\xe0\xa4\xb0\xe0\xa5\x8d\xe0\xa4\xb7,n,m,sg,3,d,0,0'
p715
sS'drel'
p716
S'pof__cn:NP6'
p717
sS'chunktype'
p718
S'child:NP6'
p719
sS'cref'
p720
S'i6%0:t2'
p721
ssbsg30
I00
sg31
I00
sg32
Nsg33
Nsg34
I5
sg35
I1
sg36
Nsg37
Nsg38
S'NNC'
p722
sg40
g707
sg41
I00
sba(issf_api
Word
p723
(dp724
g6
I00
sg7
V\u0935\u093f\u0930\u093e\u092e
p725
sg9
(issf_api
FeatureSet
p726
(dp727
g12
(dp728
S'crefhead'
p729
S'\xe0\xa4\xb5\xe0\xa4\xbf\xe0\xa4\xb0\xe0\xa4\xbe\xe0\xa4\xae:i6'
p730
sS'posn'
p731
S'170'
p732
sS'name'
p733
S'\xe0\xa4\xb5\xe0\xa4\xbf\xe0\xa4\xb0\xe0\xa4\xbe\xe0\xa4\xae'
p734
sS'af'
p735
S'\xe0\xa4\xb5\xe0\xa4\xbf\xe0\xa4\xb0\xe0\xa4\xbe\xe0\xa4\xae,n,m,sg,3,o,0_\xe0\xa4\x95\xe0\xa4\xbe,0'
p736
sS'chunkid'
p737
S'NP6'
p738
sS'creftype'
p739
S'Coreference-Identity:i2'
p740
sS'chunktype'
p741
S'head:NP6'
p742
sS'vpos'
p743
S'vib_3'
p744
sS'cref'
p745
S'i6%1:t2'
p746
sS'drel'
p747
S'r6-k2:NP7'
p748
ssbsg30
I00
sg31
I00
sg32
Nsg33
Nsg34
I5
sg35
I1
sg36
Nsg37
Nsg38
S'NN'
p749
sg40
g726
sg41
I00
sba(issf_api
Word
p750
(dp751
g6
I00
sg7
V\u0915\u0940
p752
sg9
(issf_api
FeatureSet
p753
(dp754
g12
(dp755
S'posn'
p756
S'180'
p757
sS'name'
p758
S'\xe0\xa4\x95\xe0\xa5\x80'
p759
sS'drel'
p760
S'lwg__psp:NP6'
p761
sS'chunktype'
p762
S'child:NP6'
p763
sS'af'
p764
S'\xe0\xa4\x95\xe0\xa4\xbe,psp,f,sg,,d,,'
p765
ssbsg30
I00
sg31
I00
sg32
Nsg33
Nsg34
I5
sg35
I1
sg36
Nsg37
Nsg38
S'PSP'
p766
sg40
g753
sg41
I00
sba(issf_api
Word
p767
(dp768
g6
I00
sg7
V\u0918\u094b\u0937\u0923\u093e
p769
sg9
(issf_api
FeatureSet
p770
(dp771
g12
(dp772
S'posn'
p773
S'190'
p774
sS'name'
p775
S'\xe0\xa4\x98\xe0\xa5\x8b\xe0\xa4\xb7\xe0\xa4\xa3\xe0\xa4\xbe'
p776
sS'af'
p777
S'\xe0\xa4\x98\xe0\xa5\x8b\xe0\xa4\xb7\xe0\xa4\xa3\xe0\xa4\xbe,n,f,sg,3,d,0,0'
p778
sS'chunkid'
p779
S'NP7'
p780
sS'drel'
p781
S'pof:VGF'
p782
sS'chunktype'
p783
S'head:NP7'
p784
ssbsg30
I00
sg31
I00
sg32
Nsg33
Nsg34
I6
sg35
I1
sg36
Nsg37
Nsg38
S'NN'
p785
sg40
g770
sg41
I00
sba(issf_api
Word
p786
(dp787
g6
I00
sg7
V\u0915\u0940
p788
sg9
(issf_api
FeatureSet
p789
(dp790
g12
(dp791
S'posn'
p792
S'200'
p793
sS'name'
p794
S'\xe0\xa4\x95\xe0\xa5\x802'
p795
sS'af'
p796
S'\xe0\xa4\x95\xe0\xa4\xb0,v,f,sg,any,,\xe0\xa4\xaf\xe0\xa4\xbe,yA'
p797
sS'chunkid'
p798
S'VGF'
p799
sS'chunktype'
p800
S'head:VGF'
p801
sS'voicetype'
p802
S'active'
p803
sS'stype'
p804
S'declarative'
p805
ssbsg30
I00
sg31
I00
sg32
Nsg33
Nsg34
I7
sg35
I1
sg36
Nsg37
Nsg38
S'VM'
p806
sg40
g789
sg41
I00
sba(issf_api
Word
p807
(dp808
g6
I00
sg7
V\u0964
p809
sg9
(issf_api
FeatureSet
p810
(dp811
g12
(dp812
S'posn'
p813
S'210'
p814
sS'name'
p815
S'\xe0\xa5\xa4'
p816
sS'af'
p817
S'\xe0\xa5\xa4,punc,,,,,,'
p818
sS'chunkid'
p819
S'BLK'
p820
sS'drel'
p821
S'rsym:VGF'
p822
sS'chunktype'
p823
S'head:BLK'
p824
ssbsg30
I00
sg31
I00
sg32
Nsg33
Nsg34
I8
sg35
I1
sg36
Nsg37
Nsg38
S'SYM'
p825
sg40
g810
sg41
I00
sba(issf_api
Word
p826
(dp827
g6
I00
sg7
V\u092e\u0902\u0917\u0932\u0935\u093e\u0930
p828
sg9
(issf_api
FeatureSet
p829
(dp830
g12
(dp831
S'posn'
p832
S'10'
p833
sS'name'
p834
S'\xe0\xa4\xae\xe0\xa4\x82\xe0\xa4\x97\xe0\xa4\xb2\xe0\xa4\xb5\xe0\xa4\xbe\xe0\xa4\xb0'
p835
sS'af'
p836
S'\xe0\xa4\xae\xe0\xa4\x82\xe0\xa4\x97\xe0\xa4\xb2\xe0\xa4\xb5\xe0\xa4\xbe\xe0\xa4\xb0,n,m,sg,3,o,0_\xe0\xa4\x95\xe0\xa5\x8b,0'
p837
sS'chunkid'
p838
S'NP'
p839
sS'drel'
p840
S'k7t:VGF'
p841
sS'vpos'
p842
S'vib_2'
p843
sS'chunktype'
p844
S'head:NP'
p845
ssbsg30
I00
sg31
I00
sg32
Nsg33
Nsg34
I0
sg35
I2
sg36
Nsg37
Nsg38
S'NNP'
p846
sg40
g829
sg41
I00
sba(issf_api
Word
p847
(dp848
g6
I00
sg7
V\u0915\u094b
p849
sg9
(issf_api
FeatureSet
p850
(dp851
g12
(dp852
S'posn'
p853
S'20'
p854
sS'name'
p855
S'\xe0\xa4\x95\xe0\xa5\x8b'
p856
sS'drel'
p857
S'lwg__psp:NP'
p858
sS'chunktype'
p859
S'child:NP'
p860
sS'af'
p861
S'\xe0\xa4\x95\xe0\xa5\x8b,psp,,,,,,'
p862
ssbsg30
I00
sg31
I00
sg32
Nsg33
Nsg34
I0
sg35
I2
sg36
Nsg37
Nsg38
S'PSP'
p863
sg40
g850
sg41
I00
sba(issf_api
Word
p864
(dp865
g6
I00
sg7
V\u0928\u0915\u094d\u0938\u0932\u0940
p866
sg9
(issf_api
FeatureSet
p867
(dp868
g12
(dp869
S'posn'
p870
S'30'
p871
sS'name'
p872
S'\xe0\xa4\xa8\xe0\xa4\x95\xe0\xa5\x8d\xe0\xa4\xb8\xe0\xa4\xb2\xe0\xa5\x80'
p873
sS'af'
p874
S'\xe0\xa4\xa8\xe0\xa4\x95\xe0\xa5\x8d\xe0\xa4\xb8\xe0\xa4\xb2\xe0\xa5\x80,adj,any,any,,d,,'
p875
sS'drel'
p876
S'nmod__adj:NP2'
p877
sS'chunktype'
p878
S'child:NP2'
p879
sS'cref'
p880
S'i7%0:t4'
p881
ssbsg30
I00
sg31
I00
sg32
Nsg33
Nsg34
I1
sg35
I2
sg36
Nsg37
Nsg38
S'JJ'
p882
sg40
g867
sg41
I00
sba(issf_api
Word
p883
(dp884
g6
I00
sg7
V\u0938\u0902\u0917\u0920\u0928
p885
sg9
(issf_api
FeatureSet
p886
(dp887
g12
(dp888
S'crefhead'
p889
S'\xe0\xa4\xb8\xe0\xa4\x82\xe0\xa4\x97\xe0\xa4\xa0\xe0\xa4\xa8:i7'
p890
sS'posn'
p891
S'40'
p892
sS'name'
p893
S'\xe0\xa4\xb8\xe0\xa4\x82\xe0\xa4\x97\xe0\xa4\xa0\xe0\xa4\xa8'
p894
sS'af'
p895
S'\xe0\xa4\xb8\xe0\xa4\x82\xe0\xa4\x97\xe0\xa4\xa0\xe0\xa4\xa8,n,m,sg,3,o,0,0'
p896
sS'chunkid'
p897
S'NP2'
p898
sS'drel'
p899
S'nmod:NP3'
p900
sS'chunktype'
p901
S'head:NP2'
p902
sS'cref'
p903
S'i7%1:t4'
p904
ssbsg30
I00
sg31
I00
sg32
Nsg33
Nsg34
I1
sg35
I2
sg36
Nsg37
Nsg38
S'NN'
p905
sg40
g886
sg41
I00
sba(issf_api
Word
p906
(dp907
g6
I00
sg7
V\u092a\u0940\u092a\u0941\u0932\u094d\u0938
p908
sg9
(issf_api
FeatureSet
p909
(dp910
g12
(dp911
S'posn'
p912
S'50'
p913
sS'name'
p914
S'\xe0\xa4\xaa\xe0\xa5\x80\xe0\xa4\xaa\xe0\xa5\x81\xe0\xa4\xb2\xe0\xa5\x8d\xe0\xa4\xb8'
p915
sS'af'
p916
S'\xe0\xa4\xaa\xe0\xa5\x80\xe0\xa4\xaa\xe0\xa5\x81\xe0\xa4\xb2,n,m,pl,3,d,0,0'
p917
sS'drel'
p918
S'pof__cn:NP3'
p919
sS'chunktype'
p920
S'child:NP3'
p921
sS'cref'
p922
S'i8%0:t4'
p923
ssbsg30
I00
sg31
I00
sg32
Nsg33
Nsg34
I2
sg35
I2
sg36
Nsg37
Nsg38
S'NNPC'
p924
sg40
g909
sg41
I00
sba(issf_api
Word
p925
(dp926
g6
I00
sg7
V\u0935\u093e\u0930
p927
sg9
(issf_api
FeatureSet
p928
(dp929
g12
(dp930
S'posn'
p931
S'60'
p932
sS'name'
p933
S'\xe0\xa4\xb5\xe0\xa4\xbe\xe0\xa4\xb0'
p934
sS'af'
p935
S'\xe0\xa4\xb5\xe0\xa4\xbe\xe0\xa4\xb0,n,m,sg,3,d,0,0'
p936
sS'drel'
p937
S'pof__cn:NP3'
p938
sS'chunktype'
p939
S'child:NP3'
p940
sS'cref'
p941
S'i8%0:t4'
p942
ssbsg30
I00
sg31
I00
sg32
Nsg33
Nsg34
I2
sg35
I2
sg36
Nsg37
Nsg38
S'NNPC'
p943
sg40
g928
sg41
I00
sba(issf_api
Word
p944
(dp945
g6
I00
sg7
V\u0917\u094d\u0930\u0941\u092a
p946
sg9
(issf_api
FeatureSet
p947
(dp948
g12
(dp949
S'crefhead'
p950
S'\xe0\xa4\x97\xe0\xa5\x8d\xe0\xa4\xb0\xe0\xa5\x81\xe0\xa4\xaa:i8'
p951
sS'posn'
p952
S'70'
p953
sS'name'
p954
S'\xe0\xa4\x97\xe0\xa5\x8d\xe0\xa4\xb0\xe0\xa5\x81\xe0\xa4\xaa'
p955
sS'af'
p956
S'\xe0\xa4\x97\xe0\xa5\x8d\xe0\xa4\xb0\xe0\xa5\x81\xe0\xa4\xaa,n,m,sg,3,o,0_\xe0\xa4\xa8\xe0\xa5\x87,0'
p957
sS'chunkid'
p958
S'NP3'
p959
sS'creftype'
p960
S'Coreference-NounComplement:i7'
p961
sS'chunktype'
p962
S'head:NP3'
p963
sS'crefchainhead'
p964
S'i8:t4'
p965
sS'vpos'
p966
S'vib_4'
p967
sS'cref'
p968
S'i8%1:t4'
p969
sS'drel'
p970
S'k1:VGF'
p971
ssbsg30
I00
sg31
I00
sg32
Nsg33
Nsg34
I2
sg35
I2
sg36
Nsg37
Nsg38
S'NNP'
p972
sg40
g947
sg41
I00
sba(issf_api
Word
p973
(dp974
g6
I00
sg7
V\u0928\u0947
p975
sg9
(issf_api
FeatureSet
p976
(dp977
g12
(dp978
S'posn'
p979
S'80'
p980
sS'name'
p981
S'\xe0\xa4\xa8\xe0\xa5\x87'
p982
sS'drel'
p983
S'lwg__psp:NP3'
p984
sS'chunktype'
p985
S'child:NP3'
p986
sS'af'
p987
S'\xe0\xa4\xa8\xe0\xa5\x87,psp,,,,,,'
p988
ssbsg30
I00
sg31
I00
sg32
Nsg33
Nsg34
I2
sg35
I2
sg36
Nsg37
Nsg38
S'PSP'
p989
sg40
g976
sg41
I00
sba(issf_api
Word
p990
(dp991
g6
I00
sg7
V\u0938\u0902\u0918\u0930\u094d\u0937
p992
sg9
(issf_api
FeatureSet
p993
(dp994
g12
(dp995
S'posn'
p996
S'90'
p997
sS'name'
p998
S'\xe0\xa4\xb8\xe0\xa4\x82\xe0\xa4\x98\xe0\xa4\xb0\xe0\xa5\x8d\xe0\xa4\xb7'
p999
sS'af'
p1000
S'\xe0\xa4\xb8\xe0\xa4\x82\xe0\xa4\x98\xe0\xa4\xb0\xe0\xa5\x8d\xe0\xa4\xb7,n,m,sg,3,d,0,0'
p1001
sS'drel'
p1002
S'pof__cn:NP4'
p1003
sS'chunktype'
p1004
S'child:NP4'
p1005
sS'cref'
p1006
S'i9%0:t2'
p1007
ssbsg30
I00
sg31
I00
sg32
Nsg33
Nsg34
I3
sg35
I2
sg36
Nsg37
Nsg38
S'NNC'
p1008
sg40
g993
sg41
I00
sba(issf_api
Word
p1009
(dp1010
g6
I00
sg7
V\u0935\u093f\u0930\u093e\u092e
p1011
sg9
(issf_api
FeatureSet
p1012
(dp1013
g12
(dp1014
S'crefhead'
p1015
S'\xe0\xa4\xb5\xe0\xa4\xbf\xe0\xa4\xb0\xe0\xa4\xbe\xe0\xa4\xae:i9'
p1016
sS'posn'
p1017
S'100'
p1018
sS'name'
p1019
S'\xe0\xa4\xb5\xe0\xa4\xbf\xe0\xa4\xb0\xe0\xa4\xbe\xe0\xa4\xae'
p1020
sS'af'
p1021
S'\xe0\xa4\xb5\xe0\xa4\xbf\xe0\xa4\xb0\xe0\xa4\xbe\xe0\xa4\xae,n,m,sg,3,o,0,0'
p1022
sS'chunkid'
p1023
S'NP4'
p1024
sS'creftype'
p1025
S'Coreference-Identity:i6'
p1026
sS'chunktype'
p1027
S'head:NP4'
p1028
sS'cref'
p1029
S'i9%1:t2'
p1030
sS'drel'
p1031
S'rs:NP5'
p1032
ssbsg30
I00
sg31
I00
sg32
Nsg33
Nsg34
I3
sg35
I2
sg36
Nsg37
Nsg38
S'NN'
p1033
sg40
g1012
sg41
I00
sba(issf_api
Word
p1034
(dp1035
g6
I00
sg7
V,
p1036
sg9
(issf_api
FeatureSet
p1037
(dp1038
g12
(dp1039
S'posn'
p1040
S'110'
p1041
sS'name'
p1042
S','
p1043
sS'drel'
p1044
S'rsym:NP4'
p1045
sS'chunktype'
p1046
S'child:NP4'
p1047
sS'af'
p1048
S'COMMA,punc,,,,,,'
p1049
ssbsg30
I00
sg31
I00
sg32
Nsg33
Nsg34
I3
sg35
I2
sg36
Nsg37
Nsg38
S'SYM'
p1050
sg40
g1037
sg41
I00
sba(issf_api
Word
p1051
(dp1052
g6
I00
sg7
V\u0907\u0938\u0915\u0947
p1053
sg9
(issf_api
FeatureSet
p1054
(dp1055
g12
(dp1056
S'crefhead'
p1057
S'\xe0\xa4\x87\xe0\xa4\xb8\xe0\xa4\x95\xe0\xa5\x87:i10'
p1058
sS'posn'
p1059
S'120'
p1060
sS'name'
p1061
S'\xe0\xa4\x87\xe0\xa4\xb8\xe0\xa4\x95\xe0\xa5\x87'
p1062
sS'af'
p1063
S'\xe0\xa4\xaf\xe0\xa4\xb9,pn,m,sg,3,o,\xe0\xa4\x95\xe0\xa4\xbe,kA'
p1064
sS'chunkid'
p1065
S'NP5'
p1066
sS'creftype'
p1067
S'Anaphora-C:i9'
p1068
sS'chunktype'
p1069
S'head:NP5'
p1070
sS'cref'
p1071
S'i10%1:t2'
p1072
sS'drel'
p1073
S'k1:VGNN'
p1074
ssbsg30
I00
sg31
I00
sg32
Nsg33
Nsg34
I4
sg35
I2
sg36
Nsg37
Nsg38
S'PRP'
p1075
sg40
g1054
sg41
I00
sba(issf_api
Word
p1076
(dp1077
g6
I00
sg7
V\u0932\u093e\u0917\u0942
p1078
sg9
(issf_api
FeatureSet
p1079
(dp1080
g12
(dp1081
S'posn'
p1082
S'130'
p1083
sS'name'
p1084
S'\xe0\xa4\xb2\xe0\xa4\xbe\xe0\xa4\x97\xe0\xa5\x82'
p1085
sS'af'
p1086
S'\xe0\xa4\xb2\xe0\xa4\xbe\xe0\xa4\x97\xe0\xa5\x82,adj,any,any,,,,'
p1087
sS'chunkid'
p1088
S'JJP'
p1089
sS'drel'
p1090
S'pof:VGNN'
p1091
sS'chunktype'
p1092
S'head:JJP'
p1093
ssbsg30
I00
sg31
I00
sg32
Nsg33
Nsg34
I5
sg35
I2
sg36
Nsg37
Nsg38
S'JJ'
p1094
sg40
g1079
sg41
I00
sba(issf_api
Word
p1095
(dp1096
g6
I00
sg7
V\u0939\u094b\u0928\u0947
p1097
sg9
(issf_api
FeatureSet
p1098
(dp1099
g12
(dp1100
S'posn'
p1101
S'140'
p1102
sS'name'
p1103
S'\xe0\xa4\xb9\xe0\xa5\x8b\xe0\xa4\xa8\xe0\xa5\x87'
p1104
sS'af'
p1105
S'\xe0\xa4\xb9\xe0\xa5\x8b,v,any,any,any,o,\xe0\xa4\xa8\xe0\xa4\xbe_\xe0\xa4\xaa\xe0\xa4\xb0,nA'
p1106
sS'chunkid'
p1107
S'VGNN'
p1108
sS'drel'
p1109
S'k7:VGF'
p1110
sS'vpos'
p1111
S'tam_2'
p1112
sS'chunktype'
p1113
S'head:VGNN'
p1114
ssbsg30
I00
sg31
I00
sg32
Nsg33
Nsg34
I6
sg35
I2
sg36
Nsg37
Nsg38
S'VM'
p1115
sg40
g1098
sg41
I00
sba(issf_api
Word
p1116
(dp1117
g6
I00
sg7
V\u092a\u0930
p1118
sg9
(issf_api
FeatureSet
p1119
(dp1120
g12
(dp1121
S'posn'
p1122
S'150'
p1123
sS'name'
p1124
S'\xe0\xa4\xaa\xe0\xa4\xb0'
p1125
sS'drel'
p1126
S'lwg__psp:VGNN'
p1127
sS'chunktype'
p1128
S'child:VGNN'
p1129
sS'af'
p1130
S'\xe0\xa4\xaa\xe0\xa4\xb0,psp,,,,,,'
p1131
ssbsg30
I00
sg31
I00
sg32
Nsg33
Nsg34
I6
sg35
I2
sg36
Nsg37
Nsg38
S'PSP'
p1132
sg40
g1119
sg41
I00
sba(issf_api
Word
p1133
(dp1134
g6
I00
sg7
V\u092a\u0921\u093c\u0928\u0947
p1135
sg9
(issf_api
FeatureSet
p1136
(dp1137
g12
(dp1138
S'posn'
p1139
S'160'
p1140
sS'name'
p1141
S'\xe0\xa4\xaa\xe0\xa4\xa1\xe0\xa4\xbc\xe0\xa4\xa8\xe0\xa5\x87'
p1142
sS'af'
p1143
S'\xe0\xa4\xaa\xe0\xa4\xa1\xe0\xa4\xbc,v,any,sg,any,o,\xe0\xa4\xa8\xe0\xa4\xbe_\xe0\xa4\xb5\xe0\xa4\xbe\xe0\xa4\xb2\xe0\xa4\xbe,nA'
p1144
sS'chunkid'
p1145
S'VGNN2'
p1146
sS'drel'
p1147
S'nmod:NP6'
p1148
sS'vpos'
p1149
S'tam_2'
p1150
sS'chunktype'
p1151
S'head:VGNN2'
p1152
ssbsg30
I00
sg31
I00
sg32
Nsg33
Nsg34
I7
sg35
I2
sg36
Nsg37
Nsg38
S'VM'
p1153
sg40
g1136
sg41
I00
sba(issf_api
Word
p1154
(dp1155
g6
I00
sg7
V\u0935\u093e\u0932\u0947
p1156
sg9
(issf_api
FeatureSet
p1157
(dp1158
g12
(dp1159
S'posn'
p1160
S'170'
p1161
sS'name'
p1162
S'\xe0\xa4\xb5\xe0\xa4\xbe\xe0\xa4\xb2\xe0\xa5\x87'
p1163
sS'drel'
p1164
S'lwg__psp:VGNN2'
p1165
sS'chunktype'
p1166
S'child:VGNN2'
p1167
sS'af'
p1168
S'\xe0\xa4\xb5\xe0\xa4\xbe\xe0\xa4\xb2\xe0\xa4\xbe,psp,m,sg,,o,,'
p1169
ssbsg30
I00
sg31
I00
sg32
Nsg33
Nsg34
I7
sg35
I2
sg36
Nsg37
Nsg38
S'PSP'
p1170
sg40
g1157
sg41
I00
sba(issf_api
Word
p1171
(dp1172
g6
I00
sg7
V\u092a\u094d\u0930\u092d\u093e\u0935
p1173
sg9
(issf_api
FeatureSet
p1174
(dp1175
g12
(dp1176
S'posn'
p1177
S'180'
p1178
sS'name'
p1179
S'\xe0\xa4\xaa\xe0\xa5\x8d\xe0\xa4\xb0\xe0\xa4\xad\xe0\xa4\xbe\xe0\xa4\xb5'
p1180
sS'af'
p1181
S'\xe0\xa4\xaa\xe0\xa5\x8d\xe0\xa4\xb0\xe0\xa4\xad\xe0\xa4\xbe\xe0\xa4\xb5,n,m,sg,3,o,0_\xe0\xa4\x95\xe0\xa4\xbe,0'
p1182
sS'chunkid'
p1183
S'NP6'
p1184
sS'drel'
p1185
S'r6-k2:NP7'
p1186
sS'vpos'
p1187
S'vib_2'
p1188
sS'chunktype'
p1189
S'head:NP6'
p1190
ssbsg30
I00
sg31
I00
sg32
Nsg33
Nsg34
I8
sg35
I2
sg36
Nsg37
Nsg38
S'NN'
p1191
sg40
g1174
sg41
I00
sba(issf_api
Word
p1192
(dp1193
g6
I00
sg7
V\u0915\u093e
p1194
sg9
(issf_api
FeatureSet
p1195
(dp1196
g12
(dp1197
S'posn'
p1198
S'190'
p1199
sS'name'
p1200
S'\xe0\xa4\x95\xe0\xa4\xbe'
p1201
sS'drel'
p1202
S'lwg__psp:NP6'
p1203
sS'chunktype'
p1204
S'child:NP6'
p1205
sS'af'
p1206
S'\xe0\xa4\x95\xe0\xa4\xbe,psp,m,sg,,d,,'
p1207
ssbsg30
I00
sg31
I00
sg32
Nsg33
Nsg34
I8
sg35
I2
sg36
Nsg37
Nsg38
S'PSP'
p1208
sg40
g1195
sg41
I00
sba(issf_api
Word
p1209
(dp1210
g6
I00
sg7
V\u0905\u0927\u094d\u092f\u092f\u0928
p1211
sg9
(issf_api
FeatureSet
p1212
(dp1213
g12
(dp1214
S'posn'
p1215
S'200'
p1216
sS'name'
p1217
S'\xe0\xa4\x85\xe0\xa4\xa7\xe0\xa5\x8d\xe0\xa4\xaf\xe0\xa4\xaf\xe0\xa4\xa8'
p1218
sS'af'
p1219
S'\xe0\xa4\x85\xe0\xa4\xa7\xe0\xa5\x8d\xe0\xa4\xaf\xe0\xa4\xaf\xe0\xa4\xa8,n,m,sg,3,d,0,0'
p1220
sS'chunkid'
p1221
S'NP7'
p1222
sS'drel'
p1223
S'pof:VGNN3'
p1224
sS'chunktype'
p1225
S'head:NP7'
p1226
ssbsg30
I00
sg31
I00
sg32
Nsg33
Nsg34
I9
sg35
I2
sg36
Nsg37
Nsg38
S'NN'
p1227
sg40
g1212
sg41
I00
sba(issf_api
Word
p1228
(dp1229
g6
I00
sg7
V\u0915\u0930\u0928\u0947
p1230
sg9
(issf_api
FeatureSet
p1231
(dp1232
g12
(dp1233
S'posn'
p1234
S'210'
p1235
sS'name'
p1236
S'\xe0\xa4\x95\xe0\xa4\xb0\xe0\xa4\xa8\xe0\xa5\x87'
p1237
sS'af'
p1238
S'\xe0\xa4\x95\xe0\xa4\xb0,v,any,any,any,o,\xe0\xa4\xa8\xe0\xa4\xbe_\xe0\xa4\x95\xe0\xa5\x87_\xe0\xa4\xb2\xe0\xa4\xbf\xe0\xa4\x8f,nA'
p1239
sS'chunkid'
p1240
S'VGNN3'
p1241
sS'drel'
p1242
S'rt:VGNN4'
p1243
sS'vpos'
p1244
S'tam_2_3'
p1245
sS'chunktype'
p1246
S'head:VGNN3'
p1247
ssbsg30
I00
sg31
I00
sg32
Nsg33
Nsg34
I10
sg35
I2
sg36
Nsg37
Nsg38
S'VM'
p1248
sg40
g1231
sg41
I00
sba(issf_api
Word
p1249
(dp1250
g6
I00
sg7
V\u0915\u0947
p1251
sg9
(issf_api
FeatureSet
p1252
(dp1253
g12
(dp1254
S'posn'
p1255
S'220'
p1256
sS'name'
p1257
S'\xe0\xa4\x95\xe0\xa5\x87'
p1258
sS'drel'
p1259
S'lwg__psp:VGNN3'
p1260
sS'chunktype'
p1261
S'child:VGNN3'
p1262
sS'af'
p1263
S'\xe0\xa4\x95\xe0\xa5\x87,psp,,,,,,'
p1264
ssbsg30
I00
sg31
I00
sg32
Nsg33
Nsg34
I10
sg35
I2
sg36
Nsg37
Nsg38
S'PSP'
p1265
sg40
g1252
sg41
I00
sba(issf_api
Word
p1266
(dp1267
g6
I00
sg7
V\u0932\u093f\u090f
p1268
sg9
(issf_api
FeatureSet
p1269
(dp1270
g12
(dp1271
S'posn'
p1272
S'230'
p1273
sS'name'
p1274
S'\xe0\xa4\xb2\xe0\xa4\xbf\xe0\xa4\x8f'
p1275
sS'drel'
p1276
S'lwg__psp:VGNN3'
p1277
sS'chunktype'
p1278
S'child:VGNN3'
p1279
sS'af'
p1280
S'\xe0\xa4\xb2\xe0\xa4\xbf\xe0\xa4\x8f,psp,,,,,,'
p1281
ssbsg30
I00
sg31
I00
sg32
Nsg33
Nsg34
I10
sg35
I2
sg36
Nsg37
Nsg38
S'PSP'
p1282
sg40
g1269
sg41
I00
sba(issf_api
Word
p1283
(dp1284
g6
I00
sg7
V\u0915\u092e\u0947\u091f\u0940
p1285
sg9
(issf_api
FeatureSet
p1286
(dp1287
g12
(dp1288
S'crefhead'
p1289
S'\xe0\xa4\x95\xe0\xa4\xae\xe0\xa5\x87\xe0\xa4\x9f\xe0\xa5\x80:i11'
p1290
sS'posn'
p1291
S'240'
p1292
sS'name'
p1293
S'\xe0\xa4\x95\xe0\xa4\xae\xe0\xa5\x87\xe0\xa4\x9f\xe0\xa5\x80'
p1294
sS'af'
p1295
S'\xe0\xa4\x95\xe0\xa4\xae\xe0\xa5\x87\xe0\xa4\x9f\xe0\xa5\x80,n,f,sg,3,d,0,0'
p1296
sS'chunkid'
p1297
S'NP8'
p1298
sS'chunktype'
p1299
S'head:NP8'
p1300
sS'crefchainhead'
p1301
S'i11:t5'
p1302
sS'cref'
p1303
S'i11%1:t5'
p1304
sS'drel'
p1305
S'k2:VGNN4'
p1306
ssbsg30
I00
sg31
I00
sg32
Nsg33
Nsg34
I11
sg35
I2
sg36
Nsg37
Nsg38
S'NN'
p1307
sg40
g1286
sg41
I00
sba(issf_api
Word
p1308
(dp1309
g6
I00
sg7
V\u092c\u0928\u093e\u0928\u0947
p1310
sg9
(issf_api
FeatureSet
p1311
(dp1312
g12
(dp1313
S'posn'
p1314
S'250'
p1315
sS'name'
p1316
S'\xe0\xa4\xac\xe0\xa4\xa8\xe0\xa4\xbe\xe0\xa4\xa8\xe0\xa5\x87'
p1317
sS'af'
p1318
S'\xe0\xa4\xac\xe0\xa4\xa8\xe0\xa4\xbe,v,any,any,any,o,\xe0\xa4\xa8\xe0\xa4\xbe,nA'
p1319
sS'chunkid'
p1320
S'VGNN4'
p1321
sS'drel'
p1322
S'ccof:CCP'
p1323
sS'chunktype'
p1324
S'head:VGNN4'
p1325
ssbsg30
I00
sg31
I00
sg32
Nsg33
Nsg34
I12
sg35
I2
sg36
Nsg37
Nsg38
S'VM'
p1326
sg40
g1311
sg41
I00
sba(issf_api
Word
p1327
(dp1328
g6
I00
sg7
V\u0914\u0930
p1329
sg9
(issf_api
FeatureSet
p1330
(dp1331
g12
(dp1332
S'posn'
p1333
S'260'
p1334
sS'name'
p1335
S'\xe0\xa4\x94\xe0\xa4\xb0'
p1336
sS'af'
p1337
S'\xe0\xa4\x94\xe0\xa4\xb0,avy,,,,,,'
p1338
sS'chunkid'
p1339
S'CCP'
p1340
sS'drel'
p1341
S'rt:VGNN6'
p1342
sS'chunktype'
p1343
S'head:CCP'
p1344
ssbsg30
I00
sg31
I00
sg32
Nsg33
Nsg34
I13
sg35
I2
sg36
Nsg37
Nsg38
S'CC'
p1345
sg40
g1330
sg41
I00
sba(issf_api
Word
p1346
(dp1347
g6
I00
sg7
V\u0907\u0938\u0915\u0947
p1348
sg9
(issf_api
FeatureSet
p1349
(dp1350
g12
(dp1351
S'crefhead'
p1352
S'\xe0\xa4\x87\xe0\xa4\xb8\xe0\xa4\x95\xe0\xa5\x87:i12'
p1353
sS'posn'
p1354
S'270'
p1355
sS'name'
p1356
S'\xe0\xa4\x87\xe0\xa4\xb8\xe0\xa4\x95\xe0\xa5\x872'
p1357
sS'af'
p1358
S'\xe0\xa4\xaf\xe0\xa4\xb9,pn,m,sg,3,o,\xe0\xa4\x95\xe0\xa4\xbe,kA'
p1359
sS'chunkid'
p1360
S'NP9'
p1361
sS'creftype'
p1362
S'Anaphora-C:i11'
p1363
sS'chunktype'
p1364
S'head:NP9'
p1365
sS'cref'
p1366
S'i12%1:t5'
p1367
sS'drel'
p1368
S'r6:NP10'
p1369
ssbsg30
I00
sg31
I00
sg32
Nsg33
Nsg34
I14
sg35
I2
sg36
Nsg37
Nsg38
S'PRP'
p1370
sg40
g1349
sg41
I00
sba(issf_api
Word
p1371
(dp1372
g6
I00
sg7
V\u092a\u094d\u0930\u0924\u093f\u0928\u093f\u0927\u093f\u092f\u094b\u0902
p1373
sg9
(issf_api
FeatureSet
p1374
(dp1375
g12
(dp1376
S'posn'
p1377
S'280'
p1378
sS'name'
p1379
S'\xe0\xa4\xaa\xe0\xa5\x8d\xe0\xa4\xb0\xe0\xa4\xa4\xe0\xa4\xbf\xe0\xa4\xa8\xe0\xa4\xbf\xe0\xa4\xa7\xe0\xa4\xbf\xe0\xa4\xaf\xe0\xa5\x8b\xe0\xa4\x82'
p1380
sS'af'
p1381
S'\xe0\xa4\xaa\xe0\xa5\x8d\xe0\xa4\xb0\xe0\xa4\xa4\xe0\xa4\xbf\xe0\xa4\xa8\xe0\xa4\xbf\xe0\xa4\xa7\xe0\xa4\xbf,n,m,pl,3,o,0_\xe0\xa4\x95\xe0\xa5\x8b,0'
p1382
sS'chunkid'
p1383
S'NP10'
p1384
sS'drel'
p1385
S'k4a:VGNN5'
p1386
sS'vpos'
p1387
S'vib_2'
p1388
sS'chunktype'
p1389
S'head:NP10'
p1390
ssbsg30
I00
sg31
I00
sg32
Nsg33
Nsg34
I15
sg35
I2
sg36
Nsg37
Nsg38
S'NN'
p1391
sg40
g1374
sg41
I00
sba(issf_api
Word
p1392
(dp1393
g6
I00
sg7
V\u0915\u094b
p1394
sg9
(issf_api
FeatureSet
p1395
(dp1396
g12
(dp1397
S'posn'
p1398
S'290'
p1399
sS'name'
p1400
S'\xe0\xa4\x95\xe0\xa5\x8b2'
p1401
sS'drel'
p1402
S'lwg__psp:NP10'
p1403
sS'chunktype'
p1404
S'child:NP10'
p1405
sS'af'
p1406
S'\xe0\xa4\x95\xe0\xa5\x8b,psp,,,,,,'
p1407
ssbsg30
I00
sg31
I00
sg32
Nsg33
Nsg34
I15
sg35
I2
sg36
Nsg37
Nsg38
S'PSP'
p1408
sg40
g1395
sg41
I00
sba(issf_api
Word
p1409
(dp1410
g6
I00
sg7
V\u0935\u093e\u0930\u094d\u0924\u093e
p1411
sg9
(issf_api
FeatureSet
p1412
(dp1413
g12
(dp1414
S'posn'
p1415
S'300'
p1416
sS'name'
p1417
S'\xe0\xa4\xb5\xe0\xa4\xbe\xe0\xa4\xb0\xe0\xa5\x8d\xe0\xa4\xa4\xe0\xa4\xbe'
p1418
sS'af'
p1419
S'\xe0\xa4\xb5\xe0\xa4\xbe\xe0\xa4\xb0\xe0\xa5\x8d\xe0\xa4\xa4\xe0\xa4\xbe,n,f,sg,3,o,0_\xe0\xa4\xae\xe0\xa5\x87\xe0\xa4\x82,0'
p1420
sS'chunkid'
p1421
S'NP11'
p1422
sS'drel'
p1423
S'k7:VGNN5'
p1424
sS'vpos'
p1425
S'vib_2'
p1426
sS'chunktype'
p1427
S'head:NP11'
p1428
ssbsg30
I00
sg31
I00
sg32
Nsg33
Nsg34
I16
sg35
I2
sg36
Nsg37
Nsg38
S'NN'
p1429
sg40
g1412
sg41
I00
sba(issf_api
Word
p1430
(dp1431
g6
I00
sg7
V\u092e\u0947\u0902
p1432
sg9
(issf_api
FeatureSet
p1433
(dp1434
g12
(dp1435
S'posn'
p1436
S'310'
p1437
sS'name'
p1438
S'\xe0\xa4\xae\xe0\xa5\x87\xe0\xa4\x82'
p1439
sS'drel'
p1440
S'lwg__psp:NP11'
p1441
sS'chunktype'
p1442
S'child:NP11'
p1443
sS'af'
p1444
S'\xe0\xa4\xae\xe0\xa5\x87\xe0\xa4\x82,psp,,,,,,'
p1445
ssbsg30
I00
sg31
I00
sg32
Nsg33
Nsg34
I16
sg35
I2
sg36
Nsg37
Nsg38
S'PSP'
p1446
sg40
g1433
sg41
I00
sba(issf_api
Word
p1447
(dp1448
g6
I00
sg7
V\u092d\u093e\u0917
p1449
sg9
(issf_api
FeatureSet
p1450
(dp1451
g12
(dp1452
S'posn'
p1453
S'320'
p1454
sS'name'
p1455
S'\xe0\xa4\xad\xe0\xa4\xbe\xe0\xa4\x97'
p1456
sS'af'
p1457
S'\xe0\xa4\xad\xe0\xa4\xbe\xe0\xa4\x97,n,m,sg,3,d,0,0'
p1458
sS'chunkid'
p1459
S'NP12'
p1460
sS'drel'
p1461
S'pof:VGNN5'
p1462
sS'chunktype'
p1463
S'head:NP12'
p1464
ssbsg30
I00
sg31
I00
sg32
Nsg33
Nsg34
I17
sg35
I2
sg36
Nsg37
Nsg38
S'NN'
p1465
sg40
g1450
sg41
I00
sba(issf_api
Word
p1466
(dp1467
g6
I00
sg7
V\u0932\u0947\u0928\u0947
p1468
sg9
(issf_api
FeatureSet
p1469
(dp1470
g12
(dp1471
S'posn'
p1472
S'330'
p1473
sS'name'
p1474
S'\xe0\xa4\xb2\xe0\xa5\x87\xe0\xa4\xa8\xe0\xa5\x87'
p1475
sS'af'
p1476
S'\xe0\xa4\xb2\xe0\xa5\x87,v,any,any,any,o,\xe0\xa4\xa8\xe0\xa4\xbe_\xe0\xa4\x95\xe0\xa5\x87_\xe0\xa4\xb2\xe0\xa4\xbf\xe0\xa4\x8f,nA'
p1477
sS'chunkid'
p1478
S'VGNN5'
p1479
sS'drel'
p1480
S'ccof:CCP'
p1481
sS'vpos'
p1482
S'tam_2_3'
p1483
sS'chunktype'
p1484
S'head:VGNN5'
p1485
ssbsg30
I00
sg31
I00
sg32
Nsg33
Nsg34
I18
sg35
I2
sg36
Nsg37
Nsg38
S'VM'
p1486
sg40
g1469
sg41
I00
sba(issf_api
Word
p1487
(dp1488
g6
I00
sg7
V\u0915\u0947
p1489
sg9
(issf_api
FeatureSet
p1490
(dp1491
g12
(dp1492
S'posn'
p1493
S'340'
p1494
sS'name'
p1495
S'\xe0\xa4\x95\xe0\xa5\x872'
p1496
sS'drel'
p1497
S'lwg__psp:VGNN5'
p1498
sS'chunktype'
p1499
S'child:VGNN5'
p1500
sS'af'
p1501
S'\xe0\xa4\x95\xe0\xa5\x87,psp,,,,,,'
p1502
ssbsg30
I00
sg31
I00
sg32
Nsg33
Nsg34
I18
sg35
I2
sg36
Nsg37
Nsg38
S'PSP'
p1503
sg40
g1490
sg41
I00
sba(issf_api
Word
p1504
(dp1505
g6
I00
sg7
V\u0932\u093f\u090f
p1506
sg9
(issf_api
FeatureSet
p1507
(dp1508
g12
(dp1509
S'posn'
p1510
S'350'
p1511
sS'name'
p1512
S'\xe0\xa4\xb2\xe0\xa4\xbf\xe0\xa4\x8f2'
p1513
sS'drel'
p1514
S'lwg__psp:VGNN5'
p1515
sS'chunktype'
p1516
S'child:VGNN5'
p1517
sS'af'
p1518
S'\xe0\xa4\xb2\xe0\xa4\xbf\xe0\xa4\x8f,psp,,,,,,'
p1519
ssbsg30
I00
sg31
I00
sg32
Nsg33
Nsg34
I18
sg35
I2
sg36
Nsg37
Nsg38
S'PSP'
p1520
sg40
g1507
sg41
I00
sba(issf_api
Word
p1521
(dp1522
g6
I00
sg7
V\u0938\u0941\u0930\u0915\u094d\u0937\u093e
p1523
sg9
(issf_api
FeatureSet
p1524
(dp1525
g12
(dp1526
S'posn'
p1527
S'360'
p1528
sS'name'
p1529
S'\xe0\xa4\xb8\xe0\xa5\x81\xe0\xa4\xb0\xe0\xa4\x95\xe0\xa5\x8d\xe0\xa4\xb7\xe0\xa4\xbe'
p1530
sS'af'
p1531
S'\xe0\xa4\xb8\xe0\xa5\x81\xe0\xa4\xb0\xe0\xa4\x95\xe0\xa5\x8d\xe0\xa4\xb7\xe0\xa4\xbe,n,f,sg,3,d,0,0'
p1532
sS'chunkid'
p1533
S'NP13'
p1534
sS'drel'
p1535
S'k2:VGNN6'
p1536
sS'chunktype'
p1537
S'head:NP13'
p1538
ssbsg30
I00
sg31
I00
sg32
Nsg33
Nsg34
I19
sg35
I2
sg36
Nsg37
Nsg38
S'NN'
p1539
sg40
g1524
sg41
I00
sba(issf_api
Word
p1540
(dp1541
g6
I00
sg7
V\u0926\u0947\u0928\u0947
p1542
sg9
(issf_api
FeatureSet
p1543
(dp1544
g12
(dp1545
S'posn'
p1546
S'370'
p1547
sS'name'
p1548
S'\xe0\xa4\xa6\xe0\xa5\x87\xe0\xa4\xa8\xe0\xa5\x87'
p1549
sS'af'
p1550
S'\xe0\xa4\xa6\xe0\xa5\x87,v,any,sg,any,o,\xe0\xa4\xa8\xe0\xa4\xbe_\xe0\xa4\x95\xe0\xa4\xbe,nA'
p1551
sS'chunkid'
p1552
S'VGNN6'
p1553
sS'drel'
p1554
S'r6-k2:NP14'
p1555
sS'vpos'
p1556
S'tam_2'
p1557
sS'chunktype'
p1558
S'head:VGNN6'
p1559
ssbsg30
I00
sg31
I00
sg32
Nsg33
Nsg34
I20
sg35
I2
sg36
Nsg37
Nsg38
S'VM'
p1560
sg40
g1543
sg41
I00
sba(issf_api
Word
p1561
(dp1562
g6
I00
sg7
V\u0915\u0940
p1563
sg9
(issf_api
FeatureSet
p1564
(dp1565
g12
(dp1566
S'posn'
p1567
S'380'
p1568
sS'name'
p1569
S'\xe0\xa4\x95\xe0\xa5\x80'
p1570
sS'drel'
p1571
S'lwg__psp:VGNN6'
p1572
sS'chunktype'
p1573
S'child:VGNN6'
p1574
sS'af'
p1575
S'\xe0\xa4\x95\xe0\xa4\xbe,psp,f,sg,,d,,'
p1576
ssbsg30
I00
sg31
I00
sg32
Nsg33
Nsg34
I20
sg35
I2
sg36
Nsg37
Nsg38
S'PSP'
p1577
sg40
g1564
sg41
I00
sba(issf_api
Word
p1578
(dp1579
g6
I00
sg7
V\u092e\u093e\u0901\u0917
p1580
sg9
(issf_api
FeatureSet
p1581
(dp1582
g12
(dp1583
S'posn'
p1584
S'390'
p1585
sS'name'
p1586
S'\xe0\xa4\xae\xe0\xa4\xbe\xe0\xa4\x81\xe0\xa4\x97'
p1587
sS'af'
p1588
S'\xe0\xa4\xae\xe0\xa4\xbe\xe0\xa4\x81\xe0\xa4\x97,n,f,sg,3,d,0,0'
p1589
sS'chunkid'
p1590
S'NP14'
p1591
sS'drel'
p1592
S'pof:VGF'
p1593
sS'chunktype'
p1594
S'head:NP14'
p1595
ssbsg30
I00
sg31
I00
sg32
Nsg33
Nsg34
I21
sg35
I2
sg36
Nsg37
Nsg38
S'NN'
p1596
sg40
g1581
sg41
I00
sba(issf_api
Word
p1597
(dp1598
g6
I00
sg7
V\u0915\u0940
p1599
sg9
(issf_api
FeatureSet
p1600
(dp1601
g12
(dp1602
S'posn'
p1603
S'400'
p1604
sS'name'
p1605
S'\xe0\xa4\x95\xe0\xa5\x802'
p1606
sS'af'
p1607
S'\xe0\xa4\x95\xe0\xa4\xb0,v,f,sg,any,,\xe0\xa4\xaf\xe0\xa4\xbe_\xe0\xa4\xa5\xe0\xa4\xbe,yA'
p1608
sS'chunkid'
p1609
S'VGF'
p1610
sS'chunktype'
p1611
S'head:VGF'
p1612
sS'voicetype'
p1613
S'active'
p1614
sS'vpos'
p1615
S'tam_2'
p1616
sS'stype'
p1617
S'declarative'
p1618
ssbsg30
I00
sg31
I00
sg32
Nsg33
Nsg34
I22
sg35
I2
sg36
Nsg37
Nsg38
S'VM'
p1619
sg40
g1600
sg41
I00
sba(issf_api
Word
p1620
(dp1621
g6
I00
sg7
V\u0925\u0940
p1622
sg9
(issf_api
FeatureSet
p1623
(dp1624
g12
(dp1625
S'posn'
p1626
S'410'
p1627
sS'name'
p1628
S'\xe0\xa4\xa5\xe0\xa5\x80'
p1629
sS'drel'
p1630
S'lwg__vaux:VGF'
p1631
sS'chunktype'
p1632
S'child:VGF'
p1633
sS'af'
p1634
S'\xe0\xa4\xa5\xe0\xa4\xbe,v,f,sg,any,,\xe0\xa4\xa5\xe0\xa4\xbe,WA'
p1635
ssbsg30
I00
sg31
I00
sg32
Nsg33
Nsg34
I22
sg35
I2
sg36
Nsg37
Nsg38
S'VAUX'
p1636
sg40
g1623
sg41
I00
sba(issf_api
Word
p1637
(dp1638
g6
I00
sg7
V\u0964
p1639
sg9
(issf_api
FeatureSet
p1640
(dp1641
g12
(dp1642
S'posn'
p1643
S'420'
p1644
sS'name'
p1645
S'\xe0\xa5\xa4'
p1646
sS'af'
p1647
S'\xe0\xa5\xa4,punc,,,,,,'
p1648
sS'chunkid'
p1649
S'BLK'
p1650
sS'drel'
p1651
S'rsym:VGF'
p1652
sS'chunktype'
p1653
S'head:BLK'
p1654
ssbsg30
I00
sg31
I00
sg32
Nsg33
Nsg34
I23
sg35
I2
sg36
Nsg37
Nsg38
S'SYM'
p1655
sg40
g1640
sg41
I00
sbasS'sentenceList'
p1656
(lp1657
(issf_api
Sentence
p1658
(dp1659
S'rootNode'
p1660
(lp1661
sg35
I0
sS'wordNumList'
p1662
(lp1663
I0
aI1
aI2
aI3
aI4
aI5
aI6
aI7
aI8
aI9
aI10
aI11
aI12
aI13
aI14
aI15
aI16
aI17
aI18
aI19
asS'nodeDict'
p1664
(dp1665
S'VGF'
p1666
(issf_api
Node
p1667
(dp1668
S'nodeRelation'
p1669
S'None'
p1670
sS'nodeName'
p1671
g1666
sS'nodeParent'
p1672
g1670
sS'nodeLevel'
p1673
I-1
sg34
I6
sS'childList'
p1674
(lp1675
S'BLK'
p1676
aS'NP'
p1677
aS'NP4'
p1678
aS'NP6'
p1679
aS'NP3'
p1680
aS'NP2'
p1681
asbsS'NP5'
p1682
(issf_api
Node
p1683
(dp1684
g1669
S'r6-k2'
p1685
sg1671
g1682
sg1672
S'NP6'
p1686
sg1673
I-1
sg34
I4
sg1674
(lp1687
sbsg1676
(issf_api
Node
p1688
(dp1689
g1669
S'rsym'
p1690
sg1671
g1676
sg1672
S'VGF'
p1691
sg1673
I-1
sg34
I7
sg1674
(lp1692
sbsg1677
(issf_api
Node
p1693
(dp1694
g1669
S'k1'
p1695
sg1671
g1677
sg1672
S'VGF'
p1696
sg1673
I-1
sg34
I0
sg1674
(lp1697
sbsg1678
(issf_api
Node
p1698
(dp1699
g1669
S'vmod'
p1700
sg1671
g1678
sg1672
S'VGF'
p1701
sg1673
I-1
sg34
I3
sg1674
(lp1702
sbsg1679
(issf_api
Node
p1703
(dp1704
g1669
S'pof'
p1705
sg1671
g1679
sg1672
S'VGF'
p1706
sg1673
I-1
sg34
I5
sg1674
(lp1707
g1682
asbsg1680
(issf_api
Node
p1708
(dp1709
g1669
S'k7t'
p1710
sg1671
g1680
sg1672
S'VGF'
p1711
sg1673
I-1
sg34
I2
sg1674
(lp1712
sbsg1681
(issf_api
Node
p1713
(dp1714
g1669
S'rt'
p1715
sg1671
g1681
sg1672
S'VGF'
p1716
sg1673
I-1
sg34
I1
sg1674
(lp1717
sbssS'chunkList'
p1718
(lp1719
(issf_api
Chunk
p1720
(dp1721
g1671
g55
sg34
I0
sS'chunkTag'
p1722
g62
sg35
I0
sg1662
(lp1723
I0
aI1
aI2
asg40
(issf_api
FeatureSet
p1724
(dp1725
g12
(dp1726
S'name'
p1727
g1677
sS'drel'
p1728
S'k1:VGF'
p1729
ssbsba(issf_api
Chunk
p1730
(dp1731
g1671
g127
sg34
I1
sg1722
g134
sg35
I0
sg1662
(lp1732
I3
aI4
aI5
aI6
aI7
asg40
(issf_api
FeatureSet
p1733
(dp1734
g12
(dp1735
S'name'
p1736
g1681
sS'drel'
p1737
S'rt:VGF'
p1738
ssbsba(issf_api
Chunk
p1739
(dp1740
g1671
g182
sg34
I2
sg1722
g189
sg35
I0
sg1662
(lp1741
I8
aI9
asg40
(issf_api
FeatureSet
p1742
(dp1743
g12
(dp1744
S'name'
p1745
g1680
sS'drel'
p1746
S'k7t:VGF'
p1747
ssbsba(issf_api
Chunk
p1748
(dp1749
g1671
g220
sg34
I3
sg1722
g227
sg35
I0
sg1662
(lp1750
I10
aI11
aI12
asg40
(issf_api
FeatureSet
p1751
(dp1752
g12
(dp1753
S'name'
p1754
g1678
sS'drel'
p1755
S'vmod:VGF'
p1756
ssbsba(issf_api
Chunk
p1757
(dp1758
g1671
g296
sg34
I4
sg1722
g307
sg35
I0
sg1662
(lp1759
I13
aI14
aI15
asg40
(issf_api
FeatureSet
p1760
(dp1761
g12
(dp1762
S'name'
p1763
g1682
sS'drel'
p1764
S'r6-k2:NP6'
p1765
ssbsba(issf_api
Chunk
p1766
(dp1767
g1671
g338
sg34
I5
sg1722
g343
sg35
I0
sg1662
(lp1768
I16
asg40
(issf_api
FeatureSet
p1769
(dp1770
g12
(dp1771
S'name'
p1772
g1679
sS'drel'
p1773
S'pof:VGF'
p1774
ssbsba(issf_api
Chunk
p1775
(dp1776
g1671
g357
sg34
I6
sg1722
g366
sg35
I0
sg1662
(lp1777
I17
aI18
asg40
(issf_api
FeatureSet
p1778
(dp1779
g12
(dp1780
S'name'
p1781
g1666
ssbsba(issf_api
Chunk
p1782
(dp1783
g1671
g397
sg34
I7
sg1722
g402
sg35
I0
sg1662
(lp1784
I19
asg40
(issf_api
FeatureSet
p1785
(dp1786
g12
(dp1787
S'name'
p1788
g1676
sS'drel'
p1789
S'rsym:VGF'
p1790
ssbsbasba(issf_api
Sentence
p1791
(dp1792
g1660
(lp1793
sg35
I1
sg1662
(lp1794
I20
aI21
aI22
aI23
aI24
aI25
aI26
aI27
aI28
aI29
aI30
aI31
aI32
aI33
aI34
aI35
aI36
aI37
aI38
aI39
aI40
asg1664
(dp1795
S'VGF'
p1796
(issf_api
Node
p1797
(dp1798
g1669
g1670
sg1671
g1796
sg1672
g1670
sg1673
I-1
sg34
I7
sg1674
(lp1799
S'NP5'
p1800
aS'BLK'
p1801
aS'NP4'
p1802
aS'NP7'
p1803
aS'NP3'
p1804
asbsg1800
(issf_api
Node
p1805
(dp1806
g1669
S'rt'
p1807
sg1671
g1800
sg1672
S'VGF'
p1808
sg1673
I-1
sg34
I4
sg1674
(lp1809
sbsg1801
(issf_api
Node
p1810
(dp1811
g1669
S'rsym'
p1812
sg1671
g1801
sg1672
S'VGF'
p1813
sg1673
I-1
sg34
I8
sg1674
(lp1814
sbsS'NP'
p1815
(issf_api
Node
p1816
(dp1817
g1669
S'r6'
p1818
sg1671
g1815
sg1672
S'NP2'
p1819
sg1673
I-1
sg34
I0
sg1674
(lp1820
sbsg1802
(issf_api
Node
p1821
(dp1822
g1669
S'k7'
p1823
sg1671
g1802
sg1672
S'VGF'
p1824
sg1673
I-1
sg34
I3
sg1674
(lp1825
sbsg1803
(issf_api
Node
p1826
(dp1827
g1669
S'pof'
p1828
sg1671
g1803
sg1672
S'VGF'
p1829
sg1673
I-1
sg34
I6
sg1674
(lp1830
S'NP6'
p1831
asbsg1831
(issf_api
Node
p1832
(dp1833
g1669
S'r6-k2'
p1834
sg1671
g1831
sg1672
S'NP7'
p1835
sg1673
I-1
sg34
I5
sg1674
(lp1836
sbsg1804
(issf_api
Node
p1837
(dp1838
g1669
S'k1'
p1839
sg1671
g1804
sg1672
S'VGF'
p1840
sg1673
I-1
sg34
I2
sg1674
(lp1841
S'NP2'
p1842
asbsg1842
(issf_api
Node
p1843
(dp1844
g1669
S'nmod'
p1845
sg1671
g1842
sg1672
S'NP3'
p1846
sg1673
I-1
sg34
I1
sg1674
(lp1847
g1815
asbssg1718
(lp1848
(issf_api
Chunk
p1849
(dp1850
g1671
g420
sg34
I0
sg1722
g433
sg35
I1
sg1662
(lp1851
I20
aI21
asg40
(issf_api
FeatureSet
p1852
(dp1853
g12
(dp1854
S'name'
p1855
g1815
sS'drel'
p1856
S'r6:NP2'
p1857
ssbsba(issf_api
Chunk
p1858
(dp1859
g1671
g485
sg34
I1
sg1722
g494
sg35
I1
sg1662
(lp1860
I22
aI23
asg40
(issf_api
FeatureSet
p1861
(dp1862
g12
(dp1863
S'name'
p1864
g1842
sS'drel'
p1865
S'nmod:NP3'
p1866
ssbsba(issf_api
Chunk
p1867
(dp1868
g1671
g529
sg34
I2
sg1722
g542
sg35
I1
sg1662
(lp1869
I24
aI25
aI26
asg40
(issf_api
FeatureSet
p1870
(dp1871
g12
(dp1872
S'name'
p1873
g1804
sS'drel'
p1874
S'k1:VGF'
p1875
ssbsba(issf_api
Chunk
p1876
(dp1877
g1671
g607
sg34
I3
sg1722
g614
sg35
I1
sg1662
(lp1878
I27
aI28
aI29
aI30
asg40
(issf_api
FeatureSet
p1879
(dp1880
g12
(dp1881
S'name'
p1882
g1802
sS'drel'
p1883
S'k7:VGF'
p1884
ssbsba(issf_api
Chunk
p1885
(dp1886
g1671
g662
sg34
I4
sg1722
g669
sg35
I1
sg1662
(lp1887
I31
aI32
aI33
aI34
asg40
(issf_api
FeatureSet
p1888
(dp1889
g12
(dp1890
S'name'
p1891
g1800
sS'drel'
p1892
S'rt:VGF'
p1893
ssbsba(issf_api
Chunk
p1894
(dp1895
g1671
g738
sg34
I5
sg1722
g749
sg35
I1
sg1662
(lp1896
I35
aI36
aI37
asg40
(issf_api
FeatureSet
p1897
(dp1898
g12
(dp1899
S'name'
p1900
g1831
sS'drel'
p1901
S'r6-k2:NP7'
p1902
ssbsba(issf_api
Chunk
p1903
(dp1904
g1671
g780
sg34
I6
sg1722
g785
sg35
I1
sg1662
(lp1905
I38
asg40
(issf_api
FeatureSet
p1906
(dp1907
g12
(dp1908
S'name'
p1909
g1803
sS'drel'
p1910
S'pof:VGF'
p1911
ssbsba(issf_api
Chunk
p1912
(dp1913
g1671
g799
sg34
I7
sg1722
g806
sg35
I1
sg1662
(lp1914
I39
asg40
(issf_api
FeatureSet
p1915
(dp1916
g12
(dp1917
S'name'
p1918
g1796
ssbsba(issf_api
Chunk
p1919
(dp1920
g1671
g820
sg34
I8
sg1722
g825
sg35
I1
sg1662
(lp1921
I40
asg40
(issf_api
FeatureSet
p1922
(dp1923
g12
(dp1924
S'name'
p1925
g1801
sS'drel'
p1926
S'rsym:VGF'
p1927
ssbsbasba(issf_api
Sentence
p1928
(dp1929
g1660
(lp1930
sg35
I2
sg1662
(lp1931
I41
aI42
aI43
aI44
aI45
aI46
aI47
aI48
aI49
aI50
aI51
aI52
aI53
aI54
aI55
aI56
aI57
aI58
aI59
aI60
aI61
aI62
aI63
aI64
aI65
aI66
aI67
aI68
aI69
aI70
aI71
aI72
aI73
aI74
aI75
aI76
aI77
aI78
aI79
aI80
aI81
aI82
asg1664
(dp1932
S'CCP'
p1933
(issf_api
Node
p1934
(dp1935
g1669
S'rt'
p1936
sg1671
g1933
sg1672
S'VGNN6'
p1937
sg1673
I-1
sg34
I13
sg1674
(lp1938
S'VGNN4'
p1939
aS'VGNN5'
p1940
asbsS'VGNN2'
p1941
(issf_api
Node
p1942
(dp1943
g1669
S'nmod'
p1944
sg1671
g1941
sg1672
S'NP6'
p1945
sg1673
I-1
sg34
I7
sg1674
(lp1946
sbsS'VGNN3'
p1947
(issf_api
Node
p1948
(dp1949
g1669
S'rt'
p1950
sg1671
g1947
sg1672
S'VGNN4'
p1951
sg1673
I-1
sg34
I10
sg1674
(lp1952
S'NP7'
p1953
asbsS'VGNN6'
p1954
(issf_api
Node
p1955
(dp1956
g1669
S'r6-k2'
p1957
sg1671
g1954
sg1672
S'NP14'
p1958
sg1673
I-1
sg34
I20
sg1674
(lp1959
g1933
aS'NP13'
p1960
asbsS'NP8'
p1961
(issf_api
Node
p1962
(dp1963
g1669
S'k2'
p1964
sg1671
g1961
sg1672
S'VGNN4'
p1965
sg1673
I-1
sg34
I11
sg1674
(lp1966
sbsg1939
(issf_api
Node
p1967
(dp1968
g1669
S'ccof'
p1969
sg1671
g1939
sg1672
S'CCP'
p1970
sg1673
I-1
sg34
I12
sg1674
(lp1971
g1947
ag1961
asbsg1940
(issf_api
Node
p1972
(dp1973
g1669
S'ccof'
p1974
sg1671
g1940
sg1672
S'CCP'
p1975
sg1673
I-1
sg34
I18
sg1674
(lp1976
S'NP11'
p1977
aS'NP10'
p1978
aS'NP12'
p1979
asbsS'NP5'
p1980
(issf_api
Node
p1981
(dp1982
g1669
S'k1'
p1983
sg1671
g1980
sg1672
S'VGNN'
p1984
sg1673
I-1
sg34
I4
sg1674
(lp1985
S'NP4'
p1986
asbsg1986
(issf_api
Node
p1987
(dp1988
g1669
S'rs'
p1989
sg1671
g1986
sg1672
S'NP5'
p1990
sg1673
I-1
sg34
I3
sg1674
(lp1991
sbsg1953
(issf_api
Node
p1992
(dp1993
g1669
S'pof'
p1994
sg1671
g1953
sg1672
S'VGNN3'
p1995
sg1673
I-1
sg34
I9
sg1674
(lp1996
S'NP6'
p1997
asbsg1997
(issf_api
Node
p1998
(dp1999
g1669
S'r6-k2'
p2000
sg1671
g1997
sg1672
S'NP7'
p2001
sg1673
I-1
sg34
I8
sg1674
(lp2002
g1941
asbsS'NP3'
p2003
(issf_api
Node
p2004
(dp2005
g1669
S'k1'
p2006
sg1671
g2003
sg1672
S'VGF'
p2007
sg1673
I-1
sg34
I2
sg1674
(lp2008
S'NP2'
p2009
asbsg2009
(issf_api
Node
p2010
(dp2011
g1669
S'nmod'
p2012
sg1671
g2009
sg1672
S'NP3'
p2013
sg1673
I-1
sg34
I1
sg1674
(lp2014
sbsg1977
(issf_api
Node
p2015
(dp2016
g1669
S'k7'
p2017
sg1671
g1977
sg1672
S'VGNN5'
p2018
sg1673
I-1
sg34
I16
sg1674
(lp2019
sbsg1978
(issf_api
Node
p2020
(dp2021
g1669
S'k4a'
p2022
sg1671
g1978
sg1672
S'VGNN5'
p2023
sg1673
I-1
sg34
I15
sg1674
(lp2024
S'NP9'
p2025
asbsg1960
(issf_api
Node
p2026
(dp2027
g1669
S'k2'
p2028
sg1671
g1960
sg1672
S'VGNN6'
p2029
sg1673
I-1
sg34
I19
sg1674
(lp2030
sbsg1979
(issf_api
Node
p2031
(dp2032
g1669
S'pof'
p2033
sg1671
g1979
sg1672
S'VGNN5'
p2034
sg1673
I-1
sg34
I17
sg1674
(lp2035
sbsS'NP14'
p2036
(issf_api
Node
p2037
(dp2038
g1669
S'pof'
p2039
sg1671
g2036
sg1672
S'VGF'
p2040
sg1673
I-1
sg34
I21
sg1674
(lp2041
g1954
asbsS'NP'
p2042
(issf_api
Node
p2043
(dp2044
g1669
S'k7t'
p2045
sg1671
g2042
sg1672
S'VGF'
p2046
sg1673
I-1
sg34
I0
sg1674
(lp2047
sbsS'VGNN'
p2048
(issf_api
Node
p2049
(dp2050
g1669
S'k7'
p2051
sg1671
g2048
sg1672
S'VGF'
p2052
sg1673
I-1
sg34
I6
sg1674
(lp2053
g1980
aS'JJP'
p2054
asbsS'VGF'
p2055
(issf_api
Node
p2056
(dp2057
g1669
g1670
sg1671
g2055
sg1672
g1670
sg1673
I-1
sg34
I22
sg1674
(lp2058
g2003
ag2036
ag2042
ag2048
aS'BLK'
p2059
asbsg2059
(issf_api
Node
p2060
(dp2061
g1669
S'rsym'
p2062
sg1671
g2059
sg1672
S'VGF'
p2063
sg1673
I-1
sg34
I23
sg1674
(lp2064
sbsg2054
(issf_api
Node
p2065
(dp2066
g1669
S'pof'
p2067
sg1671
g2054
sg1672
S'VGNN'
p2068
sg1673
I-1
sg34
I5
sg1674
(lp2069
sbsg2025
(issf_api
Node
p2070
(dp2071
g1669
S'r6'
p2072
sg1671
g2025
sg1672
S'NP10'
p2073
sg1673
I-1
sg34
I14
sg1674
(lp2074
sbssg1718
(lp2075
(issf_api
Chunk
p2076
(dp2077
g1671
g839
sg34
I0
sg1722
g846
sg35
I2
sg1662
(lp2078
I41
aI42
asg40
(issf_api
FeatureSet
p2079
(dp2080
g12
(dp2081
S'name'
p2082
g2042
sS'drel'
p2083
S'k7t:VGF'
p2084
ssbsba(issf_api
Chunk
p2085
(dp2086
g1671
g898
sg34
I1
sg1722
g905
sg35
I2
sg1662
(lp2087
I43
aI44
asg40
(issf_api
FeatureSet
p2088
(dp2089
g12
(dp2090
S'name'
p2091
g2009
sS'drel'
p2092
S'nmod:NP3'
p2093
ssbsba(issf_api
Chunk
p2094
(dp2095
g1671
g959
sg34
I2
sg1722
g972
sg35
I2
sg1662
(lp2096
I45
aI46
aI47
aI48
asg40
(issf_api
FeatureSet
p2097
(dp2098
g12
(dp2099
S'name'
p2100
g2003
sS'drel'
p2101
S'k1:VGF'
p2102
ssbsba(issf_api
Chunk
p2103
(dp2104
g1671
g1024
sg34
I3
sg1722
g1033
sg35
I2
sg1662
(lp2105
I49
aI50
aI51
asg40
(issf_api
FeatureSet
p2106
(dp2107
g12
(dp2108
S'name'
p2109
g1986
sS'drel'
p2110
S'rs:NP5'
p2111
ssbsba(issf_api
Chunk
p2112
(dp2113
g1671
g1066
sg34
I4
sg1722
g1075
sg35
I2
sg1662
(lp2114
I52
asg40
(issf_api
FeatureSet
p2115
(dp2116
g12
(dp2117
S'name'
p2118
g1980
sS'drel'
p2119
S'k1:VGNN'
p2120
ssbsba(issf_api
Chunk
p2121
(dp2122
g1671
g1089
sg34
I5
sg1722
g1094
sg35
I2
sg1662
(lp2123
I53
asg40
(issf_api
FeatureSet
p2124
(dp2125
g12
(dp2126
S'name'
p2127
g2054
sS'drel'
p2128
S'pof:VGNN'
p2129
ssbsba(issf_api
Chunk
p2130
(dp2131
g1671
g1108
sg34
I6
sg1722
g1115
sg35
I2
sg1662
(lp2132
I54
aI55
asg40
(issf_api
FeatureSet
p2133
(dp2134
g12
(dp2135
S'name'
p2136
g2048
sS'drel'
p2137
S'k7:VGF'
p2138
ssbsba(issf_api
Chunk
p2139
(dp2140
g1671
g1146
sg34
I7
sg1722
g1153
sg35
I2
sg1662
(lp2141
I56
aI57
asg40
(issf_api
FeatureSet
p2142
(dp2143
g12
(dp2144
S'name'
p2145
g1941
sS'drel'
p2146
S'nmod:NP6'
p2147
ssbsba(issf_api
Chunk
p2148
(dp2149
g1671
g1184
sg34
I8
sg1722
g1191
sg35
I2
sg1662
(lp2150
I58
aI59
asg40
(issf_api
FeatureSet
p2151
(dp2152
g12
(dp2153
S'name'
p2154
g1997
sS'drel'
p2155
S'r6-k2:NP7'
p2156
ssbsba(issf_api
Chunk
p2157
(dp2158
g1671
g1222
sg34
I9
sg1722
g1227
sg35
I2
sg1662
(lp2159
I60
asg40
(issf_api
FeatureSet
p2160
(dp2161
g12
(dp2162
S'name'
p2163
g1953
sS'drel'
p2164
S'pof:VGNN3'
p2165
ssbsba(issf_api
Chunk
p2166
(dp2167
g1671
g1241
sg34
I10
sg1722
g1248
sg35
I2
sg1662
(lp2168
I61
aI62
aI63
asg40
(issf_api
FeatureSet
p2169
(dp2170
g12
(dp2171
S'name'
p2172
g1947
sS'drel'
p2173
S'rt:VGNN4'
p2174
ssbsba(issf_api
Chunk
p2175
(dp2176
g1671
g1298
sg34
I11
sg1722
g1307
sg35
I2
sg1662
(lp2177
I64
asg40
(issf_api
FeatureSet
p2178
(dp2179
g12
(dp2180
S'name'
p2181
g1961
sS'drel'
p2182
S'k2:VGNN4'
p2183
ssbsba(issf_api
Chunk
p2184
(dp2185
g1671
g1321
sg34
I12
sg1722
g1326
sg35
I2
sg1662
(lp2186
I65
asg40
(issf_api
FeatureSet
p2187
(dp2188
g12
(dp2189
S'name'
p2190
g1939
sS'drel'
p2191
S'ccof:CCP'
p2192
ssbsba(issf_api
Chunk
p2193
(dp2194
g1671
g1340
sg34
I13
sg1722
g1345
sg35
I2
sg1662
(lp2195
I66
asg40
(issf_api
FeatureSet
p2196
(dp2197
g12
(dp2198
S'name'
p2199
g1933
sS'drel'
p2200
S'rt:VGNN6'
p2201
ssbsba(issf_api
Chunk
p2202
(dp2203
g1671
g1361
sg34
I14
sg1722
g1370
sg35
I2
sg1662
(lp2204
I67
asg40
(issf_api
FeatureSet
p2205
(dp2206
g12
(dp2207
S'name'
p2208
g2025
sS'drel'
p2209
S'r6:NP10'
p2210
ssbsba(issf_api
Chunk
p2211
(dp2212
g1671
g1384
sg34
I15
sg1722
g1391
sg35
I2
sg1662
(lp2213
I68
aI69
asg40
(issf_api
FeatureSet
p2214
(dp2215
g12
(dp2216
S'name'
p2217
g1978
sS'drel'
p2218
S'k4a:VGNN5'
p2219
ssbsba(issf_api
Chunk
p2220
(dp2221
g1671
g1422
sg34
I16
sg1722
g1429
sg35
I2
sg1662
(lp2222
I70
aI71
asg40
(issf_api
FeatureSet
p2223
(dp2224
g12
(dp2225
S'name'
p2226
g1977
sS'drel'
p2227
S'k7:VGNN5'
p2228
ssbsba(issf_api
Chunk
p2229
(dp2230
g1671
g1460
sg34
I17
sg1722
g1465
sg35
I2
sg1662
(lp2231
I72
asg40
(issf_api
FeatureSet
p2232
(dp2233
g12
(dp2234
S'name'
p2235
g1979
sS'drel'
p2236
S'pof:VGNN5'
p2237
ssbsba(issf_api
Chunk
p2238
(dp2239
g1671
g1479
sg34
I18
sg1722
g1486
sg35
I2
sg1662
(lp2240
I73
aI74
aI75
asg40
(issf_api
FeatureSet
p2241
(dp2242
g12
(dp2243
S'name'
p2244
g1940
sS'drel'
p2245
S'ccof:CCP'
p2246
ssbsba(issf_api
Chunk
p2247
(dp2248
g1671
g1534
sg34
I19
sg1722
g1539
sg35
I2
sg1662
(lp2249
I76
asg40
(issf_api
FeatureSet
p2250
(dp2251
g12
(dp2252
S'name'
p2253
g1960
sS'drel'
p2254
S'k2:VGNN6'
p2255
ssbsba(issf_api
Chunk
p2256
(dp2257
g1671
g1553
sg34
I20
sg1722
g1560
sg35
I2
sg1662
(lp2258
I77
aI78
asg40
(issf_api
FeatureSet
p2259
(dp2260
g12
(dp2261
S'name'
p2262
g1954
sS'drel'
p2263
S'r6-k2:NP14'
p2264
ssbsba(issf_api
Chunk
p2265
(dp2266
g1671
g1591
sg34
I21
sg1722
g1596
sg35
I2
sg1662
(lp2267
I79
asg40
(issf_api
FeatureSet
p2268
(dp2269
g12
(dp2270
S'name'
p2271
g2036
sS'drel'
p2272
S'pof:VGF'
p2273
ssbsba(issf_api
Chunk
p2274
(dp2275
g1671
g1610
sg34
I22
sg1722
g1619
sg35
I2
sg1662
(lp2276
I80
aI81
asg40
(issf_api
FeatureSet
p2277
(dp2278
g12
(dp2279
S'name'
p2280
g2055
ssbsba(issf_api
Chunk
p2281
(dp2282
g1671
g1650
sg34
I23
sg1722
g1655
sg35
I2
sg1662
(lp2283
I82
asg40
(issf_api
FeatureSet
p2284
(dp2285
g12
(dp2286
S'name'
p2287
g2059
sS'drel'
p2288
S'rsym:VGF'
p2289
ssbsbasbasb.