(issf_api
SSFInfo
p0
(dp1
S'globalWordList'
p2
(lp3
(issf_api
Word
p4
(dp5
S'splitConn'
p6
I00
sS'word'
p7
V\u0932\u0916\u0928\u090a
p8
sS'extraFeatureSet'
p9
(issf_api
FeatureSet
p10
(dp11
S'featureDict'
p12
(dp13
S'crefhead'
p14
S'\xe0\xa4\xb2\xe0\xa4\x96\xe0\xa4\xa8\xe0\xa4\x8a:i1'
p15
sS'posn'
p16
S'10'
p17
sS'name'
p18
S'\xe0\xa4\xb2\xe0\xa4\x96\xe0\xa4\xa8\xe0\xa4\x8a'
p19
sS'af'
p20
S'\xe0\xa4\xb2\xe0\xa4\x96\xe0\xa4\xa8\xe0\xa4\x8a,n,m,sg,3,d,0,0'
p21
sS'chunkid'
p22
S'NP'
p23
sS'chunktype'
p24
S'head:NP'
p25
sS'crefchainhead'
p26
S'i1:t1'
p27
sS'cref'
p28
S'i1%1:t1'
p29
sS'drel'
p30
S'jjmod:JJP'
p31
ssbsS'arg1'
p32
I00
sS'arg2'
p33
I00
sS'sense'
p34
NsS'arg1Span'
p35
NsS'chunkNum'
p36
I0
sS'sentenceNum'
p37
I0
sS'relationNum'
p38
NsS'arg2Span'
p39
NsS'wordTag'
p40
S'NNP'
p41
sS'featureSet'
p42
g10
sS'conn'
p43
I00
sba(issf_api
Word
p44
(dp45
g6
I00
sg7
V\u0938\u094d\u0925\u093f\u0924
p46
sg9
(issf_api
FeatureSet
p47
(dp48
g12
(dp49
S'posn'
p50
S'20'
p51
sS'name'
p52
S'\xe0\xa4\xb8\xe0\xa5\x8d\xe0\xa4\xa5\xe0\xa4\xbf\xe0\xa4\xa4'
p53
sS'af'
p54
S'\xe0\xa4\xb8\xe0\xa5\x8d\xe0\xa4\xa5\xe0\xa4\xbf\xe0\xa4\xa4,adj,any,any,,o,,'
p55
sS'chunkid'
p56
S'JJP'
p57
sS'drel'
p58
S'nmod:NP2'
p59
sS'chunktype'
p60
S'head:JJP'
p61
ssbsg32
I00
sg33
I00
sg34
Nsg35
Nsg36
I1
sg37
I0
sg38
Nsg39
Nsg40
S'JJ'
p62
sg42
g47
sg43
I00
sba(issf_api
Word
p63
(dp64
g6
I00
sg7
V\u0938\u094d\u0925\u093e\u0928\u0940\u092f
p65
sg9
(issf_api
FeatureSet
p66
(dp67
g12
(dp68
S'posn'
p69
S'30'
p70
sS'name'
p71
S'\xe0\xa4\xb8\xe0\xa5\x8d\xe0\xa4\xa5\xe0\xa4\xbe\xe0\xa4\xa8\xe0\xa5\x80\xe0\xa4\xaf'
p72
sS'drel'
p73
S'nmod__adj:NP2'
p74
sS'chunktype'
p75
S'child:NP2'
p76
sS'af'
p77
S'\xe0\xa4\xb8\xe0\xa5\x8d\xe0\xa4\xa5\xe0\xa4\xbe\xe0\xa4\xa8\xe0\xa5\x80\xe0\xa4\xaf,adj,any,any,,o,,'
p78
ssbsg32
I00
sg33
I00
sg34
Nsg35
Nsg36
I2
sg37
I0
sg38
Nsg39
Nsg40
S'JJ'
p79
sg42
g66
sg43
I00
sba(issf_api
Word
p80
(dp81
g6
I00
sg7
V\u092e\u0941\u0938\u094d\u0932\u093f\u092e
p82
sg9
(issf_api
FeatureSet
p83
(dp84
g12
(dp85
S'posn'
p86
S'40'
p87
sS'name'
p88
S'\xe0\xa4\xae\xe0\xa5\x81\xe0\xa4\xb8\xe0\xa5\x8d\xe0\xa4\xb2\xe0\xa4\xbf\xe0\xa4\xae'
p89
sS'drel'
p90
S'nmod__adj:NP2'
p91
sS'chunktype'
p92
S'child:NP2'
p93
sS'af'
p94
S'\xe0\xa4\xae\xe0\xa5\x81\xe0\xa4\xb8\xe0\xa5\x8d\xe0\xa4\xb2\xe0\xa4\xbf\xe0\xa4\xae,adj,any,any,,o,,'
p95
ssbsg32
I00
sg33
I00
sg34
Nsg35
Nsg36
I2
sg37
I0
sg38
Nsg39
Nsg40
S'JJ'
p96
sg42
g83
sg43
I00
sba(issf_api
Word
p97
(dp98
g6
I00
sg7
V\u0928\u0947\u0924\u093e\u0913\u0902
p99
sg9
(issf_api
FeatureSet
p100
(dp101
g12
(dp102
S'posn'
p103
S'50'
p104
sS'name'
p105
S'\xe0\xa4\xa8\xe0\xa5\x87\xe0\xa4\xa4\xe0\xa4\xbe\xe0\xa4\x93\xe0\xa4\x82'
p106
sS'af'
p107
S'\xe0\xa4\xa8\xe0\xa5\x87\xe0\xa4\xa4\xe0\xa4\xbe,n,m,pl,3,o,0_\xe0\xa4\x95\xe0\xa4\xbe_\xe0\xa4\x93\xe0\xa4\xb0_\xe0\xa4\xb8\xe0\xa5\x87,0'
p108
sS'chunkid'
p109
S'NP2'
p110
sS'drel'
p111
S'rd:VGNF'
p112
sS'vpos'
p113
S'vib_4_5_6'
p114
sS'chunktype'
p115
S'head:NP2'
p116
ssbsg32
I00
sg33
I00
sg34
Nsg35
Nsg36
I2
sg37
I0
sg38
Nsg39
Nsg40
S'NN'
p117
sg42
g100
sg43
I00
sba(issf_api
Word
p118
(dp119
g6
I00
sg7
V\u0915\u0940
p120
sg9
(issf_api
FeatureSet
p121
(dp122
g12
(dp123
S'posn'
p124
S'60'
p125
sS'name'
p126
S'\xe0\xa4\x95\xe0\xa5\x80'
p127
sS'drel'
p128
S'lwg__psp:NP2'
p129
sS'chunktype'
p130
S'child:NP2'
p131
sS'af'
p132
S'\xe0\xa4\x95\xe0\xa4\xbe,psp,f,,,o,,'
p133
ssbsg32
I00
sg33
I00
sg34
Nsg35
Nsg36
I2
sg37
I0
sg38
Nsg39
Nsg40
S'PSP'
p134
sg42
g121
sg43
I00
sba(issf_api
Word
p135
(dp136
g6
I00
sg7
V\u0913\u0930
p137
sg9
(issf_api
FeatureSet
p138
(dp139
g12
(dp140
S'posn'
p141
S'70'
p142
sS'name'
p143
S'\xe0\xa4\x93\xe0\xa4\xb0'
p144
sS'drel'
p145
S'lwg__psp:NP2'
p146
sS'chunktype'
p147
S'child:NP2'
p148
sS'af'
p149
S'\xe0\xa4\x93\xe0\xa4\xb0,nst,f,sg,3,o,,'
p150
ssbsg32
I00
sg33
I00
sg34
Nsg35
Nsg36
I2
sg37
I0
sg38
Nsg39
Nsg40
S'NST'
p151
sg42
g138
sg43
I00
sba(issf_api
Word
p152
(dp153
g6
I00
sg7
V\u0938\u0947
p154
sg9
(issf_api
FeatureSet
p155
(dp156
g12
(dp157
S'posn'
p158
S'80'
p159
sS'name'
p160
S'\xe0\xa4\xb8\xe0\xa5\x87'
p161
sS'drel'
p162
S'lwg__psp:NP2'
p163
sS'chunktype'
p164
S'child:NP2'
p165
sS'af'
p166
S'\xe0\xa4\xb8\xe0\xa5\x87,psp,,,,,,'
p167
ssbsg32
I00
sg33
I00
sg34
Nsg35
Nsg36
I2
sg37
I0
sg38
Nsg39
Nsg40
S'PSP'
p168
sg42
g155
sg43
I00
sba(issf_api
Word
p169
(dp170
g6
I00
sg7
V\u0927\u093e\u0930\u094d\u092e\u093f\u0915
p171
sg9
(issf_api
FeatureSet
p172
(dp173
g12
(dp174
S'posn'
p175
S'90'
p176
sS'name'
p177
S'\xe0\xa4\xa7\xe0\xa4\xbe\xe0\xa4\xb0\xe0\xa5\x8d\xe0\xa4\xae\xe0\xa4\xbf\xe0\xa4\x95'
p178
sS'af'
p179
S'\xe0\xa4\xa7\xe0\xa4\xbe\xe0\xa4\xb0\xe0\xa5\x8d\xe0\xa4\xae\xe0\xa4\xbf\xe0\xa4\x95,adj,any,any,,o,,'
p180
sS'drel'
p181
S'nmod__adj:NP3'
p182
sS'chunktype'
p183
S'child:NP3'
p184
sS'cref'
p185
S'i2%0:t2'
p186
ssbsg32
I00
sg33
I00
sg34
Nsg35
Nsg36
I3
sg37
I0
sg38
Nsg39
Nsg40
S'JJ'
p187
sg42
g172
sg43
I00
sba(issf_api
Word
p188
(dp189
g6
I00
sg7
V\u0938\u094d\u0925\u0932\u094b\u0902
p190
sg9
(issf_api
FeatureSet
p191
(dp192
g12
(dp193
S'crefhead'
p194
S'\xe0\xa4\xb8\xe0\xa5\x8d\xe0\xa4\xa5\xe0\xa4\xb2\xe0\xa5\x8b\xe0\xa4\x82:i2'
p195
sS'posn'
p196
S'100'
p197
sS'name'
p198
S'\xe0\xa4\xb8\xe0\xa5\x8d\xe0\xa4\xa5\xe0\xa4\xb2\xe0\xa5\x8b\xe0\xa4\x82'
p199
sS'af'
p200
S'\xe0\xa4\xb8\xe0\xa5\x8d\xe0\xa4\xa5\xe0\xa4\xb2,n,m,pl,3,o,0_\xe0\xa4\xae\xe0\xa5\x87\xe0\xa4\x82,0'
p201
sS'chunkid'
p202
S'NP3'
p203
sS'chunktype'
p204
S'head:NP3'
p205
sS'crefchainhead'
p206
S'i2:t2'
p207
sS'vpos'
p208
S'vib_3'
p209
sS'cref'
p210
S'i2%1:t2'
p211
sS'drel'
p212
S'k7p:VGNF'
p213
ssbsg32
I00
sg33
I00
sg34
Nsg35
Nsg36
I3
sg37
I0
sg38
Nsg39
Nsg40
S'NN'
p214
sg42
g191
sg43
I00
sba(issf_api
Word
p215
(dp216
g6
I00
sg7
V\u092e\u0947\u0902
p217
sg9
(issf_api
FeatureSet
p218
(dp219
g12
(dp220
S'posn'
p221
S'110'
p222
sS'name'
p223
S'\xe0\xa4\xae\xe0\xa5\x87\xe0\xa4\x82'
p224
sS'drel'
p225
S'lwg__psp:NP3'
p226
sS'chunktype'
p227
S'child:NP3'
p228
sS'af'
p229
S'\xe0\xa4\xae\xe0\xa5\x87\xe0\xa4\x82,psp,,,,,,'
p230
ssbsg32
I00
sg33
I00
sg34
Nsg35
Nsg36
I3
sg37
I0
sg38
Nsg39
Nsg40
S'PSP'
p231
sg42
g218
sg43
I00
sba(issf_api
Word
p232
(dp233
g6
I00
sg7
V\u0935\u093f\u0926\u0947\u0936\u093f\u092f\u094b\u0902
p234
sg9
(issf_api
FeatureSet
p235
(dp236
g12
(dp237
S'crefhead'
p238
S'\xe0\xa4\xb5\xe0\xa4\xbf\xe0\xa4\xa6\xe0\xa5\x87\xe0\xa4\xb6\xe0\xa4\xbf\xe0\xa4\xaf\xe0\xa5\x8b\xe0\xa4\x82:i3'
p239
sS'posn'
p240
S'120'
p241
sS'name'
p242
S'\xe0\xa4\xb5\xe0\xa4\xbf\xe0\xa4\xa6\xe0\xa5\x87\xe0\xa4\xb6\xe0\xa4\xbf\xe0\xa4\xaf\xe0\xa5\x8b\xe0\xa4\x82'
p243
sS'af'
p244
S'\xe0\xa4\xb5\xe0\xa4\xbf\xe0\xa4\xa6\xe0\xa5\x87\xe0\xa4\xb6\xe0\xa5\x80,n,m,pl,3,o,0_\xe0\xa4\x95\xe0\xa4\xbe,0'
p245
sS'chunkid'
p246
S'NP4'
p247
sS'chunktype'
p248
S'head:NP4'
p249
sS'crefchainhead'
p250
S'i3:t3'
p251
sS'vpos'
p252
S'vib_2'
p253
sS'cref'
p254
S'i3%1:t3'
p255
sS'drel'
p256
S'r6:NP5'
p257
ssbsg32
I00
sg33
I00
sg34
Nsg35
Nsg36
I4
sg37
I0
sg38
Nsg39
Nsg40
S'NN'
p258
sg42
g235
sg43
I00
sba(issf_api
Word
p259
(dp260
g6
I00
sg7
V\u0915\u0947
p261
sg9
(issf_api
FeatureSet
p262
(dp263
g12
(dp264
S'posn'
p265
S'130'
p266
sS'name'
p267
S'\xe0\xa4\x95\xe0\xa5\x87'
p268
sS'drel'
p269
S'lwg__psp:NP4'
p270
sS'chunktype'
p271
S'child:NP4'
p272
sS'af'
p273
S'\xe0\xa4\x95\xe0\xa4\xbe,psp,m,sg,,o,,'
p274
ssbsg32
I00
sg33
I00
sg34
Nsg35
Nsg36
I4
sg37
I0
sg38
Nsg39
Nsg40
S'PSP'
p275
sg42
g262
sg43
I00
sba(issf_api
Word
p276
(dp277
g6
I00
sg7
V\u092a\u094d\u0930\u0935\u0947\u0936
p278
sg9
(issf_api
FeatureSet
p279
(dp280
g12
(dp281
S'posn'
p282
S'140'
p283
sS'name'
p284
S'\xe0\xa4\xaa\xe0\xa5\x8d\xe0\xa4\xb0\xe0\xa4\xb5\xe0\xa5\x87\xe0\xa4\xb6'
p285
sS'af'
p286
S'\xe0\xa4\xaa\xe0\xa5\x8d\xe0\xa4\xb0\xe0\xa4\xb5\xe0\xa5\x87\xe0\xa4\xb6,n,m,sg,3,o,0_\xe0\xa4\xaa\xe0\xa4\xb0,0'
p287
sS'chunkid'
p288
S'NP5'
p289
sS'drel'
p290
S'k7:VGNF'
p291
sS'vpos'
p292
S'vib_2'
p293
sS'chunktype'
p294
S'head:NP5'
p295
ssbsg32
I00
sg33
I00
sg34
Nsg35
Nsg36
I5
sg37
I0
sg38
Nsg39
Nsg40
S'NN'
p296
sg42
g279
sg43
I00
sba(issf_api
Word
p297
(dp298
g6
I00
sg7
V\u092a\u0930
p299
sg9
(issf_api
FeatureSet
p300
(dp301
g12
(dp302
S'posn'
p303
S'150'
p304
sS'name'
p305
S'\xe0\xa4\xaa\xe0\xa4\xb0'
p306
sS'drel'
p307
S'lwg__psp:NP5'
p308
sS'chunktype'
p309
S'child:NP5'
p310
sS'af'
p311
S'\xe0\xa4\xaa\xe0\xa4\xb0,psp,,,,,,'
p312
ssbsg32
I00
sg33
I00
sg34
Nsg35
Nsg36
I5
sg37
I0
sg38
Nsg39
Nsg40
S'PSP'
p313
sg42
g300
sg43
I00
sba(issf_api
Word
p314
(dp315
g6
I00
sg7
V\u0932\u0917\u093e\u0908
p316
sg9
(issf_api
FeatureSet
p317
(dp318
g12
(dp319
S'posn'
p320
S'160'
p321
sS'name'
p322
S'\xe0\xa4\xb2\xe0\xa4\x97\xe0\xa4\xbe\xe0\xa4\x88'
p323
sS'af'
p324
S'\xe0\xa4\xb2\xe0\xa4\x97\xe0\xa4\xbe,v,f,sg,any,,\xe0\xa4\xaf\xe0\xa4\xbe_\xe0\xa4\x9c\xe0\xa4\xbe+\xe0\xa4\xaf\xe0\xa4\xbe\xe0\xa5\xa7,yA'
p325
sS'chunkid'
p326
S'VGNF'
p327
sS'drel'
p328
S'nmod__k2inv:NP6'
p329
sS'vpos'
p330
S'tam_2'
p331
sS'chunktype'
p332
S'head:VGNF'
p333
ssbsg32
I00
sg33
I00
sg34
Nsg35
Nsg36
I6
sg37
I0
sg38
Nsg39
Nsg40
S'VM'
p334
sg42
g317
sg43
I00
sba(issf_api
Word
p335
(dp336
g6
I00
sg7
V\u0917\u0908
p337
sg9
(issf_api
FeatureSet
p338
(dp339
g12
(dp340
S'posn'
p341
S'170'
p342
sS'name'
p343
S'\xe0\xa4\x97\xe0\xa4\x88'
p344
sS'drel'
p345
S'lwg__vaux:VGNF'
p346
sS'chunktype'
p347
S'child:VGNF'
p348
sS'af'
p349
S'\xe0\xa4\x9c\xe0\xa4\xbe,v,f,sg,any,,\xe0\xa4\xaf\xe0\xa4\xbe\xe0\xa5\xa7,ya1'
p350
ssbsg32
I00
sg33
I00
sg34
Nsg35
Nsg36
I6
sg37
I0
sg38
Nsg39
Nsg40
S'VAUX'
p351
sg42
g338
sg43
I00
sba(issf_api
Word
p352
(dp353
g6
I00
sg7
V\u0930\u094b\u0915
p354
sg9
(issf_api
FeatureSet
p355
(dp356
g12
(dp357
S'posn'
p358
S'180'
p359
sS'name'
p360
S'\xe0\xa4\xb0\xe0\xa5\x8b\xe0\xa4\x95'
p361
sS'af'
p362
S'\xe0\xa4\xb0\xe0\xa5\x8b\xe0\xa4\x95,n,f,sg,3,o,0_\xe0\xa4\x95\xe0\xa5\x8b,0'
p363
sS'chunkid'
p364
S'NP6'
p365
sS'drel'
p366
S'k2:VGNF2'
p367
sS'vpos'
p368
S'vib_2'
p369
sS'chunktype'
p370
S'head:NP6'
p371
ssbsg32
I00
sg33
I00
sg34
Nsg35
Nsg36
I7
sg37
I0
sg38
Nsg39
Nsg40
S'NN'
p372
sg42
g355
sg43
I00
sba(issf_api
Word
p373
(dp374
g6
I00
sg7
V\u0915\u094b
p375
sg9
(issf_api
FeatureSet
p376
(dp377
g12
(dp378
S'posn'
p379
S'190'
p380
sS'name'
p381
S'\xe0\xa4\x95\xe0\xa5\x8b'
p382
sS'drel'
p383
S'lwg__psp:NP6'
p384
sS'chunktype'
p385
S'child:NP6'
p386
sS'af'
p387
S'\xe0\xa4\x95\xe0\xa5\x8b,psp,,,,,,'
p388
ssbsg32
I00
sg33
I00
sg34
Nsg35
Nsg36
I7
sg37
I0
sg38
Nsg39
Nsg40
S'PSP'
p389
sg42
g376
sg43
I00
sba(issf_api
Word
p390
(dp391
g6
I00
sg7
V\u0926\u0947\u0916\u0924\u0947
p392
sg9
(issf_api
FeatureSet
p393
(dp394
g12
(dp395
S'posn'
p396
S'200'
p397
sS'name'
p398
S'\xe0\xa4\xa6\xe0\xa5\x87\xe0\xa4\x96\xe0\xa4\xa4\xe0\xa5\x87'
p399
sS'af'
p400
S'\xe0\xa4\xa6\xe0\xa5\x87\xe0\xa4\x96,v,m,sg,any,,\xe0\xa4\xa4\xe0\xa4\xbe_\xe0\xa4\xb9\xe0\xa5\x8b+\xe0\xa4\xaf\xe0\xa4\xbe,wA'
p401
sS'chunkid'
p402
S'VGNF2'
p403
sS'drel'
p404
S'vmod:VGF'
p405
sS'vpos'
p406
S'tam_2'
p407
sS'chunktype'
p408
S'head:VGNF2'
p409
ssbsg32
I00
sg33
I00
sg34
Nsg35
Nsg36
I8
sg37
I0
sg38
Nsg39
Nsg40
S'VM'
p410
sg42
g393
sg43
I00
sba(issf_api
Word
p411
(dp412
g6
I00
sg7
V\u0939\u0941\u090f
p413
sg9
(issf_api
FeatureSet
p414
(dp415
g12
(dp416
S'posn'
p417
S'210'
p418
sS'name'
p419
S'\xe0\xa4\xb9\xe0\xa5\x81\xe0\xa4\x8f'
p420
sS'drel'
p421
S'lwg__vaux:VGNF2'
p422
sS'chunktype'
p423
S'child:VGNF2'
p424
sS'af'
p425
S'\xe0\xa4\xb9\xe0\xa5\x8b,v,m,sg,any,,\xe0\xa4\xaf\xe0\xa4\xbe,yA'
p426
ssbsg32
I00
sg33
I00
sg34
Nsg35
Nsg36
I8
sg37
I0
sg38
Nsg39
Nsg40
S'VAUX'
p427
sg42
g414
sg43
I00
sba(issf_api
Word
p428
(dp429
g6
I00
sg7
V\u092c\u094d\u0930\u093f\u091f\u093f\u0936
p430
sg9
(issf_api
FeatureSet
p431
(dp432
g12
(dp433
S'posn'
p434
S'220'
p435
sS'name'
p436
S'\xe0\xa4\xac\xe0\xa5\x8d\xe0\xa4\xb0\xe0\xa4\xbf\xe0\xa4\x9f\xe0\xa4\xbf\xe0\xa4\xb6'
p437
sS'af'
p438
S'\xe0\xa4\xac\xe0\xa5\x8d\xe0\xa4\xb0\xe0\xa4\xbf\xe0\xa4\x9f\xe0\xa4\xbf\xe0\xa4\xb6,adj,any,any,,o,,'
p439
sS'drel'
p440
S'nmod__adj:NP7'
p441
sS'chunktype'
p442
S'child:NP7'
p443
sS'cref'
p444
S'i4%0:t3,i5%0:t4,i6%0:t5'
p445
ssbsg32
I00
sg33
I00
sg34
Nsg35
Nsg36
I9
sg37
I0
sg38
Nsg39
Nsg40
S'JJ'
p446
sg42
g431
sg43
I00
sba(issf_api
Word
p447
(dp448
g6
I00
sg7
V\u0928\u093e\u0917\u0930\u093f\u0915\u094b\u0902
p449
sg9
(issf_api
FeatureSet
p450
(dp451
g12
(dp452
S'crefhead'
p453
S'\xe0\xa4\xa8\xe0\xa4\xbe\xe0\xa4\x97\xe0\xa4\xb0\xe0\xa4\xbf\xe0\xa4\x95\xe0\xa5\x8b\xe0\xa4\x82:i4'
p454
sS'posn'
p455
S'230'
p456
sS'name'
p457
S'\xe0\xa4\xa8\xe0\xa4\xbe\xe0\xa4\x97\xe0\xa4\xb0\xe0\xa4\xbf\xe0\xa4\x95\xe0\xa5\x8b\xe0\xa4\x82'
p458
sS'af'
p459
S'\xe0\xa4\xa8\xe0\xa4\xbe\xe0\xa4\x97\xe0\xa4\xb0\xe0\xa4\xbf\xe0\xa4\x95,n,m,pl,3,o,0_\xe0\xa4\x95\xe0\xa5\x8b,0'
p460
sS'chunkid'
p461
S'NP7'
p462
sS'creftype'
p463
S'Coreference-PartOf:i3'
p464
sS'chunktype'
p465
S'head:NP7'
p466
sS'vpos'
p467
S'vib_3'
p468
sS'cref'
p469
S'i4%1:t3,i5%0:t4,i6%0:t5'
p470
sS'drel'
p471
S'k4:VGNN'
p472
ssbsg32
I00
sg33
I00
sg34
Nsg35
Nsg36
I9
sg37
I0
sg38
Nsg39
Nsg40
S'NN'
p473
sg42
g450
sg43
I00
sba(issf_api
Word
p474
(dp475
g6
I00
sg7
V\u0915\u094b
p476
sg9
(issf_api
FeatureSet
p477
(dp478
g12
(dp479
S'posn'
p480
S'240'
p481
sS'name'
p482
S'\xe0\xa4\x95\xe0\xa5\x8b2'
p483
sS'af'
p484
S'\xe0\xa4\x95\xe0\xa5\x8b,psp,,,,,,'
p485
sS'drel'
p486
S'lwg__psp:NP7'
p487
sS'chunktype'
p488
S'child:NP7'
p489
sS'cref'
p490
S'i5%0:t4,i6%0:t5'
p491
ssbsg32
I00
sg33
I00
sg34
Nsg35
Nsg36
I9
sg37
I0
sg38
Nsg39
Nsg40
S'PSP'
p492
sg42
g477
sg43
I00
sba(issf_api
Word
p493
(dp494
g6
I00
sg7
V\u0905\u0924\u093f\u0930\u093f\u0915\u094d\u0924
p495
sg9
(issf_api
FeatureSet
p496
(dp497
g12
(dp498
S'posn'
p499
S'250'
p500
sS'name'
p501
S'\xe0\xa4\x85\xe0\xa4\xa4\xe0\xa4\xbf\xe0\xa4\xb0\xe0\xa4\xbf\xe0\xa4\x95\xe0\xa5\x8d\xe0\xa4\xa4'
p502
sS'af'
p503
S'\xe0\xa4\x85\xe0\xa4\xa4\xe0\xa4\xbf\xe0\xa4\xb0\xe0\xa4\xbf\xe0\xa4\x95\xe0\xa5\x8d\xe0\xa4\xa4,adj,any,any,,d,,'
p504
sS'drel'
p505
S'nmod__adj:NP8'
p506
sS'chunktype'
p507
S'child:NP8'
p508
sS'cref'
p509
S'i5%0:t4,i6%0:t5'
p510
ssbsg32
I00
sg33
I00
sg34
Nsg35
Nsg36
I10
sg37
I0
sg38
Nsg39
Nsg40
S'JJ'
p511
sg42
g496
sg43
I00
sba(issf_api
Word
p512
(dp513
g6
I00
sg7
V\u0938\u093e\u0935\u0927\u093e\u0928\u0940
p514
sg9
(issf_api
FeatureSet
p515
(dp516
g12
(dp517
S'posn'
p518
S'260'
p519
sS'name'
p520
S'\xe0\xa4\xb8\xe0\xa4\xbe\xe0\xa4\xb5\xe0\xa4\xa7\xe0\xa4\xbe\xe0\xa4\xa8\xe0\xa5\x80'
p521
sS'af'
p522
S'\xe0\xa4\xb8\xe0\xa4\xbe\xe0\xa4\xb5\xe0\xa4\xa7\xe0\xa4\xbe\xe0\xa4\xa8\xe0\xa5\x80,n,f,sg,3,d,0,0'
p523
sS'chunkid'
p524
S'NP8'
p525
sS'drel'
p526
S'k2:VGNN'
p527
sS'chunktype'
p528
S'head:NP8'
p529
sS'cref'
p530
S'i5%0:t4,i6%0:t5'
p531
ssbsg32
I00
sg33
I00
sg34
Nsg35
Nsg36
I10
sg37
I0
sg38
Nsg39
Nsg40
S'NN'
p532
sg42
g515
sg43
I00
sba(issf_api
Word
p533
(dp534
g6
I00
sg7
V\u092c\u0930\u0924\u0928\u0947
p535
sg9
(issf_api
FeatureSet
p536
(dp537
g12
(dp538
S'posn'
p539
S'270'
p540
sS'name'
p541
S'\xe0\xa4\xac\xe0\xa4\xb0\xe0\xa4\xa4\xe0\xa4\xa8\xe0\xa5\x87'
p542
sS'af'
p543
S'\xe0\xa4\xac\xe0\xa4\xb0\xe0\xa4\xa4,v,any,any,any,o,\xe0\xa4\xa8\xe0\xa4\xbe,nA'
p544
sS'chunkid'
p545
S'VGNN'
p546
sS'drel'
p547
S'ccof:CCP'
p548
sS'chunktype'
p549
S'head:VGNN'
p550
sS'cref'
p551
S'i5%0:t4,i6%0:t5'
p552
ssbsg32
I00
sg33
I00
sg34
Nsg35
Nsg36
I11
sg37
I0
sg38
Nsg39
Nsg40
S'VM'
p553
sg42
g536
sg43
I00
sba(issf_api
Word
p554
(dp555
g6
I00
sg7
V\u0914\u0930
p556
sg9
(issf_api
FeatureSet
p557
(dp558
g12
(dp559
S'posn'
p560
S'280'
p561
sS'name'
p562
S'\xe0\xa4\x94\xe0\xa4\xb0'
p563
sS'af'
p564
S'\xe0\xa4\x94\xe0\xa4\xb0,avy,,,,,,'
p565
sS'chunkid'
p566
S'CCP'
p567
sS'drel'
p568
S'r6-k2:NP12'
p569
sS'chunktype'
p570
S'head:CCP'
p571
sS'cref'
p572
S'i5%0:t4,i6%0:t5'
p573
ssbsg32
I00
sg33
I00
sg34
Nsg35
Nsg36
I12
sg37
I0
sg38
Nsg39
Nsg40
S'CC'
p574
sg42
g557
sg43
I00
sba(issf_api
Word
p575
(dp576
g6
I00
sg7
V\u0936\u0939\u0930
p577
sg9
(issf_api
FeatureSet
p578
(dp579
g12
(dp580
S'crefhead'
p581
S'\xe0\xa4\xb6\xe0\xa4\xb9\xe0\xa4\xb0:i7'
p582
sS'posn'
p583
S'290'
p584
sS'name'
p585
S'\xe0\xa4\xb6\xe0\xa4\xb9\xe0\xa4\xb0'
p586
sS'af'
p587
S'\xe0\xa4\xb6\xe0\xa4\xb9\xe0\xa4\xb0,n,m,sg,3,o,0_\xe0\xa4\x95\xe0\xa4\xbe,0'
p588
sS'acrefmodhead'
p589
S'\xe0\xa4\xb6\xe0\xa4\xb9\xe0\xa4\xb0:m1'
p590
sS'chunkid'
p591
S'NP9'
p592
sS'acrefmod'
p593
S'm1%1:i8'
p594
sS'creftype'
p595
S'Coreference-InferedRelation:i1'
p596
sS'chunktype'
p597
S'head:NP9'
p598
sS'vpos'
p599
S'vib_2'
p600
sS'cref'
p601
S'i7%1:t1,i5%0:t4,i6%0:t5'
p602
sS'drel'
p603
S'r6:NP10'
p604
ssbsg32
I00
sg33
I00
sg34
Nsg35
Nsg36
I13
sg37
I0
sg38
Nsg39
Nsg40
S'NN'
p605
sg42
g578
sg43
I00
sba(issf_api
Word
p606
(dp607
g6
I00
sg7
V\u0915\u0947
p608
sg9
(issf_api
FeatureSet
p609
(dp610
g12
(dp611
S'posn'
p612
S'300'
p613
sS'name'
p614
S'\xe0\xa4\x95\xe0\xa5\x872'
p615
sS'af'
p616
S'\xe0\xa4\x95\xe0\xa4\xbe,psp,m,pl,,o,,'
p617
sS'drel'
p618
S'lwg__psp:NP9'
p619
sS'chunktype'
p620
S'child:NP9'
p621
sS'cref'
p622
S'i5%0:t4,i6%0:t5'
p623
ssbsg32
I00
sg33
I00
sg34
Nsg35
Nsg36
I13
sg37
I0
sg38
Nsg39
Nsg40
S'PSP'
p624
sg42
g609
sg43
I00
sba(issf_api
Word
p625
(dp626
g6
I00
sg7
V\u092a\u0935\u093f\u0924\u094d\u0930
p627
sg9
(issf_api
FeatureSet
p628
(dp629
g12
(dp630
S'posn'
p631
S'310'
p632
sS'name'
p633
S'\xe0\xa4\xaa\xe0\xa4\xb5\xe0\xa4\xbf\xe0\xa4\xa4\xe0\xa5\x8d\xe0\xa4\xb0'
p634
sS'af'
p635
S'\xe0\xa4\xaa\xe0\xa4\xb5\xe0\xa4\xbf\xe0\xa4\xa4\xe0\xa5\x8d\xe0\xa4\xb0,adj,any,any,,o,,'
p636
sS'acrefmod'
p637
S'm2%0:i9'
p638
sS'drel'
p639
S'nmod__adj:NP10'
p640
sS'chunktype'
p641
S'child:NP10'
p642
sS'cref'
p643
S'i8%0:t2,i5%0:t4,i6%0:t5'
p644
ssbsg32
I00
sg33
I00
sg34
Nsg35
Nsg36
I14
sg37
I0
sg38
Nsg39
Nsg40
S'JJ'
p645
sg42
g628
sg43
I00
sba(issf_api
Word
p646
(dp647
g6
I00
sg7
V\u0938\u094d\u0925\u0932\u094b\u0902
p648
sg9
(issf_api
FeatureSet
p649
(dp650
g12
(dp651
S'a'
p652
S''
p653
sS'crefhead'
p654
S'\xe0\xa4\xb8\xe0\xa5\x8d\xe0\xa4\xa5\xe0\xa4\xb2\xe0\xa5\x8b\xe0\xa4\x82:i8'
p655
sS'name'
p656
S'\xe0\xa4\xb8\xe0\xa5\x8d\xe0\xa4\xa5\xe0\xa4\xb2\xe0\xa5\x8b\xe0\xa4\x822'
p657
sS'af'
p658
S'\xe0\xa4\xb8\xe0\xa5\x8d\xe0\xa4\xa5\xe0\xa4\xb2,n,m,pl,3,o,0_\xe0\xa4\x95\xe0\xa4\xbe,0'
p659
sS'vpos'
p660
S'vib_3'
p661
sS'acrefmodhead'
p662
S'\xe0\xa4\xb8\xe0\xa5\x8d\xe0\xa4\xa5\xe0\xa4\xb2\xe0\xa5\x8b\xe0\xa4\x82:m2'
p663
sS'chunkid'
p664
S'NP10'
p665
sS'crefmod'
p666
S'm1:i8'
p667
sS'creftype'
p668
S'Coreference-Identity:i2'
p669
sS'chunktype'
p670
S'head:NP10'
p671
sS'posn'
p672
S'320'
p673
sS'cref'
p674
S'i8%1:t2,i5%0:t4,i6%0:t5'
p675
sS'drel'
p676
S'r6:NP11'
p677
ssbsg32
I00
sg33
I00
sg34
Nsg35
Nsg36
I14
sg37
I0
sg38
Nsg39
Nsg40
S'NN'
p678
sg42
g649
sg43
I00
sba(issf_api
Word
p679
(dp680
g6
I00
sg7
V\u0915\u0940
p681
sg9
(issf_api
FeatureSet
p682
(dp683
g12
(dp684
S'posn'
p685
S'330'
p686
sS'name'
p687
S'\xe0\xa4\x95\xe0\xa5\x802'
p688
sS'af'
p689
S'\xe0\xa4\x95\xe0\xa4\xbe,psp,f,sg,,d,,'
p690
sS'drel'
p691
S'lwg__psp:NP10'
p692
sS'chunktype'
p693
S'child:NP10'
p694
sS'cref'
p695
S'i5%0:t4,i6%0:t5'
p696
ssbsg32
I00
sg33
I00
sg34
Nsg35
Nsg36
I14
sg37
I0
sg38
Nsg39
Nsg40
S'PSP'
p697
sg42
g682
sg43
I00
sba(issf_api
Word
p698
(dp699
g6
I00
sg7
V\u092f\u093e\u0924\u094d\u0930\u093e
p700
sg9
(issf_api
FeatureSet
p701
(dp702
g12
(dp703
S'crefhead'
p704
S'\xe0\xa4\xaf\xe0\xa4\xbe\xe0\xa4\xa4\xe0\xa5\x8d\xe0\xa4\xb0\xe0\xa4\xbe:i9'
p705
sS'posn'
p706
S'340'
p707
sS'name'
p708
S'\xe0\xa4\xaf\xe0\xa4\xbe\xe0\xa4\xa4\xe0\xa5\x8d\xe0\xa4\xb0\xe0\xa4\xbe'
p709
sS'af'
p710
S'\xe0\xa4\xaf\xe0\xa4\xbe\xe0\xa4\xa4\xe0\xa5\x8d\xe0\xa4\xb0\xe0\xa4\xbe,n,f,sg,3,d,0,0'
p711
sS'chunkid'
p712
S'NP11'
p713
sS'crefmod'
p714
S'm2:i9'
p715
sS'chunktype'
p716
S'head:NP11'
p717
sS'crefchainhead'
p718
S'i9:t6'
p719
sS'cref'
p720
S'i5%0:t4,i9%1:t6,i6%0:t5'
p721
sS'drel'
p722
S'k2:VGNN2'
p723
ssbsg32
I00
sg33
I00
sg34
Nsg35
Nsg36
I15
sg37
I0
sg38
Nsg39
Nsg40
S'NN'
p724
sg42
g701
sg43
I00
sba(issf_api
Word
p725
(dp726
g6
I00
sg7
V\u0938\u094d\u0925\u0917\u093f\u0924
p727
sg9
(issf_api
FeatureSet
p728
(dp729
g12
(dp730
S'posn'
p731
S'350'
p732
sS'name'
p733
S'\xe0\xa4\xb8\xe0\xa5\x8d\xe0\xa4\xa5\xe0\xa4\x97\xe0\xa4\xbf\xe0\xa4\xa4'
p734
sS'af'
p735
S'\xe0\xa4\xb8\xe0\xa5\x8d\xe0\xa4\xa5\xe0\xa4\x97\xe0\xa4\xbf\xe0\xa4\xa4,adj,any,any,,,,'
p736
sS'chunkid'
p737
S'JJP2'
p738
sS'drel'
p739
S'pof:VGNN2'
p740
sS'chunktype'
p741
S'head:JJP2'
p742
sS'cref'
p743
S'i5%0:t4,i6%0:t5'
p744
ssbsg32
I00
sg33
I00
sg34
Nsg35
Nsg36
I16
sg37
I0
sg38
Nsg39
Nsg40
S'JJ'
p745
sg42
g728
sg43
I00
sba(issf_api
Word
p746
(dp747
g6
I00
sg7
V\u0915\u0930\u0928\u0947
p748
sg9
(issf_api
FeatureSet
p749
(dp750
g12
(dp751
S'crefhead'
p752
S'\xe0\xa4\x95\xe0\xa4\xb0\xe0\xa4\xa8\xe0\xa5\x87:i5'
p753
sS'posn'
p754
S'360'
p755
sS'name'
p756
S'\xe0\xa4\x95\xe0\xa4\xb0\xe0\xa4\xa8\xe0\xa5\x87'
p757
sS'af'
p758
S'\xe0\xa4\x95\xe0\xa4\xb0,v,any,sg,any,o,\xe0\xa4\xa8\xe0\xa4\xbe_\xe0\xa4\x95\xe0\xa4\xbe,nA'
p759
sS'chunkid'
p760
S'VGNN2'
p761
sS'chunktype'
p762
S'head:VGNN2'
p763
sS'crefchainhead'
p764
S'i5:t4'
p765
sS'vpos'
p766
S'tam_2'
p767
sS'cref'
p768
S'i5%1:t4,i6%0:t5'
p769
sS'drel'
p770
S'ccof:CCP'
p771
ssbsg32
I00
sg33
I00
sg34
Nsg35
Nsg36
I17
sg37
I0
sg38
Nsg39
Nsg40
S'VM'
p772
sg42
g749
sg43
I00
sba(issf_api
Word
p773
(dp774
g6
I00
sg7
V\u0915\u0940
p775
sg9
(issf_api
FeatureSet
p776
(dp777
g12
(dp778
S'posn'
p779
S'370'
p780
sS'name'
p781
S'\xe0\xa4\x95\xe0\xa5\x803'
p782
sS'af'
p783
S'\xe0\xa4\x95\xe0\xa4\xbe,psp,f,sg,,d,,'
p784
sS'drel'
p785
S'lwg__psp:VGNN2'
p786
sS'chunktype'
p787
S'child:VGNN2'
p788
sS'cref'
p789
S'i6%0:t5'
p790
ssbsg32
I00
sg33
I00
sg34
Nsg35
Nsg36
I17
sg37
I0
sg38
Nsg39
Nsg40
S'PSP'
p791
sg42
g776
sg43
I00
sba(issf_api
Word
p792
(dp793
g6
I00
sg7
V\u0938\u0932\u093e\u0939
p794
sg9
(issf_api
FeatureSet
p795
(dp796
g12
(dp797
S'posn'
p798
S'380'
p799
sS'name'
p800
S'\xe0\xa4\xb8\xe0\xa4\xb2\xe0\xa4\xbe\xe0\xa4\xb9'
p801
sS'af'
p802
S'\xe0\xa4\xb8\xe0\xa4\xb2\xe0\xa4\xbe\xe0\xa4\xb9,n,f,sg,3,d,0,0'
p803
sS'chunkid'
p804
S'NP12'
p805
sS'drel'
p806
S'pof:VGF'
p807
sS'chunktype'
p808
S'head:NP12'
p809
sS'cref'
p810
S'i6%0:t5'
p811
ssbsg32
I00
sg33
I00
sg34
Nsg35
Nsg36
I18
sg37
I0
sg38
Nsg39
Nsg40
S'NN'
p812
sg42
g795
sg43
I00
sba(issf_api
Word
p813
(dp814
g6
I00
sg7
V\u0926\u0940
p815
sg9
(issf_api
FeatureSet
p816
(dp817
g12
(dp818
S'crefhead'
p819
S'\xe0\xa4\xa6\xe0\xa5\x80:i6'
p820
sS'posn'
p821
S'390'
p822
sS'name'
p823
S'\xe0\xa4\xa6\xe0\xa5\x80'
p824
sS'af'
p825
S'\xe0\xa4\xa6\xe0\xa5\x87,v,f,sg,3,,\xe0\xa4\xaf\xe0\xa4\xbe_\xe0\xa4\x9c\xe0\xa4\xbe+\xe0\xa4\xaf\xe0\xa4\xbe\xe0\xa5\xa7_\xe0\xa4\xb9\xe0\xa5\x88,yA'
p826
sS'chunkid'
p827
S'VGF'
p828
sS'stype'
p829
S'declarative'
p830
sS'chunktype'
p831
S'head:VGF'
p832
sS'crefchainhead'
p833
S'i6:t5'
p834
sS'voicetype'
p835
S'passive'
p836
sS'vpos'
p837
S'tam_2_3'
p838
sS'cref'
p839
S'i6%0:t5'
p840
ssbsg32
I00
sg33
I00
sg34
Nsg35
Nsg36
I19
sg37
I0
sg38
Nsg39
Nsg40
S'VM'
p841
sg42
g816
sg43
I00
sba(issf_api
Word
p842
(dp843
g6
I00
sg7
V\u0917\u0908
p844
sg9
(issf_api
FeatureSet
p845
(dp846
g12
(dp847
S'posn'
p848
S'400'
p849
sS'name'
p850
S'\xe0\xa4\x97\xe0\xa4\x882'
p851
sS'af'
p852
S'\xe0\xa4\x9c\xe0\xa4\xbe,v,f,sg,any,,\xe0\xa4\xaf\xe0\xa4\xbe\xe0\xa5\xa7,'
p853
sS'drel'
p854
S'lwg__vaux:VGF'
p855
sS'chunktype'
p856
S'child:VGF'
p857
sS'cref'
p858
S'i6%0:t5'
p859
ssbsg32
I00
sg33
I00
sg34
Nsg35
Nsg36
I19
sg37
I0
sg38
Nsg39
Nsg40
S'VAUX'
p860
sg42
g845
sg43
I00
sba(issf_api
Word
p861
(dp862
g6
I00
sg7
V\u0939\u0948
p863
sg9
(issf_api
FeatureSet
p864
(dp865
g12
(dp866
S'posn'
p867
S'410'
p868
sS'name'
p869
S'\xe0\xa4\xb9\xe0\xa5\x88'
p870
sS'af'
p871
S'\xe0\xa4\xb9\xe0\xa5\x88,v,any,sg,3,,\xe0\xa4\xb9\xe0\xa5\x88,hE'
p872
sS'drel'
p873
S'lwg__vaux:VGF'
p874
sS'chunktype'
p875
S'child:VGF'
p876
sS'cref'
p877
S'i6%1:t5'
p878
ssbsg32
I00
sg33
I00
sg34
Nsg35
Nsg36
I19
sg37
I0
sg38
Nsg39
Nsg40
S'VAUX'
p879
sg42
g864
sg43
I00
sba(issf_api
Word
p880
(dp881
g6
I00
sg7
V\u0964
p882
sg9
(issf_api
FeatureSet
p883
(dp884
g12
(dp885
S'posn'
p886
S'420'
p887
sS'name'
p888
S'\xe0\xa5\xa4'
p889
sS'af'
p890
S'\xe0\xa5\xa4,punc,,,,,0,'
p891
sS'chunkid'
p892
S'BLK'
p893
sS'drel'
p894
S'rsym:VGF'
p895
sS'chunktype'
p896
S'head:BLK'
p897
ssbsg32
I00
sg33
I00
sg34
Nsg35
Nsg36
I20
sg37
I0
sg38
Nsg39
Nsg40
S'SYM'
p898
sg42
g883
sg43
I00
sba(issf_api
Word
p899
(dp900
g6
I00
sg7
V\u0935\u093f\u0926\u0947\u0936
p901
sg9
(issf_api
FeatureSet
p902
(dp903
g12
(dp904
S'posn'
p905
S'10'
p906
sS'name'
p907
S'\xe0\xa4\xb5\xe0\xa4\xbf\xe0\xa4\xa6\xe0\xa5\x87\xe0\xa4\xb6'
p908
sS'af'
p909
S'\xe0\xa4\xb5\xe0\xa4\xbf\xe0\xa4\xa6\xe0\xa5\x87\xe0\xa4\xb6,n,m,sg,3,d,0,0'
p910
sS'drel'
p911
S'pof__cn:NP'
p912
sS'chunktype'
p913
S'child:NP'
p914
sS'cref'
p915
S'i10%0:t7'
p916
ssbsg32
I00
sg33
I00
sg34
Nsg35
Nsg36
I0
sg37
I1
sg38
Nsg39
Nsg40
S'NNPC'
p917
sg42
g902
sg43
I00
sba(issf_api
Word
p918
(dp919
g6
I00
sg7
V\u0935\u093f\u092d\u093e\u0917
p920
sg9
(issf_api
FeatureSet
p921
(dp922
g12
(dp923
S'crefhead'
p924
S'\xe0\xa4\xb5\xe0\xa4\xbf\xe0\xa4\xad\xe0\xa4\xbe\xe0\xa4\x97:i10'
p925
sS'posn'
p926
S'20'
p927
sS'name'
p928
S'\xe0\xa4\xb5\xe0\xa4\xbf\xe0\xa4\xad\xe0\xa4\xbe\xe0\xa4\x97'
p929
sS'af'
p930
S'\xe0\xa4\xb5\xe0\xa4\xbf\xe0\xa4\xad\xe0\xa4\xbe\xe0\xa4\x97,n,m,sg,3,o,0_\xe0\xa4\x95\xe0\xa4\xbe_\xe0\xa4\x93\xe0\xa4\xb0_\xe0\xa4\xb8\xe0\xa5\x87,0'
p931
sS'chunkid'
p932
S'NP'
p933
sS'chunktype'
p934
S'head:NP'
p935
sS'crefchainhead'
p936
S'i10:t7'
p937
sS'vpos'
p938
S'vib_3_4_5'
p939
sS'cref'
p940
S'i10%1:t7'
p941
sS'drel'
p942
S'rd:VGF'
p943
ssbsg32
I00
sg33
I00
sg34
Nsg35
Nsg36
I0
sg37
I1
sg38
Nsg39
Nsg40
S'NNP'
p944
sg42
g921
sg43
I00
sba(issf_api
Word
p945
(dp946
g6
I00
sg7
V\u0915\u0940
p947
sg9
(issf_api
FeatureSet
p948
(dp949
g12
(dp950
S'posn'
p951
S'30'
p952
sS'name'
p953
S'\xe0\xa4\x95\xe0\xa5\x80'
p954
sS'drel'
p955
S'lwg__psp:NP'
p956
sS'chunktype'
p957
S'child:NP'
p958
sS'af'
p959
S'\xe0\xa4\x95\xe0\xa4\xbe,psp,f,,,o,,'
p960
ssbsg32
I00
sg33
I00
sg34
Nsg35
Nsg36
I0
sg37
I1
sg38
Nsg39
Nsg40
S'PSP'
p961
sg42
g948
sg43
I00
sba(issf_api
Word
p962
(dp963
g6
I00
sg7
V\u0913\u0930
p964
sg9
(issf_api
FeatureSet
p965
(dp966
g12
(dp967
S'posn'
p968
S'40'
p969
sS'name'
p970
S'\xe0\xa4\x93\xe0\xa4\xb0'
p971
sS'drel'
p972
S'lwg__psp:NP'
p973
sS'chunktype'
p974
S'child:NP'
p975
sS'af'
p976
S'\xe0\xa4\x93\xe0\xa4\xb0,nst,f,sg,3,o,,'
p977
ssbsg32
I00
sg33
I00
sg34
Nsg35
Nsg36
I0
sg37
I1
sg38
Nsg39
Nsg40
S'NST'
p978
sg42
g965
sg43
I00
sba(issf_api
Word
p979
(dp980
g6
I00
sg7
V\u0938\u0947
p981
sg9
(issf_api
FeatureSet
p982
(dp983
g12
(dp984
S'posn'
p985
S'50'
p986
sS'name'
p987
S'\xe0\xa4\xb8\xe0\xa5\x87'
p988
sS'drel'
p989
S'lwg__psp:NP'
p990
sS'chunktype'
p991
S'child:NP'
p992
sS'af'
p993
S'\xe0\xa4\xb8\xe0\xa5\x87,psp,,,,,,'
p994
ssbsg32
I00
sg33
I00
sg34
Nsg35
Nsg36
I0
sg37
I1
sg38
Nsg39
Nsg40
S'PSP'
p995
sg42
g982
sg43
I00
sba(issf_api
Word
p996
(dp997
g6
I00
sg7
V\u0938\u094b\u092e\u0935\u093e\u0930
p998
sg9
(issf_api
FeatureSet
p999
(dp1000
g12
(dp1001
S'posn'
p1002
S'60'
p1003
sS'name'
p1004
S'\xe0\xa4\xb8\xe0\xa5\x8b\xe0\xa4\xae\xe0\xa4\xb5\xe0\xa4\xbe\xe0\xa4\xb0'
p1005
sS'af'
p1006
S'\xe0\xa4\xb8\xe0\xa5\x8b\xe0\xa4\xae\xe0\xa4\xb5\xe0\xa4\xbe\xe0\xa4\xb0,n,m,sg,3,o,0_\xe0\xa4\x95\xe0\xa5\x8b,0'
p1007
sS'chunkid'
p1008
S'NP2'
p1009
sS'drel'
p1010
S'k7t:VGF'
p1011
sS'vpos'
p1012
S'vib_2'
p1013
sS'chunktype'
p1014
S'head:NP2'
p1015
ssbsg32
I00
sg33
I00
sg34
Nsg35
Nsg36
I1
sg37
I1
sg38
Nsg39
Nsg40
S'NNP'
p1016
sg42
g999
sg43
I00
sba(issf_api
Word
p1017
(dp1018
g6
I00
sg7
V\u0915\u094b
p1019
sg9
(issf_api
FeatureSet
p1020
(dp1021
g12
(dp1022
S'posn'
p1023
S'70'
p1024
sS'name'
p1025
S'\xe0\xa4\x95\xe0\xa5\x8b'
p1026
sS'drel'
p1027
S'lwg__psp:NP2'
p1028
sS'chunktype'
p1029
S'child:NP2'
p1030
sS'af'
p1031
S'\xe0\xa4\x95\xe0\xa5\x8b,psp,,,,,,'
p1032
ssbsg32
I00
sg33
I00
sg34
Nsg35
Nsg36
I1
sg37
I1
sg38
Nsg39
Nsg40
S'PSP'
p1033
sg42
g1020
sg43
I00
sba(issf_api
Word
p1034
(dp1035
g6
I00
sg7
V\u092f\u0939
p1036
sg9
(issf_api
FeatureSet
p1037
(dp1038
g12
(dp1039
S'posn'
p1040
S'80'
p1041
sS'name'
p1042
S'\xe0\xa4\xaf\xe0\xa4\xb9'
p1043
sS'af'
p1044
S'\xe0\xa4\xaf\xe0\xa4\xb9,pn,any,sg,3,d,,'
p1045
sS'drel'
p1046
S'nmod__adj:NP3'
p1047
sS'chunktype'
p1048
S'child:NP3'
p1049
sS'cref'
p1050
S'i11%0:t4'
p1051
ssbsg32
I00
sg33
I00
sg34
Nsg35
Nsg36
I2
sg37
I1
sg38
Nsg39
Nsg40
S'DEM'
p1052
sg42
g1037
sg43
I00
sba(issf_api
Word
p1053
(dp1054
g6
I00
sg7
V\u091a\u0947\u0924\u093e\u0935\u0928\u0940
p1055
sg9
(issf_api
FeatureSet
p1056
(dp1057
g12
(dp1058
S'crefhead'
p1059
S'\xe0\xa4\x9a\xe0\xa5\x87\xe0\xa4\xa4\xe0\xa4\xbe\xe0\xa4\xb5\xe0\xa4\xa8\xe0\xa5\x80:i11'
p1060
sS'posn'
p1061
S'90'
p1062
sS'name'
p1063
S'\xe0\xa4\x9a\xe0\xa5\x87\xe0\xa4\xa4\xe0\xa4\xbe\xe0\xa4\xb5\xe0\xa4\xa8\xe0\xa5\x80'
p1064
sS'af'
p1065
S'\xe0\xa4\x9a\xe0\xa5\x87\xe0\xa4\xa4\xe0\xa4\xbe\xe0\xa4\xb5\xe0\xa4\xa8\xe0\xa5\x80,n,f,sg,3,d,0,0'
p1066
sS'chunkid'
p1067
S'NP3'
p1068
sS'creftype'
p1069
S'Coreference-Noun-Noun:i5'
p1070
sS'chunktype'
p1071
S'head:NP3'
p1072
sS'cref'
p1073
S'i11%1:t4'
p1074
sS'drel'
p1075
S'k2:VGF'
p1076
ssbsg32
I00
sg33
I00
sg34
Nsg35
Nsg36
I2
sg37
I1
sg38
Nsg39
Nsg40
S'NN'
p1077
sg42
g1056
sg43
I00
sba(issf_api
Word
p1078
(dp1079
g6
I00
sg7
V\u091c\u093e\u0930\u0940
p1080
sg9
(issf_api
FeatureSet
p1081
(dp1082
g12
(dp1083
S'posn'
p1084
S'100'
p1085
sS'name'
p1086
S'\xe0\xa4\x9c\xe0\xa4\xbe\xe0\xa4\xb0\xe0\xa5\x80'
p1087
sS'af'
p1088
S'\xe0\xa4\x9c\xe0\xa4\xbe\xe0\xa4\xb0\xe0\xa5\x80,adj,any,any,,,,'
p1089
sS'chunkid'
p1090
S'JJP'
p1091
sS'drel'
p1092
S'pof:VGF'
p1093
sS'chunktype'
p1094
S'head:JJP'
p1095
ssbsg32
I00
sg33
I00
sg34
Nsg35
Nsg36
I3
sg37
I1
sg38
Nsg39
Nsg40
S'JJ'
p1096
sg42
g1081
sg43
I00
sba(issf_api
Word
p1097
(dp1098
g6
I00
sg7
V\u0915\u0940
p1099
sg9
(issf_api
FeatureSet
p1100
(dp1101
g12
(dp1102
S'posn'
p1103
S'110'
p1104
sS'name'
p1105
S'\xe0\xa4\x95\xe0\xa5\x802'
p1106
sS'af'
p1107
S'\xe0\xa4\x95\xe0\xa4\xb0,v,f,sg,any,,\xe0\xa4\xaf\xe0\xa4\xbe_\xe0\xa4\x9c\xe0\xa4\xbe+\xe0\xa4\xaf\xe0\xa4\xbe\xe0\xa5\xa7,yA'
p1108
sS'chunkid'
p1109
S'VGF'
p1110
sS'chunktype'
p1111
S'head:VGF'
p1112
sS'voicetype'
p1113
S'passive'
p1114
sS'vpos'
p1115
S'tam_2'
p1116
sS'stype'
p1117
S'declarative'
p1118
ssbsg32
I00
sg33
I00
sg34
Nsg35
Nsg36
I4
sg37
I1
sg38
Nsg39
Nsg40
S'VM'
p1119
sg42
g1100
sg43
I00
sba(issf_api
Word
p1120
(dp1121
g6
I00
sg7
V\u0917\u0908
p1122
sg9
(issf_api
FeatureSet
p1123
(dp1124
g12
(dp1125
S'posn'
p1126
S'120'
p1127
sS'name'
p1128
S'\xe0\xa4\x97\xe0\xa4\x88'
p1129
sS'drel'
p1130
S'lwg__vaux:VGF'
p1131
sS'chunktype'
p1132
S'child:VGF'
p1133
sS'af'
p1134
S'\xe0\xa4\x9c\xe0\xa4\xbe,v,f,sg,any,,\xe0\xa4\xaf\xe0\xa4\xbe\xe0\xa5\xa7,ya1'
p1135
ssbsg32
I00
sg33
I00
sg34
Nsg35
Nsg36
I4
sg37
I1
sg38
Nsg39
Nsg40
S'VAUX'
p1136
sg42
g1123
sg43
I00
sba(issf_api
Word
p1137
(dp1138
g6
I00
sg7
V\u0964
p1139
sg9
(issf_api
FeatureSet
p1140
(dp1141
g12
(dp1142
S'posn'
p1143
S'130'
p1144
sS'name'
p1145
S'\xe0\xa5\xa4'
p1146
sS'af'
p1147
S'\xe0\xa5\xa4,punc,,,,,,'
p1148
sS'chunkid'
p1149
S'BLK'
p1150
sS'drel'
p1151
S'rsym:VGF'
p1152
sS'chunktype'
p1153
S'head:BLK'
p1154
ssbsg32
I00
sg33
I00
sg34
Nsg35
Nsg36
I5
sg37
I1
sg38
Nsg39
Nsg40
S'SYM'
p1155
sg42
g1140
sg43
I00
sba(issf_api
Word
p1156
(dp1157
g6
I00
sg7
V\u0907\u0938\u0938\u0947
p1158
sg9
(issf_api
FeatureSet
p1159
(dp1160
g12
(dp1161
S'crefhead'
p1162
S'\xe0\xa4\x87\xe0\xa4\xb8\xe0\xa4\xb8\xe0\xa5\x87:i12'
p1163
sS'posn'
p1164
S'10'
p1165
sS'name'
p1166
S'\xe0\xa4\x87\xe0\xa4\xb8\xe0\xa4\xb8\xe0\xa5\x87'
p1167
sS'af'
p1168
S'\xe0\xa4\xaf\xe0\xa4\xb9,pn,any,sg,3,o,0_\xe0\xa4\xaa\xe0\xa4\xb9\xe0\xa4\xb2\xe0\xa5\x87,se'
p1169
sS'chunkid'
p1170
S'NP'
p1171
sS'creftype'
p1172
S'Anaphora-E:i6'
p1173
sS'chunktype'
p1174
S'head:NP'
p1175
sS'vpos'
p1176
S'vib_2'
p1177
sS'cref'
p1178
S'i12%1:t5'
p1179
sS'drel'
p1180
S'k7t:VGF'
p1181
ssbsg32
I00
sg33
I00
sg34
Nsg35
Nsg36
I0
sg37
I2
sg38
Nsg39
Nsg40
S'PRP'
p1182
sg42
g1159
sg43
I00
sba(issf_api
Word
p1183
(dp1184
g6
I00
sg7
V\u092a\u0939\u0932\u0947
p1185
sg9
(issf_api
FeatureSet
p1186
(dp1187
g12
(dp1188
S'posn'
p1189
S'20'
p1190
sS'name'
p1191
S'\xe0\xa4\xaa\xe0\xa4\xb9\xe0\xa4\xb2\xe0\xa5\x87'
p1192
sS'drel'
p1193
S'lwg__psp:NP'
p1194
sS'chunktype'
p1195
S'child:NP'
p1196
sS'af'
p1197
S'\xe0\xa4\xaa\xe0\xa4\xb9\xe0\xa4\xb2\xe0\xa5\x87,nst,m,sg,3,d,,'
p1198
ssbsg32
I00
sg33
I00
sg34
Nsg35
Nsg36
I0
sg37
I2
sg38
Nsg39
Nsg40
S'NST'
p1199
sg42
g1186
sg43
I00
sba(issf_api
Word
p1200
(dp1201
g6
I00
sg7
V\u0932\u0916\u0928\u090a
p1202
sg9
(issf_api
FeatureSet
p1203
(dp1204
g12
(dp1205
S'crefhead'
p1206
S'\xe0\xa4\xb2\xe0\xa4\x96\xe0\xa4\xa8\xe0\xa4\x8a:i13'
p1207
sS'posn'
p1208
S'30'
p1209
sS'name'
p1210
S'\xe0\xa4\xb2\xe0\xa4\x96\xe0\xa4\xa8\xe0\xa4\x8a'
p1211
sS'af'
p1212
S'\xe0\xa4\xb2\xe0\xa4\x96\xe0\xa4\xa8\xe0\xa4\x8a,n,m,sg,3,d,0,0'
p1213
sS'chunkid'
p1214
S'NP2'
p1215
sS'creftype'
p1216
S'Coreference-Noun-Noun:i7'
p1217
sS'chunktype'
p1218
S'head:NP2'
p1219
sS'cref'
p1220
S'i13%1:t1'
p1221
sS'drel'
p1222
S'jjmod:JJP'
p1223
ssbsg32
I00
sg33
I00
sg34
Nsg35
Nsg36
I1
sg37
I2
sg38
Nsg39
Nsg40
S'NNP'
p1224
sg42
g1203
sg43
I00
sba(issf_api
Word
p1225
(dp1226
g6
I00
sg7
V\u0938\u094d\u0925\u093f\u0924
p1227
sg9
(issf_api
FeatureSet
p1228
(dp1229
g12
(dp1230
S'posn'
p1231
S'40'
p1232
sS'name'
p1233
S'\xe0\xa4\xb8\xe0\xa5\x8d\xe0\xa4\xa5\xe0\xa4\xbf\xe0\xa4\xa4'
p1234
sS'af'
p1235
S'\xe0\xa4\xb8\xe0\xa5\x8d\xe0\xa4\xa5\xe0\xa4\xbf\xe0\xa4\xa4,adj,any,any,,o,,'
p1236
sS'chunkid'
p1237
S'JJP'
p1238
sS'drel'
p1239
S'nmod:NP3'
p1240
sS'chunktype'
p1241
S'head:JJP'
p1242
ssbsg32
I00
sg33
I00
sg34
Nsg35
Nsg36
I2
sg37
I2
sg38
Nsg39
Nsg40
S'JJ'
p1243
sg42
g1228
sg43
I00
sba(issf_api
Word
p1244
(dp1245
g6
I00
sg7
V\u0939\u0941\u0938\u0948\u0928\u092c\u093e\u0926
p1246
sg9
(issf_api
FeatureSet
p1247
(dp1248
g12
(dp1249
S'posn'
p1250
S'50'
p1251
sS'name'
p1252
S'\xe0\xa4\xb9\xe0\xa5\x81\xe0\xa4\xb8\xe0\xa5\x88\xe0\xa4\xa8\xe0\xa4\xac\xe0\xa4\xbe\xe0\xa4\xa6'
p1253
sS'drel'
p1254
S'pof__cn:NP3'
p1255
sS'chunktype'
p1256
S'child:NP3'
p1257
sS'af'
p1258
S'\xe0\xa4\xb9\xe0\xa5\x81\xe0\xa4\xb8\xe0\xa5\x88\xe0\xa4\xa8\xe0\xa4\xac\xe0\xa4\xbe\xe0\xa4\xa6,n,m,sg,3,d,0,0'
p1259
ssbsg32
I00
sg33
I00
sg34
Nsg35
Nsg36
I3
sg37
I2
sg38
Nsg39
Nsg40
S'NNPC'
p1260
sg42
g1247
sg43
I00
sba(issf_api
Word
p1261
(dp1262
g6
I00
sg7
V\u091f\u094d\u0930\u0938\u094d\u091f
p1263
sg9
(issf_api
FeatureSet
p1264
(dp1265
g12
(dp1266
S'posn'
p1267
S'60'
p1268
sS'name'
p1269
S'\xe0\xa4\x9f\xe0\xa5\x8d\xe0\xa4\xb0\xe0\xa4\xb8\xe0\xa5\x8d\xe0\xa4\x9f'
p1270
sS'af'
p1271
S'\xe0\xa4\x9f\xe0\xa5\x8d\xe0\xa4\xb0\xe0\xa4\xb8\xe0\xa5\x8d\xe0\xa4\x9f,n,m,sg,3,o,0_\xe0\xa4\xa8\xe0\xa5\x87,0'
p1272
sS'chunkid'
p1273
S'NP3'
p1274
sS'drel'
p1275
S'k1:VGF'
p1276
sS'vpos'
p1277
S'vib_3'
p1278
sS'chunktype'
p1279
S'head:NP3'
p1280
ssbsg32
I00
sg33
I00
sg34
Nsg35
Nsg36
I3
sg37
I2
sg38
Nsg39
Nsg40
S'NNP'
p1281
sg42
g1264
sg43
I00
sba(issf_api
Word
p1282
(dp1283
g6
I00
sg7
V\u0928\u0947
p1284
sg9
(issf_api
FeatureSet
p1285
(dp1286
g12
(dp1287
S'posn'
p1288
S'70'
p1289
sS'name'
p1290
S'\xe0\xa4\xa8\xe0\xa5\x87'
p1291
sS'drel'
p1292
S'lwg__psp:NP3'
p1293
sS'chunktype'
p1294
S'child:NP3'
p1295
sS'af'
p1296
S'\xe0\xa4\xa8\xe0\xa5\x87,psp,,,,,,'
p1297
ssbsg32
I00
sg33
I00
sg34
Nsg35
Nsg36
I3
sg37
I2
sg38
Nsg39
Nsg40
S'PSP'
p1298
sg42
g1285
sg43
I00
sba(issf_api
Word
p1299
(dp1300
g6
I00
sg7
V\u0905\u092e\u0947\u0930\u093f\u0915\u0940
p1301
sg9
(issf_api
FeatureSet
p1302
(dp1303
g12
(dp1304
S'posn'
p1305
S'80'
p1306
sS'name'
p1307
S'\xe0\xa4\x85\xe0\xa4\xae\xe0\xa5\x87\xe0\xa4\xb0\xe0\xa4\xbf\xe0\xa4\x95\xe0\xa5\x80'
p1308
sS'drel'
p1309
S'nmod__adj:NP4'
p1310
sS'chunktype'
p1311
S'child:NP4'
p1312
sS'af'
p1313
S'\xe0\xa4\x85\xe0\xa4\xae\xe0\xa5\x87\xe0\xa4\xb0\xe0\xa4\xbf\xe0\xa4\x95\xe0\xa5\x80,adj,any,any,,o,,'
p1314
ssbsg32
I00
sg33
I00
sg34
Nsg35
Nsg36
I4
sg37
I2
sg38
Nsg39
Nsg40
S'JJ'
p1315
sg42
g1302
sg43
I00
sba(issf_api
Word
p1316
(dp1317
g6
I00
sg7
V\u0928\u0947\u0924\u0943\u0924\u094d\u0935
p1318
sg9
(issf_api
FeatureSet
p1319
(dp1320
g12
(dp1321
S'posn'
p1322
S'90'
p1323
sS'name'
p1324
S'\xe0\xa4\xa8\xe0\xa5\x87\xe0\xa4\xa4\xe0\xa5\x83\xe0\xa4\xa4\xe0\xa5\x8d\xe0\xa4\xb5'
p1325
sS'af'
p1326
S'\xe0\xa4\xa8\xe0\xa5\x87\xe0\xa4\xa4\xe0\xa5\x83\xe0\xa4\xa4\xe0\xa5\x8d\xe0\xa4\xb5,n,m,sg,3,o,0_\xe0\xa4\xb5\xe0\xa4\xbe\xe0\xa4\xb2\xe0\xa4\xbe,0'
p1327
sS'chunkid'
p1328
S'NP4'
p1329
sS'drel'
p1330
S'nmod:NP5'
p1331
sS'vpos'
p1332
S'vib_3'
p1333
sS'chunktype'
p1334
S'head:NP4'
p1335
ssbsg32
I00
sg33
I00
sg34
Nsg35
Nsg36
I4
sg37
I2
sg38
Nsg39
Nsg40
S'NN'
p1336
sg42
g1319
sg43
I00
sba(issf_api
Word
p1337
(dp1338
g6
I00
sg7
V\u0935\u093e\u0932\u0940
p1339
sg9
(issf_api
FeatureSet
p1340
(dp1341
g12
(dp1342
S'posn'
p1343
S'100'
p1344
sS'name'
p1345
S'\xe0\xa4\xb5\xe0\xa4\xbe\xe0\xa4\xb2\xe0\xa5\x80'
p1346
sS'drel'
p1347
S'lwg__psp:NP4'
p1348
sS'chunktype'
p1349
S'child:NP4'
p1350
sS'af'
p1351
S'\xe0\xa4\xb5\xe0\xa4\xbe\xe0\xa4\xb2\xe0\xa4\xbe,psp,f,sg,,o,,'
p1352
ssbsg32
I00
sg33
I00
sg34
Nsg35
Nsg36
I4
sg37
I2
sg38
Nsg39
Nsg40
S'PSP'
p1353
sg42
g1340
sg43
I00
sba(issf_api
Word
p1354
(dp1355
g6
I00
sg7
V\u0917\u0920\u092c\u0902\u0927\u0928
p1356
sg9
(issf_api
FeatureSet
p1357
(dp1358
g12
(dp1359
S'posn'
p1360
S'110'
p1361
sS'name'
p1362
S'\xe0\xa4\x97\xe0\xa4\xa0\xe0\xa4\xac\xe0\xa4\x82\xe0\xa4\xa7\xe0\xa4\xa8'
p1363
sS'drel'
p1364
S'pof__cn:NP5'
p1365
sS'chunktype'
p1366
S'child:NP5'
p1367
sS'af'
p1368
S'\xe0\xa4\x97\xe0\xa4\xa0\xe0\xa4\xac\xe0\xa4\x82\xe0\xa4\xa7\xe0\xa4\xa8,n,m,sg,3,d,0,0'
p1369
ssbsg32
I00
sg33
I00
sg34
Nsg35
Nsg36
I5
sg37
I2
sg38
Nsg39
Nsg40
S'NNC'
p1370
sg42
g1357
sg43
I00
sba(issf_api
Word
p1371
(dp1372
g6
I00
sg7
V\u0938\u0947\u0928\u093e
p1373
sg9
(issf_api
FeatureSet
p1374
(dp1375
g12
(dp1376
S'posn'
p1377
S'120'
p1378
sS'name'
p1379
S'\xe0\xa4\xb8\xe0\xa5\x87\xe0\xa4\xa8\xe0\xa4\xbe'
p1380
sS'af'
p1381
S'\xe0\xa4\xb8\xe0\xa5\x87\xe0\xa4\xa8\xe0\xa4\xbe,n,f,sg,3,o,0_\xe0\xa4\xa6\xe0\xa5\x8d\xe0\xa4\xb5\xe0\xa4\xbe\xe0\xa4\xb0\xe0\xa4\xbe,0'
p1382
sS'chunkid'
p1383
S'NP5'
p1384
sS'drel'
p1385
S'k1:VGNN'
p1386
sS'vpos'
p1387
S'vib_3'
p1388
sS'chunktype'
p1389
S'head:NP5'
p1390
ssbsg32
I00
sg33
I00
sg34
Nsg35
Nsg36
I5
sg37
I2
sg38
Nsg39
Nsg40
S'NN'
p1391
sg42
g1374
sg43
I00
sba(issf_api
Word
p1392
(dp1393
g6
I00
sg7
V\u0926\u094d\u0935\u093e\u0930\u093e
p1394
sg9
(issf_api
FeatureSet
p1395
(dp1396
g12
(dp1397
S'posn'
p1398
S'130'
p1399
sS'name'
p1400
S'\xe0\xa4\xa6\xe0\xa5\x8d\xe0\xa4\xb5\xe0\xa4\xbe\xe0\xa4\xb0\xe0\xa4\xbe'
p1401
sS'drel'
p1402
S'lwg__psp:NP5'
p1403
sS'chunktype'
p1404
S'child:NP5'
p1405
sS'af'
p1406
S'\xe0\xa4\xa6\xe0\xa5\x8d\xe0\xa4\xb5\xe0\xa4\xbe\xe0\xa4\xb0\xe0\xa4\xbe,psp,,,,,,'
p1407
ssbsg32
I00
sg33
I00
sg34
Nsg35
Nsg36
I5
sg37
I2
sg38
Nsg39
Nsg40
S'PSP'
p1408
sg42
g1395
sg43
I00
sba(issf_api
Word
p1409
(dp1410
g6
I00
sg7
V\u092a\u0935\u093f\u0924\u094d\u0930
p1411
sg9
(issf_api
FeatureSet
p1412
(dp1413
g12
(dp1414
S'posn'
p1415
S'140'
p1416
sS'name'
p1417
S'\xe0\xa4\xaa\xe0\xa4\xb5\xe0\xa4\xbf\xe0\xa4\xa4\xe0\xa5\x8d\xe0\xa4\xb0'
p1418
sS'af'
p1419
S'\xe0\xa4\xaa\xe0\xa4\xb5\xe0\xa4\xbf\xe0\xa4\xa4\xe0\xa5\x8d\xe0\xa4\xb0,adj,any,any,,o,,'
p1420
sS'drel'
p1421
S'nmod__adj:NP6'
p1422
sS'chunktype'
p1423
S'child:NP6'
p1424
sS'cref'
p1425
S'i14%0:t2'
p1426
ssbsg32
I00
sg33
I00
sg34
Nsg35
Nsg36
I6
sg37
I2
sg38
Nsg39
Nsg40
S'JJ'
p1427
sg42
g1412
sg43
I00
sba(issf_api
Word
p1428
(dp1429
g6
I00
sg7
V\u0938\u094d\u0925\u0932\u094b\u0902
p1430
sg9
(issf_api
FeatureSet
p1431
(dp1432
g12
(dp1433
S'crefhead'
p1434
S'\xe0\xa4\xb8\xe0\xa5\x8d\xe0\xa4\xa5\xe0\xa4\xb2\xe0\xa5\x8b\xe0\xa4\x82:i14'
p1435
sS'posn'
p1436
S'150'
p1437
sS'name'
p1438
S'\xe0\xa4\xb8\xe0\xa5\x8d\xe0\xa4\xa5\xe0\xa4\xb2\xe0\xa5\x8b\xe0\xa4\x82'
p1439
sS'af'
p1440
S'\xe0\xa4\xb8\xe0\xa5\x8d\xe0\xa4\xa5\xe0\xa4\xb2,n,m,pl,3,o,0_\xe0\xa4\x95\xe0\xa5\x8b,0'
p1441
sS'chunkid'
p1442
S'NP6'
p1443
sS'creftype'
p1444
S'Coreference-Identity:i8'
p1445
sS'chunktype'
p1446
S'head:NP6'
p1447
sS'vpos'
p1448
S'vib_3'
p1449
sS'cref'
p1450
S'i14%1:t2'
p1451
sS'drel'
p1452
S'k2:VGNN'
p1453
ssbsg32
I00
sg33
I00
sg34
Nsg35
Nsg36
I6
sg37
I2
sg38
Nsg39
Nsg40
S'NN'
p1454
sg42
g1431
sg43
I00
sba(issf_api
Word
p1455
(dp1456
g6
I00
sg7
V\u0915\u094b
p1457
sg9
(issf_api
FeatureSet
p1458
(dp1459
g12
(dp1460
S'posn'
p1461
S'160'
p1462
sS'name'
p1463
S'\xe0\xa4\x95\xe0\xa5\x8b'
p1464
sS'drel'
p1465
S'lwg__psp:NP6'
p1466
sS'chunktype'
p1467
S'child:NP6'
p1468
sS'af'
p1469
S'\xe0\xa4\x95\xe0\xa5\x8b,psp,,,,,,'
p1470
ssbsg32
I00
sg33
I00
sg34
Nsg35
Nsg36
I6
sg37
I2
sg38
Nsg39
Nsg40
S'PSP'
p1471
sg42
g1458
sg43
I00
sba(issf_api
Word
p1472
(dp1473
g6
I00
sg7
V\u0905\u092a\u0935\u093f\u0924\u094d\u0930
p1474
sg9
(issf_api
FeatureSet
p1475
(dp1476
g12
(dp1477
S'posn'
p1478
S'170'
p1479
sS'name'
p1480
S'\xe0\xa4\x85\xe0\xa4\xaa\xe0\xa4\xb5\xe0\xa4\xbf\xe0\xa4\xa4\xe0\xa5\x8d\xe0\xa4\xb0'
p1481
sS'af'
p1482
S'\xe0\xa4\x85\xe0\xa4\xaa\xe0\xa4\xb5\xe0\xa4\xbf\xe0\xa4\xa4\xe0\xa5\x8d\xe0\xa4\xb0,adj,any,any,,,,'
p1483
sS'chunkid'
p1484
S'JJP2'
p1485
sS'drel'
p1486
S'pof:VGNN'
p1487
sS'chunktype'
p1488
S'head:JJP2'
p1489
ssbsg32
I00
sg33
I00
sg34
Nsg35
Nsg36
I7
sg37
I2
sg38
Nsg39
Nsg40
S'JJ'
p1490
sg42
g1475
sg43
I00
sba(issf_api
Word
p1491
(dp1492
g6
I00
sg7
V\u0915\u0930\u0928\u0947
p1493
sg9
(issf_api
FeatureSet
p1494
(dp1495
g12
(dp1496
S'posn'
p1497
S'180'
p1498
sS'name'
p1499
S'\xe0\xa4\x95\xe0\xa4\xb0\xe0\xa4\xa8\xe0\xa5\x87'
p1500
sS'af'
p1501
S'\xe0\xa4\x95\xe0\xa4\xb0,v,any,any,any,o,\xe0\xa4\xa8\xe0\xa4\xbe,nA'
p1502
sS'chunkid'
p1503
S'VGNN'
p1504
sS'drel'
p1505
S'ccof:CCP'
p1506
sS'chunktype'
p1507
S'head:VGNN'
p1508
ssbsg32
I00
sg33
I00
sg34
Nsg35
Nsg36
I8
sg37
I2
sg38
Nsg39
Nsg40
S'VM'
p1509
sg42
g1494
sg43
I00
sba(issf_api
Word
p1510
(dp1511
g6
I00
sg7
V\u0914\u0930
p1512
sg9
(issf_api
FeatureSet
p1513
(dp1514
g12
(dp1515
S'posn'
p1516
S'190'
p1517
sS'name'
p1518
S'\xe0\xa4\x94\xe0\xa4\xb0'
p1519
sS'af'
p1520
S'\xe0\xa4\x94\xe0\xa4\xb0,avy,,,,,,'
p1521
sS'chunkid'
p1522
S'CCP'
p1523
sS'drel'
p1524
S'r6:NP9'
p1525
sS'chunktype'
p1526
S'head:CCP'
p1527
ssbsg32
I00
sg33
I00
sg34
Nsg35
Nsg36
I9
sg37
I2
sg38
Nsg39
Nsg40
S'CC'
p1528
sg42
g1513
sg43
I00
sba(issf_api
Word
p1529
(dp1530
g6
I00
sg7
V\u0907\u0930\u093e\u0915\u093f\u092f\u094b\u0902
p1531
sg9
(issf_api
FeatureSet
p1532
(dp1533
g12
(dp1534
S'posn'
p1535
S'200'
p1536
sS'name'
p1537
S'\xe0\xa4\x87\xe0\xa4\xb0\xe0\xa4\xbe\xe0\xa4\x95\xe0\xa4\xbf\xe0\xa4\xaf\xe0\xa5\x8b\xe0\xa4\x82'
p1538
sS'af'
p1539
S'\xe0\xa4\x87\xe0\xa4\xb0\xe0\xa4\xbe\xe0\xa4\x95\xe0\xa5\x80,n,m,pl,3,o,0_\xe0\xa4\xaa\xe0\xa4\xb0,0'
p1540
sS'chunkid'
p1541
S'NP7'
p1542
sS'drel'
p1543
S'k7:VGNN2'
p1544
sS'vpos'
p1545
S'vib_2'
p1546
sS'chunktype'
p1547
S'head:NP7'
p1548
ssbsg32
I00
sg33
I00
sg34
Nsg35
Nsg36
I10
sg37
I2
sg38
Nsg39
Nsg40
S'NNP'
p1549
sg42
g1532
sg43
I00
sba(issf_api
Word
p1550
(dp1551
g6
I00
sg7
V\u092a\u0930
p1552
sg9
(issf_api
FeatureSet
p1553
(dp1554
g12
(dp1555
S'posn'
p1556
S'210'
p1557
sS'name'
p1558
S'\xe0\xa4\xaa\xe0\xa4\xb0'
p1559
sS'drel'
p1560
S'lwg__psp:NP7'
p1561
sS'chunktype'
p1562
S'child:NP7'
p1563
sS'af'
p1564
S'\xe0\xa4\xaa\xe0\xa4\xb0,psp,,,,,,'
p1565
ssbsg32
I00
sg33
I00
sg34
Nsg35
Nsg36
I10
sg37
I2
sg38
Nsg39
Nsg40
S'PSP'
p1566
sg42
g1553
sg43
I00
sba(issf_api
Word
p1567
(dp1568
g6
I00
sg7
V\u0905\u0924\u094d\u092f\u093e\u091a\u093e\u0930
p1569
sg9
(issf_api
FeatureSet
p1570
(dp1571
g12
(dp1572
S'posn'
p1573
S'220'
p1574
sS'name'
p1575
S'\xe0\xa4\x85\xe0\xa4\xa4\xe0\xa5\x8d\xe0\xa4\xaf\xe0\xa4\xbe\xe0\xa4\x9a\xe0\xa4\xbe\xe0\xa4\xb0'
p1576
sS'af'
p1577
S'\xe0\xa4\x85\xe0\xa4\xa4\xe0\xa5\x8d\xe0\xa4\xaf\xe0\xa4\xbe\xe0\xa4\x9a\xe0\xa4\xbe\xe0\xa4\xb0,n,m,sg,3,d,0,0'
p1578
sS'chunkid'
p1579
S'NP8'
p1580
sS'drel'
p1581
S'pof:VGNN2'
p1582
sS'chunktype'
p1583
S'head:NP8'
p1584
ssbsg32
I00
sg33
I00
sg34
Nsg35
Nsg36
I11
sg37
I2
sg38
Nsg39
Nsg40
S'NN'
p1585
sg42
g1570
sg43
I00
sba(issf_api
Word
p1586
(dp1587
g6
I00
sg7
V\u0915\u0930\u0928\u0947
p1588
sg9
(issf_api
FeatureSet
p1589
(dp1590
g12
(dp1591
S'posn'
p1592
S'230'
p1593
sS'name'
p1594
S'\xe0\xa4\x95\xe0\xa4\xb0\xe0\xa4\xa8\xe0\xa5\x872'
p1595
sS'af'
p1596
S'\xe0\xa4\x95\xe0\xa4\xb0,v,any,sg,any,o,\xe0\xa4\xa8\xe0\xa4\xbe_\xe0\xa4\x95\xe0\xa4\xbe,nA'
p1597
sS'chunkid'
p1598
S'VGNN2'
p1599
sS'drel'
p1600
S'ccof:CCP'
p1601
sS'vpos'
p1602
S'tam_2'
p1603
sS'chunktype'
p1604
S'head:VGNN2'
p1605
ssbsg32
I00
sg33
I00
sg34
Nsg35
Nsg36
I12
sg37
I2
sg38
Nsg39
Nsg40
S'VM'
p1606
sg42
g1589
sg43
I00
sba(issf_api
Word
p1607
(dp1608
g6
I00
sg7
V\u0915\u0947
p1609
sg9
(issf_api
FeatureSet
p1610
(dp1611
g12
(dp1612
S'posn'
p1613
S'240'
p1614
sS'name'
p1615
S'\xe0\xa4\x95\xe0\xa5\x87'
p1616
sS'drel'
p1617
S'lwg__psp:VGNN2'
p1618
sS'chunktype'
p1619
S'child:VGNN2'
p1620
sS'af'
p1621
S'\xe0\xa4\x95\xe0\xa4\xbe,psp,m,sg,,o,,'
p1622
ssbsg32
I00
sg33
I00
sg34
Nsg35
Nsg36
I12
sg37
I2
sg38
Nsg39
Nsg40
S'PSP'
p1623
sg42
g1610
sg43
I00
sba(issf_api
Word
p1624
(dp1625
g6
I00
sg7
V\u0935\u093f\u0930\u094b\u0927
p1626
sg9
(issf_api
FeatureSet
p1627
(dp1628
g12
(dp1629
S'posn'
p1630
S'250'
p1631
sS'name'
p1632
S'\xe0\xa4\xb5\xe0\xa4\xbf\xe0\xa4\xb0\xe0\xa5\x8b\xe0\xa4\xa7'
p1633
sS'af'
p1634
S'\xe0\xa4\xb5\xe0\xa4\xbf\xe0\xa4\xb0\xe0\xa5\x8b\xe0\xa4\xa7,n,m,sg,3,o,0_\xe0\xa4\xae\xe0\xa5\x87\xe0\xa4\x82,0'
p1635
sS'chunkid'
p1636
S'NP9'
p1637
sS'drel'
p1638
S'k7:VGF'
p1639
sS'vpos'
p1640
S'vib_2'
p1641
sS'chunktype'
p1642
S'head:NP9'
p1643
ssbsg32
I00
sg33
I00
sg34
Nsg35
Nsg36
I13
sg37
I2
sg38
Nsg39
Nsg40
S'NN'
p1644
sg42
g1627
sg43
I00
sba(issf_api
Word
p1645
(dp1646
g6
I00
sg7
V\u092e\u0947\u0902
p1647
sg9
(issf_api
FeatureSet
p1648
(dp1649
g12
(dp1650
S'posn'
p1651
S'260'
p1652
sS'name'
p1653
S'\xe0\xa4\xae\xe0\xa5\x87\xe0\xa4\x82'
p1654
sS'drel'
p1655
S'lwg__psp:NP9'
p1656
sS'chunktype'
p1657
S'child:NP9'
p1658
sS'af'
p1659
S'\xe0\xa4\xae\xe0\xa5\x87\xe0\xa4\x82,psp,,,,,,'
p1660
ssbsg32
I00
sg33
I00
sg34
Nsg35
Nsg36
I13
sg37
I2
sg38
Nsg39
Nsg40
S'PSP'
p1661
sg42
g1648
sg43
I00
sba(issf_api
Word
p1662
(dp1663
g6
I00
sg7
V\u092c\u0921\u093c\u093e
p1664
sg9
(issf_api
FeatureSet
p1665
(dp1666
g12
(dp1667
S'posn'
p1668
S'270'
p1669
sS'name'
p1670
S'\xe0\xa4\xac\xe0\xa4\xa1\xe0\xa4\xbc\xe0\xa4\xbe'
p1671
sS'af'
p1672
S'\xe0\xa4\xac\xe0\xa4\xa1\xe0\xa4\xbc\xe0\xa4\xbe,adj,m,sg,,o,,'
p1673
sS'chunkid'
p1674
S'JJP3'
p1675
sS'drel'
p1676
S'ccof:CCP2'
p1677
sS'chunktype'
p1678
S'head:JJP3'
p1679
ssbsg32
I00
sg33
I00
sg34
Nsg35
Nsg36
I14
sg37
I2
sg38
Nsg39
Nsg40
S'JJ'
p1680
sg42
g1665
sg43
I00
sba(issf_api
Word
p1681
(dp1682
g6
I00
sg7
V\u0914\u0930
p1683
sg9
(issf_api
FeatureSet
p1684
(dp1685
g12
(dp1686
S'posn'
p1687
S'280'
p1688
sS'name'
p1689
S'\xe0\xa4\x94\xe0\xa4\xb02'
p1690
sS'af'
p1691
S'\xe0\xa4\x94\xe0\xa4\xb0,avy,,,,,,'
p1692
sS'chunkid'
p1693
S'CCP2'
p1694
sS'drel'
p1695
S'nmod:NP10'
p1696
sS'chunktype'
p1697
S'head:CCP2'
p1698
ssbsg32
I00
sg33
I00
sg34
Nsg35
Nsg36
I15
sg37
I2
sg38
Nsg39
Nsg40
S'CC'
p1699
sg42
g1684
sg43
I00
sba(issf_api
Word
p1700
(dp1701
g6
I00
sg7
V\u091b\u094b\u091f\u093e
p1702
sg9
(issf_api
FeatureSet
p1703
(dp1704
g12
(dp1705
S'posn'
p1706
S'290'
p1707
sS'name'
p1708
S'\xe0\xa4\x9b\xe0\xa5\x8b\xe0\xa4\x9f\xe0\xa4\xbe'
p1709
sS'af'
p1710
S'\xe0\xa4\x9b\xe0\xa5\x8b\xe0\xa4\x9f\xe0\xa4\xbe,adj,m,sg,,o,,'
p1711
sS'chunkid'
p1712
S'JJP4'
p1713
sS'drel'
p1714
S'ccof:CCP2'
p1715
sS'chunktype'
p1716
S'head:JJP4'
p1717
ssbsg32
I00
sg33
I00
sg34
Nsg35
Nsg36
I16
sg37
I2
sg38
Nsg39
Nsg40
S'JJ'
p1718
sg42
g1703
sg43
I00
sba(issf_api
Word
p1719
(dp1720
g6
I00
sg7
V\u0907\u092e\u093e\u092e\u092c\u093e\u0921\u093c\u093e
p1721
sg9
(issf_api
FeatureSet
p1722
(dp1723
g12
(dp1724
S'posn'
p1725
S'300'
p1726
sS'name'
p1727
S'\xe0\xa4\x87\xe0\xa4\xae\xe0\xa4\xbe\xe0\xa4\xae\xe0\xa4\xac\xe0\xa4\xbe\xe0\xa4\xa1\xe0\xa4\xbc\xe0\xa4\xbe'
p1728
sS'af'
p1729
S'\xe0\xa4\x87\xe0\xa4\xae\xe0\xa4\xbe\xe0\xa4\xae\xe0\xa4\xac\xe0\xa4\xbe\xe0\xa4\xa1\xe0\xa4\xbc\xe0\xa4\xbe,n,m,sg,3,o,0_\xe0\xa4\xae\xe0\xa5\x87\xe0\xa4\x82,0'
p1730
sS'chunkid'
p1731
S'NP10'
p1732
sS'drel'
p1733
S'k7p:VGF'
p1734
sS'vpos'
p1735
S'vib_2'
p1736
sS'chunktype'
p1737
S'head:NP10'
p1738
ssbsg32
I00
sg33
I00
sg34
Nsg35
Nsg36
I17
sg37
I2
sg38
Nsg39
Nsg40
S'NNP'
p1739
sg42
g1722
sg43
I00
sba(issf_api
Word
p1740
(dp1741
g6
I00
sg7
V\u092e\u0947\u0902
p1742
sg9
(issf_api
FeatureSet
p1743
(dp1744
g12
(dp1745
S'posn'
p1746
S'310'
p1747
sS'name'
p1748
S'\xe0\xa4\xae\xe0\xa5\x87\xe0\xa4\x822'
p1749
sS'drel'
p1750
S'lwg__psp:NP10'
p1751
sS'chunktype'
p1752
S'child:NP10'
p1753
sS'af'
p1754
S'\xe0\xa4\xae\xe0\xa5\x87\xe0\xa4\x82,psp,,,,,,'
p1755
ssbsg32
I00
sg33
I00
sg34
Nsg35
Nsg36
I17
sg37
I2
sg38
Nsg39
Nsg40
S'PSP'
p1756
sg42
g1743
sg43
I00
sba(issf_api
Word
p1757
(dp1758
g6
I00
sg7
V\u0905\u092e\u0947\u0930\u093f\u0915\u0940
p1759
sg9
(issf_api
FeatureSet
p1760
(dp1761
g12
(dp1762
S'posn'
p1763
S'320'
p1764
sS'name'
p1765
S'\xe0\xa4\x85\xe0\xa4\xae\xe0\xa5\x87\xe0\xa4\xb0\xe0\xa4\xbf\xe0\xa4\x95\xe0\xa5\x802'
p1766
sS'af'
p1767
S'\xe0\xa4\x85\xe0\xa4\xae\xe0\xa5\x87\xe0\xa4\xb0\xe0\xa4\xbf\xe0\xa4\x95\xe0\xa5\x80,adj,any,any,,o,,'
p1768
sS'chunkid'
p1769
S'JJP5'
p1770
sS'drel'
p1771
S'ccof:CCP3'
p1772
sS'chunktype'
p1773
S'head:JJP5'
p1774
sS'cref'
p1775
S'i15%0:t3'
p1776
ssbsg32
I00
sg33
I00
sg34
Nsg35
Nsg36
I18
sg37
I2
sg38
Nsg39
Nsg40
S'JJ'
p1777
sg42
g1760
sg43
I00
sba(issf_api
Word
p1778
(dp1779
g6
I00
sg7
V,
p1780
sg9
(issf_api
FeatureSet
p1781
(dp1782
g12
(dp1783
S'posn'
p1784
S'330'
p1785
sS'name'
p1786
S','
p1787
sS'af'
p1788
S'COMMA,punc,,,,,,'
p1789
sS'drel'
p1790
S'rsym:JJP5'
p1791
sS'chunktype'
p1792
S'child:JJP5'
p1793
sS'cref'
p1794
S'i15%0:t3'
p1795
ssbsg32
I00
sg33
I00
sg34
Nsg35
Nsg36
I18
sg37
I2
sg38
Nsg39
Nsg40
S'SYM'
p1796
sg42
g1781
sg43
I00
sba(issf_api
Word
p1797
(dp1798
g6
I00
sg7
V\u092c\u094d\u0930\u093f\u091f\u093f\u0936
p1799
sg9
(issf_api
FeatureSet
p1800
(dp1801
g12
(dp1802
S'posn'
p1803
S'340'
p1804
sS'name'
p1805
S'\xe0\xa4\xac\xe0\xa5\x8d\xe0\xa4\xb0\xe0\xa4\xbf\xe0\xa4\x9f\xe0\xa4\xbf\xe0\xa4\xb6'
p1806
sS'af'
p1807
S'\xe0\xa4\xac\xe0\xa5\x8d\xe0\xa4\xb0\xe0\xa4\xbf\xe0\xa4\x9f\xe0\xa4\xbf\xe0\xa4\xb6,adj,any,any,,o,,'
p1808
sS'chunkid'
p1809
S'JJP6'
p1810
sS'drel'
p1811
S'ccof:CCP3'
p1812
sS'chunktype'
p1813
S'head:JJP6'
p1814
sS'cref'
p1815
S'i15%0:t3'
p1816
ssbsg32
I00
sg33
I00
sg34
Nsg35
Nsg36
I19
sg37
I2
sg38
Nsg39
Nsg40
S'JJ'
p1817
sg42
g1800
sg43
I00
sba(issf_api
Word
p1818
(dp1819
g6
I00
sg7
V\u0914\u0930
p1820
sg9
(issf_api
FeatureSet
p1821
(dp1822
g12
(dp1823
S'posn'
p1824
S'350'
p1825
sS'name'
p1826
S'\xe0\xa4\x94\xe0\xa4\xb03'
p1827
sS'af'
p1828
S'\xe0\xa4\x94\xe0\xa4\xb0,avy,,,,,,'
p1829
sS'chunkid'
p1830
S'CCP3'
p1831
sS'drel'
p1832
S'nmod:NP11'
p1833
sS'chunktype'
p1834
S'head:CCP3'
p1835
sS'cref'
p1836
S'i15%0:t3'
p1837
ssbsg32
I00
sg33
I00
sg34
Nsg35
Nsg36
I20
sg37
I2
sg38
Nsg39
Nsg40
S'CC'
p1838
sg42
g1821
sg43
I00
sba(issf_api
Word
p1839
(dp1840
g6
I00
sg7
V\u0907\u0938\u094d\u0930\u093e\u0907\u0932\u0940
p1841
sg9
(issf_api
FeatureSet
p1842
(dp1843
g12
(dp1844
S'posn'
p1845
S'360'
p1846
sS'name'
p1847
S'\xe0\xa4\x87\xe0\xa4\xb8\xe0\xa5\x8d\xe0\xa4\xb0\xe0\xa4\xbe\xe0\xa4\x87\xe0\xa4\xb2\xe0\xa5\x80'
p1848
sS'af'
p1849
S'\xe0\xa4\x87\xe0\xa4\xb8\xe0\xa5\x8d\xe0\xa4\xb0\xe0\xa4\xbe\xe0\xa4\x87\xe0\xa4\xb2\xe0\xa5\x80,adj,any,any,,o,,'
p1850
sS'chunkid'
p1851
S'JJP7'
p1852
sS'drel'
p1853
S'ccof:CCP3'
p1854
sS'chunktype'
p1855
S'head:JJP7'
p1856
sS'cref'
p1857
S'i15%0:t3'
p1858
ssbsg32
I00
sg33
I00
sg34
Nsg35
Nsg36
I21
sg37
I2
sg38
Nsg39
Nsg40
S'JJ'
p1859
sg42
g1842
sg43
I00
sba(issf_api
Word
p1860
(dp1861
g6
I00
sg7
V\u0928\u093e\u0917\u0930\u093f\u0915\u094b\u0902
p1862
sg9
(issf_api
FeatureSet
p1863
(dp1864
g12
(dp1865
S'crefhead'
p1866
S'\xe0\xa4\xa8\xe0\xa4\xbe\xe0\xa4\x97\xe0\xa4\xb0\xe0\xa4\xbf\xe0\xa4\x95\xe0\xa5\x8b\xe0\xa4\x82:i15'
p1867
sS'posn'
p1868
S'370'
p1869
sS'name'
p1870
S'\xe0\xa4\xa8\xe0\xa4\xbe\xe0\xa4\x97\xe0\xa4\xb0\xe0\xa4\xbf\xe0\xa4\x95\xe0\xa5\x8b\xe0\xa4\x82'
p1871
sS'af'
p1872
S'\xe0\xa4\xa8\xe0\xa4\xbe\xe0\xa4\x97\xe0\xa4\xb0\xe0\xa4\xbf\xe0\xa4\x95,n,m,pl,3,o,0_\xe0\xa4\x95\xe0\xa4\xbe,0'
p1873
sS'chunkid'
p1874
S'NP11'
p1875
sS'creftype'
p1876
S'Coreference-PartOf:i4'
p1877
sS'chunktype'
p1878
S'head:NP11'
p1879
sS'vpos'
p1880
S'vib_2'
p1881
sS'cref'
p1882
S'i15%1:t3'
p1883
sS'drel'
p1884
S'r6:NP12'
p1885
ssbsg32
I00
sg33
I00
sg34
Nsg35
Nsg36
I22
sg37
I2
sg38
Nsg39
Nsg40
S'NN'
p1886
sg42
g1863
sg43
I00
sba(issf_api
Word
p1887
(dp1888
g6
I00
sg7
V\u0915\u0947
p1889
sg9
(issf_api
FeatureSet
p1890
(dp1891
g12
(dp1892
S'posn'
p1893
S'380'
p1894
sS'name'
p1895
S'\xe0\xa4\x95\xe0\xa5\x872'
p1896
sS'drel'
p1897
S'lwg__psp:NP11'
p1898
sS'chunktype'
p1899
S'child:NP11'
p1900
sS'af'
p1901
S'\xe0\xa4\x95\xe0\xa4\xbe,psp,m,sg,,o,,'
p1902
ssbsg32
I00
sg33
I00
sg34
Nsg35
Nsg36
I22
sg37
I2
sg38
Nsg39
Nsg40
S'PSP'
p1903
sg42
g1890
sg43
I00
sba(issf_api
Word
p1904
(dp1905
g6
I00
sg7
V\u092a\u094d\u0930\u0935\u0947\u0936
p1906
sg9
(issf_api
FeatureSet
p1907
(dp1908
g12
(dp1909
S'posn'
p1910
S'390'
p1911
sS'name'
p1912
S'\xe0\xa4\xaa\xe0\xa5\x8d\xe0\xa4\xb0\xe0\xa4\xb5\xe0\xa5\x87\xe0\xa4\xb6'
p1913
sS'af'
p1914
S'\xe0\xa4\xaa\xe0\xa5\x8d\xe0\xa4\xb0\xe0\xa4\xb5\xe0\xa5\x87\xe0\xa4\xb6,n,m,sg,3,o,0_\xe0\xa4\xaa\xe0\xa4\xb0,0'
p1915
sS'chunkid'
p1916
S'NP12'
p1917
sS'drel'
p1918
S'k7:VGF'
p1919
sS'vpos'
p1920
S'vib_2'
p1921
sS'chunktype'
p1922
S'head:NP12'
p1923
ssbsg32
I00
sg33
I00
sg34
Nsg35
Nsg36
I23
sg37
I2
sg38
Nsg39
Nsg40
S'NN'
p1924
sg42
g1907
sg43
I00
sba(issf_api
Word
p1925
(dp1926
g6
I00
sg7
V\u092a\u0930
p1927
sg9
(issf_api
FeatureSet
p1928
(dp1929
g12
(dp1930
S'posn'
p1931
S'400'
p1932
sS'name'
p1933
S'\xe0\xa4\xaa\xe0\xa4\xb02'
p1934
sS'drel'
p1935
S'lwg__psp:NP12'
p1936
sS'chunktype'
p1937
S'child:NP12'
p1938
sS'af'
p1939
S'\xe0\xa4\xaa\xe0\xa4\xb0,psp,,,,,,'
p1940
ssbsg32
I00
sg33
I00
sg34
Nsg35
Nsg36
I23
sg37
I2
sg38
Nsg39
Nsg40
S'PSP'
p1941
sg42
g1928
sg43
I00
sba(issf_api
Word
p1942
(dp1943
g6
I00
sg7
V\u0930\u094b\u0915
p1944
sg9
(issf_api
FeatureSet
p1945
(dp1946
g12
(dp1947
S'posn'
p1948
S'410'
p1949
sS'name'
p1950
S'\xe0\xa4\xb0\xe0\xa5\x8b\xe0\xa4\x95'
p1951
sS'af'
p1952
S'\xe0\xa4\xb0\xe0\xa5\x8b\xe0\xa4\x95,n,f,sg,3,d,0,0'
p1953
sS'chunkid'
p1954
S'NP13'
p1955
sS'drel'
p1956
S'pof:VGF'
p1957
sS'chunktype'
p1958
S'head:NP13'
p1959
ssbsg32
I00
sg33
I00
sg34
Nsg35
Nsg36
I24
sg37
I2
sg38
Nsg39
Nsg40
S'NN'
p1960
sg42
g1945
sg43
I00
sba(issf_api
Word
p1961
(dp1962
g6
I00
sg7
V\u0932\u0917\u093e
p1963
sg9
(issf_api
FeatureSet
p1964
(dp1965
g12
(dp1966
S'posn'
p1967
S'420'
p1968
sS'name'
p1969
S'\xe0\xa4\xb2\xe0\xa4\x97\xe0\xa4\xbe'
p1970
sS'af'
p1971
S'\xe0\xa4\xb2\xe0\xa4\x97\xe0\xa4\xbe,v,f,sg,any,,0_\xe0\xa4\xa6\xe0\xa5\x87+\xe0\xa4\xaf\xe0\xa4\xbe_\xe0\xa4\xa5\xe0\xa4\xbe,0'
p1972
sS'chunkid'
p1973
S'VGF'
p1974
sS'chunktype'
p1975
S'head:VGF'
p1976
sS'voicetype'
p1977
S'active'
p1978
sS'vpos'
p1979
S'tam_2_3'
p1980
sS'stype'
p1981
S'declarative'
p1982
ssbsg32
I00
sg33
I00
sg34
Nsg35
Nsg36
I25
sg37
I2
sg38
Nsg39
Nsg40
S'VM'
p1983
sg42
g1964
sg43
I00
sba(issf_api
Word
p1984
(dp1985
g6
I00
sg7
V\u0926\u0940
p1986
sg9
(issf_api
FeatureSet
p1987
(dp1988
g12
(dp1989
S'posn'
p1990
S'430'
p1991
sS'name'
p1992
S'\xe0\xa4\xa6\xe0\xa5\x80'
p1993
sS'drel'
p1994
S'lwg__vaux:VGF'
p1995
sS'chunktype'
p1996
S'child:VGF'
p1997
sS'af'
p1998
S'\xe0\xa4\xa6\xe0\xa5\x87,v,f,sg,any,,\xe0\xa4\xaf\xe0\xa4\xbe,yA'
p1999
ssbsg32
I00
sg33
I00
sg34
Nsg35
Nsg36
I25
sg37
I2
sg38
Nsg39
Nsg40
S'VAUX'
p2000
sg42
g1987
sg43
I00
sba(issf_api
Word
p2001
(dp2002
g6
I00
sg7
V\u0925\u0940
p2003
sg9
(issf_api
FeatureSet
p2004
(dp2005
g12
(dp2006
S'posn'
p2007
S'440'
p2008
sS'name'
p2009
S'\xe0\xa4\xa5\xe0\xa5\x80'
p2010
sS'drel'
p2011
S'lwg__vaux:VGF'
p2012
sS'chunktype'
p2013
S'child:VGF'
p2014
sS'af'
p2015
S'\xe0\xa4\xa5\xe0\xa4\xbe,v,f,sg,any,,\xe0\xa4\xa5\xe0\xa4\xbe,WA'
p2016
ssbsg32
I00
sg33
I00
sg34
Nsg35
Nsg36
I25
sg37
I2
sg38
Nsg39
Nsg40
S'VAUX'
p2017
sg42
g2004
sg43
I00
sba(issf_api
Word
p2018
(dp2019
g6
I00
sg7
V\u0964
p2020
sg9
(issf_api
FeatureSet
p2021
(dp2022
g12
(dp2023
S'posn'
p2024
S'450'
p2025
sS'name'
p2026
S'\xe0\xa5\xa4'
p2027
sS'af'
p2028
S'\xe0\xa5\xa4,punc,,,,,0,'
p2029
sS'chunkid'
p2030
S'BLK'
p2031
sS'drel'
p2032
S'rsym:VGF'
p2033
sS'chunktype'
p2034
S'head:BLK'
p2035
ssbsg32
I00
sg33
I00
sg34
Nsg35
Nsg36
I26
sg37
I2
sg38
Nsg39
Nsg40
S'SYM'
p2036
sg42
g2021
sg43
I00
sba(issf_api
Word
p2037
(dp2038
g6
I00
sg7
V\u0935\u093f\u0926\u0947\u0936
p2039
sg9
(issf_api
FeatureSet
p2040
(dp2041
g12
(dp2042
S'posn'
p2043
S'10'
p2044
sS'name'
p2045
S'\xe0\xa4\xb5\xe0\xa4\xbf\xe0\xa4\xa6\xe0\xa5\x87\xe0\xa4\xb6'
p2046
sS'af'
p2047
S'\xe0\xa4\xb5\xe0\xa4\xbf\xe0\xa4\xa6\xe0\xa5\x87\xe0\xa4\xb6,n,m,sg,3,d,0,0'
p2048
sS'drel'
p2049
S'pof__cn:NP'
p2050
sS'chunktype'
p2051
S'child:NP'
p2052
sS'cref'
p2053
S'i16%0:t7'
p2054
ssbsg32
I00
sg33
I00
sg34
Nsg35
Nsg36
I0
sg37
I3
sg38
Nsg39
Nsg40
S'NNPC'
p2055
sg42
g2040
sg43
I00
sba(issf_api
Word
p2056
(dp2057
g6
I00
sg7
V\u0935\u093f\u092d\u093e\u0917
p2058
sg9
(issf_api
FeatureSet
p2059
(dp2060
g12
(dp2061
S'crefhead'
p2062
S'\xe0\xa4\xb5\xe0\xa4\xbf\xe0\xa4\xad\xe0\xa4\xbe\xe0\xa4\x97:i16'
p2063
sS'posn'
p2064
S'20'
p2065
sS'name'
p2066
S'\xe0\xa4\xb5\xe0\xa4\xbf\xe0\xa4\xad\xe0\xa4\xbe\xe0\xa4\x97'
p2067
sS'af'
p2068
S'\xe0\xa4\xb5\xe0\xa4\xbf\xe0\xa4\xad\xe0\xa4\xbe\xe0\xa4\x97,n,m,sg,3,o,0_\xe0\xa4\xa8\xe0\xa5\x87,0'
p2069
sS'chunkid'
p2070
S'NP'
p2071
sS'creftype'
p2072
S'Coreference-Identity:i10'
p2073
sS'chunktype'
p2074
S'head:NP'
p2075
sS'vpos'
p2076
S'vib_3'
p2077
sS'cref'
p2078
S'i16%1:t7'
p2079
sS'drel'
p2080
S'k1:VGF'
p2081
ssbsg32
I00
sg33
I00
sg34
Nsg35
Nsg36
I0
sg37
I3
sg38
Nsg39
Nsg40
S'NNP'
p2082
sg42
g2059
sg43
I00
sba(issf_api
Word
p2083
(dp2084
g6
I00
sg7
V\u0928\u0947
p2085
sg9
(issf_api
FeatureSet
p2086
(dp2087
g12
(dp2088
S'posn'
p2089
S'30'
p2090
sS'name'
p2091
S'\xe0\xa4\xa8\xe0\xa5\x87'
p2092
sS'drel'
p2093
S'lwg__psp:NP'
p2094
sS'chunktype'
p2095
S'child:NP'
p2096
sS'af'
p2097
S'\xe0\xa4\xa8\xe0\xa5\x87,psp,,,,,,'
p2098
ssbsg32
I00
sg33
I00
sg34
Nsg35
Nsg36
I0
sg37
I3
sg38
Nsg39
Nsg40
S'PSP'
p2099
sg42
g2086
sg43
I00
sba(issf_api
Word
p2100
(dp2101
g6
I00
sg7
V\u091a\u0947\u0924\u093e\u0935\u0928\u0940
p2102
sg9
(issf_api
FeatureSet
p2103
(dp2104
g12
(dp2105
S'crefhead'
p2106
S'\xe0\xa4\x9a\xe0\xa5\x87\xe0\xa4\xa4\xe0\xa4\xbe\xe0\xa4\xb5\xe0\xa4\xa8\xe0\xa5\x80:i17'
p2107
sS'posn'
p2108
S'40'
p2109
sS'name'
p2110
S'\xe0\xa4\x9a\xe0\xa5\x87\xe0\xa4\xa4\xe0\xa4\xbe\xe0\xa4\xb5\xe0\xa4\xa8\xe0\xa5\x80'
p2111
sS'af'
p2112
S'\xe0\xa4\x9a\xe0\xa5\x87\xe0\xa4\xa4\xe0\xa4\xbe\xe0\xa4\xb5\xe0\xa4\xa8\xe0\xa5\x80,n,f,sg,3,o,0_\xe0\xa4\xae\xe0\xa5\x87\xe0\xa4\x82,0'
p2113
sS'chunkid'
p2114
S'NP2'
p2115
sS'creftype'
p2116
S'Coreference-Identity:i11'
p2117
sS'chunktype'
p2118
S'head:NP2'
p2119
sS'vpos'
p2120
S'vib_2'
p2121
sS'cref'
p2122
S'i17%1:t4'
p2123
sS'drel'
p2124
S'k7:VGF'
p2125
ssbsg32
I00
sg33
I00
sg34
Nsg35
Nsg36
I1
sg37
I3
sg38
Nsg39
Nsg40
S'NN'
p2126
sg42
g2103
sg43
I00
sba(issf_api
Word
p2127
(dp2128
g6
I00
sg7
V\u092e\u0947\u0902
p2129
sg9
(issf_api
FeatureSet
p2130
(dp2131
g12
(dp2132
S'posn'
p2133
S'50'
p2134
sS'name'
p2135
S'\xe0\xa4\xae\xe0\xa5\x87\xe0\xa4\x82'
p2136
sS'drel'
p2137
S'lwg__psp:NP2'
p2138
sS'chunktype'
p2139
S'child:NP2'
p2140
sS'af'
p2141
S'\xe0\xa4\xae\xe0\xa5\x87\xe0\xa4\x82,psp,,,,,,'
p2142
ssbsg32
I00
sg33
I00
sg34
Nsg35
Nsg36
I1
sg37
I3
sg38
Nsg39
Nsg40
S'PSP'
p2143
sg42
g2130
sg43
I00
sba(issf_api
Word
p2144
(dp2145
g6
I00
sg7
V\u0905\u092a\u0928\u0947
p2146
sg9
(issf_api
FeatureSet
p2147
(dp2148
g12
(dp2149
S'crefhead'
p2150
S'\xe0\xa4\x85\xe0\xa4\xaa\xe0\xa4\xa8\xe0\xa5\x87:i18'
p2151
sS'posn'
p2152
S'60'
p2153
sS'name'
p2154
S'\xe0\xa4\x85\xe0\xa4\xaa\xe0\xa4\xa8\xe0\xa5\x87'
p2155
sS'af'
p2156
S'\xe0\xa4\x85\xe0\xa4\xaa\xe0\xa4\xa8\xe0\xa4\xbe,pn,m,any,any,o,0,0'
p2157
sS'acrefmodhead'
p2158
S'\xe0\xa4\x85\xe0\xa4\xaa\xe0\xa4\xa8\xe0\xa5\x87:m3'
p2159
sS'chunkid'
p2160
S'NP3'
p2161
sS'acrefmod'
p2162
S'm3%1:i19'
p2163
sS'creftype'
p2164
S'Anaphora-C:i16'
p2165
sS'chunktype'
p2166
S'head:NP3'
p2167
sS'cref'
p2168
S'i18%1:t7'
p2169
sS'drel'
p2170
S'r6:NP4'
p2171
ssbsg32
I00
sg33
I00
sg34
Nsg35
Nsg36
I2
sg37
I3
sg38
Nsg39
Nsg40
S'PRP'
p2172
sg42
g2147
sg43
I00
sba(issf_api
Word
p2173
(dp2174
g6
I00
sg7
V\u0928\u093e\u0917\u0930\u093f\u0915\u094b\u0902
p2175
sg9
(issf_api
FeatureSet
p2176
(dp2177
g12
(dp2178
S'crefhead'
p2179
S'\xe0\xa4\xa8\xe0\xa4\xbe\xe0\xa4\x97\xe0\xa4\xb0\xe0\xa4\xbf\xe0\xa4\x95\xe0\xa5\x8b\xe0\xa4\x82:i19'
p2180
sS'posn'
p2181
S'70'
p2182
sS'name'
p2183
S'\xe0\xa4\xa8\xe0\xa4\xbe\xe0\xa4\x97\xe0\xa4\xb0\xe0\xa4\xbf\xe0\xa4\x95\xe0\xa5\x8b\xe0\xa4\x82'
p2184
sS'af'
p2185
S'\xe0\xa4\xa8\xe0\xa4\xbe\xe0\xa4\x97\xe0\xa4\xb0\xe0\xa4\xbf\xe0\xa4\x95,n,m,pl,3,o,0_\xe0\xa4\xb8\xe0\xa5\x87,0'
p2186
sS'chunkid'
p2187
S'NP4'
p2188
sS'crefmod'
p2189
S'm3:i19'
p2190
sS'creftype'
p2191
S'Coreference-Identity:i15'
p2192
sS'chunktype'
p2193
S'head:NP4'
p2194
sS'vpos'
p2195
S'vib_2'
p2196
sS'cref'
p2197
S'i19%1:t3'
p2198
sS'drel'
p2199
S'k4:VGF'
p2200
ssbsg32
I00
sg33
I00
sg34
Nsg35
Nsg36
I3
sg37
I3
sg38
Nsg39
Nsg40
S'NN'
p2201
sg42
g2176
sg43
I00
sba(issf_api
Word
p2202
(dp2203
g6
I00
sg7
V\u0938\u0947
p2204
sg9
(issf_api
FeatureSet
p2205
(dp2206
g12
(dp2207
S'posn'
p2208
S'80'
p2209
sS'name'
p2210
S'\xe0\xa4\xb8\xe0\xa5\x87'
p2211
sS'drel'
p2212
S'lwg__psp:NP4'
p2213
sS'chunktype'
p2214
S'child:NP4'
p2215
sS'af'
p2216
S'\xe0\xa4\xb8\xe0\xa5\x87,psp,,,,,,'
p2217
ssbsg32
I00
sg33
I00
sg34
Nsg35
Nsg36
I3
sg37
I3
sg38
Nsg39
Nsg40
S'PSP'
p2218
sg42
g2205
sg43
I00
sba(issf_api
Word
p2219
(dp2220
g6
I00
sg7
V\u0915\u0939\u093e
p2221
sg9
(issf_api
FeatureSet
p2222
(dp2223
g12
(dp2224
S'posn'
p2225
S'90'
p2226
sS'name'
p2227
S'\xe0\xa4\x95\xe0\xa4\xb9\xe0\xa4\xbe'
p2228
sS'af'
p2229
S'\xe0\xa4\x95\xe0\xa4\xb9,v,m,sg,any,,\xe0\xa4\xaf\xe0\xa4\xbe,yA'
p2230
sS'chunkid'
p2231
S'VGF'
p2232
sS'chunktype'
p2233
S'head:VGF'
p2234
sS'voicetype'
p2235
S'active'
p2236
sS'stype'
p2237
S'declarative'
p2238
ssbsg32
I00
sg33
I00
sg34
Nsg35
Nsg36
I4
sg37
I3
sg38
Nsg39
Nsg40
S'VM'
p2239
sg42
g2222
sg43
I00
sba(issf_api
Word
p2240
(dp2241
g6
I00
sg7
V\u0915\u093f
p2242
sg9
(issf_api
FeatureSet
p2243
(dp2244
g12
(dp2245
S'posn'
p2246
S'100'
p2247
sS'name'
p2248
S'\xe0\xa4\x95\xe0\xa4\xbf'
p2249
sS'af'
p2250
S'\xe0\xa4\x95\xe0\xa4\xbf,avy,,,,,,'
p2251
sS'chunkid'
p2252
S'CCP'
p2253
sS'drel'
p2254
S'k2:VGF'
p2255
sS'chunktype'
p2256
S'head:CCP'
p2257
ssbsg32
I00
sg33
I00
sg34
Nsg35
Nsg36
I5
sg37
I3
sg38
Nsg39
Nsg40
S'CC'
p2258
sg42
g2243
sg43
I00
sba(issf_api
Word
p2259
(dp2260
g6
I00
sg7
V\u0909\u0928\u094d\u0939\u0947\u0902
p2261
sg9
(issf_api
FeatureSet
p2262
(dp2263
g12
(dp2264
S'crefhead'
p2265
S'\xe0\xa4\x89\xe0\xa4\xa8\xe0\xa5\x8d\xe0\xa4\xb9\xe0\xa5\x87\xe0\xa4\x82:i20'
p2266
sS'posn'
p2267
S'110'
p2268
sS'name'
p2269
S'\xe0\xa4\x89\xe0\xa4\xa8\xe0\xa5\x8d\xe0\xa4\xb9\xe0\xa5\x87\xe0\xa4\x82'
p2270
sS'af'
p2271
S'\xe0\xa4\xb5\xe0\xa4\xb9,pn,any,pl,3,o,\xe0\xa4\x95\xe0\xa5\x8b,ko'
p2272
sS'chunkid'
p2273
S'NP5'
p2274
sS'creftype'
p2275
S'Anaphora-C:i19'
p2276
sS'chunktype'
p2277
S'head:NP5'
p2278
sS'cref'
p2279
S'i20%1:t3'
p2280
sS'drel'
p2281
S'k1:VGF2'
p2282
ssbsg32
I00
sg33
I00
sg34
Nsg35
Nsg36
I6
sg37
I3
sg38
Nsg39
Nsg40
S'PRP'
p2283
sg42
g2262
sg43
I00
sba(issf_api
Word
p2284
(dp2285
g6
I00
sg7
V\u0910\u0938\u0947
p2286
sg9
(issf_api
FeatureSet
p2287
(dp2288
g12
(dp2289
S'posn'
p2290
S'120'
p2291
sS'name'
p2292
S'\xe0\xa4\x90\xe0\xa4\xb8\xe0\xa5\x87'
p2293
sS'af'
p2294
S'\xe0\xa4\x90\xe0\xa4\xb8\xe0\xa4\xbe,pn,m,pl,any,o,,'
p2295
sS'drel'
p2296
S'nmod__adj:NP6'
p2297
sS'chunktype'
p2298
S'child:NP6'
p2299
sS'cref'
p2300
S'i21%0:t2'
p2301
ssbsg32
I00
sg33
I00
sg34
Nsg35
Nsg36
I7
sg37
I3
sg38
Nsg39
Nsg40
S'DEM'
p2302
sg42
g2287
sg43
I00
sba(issf_api
Word
p2303
(dp2304
g6
I00
sg7
V\u0938\u094d\u0925\u0932\u094b\u0902
p2305
sg9
(issf_api
FeatureSet
p2306
(dp2307
g12
(dp2308
S'crefhead'
p2309
S'\xe0\xa4\xb8\xe0\xa5\x8d\xe0\xa4\xa5\xe0\xa4\xb2\xe0\xa5\x8b\xe0\xa4\x82:i21'
p2310
sS'posn'
p2311
S'130'
p2312
sS'name'
p2313
S'\xe0\xa4\xb8\xe0\xa5\x8d\xe0\xa4\xa5\xe0\xa4\xb2\xe0\xa5\x8b\xe0\xa4\x82'
p2314
sS'af'
p2315
S'\xe0\xa4\xb8\xe0\xa5\x8d\xe0\xa4\xa5\xe0\xa4\xb2,n,m,pl,3,o,0_\xe0\xa4\x95\xe0\xa4\xbe,0'
p2316
sS'chunkid'
p2317
S'NP6'
p2318
sS'creftype'
p2319
S'Coreference-Identity:i14'
p2320
sS'chunktype'
p2321
S'head:NP6'
p2322
sS'vpos'
p2323
S'vib_3'
p2324
sS'cref'
p2325
S'i21%1:t2'
p2326
sS'drel'
p2327
S'r6-k2:NP7'
p2328
ssbsg32
I00
sg33
I00
sg34
Nsg35
Nsg36
I7
sg37
I3
sg38
Nsg39
Nsg40
S'NN'
p2329
sg42
g2306
sg43
I00
sba(issf_api
Word
p2330
(dp2331
g6
I00
sg7
V\u0915\u093e
p2332
sg9
(issf_api
FeatureSet
p2333
(dp2334
g12
(dp2335
S'posn'
p2336
S'140'
p2337
sS'name'
p2338
S'\xe0\xa4\x95\xe0\xa4\xbe'
p2339
sS'drel'
p2340
S'lwg__psp:NP6'
p2341
sS'chunktype'
p2342
S'child:NP6'
p2343
sS'af'
p2344
S'\xe0\xa4\x95\xe0\xa4\xbe,psp,m,sg,,d,,'
p2345
ssbsg32
I00
sg33
I00
sg34
Nsg35
Nsg36
I7
sg37
I3
sg38
Nsg39
Nsg40
S'PSP'
p2346
sg42
g2333
sg43
I00
sba(issf_api
Word
p2347
(dp2348
g6
I00
sg7
V\u0926\u094c\u0930\u093e
p2349
sg9
(issf_api
FeatureSet
p2350
(dp2351
g12
(dp2352
S'posn'
p2353
S'150'
p2354
sS'name'
p2355
S'\xe0\xa4\xa6\xe0\xa5\x8c\xe0\xa4\xb0\xe0\xa4\xbe'
p2356
sS'af'
p2357
S'\xe0\xa4\xa6\xe0\xa5\x8c\xe0\xa4\xb0\xe0\xa4\xbe,n,m,sg,3,d,0,0'
p2358
sS'chunkid'
p2359
S'NP7'
p2360
sS'drel'
p2361
S'pof:VGNN'
p2362
sS'chunktype'
p2363
S'head:NP7'
p2364
ssbsg32
I00
sg33
I00
sg34
Nsg35
Nsg36
I8
sg37
I3
sg38
Nsg39
Nsg40
S'NN'
p2365
sg42
g2350
sg43
I00
sba(issf_api
Word
p2366
(dp2367
g6
I00
sg7
V\u0915\u0930\u0924\u0947
p2368
sg9
(issf_api
FeatureSet
p2369
(dp2370
g12
(dp2371
S'posn'
p2372
S'160'
p2373
sS'name'
p2374
S'\xe0\xa4\x95\xe0\xa4\xb0\xe0\xa4\xa4\xe0\xa5\x87'
p2375
sS'af'
p2376
S'\xe0\xa4\x95\xe0\xa4\xb0,v,m,sg,any,,\xe0\xa4\xa4\xe0\xa4\xbe_\xe0\xa4\xb8\xe0\xa4\xae\xe0\xa4\xaf,wA'
p2377
sS'chunkid'
p2378
S'VGNN'
p2379
sS'drel'
p2380
S'k7t:VGF2'
p2381
sS'vpos'
p2382
S'tam_2'
p2383
sS'chunktype'
p2384
S'head:VGNN'
p2385
ssbsg32
I00
sg33
I00
sg34
Nsg35
Nsg36
I9
sg37
I3
sg38
Nsg39
Nsg40
S'VM'
p2386
sg42
g2369
sg43
I00
sba(issf_api
Word
p2387
(dp2388
g6
I00
sg7
V\u0938\u092e\u092f
p2389
sg9
(issf_api
FeatureSet
p2390
(dp2391
g12
(dp2392
S'posn'
p2393
S'170'
p2394
sS'name'
p2395
S'\xe0\xa4\xb8\xe0\xa4\xae\xe0\xa4\xaf'
p2396
sS'drel'
p2397
S'lwg__psp:VGNN'
p2398
sS'chunktype'
p2399
S'child:VGNN'
p2400
sS'af'
p2401
S'\xe0\xa4\xb8\xe0\xa4\xae\xe0\xa4\xaf,n,m,,,o,,'
p2402
ssbsg32
I00
sg33
I00
sg34
Nsg35
Nsg36
I9
sg37
I3
sg38
Nsg39
Nsg40
S'PSP'
p2403
sg42
g2390
sg43
I00
sba(issf_api
Word
p2404
(dp2405
g6
I00
sg7
V\u0938\u0924\u0930\u094d\u0915\u0924\u093e
p2406
sg9
(issf_api
FeatureSet
p2407
(dp2408
g12
(dp2409
S'posn'
p2410
S'180'
p2411
sS'name'
p2412
S'\xe0\xa4\xb8\xe0\xa4\xa4\xe0\xa4\xb0\xe0\xa5\x8d\xe0\xa4\x95\xe0\xa4\xa4\xe0\xa4\xbe'
p2413
sS'af'
p2414
S'\xe0\xa4\xb8\xe0\xa4\xa4\xe0\xa4\xb0\xe0\xa5\x8d\xe0\xa4\x95\xe0\xa4\xa4\xe0\xa4\xbe,n,f,sg,3,d,0,0'
p2415
sS'chunkid'
p2416
S'NP8'
p2417
sS'drel'
p2418
S'k2:VGF2'
p2419
sS'chunktype'
p2420
S'head:NP8'
p2421
ssbsg32
I00
sg33
I00
sg34
Nsg35
Nsg36
I10
sg37
I3
sg38
Nsg39
Nsg40
S'NN'
p2422
sg42
g2407
sg43
I00
sba(issf_api
Word
p2423
(dp2424
g6
I00
sg7
V\u092c\u0930\u0924\u0928\u0940
p2425
sg9
(issf_api
FeatureSet
p2426
(dp2427
g12
(dp2428
S'posn'
p2429
S'190'
p2430
sS'name'
p2431
S'\xe0\xa4\xac\xe0\xa4\xb0\xe0\xa4\xa4\xe0\xa4\xa8\xe0\xa5\x80'
p2432
sS'af'
p2433
S'\xe0\xa4\xac\xe0\xa4\xb0\xe0\xa4\xa4,v,f,any,any,,\xe0\xa4\xa8\xe0\xa4\xbe_\xe0\xa4\x9a\xe0\xa4\xbe\xe0\xa4\xb9\xe0\xa4\xbf\xe0\xa4\x8f,nA'
p2434
sS'chunkid'
p2435
S'VGF2'
p2436
sS'stype'
p2437
S'declarative'
p2438
sS'drel'
p2439
S'ccof:CCP2'
p2440
sS'voicetype'
p2441
S'active'
p2442
sS'vpos'
p2443
S'tam_2'
p2444
sS'chunktype'
p2445
S'head:VGF2'
p2446
ssbsg32
I00
sg33
I00
sg34
Nsg35
Nsg36
I11
sg37
I3
sg38
Nsg39
Nsg40
S'VM'
p2447
sg42
g2426
sg43
I00
sba(issf_api
Word
p2448
(dp2449
g6
I00
sg7
V\u091a\u093e\u0939\u093f\u090f
p2450
sg9
(issf_api
FeatureSet
p2451
(dp2452
g12
(dp2453
S'posn'
p2454
S'200'
p2455
sS'name'
p2456
S'\xe0\xa4\x9a\xe0\xa4\xbe\xe0\xa4\xb9\xe0\xa4\xbf\xe0\xa4\x8f'
p2457
sS'drel'
p2458
S'lwg__vaux:VGF2'
p2459
sS'chunktype'
p2460
S'child:VGF2'
p2461
sS'af'
p2462
S'\xe0\xa4\x9a\xe0\xa4\xbe\xe0\xa4\xb9\xe0\xa4\xbf\xe0\xa4\x8f,v,any,any,any,,0,0'
p2463
ssbsg32
I00
sg33
I00
sg34
Nsg35
Nsg36
I11
sg37
I3
sg38
Nsg39
Nsg40
S'VAUX'
p2464
sg42
g2451
sg43
I00
sba(issf_api
Word
p2465
(dp2466
g6
I00
sg7
V\u0914\u0930
p2467
sg9
(issf_api
FeatureSet
p2468
(dp2469
g12
(dp2470
S'posn'
p2471
S'210'
p2472
sS'name'
p2473
S'\xe0\xa4\x94\xe0\xa4\xb0'
p2474
sS'af'
p2475
S'\xe0\xa4\x94\xe0\xa4\xb0,avy,,,,,,'
p2476
sS'chunkid'
p2477
S'CCP2'
p2478
sS'drel'
p2479
S'ccof:CCP'
p2480
sS'chunktype'
p2481
S'head:CCP2'
p2482
ssbsg32
I00
sg33
I00
sg34
Nsg35
Nsg36
I12
sg37
I3
sg38
Nsg39
Nsg40
S'CC'
p2483
sg42
g2468
sg43
I00
sba(issf_api
Word
p2484
(dp2485
g6
I00
sg7
V\u0909\u092e\u094d\u092e\u0940\u0926
p2486
sg9
(issf_api
FeatureSet
p2487
(dp2488
g12
(dp2489
S'posn'
p2490
S'220'
p2491
sS'name'
p2492
S'\xe0\xa4\x89\xe0\xa4\xae\xe0\xa5\x8d\xe0\xa4\xae\xe0\xa5\x80\xe0\xa4\xa6'
p2493
sS'af'
p2494
S'\xe0\xa4\x89\xe0\xa4\xae\xe0\xa5\x8d\xe0\xa4\xae\xe0\xa5\x80\xe0\xa4\xa6,n,f,sg,3,d,0,0'
p2495
sS'chunkid'
p2496
S'NP9'
p2497
sS'drel'
p2498
S'k1:VGF3'
p2499
sS'chunktype'
p2500
S'head:NP9'
p2501
ssbsg32
I00
sg33
I00
sg34
Nsg35
Nsg36
I13
sg37
I3
sg38
Nsg39
Nsg40
S'NN'
p2502
sg42
g2487
sg43
I00
sba(issf_api
Word
p2503
(dp2504
g6
I00
sg7
V\u0939\u0948
p2505
sg9
(issf_api
FeatureSet
p2506
(dp2507
g12
(dp2508
S'posn'
p2509
S'230'
p2510
sS'name'
p2511
S'\xe0\xa4\xb9\xe0\xa5\x88'
p2512
sS'af'
p2513
S'\xe0\xa4\xb9\xe0\xa5\x88,v,any,sg,3,,\xe0\xa4\xb9\xe0\xa5\x88,hE'
p2514
sS'chunkid'
p2515
S'VGF3'
p2516
sS'stype'
p2517
S'declarative'
p2518
sS'drel'
p2519
S'ccof:CCP2'
p2520
sS'voicetype'
p2521
S'active'
p2522
sS'chunktype'
p2523
S'head:VGF3'
p2524
ssbsg32
I00
sg33
I00
sg34
Nsg35
Nsg36
I14
sg37
I3
sg38
Nsg39
Nsg40
S'VM'
p2525
sg42
g2506
sg43
I00
sba(issf_api
Word
p2526
(dp2527
g6
I00
sg7
V\u0915\u093f
p2528
sg9
(issf_api
FeatureSet
p2529
(dp2530
g12
(dp2531
S'posn'
p2532
S'240'
p2533
sS'name'
p2534
S'\xe0\xa4\x95\xe0\xa4\xbf2'
p2535
sS'af'
p2536
S'\xe0\xa4\x95\xe0\xa4\xbf,avy,,,,,,'
p2537
sS'chunkid'
p2538
S'CCP3'
p2539
sS'drel'
p2540
S'rs:NP9'
p2541
sS'chunktype'
p2542
S'head:CCP3'
p2543
ssbsg32
I00
sg33
I00
sg34
Nsg35
Nsg36
I15
sg37
I3
sg38
Nsg39
Nsg40
S'CC'
p2544
sg42
g2529
sg43
I00
sba(issf_api
Word
p2545
(dp2546
g6
I00
sg7
V\u0939\u093e\u0932\u093e\u0924
p2547
sg9
(issf_api
FeatureSet
p2548
(dp2549
g12
(dp2550
S'posn'
p2551
S'250'
p2552
sS'name'
p2553
S'\xe0\xa4\xb9\xe0\xa4\xbe\xe0\xa4\xb2\xe0\xa4\xbe\xe0\xa4\xa4'
p2554
sS'af'
p2555
S'\xe0\xa4\xb9\xe0\xa4\xbe\xe0\xa4\xb2,n,m,pl,3,d,0,0'
p2556
sS'chunkid'
p2557
S'NP10'
p2558
sS'drel'
p2559
S'k1:VGNN2'
p2560
sS'chunktype'
p2561
S'head:NP10'
p2562
ssbsg32
I00
sg33
I00
sg34
Nsg35
Nsg36
I16
sg37
I3
sg38
Nsg39
Nsg40
S'NN'
p2563
sg42
g2548
sg43
I00
sba(issf_api
Word
p2564
(dp2565
g6
I00
sg7
V\u0938\u093e\u092e\u093e\u0928\u094d\u092f
p2566
sg9
(issf_api
FeatureSet
p2567
(dp2568
g12
(dp2569
S'posn'
p2570
S'260'
p2571
sS'name'
p2572
S'\xe0\xa4\xb8\xe0\xa4\xbe\xe0\xa4\xae\xe0\xa4\xbe\xe0\xa4\xa8\xe0\xa5\x8d\xe0\xa4\xaf'
p2573
sS'af'
p2574
S'\xe0\xa4\xb8\xe0\xa4\xbe\xe0\xa4\xae\xe0\xa4\xbe\xe0\xa4\xa8\xe0\xa5\x8d\xe0\xa4\xaf,adj,any,any,,,,'
p2575
sS'chunkid'
p2576
S'JJP'
p2577
sS'drel'
p2578
S'pof:VGNN2'
p2579
sS'chunktype'
p2580
S'head:JJP'
p2581
ssbsg32
I00
sg33
I00
sg34
Nsg35
Nsg36
I17
sg37
I3
sg38
Nsg39
Nsg40
S'JJ'
p2582
sg42
g2567
sg43
I00
sba(issf_api
Word
p2583
(dp2584
g6
I00
sg7
V\u0939\u094b\u0928\u0947
p2585
sg9
(issf_api
FeatureSet
p2586
(dp2587
g12
(dp2588
S'posn'
p2589
S'270'
p2590
sS'name'
p2591
S'\xe0\xa4\xb9\xe0\xa5\x8b\xe0\xa4\xa8\xe0\xa5\x87'
p2592
sS'af'
p2593
S'\xe0\xa4\xb9\xe0\xa5\x8b,v,any,any,any,o,\xe0\xa4\xa8\xe0\xa4\xbe_\xe0\xa4\xa4\xe0\xa4\x95,nA'
p2594
sS'chunkid'
p2595
S'VGNN2'
p2596
sS'drel'
p2597
S'k7t:VGF4'
p2598
sS'vpos'
p2599
S'tam_2'
p2600
sS'chunktype'
p2601
S'head:VGNN2'
p2602
ssbsg32
I00
sg33
I00
sg34
Nsg35
Nsg36
I18
sg37
I3
sg38
Nsg39
Nsg40
S'VM'
p2603
sg42
g2586
sg43
I00
sba(issf_api
Word
p2604
(dp2605
g6
I00
sg7
V\u0924\u0915
p2606
sg9
(issf_api
FeatureSet
p2607
(dp2608
g12
(dp2609
S'posn'
p2610
S'280'
p2611
sS'name'
p2612
S'\xe0\xa4\xa4\xe0\xa4\x95'
p2613
sS'drel'
p2614
S'lwg__psp:VGNN2'
p2615
sS'chunktype'
p2616
S'child:VGNN2'
p2617
sS'af'
p2618
S'\xe0\xa4\xa4\xe0\xa4\x95,psp,,,,,,'
p2619
ssbsg32
I00
sg33
I00
sg34
Nsg35
Nsg36
I18
sg37
I3
sg38
Nsg39
Nsg40
S'PSP'
p2620
sg42
g2607
sg43
I00
sba(issf_api
Word
p2621
(dp2622
g6
I00
sg7
V\u0935\u0947
p2623
sg9
(issf_api
FeatureSet
p2624
(dp2625
g12
(dp2626
S'crefhead'
p2627
S'\xe0\xa4\xb5\xe0\xa5\x87:i22'
p2628
sS'posn'
p2629
S'290'
p2630
sS'name'
p2631
S'\xe0\xa4\xb5\xe0\xa5\x87'
p2632
sS'af'
p2633
S'\xe0\xa4\xaf\xe0\xa4\xb9,pn,any,pl,3,d,0,0'
p2634
sS'chunkid'
p2635
S'NP11'
p2636
sS'creftype'
p2637
S'Anaphora-C:i20'
p2638
sS'chunktype'
p2639
S'head:NP11'
p2640
sS'cref'
p2641
S'i22%1:t3'
p2642
sS'drel'
p2643
S'k1:VGF4'
p2644
ssbsg32
I00
sg33
I00
sg34
Nsg35
Nsg36
I19
sg37
I3
sg38
Nsg39
Nsg40
S'PRP'
p2645
sg42
g2624
sg43
I00
sba(issf_api
Word
p2646
(dp2647
g6
I00
sg7
V\u092f\u093e\u0924\u094d\u0930\u093e\u090f\u0902
p2648
sg9
(issf_api
FeatureSet
p2649
(dp2650
g12
(dp2651
S'crefhead'
p2652
S'\xe0\xa4\xaf\xe0\xa4\xbe\xe0\xa4\xa4\xe0\xa5\x8d\xe0\xa4\xb0\xe0\xa4\xbe\xe0\xa4\x8f\xe0\xa4\x82:i23'
p2653
sS'posn'
p2654
S'300'
p2655
sS'name'
p2656
S'\xe0\xa4\xaf\xe0\xa4\xbe\xe0\xa4\xa4\xe0\xa5\x8d\xe0\xa4\xb0\xe0\xa4\xbe\xe0\xa4\x8f\xe0\xa4\x82'
p2657
sS'af'
p2658
S'\xe0\xa4\xaf\xe0\xa4\xbe\xe0\xa4\xa4\xe0\xa5\x8d\xe0\xa4\xb0\xe0\xa4\xbe,n,f,pl,3,d,0,0'
p2659
sS'chunkid'
p2660
S'NP12'
p2661
sS'creftype'
p2662
S'Coreference-Identity:i9'
p2663
sS'chunktype'
p2664
S'head:NP12'
p2665
sS'cref'
p2666
S'i23%1:t6'
p2667
sS'drel'
p2668
S'k2:VGF4'
p2669
ssbsg32
I00
sg33
I00
sg34
Nsg35
Nsg36
I20
sg37
I3
sg38
Nsg39
Nsg40
S'NN'
p2670
sg42
g2649
sg43
I00
sba(issf_api
Word
p2671
(dp2672
g6
I00
sg7
V\u0938\u094d\u0925\u0917\u093f\u0924
p2673
sg9
(issf_api
FeatureSet
p2674
(dp2675
g12
(dp2676
S'posn'
p2677
S'310'
p2678
sS'name'
p2679
S'\xe0\xa4\xb8\xe0\xa5\x8d\xe0\xa4\xa5\xe0\xa4\x97\xe0\xa4\xbf\xe0\xa4\xa4'
p2680
sS'af'
p2681
S'\xe0\xa4\xb8\xe0\xa5\x8d\xe0\xa4\xa5\xe0\xa4\x97\xe0\xa4\xbf\xe0\xa4\xa4,adj,any,any,,,,'
p2682
sS'chunkid'
p2683
S'JJP2'
p2684
sS'drel'
p2685
S'pof:VGF4'
p2686
sS'chunktype'
p2687
S'head:JJP2'
p2688
ssbsg32
I00
sg33
I00
sg34
Nsg35
Nsg36
I21
sg37
I3
sg38
Nsg39
Nsg40
S'JJ'
p2689
sg42
g2674
sg43
I00
sba(issf_api
Word
p2690
(dp2691
g6
I00
sg7
V\u0915\u0930\u0947\u0902\u0917\u0947
p2692
sg9
(issf_api
FeatureSet
p2693
(dp2694
g12
(dp2695
S'posn'
p2696
S'320'
p2697
sS'name'
p2698
S'\xe0\xa4\x95\xe0\xa4\xb0\xe0\xa5\x87\xe0\xa4\x82\xe0\xa4\x97\xe0\xa5\x87'
p2699
sS'af'
p2700
S'\xe0\xa4\x95\xe0\xa4\xb0,v,m,pl,3,,\xe0\xa4\x97\xe0\xa4\xbe,gA'
p2701
sS'chunkid'
p2702
S'VGF4'
p2703
sS'stype'
p2704
S'declarative'
p2705
sS'drel'
p2706
S'ccof:CCP3'
p2707
sS'voicetype'
p2708
S'active'
p2709
sS'chunktype'
p2710
S'head:VGF4'
p2711
ssbsg32
I00
sg33
I00
sg34
Nsg35
Nsg36
I22
sg37
I3
sg38
Nsg39
Nsg40
S'VM'
p2712
sg42
g2693
sg43
I00
sba(issf_api
Word
p2713
(dp2714
g6
I00
sg7
V\u0964
p2715
sg9
(issf_api
FeatureSet
p2716
(dp2717
g12
(dp2718
S'posn'
p2719
S'330'
p2720
sS'name'
p2721
S'\xe0\xa5\xa4'
p2722
sS'af'
p2723
S'\xe0\xa5\xa4,punc,,,,,,'
p2724
sS'chunkid'
p2725
S'BLK'
p2726
sS'drel'
p2727
S'rsym:VGF'
p2728
sS'chunktype'
p2729
S'head:BLK'
p2730
ssbsg32
I00
sg33
I00
sg34
Nsg35
Nsg36
I23
sg37
I3
sg38
Nsg39
Nsg40
S'SYM'
p2731
sg42
g2716
sg43
I00
sbasS'sentenceList'
p2732
(lp2733
(issf_api
Sentence
p2734
(dp2735
S'rootNode'
p2736
(lp2737
sg37
I0
sS'wordNumList'
p2738
(lp2739
I0
aI1
aI2
aI3
aI4
aI5
aI6
aI7
aI8
aI9
aI10
aI11
aI12
aI13
aI14
aI15
aI16
aI17
aI18
aI19
aI20
aI21
aI22
aI23
aI24
aI25
aI26
aI27
aI28
aI29
aI30
aI31
aI32
aI33
aI34
aI35
aI36
aI37
aI38
aI39
aI40
aI41
asS'nodeDict'
p2740
(dp2741
S'VGNF'
p2742
(issf_api
Node
p2743
(dp2744
S'nodeRelation'
p2745
S'nmod__k2inv'
p2746
sS'nodeName'
p2747
g2742
sS'nodeParent'
p2748
S'NP6'
p2749
sS'nodeLevel'
p2750
I-1
sg36
I6
sS'childList'
p2751
(lp2752
S'NP5'
p2753
aS'NP3'
p2754
aS'NP2'
p2755
asbsS'VGNF2'
p2756
(issf_api
Node
p2757
(dp2758
g2745
S'vmod'
p2759
sg2747
g2756
sg2748
S'VGF'
p2760
sg2750
I-1
sg36
I8
sg2751
(lp2761
S'NP6'
p2762
asbsS'NP11'
p2763
(issf_api
Node
p2764
(dp2765
g2745
S'k2'
p2766
sg2747
g2763
sg2748
S'VGNN2'
p2767
sg2750
I-1
sg36
I15
sg2751
(lp2768
S'NP10'
p2769
asbsS'VGNN'
p2770
(issf_api
Node
p2771
(dp2772
g2745
S'ccof'
p2773
sg2747
g2770
sg2748
S'CCP'
p2774
sg2750
I-1
sg36
I11
sg2751
(lp2775
S'NP8'
p2776
aS'NP7'
p2777
asbsS'VGF'
p2778
(issf_api
Node
p2779
(dp2780
g2745
S'None'
p2781
sg2747
g2778
sg2748
g2781
sg2750
I-1
sg36
I19
sg2751
(lp2782
g2756
aS'NP12'
p2783
aS'BLK'
p2784
asbsg2783
(issf_api
Node
p2785
(dp2786
g2745
S'pof'
p2787
sg2747
g2783
sg2748
S'VGF'
p2788
sg2750
I-1
sg36
I18
sg2751
(lp2789
S'CCP'
p2790
asbsg2790
(issf_api
Node
p2791
(dp2792
g2745
S'r6-k2'
p2793
sg2747
g2790
sg2748
S'NP12'
p2794
sg2750
I-1
sg36
I12
sg2751
(lp2795
g2770
aS'VGNN2'
p2796
asbsS'JJP'
p2797
(issf_api
Node
p2798
(dp2799
g2745
S'nmod'
p2800
sg2747
g2797
sg2748
S'NP2'
p2801
sg2750
I-1
sg36
I1
sg2751
(lp2802
S'NP'
p2803
asbsg2796
(issf_api
Node
p2804
(dp2805
g2745
S'ccof'
p2806
sg2747
g2796
sg2748
S'CCP'
p2807
sg2750
I-1
sg36
I17
sg2751
(lp2808
g2763
aS'JJP2'
p2809
asbsg2753
(issf_api
Node
p2810
(dp2811
g2745
S'k7'
p2812
sg2747
g2753
sg2748
S'VGNF'
p2813
sg2750
I-1
sg36
I5
sg2751
(lp2814
S'NP4'
p2815
asbsg2809
(issf_api
Node
p2816
(dp2817
g2745
S'pof'
p2818
sg2747
g2809
sg2748
S'VGNN2'
p2819
sg2750
I-1
sg36
I16
sg2751
(lp2820
sbsS'NP9'
p2821
(issf_api
Node
p2822
(dp2823
g2745
S'r6'
p2824
sg2747
g2821
sg2748
S'NP10'
p2825
sg2750
I-1
sg36
I13
sg2751
(lp2826
sbsg2776
(issf_api
Node
p2827
(dp2828
g2745
S'k2'
p2829
sg2747
g2776
sg2748
S'VGNN'
p2830
sg2750
I-1
sg36
I10
sg2751
(lp2831
sbsg2784
(issf_api
Node
p2832
(dp2833
g2745
S'rsym'
p2834
sg2747
g2784
sg2748
S'VGF'
p2835
sg2750
I-1
sg36
I20
sg2751
(lp2836
sbsg2769
(issf_api
Node
p2837
(dp2838
g2745
S'r6'
p2839
sg2747
g2769
sg2748
S'NP11'
p2840
sg2750
I-1
sg36
I14
sg2751
(lp2841
g2821
asbsg2803
(issf_api
Node
p2842
(dp2843
g2745
S'jjmod'
p2844
sg2747
g2803
sg2748
S'JJP'
p2845
sg2750
I-1
sg36
I0
sg2751
(lp2846
sbsg2815
(issf_api
Node
p2847
(dp2848
g2745
S'r6'
p2849
sg2747
g2815
sg2748
S'NP5'
p2850
sg2750
I-1
sg36
I4
sg2751
(lp2851
sbsg2777
(issf_api
Node
p2852
(dp2853
g2745
S'k4'
p2854
sg2747
g2777
sg2748
S'VGNN'
p2855
sg2750
I-1
sg36
I9
sg2751
(lp2856
sbsg2762
(issf_api
Node
p2857
(dp2858
g2745
S'k2'
p2859
sg2747
g2762
sg2748
S'VGNF2'
p2860
sg2750
I-1
sg36
I7
sg2751
(lp2861
g2742
asbsg2754
(issf_api
Node
p2862
(dp2863
g2745
S'k7p'
p2864
sg2747
g2754
sg2748
S'VGNF'
p2865
sg2750
I-1
sg36
I3
sg2751
(lp2866
sbsg2755
(issf_api
Node
p2867
(dp2868
g2745
S'rd'
p2869
sg2747
g2755
sg2748
S'VGNF'
p2870
sg2750
I-1
sg36
I2
sg2751
(lp2871
g2797
asbssS'chunkList'
p2872
(lp2873
(issf_api
Chunk
p2874
(dp2875
g2747
g23
sg36
I0
sS'chunkTag'
p2876
g41
sg37
I0
sg2738
(lp2877
I0
asg42
(issf_api
FeatureSet
p2878
(dp2879
g12
(dp2880
S'name'
p2881
g2803
sS'drel'
p2882
S'jjmod:JJP'
p2883
ssbsba(issf_api
Chunk
p2884
(dp2885
g2747
g57
sg36
I1
sg2876
g62
sg37
I0
sg2738
(lp2886
I1
asg42
(issf_api
FeatureSet
p2887
(dp2888
g12
(dp2889
S'name'
p2890
g2797
sS'drel'
p2891
S'nmod:NP2'
p2892
ssbsba(issf_api
Chunk
p2893
(dp2894
g2747
g110
sg36
I2
sg2876
g117
sg37
I0
sg2738
(lp2895
I2
aI3
aI4
aI5
aI6
aI7
asg42
(issf_api
FeatureSet
p2896
(dp2897
g12
(dp2898
S'name'
p2899
g2755
sS'drel'
p2900
S'rd:VGNF'
p2901
ssbsba(issf_api
Chunk
p2902
(dp2903
g2747
g203
sg36
I3
sg2876
g214
sg37
I0
sg2738
(lp2904
I8
aI9
aI10
asg42
(issf_api
FeatureSet
p2905
(dp2906
g12
(dp2907
S'name'
p2908
g2754
sS'drel'
p2909
S'k7p:VGNF'
p2910
ssbsba(issf_api
Chunk
p2911
(dp2912
g2747
g247
sg36
I4
sg2876
g258
sg37
I0
sg2738
(lp2913
I11
aI12
asg42
(issf_api
FeatureSet
p2914
(dp2915
g12
(dp2916
S'name'
p2917
g2815
sS'drel'
p2918
S'r6:NP5'
p2919
ssbsba(issf_api
Chunk
p2920
(dp2921
g2747
g289
sg36
I5
sg2876
g296
sg37
I0
sg2738
(lp2922
I13
aI14
asg42
(issf_api
FeatureSet
p2923
(dp2924
g12
(dp2925
S'name'
p2926
g2753
sS'drel'
p2927
S'k7:VGNF'
p2928
ssbsba(issf_api
Chunk
p2929
(dp2930
g2747
g327
sg36
I6
sg2876
g334
sg37
I0
sg2738
(lp2931
I15
aI16
asg42
(issf_api
FeatureSet
p2932
(dp2933
g12
(dp2934
S'name'
p2935
g2742
sS'drel'
p2936
S'nmod__k2inv:NP6'
p2937
ssbsba(issf_api
Chunk
p2938
(dp2939
g2747
g365
sg36
I7
sg2876
g372
sg37
I0
sg2738
(lp2940
I17
aI18
asg42
(issf_api
FeatureSet
p2941
(dp2942
g12
(dp2943
S'name'
p2944
g2762
sS'drel'
p2945
S'k2:VGNF2'
p2946
ssbsba(issf_api
Chunk
p2947
(dp2948
g2747
g403
sg36
I8
sg2876
g410
sg37
I0
sg2738
(lp2949
I19
aI20
asg42
(issf_api
FeatureSet
p2950
(dp2951
g12
(dp2952
S'name'
p2953
g2756
sS'drel'
p2954
S'vmod:VGF'
p2955
ssbsba(issf_api
Chunk
p2956
(dp2957
g2747
g462
sg36
I9
sg2876
g473
sg37
I0
sg2738
(lp2958
I21
aI22
aI23
asg42
(issf_api
FeatureSet
p2959
(dp2960
g12
(dp2961
S'name'
p2962
g2777
sS'drel'
p2963
S'k4:VGNN'
p2964
ssbsba(issf_api
Chunk
p2965
(dp2966
g2747
g525
sg36
I10
sg2876
g532
sg37
I0
sg2738
(lp2967
I24
aI25
asg42
(issf_api
FeatureSet
p2968
(dp2969
g12
(dp2970
S'name'
p2971
g2776
sS'drel'
p2972
S'k2:VGNN'
p2973
ssbsba(issf_api
Chunk
p2974
(dp2975
g2747
g546
sg36
I11
sg2876
g553
sg37
I0
sg2738
(lp2976
I26
asg42
(issf_api
FeatureSet
p2977
(dp2978
g12
(dp2979
S'name'
p2980
g2770
sS'drel'
p2981
S'ccof:CCP'
p2982
ssbsba(issf_api
Chunk
p2983
(dp2984
g2747
g567
sg36
I12
sg2876
g574
sg37
I0
sg2738
(lp2985
I27
asg42
(issf_api
FeatureSet
p2986
(dp2987
g12
(dp2988
S'name'
p2989
g2790
sS'drel'
p2990
S'r6-k2:NP12'
p2991
ssbsba(issf_api
Chunk
p2992
(dp2993
g2747
g592
sg36
I13
sg2876
g605
sg37
I0
sg2738
(lp2994
I28
aI29
asg42
(issf_api
FeatureSet
p2995
(dp2996
g12
(dp2997
S'name'
p2998
g2821
sS'drel'
p2999
S'r6:NP10'
p3000
ssbsba(issf_api
Chunk
p3001
(dp3002
g2747
g665
sg36
I14
sg2876
g678
sg37
I0
sg2738
(lp3003
I30
aI31
aI32
asg42
(issf_api
FeatureSet
p3004
(dp3005
g12
(dp3006
S'name'
p3007
g2769
sS'drel'
p3008
S'r6:NP11'
p3009
ssbsba(issf_api
Chunk
p3010
(dp3011
g2747
g713
sg36
I15
sg2876
g724
sg37
I0
sg2738
(lp3012
I33
asg42
(issf_api
FeatureSet
p3013
(dp3014
g12
(dp3015
S'name'
p3016
g2763
sS'drel'
p3017
S'k2:VGNN2'
p3018
ssbsba(issf_api
Chunk
p3019
(dp3020
g2747
g738
sg36
I16
sg2876
g745
sg37
I0
sg2738
(lp3021
I34
asg42
(issf_api
FeatureSet
p3022
(dp3023
g12
(dp3024
S'name'
p3025
g2809
sS'drel'
p3026
S'pof:VGNN2'
p3027
ssbsba(issf_api
Chunk
p3028
(dp3029
g2747
g761
sg36
I17
sg2876
g772
sg37
I0
sg2738
(lp3030
I35
aI36
asg42
(issf_api
FeatureSet
p3031
(dp3032
g12
(dp3033
S'name'
p3034
g2796
sS'drel'
p3035
S'ccof:CCP'
p3036
ssbsba(issf_api
Chunk
p3037
(dp3038
g2747
g805
sg36
I18
sg2876
g812
sg37
I0
sg2738
(lp3039
I37
asg42
(issf_api
FeatureSet
p3040
(dp3041
g12
(dp3042
S'name'
p3043
g2783
sS'drel'
p3044
S'pof:VGF'
p3045
ssbsba(issf_api
Chunk
p3046
(dp3047
g2747
g828
sg36
I19
sg2876
g841
sg37
I0
sg2738
(lp3048
I38
aI39
aI40
asg42
(issf_api
FeatureSet
p3049
(dp3050
g12
(dp3051
S'name'
p3052
g2778
ssbsba(issf_api
Chunk
p3053
(dp3054
g2747
g893
sg36
I20
sg2876
g898
sg37
I0
sg2738
(lp3055
I41
asg42
(issf_api
FeatureSet
p3056
(dp3057
g12
(dp3058
S'name'
p3059
g2784
sS'drel'
p3060
S'rsym:VGF'
p3061
ssbsbasba(issf_api
Sentence
p3062
(dp3063
g2736
(lp3064
sg37
I1
sg2738
(lp3065
I42
aI43
aI44
aI45
aI46
aI47
aI48
aI49
aI50
aI51
aI52
aI53
aI54
asg2740
(dp3066
S'VGF'
p3067
(issf_api
Node
p3068
(dp3069
g2745
g2781
sg2747
g3067
sg2748
g2781
sg2750
I-1
sg36
I4
sg2751
(lp3070
S'JJP'
p3071
aS'BLK'
p3072
aS'NP'
p3073
aS'NP3'
p3074
aS'NP2'
p3075
asbsg3071
(issf_api
Node
p3076
(dp3077
g2745
S'pof'
p3078
sg2747
g3071
sg2748
S'VGF'
p3079
sg2750
I-1
sg36
I3
sg2751
(lp3080
sbsg3072
(issf_api
Node
p3081
(dp3082
g2745
S'rsym'
p3083
sg2747
g3072
sg2748
S'VGF'
p3084
sg2750
I-1
sg36
I5
sg2751
(lp3085
sbsg3073
(issf_api
Node
p3086
(dp3087
g2745
S'rd'
p3088
sg2747
g3073
sg2748
S'VGF'
p3089
sg2750
I-1
sg36
I0
sg2751
(lp3090
sbsg3074
(issf_api
Node
p3091
(dp3092
g2745
S'k2'
p3093
sg2747
g3074
sg2748
S'VGF'
p3094
sg2750
I-1
sg36
I2
sg2751
(lp3095
sbsg3075
(issf_api
Node
p3096
(dp3097
g2745
S'k7t'
p3098
sg2747
g3075
sg2748
S'VGF'
p3099
sg2750
I-1
sg36
I1
sg2751
(lp3100
sbssg2872
(lp3101
(issf_api
Chunk
p3102
(dp3103
g2747
g933
sg36
I0
sg2876
g944
sg37
I1
sg2738
(lp3104
I42
aI43
aI44
aI45
aI46
asg42
(issf_api
FeatureSet
p3105
(dp3106
g12
(dp3107
S'name'
p3108
g3073
sS'drel'
p3109
S'rd:VGF'
p3110
ssbsba(issf_api
Chunk
p3111
(dp3112
g2747
g1009
sg36
I1
sg2876
g1016
sg37
I1
sg2738
(lp3113
I47
aI48
asg42
(issf_api
FeatureSet
p3114
(dp3115
g12
(dp3116
S'name'
p3117
g3075
sS'drel'
p3118
S'k7t:VGF'
p3119
ssbsba(issf_api
Chunk
p3120
(dp3121
g2747
g1068
sg36
I2
sg2876
g1077
sg37
I1
sg2738
(lp3122
I49
aI50
asg42
(issf_api
FeatureSet
p3123
(dp3124
g12
(dp3125
S'name'
p3126
g3074
sS'drel'
p3127
S'k2:VGF'
p3128
ssbsba(issf_api
Chunk
p3129
(dp3130
g2747
g1091
sg36
I3
sg2876
g1096
sg37
I1
sg2738
(lp3131
I51
asg42
(issf_api
FeatureSet
p3132
(dp3133
g12
(dp3134
S'name'
p3135
g3071
sS'drel'
p3136
S'pof:VGF'
p3137
ssbsba(issf_api
Chunk
p3138
(dp3139
g2747
g1110
sg36
I4
sg2876
g1119
sg37
I1
sg2738
(lp3140
I52
aI53
asg42
(issf_api
FeatureSet
p3141
(dp3142
g12
(dp3143
S'name'
p3144
g3067
ssbsba(issf_api
Chunk
p3145
(dp3146
g2747
g1150
sg36
I5
sg2876
g1155
sg37
I1
sg2738
(lp3147
I54
asg42
(issf_api
FeatureSet
p3148
(dp3149
g12
(dp3150
S'name'
p3151
g3072
sS'drel'
p3152
S'rsym:VGF'
p3153
ssbsbasba(issf_api
Sentence
p3154
(dp3155
g2736
(lp3156
sg37
I2
sg2738
(lp3157
I55
aI56
aI57
aI58
aI59
aI60
aI61
aI62
aI63
aI64
aI65
aI66
aI67
aI68
aI69
aI70
aI71
aI72
aI73
aI74
aI75
aI76
aI77
aI78
aI79
aI80
aI81
aI82
aI83
aI84
aI85
aI86
aI87
aI88
aI89
aI90
aI91
aI92
aI93
aI94
aI95
aI96
aI97
aI98
aI99
asg2740
(dp3158
S'CCP'
p3159
(issf_api
Node
p3160
(dp3161
g2745
S'r6'
p3162
sg2747
g3159
sg2748
S'NP9'
p3163
sg2750
I-1
sg36
I9
sg2751
(lp3164
S'VGNN2'
p3165
aS'VGNN'
p3166
asbsg3165
(issf_api
Node
p3167
(dp3168
g2745
S'ccof'
p3169
sg2747
g3165
sg2748
S'CCP'
p3170
sg2750
I-1
sg36
I12
sg2751
(lp3171
S'NP8'
p3172
aS'NP7'
p3173
asbsS'NP9'
p3174
(issf_api
Node
p3175
(dp3176
g2745
S'k7'
p3177
sg2747
g3174
sg2748
S'VGF'
p3178
sg2750
I-1
sg36
I13
sg2751
(lp3179
g3159
asbsg3172
(issf_api
Node
p3180
(dp3181
g2745
S'pof'
p3182
sg2747
g3172
sg2748
S'VGNN2'
p3183
sg2750
I-1
sg36
I11
sg2751
(lp3184
sbsS'NP5'
p3185
(issf_api
Node
p3186
(dp3187
g2745
S'k1'
p3188
sg2747
g3185
sg2748
S'VGNN'
p3189
sg2750
I-1
sg36
I5
sg2751
(lp3190
S'NP4'
p3191
asbsg3191
(issf_api
Node
p3192
(dp3193
g2745
S'nmod'
p3194
sg2747
g3191
sg2748
S'NP5'
p3195
sg2750
I-1
sg36
I4
sg2751
(lp3196
sbsg3173
(issf_api
Node
p3197
(dp3198
g2745
S'k7'
p3199
sg2747
g3173
sg2748
S'VGNN2'
p3200
sg2750
I-1
sg36
I10
sg2751
(lp3201
sbsS'NP6'
p3202
(issf_api
Node
p3203
(dp3204
g2745
S'k2'
p3205
sg2747
g3202
sg2748
S'VGNN'
p3206
sg2750
I-1
sg36
I6
sg2751
(lp3207
sbsS'CCP2'
p3208
(issf_api
Node
p3209
(dp3210
g2745
S'nmod'
p3211
sg2747
g3208
sg2748
S'NP10'
p3212
sg2750
I-1
sg36
I15
sg2751
(lp3213
S'JJP3'
p3214
aS'JJP4'
p3215
asbsS'CCP3'
p3216
(issf_api
Node
p3217
(dp3218
g2745
S'nmod'
p3219
sg2747
g3216
sg2748
S'NP11'
p3220
sg2750
I-1
sg36
I20
sg2751
(lp3221
S'JJP5'
p3222
aS'JJP6'
p3223
aS'JJP7'
p3224
asbsS'NP3'
p3225
(issf_api
Node
p3226
(dp3227
g2745
S'k1'
p3228
sg2747
g3225
sg2748
S'VGF'
p3229
sg2750
I-1
sg36
I3
sg2751
(lp3230
S'JJP'
p3231
asbsS'NP2'
p3232
(issf_api
Node
p3233
(dp3234
g2745
S'jjmod'
p3235
sg2747
g3232
sg2748
S'JJP'
p3236
sg2750
I-1
sg36
I1
sg2751
(lp3237
sbsS'NP11'
p3238
(issf_api
Node
p3239
(dp3240
g2745
S'r6'
p3241
sg2747
g3238
sg2748
S'NP12'
p3242
sg2750
I-1
sg36
I22
sg2751
(lp3243
g3216
asbsS'NP10'
p3244
(issf_api
Node
p3245
(dp3246
g2745
S'k7p'
p3247
sg2747
g3244
sg2748
S'VGF'
p3248
sg2750
I-1
sg36
I17
sg2751
(lp3249
g3208
asbsS'NP13'
p3250
(issf_api
Node
p3251
(dp3252
g2745
S'pof'
p3253
sg2747
g3250
sg2748
S'VGF'
p3254
sg2750
I-1
sg36
I24
sg2751
(lp3255
sbsS'NP12'
p3256
(issf_api
Node
p3257
(dp3258
g2745
S'k7'
p3259
sg2747
g3256
sg2748
S'VGF'
p3260
sg2750
I-1
sg36
I23
sg2751
(lp3261
g3238
asbsS'NP'
p3262
(issf_api
Node
p3263
(dp3264
g2745
S'k7t'
p3265
sg2747
g3262
sg2748
S'VGF'
p3266
sg2750
I-1
sg36
I0
sg2751
(lp3267
sbsg3166
(issf_api
Node
p3268
(dp3269
g2745
S'ccof'
p3270
sg2747
g3166
sg2748
S'CCP'
p3271
sg2750
I-1
sg36
I8
sg2751
(lp3272
g3185
ag3202
aS'JJP2'
p3273
asbsS'VGF'
p3274
(issf_api
Node
p3275
(dp3276
g2745
g2781
sg2747
g3274
sg2748
g2781
sg2750
I-1
sg36
I25
sg2751
(lp3277
g3174
ag3225
ag3244
ag3250
ag3256
ag3262
aS'BLK'
p3278
asbsg3278
(issf_api
Node
p3279
(dp3280
g2745
S'rsym'
p3281
sg2747
g3278
sg2748
S'VGF'
p3282
sg2750
I-1
sg36
I26
sg2751
(lp3283
sbsg3231
(issf_api
Node
p3284
(dp3285
g2745
S'nmod'
p3286
sg2747
g3231
sg2748
S'NP3'
p3287
sg2750
I-1
sg36
I2
sg2751
(lp3288
g3232
asbsg3273
(issf_api
Node
p3289
(dp3290
g2745
S'pof'
p3291
sg2747
g3273
sg2748
S'VGNN'
p3292
sg2750
I-1
sg36
I7
sg2751
(lp3293
sbsg3214
(issf_api
Node
p3294
(dp3295
g2745
S'ccof'
p3296
sg2747
g3214
sg2748
S'CCP2'
p3297
sg2750
I-1
sg36
I14
sg2751
(lp3298
sbsg3215
(issf_api
Node
p3299
(dp3300
g2745
S'ccof'
p3301
sg2747
g3215
sg2748
S'CCP2'
p3302
sg2750
I-1
sg36
I16
sg2751
(lp3303
sbsg3222
(issf_api
Node
p3304
(dp3305
g2745
S'ccof'
p3306
sg2747
g3222
sg2748
S'CCP3'
p3307
sg2750
I-1
sg36
I18
sg2751
(lp3308
sbsg3223
(issf_api
Node
p3309
(dp3310
g2745
S'ccof'
p3311
sg2747
g3223
sg2748
S'CCP3'
p3312
sg2750
I-1
sg36
I19
sg2751
(lp3313
sbsg3224
(issf_api
Node
p3314
(dp3315
g2745
S'ccof'
p3316
sg2747
g3224
sg2748
S'CCP3'
p3317
sg2750
I-1
sg36
I21
sg2751
(lp3318
sbssg2872
(lp3319
(issf_api
Chunk
p3320
(dp3321
g2747
g1171
sg36
I0
sg2876
g1182
sg37
I2
sg2738
(lp3322
I55
aI56
asg42
(issf_api
FeatureSet
p3323
(dp3324
g12
(dp3325
S'name'
p3326
g3262
sS'drel'
p3327
S'k7t:VGF'
p3328
ssbsba(issf_api
Chunk
p3329
(dp3330
g2747
g1215
sg36
I1
sg2876
g1224
sg37
I2
sg2738
(lp3331
I57
asg42
(issf_api
FeatureSet
p3332
(dp3333
g12
(dp3334
S'name'
p3335
g3232
sS'drel'
p3336
S'jjmod:JJP'
p3337
ssbsba(issf_api
Chunk
p3338
(dp3339
g2747
g1238
sg36
I2
sg2876
g1243
sg37
I2
sg2738
(lp3340
I58
asg42
(issf_api
FeatureSet
p3341
(dp3342
g12
(dp3343
S'name'
p3344
g3231
sS'drel'
p3345
S'nmod:NP3'
p3346
ssbsba(issf_api
Chunk
p3347
(dp3348
g2747
g1274
sg36
I3
sg2876
g1281
sg37
I2
sg2738
(lp3349
I59
aI60
aI61
asg42
(issf_api
FeatureSet
p3350
(dp3351
g12
(dp3352
S'name'
p3353
g3225
sS'drel'
p3354
S'k1:VGF'
p3355
ssbsba(issf_api
Chunk
p3356
(dp3357
g2747
g1329
sg36
I4
sg2876
g1336
sg37
I2
sg2738
(lp3358
I62
aI63
aI64
asg42
(issf_api
FeatureSet
p3359
(dp3360
g12
(dp3361
S'name'
p3362
g3191
sS'drel'
p3363
S'nmod:NP5'
p3364
ssbsba(issf_api
Chunk
p3365
(dp3366
g2747
g1384
sg36
I5
sg2876
g1391
sg37
I2
sg2738
(lp3367
I65
aI66
aI67
asg42
(issf_api
FeatureSet
p3368
(dp3369
g12
(dp3370
S'name'
p3371
g3185
sS'drel'
p3372
S'k1:VGNN'
p3373
ssbsba(issf_api
Chunk
p3374
(dp3375
g2747
g1443
sg36
I6
sg2876
g1454
sg37
I2
sg2738
(lp3376
I68
aI69
aI70
asg42
(issf_api
FeatureSet
p3377
(dp3378
g12
(dp3379
S'name'
p3380
g3202
sS'drel'
p3381
S'k2:VGNN'
p3382
ssbsba(issf_api
Chunk
p3383
(dp3384
g2747
g1485
sg36
I7
sg2876
g1490
sg37
I2
sg2738
(lp3385
I71
asg42
(issf_api
FeatureSet
p3386
(dp3387
g12
(dp3388
S'name'
p3389
g3273
sS'drel'
p3390
S'pof:VGNN'
p3391
ssbsba(issf_api
Chunk
p3392
(dp3393
g2747
g1504
sg36
I8
sg2876
g1509
sg37
I2
sg2738
(lp3394
I72
asg42
(issf_api
FeatureSet
p3395
(dp3396
g12
(dp3397
S'name'
p3398
g3166
sS'drel'
p3399
S'ccof:CCP'
p3400
ssbsba(issf_api
Chunk
p3401
(dp3402
g2747
g1523
sg36
I9
sg2876
g1528
sg37
I2
sg2738
(lp3403
I73
asg42
(issf_api
FeatureSet
p3404
(dp3405
g12
(dp3406
S'name'
p3407
g3159
sS'drel'
p3408
S'r6:NP9'
p3409
ssbsba(issf_api
Chunk
p3410
(dp3411
g2747
g1542
sg36
I10
sg2876
g1549
sg37
I2
sg2738
(lp3412
I74
aI75
asg42
(issf_api
FeatureSet
p3413
(dp3414
g12
(dp3415
S'name'
p3416
g3173
sS'drel'
p3417
S'k7:VGNN2'
p3418
ssbsba(issf_api
Chunk
p3419
(dp3420
g2747
g1580
sg36
I11
sg2876
g1585
sg37
I2
sg2738
(lp3421
I76
asg42
(issf_api
FeatureSet
p3422
(dp3423
g12
(dp3424
S'name'
p3425
g3172
sS'drel'
p3426
S'pof:VGNN2'
p3427
ssbsba(issf_api
Chunk
p3428
(dp3429
g2747
g1599
sg36
I12
sg2876
g1606
sg37
I2
sg2738
(lp3430
I77
aI78
asg42
(issf_api
FeatureSet
p3431
(dp3432
g12
(dp3433
S'name'
p3434
g3165
sS'drel'
p3435
S'ccof:CCP'
p3436
ssbsba(issf_api
Chunk
p3437
(dp3438
g2747
g1637
sg36
I13
sg2876
g1644
sg37
I2
sg2738
(lp3439
I79
aI80
asg42
(issf_api
FeatureSet
p3440
(dp3441
g12
(dp3442
S'name'
p3443
g3174
sS'drel'
p3444
S'k7:VGF'
p3445
ssbsba(issf_api
Chunk
p3446
(dp3447
g2747
g1675
sg36
I14
sg2876
g1680
sg37
I2
sg2738
(lp3448
I81
asg42
(issf_api
FeatureSet
p3449
(dp3450
g12
(dp3451
S'name'
p3452
g3214
sS'drel'
p3453
S'ccof:CCP2'
p3454
ssbsba(issf_api
Chunk
p3455
(dp3456
g2747
g1694
sg36
I15
sg2876
g1699
sg37
I2
sg2738
(lp3457
I82
asg42
(issf_api
FeatureSet
p3458
(dp3459
g12
(dp3460
S'name'
p3461
g3208
sS'drel'
p3462
S'nmod:NP10'
p3463
ssbsba(issf_api
Chunk
p3464
(dp3465
g2747
g1713
sg36
I16
sg2876
g1718
sg37
I2
sg2738
(lp3466
I83
asg42
(issf_api
FeatureSet
p3467
(dp3468
g12
(dp3469
S'name'
p3470
g3215
sS'drel'
p3471
S'ccof:CCP2'
p3472
ssbsba(issf_api
Chunk
p3473
(dp3474
g2747
g1732
sg36
I17
sg2876
g1739
sg37
I2
sg2738
(lp3475
I84
aI85
asg42
(issf_api
FeatureSet
p3476
(dp3477
g12
(dp3478
S'name'
p3479
g3244
sS'drel'
p3480
S'k7p:VGF'
p3481
ssbsba(issf_api
Chunk
p3482
(dp3483
g2747
g1770
sg36
I18
sg2876
g1777
sg37
I2
sg2738
(lp3484
I86
aI87
asg42
(issf_api
FeatureSet
p3485
(dp3486
g12
(dp3487
S'name'
p3488
g3222
sS'drel'
p3489
S'ccof:CCP3'
p3490
ssbsba(issf_api
Chunk
p3491
(dp3492
g2747
g1810
sg36
I19
sg2876
g1817
sg37
I2
sg2738
(lp3493
I88
asg42
(issf_api
FeatureSet
p3494
(dp3495
g12
(dp3496
S'name'
p3497
g3223
sS'drel'
p3498
S'ccof:CCP3'
p3499
ssbsba(issf_api
Chunk
p3500
(dp3501
g2747
g1831
sg36
I20
sg2876
g1838
sg37
I2
sg2738
(lp3502
I89
asg42
(issf_api
FeatureSet
p3503
(dp3504
g12
(dp3505
S'name'
p3506
g3216
sS'drel'
p3507
S'nmod:NP11'
p3508
ssbsba(issf_api
Chunk
p3509
(dp3510
g2747
g1852
sg36
I21
sg2876
g1859
sg37
I2
sg2738
(lp3511
I90
asg42
(issf_api
FeatureSet
p3512
(dp3513
g12
(dp3514
S'name'
p3515
g3224
sS'drel'
p3516
S'ccof:CCP3'
p3517
ssbsba(issf_api
Chunk
p3518
(dp3519
g2747
g1875
sg36
I22
sg2876
g1886
sg37
I2
sg2738
(lp3520
I91
aI92
asg42
(issf_api
FeatureSet
p3521
(dp3522
g12
(dp3523
S'name'
p3524
g3238
sS'drel'
p3525
S'r6:NP12'
p3526
ssbsba(issf_api
Chunk
p3527
(dp3528
g2747
g1917
sg36
I23
sg2876
g1924
sg37
I2
sg2738
(lp3529
I93
aI94
asg42
(issf_api
FeatureSet
p3530
(dp3531
g12
(dp3532
S'name'
p3533
g3256
sS'drel'
p3534
S'k7:VGF'
p3535
ssbsba(issf_api
Chunk
p3536
(dp3537
g2747
g1955
sg36
I24
sg2876
g1960
sg37
I2
sg2738
(lp3538
I95
asg42
(issf_api
FeatureSet
p3539
(dp3540
g12
(dp3541
S'name'
p3542
g3250
sS'drel'
p3543
S'pof:VGF'
p3544
ssbsba(issf_api
Chunk
p3545
(dp3546
g2747
g1974
sg36
I25
sg2876
g1983
sg37
I2
sg2738
(lp3547
I96
aI97
aI98
asg42
(issf_api
FeatureSet
p3548
(dp3549
g12
(dp3550
S'name'
p3551
g3274
ssbsba(issf_api
Chunk
p3552
(dp3553
g2747
g2031
sg36
I26
sg2876
g2036
sg37
I2
sg2738
(lp3554
I99
asg42
(issf_api
FeatureSet
p3555
(dp3556
g12
(dp3557
S'name'
p3558
g3278
sS'drel'
p3559
S'rsym:VGF'
p3560
ssbsbasba(issf_api
Sentence
p3561
(dp3562
g2736
(lp3563
sg37
I3
sg2738
(lp3564
I100
aI101
aI102
aI103
aI104
aI105
aI106
aI107
aI108
aI109
aI110
aI111
aI112
aI113
aI114
aI115
aI116
aI117
aI118
aI119
aI120
aI121
aI122
aI123
aI124
aI125
aI126
aI127
aI128
aI129
aI130
aI131
aI132
asg2740
(dp3565
S'VGF4'
p3566
(issf_api
Node
p3567
(dp3568
g2745
S'ccof'
p3569
sg2747
g3566
sg2748
S'CCP3'
p3570
sg2750
I-1
sg36
I22
sg2751
(lp3571
S'VGNN2'
p3572
aS'NP11'
p3573
aS'NP12'
p3574
aS'JJP2'
p3575
asbsS'CCP'
p3576
(issf_api
Node
p3577
(dp3578
g2745
S'k2'
p3579
sg2747
g3576
sg2748
S'VGF'
p3580
sg2750
I-1
sg36
I5
sg2751
(lp3581
S'CCP2'
p3582
asbsg3572
(issf_api
Node
p3583
(dp3584
g2745
S'k7t'
p3585
sg2747
g3572
sg2748
S'VGF4'
p3586
sg2750
I-1
sg36
I18
sg2751
(lp3587
S'NP10'
p3588
aS'JJP'
p3589
asbsS'NP9'
p3590
(issf_api
Node
p3591
(dp3592
g2745
S'k1'
p3593
sg2747
g3590
sg2748
S'VGF3'
p3594
sg2750
I-1
sg36
I13
sg2751
(lp3595
S'CCP3'
p3596
asbsS'NP8'
p3597
(issf_api
Node
p3598
(dp3599
g2745
S'k2'
p3600
sg2747
g3597
sg2748
S'VGF2'
p3601
sg2750
I-1
sg36
I10
sg2751
(lp3602
sbsS'NP5'
p3603
(issf_api
Node
p3604
(dp3605
g2745
S'k1'
p3606
sg2747
g3603
sg2748
S'VGF2'
p3607
sg2750
I-1
sg36
I6
sg2751
(lp3608
sbsS'NP4'
p3609
(issf_api
Node
p3610
(dp3611
g2745
S'k4'
p3612
sg2747
g3609
sg2748
S'VGF'
p3613
sg2750
I-1
sg36
I3
sg2751
(lp3614
S'NP3'
p3615
asbsS'NP7'
p3616
(issf_api
Node
p3617
(dp3618
g2745
S'pof'
p3619
sg2747
g3616
sg2748
S'VGNN'
p3620
sg2750
I-1
sg36
I8
sg2751
(lp3621
S'NP6'
p3622
asbsg3622
(issf_api
Node
p3623
(dp3624
g2745
S'r6-k2'
p3625
sg2747
g3622
sg2748
S'NP7'
p3626
sg2750
I-1
sg36
I7
sg2751
(lp3627
sbsg3582
(issf_api
Node
p3628
(dp3629
g2745
S'ccof'
p3630
sg2747
g3582
sg2748
S'CCP'
p3631
sg2750
I-1
sg36
I12
sg2751
(lp3632
S'VGF3'
p3633
aS'VGF2'
p3634
asbsg3596
(issf_api
Node
p3635
(dp3636
g2745
S'rs'
p3637
sg2747
g3596
sg2748
S'NP9'
p3638
sg2750
I-1
sg36
I15
sg2751
(lp3639
g3566
asbsg3615
(issf_api
Node
p3640
(dp3641
g2745
S'r6'
p3642
sg2747
g3615
sg2748
S'NP4'
p3643
sg2750
I-1
sg36
I2
sg2751
(lp3644
sbsS'NP2'
p3645
(issf_api
Node
p3646
(dp3647
g2745
S'k7'
p3648
sg2747
g3645
sg2748
S'VGF'
p3649
sg2750
I-1
sg36
I1
sg2751
(lp3650
sbsg3573
(issf_api
Node
p3651
(dp3652
g2745
S'k1'
p3653
sg2747
g3573
sg2748
S'VGF4'
p3654
sg2750
I-1
sg36
I19
sg2751
(lp3655
sbsg3588
(issf_api
Node
p3656
(dp3657
g2745
S'k1'
p3658
sg2747
g3588
sg2748
S'VGNN2'
p3659
sg2750
I-1
sg36
I16
sg2751
(lp3660
sbsg3574
(issf_api
Node
p3661
(dp3662
g2745
S'k2'
p3663
sg2747
g3574
sg2748
S'VGF4'
p3664
sg2750
I-1
sg36
I20
sg2751
(lp3665
sbsg3633
(issf_api
Node
p3666
(dp3667
g2745
S'ccof'
p3668
sg2747
g3633
sg2748
S'CCP2'
p3669
sg2750
I-1
sg36
I14
sg2751
(lp3670
g3590
asbsg3634
(issf_api
Node
p3671
(dp3672
g2745
S'ccof'
p3673
sg2747
g3634
sg2748
S'CCP2'
p3674
sg2750
I-1
sg36
I11
sg2751
(lp3675
g3597
ag3603
aS'VGNN'
p3676
asbsS'NP'
p3677
(issf_api
Node
p3678
(dp3679
g2745
S'k1'
p3680
sg2747
g3677
sg2748
S'VGF'
p3681
sg2750
I-1
sg36
I0
sg2751
(lp3682
sbsg3676
(issf_api
Node
p3683
(dp3684
g2745
S'k7t'
p3685
sg2747
g3676
sg2748
S'VGF2'
p3686
sg2750
I-1
sg36
I9
sg2751
(lp3687
g3616
asbsS'VGF'
p3688
(issf_api
Node
p3689
(dp3690
g2745
g2781
sg2747
g3688
sg2748
g2781
sg2750
I-1
sg36
I4
sg2751
(lp3691
g3576
ag3609
ag3645
ag3677
aS'BLK'
p3692
asbsg3692
(issf_api
Node
p3693
(dp3694
g2745
S'rsym'
p3695
sg2747
g3692
sg2748
S'VGF'
p3696
sg2750
I-1
sg36
I23
sg2751
(lp3697
sbsg3589
(issf_api
Node
p3698
(dp3699
g2745
S'pof'
p3700
sg2747
g3589
sg2748
S'VGNN2'
p3701
sg2750
I-1
sg36
I17
sg2751
(lp3702
sbsg3575
(issf_api
Node
p3703
(dp3704
g2745
S'pof'
p3705
sg2747
g3575
sg2748
S'VGF4'
p3706
sg2750
I-1
sg36
I21
sg2751
(lp3707
sbssg2872
(lp3708
(issf_api
Chunk
p3709
(dp3710
g2747
g2071
sg36
I0
sg2876
g2082
sg37
I3
sg2738
(lp3711
I100
aI101
aI102
asg42
(issf_api
FeatureSet
p3712
(dp3713
g12
(dp3714
S'name'
p3715
g3677
sS'drel'
p3716
S'k1:VGF'
p3717
ssbsba(issf_api
Chunk
p3718
(dp3719
g2747
g2115
sg36
I1
sg2876
g2126
sg37
I3
sg2738
(lp3720
I103
aI104
asg42
(issf_api
FeatureSet
p3721
(dp3722
g12
(dp3723
S'name'
p3724
g3645
sS'drel'
p3725
S'k7:VGF'
p3726
ssbsba(issf_api
Chunk
p3727
(dp3728
g2747
g2161
sg36
I2
sg2876
g2172
sg37
I3
sg2738
(lp3729
I105
asg42
(issf_api
FeatureSet
p3730
(dp3731
g12
(dp3732
S'name'
p3733
g3615
sS'drel'
p3734
S'r6:NP4'
p3735
ssbsba(issf_api
Chunk
p3736
(dp3737
g2747
g2188
sg36
I3
sg2876
g2201
sg37
I3
sg2738
(lp3738
I106
aI107
asg42
(issf_api
FeatureSet
p3739
(dp3740
g12
(dp3741
S'name'
p3742
g3609
sS'drel'
p3743
S'k4:VGF'
p3744
ssbsba(issf_api
Chunk
p3745
(dp3746
g2747
g2232
sg36
I4
sg2876
g2239
sg37
I3
sg2738
(lp3747
I108
asg42
(issf_api
FeatureSet
p3748
(dp3749
g12
(dp3750
S'name'
p3751
g3688
ssbsba(issf_api
Chunk
p3752
(dp3753
g2747
g2253
sg36
I5
sg2876
g2258
sg37
I3
sg2738
(lp3754
I109
asg42
(issf_api
FeatureSet
p3755
(dp3756
g12
(dp3757
S'name'
p3758
g3576
sS'drel'
p3759
S'k2:VGF'
p3760
ssbsba(issf_api
Chunk
p3761
(dp3762
g2747
g2274
sg36
I6
sg2876
g2283
sg37
I3
sg2738
(lp3763
I110
asg42
(issf_api
FeatureSet
p3764
(dp3765
g12
(dp3766
S'name'
p3767
g3603
sS'drel'
p3768
S'k1:VGF2'
p3769
ssbsba(issf_api
Chunk
p3770
(dp3771
g2747
g2318
sg36
I7
sg2876
g2329
sg37
I3
sg2738
(lp3772
I111
aI112
aI113
asg42
(issf_api
FeatureSet
p3773
(dp3774
g12
(dp3775
S'name'
p3776
g3622
sS'drel'
p3777
S'r6-k2:NP7'
p3778
ssbsba(issf_api
Chunk
p3779
(dp3780
g2747
g2360
sg36
I8
sg2876
g2365
sg37
I3
sg2738
(lp3781
I114
asg42
(issf_api
FeatureSet
p3782
(dp3783
g12
(dp3784
S'name'
p3785
g3616
sS'drel'
p3786
S'pof:VGNN'
p3787
ssbsba(issf_api
Chunk
p3788
(dp3789
g2747
g2379
sg36
I9
sg2876
g2386
sg37
I3
sg2738
(lp3790
I115
aI116
asg42
(issf_api
FeatureSet
p3791
(dp3792
g12
(dp3793
S'name'
p3794
g3676
sS'drel'
p3795
S'k7t:VGF2'
p3796
ssbsba(issf_api
Chunk
p3797
(dp3798
g2747
g2417
sg36
I10
sg2876
g2422
sg37
I3
sg2738
(lp3799
I117
asg42
(issf_api
FeatureSet
p3800
(dp3801
g12
(dp3802
S'name'
p3803
g3597
sS'drel'
p3804
S'k2:VGF2'
p3805
ssbsba(issf_api
Chunk
p3806
(dp3807
g2747
g2436
sg36
I11
sg2876
g2447
sg37
I3
sg2738
(lp3808
I118
aI119
asg42
(issf_api
FeatureSet
p3809
(dp3810
g12
(dp3811
S'name'
p3812
g3634
sS'drel'
p3813
S'ccof:CCP2'
p3814
ssbsba(issf_api
Chunk
p3815
(dp3816
g2747
g2478
sg36
I12
sg2876
g2483
sg37
I3
sg2738
(lp3817
I120
asg42
(issf_api
FeatureSet
p3818
(dp3819
g12
(dp3820
S'name'
p3821
g3582
sS'drel'
p3822
S'ccof:CCP'
p3823
ssbsba(issf_api
Chunk
p3824
(dp3825
g2747
g2497
sg36
I13
sg2876
g2502
sg37
I3
sg2738
(lp3826
I121
asg42
(issf_api
FeatureSet
p3827
(dp3828
g12
(dp3829
S'name'
p3830
g3590
sS'drel'
p3831
S'k1:VGF3'
p3832
ssbsba(issf_api
Chunk
p3833
(dp3834
g2747
g2516
sg36
I14
sg2876
g2525
sg37
I3
sg2738
(lp3835
I122
asg42
(issf_api
FeatureSet
p3836
(dp3837
g12
(dp3838
S'name'
p3839
g3633
sS'drel'
p3840
S'ccof:CCP2'
p3841
ssbsba(issf_api
Chunk
p3842
(dp3843
g2747
g2539
sg36
I15
sg2876
g2544
sg37
I3
sg2738
(lp3844
I123
asg42
(issf_api
FeatureSet
p3845
(dp3846
g12
(dp3847
S'name'
p3848
g3596
sS'drel'
p3849
S'rs:NP9'
p3850
ssbsba(issf_api
Chunk
p3851
(dp3852
g2747
g2558
sg36
I16
sg2876
g2563
sg37
I3
sg2738
(lp3853
I124
asg42
(issf_api
FeatureSet
p3854
(dp3855
g12
(dp3856
S'name'
p3857
g3588
sS'drel'
p3858
S'k1:VGNN2'
p3859
ssbsba(issf_api
Chunk
p3860
(dp3861
g2747
g2577
sg36
I17
sg2876
g2582
sg37
I3
sg2738
(lp3862
I125
asg42
(issf_api
FeatureSet
p3863
(dp3864
g12
(dp3865
S'name'
p3866
g3589
sS'drel'
p3867
S'pof:VGNN2'
p3868
ssbsba(issf_api
Chunk
p3869
(dp3870
g2747
g2596
sg36
I18
sg2876
g2603
sg37
I3
sg2738
(lp3871
I126
aI127
asg42
(issf_api
FeatureSet
p3872
(dp3873
g12
(dp3874
S'name'
p3875
g3572
sS'drel'
p3876
S'k7t:VGF4'
p3877
ssbsba(issf_api
Chunk
p3878
(dp3879
g2747
g2636
sg36
I19
sg2876
g2645
sg37
I3
sg2738
(lp3880
I128
asg42
(issf_api
FeatureSet
p3881
(dp3882
g12
(dp3883
S'name'
p3884
g3573
sS'drel'
p3885
S'k1:VGF4'
p3886
ssbsba(issf_api
Chunk
p3887
(dp3888
g2747
g2661
sg36
I20
sg2876
g2670
sg37
I3
sg2738
(lp3889
I129
asg42
(issf_api
FeatureSet
p3890
(dp3891
g12
(dp3892
S'name'
p3893
g3574
sS'drel'
p3894
S'k2:VGF4'
p3895
ssbsba(issf_api
Chunk
p3896
(dp3897
g2747
g2684
sg36
I21
sg2876
g2689
sg37
I3
sg2738
(lp3898
I130
asg42
(issf_api
FeatureSet
p3899
(dp3900
g12
(dp3901
S'name'
p3902
g3575
sS'drel'
p3903
S'pof:VGF4'
p3904
ssbsba(issf_api
Chunk
p3905
(dp3906
g2747
g2703
sg36
I22
sg2876
g2712
sg37
I3
sg2738
(lp3907
I131
asg42
(issf_api
FeatureSet
p3908
(dp3909
g12
(dp3910
S'name'
p3911
g3566
sS'drel'
p3912
S'ccof:CCP3'
p3913
ssbsba(issf_api
Chunk
p3914
(dp3915
g2747
g2726
sg36
I23
sg2876
g2731
sg37
I3
sg2738
(lp3916
I132
asg42
(issf_api
FeatureSet
p3917
(dp3918
g12
(dp3919
S'name'
p3920
g3692
sS'drel'
p3921
S'rsym:VGF'
p3922
ssbsbasbasb.