(issf_api
SSFInfo
p0
(dp1
S'globalWordList'
p2
(lp3
(issf_api
Word
p4
(dp5
S'splitConn'
p6
I00
sS'word'
p7
V\u0905\u0902\u0921\u0930\u0935\u0930\u094d\u0932\u0921
p8
sS'extraFeatureSet'
p9
(issf_api
FeatureSet
p10
(dp11
S'featureDict'
p12
(dp13
S'posn'
p14
S'10'
p15
sS'name'
p16
S'\xe0\xa4\x85\xe0\xa4\x82\xe0\xa4\xa1\xe0\xa4\xb0\xe0\xa4\xb5\xe0\xa4\xb0\xe0\xa5\x8d\xe0\xa4\xb2\xe0\xa4\xa1'
p17
sS'af'
p18
S'\xe0\xa4\x85\xe0\xa4\x82\xe0\xa4\xa1\xe0\xa4\xb0\xe0\xa4\xb5\xe0\xa4\xb0\xe0\xa5\x8d\xe0\xa4\xb2\xe0\xa4\xa1,n,m,sg,3,d,0,0'
p19
sS'drel'
p20
S'pof__cn:NP'
p21
sS'chunktype'
p22
S'child:NP'
p23
sS'cref'
p24
S'i1%0:t1'
p25
ssbsS'arg1'
p26
I00
sS'arg2'
p27
I00
sS'sense'
p28
NsS'arg1Span'
p29
NsS'chunkNum'
p30
I0
sS'sentenceNum'
p31
I0
sS'relationNum'
p32
NsS'arg2Span'
p33
NsS'wordTag'
p34
S'NNC'
p35
sS'featureSet'
p36
g10
sS'conn'
p37
I00
sba(issf_api
Word
p38
(dp39
g6
I00
sg7
V\u0921\u0949\u0928
p40
sg9
(issf_api
FeatureSet
p41
(dp42
g12
(dp43
S'posn'
p44
S'20'
p45
sS'name'
p46
S'\xe0\xa4\xa1\xe0\xa5\x89\xe0\xa4\xa8'
p47
sS'af'
p48
S'\xe0\xa4\xa1\xe0\xa5\x89\xe0\xa4\xa8,n,m,sg,3,d,0,0'
p49
sS'drel'
p50
S'nmod:NP'
p51
sS'chunktype'
p52
S'child:NP'
p53
sS'cref'
p54
S'i1%0:t1'
p55
ssbsg26
I00
sg27
I00
sg28
Nsg29
Nsg30
I0
sg31
I0
sg32
Nsg33
Nsg34
S'NN'
p56
sg36
g41
sg37
I00
sba(issf_api
Word
p57
(dp58
g6
I00
sg7
V\u0905\u092c\u0942
p59
sg9
(issf_api
FeatureSet
p60
(dp61
g12
(dp62
S'posn'
p63
S'30'
p64
sS'name'
p65
S'\xe0\xa4\x85\xe0\xa4\xac\xe0\xa5\x82'
p66
sS'af'
p67
S'\xe0\xa4\x85\xe0\xa4\xac\xe0\xa5\x82,n,m,sg,3,d,0,0'
p68
sS'acrefmod'
p69
S'm1%0:i2'
p70
sS'drel'
p71
S'pof__cn:NP'
p72
sS'chunktype'
p73
S'child:NP'
p74
sS'cref'
p75
S'i1%0:t1'
p76
ssbsg26
I00
sg27
I00
sg28
Nsg29
Nsg30
I0
sg31
I0
sg32
Nsg33
Nsg34
S'NNPC'
p77
sg36
g60
sg37
I00
sba(issf_api
Word
p78
(dp79
g6
I00
sg7
V\u0938\u0932\u0947\u092e
p80
sg9
(issf_api
FeatureSet
p81
(dp82
g12
(dp83
S'crefhead'
p84
S'\xe0\xa4\xb8\xe0\xa4\xb2\xe0\xa5\x87\xe0\xa4\xae:i1'
p85
sS'posn'
p86
S'40'
p87
sS'name'
p88
S'\xe0\xa4\xb8\xe0\xa4\xb2\xe0\xa5\x87\xe0\xa4\xae'
p89
sS'af'
p90
S'\xe0\xa4\xb8\xe0\xa4\xb2\xe0\xa5\x87\xe0\xa4\xae,n,m,sg,3,o,0_\xe0\xa4\x95\xe0\xa4\xbe,0'
p91
sS'acrefmodhead'
p92
S'\xe0\xa4\xb8\xe0\xa4\xb2\xe0\xa5\x87\xe0\xa4\xae:m1'
p93
sS'chunkid'
p94
S'NP'
p95
sS'acrefmod'
p96
S'm1%1:i2'
p97
sS'chunktype'
p98
S'head:NP'
p99
sS'crefchainhead'
p100
S'i1:t1'
p101
sS'vpos'
p102
S'vib_vib_5'
p103
sS'cref'
p104
S'i1%1:t1'
p105
sS'drel'
p106
S'r6:NP2'
p107
ssbsg26
I00
sg27
I00
sg28
Nsg29
Nsg30
I0
sg31
I0
sg32
Nsg33
Nsg34
S'NNP'
p108
sg36
g81
sg37
I00
sba(issf_api
Word
p109
(dp110
g6
I00
sg7
V\u0915\u0947
p111
sg9
(issf_api
FeatureSet
p112
(dp113
g12
(dp114
S'posn'
p115
S'50'
p116
sS'name'
p117
S'\xe0\xa4\x95\xe0\xa5\x87'
p118
sS'drel'
p119
S'lwg__psp:NP'
p120
sS'chunktype'
p121
S'child:NP'
p122
sS'af'
p123
S'\xe0\xa4\x95\xe0\xa4\xbe,psp,m,sg,,o,,'
p124
ssbsg26
I00
sg27
I00
sg28
Nsg29
Nsg30
I0
sg31
I0
sg32
Nsg33
Nsg34
S'PSP'
p125
sg36
g112
sg37
I00
sba(issf_api
Word
p126
(dp127
g6
I00
sg7
V\u092d\u093e\u0908
p128
sg9
(issf_api
FeatureSet
p129
(dp130
g12
(dp131
S'crefhead'
p132
S'\xe0\xa4\xad\xe0\xa4\xbe\xe0\xa4\x88:i2'
p133
sS'posn'
p134
S'60'
p135
sS'name'
p136
S'\xe0\xa4\xad\xe0\xa4\xbe\xe0\xa4\x88'
p137
sS'af'
p138
S'\xe0\xa4\xad\xe0\xa4\xbe\xe0\xa4\x88,n,m,sg,3,o,0,0'
p139
sS'chunkid'
p140
S'NP2'
p141
sS'crefmod'
p142
S'm1:i2'
p143
sS'chunktype'
p144
S'head:NP2'
p145
sS'cref'
p146
S'i2%1:t2'
p147
sS'drel'
p148
S'nmod:NP3'
p149
ssbsg26
I00
sg27
I00
sg28
Nsg29
Nsg30
I1
sg31
I0
sg32
Nsg33
Nsg34
S'NN'
p150
sg36
g129
sg37
I00
sba(issf_api
Word
p151
(dp152
g6
I00
sg7
V\u0905\u092c\u0942
p153
sg9
(issf_api
FeatureSet
p154
(dp155
g12
(dp156
S'posn'
p157
S'70'
p158
sS'name'
p159
S'\xe0\xa4\x85\xe0\xa4\xac\xe0\xa5\x822'
p160
sS'af'
p161
S'\xe0\xa4\x85\xe0\xa4\xac\xe0\xa5\x82,,m,sg,3,d,0,0'
p162
sS'drel'
p163
S'pof__cn:NP3'
p164
sS'chunktype'
p165
S'child:NP3'
p166
sS'cref'
p167
S'i3%0:t2'
p168
ssbsg26
I00
sg27
I00
sg28
Nsg29
Nsg30
I2
sg31
I0
sg32
Nsg33
Nsg34
S'NNPC'
p169
sg36
g154
sg37
I00
sba(issf_api
Word
p170
(dp171
g6
I00
sg7
V\u0932\u0948\u0938
p172
sg9
(issf_api
FeatureSet
p173
(dp174
g12
(dp175
S'crefhead'
p176
S'\xe0\xa4\xb2\xe0\xa5\x88\xe0\xa4\xb8:i3'
p177
sS'posn'
p178
S'80'
p179
sS'name'
p180
S'\xe0\xa4\xb2\xe0\xa5\x88\xe0\xa4\xb8'
p181
sS'af'
p182
S'\xe0\xa4\xb2\xe0\xa5\x88\xe0\xa4\xb8,n,m,sg,3,o,0_\xe0\xa4\xa8\xe0\xa5\x87,0'
p183
sS'chunkid'
p184
S'NP3'
p185
sS'creftype'
p186
S'Coreference-Identity:i2'
p187
sS'chunktype'
p188
S'head:NP3'
p189
sS'crefchainhead'
p190
S'i3:t2'
p191
sS'vpos'
p192
S'vib_3'
p193
sS'cref'
p194
S'i3%1:t2'
p195
sS'drel'
p196
S'k1:VGF'
p197
ssbsg26
I00
sg27
I00
sg28
Nsg29
Nsg30
I2
sg31
I0
sg32
Nsg33
Nsg34
S'NNP'
p198
sg36
g173
sg37
I00
sba(issf_api
Word
p199
(dp200
g6
I00
sg7
V\u0928\u0947
p201
sg9
(issf_api
FeatureSet
p202
(dp203
g12
(dp204
S'posn'
p205
S'90'
p206
sS'name'
p207
S'\xe0\xa4\xa8\xe0\xa5\x87'
p208
sS'drel'
p209
S'lwg__psp:NP3'
p210
sS'chunktype'
p211
S'child:NP3'
p212
sS'af'
p213
S'\xe0\xa4\xa8\xe0\xa5\x87,psp,,,,,,'
p214
ssbsg26
I00
sg27
I00
sg28
Nsg29
Nsg30
I2
sg31
I0
sg32
Nsg33
Nsg34
S'PSP'
p215
sg36
g202
sg37
I00
sba(issf_api
Word
p216
(dp217
g6
I00
sg7
V\u0930\u093e\u091c\u094d\u092f
p218
sg9
(issf_api
FeatureSet
p219
(dp220
g12
(dp221
S'posn'
p222
S'100'
p223
sS'name'
p224
S'\xe0\xa4\xb0\xe0\xa4\xbe\xe0\xa4\x9c\xe0\xa5\x8d\xe0\xa4\xaf'
p225
sS'af'
p226
S'\xe0\xa4\xb0\xe0\xa4\xbe\xe0\xa4\x9c\xe0\xa5\x8d\xe0\xa4\xaf,n,m,sg,3,d,0,0'
p227
sS'drel'
p228
S'pof__cn:NP4'
p229
sS'chunktype'
p230
S'child:NP4'
p231
sS'cref'
p232
S'i4%0:t3'
p233
ssbsg26
I00
sg27
I00
sg28
Nsg29
Nsg30
I3
sg31
I0
sg32
Nsg33
Nsg34
S'NNPC'
p234
sg36
g219
sg37
I00
sba(issf_api
Word
p235
(dp236
g6
I00
sg7
V\u092e\u093e\u0928\u0935\u093e\u0927\u093f\u0915\u093e\u0930
p237
sg9
(issf_api
FeatureSet
p238
(dp239
g12
(dp240
S'posn'
p241
S'110'
p242
sS'name'
p243
S'\xe0\xa4\xae\xe0\xa4\xbe\xe0\xa4\xa8\xe0\xa4\xb5\xe0\xa4\xbe\xe0\xa4\xa7\xe0\xa4\xbf\xe0\xa4\x95\xe0\xa4\xbe\xe0\xa4\xb0'
p244
sS'af'
p245
S'\xe0\xa4\xae\xe0\xa4\xbe\xe0\xa4\xa8\xe0\xa4\xb5\xe0\xa4\xbe\xe0\xa4\xa7\xe0\xa4\xbf\xe0\xa4\x95\xe0\xa4\xbe\xe0\xa4\xb0,n,m,sg,3,d,0,0'
p246
sS'drel'
p247
S'pof__cn:NP4'
p248
sS'chunktype'
p249
S'child:NP4'
p250
sS'cref'
p251
S'i4%0:t3'
p252
ssbsg26
I00
sg27
I00
sg28
Nsg29
Nsg30
I3
sg31
I0
sg32
Nsg33
Nsg34
S'NNPC'
p253
sg36
g238
sg37
I00
sba(issf_api
Word
p254
(dp255
g6
I00
sg7
V\u0906\u092f\u094b\u0917
p256
sg9
(issf_api
FeatureSet
p257
(dp258
g12
(dp259
S'crefhead'
p260
S'\xe0\xa4\x86\xe0\xa4\xaf\xe0\xa5\x8b\xe0\xa4\x97:i4'
p261
sS'posn'
p262
S'120'
p263
sS'name'
p264
S'\xe0\xa4\x86\xe0\xa4\xaf\xe0\xa5\x8b\xe0\xa4\x97'
p265
sS'af'
p266
S'\xe0\xa4\x86\xe0\xa4\xaf\xe0\xa5\x8b\xe0\xa4\x97,n,m,sg,3,o,0_\xe0\xa4\xae\xe0\xa5\x87\xe0\xa4\x82,0'
p267
sS'chunkid'
p268
S'NP4'
p269
sS'chunktype'
p270
S'head:NP4'
p271
sS'crefchainhead'
p272
S'i4:t3'
p273
sS'vpos'
p274
S'vib_4'
p275
sS'cref'
p276
S'i4%1:t3'
p277
sS'drel'
p278
S'k7:VGNF'
p279
ssbsg26
I00
sg27
I00
sg28
Nsg29
Nsg30
I3
sg31
I0
sg32
Nsg33
Nsg34
S'NNP'
p280
sg36
g257
sg37
I00
sba(issf_api
Word
p281
(dp282
g6
I00
sg7
V\u092e\u0947\u0902
p283
sg9
(issf_api
FeatureSet
p284
(dp285
g12
(dp286
S'posn'
p287
S'130'
p288
sS'name'
p289
S'\xe0\xa4\xae\xe0\xa5\x87\xe0\xa4\x82'
p290
sS'drel'
p291
S'lwg__psp:NP4'
p292
sS'chunktype'
p293
S'child:NP4'
p294
sS'af'
p295
S'\xe0\xa4\xae\xe0\xa5\x87\xe0\xa4\x82,psp,,,,,,'
p296
ssbsg26
I00
sg27
I00
sg28
Nsg29
Nsg30
I3
sg31
I0
sg32
Nsg33
Nsg34
S'PSP'
p297
sg36
g284
sg37
I00
sba(issf_api
Word
p298
(dp299
g6
I00
sg7
V\u092f\u093e\u091a\u093f\u0915\u093e
p300
sg9
(issf_api
FeatureSet
p301
(dp302
g12
(dp303
S'crefhead'
p304
S'\xe0\xa4\xaf\xe0\xa4\xbe\xe0\xa4\x9a\xe0\xa4\xbf\xe0\xa4\x95\xe0\xa4\xbe:i5'
p305
sS'posn'
p306
S'140'
p307
sS'name'
p308
S'\xe0\xa4\xaf\xe0\xa4\xbe\xe0\xa4\x9a\xe0\xa4\xbf\xe0\xa4\x95\xe0\xa4\xbe'
p309
sS'af'
p310
S'\xe0\xa4\xaf\xe0\xa4\xbe\xe0\xa4\x9a\xe0\xa4\xbf\xe0\xa4\x95\xe0\xa4\xbe,n,f,sg,3,d,0,0'
p311
sS'chunkid'
p312
S'NP5'
p313
sS'chunktype'
p314
S'head:NP5'
p315
sS'crefchainhead'
p316
S'i5:t4'
p317
sS'cref'
p318
S'i5%1:t4'
p319
sS'drel'
p320
S'k2:VGNF'
p321
ssbsg26
I00
sg27
I00
sg28
Nsg29
Nsg30
I4
sg31
I0
sg32
Nsg33
Nsg34
S'NN'
p322
sg36
g301
sg37
I00
sba(issf_api
Word
p323
(dp324
g6
I00
sg7
V\u0926\u093e\u092f\u0930
p325
sg9
(issf_api
FeatureSet
p326
(dp327
g12
(dp328
S'posn'
p329
S'150'
p330
sS'name'
p331
S'\xe0\xa4\xa6\xe0\xa4\xbe\xe0\xa4\xaf\xe0\xa4\xb0'
p332
sS'af'
p333
S'\xe0\xa4\xa6\xe0\xa4\xbe\xe0\xa4\xaf\xe0\xa4\xb0,adj,any,any,,,,'
p334
sS'chunkid'
p335
S'JJP'
p336
sS'drel'
p337
S'pof:VGNF'
p338
sS'chunktype'
p339
S'head:JJP'
p340
ssbsg26
I00
sg27
I00
sg28
Nsg29
Nsg30
I5
sg31
I0
sg32
Nsg33
Nsg34
S'JJ'
p341
sg36
g326
sg37
I00
sba(issf_api
Word
p342
(dp343
g6
I00
sg7
V\u0915\u0930
p344
sg9
(issf_api
FeatureSet
p345
(dp346
g12
(dp347
S'posn'
p348
S'160'
p349
sS'name'
p350
S'\xe0\xa4\x95\xe0\xa4\xb0'
p351
sS'af'
p352
S'\xe0\xa4\x95\xe0\xa4\xb0,v,any,any,any,,0,0'
p353
sS'chunkid'
p354
S'VGNF'
p355
sS'drel'
p356
S'vmod:VGF'
p357
sS'chunktype'
p358
S'head:VGNF'
p359
ssbsg26
I00
sg27
I00
sg28
Nsg29
Nsg30
I6
sg31
I0
sg32
Nsg33
Nsg34
S'VM'
p360
sg36
g345
sg37
I00
sba(issf_api
Word
p361
(dp362
g6
I00
sg7
V\u092e\u0941\u0902\u092c\u0908
p363
sg9
(issf_api
FeatureSet
p364
(dp365
g12
(dp366
S'posn'
p367
S'170'
p368
sS'name'
p369
S'\xe0\xa4\xae\xe0\xa5\x81\xe0\xa4\x82\xe0\xa4\xac\xe0\xa4\x88'
p370
sS'af'
p371
S'\xe0\xa4\xae\xe0\xa5\x81\xe0\xa4\x82\xe0\xa4\xac\xe0\xa4\x88,n,f,sg,3,d,0,0'
p372
sS'acrefmod'
p373
S'm2%0:i7'
p374
sS'drel'
p375
S'nmod__adj:NP6'
p376
sS'chunktype'
p377
S'child:NP6'
p378
sS'cref'
p379
S'i6%0:t5'
p380
ssbsg26
I00
sg27
I00
sg28
Nsg29
Nsg30
I7
sg31
I0
sg32
Nsg33
Nsg34
S'NNP'
p381
sg36
g364
sg37
I00
sba(issf_api
Word
p382
(dp383
g6
I00
sg7
V\u092a\u0941\u0932\u093f\u0938
p384
sg9
(issf_api
FeatureSet
p385
(dp386
g12
(dp387
S'crefhead'
p388
S'\xe0\xa4\xaa\xe0\xa5\x81\xe0\xa4\xb2\xe0\xa4\xbf\xe0\xa4\xb8:i6'
p389
sS'posn'
p390
S'180'
p391
sS'name'
p392
S'\xe0\xa4\xaa\xe0\xa5\x81\xe0\xa4\xb2\xe0\xa4\xbf\xe0\xa4\xb8'
p393
sS'af'
p394
S'\xe0\xa4\xaa\xe0\xa5\x81\xe0\xa4\xb2\xe0\xa4\xbf\xe0\xa4\xb8,n,f,sg,3,o,0_\xe0\xa4\x95\xe0\xa4\xbe,0'
p395
sS'acrefmodhead'
p396
S'\xe0\xa4\xaa\xe0\xa5\x81\xe0\xa4\xb2\xe0\xa4\xbf\xe0\xa4\xb8:m2'
p397
sS'chunkid'
p398
S'NP6'
p399
sS'acrefmod'
p400
S'm2%1:i7'
p401
sS'chunktype'
p402
S'head:NP6'
p403
sS'crefchainhead'
p404
S'i6:t5'
p405
sS'vpos'
p406
S'vib_vib_3'
p407
sS'cref'
p408
S'i6%1:t5'
p409
sS'drel'
p410
S'r6:NP7'
p411
ssbsg26
I00
sg27
I00
sg28
Nsg29
Nsg30
I7
sg31
I0
sg32
Nsg33
Nsg34
S'NN'
p412
sg36
g385
sg37
I00
sba(issf_api
Word
p413
(dp414
g6
I00
sg7
V\u0915\u0947
p415
sg9
(issf_api
FeatureSet
p416
(dp417
g12
(dp418
S'posn'
p419
S'190'
p420
sS'name'
p421
S'\xe0\xa4\x95\xe0\xa5\x872'
p422
sS'drel'
p423
S'lwg__psp:NP6'
p424
sS'chunktype'
p425
S'child:NP6'
p426
sS'af'
p427
S'\xe0\xa4\x95\xe0\xa4\xbe,psp,m,sg,,o,,'
p428
ssbsg26
I00
sg27
I00
sg28
Nsg29
Nsg30
I7
sg31
I0
sg32
Nsg33
Nsg34
S'PSP'
p429
sg36
g416
sg37
I00
sba(issf_api
Word
p430
(dp431
g6
I00
sg7
V\u0906\u0924\u0902\u0915\u0935\u093e\u0926\u0940
p432
sg9
(issf_api
FeatureSet
p433
(dp434
g12
(dp435
S'posn'
p436
S'200'
p437
sS'name'
p438
S'\xe0\xa4\x86\xe0\xa4\xa4\xe0\xa4\x82\xe0\xa4\x95\xe0\xa4\xb5\xe0\xa4\xbe\xe0\xa4\xa6\xe0\xa5\x80'
p439
sS'af'
p440
S'\xe0\xa4\x86\xe0\xa4\xa4\xe0\xa4\x82\xe0\xa4\x95\xe0\xa4\xb5\xe0\xa4\xbe\xe0\xa4\xa6\xe0\xa5\x80,n,m,sg,3,d,0,0'
p441
sS'drel'
p442
S'pof__cn:NP7'
p443
sS'chunktype'
p444
S'child:NP7'
p445
sS'cref'
p446
S'i7%0:t6'
p447
ssbsg26
I00
sg27
I00
sg28
Nsg29
Nsg30
I8
sg31
I0
sg32
Nsg33
Nsg34
S'NNPC'
p448
sg36
g433
sg37
I00
sba(issf_api
Word
p449
(dp450
g6
I00
sg7
V\u0935\u093f\u0930\u094b\u0927\u0940
p451
sg9
(issf_api
FeatureSet
p452
(dp453
g12
(dp454
S'posn'
p455
S'210'
p456
sS'name'
p457
S'\xe0\xa4\xb5\xe0\xa4\xbf\xe0\xa4\xb0\xe0\xa5\x8b\xe0\xa4\xa7\xe0\xa5\x80'
p458
sS'af'
p459
S'\xe0\xa4\xb5\xe0\xa4\xbf\xe0\xa4\xb0\xe0\xa5\x8b\xe0\xa4\xa7\xe0\xa5\x80,n,m,sg,3,d,0,0'
p460
sS'drel'
p461
S'pof__cn:NP7'
p462
sS'chunktype'
p463
S'child:NP7'
p464
sS'cref'
p465
S'i7%0:t6'
p466
ssbsg26
I00
sg27
I00
sg28
Nsg29
Nsg30
I8
sg31
I0
sg32
Nsg33
Nsg34
S'NNPC'
p467
sg36
g452
sg37
I00
sba(issf_api
Word
p468
(dp469
g6
I00
sg7
V\u0926\u0938\u094d\u0924\u0947
p470
sg9
(issf_api
FeatureSet
p471
(dp472
g12
(dp473
S'crefhead'
p474
S'\xe0\xa4\xa6\xe0\xa4\xb8\xe0\xa5\x8d\xe0\xa4\xa4\xe0\xa5\x87:i7'
p475
sS'posn'
p476
S'220'
p477
sS'name'
p478
S'\xe0\xa4\xa6\xe0\xa4\xb8\xe0\xa5\x8d\xe0\xa4\xa4\xe0\xa5\x87'
p479
sS'af'
p480
S'\xe0\xa4\xa6\xe0\xa4\xb8\xe0\xa5\x8d\xe0\xa4\xa4\xe0\xa4\xbe,n,m,sg,3,o,0,0'
p481
sS'chunkid'
p482
S'NP7'
p483
sS'crefmod'
p484
S'm2:i7'
p485
sS'chunktype'
p486
S'head:NP7'
p487
sS'crefchainhead'
p488
S'i7:t6'
p489
sS'cref'
p490
S'i7%1:t6'
p491
sS'drel'
p492
S'k7:VGF'
p493
ssbsg26
I00
sg27
I00
sg28
Nsg29
Nsg30
I8
sg31
I0
sg32
Nsg33
Nsg34
S'NNP'
p494
sg36
g471
sg37
I00
sba(issf_api
Word
p495
(dp496
g6
I00
sg7
V(
p497
sg9
(issf_api
FeatureSet
p498
(dp499
g12
(dp500
S'posn'
p501
S'230'
p502
sS'name'
p503
S'('
p504
sS'drel'
p505
S'rsym:NP8'
p506
sS'chunktype'
p507
S'child:NP8'
p508
sS'af'
p509
S'(,punc,,,,,,'
p510
ssbsg26
I00
sg27
I00
sg28
Nsg29
Nsg30
I9
sg31
I0
sg32
Nsg33
Nsg34
S'SYM'
p511
sg36
g498
sg37
I00
sba(issf_api
Word
p512
(dp513
g6
I00
sg7
V\u090f\u091f\u0940\u090f\u0938
p514
sg9
(issf_api
FeatureSet
p515
(dp516
g12
(dp517
S'crefhead'
p518
S'\xe0\xa4\x8f\xe0\xa4\x9f\xe0\xa5\x80\xe0\xa4\x8f\xe0\xa4\xb8:i8'
p519
sS'posn'
p520
S'240'
p521
sS'name'
p522
S'\xe0\xa4\x8f\xe0\xa4\x9f\xe0\xa5\x80\xe0\xa4\x8f\xe0\xa4\xb8'
p523
sS'af'
p524
S'\xe0\xa4\x8f\xe0\xa4\x9f\xe0\xa5\x80\xe0\xa4\x8f\xe0\xa4\xb8,n,m,sg,3,o,0,0'
p525
sS'chunkid'
p526
S'NP8'
p527
sS'creftype'
p528
S'Coreference-Bracketed/Abbraviation:i32:i8'
p529
sS'chunktype'
p530
S'head:NP8'
p531
sS'cref'
p532
S'i8%1:t6'
p533
sS'drel'
p534
S'rs:NP7'
p535
ssbsg26
I00
sg27
I00
sg28
Nsg29
Nsg30
I9
sg31
I0
sg32
Nsg33
Nsg34
S'NNP'
p536
sg36
g515
sg37
I00
sba(issf_api
Word
p537
(dp538
g6
I00
sg7
V)
p539
sg9
(issf_api
FeatureSet
p540
(dp541
g12
(dp542
S'posn'
p543
S'250'
p544
sS'name'
p545
S')'
p546
sS'drel'
p547
S'rsym:NP8'
p548
sS'chunktype'
p549
S'child:NP8'
p550
sS'af'
p551
S'),punc,,,,,,'
p552
ssbsg26
I00
sg27
I00
sg28
Nsg29
Nsg30
I9
sg31
I0
sg32
Nsg33
Nsg34
S'SYM'
p553
sg36
g540
sg37
I00
sba(issf_api
Word
p554
(dp555
g6
I00
sg7
V\u092a\u0930
p556
sg9
(issf_api
FeatureSet
p557
(dp558
g12
(dp559
S'name'
p560
S'\xe0\xa4\xaa\xe0\xa4\xb0'
p561
sS'drel'
p562
S'fragof:NP7'
p563
sS'chunktype'
p564
S'head:FRAGP'
p565
sS'chunkid'
p566
S'FRAGP'
p567
ssbsg26
I00
sg27
I00
sg28
Nsg29
Nsg30
I10
sg31
I0
sg32
Nsg33
Nsg34
S'PSP'
p568
sg36
g557
sg37
I00
sba(issf_api
Word
p569
(dp570
g6
I00
sg7
V\u0938\u0932\u0947\u092e
p571
sg9
(issf_api
FeatureSet
p572
(dp573
g12
(dp574
S'crefhead'
p575
S'\xe0\xa4\xb8\xe0\xa4\xb2\xe0\xa5\x87\xe0\xa4\xae:i9'
p576
sS'posn'
p577
S'270'
p578
sS'name'
p579
S'\xe0\xa4\xb8\xe0\xa4\xb2\xe0\xa5\x87\xe0\xa4\xae2'
p580
sS'af'
p581
S'\xe0\xa4\xb8\xe0\xa4\xb2\xe0\xa5\x87\xe0\xa4\xae,n,m,sg,3,o,0_\xe0\xa4\x95\xe0\xa5\x8b,0'
p582
sS'chunkid'
p583
S'NP9'
p584
sS'creftype'
p585
S'Coreference-Identity:i31:i10'
p586
sS'chunktype'
p587
S'head:NP9'
p588
sS'vpos'
p589
S'vib_2'
p590
sS'cref'
p591
S'i9%1:t1'
p592
sS'drel'
p593
S'k2:VGNN'
p594
ssbsg26
I00
sg27
I00
sg28
Nsg29
Nsg30
I11
sg31
I0
sg32
Nsg33
Nsg34
S'NNP'
p595
sg36
g572
sg37
I00
sba(issf_api
Word
p596
(dp597
g6
I00
sg7
V\u0915\u094b
p598
sg9
(issf_api
FeatureSet
p599
(dp600
g12
(dp601
S'posn'
p602
S'280'
p603
sS'name'
p604
S'\xe0\xa4\x95\xe0\xa5\x8b'
p605
sS'drel'
p606
S'lwg__psp:NP9'
p607
sS'chunktype'
p608
S'child:NP9'
p609
sS'af'
p610
S'\xe0\xa4\x95\xe0\xa5\x8b,psp,,,,,,'
p611
ssbsg26
I00
sg27
I00
sg28
Nsg29
Nsg30
I11
sg31
I0
sg32
Nsg33
Nsg34
S'PSP'
p612
sg36
g599
sg37
I00
sba(issf_api
Word
p613
(dp614
g6
I00
sg7
V\u092a\u094d\u0930\u0924\u093e\u0921\u093c\u093f\u0924
p615
sg9
(issf_api
FeatureSet
p616
(dp617
g12
(dp618
S'posn'
p619
S'290'
p620
sS'name'
p621
S'\xe0\xa4\xaa\xe0\xa5\x8d\xe0\xa4\xb0\xe0\xa4\xa4\xe0\xa4\xbe\xe0\xa4\xa1\xe0\xa4\xbc\xe0\xa4\xbf\xe0\xa4\xa4'
p622
sS'af'
p623
S'\xe0\xa4\xaa\xe0\xa5\x8d\xe0\xa4\xb0\xe0\xa4\xa4\xe0\xa4\xbe\xe0\xa4\xa1\xe0\xa4\xbf\xe0\xa4\xa4,adj,any,any,,,,'
p624
sS'chunkid'
p625
S'JJP2'
p626
sS'drel'
p627
S'pof:VGNN'
p628
sS'chunktype'
p629
S'head:JJP2'
p630
ssbsg26
I00
sg27
I00
sg28
Nsg29
Nsg30
I12
sg31
I0
sg32
Nsg33
Nsg34
S'JJ'
p631
sg36
g616
sg37
I00
sba(issf_api
Word
p632
(dp633
g6
I00
sg7
V\u0915\u0930\u0928\u0947
p634
sg9
(issf_api
FeatureSet
p635
(dp636
g12
(dp637
S'posn'
p638
S'300'
p639
sS'name'
p640
S'\xe0\xa4\x95\xe0\xa4\xb0\xe0\xa4\xa8\xe0\xa5\x87'
p641
sS'af'
p642
S'\xe0\xa4\x95\xe0\xa4\xb0,v,any,sg,any,o,\xe0\xa4\xa8\xe0\xa4\xbe_\xe0\xa4\x95\xe0\xa4\xbe,nA'
p643
sS'chunkid'
p644
S'VGNN'
p645
sS'drel'
p646
S'r6-k2:NP10'
p647
sS'vpos'
p648
S'tam_2'
p649
sS'chunktype'
p650
S'head:VGNN'
p651
ssbsg26
I00
sg27
I00
sg28
Nsg29
Nsg30
I13
sg31
I0
sg32
Nsg33
Nsg34
S'VM'
p652
sg36
g635
sg37
I00
sba(issf_api
Word
p653
(dp654
g6
I00
sg7
V\u0915\u093e
p655
sg9
(issf_api
FeatureSet
p656
(dp657
g12
(dp658
S'posn'
p659
S'310'
p660
sS'name'
p661
S'\xe0\xa4\x95\xe0\xa4\xbe'
p662
sS'drel'
p663
S'lwg__psp:VGNN'
p664
sS'chunktype'
p665
S'child:VGNN'
p666
sS'af'
p667
S'\xe0\xa4\x95\xe0\xa4\xbe,psp,m,sg,,d,,'
p668
ssbsg26
I00
sg27
I00
sg28
Nsg29
Nsg30
I13
sg31
I0
sg32
Nsg33
Nsg34
S'PSP'
p669
sg36
g656
sg37
I00
sba(issf_api
Word
p670
(dp671
g6
I00
sg7
V\u0906\u0930\u094b\u092a
p672
sg9
(issf_api
FeatureSet
p673
(dp674
g12
(dp675
S'posn'
p676
S'320'
p677
sS'name'
p678
S'\xe0\xa4\x86\xe0\xa4\xb0\xe0\xa5\x8b\xe0\xa4\xaa'
p679
sS'af'
p680
S'\xe0\xa4\x86\xe0\xa4\xb0\xe0\xa5\x8b\xe0\xa4\xaa,n,m,sg,3,d,0,0'
p681
sS'chunkid'
p682
S'NP10'
p683
sS'drel'
p684
S'pof:VGF'
p685
sS'chunktype'
p686
S'head:NP10'
p687
ssbsg26
I00
sg27
I00
sg28
Nsg29
Nsg30
I14
sg31
I0
sg32
Nsg33
Nsg34
S'NN'
p688
sg36
g673
sg37
I00
sba(issf_api
Word
p689
(dp690
g6
I00
sg7
V\u0932\u0917\u093e\u092f\u093e
p691
sg9
(issf_api
FeatureSet
p692
(dp693
g12
(dp694
S'posn'
p695
S'330'
p696
sS'name'
p697
S'\xe0\xa4\xb2\xe0\xa4\x97\xe0\xa4\xbe\xe0\xa4\xaf\xe0\xa4\xbe'
p698
sS'af'
p699
S'\xe0\xa4\xb2\xe0\xa4\x97\xe0\xa4\xbe,v,m,sg,3,,\xe0\xa4\xaf\xe0\xa4\xbe_\xe0\xa4\xb9\xe0\xa5\x88,yA'
p700
sS'chunkid'
p701
S'VGF'
p702
sS'chunktype'
p703
S'head:VGF'
p704
sS'voicetype'
p705
S'active'
p706
sS'vpos'
p707
S'tam_2'
p708
sS'stype'
p709
S'declarative'
p710
ssbsg26
I00
sg27
I00
sg28
Nsg29
Nsg30
I15
sg31
I0
sg32
Nsg33
Nsg34
S'VM'
p711
sg36
g692
sg37
I00
sba(issf_api
Word
p712
(dp713
g6
I00
sg7
V\u0939\u0948
p714
sg9
(issf_api
FeatureSet
p715
(dp716
g12
(dp717
S'posn'
p718
S'340'
p719
sS'name'
p720
S'\xe0\xa4\xb9\xe0\xa5\x88'
p721
sS'drel'
p722
S'lwg__vaux:VGF'
p723
sS'chunktype'
p724
S'child:VGF'
p725
sS'af'
p726
S'\xe0\xa4\xb9\xe0\xa5\x88,v,any,sg,3,,\xe0\xa4\xb9\xe0\xa5\x88,hE'
p727
ssbsg26
I00
sg27
I00
sg28
Nsg29
Nsg30
I15
sg31
I0
sg32
Nsg33
Nsg34
S'VAUX'
p728
sg36
g715
sg37
I00
sba(issf_api
Word
p729
(dp730
g6
I00
sg7
V\u0964
p731
sg9
(issf_api
FeatureSet
p732
(dp733
g12
(dp734
S'posn'
p735
S'350'
p736
sS'name'
p737
S'\xe0\xa5\xa4'
p738
sS'af'
p739
S'\xe0\xa5\xa4,punc,,,,,,'
p740
sS'chunkid'
p741
S'BLK'
p742
sS'drel'
p743
S'rsym:VGF'
p744
sS'chunktype'
p745
S'head:BLK'
p746
ssbsg26
I00
sg27
I00
sg28
Nsg29
Nsg30
I16
sg31
I0
sg32
Nsg33
Nsg34
S'SYM'
p747
sg36
g732
sg37
I00
sba(issf_api
Word
p748
(dp749
g6
I00
sg7
V\u0907\u0938\u0915\u0947
p750
sg9
(issf_api
FeatureSet
p751
(dp752
g12
(dp753
S'crefhead'
p754
S'\xe0\xa4\x87\xe0\xa4\xb8\xe0\xa4\x95\xe0\xa5\x87:i11'
p755
sS'posn'
p756
S'10'
p757
sS'name'
p758
S'\xe0\xa4\x87\xe0\xa4\xb8\xe0\xa4\x95\xe0\xa5\x87'
p759
sS'af'
p760
S'\xe0\xa4\xaf\xe0\xa4\xb9,pn,m,sg,3,o,0_\xe0\xa4\xb8\xe0\xa4\xbe\xe0\xa4\xa5,ke'
p761
sS'chunkid'
p762
S'NP'
p763
sS'creftype'
p764
S'anaphora-?:i11'
p765
sS'chunktype'
p766
S'head:NP'
p767
sS'crefchainhead'
p768
S'i11:t7'
p769
sS'vpos'
p770
S'vib_2_RP'
p771
sS'cref'
p772
S'i11%1:t7'
p773
sS'drel'
p774
S'sent-adv:VGF'
p775
ssbsg26
I00
sg27
I00
sg28
Nsg29
Nsg30
I0
sg31
I1
sg32
Nsg33
Nsg34
S'PRP'
p776
sg36
g751
sg37
I00
sba(issf_api
Word
p777
(dp778
g6
I00
sg7
V\u0938\u093e\u0925
p779
sg9
(issf_api
FeatureSet
p780
(dp781
g12
(dp782
S'posn'
p783
S'20'
p784
sS'name'
p785
S'\xe0\xa4\xb8\xe0\xa4\xbe\xe0\xa4\xa5'
p786
sS'drel'
p787
S'lwg__psp:NP'
p788
sS'chunktype'
p789
S'child:NP'
p790
sS'af'
p791
S'\xe0\xa4\xb8\xe0\xa4\xbe\xe0\xa4\xa5,nst,m,sg,3,d,,'
p792
ssbsg26
I00
sg27
I00
sg28
Nsg29
Nsg30
I0
sg31
I1
sg32
Nsg33
Nsg34
S'NST'
p793
sg36
g780
sg37
I00
sba(issf_api
Word
p794
(dp795
g6
I00
sg7
V\u0939\u0940
p796
sg9
(issf_api
FeatureSet
p797
(dp798
g12
(dp799
S'posn'
p800
S'30'
p801
sS'name'
p802
S'\xe0\xa4\xb9\xe0\xa5\x80'
p803
sS'drel'
p804
S'lwg__rp:NP'
p805
sS'chunktype'
p806
S'child:NP'
p807
sS'af'
p808
S'\xe0\xa4\xb9\xe0\xa5\x80,avy,,,,,,'
p809
ssbsg26
I00
sg27
I00
sg28
Nsg29
Nsg30
I0
sg31
I1
sg32
Nsg33
Nsg34
S'RP'
p810
sg36
g797
sg37
I00
sba(issf_api
Word
p811
(dp812
g6
I00
sg7
V\u0932\u0948\u0938
p813
sg9
(issf_api
FeatureSet
p814
(dp815
g12
(dp816
S'crefhead'
p817
S'\xe0\xa4\xb2\xe0\xa5\x88\xe0\xa4\xb8:i12'
p818
sS'posn'
p819
S'40'
p820
sS'name'
p821
S'\xe0\xa4\xb2\xe0\xa5\x88\xe0\xa4\xb8'
p822
sS'af'
p823
S'\xe0\xa4\xb2\xe0\xa5\x88\xe0\xa4\xb8,n,m,sg,3,o,0_\xe0\xa4\xa8\xe0\xa5\x87,0'
p824
sS'chunkid'
p825
S'NP2'
p826
sS'creftype'
p827
S'Coreference-Identity:i3'
p828
sS'chunktype'
p829
S'head:NP2'
p830
sS'vpos'
p831
S'vib_2'
p832
sS'cref'
p833
S'i12%1:t2'
p834
sS'drel'
p835
S'k1:VGF'
p836
ssbsg26
I00
sg27
I00
sg28
Nsg29
Nsg30
I1
sg31
I1
sg32
Nsg33
Nsg34
S'NNP'
p837
sg36
g814
sg37
I00
sba(issf_api
Word
p838
(dp839
g6
I00
sg7
V\u0928\u0947
p840
sg9
(issf_api
FeatureSet
p841
(dp842
g12
(dp843
S'posn'
p844
S'50'
p845
sS'name'
p846
S'\xe0\xa4\xa8\xe0\xa5\x87'
p847
sS'drel'
p848
S'lwg__psp:NP2'
p849
sS'chunktype'
p850
S'child:NP2'
p851
sS'af'
p852
S'\xe0\xa4\xa8\xe0\xa5\x87,psp,,,,,,'
p853
ssbsg26
I00
sg27
I00
sg28
Nsg29
Nsg30
I1
sg31
I1
sg32
Nsg33
Nsg34
S'PSP'
p854
sg36
g841
sg37
I00
sba(issf_api
Word
p855
(dp856
g6
I00
sg7
V\u0915\u094b\u0930\u094d\u091f
p857
sg9
(issf_api
FeatureSet
p858
(dp859
g12
(dp860
S'posn'
p861
S'60'
p862
sS'name'
p863
S'\xe0\xa4\x95\xe0\xa5\x8b\xe0\xa4\xb0\xe0\xa5\x8d\xe0\xa4\x9f'
p864
sS'af'
p865
S'\xe0\xa4\x95\xe0\xa5\x8b\xe0\xa4\xb0\xe0\xa5\x8d\xe0\xa4\x9f,n,f,sg,3,o,0_\xe0\xa4\x95\xe0\xa5\x87_\xe0\xa4\xb8\xe0\xa4\xae\xe0\xa4\x95\xe0\xa5\x8d\xe0\xa4\xb7,0'
p866
sS'chunkid'
p867
S'NP3'
p868
sS'drel'
p869
S'k7a:VGNN'
p870
sS'vpos'
p871
S'vib_2_3'
p872
sS'chunktype'
p873
S'head:NP3'
p874
ssbsg26
I00
sg27
I00
sg28
Nsg29
Nsg30
I2
sg31
I1
sg32
Nsg33
Nsg34
S'NN'
p875
sg36
g858
sg37
I00
sba(issf_api
Word
p876
(dp877
g6
I00
sg7
V\u0915\u0947
p878
sg9
(issf_api
FeatureSet
p879
(dp880
g12
(dp881
S'posn'
p882
S'70'
p883
sS'name'
p884
S'\xe0\xa4\x95\xe0\xa5\x87'
p885
sS'drel'
p886
S'lwg__psp:NP3'
p887
sS'chunktype'
p888
S'child:NP3'
p889
sS'af'
p890
S'\xe0\xa4\x95\xe0\xa5\x87,psp,,,,,,'
p891
ssbsg26
I00
sg27
I00
sg28
Nsg29
Nsg30
I2
sg31
I1
sg32
Nsg33
Nsg34
S'PSP'
p892
sg36
g879
sg37
I00
sba(issf_api
Word
p893
(dp894
g6
I00
sg7
V\u0938\u092e\u0915\u094d\u0937
p895
sg9
(issf_api
FeatureSet
p896
(dp897
g12
(dp898
S'posn'
p899
S'80'
p900
sS'name'
p901
S'\xe0\xa4\xb8\xe0\xa4\xae\xe0\xa4\x95\xe0\xa5\x8d\xe0\xa4\xb7'
p902
sS'drel'
p903
S'lwg__psp:NP3'
p904
sS'chunktype'
p905
S'child:NP3'
p906
sS'af'
p907
S'\xe0\xa4\xb8\xe0\xa4\xae\xe0\xa4\x95\xe0\xa5\x8d\xe0\xa4\xb7,nst,m,sg,3,d,,'
p908
ssbsg26
I00
sg27
I00
sg28
Nsg29
Nsg30
I2
sg31
I1
sg32
Nsg33
Nsg34
S'NST'
p909
sg36
g896
sg37
I00
sba(issf_api
Word
p910
(dp911
g6
I00
sg7
V\u0917\u0935\u093e\u0939\u0940
p912
sg9
(issf_api
FeatureSet
p913
(dp914
g12
(dp915
S'posn'
p916
S'90'
p917
sS'name'
p918
S'\xe0\xa4\x97\xe0\xa4\xb5\xe0\xa4\xbe\xe0\xa4\xb9\xe0\xa5\x80'
p919
sS'af'
p920
S'\xe0\xa4\x97\xe0\xa4\xb5\xe0\xa4\xbe\xe0\xa4\xb9\xe0\xa5\x80,n,f,sg,3,d,0,0'
p921
sS'chunkid'
p922
S'NP4'
p923
sS'drel'
p924
S'pof:VGNN'
p925
sS'chunktype'
p926
S'head:NP4'
p927
ssbsg26
I00
sg27
I00
sg28
Nsg29
Nsg30
I3
sg31
I1
sg32
Nsg33
Nsg34
S'NN'
p928
sg36
g913
sg37
I00
sba(issf_api
Word
p929
(dp930
g6
I00
sg7
V\u0939\u094b\u0928\u0947
p931
sg9
(issf_api
FeatureSet
p932
(dp933
g12
(dp934
S'posn'
p935
S'100'
p936
sS'name'
p937
S'\xe0\xa4\xb9\xe0\xa5\x8b\xe0\xa4\xa8\xe0\xa5\x87'
p938
sS'af'
p939
S'\xe0\xa4\xb9\xe0\xa5\x8b,v,any,any,any,o,\xe0\xa4\xa8\xe0\xa4\xbe_\xe0\xa4\xa4\xe0\xa4\x95,nA'
p940
sS'chunkid'
p941
S'VGNN'
p942
sS'drel'
p943
S'k7t:VGF'
p944
sS'vpos'
p945
S'tam_2'
p946
sS'chunktype'
p947
S'head:VGNN'
p948
ssbsg26
I00
sg27
I00
sg28
Nsg29
Nsg30
I4
sg31
I1
sg32
Nsg33
Nsg34
S'VM'
p949
sg36
g932
sg37
I00
sba(issf_api
Word
p950
(dp951
g6
I00
sg7
V\u0924\u0915
p952
sg9
(issf_api
FeatureSet
p953
(dp954
g12
(dp955
S'posn'
p956
S'110'
p957
sS'name'
p958
S'\xe0\xa4\xa4\xe0\xa4\x95'
p959
sS'drel'
p960
S'lwg__psp:VGNN'
p961
sS'chunktype'
p962
S'child:VGNN'
p963
sS'af'
p964
S'\xe0\xa4\xa4\xe0\xa4\x95,psp,,,,,,'
p965
ssbsg26
I00
sg27
I00
sg28
Nsg29
Nsg30
I4
sg31
I1
sg32
Nsg33
Nsg34
S'PSP'
p966
sg36
g953
sg37
I00
sba(issf_api
Word
p967
(dp968
g6
I00
sg7
V\u0938\u0932\u0947\u092e
p969
sg9
(issf_api
FeatureSet
p970
(dp971
g12
(dp972
S'crefhead'
p973
S'\xe0\xa4\xb8\xe0\xa4\xb2\xe0\xa5\x87\xe0\xa4\xae:i13'
p974
sS'posn'
p975
S'120'
p976
sS'name'
p977
S'\xe0\xa4\xb8\xe0\xa4\xb2\xe0\xa5\x87\xe0\xa4\xae'
p978
sS'af'
p979
S'\xe0\xa4\xb8\xe0\xa4\xb2\xe0\xa5\x87\xe0\xa4\xae,n,m,sg,3,o,0_\xe0\xa4\x95\xe0\xa5\x8b,0'
p980
sS'chunkid'
p981
S'NP5'
p982
sS'creftype'
p983
S'Coreference-Identity:i9'
p984
sS'chunktype'
p985
S'head:NP5'
p986
sS'vpos'
p987
S'vib_2'
p988
sS'cref'
p989
S'i13%1:t1'
p990
sS'drel'
p991
S'k2:VGNN2'
p992
ssbsg26
I00
sg27
I00
sg28
Nsg29
Nsg30
I5
sg31
I1
sg32
Nsg33
Nsg34
S'NNP'
p993
sg36
g970
sg37
I00
sba(issf_api
Word
p994
(dp995
g6
I00
sg7
V\u0915\u094b
p996
sg9
(issf_api
FeatureSet
p997
(dp998
g12
(dp999
S'posn'
p1000
S'130'
p1001
sS'name'
p1002
S'\xe0\xa4\x95\xe0\xa5\x8b'
p1003
sS'drel'
p1004
S'lwg__psp:NP5'
p1005
sS'chunktype'
p1006
S'child:NP5'
p1007
sS'af'
p1008
S'\xe0\xa4\x95\xe0\xa5\x8b,psp,,,,,,'
p1009
ssbsg26
I00
sg27
I00
sg28
Nsg29
Nsg30
I5
sg31
I1
sg32
Nsg33
Nsg34
S'PSP'
p1010
sg36
g997
sg37
I00
sba(issf_api
Word
p1011
(dp1012
g6
I00
sg7
V\u0915\u093f\u0938\u0940
p1013
sg9
(issf_api
FeatureSet
p1014
(dp1015
g12
(dp1016
S'crefhead'
p1017
S'\xe0\xa4\x95\xe0\xa4\xbf\xe0\xa4\xb8\xe0\xa5\x80:i14'
p1018
sS'posn'
p1019
S'140'
p1020
sS'name'
p1021
S'\xe0\xa4\x95\xe0\xa4\xbf\xe0\xa4\xb8\xe0\xa5\x80'
p1022
sS'af'
p1023
S'\xe0\xa4\x95\xe0\xa5\x8b\xe0\xa4\x88,pn,any,sg,3,o,0,0'
p1024
sS'creftype'
p1025
S'anaphora-?:i14'
p1026
sS'chunktype'
p1027
S'child:NP6'
p1028
sS'crefchainhead'
p1029
S'i14:t8'
p1030
sS'cref'
p1031
S'i14%1:t8'
p1032
sS'drel'
p1033
S'nmod__adj:NP6'
p1034
ssbsg26
I00
sg27
I00
sg28
Nsg29
Nsg30
I6
sg31
I1
sg32
Nsg33
Nsg34
S'PRP'
p1035
sg36
g1014
sg37
I00
sba(issf_api
Word
p1036
(dp1037
g6
I00
sg7
V\u0914\u0930
p1038
sg9
(issf_api
FeatureSet
p1039
(dp1040
g12
(dp1041
S'posn'
p1042
S'150'
p1043
sS'name'
p1044
S'\xe0\xa4\x94\xe0\xa4\xb0'
p1045
sS'drel'
p1046
S'nmod__adj:NP6'
p1047
sS'chunktype'
p1048
S'child:NP6'
p1049
sS'af'
p1050
S'\xe0\xa4\x94\xe0\xa4\xb0,adj,any,any,,o,,'
p1051
ssbsg26
I00
sg27
I00
sg28
Nsg29
Nsg30
I6
sg31
I1
sg32
Nsg33
Nsg34
S'JJ'
p1052
sg36
g1039
sg37
I00
sba(issf_api
Word
p1053
(dp1054
g6
I00
sg7
V\u091c\u093e\u0902\u091a
p1055
sg9
(issf_api
FeatureSet
p1056
(dp1057
g12
(dp1058
S'posn'
p1059
S'160'
p1060
sS'name'
p1061
S'\xe0\xa4\x9c\xe0\xa4\xbe\xe0\xa4\x82\xe0\xa4\x9a'
p1062
sS'drel'
p1063
S'pof__cn:NP6'
p1064
sS'chunktype'
p1065
S'child:NP6'
p1066
sS'af'
p1067
S'\xe0\xa4\x9c\xe0\xa4\xbe\xe0\xa4\x82\xe0\xa4\x9a,n,f,sg,3,d,0,0'
p1068
ssbsg26
I00
sg27
I00
sg28
Nsg29
Nsg30
I6
sg31
I1
sg32
Nsg33
Nsg34
S'NNC'
p1069
sg36
g1056
sg37
I00
sba(issf_api
Word
p1070
(dp1071
g6
I00
sg7
V\u090f\u091c\u0947\u0902\u0938\u0940
p1072
sg9
(issf_api
FeatureSet
p1073
(dp1074
g12
(dp1075
S'posn'
p1076
S'170'
p1077
sS'name'
p1078
S'\xe0\xa4\x8f\xe0\xa4\x9c\xe0\xa5\x87\xe0\xa4\x82\xe0\xa4\xb8\xe0\xa5\x80'
p1079
sS'af'
p1080
S'\xe0\xa4\x8f\xe0\xa4\x9c\xe0\xa5\x87\xe0\xa4\x82\xe0\xa4\xb8\xe0\xa5\x80,n,f,sg,3,o,0_\xe0\xa4\x95\xe0\xa5\x87_\xe0\xa4\xa4\xe0\xa4\xb9\xe0\xa4\xa4,0'
p1081
sS'chunkid'
p1082
S'NP6'
p1083
sS'drel'
p1084
S'k7a:VGNN2'
p1085
sS'vpos'
p1086
S'vib_vib_5_6'
p1087
sS'chunktype'
p1088
S'head:NP6'
p1089
ssbsg26
I00
sg27
I00
sg28
Nsg29
Nsg30
I6
sg31
I1
sg32
Nsg33
Nsg34
S'NN'
p1090
sg36
g1073
sg37
I00
sba(issf_api
Word
p1091
(dp1092
g6
I00
sg7
V\u0915\u0947
p1093
sg9
(issf_api
FeatureSet
p1094
(dp1095
g12
(dp1096
S'posn'
p1097
S'180'
p1098
sS'name'
p1099
S'\xe0\xa4\x95\xe0\xa5\x872'
p1100
sS'drel'
p1101
S'lwg__psp:NP6'
p1102
sS'chunktype'
p1103
S'child:NP6'
p1104
sS'af'
p1105
S'\xe0\xa4\x95\xe0\xa5\x87,psp,,,,,,'
p1106
ssbsg26
I00
sg27
I00
sg28
Nsg29
Nsg30
I6
sg31
I1
sg32
Nsg33
Nsg34
S'PSP'
p1107
sg36
g1094
sg37
I00
sba(issf_api
Word
p1108
(dp1109
g6
I00
sg7
V\u0924\u0939\u0924
p1110
sg9
(issf_api
FeatureSet
p1111
(dp1112
g12
(dp1113
S'posn'
p1114
S'190'
p1115
sS'name'
p1116
S'\xe0\xa4\xa4\xe0\xa4\xb9\xe0\xa4\xa4'
p1117
sS'drel'
p1118
S'lwg__psp:NP6'
p1119
sS'chunktype'
p1120
S'child:NP6'
p1121
sS'af'
p1122
S'\xe0\xa4\xa4\xe0\xa4\xb9\xe0\xa4\xa4,psp,,,,,,'
p1123
ssbsg26
I00
sg27
I00
sg28
Nsg29
Nsg30
I6
sg31
I1
sg32
Nsg33
Nsg34
S'PSP'
p1124
sg36
g1111
sg37
I00
sba(issf_api
Word
p1125
(dp1126
g6
I00
sg7
V\u0938\u0941\u0930\u0915\u094d\u0937\u093f\u0924
p1127
sg9
(issf_api
FeatureSet
p1128
(dp1129
g12
(dp1130
S'posn'
p1131
S'200'
p1132
sS'name'
p1133
S'\xe0\xa4\xb8\xe0\xa5\x81\xe0\xa4\xb0\xe0\xa4\x95\xe0\xa5\x8d\xe0\xa4\xb7\xe0\xa4\xbf\xe0\xa4\xa4'
p1134
sS'drel'
p1135
S'nmod__adj:NP7'
p1136
sS'chunktype'
p1137
S'child:NP7'
p1138
sS'af'
p1139
S'\xe0\xa4\xb8\xe0\xa5\x81\xe0\xa4\xb0\xe0\xa4\x95\xe0\xa5\x8d\xe0\xa4\xb7\xe0\xa4\xbf\xe0\xa4\xa4,adj,any,any,,o,,'
p1140
ssbsg26
I00
sg27
I00
sg28
Nsg29
Nsg30
I7
sg31
I1
sg32
Nsg33
Nsg34
S'JJ'
p1141
sg36
g1128
sg37
I00
sba(issf_api
Word
p1142
(dp1143
g6
I00
sg7
V\u0939\u093f\u0930\u093e\u0938\u0924
p1144
sg9
(issf_api
FeatureSet
p1145
(dp1146
g12
(dp1147
S'posn'
p1148
S'210'
p1149
sS'name'
p1150
S'\xe0\xa4\xb9\xe0\xa4\xbf\xe0\xa4\xb0\xe0\xa4\xbe\xe0\xa4\xb8\xe0\xa4\xa4'
p1151
sS'af'
p1152
S'\xe0\xa4\xb9\xe0\xa4\xbf\xe0\xa4\xb0\xe0\xa4\xbe\xe0\xa4\xb8\xe0\xa4\xa4,n,f,sg,3,o,0_\xe0\xa4\xae\xe0\xa5\x87\xe0\xa4\x82,0'
p1153
sS'chunkid'
p1154
S'NP7'
p1155
sS'drel'
p1156
S'k7:VGNN2'
p1157
sS'vpos'
p1158
S'vib_3'
p1159
sS'chunktype'
p1160
S'head:NP7'
p1161
ssbsg26
I00
sg27
I00
sg28
Nsg29
Nsg30
I7
sg31
I1
sg32
Nsg33
Nsg34
S'NN'
p1162
sg36
g1145
sg37
I00
sba(issf_api
Word
p1163
(dp1164
g6
I00
sg7
V\u092e\u0947\u0902
p1165
sg9
(issf_api
FeatureSet
p1166
(dp1167
g12
(dp1168
S'posn'
p1169
S'220'
p1170
sS'name'
p1171
S'\xe0\xa4\xae\xe0\xa5\x87\xe0\xa4\x82'
p1172
sS'drel'
p1173
S'lwg__psp:NP7'
p1174
sS'chunktype'
p1175
S'child:NP7'
p1176
sS'af'
p1177
S'\xe0\xa4\xae\xe0\xa5\x87\xe0\xa4\x82,psp,,,,,,'
p1178
ssbsg26
I00
sg27
I00
sg28
Nsg29
Nsg30
I7
sg31
I1
sg32
Nsg33
Nsg34
S'PSP'
p1179
sg36
g1166
sg37
I00
sba(issf_api
Word
p1180
(dp1181
g6
I00
sg7
V\u0930\u0916\u0928\u0947
p1182
sg9
(issf_api
FeatureSet
p1183
(dp1184
g12
(dp1185
S'posn'
p1186
S'230'
p1187
sS'name'
p1188
S'\xe0\xa4\xb0\xe0\xa4\x96\xe0\xa4\xa8\xe0\xa5\x87'
p1189
sS'af'
p1190
S'\xe0\xa4\xb0\xe0\xa4\x96,v,any,sg,any,o,\xe0\xa4\xa8\xe0\xa4\xbe_\xe0\xa4\x95\xe0\xa4\xbe,nA'
p1191
sS'chunkid'
p1192
S'VGNN2'
p1193
sS'drel'
p1194
S'r6-k2:NP8'
p1195
sS'vpos'
p1196
S'tam_2'
p1197
sS'chunktype'
p1198
S'head:VGNN2'
p1199
ssbsg26
I00
sg27
I00
sg28
Nsg29
Nsg30
I8
sg31
I1
sg32
Nsg33
Nsg34
S'VM'
p1200
sg36
g1183
sg37
I00
sba(issf_api
Word
p1201
(dp1202
g6
I00
sg7
V\u0915\u0940
p1203
sg9
(issf_api
FeatureSet
p1204
(dp1205
g12
(dp1206
S'posn'
p1207
S'240'
p1208
sS'name'
p1209
S'\xe0\xa4\x95\xe0\xa5\x80'
p1210
sS'drel'
p1211
S'lwg__psp:VGNN2'
p1212
sS'chunktype'
p1213
S'child:VGNN2'
p1214
sS'af'
p1215
S'\xe0\xa4\x95\xe0\xa4\xbe,psp,f,sg,,d,,'
p1216
ssbsg26
I00
sg27
I00
sg28
Nsg29
Nsg30
I8
sg31
I1
sg32
Nsg33
Nsg34
S'PSP'
p1217
sg36
g1204
sg37
I00
sba(issf_api
Word
p1218
(dp1219
g6
I00
sg7
V\u092e\u093e\u0902\u0917
p1220
sg9
(issf_api
FeatureSet
p1221
(dp1222
g12
(dp1223
S'posn'
p1224
S'250'
p1225
sS'name'
p1226
S'\xe0\xa4\xae\xe0\xa4\xbe\xe0\xa4\x82\xe0\xa4\x97'
p1227
sS'af'
p1228
S'\xe0\xa4\xae\xe0\xa4\xbe\xe0\xa4\x82\xe0\xa4\x97,n,f,sg,3,d,0,0'
p1229
sS'chunkid'
p1230
S'NP8'
p1231
sS'drel'
p1232
S'pof:VGF'
p1233
sS'chunktype'
p1234
S'head:NP8'
p1235
ssbsg26
I00
sg27
I00
sg28
Nsg29
Nsg30
I9
sg31
I1
sg32
Nsg33
Nsg34
S'NN'
p1236
sg36
g1221
sg37
I00
sba(issf_api
Word
p1237
(dp1238
g6
I00
sg7
V\u0915\u0940
p1239
sg9
(issf_api
FeatureSet
p1240
(dp1241
g12
(dp1242
S'posn'
p1243
S'260'
p1244
sS'name'
p1245
S'\xe0\xa4\x95\xe0\xa5\x802'
p1246
sS'af'
p1247
S'\xe0\xa4\x95\xe0\xa4\xb0,v,f,sg,3,,\xe0\xa4\xaf\xe0\xa4\xbe_\xe0\xa4\xb9\xe0\xa5\x88,yA'
p1248
sS'chunkid'
p1249
S'VGF'
p1250
sS'chunktype'
p1251
S'head:VGF'
p1252
sS'voicetype'
p1253
S'active'
p1254
sS'vpos'
p1255
S'tam_2'
p1256
sS'stype'
p1257
S'declarative'
p1258
ssbsg26
I00
sg27
I00
sg28
Nsg29
Nsg30
I10
sg31
I1
sg32
Nsg33
Nsg34
S'VM'
p1259
sg36
g1240
sg37
I00
sba(issf_api
Word
p1260
(dp1261
g6
I00
sg7
V\u0939\u0948
p1262
sg9
(issf_api
FeatureSet
p1263
(dp1264
g12
(dp1265
S'posn'
p1266
S'270'
p1267
sS'name'
p1268
S'\xe0\xa4\xb9\xe0\xa5\x88'
p1269
sS'drel'
p1270
S'lwg__vaux:VGF'
p1271
sS'chunktype'
p1272
S'child:VGF'
p1273
sS'af'
p1274
S'\xe0\xa4\xb9\xe0\xa5\x88,v,any,sg,3,,\xe0\xa4\xb9\xe0\xa5\x88,hE'
p1275
ssbsg26
I00
sg27
I00
sg28
Nsg29
Nsg30
I10
sg31
I1
sg32
Nsg33
Nsg34
S'VAUX'
p1276
sg36
g1263
sg37
I00
sba(issf_api
Word
p1277
(dp1278
g6
I00
sg7
V\u0964
p1279
sg9
(issf_api
FeatureSet
p1280
(dp1281
g12
(dp1282
S'posn'
p1283
S'280'
p1284
sS'name'
p1285
S'\xe0\xa5\xa4'
p1286
sS'af'
p1287
S'\xe0\xa5\xa4,punc,,,,,,'
p1288
sS'chunkid'
p1289
S'BLK'
p1290
sS'drel'
p1291
S'rsym:VGF'
p1292
sS'chunktype'
p1293
S'head:BLK'
p1294
ssbsg26
I00
sg27
I00
sg28
Nsg29
Nsg30
I11
sg31
I1
sg32
Nsg33
Nsg34
S'SYM'
p1295
sg36
g1280
sg37
I00
sba(issf_api
Word
p1296
(dp1297
g6
I00
sg7
V\u0938\u0932\u0947\u092e
p1298
sg9
(issf_api
FeatureSet
p1299
(dp1300
g12
(dp1301
S'crefhead'
p1302
S'\xe0\xa4\xb8\xe0\xa4\xb2\xe0\xa5\x87\xe0\xa4\xae:i15'
p1303
sS'posn'
p1304
S'10'
p1305
sS'name'
p1306
S'\xe0\xa4\xb8\xe0\xa4\xb2\xe0\xa5\x87\xe0\xa4\xae'
p1307
sS'af'
p1308
S'\xe0\xa4\xb8\xe0\xa4\xb2\xe0\xa5\x87\xe0\xa4\xae,n,m,sg,3,o,0_\xe0\xa4\x95\xe0\xa4\xbe,0'
p1309
sS'acrefmodhead'
p1310
S'\xe0\xa4\xb8\xe0\xa4\xb2\xe0\xa5\x87\xe0\xa4\xae:m3'
p1311
sS'chunkid'
p1312
S'NP'
p1313
sS'acrefmod'
p1314
S'm3%1:i16'
p1315
sS'creftype'
p1316
S'Coreference-Identity:i13'
p1317
sS'chunktype'
p1318
S'head:NP'
p1319
sS'vpos'
p1320
S'vib_2'
p1321
sS'cref'
p1322
S'i15%1:t1'
p1323
sS'drel'
p1324
S'r6:NP2'
p1325
ssbsg26
I00
sg27
I00
sg28
Nsg29
Nsg30
I0
sg31
I2
sg32
Nsg33
Nsg34
S'NNP'
p1326
sg36
g1299
sg37
I00
sba(issf_api
Word
p1327
(dp1328
g6
I00
sg7
V\u0915\u0947
p1329
sg9
(issf_api
FeatureSet
p1330
(dp1331
g12
(dp1332
S'posn'
p1333
S'20'
p1334
sS'name'
p1335
S'\xe0\xa4\x95\xe0\xa5\x87'
p1336
sS'drel'
p1337
S'lwg__psp:NP'
p1338
sS'chunktype'
p1339
S'child:NP'
p1340
sS'af'
p1341
S'\xe0\xa4\x95\xe0\xa4\xbe,psp,m,sg,,o,,'
p1342
ssbsg26
I00
sg27
I00
sg28
Nsg29
Nsg30
I0
sg31
I2
sg32
Nsg33
Nsg34
S'PSP'
p1343
sg36
g1330
sg37
I00
sba(issf_api
Word
p1344
(dp1345
g6
I00
sg7
V\u092d\u093e\u0908
p1346
sg9
(issf_api
FeatureSet
p1347
(dp1348
g12
(dp1349
S'crefhead'
p1350
S'\xe0\xa4\xad\xe0\xa4\xbe\xe0\xa4\x88:i16'
p1351
sS'posn'
p1352
S'30'
p1353
sS'name'
p1354
S'\xe0\xa4\xad\xe0\xa4\xbe\xe0\xa4\x88'
p1355
sS'af'
p1356
S'\xe0\xa4\xad\xe0\xa4\xbe\xe0\xa4\x88,n,m,sg,3,o,0,0'
p1357
sS'chunkid'
p1358
S'NP2'
p1359
sS'crefmod'
p1360
S'm3:i16'
p1361
sS'creftype'
p1362
S'Coreference-Identity:i12'
p1363
sS'chunktype'
p1364
S'head:NP2'
p1365
sS'cref'
p1366
S'i16%1:t2'
p1367
sS'drel'
p1368
S'nmod:NP3'
p1369
ssbsg26
I00
sg27
I00
sg28
Nsg29
Nsg30
I1
sg31
I2
sg32
Nsg33
Nsg34
S'NN'
p1370
sg36
g1347
sg37
I00
sba(issf_api
Word
p1371
(dp1372
g6
I00
sg7
V\u0905\u092c\u0942
p1373
sg9
(issf_api
FeatureSet
p1374
(dp1375
g12
(dp1376
S'posn'
p1377
S'40'
p1378
sS'name'
p1379
S'\xe0\xa4\x85\xe0\xa4\xac\xe0\xa5\x82'
p1380
sS'af'
p1381
S'\xe0\xa4\x85\xe0\xa4\xac\xe0\xa5\x82,n,m,sg,3,d,0,0'
p1382
sS'drel'
p1383
S'pof__cn:NP3'
p1384
sS'chunktype'
p1385
S'child:NP3'
p1386
sS'cref'
p1387
S'i17%0:t2'
p1388
ssbsg26
I00
sg27
I00
sg28
Nsg29
Nsg30
I2
sg31
I2
sg32
Nsg33
Nsg34
S'NNPC'
p1389
sg36
g1374
sg37
I00
sba(issf_api
Word
p1390
(dp1391
g6
I00
sg7
V\u0932\u0948\u0938
p1392
sg9
(issf_api
FeatureSet
p1393
(dp1394
g12
(dp1395
S'crefhead'
p1396
S'\xe0\xa4\xb2\xe0\xa5\x88\xe0\xa4\xb8:i17'
p1397
sS'posn'
p1398
S'50'
p1399
sS'name'
p1400
S'\xe0\xa4\xb2\xe0\xa5\x88\xe0\xa4\xb8'
p1401
sS'af'
p1402
S'\xe0\xa4\xb2\xe0\xa5\x88\xe0\xa4\xb8,n,m,sg,3,o,0_\xe0\xa4\xa8\xe0\xa5\x87,0'
p1403
sS'chunkid'
p1404
S'NP3'
p1405
sS'creftype'
p1406
S'Coreference-NounComplement:i16'
p1407
sS'chunktype'
p1408
S'head:NP3'
p1409
sS'vpos'
p1410
S'vib_3'
p1411
sS'cref'
p1412
S'i17%1:t2'
p1413
sS'drel'
p1414
S'k1:VGF'
p1415
ssbsg26
I00
sg27
I00
sg28
Nsg29
Nsg30
I2
sg31
I2
sg32
Nsg33
Nsg34
S'NNP'
p1416
sg36
g1393
sg37
I00
sba(issf_api
Word
p1417
(dp1418
g6
I00
sg7
V\u0928\u0947
p1419
sg9
(issf_api
FeatureSet
p1420
(dp1421
g12
(dp1422
S'posn'
p1423
S'60'
p1424
sS'name'
p1425
S'\xe0\xa4\xa8\xe0\xa5\x87'
p1426
sS'drel'
p1427
S'lwg__psp:NP3'
p1428
sS'chunktype'
p1429
S'child:NP3'
p1430
sS'af'
p1431
S'\xe0\xa4\xa8\xe0\xa5\x87,psp,,,,,,'
p1432
ssbsg26
I00
sg27
I00
sg28
Nsg29
Nsg30
I2
sg31
I2
sg32
Nsg33
Nsg34
S'PSP'
p1433
sg36
g1420
sg37
I00
sba(issf_api
Word
p1434
(dp1435
g6
I00
sg7
V\u0938\u094b\u092e\u0935\u093e\u0930
p1436
sg9
(issf_api
FeatureSet
p1437
(dp1438
g12
(dp1439
S'posn'
p1440
S'70'
p1441
sS'name'
p1442
S'\xe0\xa4\xb8\xe0\xa5\x8b\xe0\xa4\xae\xe0\xa4\xb5\xe0\xa4\xbe\xe0\xa4\xb0'
p1443
sS'af'
p1444
S'\xe0\xa4\xb8\xe0\xa5\x8b\xe0\xa4\xae\xe0\xa4\xb5\xe0\xa4\xbe\xe0\xa4\xb0,n,m,sg,3,o,0_\xe0\xa4\x95\xe0\xa5\x8b,0'
p1445
sS'chunkid'
p1446
S'NP4'
p1447
sS'drel'
p1448
S'k7t:VGF'
p1449
sS'vpos'
p1450
S'vib_2'
p1451
sS'chunktype'
p1452
S'head:NP4'
p1453
ssbsg26
I00
sg27
I00
sg28
Nsg29
Nsg30
I3
sg31
I2
sg32
Nsg33
Nsg34
S'NNP'
p1454
sg36
g1437
sg37
I00
sba(issf_api
Word
p1455
(dp1456
g6
I00
sg7
V\u0915\u094b
p1457
sg9
(issf_api
FeatureSet
p1458
(dp1459
g12
(dp1460
S'posn'
p1461
S'80'
p1462
sS'name'
p1463
S'\xe0\xa4\x95\xe0\xa5\x8b'
p1464
sS'drel'
p1465
S'lwg__psp:NP4'
p1466
sS'chunktype'
p1467
S'child:NP4'
p1468
sS'af'
p1469
S'\xe0\xa4\x95\xe0\xa5\x8b,psp,,,,,,'
p1470
ssbsg26
I00
sg27
I00
sg28
Nsg29
Nsg30
I3
sg31
I2
sg32
Nsg33
Nsg34
S'PSP'
p1471
sg36
g1458
sg37
I00
sba(issf_api
Word
p1472
(dp1473
g6
I00
sg7
V\u092e\u093e\u0928\u0935\u093e\u0927\u093f\u0915\u093e\u0930
p1474
sg9
(issf_api
FeatureSet
p1475
(dp1476
g12
(dp1477
S'posn'
p1478
S'90'
p1479
sS'name'
p1480
S'\xe0\xa4\xae\xe0\xa4\xbe\xe0\xa4\xa8\xe0\xa4\xb5\xe0\xa4\xbe\xe0\xa4\xa7\xe0\xa4\xbf\xe0\xa4\x95\xe0\xa4\xbe\xe0\xa4\xb0'
p1481
sS'af'
p1482
S'\xe0\xa4\xae\xe0\xa4\xbe\xe0\xa4\xa8\xe0\xa4\xb5\xe0\xa4\xbe\xe0\xa4\xa7\xe0\xa4\xbf\xe0\xa4\x95\xe0\xa4\xbe\xe0\xa4\xb0,n,m,sg,3,d,0,0'
p1483
sS'drel'
p1484
S'pof__cn:NP5'
p1485
sS'chunktype'
p1486
S'child:NP5'
p1487
sS'cref'
p1488
S'i18%0:t3'
p1489
ssbsg26
I00
sg27
I00
sg28
Nsg29
Nsg30
I4
sg31
I2
sg32
Nsg33
Nsg34
S'NNPC'
p1490
sg36
g1475
sg37
I00
sba(issf_api
Word
p1491
(dp1492
g6
I00
sg7
V\u0906\u092f\u094b\u0917
p1493
sg9
(issf_api
FeatureSet
p1494
(dp1495
g12
(dp1496
S'crefhead'
p1497
S'\xe0\xa4\x86\xe0\xa4\xaf\xe0\xa5\x8b\xe0\xa4\x97:i18'
p1498
sS'posn'
p1499
S'100'
p1500
sS'name'
p1501
S'\xe0\xa4\x86\xe0\xa4\xaf\xe0\xa5\x8b\xe0\xa4\x97'
p1502
sS'af'
p1503
S'\xe0\xa4\x86\xe0\xa4\xaf\xe0\xa5\x8b\xe0\xa4\x97,n,m,sg,3,o,0_\xe0\xa4\xae\xe0\xa5\x87\xe0\xa4\x82,0'
p1504
sS'chunkid'
p1505
S'NP5'
p1506
sS'creftype'
p1507
S'Coreference-Identity:i4'
p1508
sS'chunktype'
p1509
S'head:NP5'
p1510
sS'vpos'
p1511
S'vib_3'
p1512
sS'cref'
p1513
S'i18%1:t3'
p1514
sS'drel'
p1515
S'k7:VGNF'
p1516
ssbsg26
I00
sg27
I00
sg28
Nsg29
Nsg30
I4
sg31
I2
sg32
Nsg33
Nsg34
S'NNP'
p1517
sg36
g1494
sg37
I00
sba(issf_api
Word
p1518
(dp1519
g6
I00
sg7
V\u092e\u0947\u0902
p1520
sg9
(issf_api
FeatureSet
p1521
(dp1522
g12
(dp1523
S'posn'
p1524
S'110'
p1525
sS'name'
p1526
S'\xe0\xa4\xae\xe0\xa5\x87\xe0\xa4\x82'
p1527
sS'drel'
p1528
S'lwg__psp:NP5'
p1529
sS'chunktype'
p1530
S'child:NP5'
p1531
sS'af'
p1532
S'\xe0\xa4\xae\xe0\xa5\x87\xe0\xa4\x82,psp,,,,,,'
p1533
ssbsg26
I00
sg27
I00
sg28
Nsg29
Nsg30
I4
sg31
I2
sg32
Nsg33
Nsg34
S'PSP'
p1534
sg36
g1521
sg37
I00
sba(issf_api
Word
p1535
(dp1536
g6
I00
sg7
V\u092f\u093e\u091a\u093f\u0915\u093e
p1537
sg9
(issf_api
FeatureSet
p1538
(dp1539
g12
(dp1540
S'crefhead'
p1541
S'\xe0\xa4\xaf\xe0\xa4\xbe\xe0\xa4\x9a\xe0\xa4\xbf\xe0\xa4\x95\xe0\xa4\xbe:i19'
p1542
sS'posn'
p1543
S'120'
p1544
sS'name'
p1545
S'\xe0\xa4\xaf\xe0\xa4\xbe\xe0\xa4\x9a\xe0\xa4\xbf\xe0\xa4\x95\xe0\xa4\xbe'
p1546
sS'af'
p1547
S'\xe0\xa4\xaf\xe0\xa4\xbe\xe0\xa4\x9a\xe0\xa4\xbf\xe0\xa4\x95\xe0\xa4\xbe,n,f,sg,3,d,0,0'
p1548
sS'chunkid'
p1549
S'NP6'
p1550
sS'creftype'
p1551
S'Coreference-Identity:i5'
p1552
sS'chunktype'
p1553
S'head:NP6'
p1554
sS'cref'
p1555
S'i19%1:t4'
p1556
sS'drel'
p1557
S'k2:VGNF'
p1558
ssbsg26
I00
sg27
I00
sg28
Nsg29
Nsg30
I5
sg31
I2
sg32
Nsg33
Nsg34
S'NN'
p1559
sg36
g1538
sg37
I00
sba(issf_api
Word
p1560
(dp1561
g6
I00
sg7
V\u0926\u093e\u092f\u0930
p1562
sg9
(issf_api
FeatureSet
p1563
(dp1564
g12
(dp1565
S'posn'
p1566
S'130'
p1567
sS'name'
p1568
S'\xe0\xa4\xa6\xe0\xa4\xbe\xe0\xa4\xaf\xe0\xa4\xb0'
p1569
sS'af'
p1570
S'\xe0\xa4\xa6\xe0\xa4\xbe\xe0\xa4\xaf\xe0\xa4\xb0,adj,any,any,,,,'
p1571
sS'chunkid'
p1572
S'JJP'
p1573
sS'drel'
p1574
S'pof:VGNF'
p1575
sS'chunktype'
p1576
S'head:JJP'
p1577
ssbsg26
I00
sg27
I00
sg28
Nsg29
Nsg30
I6
sg31
I2
sg32
Nsg33
Nsg34
S'JJ'
p1578
sg36
g1563
sg37
I00
sba(issf_api
Word
p1579
(dp1580
g6
I00
sg7
V\u0915\u0930
p1581
sg9
(issf_api
FeatureSet
p1582
(dp1583
g12
(dp1584
S'posn'
p1585
S'140'
p1586
sS'name'
p1587
S'\xe0\xa4\x95\xe0\xa4\xb0'
p1588
sS'af'
p1589
S'\xe0\xa4\x95\xe0\xa4\xb0,v,any,any,any,,0,0'
p1590
sS'chunkid'
p1591
S'VGNF'
p1592
sS'drel'
p1593
S'vmod:VGF'
p1594
sS'chunktype'
p1595
S'head:VGNF'
p1596
ssbsg26
I00
sg27
I00
sg28
Nsg29
Nsg30
I7
sg31
I2
sg32
Nsg33
Nsg34
S'VM'
p1597
sg36
g1582
sg37
I00
sba(issf_api
Word
p1598
(dp1599
g6
I00
sg7
V\u090f\u091f\u0940\u090f\u0938
p1600
sg9
(issf_api
FeatureSet
p1601
(dp1602
g12
(dp1603
S'crefhead'
p1604
S'\xe0\xa4\x8f\xe0\xa4\x9f\xe0\xa5\x80\xe0\xa4\x8f\xe0\xa4\xb8:i20'
p1605
sS'posn'
p1606
S'150'
p1607
sS'name'
p1608
S'\xe0\xa4\x8f\xe0\xa4\x9f\xe0\xa5\x80\xe0\xa4\x8f\xe0\xa4\xb8'
p1609
sS'af'
p1610
S'\xe0\xa4\x8f\xe0\xa4\x9f\xe0\xa5\x80\xe0\xa4\x8f\xe0\xa4\xb8,n,m,sg,3,o,0_\xe0\xa4\xaa\xe0\xa4\xb0,0'
p1611
sS'chunkid'
p1612
S'NP7'
p1613
sS'creftype'
p1614
S'Coreference-Identity:i8'
p1615
sS'chunktype'
p1616
S'head:NP7'
p1617
sS'vpos'
p1618
S'vib_2'
p1619
sS'cref'
p1620
S'i20%1:t6'
p1621
sS'drel'
p1622
S'k7:VGF'
p1623
ssbsg26
I00
sg27
I00
sg28
Nsg29
Nsg30
I8
sg31
I2
sg32
Nsg33
Nsg34
S'NNP'
p1624
sg36
g1601
sg37
I00
sba(issf_api
Word
p1625
(dp1626
g6
I00
sg7
V\u092a\u0930
p1627
sg9
(issf_api
FeatureSet
p1628
(dp1629
g12
(dp1630
S'posn'
p1631
S'160'
p1632
sS'name'
p1633
S'\xe0\xa4\xaa\xe0\xa4\xb0'
p1634
sS'drel'
p1635
S'lwg__psp:NP7'
p1636
sS'chunktype'
p1637
S'child:NP7'
p1638
sS'af'
p1639
S'\xe0\xa4\xaa\xe0\xa4\xb0,psp,,,,,,'
p1640
ssbsg26
I00
sg27
I00
sg28
Nsg29
Nsg30
I8
sg31
I2
sg32
Nsg33
Nsg34
S'PSP'
p1641
sg36
g1628
sg37
I00
sba(issf_api
Word
p1642
(dp1643
g6
I00
sg7
V1995
p1644
sg9
(issf_api
FeatureSet
p1645
(dp1646
g12
(dp1647
S'posn'
p1648
S'170'
p1649
sS'name'
p1650
S'1995'
p1651
sS'af'
p1652
S'1995,n,any,sg,3,o,0_\xe0\xa4\x95\xe0\xa4\xbe,0'
p1653
sS'chunkid'
p1654
S'NP8'
p1655
sS'drel'
p1656
S'r6:NP9'
p1657
sS'vpos'
p1658
S'vib_2'
p1659
sS'chunktype'
p1660
S'head:NP8'
p1661
ssbsg26
I00
sg27
I00
sg28
Nsg29
Nsg30
I9
sg31
I2
sg32
Nsg33
Nsg34
S'NNP'
p1662
sg36
g1645
sg37
I00
sba(issf_api
Word
p1663
(dp1664
g6
I00
sg7
V\u0915\u0947
p1665
sg9
(issf_api
FeatureSet
p1666
(dp1667
g12
(dp1668
S'posn'
p1669
S'180'
p1670
sS'name'
p1671
S'\xe0\xa4\x95\xe0\xa5\x872'
p1672
sS'drel'
p1673
S'lwg__psp:NP8'
p1674
sS'chunktype'
p1675
S'child:NP8'
p1676
sS'af'
p1677
S'\xe0\xa4\x95\xe0\xa4\xbe,psp,m,sg,,o,,'
p1678
ssbsg26
I00
sg27
I00
sg28
Nsg29
Nsg30
I9
sg31
I2
sg32
Nsg33
Nsg34
S'PSP'
p1679
sg36
g1666
sg37
I00
sba(issf_api
Word
p1680
(dp1681
g6
I00
sg7
V\u092a\u094d\u0930\u0926\u0940\u092a
p1682
sg9
(issf_api
FeatureSet
p1683
(dp1684
g12
(dp1685
S'posn'
p1686
S'190'
p1687
sS'name'
p1688
S'\xe0\xa4\xaa\xe0\xa5\x8d\xe0\xa4\xb0\xe0\xa4\xa6\xe0\xa5\x80\xe0\xa4\xaa'
p1689
sS'drel'
p1690
S'pof__cn:NP9'
p1691
sS'chunktype'
p1692
S'child:NP9'
p1693
sS'af'
p1694
S'\xe0\xa4\xaa\xe0\xa5\x8d\xe0\xa4\xb0\xe0\xa4\xa6\xe0\xa5\x80\xe0\xa4\xaa,n,m,sg,3,d,0,0'
p1695
ssbsg26
I00
sg27
I00
sg28
Nsg29
Nsg30
I10
sg31
I2
sg32
Nsg33
Nsg34
S'NNPC'
p1696
sg36
g1683
sg37
I00
sba(issf_api
Word
p1697
(dp1698
g6
I00
sg7
V\u091c\u0948\u0928
p1699
sg9
(issf_api
FeatureSet
p1700
(dp1701
g12
(dp1702
S'posn'
p1703
S'200'
p1704
sS'name'
p1705
S'\xe0\xa4\x9c\xe0\xa5\x88\xe0\xa4\xa8'
p1706
sS'drel'
p1707
S'pof__cn:NP9'
p1708
sS'chunktype'
p1709
S'child:NP9'
p1710
sS'af'
p1711
S'\xe0\xa4\x9c\xe0\xa5\x88\xe0\xa4\xa8,n,any,sg,3,d,0,0'
p1712
ssbsg26
I00
sg27
I00
sg28
Nsg29
Nsg30
I10
sg31
I2
sg32
Nsg33
Nsg34
S'NNPC'
p1713
sg36
g1700
sg37
I00
sba(issf_api
Word
p1714
(dp1715
g6
I00
sg7
V\u0939\u0924\u094d\u092f\u093e\u0915\u093e\u0902\u0921
p1716
sg9
(issf_api
FeatureSet
p1717
(dp1718
g12
(dp1719
S'posn'
p1720
S'210'
p1721
sS'name'
p1722
S'\xe0\xa4\xb9\xe0\xa4\xa4\xe0\xa5\x8d\xe0\xa4\xaf\xe0\xa4\xbe\xe0\xa4\x95\xe0\xa4\xbe\xe0\xa4\x82\xe0\xa4\xa1'
p1723
sS'af'
p1724
S'\xe0\xa4\xb9\xe0\xa4\xa4\xe0\xa5\x8d\xe0\xa4\xaf\xe0\xa4\xbe\xe0\xa4\x95\xe0\xa4\xbe\xe0\xa4\x82\xe0\xa4\xa1,n,m,sg,3,o,0_\xe0\xa4\xae\xe0\xa5\x87\xe0\xa4\x82,0'
p1725
sS'chunkid'
p1726
S'NP9'
p1727
sS'drel'
p1728
S'k7:VGF'
p1729
sS'vpos'
p1730
S'vib_4'
p1731
sS'chunktype'
p1732
S'head:NP9'
p1733
ssbsg26
I00
sg27
I00
sg28
Nsg29
Nsg30
I10
sg31
I2
sg32
Nsg33
Nsg34
S'NNP'
p1734
sg36
g1717
sg37
I00
sba(issf_api
Word
p1735
(dp1736
g6
I00
sg7
V\u092e\u0947\u0902
p1737
sg9
(issf_api
FeatureSet
p1738
(dp1739
g12
(dp1740
S'posn'
p1741
S'220'
p1742
sS'name'
p1743
S'\xe0\xa4\xae\xe0\xa5\x87\xe0\xa4\x822'
p1744
sS'drel'
p1745
S'lwg__psp:NP9'
p1746
sS'chunktype'
p1747
S'child:NP9'
p1748
sS'af'
p1749
S'\xe0\xa4\xae\xe0\xa5\x87\xe0\xa4\x82,psp,,,,,,'
p1750
ssbsg26
I00
sg27
I00
sg28
Nsg29
Nsg30
I10
sg31
I2
sg32
Nsg33
Nsg34
S'PSP'
p1751
sg36
g1738
sg37
I00
sba(issf_api
Word
p1752
(dp1753
g6
I00
sg7
V\u0906\u0930\u094b\u092a
p1754
sg9
(issf_api
FeatureSet
p1755
(dp1756
g12
(dp1757
S'posn'
p1758
S'230'
p1759
sS'name'
p1760
S'\xe0\xa4\x86\xe0\xa4\xb0\xe0\xa5\x8b\xe0\xa4\xaa'
p1761
sS'af'
p1762
S'\xe0\xa4\x86\xe0\xa4\xb0\xe0\xa5\x8b\xe0\xa4\xaa,n,m,sg,3,d,0,0'
p1763
sS'chunkid'
p1764
S'NP10'
p1765
sS'drel'
p1766
S'pof:VGNN'
p1767
sS'chunktype'
p1768
S'head:NP10'
p1769
ssbsg26
I00
sg27
I00
sg28
Nsg29
Nsg30
I11
sg31
I2
sg32
Nsg33
Nsg34
S'NN'
p1770
sg36
g1755
sg37
I00
sba(issf_api
Word
p1771
(dp1772
g6
I00
sg7
V\u0915\u092c\u0942\u0932\u0928\u0947
p1773
sg9
(issf_api
FeatureSet
p1774
(dp1775
g12
(dp1776
S'posn'
p1777
S'240'
p1778
sS'name'
p1779
S'\xe0\xa4\x95\xe0\xa4\xac\xe0\xa5\x82\xe0\xa4\xb2\xe0\xa4\xa8\xe0\xa5\x87'
p1780
sS'af'
p1781
S'\xe0\xa4\x95\xe0\xa4\xac\xe0\xa5\x82\xe0\xa4\xb2,v,any,any,any,o,\xe0\xa4\xa8\xe0\xa4\xbe_\xe0\xa4\x95\xe0\xa5\x87_\xe0\xa4\xb2\xe0\xa4\xbf\xe0\xa4\x8f,nA'
p1782
sS'chunkid'
p1783
S'VGNN'
p1784
sS'drel'
p1785
S'rt:VGF'
p1786
sS'vpos'
p1787
S'tam_2_3'
p1788
sS'chunktype'
p1789
S'head:VGNN'
p1790
ssbsg26
I00
sg27
I00
sg28
Nsg29
Nsg30
I12
sg31
I2
sg32
Nsg33
Nsg34
S'VM'
p1791
sg36
g1774
sg37
I00
sba(issf_api
Word
p1792
(dp1793
g6
I00
sg7
V\u0915\u0947
p1794
sg9
(issf_api
FeatureSet
p1795
(dp1796
g12
(dp1797
S'posn'
p1798
S'250'
p1799
sS'name'
p1800
S'\xe0\xa4\x95\xe0\xa5\x873'
p1801
sS'drel'
p1802
S'lwg__psp:VGNN'
p1803
sS'chunktype'
p1804
S'child:VGNN'
p1805
sS'af'
p1806
S'\xe0\xa4\x95\xe0\xa5\x87,psp,,,,,,'
p1807
ssbsg26
I00
sg27
I00
sg28
Nsg29
Nsg30
I12
sg31
I2
sg32
Nsg33
Nsg34
S'PSP'
p1808
sg36
g1795
sg37
I00
sba(issf_api
Word
p1809
(dp1810
g6
I00
sg7
V\u0932\u093f\u090f
p1811
sg9
(issf_api
FeatureSet
p1812
(dp1813
g12
(dp1814
S'posn'
p1815
S'260'
p1816
sS'name'
p1817
S'\xe0\xa4\xb2\xe0\xa4\xbf\xe0\xa4\x8f'
p1818
sS'drel'
p1819
S'lwg__psp:VGNN'
p1820
sS'chunktype'
p1821
S'child:VGNN'
p1822
sS'af'
p1823
S'\xe0\xa4\xb2\xe0\xa4\xbf\xe0\xa4\x8f,psp,,,,,,'
p1824
ssbsg26
I00
sg27
I00
sg28
Nsg29
Nsg30
I12
sg31
I2
sg32
Nsg33
Nsg34
S'PSP'
p1825
sg36
g1812
sg37
I00
sba(issf_api
Word
p1826
(dp1827
g6
I00
sg7
V\u0938\u0932\u0947\u092e
p1828
sg9
(issf_api
FeatureSet
p1829
(dp1830
g12
(dp1831
S'crefhead'
p1832
S'\xe0\xa4\xb8\xe0\xa4\xb2\xe0\xa5\x87\xe0\xa4\xae:i21'
p1833
sS'posn'
p1834
S'270'
p1835
sS'name'
p1836
S'\xe0\xa4\xb8\xe0\xa4\xb2\xe0\xa5\x87\xe0\xa4\xae2'
p1837
sS'af'
p1838
S'\xe0\xa4\xb8\xe0\xa4\xb2\xe0\xa5\x87\xe0\xa4\xae,n,m,sg,3,o,0_\xe0\xa4\x95\xe0\xa5\x8b,0'
p1839
sS'chunkid'
p1840
S'NP11'
p1841
sS'creftype'
p1842
S'Coreference-Identity:i15'
p1843
sS'chunktype'
p1844
S'head:NP11'
p1845
sS'vpos'
p1846
S'vib_2'
p1847
sS'cref'
p1848
S'i21%1:t1'
p1849
sS'drel'
p1850
S'k2:VGNN2'
p1851
ssbsg26
I00
sg27
I00
sg28
Nsg29
Nsg30
I13
sg31
I2
sg32
Nsg33
Nsg34
S'NNP'
p1852
sg36
g1829
sg37
I00
sba(issf_api
Word
p1853
(dp1854
g6
I00
sg7
V\u0915\u094b
p1855
sg9
(issf_api
FeatureSet
p1856
(dp1857
g12
(dp1858
S'posn'
p1859
S'280'
p1860
sS'name'
p1861
S'\xe0\xa4\x95\xe0\xa5\x8b2'
p1862
sS'drel'
p1863
S'lwg__psp:NP11'
p1864
sS'chunktype'
p1865
S'child:NP11'
p1866
sS'af'
p1867
S'\xe0\xa4\x95\xe0\xa5\x8b,psp,,,,,,'
p1868
ssbsg26
I00
sg27
I00
sg28
Nsg29
Nsg30
I13
sg31
I2
sg32
Nsg33
Nsg34
S'PSP'
p1869
sg36
g1856
sg37
I00
sba(issf_api
Word
p1870
(dp1871
g6
I00
sg7
V\u092a\u094d\u0930\u0924\u093e\u0921\u093c\u093f\u0924
p1872
sg9
(issf_api
FeatureSet
p1873
(dp1874
g12
(dp1875
S'posn'
p1876
S'290'
p1877
sS'name'
p1878
S'\xe0\xa4\xaa\xe0\xa5\x8d\xe0\xa4\xb0\xe0\xa4\xa4\xe0\xa4\xbe\xe0\xa4\xa1\xe0\xa4\xbc\xe0\xa4\xbf\xe0\xa4\xa4'
p1879
sS'af'
p1880
S'\xe0\xa4\xaa\xe0\xa5\x8d\xe0\xa4\xb0\xe0\xa4\xa4\xe0\xa4\xbe\xe0\xa4\xa1\xe0\xa4\xbf\xe0\xa4\xa4,adj,any,any,,,,'
p1881
sS'chunkid'
p1882
S'JJP2'
p1883
sS'drel'
p1884
S'pof:VGNN2'
p1885
sS'chunktype'
p1886
S'head:JJP2'
p1887
ssbsg26
I00
sg27
I00
sg28
Nsg29
Nsg30
I14
sg31
I2
sg32
Nsg33
Nsg34
S'JJ'
p1888
sg36
g1873
sg37
I00
sba(issf_api
Word
p1889
(dp1890
g6
I00
sg7
V\u0915\u0930\u0928\u0947
p1891
sg9
(issf_api
FeatureSet
p1892
(dp1893
g12
(dp1894
S'posn'
p1895
S'300'
p1896
sS'name'
p1897
S'\xe0\xa4\x95\xe0\xa4\xb0\xe0\xa4\xa8\xe0\xa5\x87'
p1898
sS'af'
p1899
S'\xe0\xa4\x95\xe0\xa4\xb0,v,any,sg,any,o,\xe0\xa4\xa8\xe0\xa4\xbe_\xe0\xa4\x95\xe0\xa4\xbe,nA'
p1900
sS'chunkid'
p1901
S'VGNN2'
p1902
sS'drel'
p1903
S'r6-k2:NP12'
p1904
sS'vpos'
p1905
S'tam_2'
p1906
sS'chunktype'
p1907
S'head:VGNN2'
p1908
ssbsg26
I00
sg27
I00
sg28
Nsg29
Nsg30
I15
sg31
I2
sg32
Nsg33
Nsg34
S'VM'
p1909
sg36
g1892
sg37
I00
sba(issf_api
Word
p1910
(dp1911
g6
I00
sg7
V\u0915\u093e
p1912
sg9
(issf_api
FeatureSet
p1913
(dp1914
g12
(dp1915
S'posn'
p1916
S'310'
p1917
sS'name'
p1918
S'\xe0\xa4\x95\xe0\xa4\xbe'
p1919
sS'drel'
p1920
S'lwg__psp:VGNN2'
p1921
sS'chunktype'
p1922
S'child:VGNN2'
p1923
sS'af'
p1924
S'\xe0\xa4\x95\xe0\xa4\xbe,psp,m,sg,,d,,'
p1925
ssbsg26
I00
sg27
I00
sg28
Nsg29
Nsg30
I15
sg31
I2
sg32
Nsg33
Nsg34
S'PSP'
p1926
sg36
g1913
sg37
I00
sba(issf_api
Word
p1927
(dp1928
g6
I00
sg7
V\u0906\u0930\u094b\u092a
p1929
sg9
(issf_api
FeatureSet
p1930
(dp1931
g12
(dp1932
S'posn'
p1933
S'320'
p1934
sS'name'
p1935
S'\xe0\xa4\x86\xe0\xa4\xb0\xe0\xa5\x8b\xe0\xa4\xaa2'
p1936
sS'af'
p1937
S'\xe0\xa4\x86\xe0\xa4\xb0\xe0\xa5\x8b\xe0\xa4\xaa,n,m,sg,3,d,0,0'
p1938
sS'chunkid'
p1939
S'NP12'
p1940
sS'drel'
p1941
S'pof:VGF'
p1942
sS'chunktype'
p1943
S'head:NP12'
p1944
ssbsg26
I00
sg27
I00
sg28
Nsg29
Nsg30
I16
sg31
I2
sg32
Nsg33
Nsg34
S'NN'
p1945
sg36
g1930
sg37
I00
sba(issf_api
Word
p1946
(dp1947
g6
I00
sg7
V\u0932\u0917\u093e\u092f\u093e
p1948
sg9
(issf_api
FeatureSet
p1949
(dp1950
g12
(dp1951
S'posn'
p1952
S'330'
p1953
sS'name'
p1954
S'\xe0\xa4\xb2\xe0\xa4\x97\xe0\xa4\xbe\xe0\xa4\xaf\xe0\xa4\xbe'
p1955
sS'af'
p1956
S'\xe0\xa4\xb2\xe0\xa4\x97\xe0\xa4\xbe,v,m,sg,any,,\xe0\xa4\xaf\xe0\xa4\xbe,yA'
p1957
sS'chunkid'
p1958
S'VGF'
p1959
sS'stype'
p1960
S'declarative'
p1961
sS'drel'
p1962
S'ccof:CCP'
p1963
sS'voicetype'
p1964
S'active'
p1965
sS'chunktype'
p1966
S'head:VGF'
p1967
ssbsg26
I00
sg27
I00
sg28
Nsg29
Nsg30
I17
sg31
I2
sg32
Nsg33
Nsg34
S'VM'
p1968
sg36
g1949
sg37
I00
sba(issf_api
Word
p1969
(dp1970
g6
I00
sg7
V\u0914\u0930
p1971
sg9
(issf_api
FeatureSet
p1972
(dp1973
g12
(dp1974
S'posn'
p1975
S'340'
p1976
sS'chunkid'
p1977
S'CCP'
p1978
sS'name'
p1979
S'\xe0\xa4\x94\xe0\xa4\xb0'
p1980
sS'chunktype'
p1981
S'head:CCP'
p1982
sS'af'
p1983
S'\xe0\xa4\x94\xe0\xa4\xb0,avy,,,,,,'
p1984
ssbsg26
I00
sg27
I00
sg28
Nsg29
Nsg30
I18
sg31
I2
sg32
Nsg33
Nsg34
S'CC'
p1985
sg36
g1972
sg37
I00
sba(issf_api
Word
p1986
(dp1987
g6
I00
sg7
V\u0915\u0939\u093e
p1988
sg9
(issf_api
FeatureSet
p1989
(dp1990
g12
(dp1991
S'posn'
p1992
S'350'
p1993
sS'name'
p1994
S'\xe0\xa4\x95\xe0\xa4\xb9\xe0\xa4\xbe'
p1995
sS'af'
p1996
S'\xe0\xa4\x95\xe0\xa4\xb9,v,m,sg,any,,\xe0\xa4\xaf\xe0\xa4\xbe,yA'
p1997
sS'chunkid'
p1998
S'VGF2'
p1999
sS'stype'
p2000
S'declarative'
p2001
sS'drel'
p2002
S'ccof:CCP'
p2003
sS'voicetype'
p2004
S'active'
p2005
sS'chunktype'
p2006
S'head:VGF2'
p2007
ssbsg26
I00
sg27
I00
sg28
Nsg29
Nsg30
I19
sg31
I2
sg32
Nsg33
Nsg34
S'VM'
p2008
sg36
g1989
sg37
I00
sba(issf_api
Word
p2009
(dp2010
g6
I00
sg7
V\u0915\u093f
p2011
sg9
(issf_api
FeatureSet
p2012
(dp2013
g12
(dp2014
S'posn'
p2015
S'360'
p2016
sS'name'
p2017
S'\xe0\xa4\x95\xe0\xa4\xbf'
p2018
sS'af'
p2019
S'\xe0\xa4\x95\xe0\xa4\xbf,avy,,,,,,'
p2020
sS'chunkid'
p2021
S'CCP2'
p2022
sS'drel'
p2023
S'k2:VGF2'
p2024
sS'chunktype'
p2025
S'head:CCP2'
p2026
ssbsg26
I00
sg27
I00
sg28
Nsg29
Nsg30
I20
sg31
I2
sg32
Nsg33
Nsg34
S'CC'
p2027
sg36
g2012
sg37
I00
sba(issf_api
Word
p2028
(dp2029
g6
I00
sg7
V\u0938\u0932\u0947\u092e
p2030
sg9
(issf_api
FeatureSet
p2031
(dp2032
g12
(dp2033
S'crefhead'
p2034
S'\xe0\xa4\xb8\xe0\xa4\xb2\xe0\xa5\x87\xe0\xa4\xae:i22'
p2035
sS'posn'
p2036
S'370'
p2037
sS'name'
p2038
S'\xe0\xa4\xb8\xe0\xa4\xb2\xe0\xa5\x87\xe0\xa4\xae3'
p2039
sS'af'
p2040
S'\xe0\xa4\xb8\xe0\xa4\xb2\xe0\xa5\x87\xe0\xa4\xae,n,m,sg,3,o,0_\xe0\xa4\x95\xe0\xa5\x8b,0'
p2041
sS'chunkid'
p2042
S'NP13'
p2043
sS'creftype'
p2044
S'Coreference-Identity:i21'
p2045
sS'chunktype'
p2046
S'head:NP13'
p2047
sS'vpos'
p2048
S'vib_2'
p2049
sS'cref'
p2050
S'i22%1:t1'
p2051
sS'drel'
p2052
S'k2:VGF3'
p2053
ssbsg26
I00
sg27
I00
sg28
Nsg29
Nsg30
I21
sg31
I2
sg32
Nsg33
Nsg34
S'NNP'
p2054
sg36
g2031
sg37
I00
sba(issf_api
Word
p2055
(dp2056
g6
I00
sg7
V\u0915\u094b
p2057
sg9
(issf_api
FeatureSet
p2058
(dp2059
g12
(dp2060
S'posn'
p2061
S'380'
p2062
sS'name'
p2063
S'\xe0\xa4\x95\xe0\xa5\x8b3'
p2064
sS'drel'
p2065
S'lwg__psp:NP13'
p2066
sS'chunktype'
p2067
S'child:NP13'
p2068
sS'af'
p2069
S'\xe0\xa4\x95\xe0\xa5\x8b,psp,,,,,,'
p2070
ssbsg26
I00
sg27
I00
sg28
Nsg29
Nsg30
I21
sg31
I2
sg32
Nsg33
Nsg34
S'PSP'
p2071
sg36
g2058
sg37
I00
sba(issf_api
Word
p2072
(dp2073
g6
I00
sg7
V\u092e\u0941\u0920\u092d\u0947\u0921\u093c
p2074
sg9
(issf_api
FeatureSet
p2075
(dp2076
g12
(dp2077
S'posn'
p2078
S'390'
p2079
sS'name'
p2080
S'\xe0\xa4\xae\xe0\xa5\x81\xe0\xa4\xa0\xe0\xa4\xad\xe0\xa5\x87\xe0\xa4\xa1\xe0\xa4\xbc'
p2081
sS'af'
p2082
S'\xe0\xa4\xae\xe0\xa5\x81\xe0\xa4\xa0\xe0\xa4\xad\xe0\xa5\x87\xe0\xa4\xa1\xe0\xa4\xbc,n,f,sg,3,o,0_\xe0\xa4\xae\xe0\xa5\x87\xe0\xa4\x82,0'
p2083
sS'chunkid'
p2084
S'NP14'
p2085
sS'drel'
p2086
S'k7:VGF3'
p2087
sS'vpos'
p2088
S'vib_2'
p2089
sS'chunktype'
p2090
S'head:NP14'
p2091
ssbsg26
I00
sg27
I00
sg28
Nsg29
Nsg30
I22
sg31
I2
sg32
Nsg33
Nsg34
S'NN'
p2092
sg36
g2075
sg37
I00
sba(issf_api
Word
p2093
(dp2094
g6
I00
sg7
V\u092e\u0947\u0902
p2095
sg9
(issf_api
FeatureSet
p2096
(dp2097
g12
(dp2098
S'posn'
p2099
S'400'
p2100
sS'name'
p2101
S'\xe0\xa4\xae\xe0\xa5\x87\xe0\xa4\x823'
p2102
sS'drel'
p2103
S'lwg__psp:NP14'
p2104
sS'chunktype'
p2105
S'child:NP14'
p2106
sS'af'
p2107
S'\xe0\xa4\xae\xe0\xa5\x87\xe0\xa4\x82,psp,,,,,,'
p2108
ssbsg26
I00
sg27
I00
sg28
Nsg29
Nsg30
I22
sg31
I2
sg32
Nsg33
Nsg34
S'PSP'
p2109
sg36
g2096
sg37
I00
sba(issf_api
Word
p2110
(dp2111
g6
I00
sg7
V\u092e\u093e\u0930\u093e
p2112
sg9
(issf_api
FeatureSet
p2113
(dp2114
g12
(dp2115
S'posn'
p2116
S'410'
p2117
sS'name'
p2118
S'\xe0\xa4\xae\xe0\xa4\xbe\xe0\xa4\xb0\xe0\xa4\xbe'
p2119
sS'af'
p2120
S'\xe0\xa4\xae\xe0\xa4\xbe\xe0\xa4\xb0,v,m,sg,3,,\xe0\xa4\xaf\xe0\xa4\xbe_\xe0\xa4\x9c\xe0\xa4\xbe_\xe0\xa4\xb8\xe0\xa4\x95+\xe0\xa4\xa4\xe0\xa4\xbe_\xe0\xa4\xb9\xe0\xa5\x88,yA'
p2121
sS'chunkid'
p2122
S'VGF3'
p2123
sS'stype'
p2124
S'declarative'
p2125
sS'drel'
p2126
S'ccof:CCP2'
p2127
sS'voicetype'
p2128
S'passive'
p2129
sS'vpos'
p2130
S'tam_2_3_4'
p2131
sS'chunktype'
p2132
S'head:VGF3'
p2133
ssbsg26
I00
sg27
I00
sg28
Nsg29
Nsg30
I23
sg31
I2
sg32
Nsg33
Nsg34
S'VM'
p2134
sg36
g2113
sg37
I00
sba(issf_api
Word
p2135
(dp2136
g6
I00
sg7
V\u091c\u093e
p2137
sg9
(issf_api
FeatureSet
p2138
(dp2139
g12
(dp2140
S'posn'
p2141
S'420'
p2142
sS'name'
p2143
S'\xe0\xa4\x9c\xe0\xa4\xbe'
p2144
sS'drel'
p2145
S'lwg__vaux:VGF3'
p2146
sS'chunktype'
p2147
S'child:VGF3'
p2148
sS'af'
p2149
S'\xe0\xa4\x9c\xe0\xa4\xbe,v,any,any,any,,0,0'
p2150
ssbsg26
I00
sg27
I00
sg28
Nsg29
Nsg30
I23
sg31
I2
sg32
Nsg33
Nsg34
S'VAUX'
p2151
sg36
g2138
sg37
I00
sba(issf_api
Word
p2152
(dp2153
g6
I00
sg7
V\u0938\u0915\u0924\u093e
p2154
sg9
(issf_api
FeatureSet
p2155
(dp2156
g12
(dp2157
S'posn'
p2158
S'430'
p2159
sS'name'
p2160
S'\xe0\xa4\xb8\xe0\xa4\x95\xe0\xa4\xa4\xe0\xa4\xbe'
p2161
sS'drel'
p2162
S'lwg__vaux:VGF3'
p2163
sS'chunktype'
p2164
S'child:VGF3'
p2165
sS'af'
p2166
S'\xe0\xa4\xb8\xe0\xa4\x95,v,m,sg,any,,\xe0\xa4\xa4\xe0\xa4\xbe,wA'
p2167
ssbsg26
I00
sg27
I00
sg28
Nsg29
Nsg30
I23
sg31
I2
sg32
Nsg33
Nsg34
S'VAUX'
p2168
sg36
g2155
sg37
I00
sba(issf_api
Word
p2169
(dp2170
g6
I00
sg7
V\u0939\u0948
p2171
sg9
(issf_api
FeatureSet
p2172
(dp2173
g12
(dp2174
S'posn'
p2175
S'440'
p2176
sS'name'
p2177
S'\xe0\xa4\xb9\xe0\xa5\x88'
p2178
sS'drel'
p2179
S'lwg__vaux:VGF3'
p2180
sS'chunktype'
p2181
S'child:VGF3'
p2182
sS'af'
p2183
S'\xe0\xa4\xb9\xe0\xa5\x88,v,any,sg,3,,\xe0\xa4\xb9\xe0\xa5\x88,hE'
p2184
ssbsg26
I00
sg27
I00
sg28
Nsg29
Nsg30
I23
sg31
I2
sg32
Nsg33
Nsg34
S'VAUX'
p2185
sg36
g2172
sg37
I00
sba(issf_api
Word
p2186
(dp2187
g6
I00
sg7
V\u0964
p2188
sg9
(issf_api
FeatureSet
p2189
(dp2190
g12
(dp2191
S'posn'
p2192
S'450'
p2193
sS'name'
p2194
S'\xe0\xa5\xa4'
p2195
sS'af'
p2196
S'\xe0\xa5\xa4,punc,,,,,,'
p2197
sS'chunkid'
p2198
S'BLK'
p2199
sS'drel'
p2200
S'rsym:CCP'
p2201
sS'chunktype'
p2202
S'head:BLK'
p2203
ssbsg26
I00
sg27
I00
sg28
Nsg29
Nsg30
I24
sg31
I2
sg32
Nsg33
Nsg34
S'SYM'
p2204
sg36
g2189
sg37
I00
sba(issf_api
Word
p2205
(dp2206
g6
I00
sg7
V\u0932\u0948\u0938
p2207
sg9
(issf_api
FeatureSet
p2208
(dp2209
g12
(dp2210
S'crefhead'
p2211
S'\xe0\xa4\xb2\xe0\xa5\x88\xe0\xa4\xb8:i23'
p2212
sS'posn'
p2213
S'10'
p2214
sS'name'
p2215
S'\xe0\xa4\xb2\xe0\xa5\x88\xe0\xa4\xb8'
p2216
sS'af'
p2217
S'\xe0\xa4\xb2\xe0\xa5\x88\xe0\xa4\xb8,n,m,sg,3,o,0_\xe0\xa4\xa8\xe0\xa5\x87,0'
p2218
sS'chunkid'
p2219
S'NP'
p2220
sS'creftype'
p2221
S'Coreference-Identity:i17'
p2222
sS'chunktype'
p2223
S'head:NP'
p2224
sS'vpos'
p2225
S'vib_2'
p2226
sS'cref'
p2227
S'i23%1:t2'
p2228
sS'drel'
p2229
S'k1:VGF'
p2230
ssbsg26
I00
sg27
I00
sg28
Nsg29
Nsg30
I0
sg31
I3
sg32
Nsg33
Nsg34
S'NNP'
p2231
sg36
g2208
sg37
I00
sba(issf_api
Word
p2232
(dp2233
g6
I00
sg7
V\u0928\u0947
p2234
sg9
(issf_api
FeatureSet
p2235
(dp2236
g12
(dp2237
S'posn'
p2238
S'20'
p2239
sS'name'
p2240
S'\xe0\xa4\xa8\xe0\xa5\x87'
p2241
sS'drel'
p2242
S'lwg__psp:NP'
p2243
sS'chunktype'
p2244
S'child:NP'
p2245
sS'af'
p2246
S'\xe0\xa4\xa8\xe0\xa5\x87,psp,,,,,,'
p2247
ssbsg26
I00
sg27
I00
sg28
Nsg29
Nsg30
I0
sg31
I3
sg32
Nsg33
Nsg34
S'PSP'
p2248
sg36
g2235
sg37
I00
sba(issf_api
Word
p2249
(dp2250
g6
I00
sg7
V\u0906\u092f\u094b\u0917
p2251
sg9
(issf_api
FeatureSet
p2252
(dp2253
g12
(dp2254
S'crefhead'
p2255
S'\xe0\xa4\x86\xe0\xa4\xaf\xe0\xa5\x8b\xe0\xa4\x97:i24'
p2256
sS'posn'
p2257
S'30'
p2258
sS'name'
p2259
S'\xe0\xa4\x86\xe0\xa4\xaf\xe0\xa5\x8b\xe0\xa4\x97'
p2260
sS'af'
p2261
S'\xe0\xa4\x86\xe0\xa4\xaf\xe0\xa5\x8b\xe0\xa4\x97,n,m,sg,3,o,0_\xe0\xa4\x95\xe0\xa4\xbe,0'
p2262
sS'chunkid'
p2263
S'NP2'
p2264
sS'creftype'
p2265
S'Coreference-Identity:i18'
p2266
sS'chunktype'
p2267
S'head:NP2'
p2268
sS'vpos'
p2269
S'vib_2'
p2270
sS'cref'
p2271
S'i24%1:t3'
p2272
sS'drel'
p2273
S'r6:NP3'
p2274
ssbsg26
I00
sg27
I00
sg28
Nsg29
Nsg30
I1
sg31
I3
sg32
Nsg33
Nsg34
S'NN'
p2275
sg36
g2252
sg37
I00
sba(issf_api
Word
p2276
(dp2277
g6
I00
sg7
V\u0915\u0947
p2278
sg9
(issf_api
FeatureSet
p2279
(dp2280
g12
(dp2281
S'posn'
p2282
S'40'
p2283
sS'name'
p2284
S'\xe0\xa4\x95\xe0\xa5\x87'
p2285
sS'drel'
p2286
S'lwg__psp:NP2'
p2287
sS'chunktype'
p2288
S'child:NP2'
p2289
sS'af'
p2290
S'\xe0\xa4\x95\xe0\xa4\xbe,psp,m,sg,,o,,'
p2291
ssbsg26
I00
sg27
I00
sg28
Nsg29
Nsg30
I1
sg31
I3
sg32
Nsg33
Nsg34
S'PSP'
p2292
sg36
g2279
sg37
I00
sba(issf_api
Word
p2293
(dp2294
g6
I00
sg7
V\u0938\u0926\u0938\u094d\u092f\u094b\u0902
p2295
sg9
(issf_api
FeatureSet
p2296
(dp2297
g12
(dp2298
S'posn'
p2299
S'50'
p2300
sS'name'
p2301
S'\xe0\xa4\xb8\xe0\xa4\xa6\xe0\xa4\xb8\xe0\xa5\x8d\xe0\xa4\xaf\xe0\xa5\x8b\xe0\xa4\x82'
p2302
sS'af'
p2303
S'\xe0\xa4\xb8\xe0\xa4\xa6\xe0\xa4\xb8\xe0\xa5\x8d\xe0\xa4\xaf,n,m,pl,3,o,0_\xe0\xa4\xb8\xe0\xa5\x87,0'
p2304
sS'chunkid'
p2305
S'NP3'
p2306
sS'drel'
p2307
S'k5:VGF'
p2308
sS'vpos'
p2309
S'vib_2'
p2310
sS'chunktype'
p2311
S'head:NP3'
p2312
ssbsg26
I00
sg27
I00
sg28
Nsg29
Nsg30
I2
sg31
I3
sg32
Nsg33
Nsg34
S'NN'
p2313
sg36
g2296
sg37
I00
sba(issf_api
Word
p2314
(dp2315
g6
I00
sg7
V\u0938\u0947
p2316
sg9
(issf_api
FeatureSet
p2317
(dp2318
g12
(dp2319
S'posn'
p2320
S'60'
p2321
sS'name'
p2322
S'\xe0\xa4\xb8\xe0\xa5\x87'
p2323
sS'drel'
p2324
S'lwg__psp:NP3'
p2325
sS'chunktype'
p2326
S'child:NP3'
p2327
sS'af'
p2328
S'\xe0\xa4\xb8\xe0\xa5\x87,psp,,,,,,'
p2329
ssbsg26
I00
sg27
I00
sg28
Nsg29
Nsg30
I2
sg31
I3
sg32
Nsg33
Nsg34
S'PSP'
p2330
sg36
g2317
sg37
I00
sba(issf_api
Word
p2331
(dp2332
g6
I00
sg7
V\u091c\u0947\u0932
p2333
sg9
(issf_api
FeatureSet
p2334
(dp2335
g12
(dp2336
S'posn'
p2337
S'70'
p2338
sS'name'
p2339
S'\xe0\xa4\x9c\xe0\xa5\x87\xe0\xa4\xb2'
p2340
sS'af'
p2341
S'\xe0\xa4\x9c\xe0\xa5\x87\xe0\xa4\xb2,n,f,sg,3,o,0_\xe0\xa4\x95\xe0\xa4\xbe,0'
p2342
sS'chunkid'
p2343
S'NP4'
p2344
sS'drel'
p2345
S'r6-k2:NP5'
p2346
sS'vpos'
p2347
S'vib_2'
p2348
sS'chunktype'
p2349
S'head:NP4'
p2350
ssbsg26
I00
sg27
I00
sg28
Nsg29
Nsg30
I3
sg31
I3
sg32
Nsg33
Nsg34
S'NN'
p2351
sg36
g2334
sg37
I00
sba(issf_api
Word
p2352
(dp2353
g6
I00
sg7
V\u0915\u093e
p2354
sg9
(issf_api
FeatureSet
p2355
(dp2356
g12
(dp2357
S'posn'
p2358
S'80'
p2359
sS'name'
p2360
S'\xe0\xa4\x95\xe0\xa4\xbe'
p2361
sS'drel'
p2362
S'lwg__psp:NP4'
p2363
sS'chunktype'
p2364
S'child:NP4'
p2365
sS'af'
p2366
S'\xe0\xa4\x95\xe0\xa4\xbe,psp,m,sg,,d,,'
p2367
ssbsg26
I00
sg27
I00
sg28
Nsg29
Nsg30
I3
sg31
I3
sg32
Nsg33
Nsg34
S'PSP'
p2368
sg36
g2355
sg37
I00
sba(issf_api
Word
p2369
(dp2370
g6
I00
sg7
V\u0926\u094c\u0930\u093e
p2371
sg9
(issf_api
FeatureSet
p2372
(dp2373
g12
(dp2374
S'posn'
p2375
S'90'
p2376
sS'name'
p2377
S'\xe0\xa4\xa6\xe0\xa5\x8c\xe0\xa4\xb0\xe0\xa4\xbe'
p2378
sS'af'
p2379
S'\xe0\xa4\xa6\xe0\xa5\x8c\xe0\xa4\xb0\xe0\xa4\xbe,n,m,sg,3,d,0,0'
p2380
sS'chunkid'
p2381
S'NP5'
p2382
sS'drel'
p2383
S'pof:VGNN'
p2384
sS'chunktype'
p2385
S'head:NP5'
p2386
ssbsg26
I00
sg27
I00
sg28
Nsg29
Nsg30
I4
sg31
I3
sg32
Nsg33
Nsg34
S'NN'
p2387
sg36
g2372
sg37
I00
sba(issf_api
Word
p2388
(dp2389
g6
I00
sg7
V\u0915\u0930\u0928\u0947
p2390
sg9
(issf_api
FeatureSet
p2391
(dp2392
g12
(dp2393
S'posn'
p2394
S'100'
p2395
sS'name'
p2396
S'\xe0\xa4\x95\xe0\xa4\xb0\xe0\xa4\xa8\xe0\xa5\x87'
p2397
sS'af'
p2398
S'\xe0\xa4\x95\xe0\xa4\xb0,v,any,any,any,o,\xe0\xa4\xa8\xe0\xa4\xbe,nA'
p2399
sS'chunkid'
p2400
S'VGNN'
p2401
sS'drel'
p2402
S'ccof:NULL__CCP'
p2403
sS'chunktype'
p2404
S'head:VGNN'
p2405
ssbsg26
I00
sg27
I00
sg28
Nsg29
Nsg30
I5
sg31
I3
sg32
Nsg33
Nsg34
S'VM'
p2406
sg36
g2391
sg37
I00
sba(issf_api
Word
p2407
(dp2408
g6
I00
sg7
V\u0938\u0932\u0947\u092e
p2409
sg9
(issf_api
FeatureSet
p2410
(dp2411
g12
(dp2412
S'crefhead'
p2413
S'\xe0\xa4\xb8\xe0\xa4\xb2\xe0\xa5\x87\xe0\xa4\xae:i25'
p2414
sS'posn'
p2415
S'110'
p2416
sS'name'
p2417
S'\xe0\xa4\xb8\xe0\xa4\xb2\xe0\xa5\x87\xe0\xa4\xae'
p2418
sS'af'
p2419
S'\xe0\xa4\xb8\xe0\xa4\xb2\xe0\xa5\x87\xe0\xa4\xae,n,m,sg,3,o,0_\xe0\xa4\x95\xe0\xa5\x87_\xe0\xa4\x96\xe0\xa4\xbf\xe0\xa4\xb2\xe0\xa4\xbe\xe0\xa4\xab,0'
p2420
sS'chunkid'
p2421
S'NP6'
p2422
sS'creftype'
p2423
S'Coreference-Identity:i22'
p2424
sS'chunktype'
p2425
S'head:NP6'
p2426
sS'vpos'
p2427
S'vib_2_3'
p2428
sS'cref'
p2429
S'i25%1:t1'
p2430
sS'drel'
p2431
S'vmod:VGNN2'
p2432
ssbsg26
I00
sg27
I00
sg28
Nsg29
Nsg30
I6
sg31
I3
sg32
Nsg33
Nsg34
S'NNP'
p2433
sg36
g2410
sg37
I00
sba(issf_api
Word
p2434
(dp2435
g6
I00
sg7
V\u0915\u0947
p2436
sg9
(issf_api
FeatureSet
p2437
(dp2438
g12
(dp2439
S'posn'
p2440
S'120'
p2441
sS'name'
p2442
S'\xe0\xa4\x95\xe0\xa5\x872'
p2443
sS'drel'
p2444
S'lwg__psp:NP6'
p2445
sS'chunktype'
p2446
S'child:NP6'
p2447
sS'af'
p2448
S'\xe0\xa4\x95\xe0\xa5\x87,psp,,,,,,'
p2449
ssbsg26
I00
sg27
I00
sg28
Nsg29
Nsg30
I6
sg31
I3
sg32
Nsg33
Nsg34
S'PSP'
p2450
sg36
g2437
sg37
I00
sba(issf_api
Word
p2451
(dp2452
g6
I00
sg7
V\u0916\u093f\u0932\u093e\u092b
p2453
sg9
(issf_api
FeatureSet
p2454
(dp2455
g12
(dp2456
S'posn'
p2457
S'130'
p2458
sS'name'
p2459
S'\xe0\xa4\x96\xe0\xa4\xbf\xe0\xa4\xb2\xe0\xa4\xbe\xe0\xa4\xab'
p2460
sS'drel'
p2461
S'lwg__psp:NP6'
p2462
sS'chunktype'
p2463
S'child:NP6'
p2464
sS'af'
p2465
S'\xe0\xa4\x96\xe0\xa4\xbf\xe0\xa4\xb2\xe0\xa4\xbe\xe0\xa4\xab,adj,,,,,,'
p2466
ssbsg26
I00
sg27
I00
sg28
Nsg29
Nsg30
I6
sg31
I3
sg32
Nsg33
Nsg34
S'PSP'
p2467
sg36
g2454
sg37
I00
sba(issf_api
Word
p2468
(dp2469
g6
I00
sg7
V\u092e\u093e\u092e\u0932\u0947
p2470
sg9
(issf_api
FeatureSet
p2471
(dp2472
g12
(dp2473
S'posn'
p2474
S'140'
p2475
sS'name'
p2476
S'\xe0\xa4\xae\xe0\xa4\xbe\xe0\xa4\xae\xe0\xa4\xb2\xe0\xa5\x87'
p2477
sS'af'
p2478
S'\xe0\xa4\xae\xe0\xa4\xbe\xe0\xa4\xae\xe0\xa4\xb2\xe0\xa4\xbe,n,m,sg,3,o,0_\xe0\xa4\x95\xe0\xa4\xbe,0'
p2479
sS'chunkid'
p2480
S'NP7'
p2481
sS'drel'
p2482
S'r6:NP8'
p2483
sS'vpos'
p2484
S'vib_2'
p2485
sS'chunktype'
p2486
S'head:NP7'
p2487
ssbsg26
I00
sg27
I00
sg28
Nsg29
Nsg30
I7
sg31
I3
sg32
Nsg33
Nsg34
S'NN'
p2488
sg36
g2471
sg37
I00
sba(issf_api
Word
p2489
(dp2490
g6
I00
sg7
V\u0915\u0940
p2491
sg9
(issf_api
FeatureSet
p2492
(dp2493
g12
(dp2494
S'posn'
p2495
S'150'
p2496
sS'name'
p2497
S'\xe0\xa4\x95\xe0\xa5\x80'
p2498
sS'drel'
p2499
S'lwg__psp:NP7'
p2500
sS'chunktype'
p2501
S'child:NP7'
p2502
sS'af'
p2503
S'\xe0\xa4\x95\xe0\xa4\xbe,psp,f,sg,,o,,'
p2504
ssbsg26
I00
sg27
I00
sg28
Nsg29
Nsg30
I7
sg31
I3
sg32
Nsg33
Nsg34
S'PSP'
p2505
sg36
g2492
sg37
I00
sba(issf_api
Word
p2506
(dp2507
g6
I00
sg7
V\u091c\u093e\u0902\u091a
p2508
sg9
(issf_api
FeatureSet
p2509
(dp2510
g12
(dp2511
S'posn'
p2512
S'160'
p2513
sS'name'
p2514
S'\xe0\xa4\x9c\xe0\xa4\xbe\xe0\xa4\x82\xe0\xa4\x9a'
p2515
sS'af'
p2516
S'\xe0\xa4\x9c\xe0\xa4\xbe\xe0\xa4\x82\xe0\xa4\x9a,n,f,sg,3,o,0_\xe0\xa4\xb8\xe0\xa5\x87,0'
p2517
sS'chunkid'
p2518
S'NP8'
p2519
sS'drel'
p2520
S'jjmod:JJP'
p2521
sS'vpos'
p2522
S'vib_2'
p2523
sS'chunktype'
p2524
S'head:NP8'
p2525
ssbsg26
I00
sg27
I00
sg28
Nsg29
Nsg30
I8
sg31
I3
sg32
Nsg33
Nsg34
S'NN'
p2526
sg36
g2509
sg37
I00
sba(issf_api
Word
p2527
(dp2528
g6
I00
sg7
V\u0938\u0947
p2529
sg9
(issf_api
FeatureSet
p2530
(dp2531
g12
(dp2532
S'posn'
p2533
S'170'
p2534
sS'name'
p2535
S'\xe0\xa4\xb8\xe0\xa5\x872'
p2536
sS'drel'
p2537
S'lwg__psp:NP8'
p2538
sS'chunktype'
p2539
S'child:NP8'
p2540
sS'af'
p2541
S'\xe0\xa4\xb8\xe0\xa5\x87,psp,,,,,,'
p2542
ssbsg26
I00
sg27
I00
sg28
Nsg29
Nsg30
I8
sg31
I3
sg32
Nsg33
Nsg34
S'PSP'
p2543
sg36
g2530
sg37
I00
sba(issf_api
Word
p2544
(dp2545
g6
I00
sg7
V\u0938\u0902\u092c\u0902\u0927\u093f\u0924
p2546
sg9
(issf_api
FeatureSet
p2547
(dp2548
g12
(dp2549
S'posn'
p2550
S'180'
p2551
sS'name'
p2552
S'\xe0\xa4\xb8\xe0\xa4\x82\xe0\xa4\xac\xe0\xa4\x82\xe0\xa4\xa7\xe0\xa4\xbf\xe0\xa4\xa4'
p2553
sS'af'
p2554
S'\xe0\xa4\xb8\xe0\xa4\x82\xe0\xa4\xac\xe0\xa4\x82\xe0\xa4\xa7\xe0\xa4\xbf\xe0\xa4\xa4,adj,any,any,,d,,'
p2555
sS'chunkid'
p2556
S'JJP'
p2557
sS'drel'
p2558
S'nmod:NP9'
p2559
sS'chunktype'
p2560
S'head:JJP'
p2561
ssbsg26
I00
sg27
I00
sg28
Nsg29
Nsg30
I9
sg31
I3
sg32
Nsg33
Nsg34
S'JJ'
p2562
sg36
g2547
sg37
I00
sba(issf_api
Word
p2563
(dp2564
g6
I00
sg7
V\u0926\u0938\u094d\u0924\u093e\u0935\u0947\u091c
p2565
sg9
(issf_api
FeatureSet
p2566
(dp2567
g12
(dp2568
S'posn'
p2569
S'190'
p2570
sS'name'
p2571
S'\xe0\xa4\xa6\xe0\xa4\xb8\xe0\xa5\x8d\xe0\xa4\xa4\xe0\xa4\xbe\xe0\xa4\xb5\xe0\xa5\x87\xe0\xa4\x9c'
p2572
sS'af'
p2573
S'\xe0\xa4\xa6\xe0\xa4\xb8\xe0\xa5\x8d\xe0\xa4\xa4\xe0\xa4\xbe\xe0\xa4\xb5\xe0\xa5\x87\xe0\xa4\x9c,n,m,pl,3,d,0,0'
p2574
sS'chunkid'
p2575
S'NP9'
p2576
sS'drel'
p2577
S'k2:VGNN2'
p2578
sS'chunktype'
p2579
S'head:NP9'
p2580
ssbsg26
I00
sg27
I00
sg28
Nsg29
Nsg30
I10
sg31
I3
sg32
Nsg33
Nsg34
S'NN'
p2581
sg36
g2566
sg37
I00
sba(issf_api
Word
p2582
(dp2583
g6
I00
sg7
V\u091c\u092c\u094d\u0924
p2584
sg9
(issf_api
FeatureSet
p2585
(dp2586
g12
(dp2587
S'posn'
p2588
S'200'
p2589
sS'name'
p2590
S'\xe0\xa4\x9c\xe0\xa4\xac\xe0\xa5\x8d\xe0\xa4\xa4'
p2591
sS'af'
p2592
S'\xe0\xa4\x9c\xe0\xa4\xac\xe0\xa5\x8d\xe0\xa4\xa4,adj,any,any,,,,'
p2593
sS'chunkid'
p2594
S'JJP2'
p2595
sS'drel'
p2596
S'pof:VGNN2'
p2597
sS'chunktype'
p2598
S'head:JJP2'
p2599
ssbsg26
I00
sg27
I00
sg28
Nsg29
Nsg30
I11
sg31
I3
sg32
Nsg33
Nsg34
S'JJ'
p2600
sg36
g2585
sg37
I00
sba(issf_api
Word
p2601
(dp2602
g6
I00
sg7
V\u0915\u0930\u0928\u0947
p2603
sg9
(issf_api
FeatureSet
p2604
(dp2605
g12
(dp2606
S'posn'
p2607
S'210'
p2608
sS'name'
p2609
S'\xe0\xa4\x95\xe0\xa4\xb0\xe0\xa4\xa8\xe0\xa5\x872'
p2610
sS'af'
p2611
S'\xe0\xa4\x95\xe0\xa4\xb0,v,any,sg,any,o,\xe0\xa4\xa8\xe0\xa4\xbe_\xe0\xa4\x95\xe0\xa4\xbe,nA'
p2612
sS'chunkid'
p2613
S'VGNN2'
p2614
sS'drel'
p2615
S'ccof:NULL__CCP'
p2616
sS'vpos'
p2617
S'tam_2'
p2618
sS'chunktype'
p2619
S'head:VGNN2'
p2620
ssbsg26
I00
sg27
I00
sg28
Nsg29
Nsg30
I12
sg31
I3
sg32
Nsg33
Nsg34
S'VM'
p2621
sg36
g2604
sg37
I00
sba(issf_api
Word
p2622
(dp2623
g6
I00
sg7
V\u0915\u0940
p2624
sg9
(issf_api
FeatureSet
p2625
(dp2626
g12
(dp2627
S'posn'
p2628
S'220'
p2629
sS'name'
p2630
S'\xe0\xa4\x95\xe0\xa5\x802'
p2631
sS'drel'
p2632
S'lwg__psp:VGNN2'
p2633
sS'chunktype'
p2634
S'child:VGNN2'
p2635
sS'af'
p2636
S'\xe0\xa4\x95\xe0\xa4\xbe,psp,f,sg,,d,,'
p2637
ssbsg26
I00
sg27
I00
sg28
Nsg29
Nsg30
I12
sg31
I3
sg32
Nsg33
Nsg34
S'PSP'
p2638
sg36
g2625
sg37
I00
sba(issf_api
Word
p2639
(dp2640
g6
I00
sg7
V\u092e\u093e\u0902\u0917
p2641
sg9
(issf_api
FeatureSet
p2642
(dp2643
g12
(dp2644
S'posn'
p2645
S'230'
p2646
sS'name'
p2647
S'\xe0\xa4\xae\xe0\xa4\xbe\xe0\xa4\x82\xe0\xa4\x97'
p2648
sS'af'
p2649
S'\xe0\xa4\xae\xe0\xa4\xbe\xe0\xa4\x82\xe0\xa4\x97,n,f,sg,3,d,0,0'
p2650
sS'chunkid'
p2651
S'NP10'
p2652
sS'drel'
p2653
S'pof:VGF'
p2654
sS'chunktype'
p2655
S'head:NP10'
p2656
ssbsg26
I00
sg27
I00
sg28
Nsg29
Nsg30
I13
sg31
I3
sg32
Nsg33
Nsg34
S'NN'
p2657
sg36
g2642
sg37
I00
sba(issf_api
Word
p2658
(dp2659
g6
I00
sg7
V\u0915\u0940
p2660
sg9
(issf_api
FeatureSet
p2661
(dp2662
g12
(dp2663
S'posn'
p2664
S'240'
p2665
sS'name'
p2666
S'\xe0\xa4\x95\xe0\xa5\x803'
p2667
sS'af'
p2668
S'\xe0\xa4\x95\xe0\xa4\xb0,v,f,sg,any,,\xe0\xa4\xaf\xe0\xa4\xbe,yA'
p2669
sS'chunkid'
p2670
S'VGF'
p2671
sS'chunktype'
p2672
S'head:VGF'
p2673
sS'voicetype'
p2674
S'active'
p2675
sS'stype'
p2676
S'declarative'
p2677
ssbsg26
I00
sg27
I00
sg28
Nsg29
Nsg30
I14
sg31
I3
sg32
Nsg33
Nsg34
S'VM'
p2678
sg36
g2661
sg37
I00
sba(issf_api
Word
p2679
(dp2680
g6
I00
sg7
V\u0964
p2681
sg9
(issf_api
FeatureSet
p2682
(dp2683
g12
(dp2684
S'posn'
p2685
S'250'
p2686
sS'name'
p2687
S'\xe0\xa5\xa4'
p2688
sS'af'
p2689
S'\xe0\xa5\xa4,punc,,,,,,'
p2690
sS'chunkid'
p2691
S'BLK'
p2692
sS'drel'
p2693
S'rsym:VGF'
p2694
sS'chunktype'
p2695
S'head:BLK'
p2696
ssbsg26
I00
sg27
I00
sg28
Nsg29
Nsg30
I15
sg31
I3
sg32
Nsg33
Nsg34
S'SYM'
p2697
sg36
g2682
sg37
I00
sba(issf_api
Word
p2698
(dp2699
g6
I00
sg7
V\u0932\u0948\u0938
p2700
sg9
(issf_api
FeatureSet
p2701
(dp2702
g12
(dp2703
S'crefhead'
p2704
S'\xe0\xa4\xb2\xe0\xa5\x88\xe0\xa4\xb8:i26'
p2705
sS'posn'
p2706
S'10'
p2707
sS'name'
p2708
S'\xe0\xa4\xb2\xe0\xa5\x88\xe0\xa4\xb8'
p2709
sS'af'
p2710
S'\xe0\xa4\xb2\xe0\xa5\x88\xe0\xa4\xb8,n,m,sg,3,o,0_\xe0\xa4\xa8\xe0\xa5\x87,0'
p2711
sS'chunkid'
p2712
S'NP'
p2713
sS'creftype'
p2714
S'Coreference-Identity:i23'
p2715
sS'chunktype'
p2716
S'head:NP'
p2717
sS'vpos'
p2718
S'vib_2'
p2719
sS'cref'
p2720
S'i26%1:t2'
p2721
sS'drel'
p2722
S'k1:VGF'
p2723
ssbsg26
I00
sg27
I00
sg28
Nsg29
Nsg30
I0
sg31
I4
sg32
Nsg33
Nsg34
S'NNP'
p2724
sg36
g2701
sg37
I00
sba(issf_api
Word
p2725
(dp2726
g6
I00
sg7
V\u0928\u0947
p2727
sg9
(issf_api
FeatureSet
p2728
(dp2729
g12
(dp2730
S'posn'
p2731
S'20'
p2732
sS'name'
p2733
S'\xe0\xa4\xa8\xe0\xa5\x87'
p2734
sS'drel'
p2735
S'lwg__psp:NP'
p2736
sS'chunktype'
p2737
S'child:NP'
p2738
sS'af'
p2739
S'\xe0\xa4\xa8\xe0\xa5\x87,psp,,,,,,'
p2740
ssbsg26
I00
sg27
I00
sg28
Nsg29
Nsg30
I0
sg31
I4
sg32
Nsg33
Nsg34
S'PSP'
p2741
sg36
g2728
sg37
I00
sba(issf_api
Word
p2742
(dp2743
g6
I00
sg7
V\u0926\u093e\u0935\u093e
p2744
sg9
(issf_api
FeatureSet
p2745
(dp2746
g12
(dp2747
S'posn'
p2748
S'30'
p2749
sS'name'
p2750
S'\xe0\xa4\xa6\xe0\xa4\xbe\xe0\xa4\xb5\xe0\xa4\xbe'
p2751
sS'af'
p2752
S'\xe0\xa4\xa6\xe0\xa4\xbe\xe0\xa4\xb5\xe0\xa4\xbe,n,m,sg,3,d,0,0'
p2753
sS'chunkid'
p2754
S'NP2'
p2755
sS'drel'
p2756
S'pof:VGF'
p2757
sS'chunktype'
p2758
S'head:NP2'
p2759
ssbsg26
I00
sg27
I00
sg28
Nsg29
Nsg30
I1
sg31
I4
sg32
Nsg33
Nsg34
S'NN'
p2760
sg36
g2745
sg37
I00
sba(issf_api
Word
p2761
(dp2762
g6
I00
sg7
V\u0915\u093f\u092f\u093e
p2763
sg9
(issf_api
FeatureSet
p2764
(dp2765
g12
(dp2766
S'posn'
p2767
S'40'
p2768
sS'name'
p2769
S'\xe0\xa4\x95\xe0\xa4\xbf\xe0\xa4\xaf\xe0\xa4\xbe'
p2770
sS'af'
p2771
S'\xe0\xa4\x95\xe0\xa4\xb0,v,m,sg,any,,\xe0\xa4\xaf\xe0\xa4\xbe,yA'
p2772
sS'chunkid'
p2773
S'VGF'
p2774
sS'chunktype'
p2775
S'head:VGF'
p2776
sS'voicetype'
p2777
S'active'
p2778
sS'stype'
p2779
S'declarative'
p2780
ssbsg26
I00
sg27
I00
sg28
Nsg29
Nsg30
I2
sg31
I4
sg32
Nsg33
Nsg34
S'VM'
p2781
sg36
g2764
sg37
I00
sba(issf_api
Word
p2782
(dp2783
g6
I00
sg7
V\u0915\u093f
p2784
sg9
(issf_api
FeatureSet
p2785
(dp2786
g12
(dp2787
S'posn'
p2788
S'50'
p2789
sS'name'
p2790
S'\xe0\xa4\x95\xe0\xa4\xbf'
p2791
sS'af'
p2792
S'\xe0\xa4\x95\xe0\xa4\xbf,avy,,,,,,'
p2793
sS'chunkid'
p2794
S'CCP'
p2795
sS'drel'
p2796
S'k2:VGF'
p2797
sS'chunktype'
p2798
S'head:CCP'
p2799
ssbsg26
I00
sg27
I00
sg28
Nsg29
Nsg30
I3
sg31
I4
sg32
Nsg33
Nsg34
S'CC'
p2800
sg36
g2785
sg37
I00
sba(issf_api
Word
p2801
(dp2802
g6
I00
sg7
V\u091c\u092c
p2803
sg9
(issf_api
FeatureSet
p2804
(dp2805
g12
(dp2806
S'crefhead'
p2807
S'\xe0\xa4\x9c\xe0\xa4\xac:i27'
p2808
sS'posn'
p2809
S'60'
p2810
sS'name'
p2811
S'\xe0\xa4\x9c\xe0\xa4\xac'
p2812
sS'af'
p2813
S'\xe0\xa4\x9c\xe0\xa4\xac,pn,,,,d,,'
p2814
sS'coref'
p2815
S':NP12'
p2816
sS'chunkid'
p2817
S'NP3'
p2818
sS'creftype'
p2819
S'anaphora-?:i27'
p2820
sS'chunktype'
p2821
S'head:NP3'
p2822
sS'crefchainhead'
p2823
S'i27:t9'
p2824
sS'cref'
p2825
S'i27%1:t9'
p2826
sS'drel'
p2827
S'k7t:VGF2'
p2828
ssbsg26
I00
sg27
I00
sg28
Nsg29
Nsg30
I4
sg31
I4
sg32
Nsg33
Nsg34
S'PRP'
p2829
sg36
g2804
sg37
I00
sba(issf_api
Word
p2830
(dp2831
g6
I00
sg7
V\u0938\u0932\u0947\u092e
p2832
sg9
(issf_api
FeatureSet
p2833
(dp2834
g12
(dp2835
S'crefhead'
p2836
S'\xe0\xa4\xb8\xe0\xa4\xb2\xe0\xa5\x87\xe0\xa4\xae:i28'
p2837
sS'posn'
p2838
S'70'
p2839
sS'name'
p2840
S'\xe0\xa4\xb8\xe0\xa4\xb2\xe0\xa5\x87\xe0\xa4\xae'
p2841
sS'af'
p2842
S'\xe0\xa4\xb8\xe0\xa4\xb2\xe0\xa5\x87\xe0\xa4\xae,n,m,sg,3,o,0_\xe0\xa4\x95\xe0\xa4\xbe,0'
p2843
sS'acrefmodhead'
p2844
S'\xe0\xa4\xb8\xe0\xa4\xb2\xe0\xa5\x87\xe0\xa4\xae:m4'
p2845
sS'chunkid'
p2846
S'NP4'
p2847
sS'acrefmod'
p2848
S'm4%1:i29'
p2849
sS'creftype'
p2850
S'Coreference-Identity:i25'
p2851
sS'chunktype'
p2852
S'head:NP4'
p2853
sS'vpos'
p2854
S'vib_2'
p2855
sS'cref'
p2856
S'i28%1:t1'
p2857
sS'drel'
p2858
S'r6:NP5'
p2859
ssbsg26
I00
sg27
I00
sg28
Nsg29
Nsg30
I5
sg31
I4
sg32
Nsg33
Nsg34
S'NNP'
p2860
sg36
g2833
sg37
I00
sba(issf_api
Word
p2861
(dp2862
g6
I00
sg7
V\u0915\u093e
p2863
sg9
(issf_api
FeatureSet
p2864
(dp2865
g12
(dp2866
S'posn'
p2867
S'80'
p2868
sS'name'
p2869
S'\xe0\xa4\x95\xe0\xa4\xbe'
p2870
sS'drel'
p2871
S'lwg__psp:NP4'
p2872
sS'chunktype'
p2873
S'child:NP4'
p2874
sS'af'
p2875
S'\xe0\xa4\x95\xe0\xa4\xbe,psp,m,sg,,d,,'
p2876
ssbsg26
I00
sg27
I00
sg28
Nsg29
Nsg30
I5
sg31
I4
sg32
Nsg33
Nsg34
S'PSP'
p2877
sg36
g2864
sg37
I00
sba(issf_api
Word
p2878
(dp2879
g6
I00
sg7
V\u0935\u0915\u0940\u0932
p2880
sg9
(issf_api
FeatureSet
p2881
(dp2882
g12
(dp2883
S'crefhead'
p2884
S'\xe0\xa4\xb5\xe0\xa4\x95\xe0\xa5\x80\xe0\xa4\xb2:i29'
p2885
sS'posn'
p2886
S'90'
p2887
sS'name'
p2888
S'\xe0\xa4\xb5\xe0\xa4\x95\xe0\xa5\x80\xe0\xa4\xb2'
p2889
sS'af'
p2890
S'\xe0\xa4\xb5\xe0\xa4\x95\xe0\xa5\x80\xe0\xa4\xb2,n,m,sg,3,d,0,0'
p2891
sS'chunkid'
p2892
S'NP5'
p2893
sS'crefmod'
p2894
S'm4:i29'
p2895
sS'chunktype'
p2896
S'head:NP5'
p2897
sS'cref'
p2898
S'i29%1:t10'
p2899
sS'drel'
p2900
S'nmod:NP6'
p2901
ssbsg26
I00
sg27
I00
sg28
Nsg29
Nsg30
I6
sg31
I4
sg32
Nsg33
Nsg34
S'NN'
p2902
sg36
g2881
sg37
I00
sba(issf_api
Word
p2903
(dp2904
g6
I00
sg7
V\u0930\u093e\u0936\u0926
p2905
sg9
(issf_api
FeatureSet
p2906
(dp2907
g12
(dp2908
S'posn'
p2909
S'100'
p2910
sS'name'
p2911
S'\xe0\xa4\xb0\xe0\xa4\xbe\xe0\xa4\xb6\xe0\xa4\xa6'
p2912
sS'af'
p2913
S'\xe0\xa4\xb0\xe0\xa4\xbe\xe0\xa4\xb6\xe0\xa4\xa6,n,m,sg,3,d,0,0'
p2914
sS'drel'
p2915
S'pof__cn:NP6'
p2916
sS'chunktype'
p2917
S'child:NP6'
p2918
sS'cref'
p2919
S'i30%0:t10'
p2920
ssbsg26
I00
sg27
I00
sg28
Nsg29
Nsg30
I7
sg31
I4
sg32
Nsg33
Nsg34
S'NNPC'
p2921
sg36
g2906
sg37
I00
sba(issf_api
Word
p2922
(dp2923
g6
I00
sg7
V\u0905\u0902\u0938\u093e\u0930\u0940
p2924
sg9
(issf_api
FeatureSet
p2925
(dp2926
g12
(dp2927
S'crefhead'
p2928
S'\xe0\xa4\x85\xe0\xa4\x82\xe0\xa4\xb8\xe0\xa4\xbe\xe0\xa4\xb0\xe0\xa5\x80:i30'
p2929
sS'posn'
p2930
S'110'
p2931
sS'name'
p2932
S'\xe0\xa4\x85\xe0\xa4\x82\xe0\xa4\xb8\xe0\xa4\xbe\xe0\xa4\xb0\xe0\xa5\x80'
p2933
sS'af'
p2934
S'\xe0\xa4\x85\xe0\xa4\x82\xe0\xa4\xb8\xe0\xa4\xbe\xe0\xa4\xb0\xe0\xa5\x80,n,m,sg,3,d,0,0'
p2935
sS'chunkid'
p2936
S'NP6'
p2937
sS'creftype'
p2938
S'Coreference-NounComplement:i29'
p2939
sS'chunktype'
p2940
S'head:NP6'
p2941
sS'crefchainhead'
p2942
S'i30:t10'
p2943
sS'cref'
p2944
S'i30%1:t10'
p2945
sS'drel'
p2946
S'k1:VGF2'
p2947
ssbsg26
I00
sg27
I00
sg28
Nsg29
Nsg30
I7
sg31
I4
sg32
Nsg33
Nsg34
S'NNP'
p2948
sg36
g2925
sg37
I00
sba(issf_api
Word
p2949
(dp2950
g6
I00
sg7
V25
p2951
sg9
(issf_api
FeatureSet
p2952
(dp2953
g12
(dp2954
S'posn'
p2955
S'120'
p2956
sS'name'
p2957
S'25'
p2958
sS'drel'
p2959
S'pof__cn:NP7'
p2960
sS'chunktype'
p2961
S'child:NP7'
p2962
sS'af'
p2963
S'25,n,any,sg,3,d,0,0'
p2964
ssbsg26
I00
sg27
I00
sg28
Nsg29
Nsg30
I8
sg31
I4
sg32
Nsg33
Nsg34
S'NNPC'
p2965
sg36
g2952
sg37
I00
sba(issf_api
Word
p2966
(dp2967
g6
I00
sg7
V\u0928\u0935\u0902\u092c\u0930
p2968
sg9
(issf_api
FeatureSet
p2969
(dp2970
g12
(dp2971
S'posn'
p2972
S'130'
p2973
sS'name'
p2974
S'\xe0\xa4\xa8\xe0\xa4\xb5\xe0\xa4\x82\xe0\xa4\xac\xe0\xa4\xb0'
p2975
sS'af'
p2976
S'\xe0\xa4\xa8\xe0\xa4\xb5\xe0\xa4\x82\xe0\xa4\xac\xe0\xa4\xb0,n,m,sg,3,o,0_\xe0\xa4\x95\xe0\xa5\x8b,0'
p2977
sS'chunkid'
p2978
S'NP7'
p2979
sS'drel'
p2980
S'k7t:VGF2'
p2981
sS'vpos'
p2982
S'vib_3'
p2983
sS'chunktype'
p2984
S'head:NP7'
p2985
ssbsg26
I00
sg27
I00
sg28
Nsg29
Nsg30
I8
sg31
I4
sg32
Nsg33
Nsg34
S'NNP'
p2986
sg36
g2969
sg37
I00
sba(issf_api
Word
p2987
(dp2988
g6
I00
sg7
V\u0915\u094b
p2989
sg9
(issf_api
FeatureSet
p2990
(dp2991
g12
(dp2992
S'posn'
p2993
S'140'
p2994
sS'name'
p2995
S'\xe0\xa4\x95\xe0\xa5\x8b'
p2996
sS'drel'
p2997
S'lwg__psp:NP7'
p2998
sS'chunktype'
p2999
S'child:NP7'
p3000
sS'af'
p3001
S'\xe0\xa4\x95\xe0\xa5\x8b,psp,,,,,,'
p3002
ssbsg26
I00
sg27
I00
sg28
Nsg29
Nsg30
I8
sg31
I4
sg32
Nsg33
Nsg34
S'PSP'
p3003
sg36
g2990
sg37
I00
sba(issf_api
Word
p3004
(dp3005
g6
I00
sg7
V\u090f\u091f\u0940\u090f\u0938
p3006
sg9
(issf_api
FeatureSet
p3007
(dp3008
g12
(dp3009
S'crefhead'
p3010
S'\xe0\xa4\x8f\xe0\xa4\x9f\xe0\xa5\x80\xe0\xa4\x8f\xe0\xa4\xb8:i31'
p3011
sS'posn'
p3012
S'150'
p3013
sS'name'
p3014
S'\xe0\xa4\x8f\xe0\xa4\x9f\xe0\xa5\x80\xe0\xa4\x8f\xe0\xa4\xb8'
p3015
sS'af'
p3016
S'\xe0\xa4\x8f\xe0\xa4\x9f\xe0\xa5\x80\xe0\xa4\x8f\xe0\xa4\xb8,n,m,sg,3,o,0_\xe0\xa4\x95\xe0\xa4\xbe,0'
p3017
sS'chunkid'
p3018
S'NP8'
p3019
sS'creftype'
p3020
S'Coreference-Identity:i20'
p3021
sS'chunktype'
p3022
S'head:NP8'
p3023
sS'vpos'
p3024
S'vib_2'
p3025
sS'cref'
p3026
S'i31%1:t6'
p3027
sS'drel'
p3028
S'r6:NP9'
p3029
ssbsg26
I00
sg27
I00
sg28
Nsg29
Nsg30
I9
sg31
I4
sg32
Nsg33
Nsg34
S'NNP'
p3030
sg36
g3007
sg37
I00
sba(issf_api
Word
p3031
(dp3032
g6
I00
sg7
V\u0915\u0940
p3033
sg9
(issf_api
FeatureSet
p3034
(dp3035
g12
(dp3036
S'posn'
p3037
S'160'
p3038
sS'name'
p3039
S'\xe0\xa4\x95\xe0\xa5\x80'
p3040
sS'drel'
p3041
S'lwg__psp:NP8'
p3042
sS'chunktype'
p3043
S'child:NP8'
p3044
sS'af'
p3045
S'\xe0\xa4\x95\xe0\xa4\xbe,psp,f,sg,,o,,'
p3046
ssbsg26
I00
sg27
I00
sg28
Nsg29
Nsg30
I9
sg31
I4
sg32
Nsg33
Nsg34
S'PSP'
p3047
sg36
g3034
sg37
I00
sba(issf_api
Word
p3048
(dp3049
g6
I00
sg7
V\u0939\u093f\u0930\u093e\u0938\u0924
p3050
sg9
(issf_api
FeatureSet
p3051
(dp3052
g12
(dp3053
S'posn'
p3054
S'170'
p3055
sS'name'
p3056
S'\xe0\xa4\xb9\xe0\xa4\xbf\xe0\xa4\xb0\xe0\xa4\xbe\xe0\xa4\xb8\xe0\xa4\xa4'
p3057
sS'af'
p3058
S'\xe0\xa4\xb9\xe0\xa4\xbf\xe0\xa4\xb0\xe0\xa4\xbe\xe0\xa4\xb8\xe0\xa4\xa4,n,f,sg,3,o,0_\xe0\xa4\xae\xe0\xa5\x87\xe0\xa4\x82,0'
p3059
sS'chunkid'
p3060
S'NP9'
p3061
sS'drel'
p3062
S'k7:VGF2'
p3063
sS'vpos'
p3064
S'vib_2'
p3065
sS'chunktype'
p3066
S'head:NP9'
p3067
ssbsg26
I00
sg27
I00
sg28
Nsg29
Nsg30
I10
sg31
I4
sg32
Nsg33
Nsg34
S'NN'
p3068
sg36
g3051
sg37
I00
sba(issf_api
Word
p3069
(dp3070
g6
I00
sg7
V\u092e\u0947\u0902
p3071
sg9
(issf_api
FeatureSet
p3072
(dp3073
g12
(dp3074
S'posn'
p3075
S'180'
p3076
sS'name'
p3077
S'\xe0\xa4\xae\xe0\xa5\x87\xe0\xa4\x82'
p3078
sS'drel'
p3079
S'lwg__psp:NP9'
p3080
sS'chunktype'
p3081
S'child:NP9'
p3082
sS'af'
p3083
S'\xe0\xa4\xae\xe0\xa5\x87\xe0\xa4\x82,psp,,,,,,'
p3084
ssbsg26
I00
sg27
I00
sg28
Nsg29
Nsg30
I10
sg31
I4
sg32
Nsg33
Nsg34
S'PSP'
p3085
sg36
g3072
sg37
I00
sba(issf_api
Word
p3086
(dp3087
g6
I00
sg7
V\u0909\u0928\u0915\u0947
p3088
sg9
(issf_api
FeatureSet
p3089
(dp3090
g12
(dp3091
S'crefhead'
p3092
S'\xe0\xa4\x89\xe0\xa4\xa8\xe0\xa4\x95\xe0\xa5\x87:i32'
p3093
sS'posn'
p3094
S'190'
p3095
sS'name'
p3096
S'\xe0\xa4\x89\xe0\xa4\xa8\xe0\xa4\x95\xe0\xa5\x87'
p3097
sS'af'
p3098
S'\xe0\xa4\xb5\xe0\xa4\xb9,pn,m,sg,3h,o,\xe0\xa4\x95\xe0\xa4\xbe,kA'
p3099
sS'chunkid'
p3100
S'NP10'
p3101
sS'creftype'
p3102
S'Anaphora-C:i26'
p3103
sS'chunktype'
p3104
S'head:NP10'
p3105
sS'cref'
p3106
S'i32%1:t2'
p3107
sS'drel'
p3108
S'r6:NP11'
p3109
ssbsg26
I00
sg27
I00
sg28
Nsg29
Nsg30
I11
sg31
I4
sg32
Nsg33
Nsg34
S'PRP'
p3110
sg36
g3089
sg37
I00
sba(issf_api
Word
p3111
(dp3112
g6
I00
sg7
V\u092d\u093e\u0908
p3113
sg9
(issf_api
FeatureSet
p3114
(dp3115
g12
(dp3116
S'posn'
p3117
S'200'
p3118
sS'name'
p3119
S'\xe0\xa4\xad\xe0\xa4\xbe\xe0\xa4\x88'
p3120
sS'af'
p3121
S'\xe0\xa4\xad\xe0\xa4\xbe\xe0\xa4\x88,n,m,sg,3,o,0_\xe0\xa4\xb8\xe0\xa5\x87,0'
p3122
sS'chunkid'
p3123
S'NP11'
p3124
sS'drel'
p3125
S'k2:VGF2'
p3126
sS'vpos'
p3127
S'vib_2'
p3128
sS'chunktype'
p3129
S'head:NP11'
p3130
ssbsg26
I00
sg27
I00
sg28
Nsg29
Nsg30
I12
sg31
I4
sg32
Nsg33
Nsg34
S'NN'
p3131
sg36
g3114
sg37
I00
sba(issf_api
Word
p3132
(dp3133
g6
I00
sg7
V\u0938\u0947
p3134
sg9
(issf_api
FeatureSet
p3135
(dp3136
g12
(dp3137
S'posn'
p3138
S'210'
p3139
sS'name'
p3140
S'\xe0\xa4\xb8\xe0\xa5\x87'
p3141
sS'drel'
p3142
S'lwg__psp:NP11'
p3143
sS'chunktype'
p3144
S'child:NP11'
p3145
sS'af'
p3146
S'\xe0\xa4\xb8\xe0\xa5\x87,psp,,,,,,'
p3147
ssbsg26
I00
sg27
I00
sg28
Nsg29
Nsg30
I12
sg31
I4
sg32
Nsg33
Nsg34
S'PSP'
p3148
sg36
g3135
sg37
I00
sba(issf_api
Word
p3149
(dp3150
g6
I00
sg7
V\u092e\u093f\u0932\u0928\u0947
p3151
sg9
(issf_api
FeatureSet
p3152
(dp3153
g12
(dp3154
S'posn'
p3155
S'220'
p3156
sS'name'
p3157
S'\xe0\xa4\xae\xe0\xa4\xbf\xe0\xa4\xb2\xe0\xa4\xa8\xe0\xa5\x87'
p3158
sS'af'
p3159
S'\xe0\xa4\xae\xe0\xa4\xbf\xe0\xa4\xb2,v,any,any,any,o,\xe0\xa4\xa8\xe0\xa4\xbe,nA'
p3160
sS'chunkid'
p3161
S'VGNN'
p3162
sS'drel'
p3163
S'rt:VGF2'
p3164
sS'chunktype'
p3165
S'head:VGNN'
p3166
ssbsg26
I00
sg27
I00
sg28
Nsg29
Nsg30
I13
sg31
I4
sg32
Nsg33
Nsg34
S'VM'
p3167
sg36
g3152
sg37
I00
sba(issf_api
Word
p3168
(dp3169
g6
I00
sg7
V\u0917\u092f\u093e
p3170
sg9
(issf_api
FeatureSet
p3171
(dp3172
g12
(dp3173
S'posn'
p3174
S'230'
p3175
sS'name'
p3176
S'\xe0\xa4\x97\xe0\xa4\xaf\xe0\xa4\xbe'
p3177
sS'af'
p3178
S'\xe0\xa4\x9c\xe0\xa4\xbe,v,m,sg,any,,\xe0\xa4\xaf\xe0\xa4\xbe1_\xe0\xa4\xa5\xe0\xa4\xbe,yA1'
p3179
sS'chunkid'
p3180
S'VGF2'
p3181
sS'stype'
p3182
S'declarative'
p3183
sS'drel'
p3184
S'nmod__relc:NP12'
p3185
sS'voicetype'
p3186
S'active'
p3187
sS'vpos'
p3188
S'tam_2'
p3189
sS'chunktype'
p3190
S'head:VGF2'
p3191
ssbsg26
I00
sg27
I00
sg28
Nsg29
Nsg30
I14
sg31
I4
sg32
Nsg33
Nsg34
S'VM'
p3192
sg36
g3171
sg37
I00
sba(issf_api
Word
p3193
(dp3194
g6
I00
sg7
V\u0925\u093e
p3195
sg9
(issf_api
FeatureSet
p3196
(dp3197
g12
(dp3198
S'posn'
p3199
S'240'
p3200
sS'name'
p3201
S'\xe0\xa4\xa5\xe0\xa4\xbe'
p3202
sS'drel'
p3203
S'lwg__vaux:VGF2'
p3204
sS'chunktype'
p3205
S'child:VGF2'
p3206
sS'af'
p3207
S'\xe0\xa4\xa5\xe0\xa4\xbe,v,m,sg,any,,\xe0\xa4\xa5\xe0\xa4\xbe,WA'
p3208
ssbsg26
I00
sg27
I00
sg28
Nsg29
Nsg30
I14
sg31
I4
sg32
Nsg33
Nsg34
S'VAUX'
p3209
sg36
g3196
sg37
I00
sba(issf_api
Word
p3210
(dp3211
g6
I00
sg7
V,
p3212
sg9
(issf_api
FeatureSet
p3213
(dp3214
g12
(dp3215
S'posn'
p3216
S'250'
p3217
sS'name'
p3218
S','
p3219
sS'drel'
p3220
S'rsym:VGF2'
p3221
sS'chunktype'
p3222
S'child:VGF2'
p3223
sS'af'
p3224
S'COMMA,punc,,,,,,'
p3225
ssbsg26
I00
sg27
I00
sg28
Nsg29
Nsg30
I14
sg31
I4
sg32
Nsg33
Nsg34
S'SYM'
p3226
sg36
g3213
sg37
I00
sba(issf_api
Word
p3227
(dp3228
g6
I00
sg7
V\u0924\u094b
p3229
sg9
(issf_api
FeatureSet
p3230
(dp3231
g12
(dp3232
S'crefhead'
p3233
S'\xe0\xa4\xa4\xe0\xa5\x8b:i33'
p3234
sS'posn'
p3235
S'260'
p3236
sS'name'
p3237
S'\xe0\xa4\xa4\xe0\xa5\x8b'
p3238
sS'af'
p3239
S'\xe0\xa4\xa4\xe0\xa5\x8b,pn,,,,,,'
p3240
sS'chunkid'
p3241
S'NP12'
p3242
sS'creftype'
p3243
S'anaphora-?:i33'
p3244
sS'chunktype'
p3245
S'head:NP12'
p3246
sS'crefchainhead'
p3247
S'i33:t11'
p3248
sS'cref'
p3249
S'i33%1:t11'
p3250
sS'drel'
p3251
S'k7t:VGF3'
p3252
ssbsg26
I00
sg27
I00
sg28
Nsg29
Nsg30
I15
sg31
I4
sg32
Nsg33
Nsg34
S'PRP'
p3253
sg36
g3230
sg37
I00
sba(issf_api
Word
p3254
(dp3255
g6
I00
sg7
V\u0909\u0938\u0928\u0947
p3256
sg9
(issf_api
FeatureSet
p3257
(dp3258
g12
(dp3259
S'crefhead'
p3260
S'\xe0\xa4\x89\xe0\xa4\xb8\xe0\xa4\xa8\xe0\xa5\x87:i34'
p3261
sS'posn'
p3262
S'270'
p3263
sS'name'
p3264
S'\xe0\xa4\x89\xe0\xa4\xb8\xe0\xa4\xa8\xe0\xa5\x87'
p3265
sS'af'
p3266
S'\xe0\xa4\xb5\xe0\xa4\xb9,pn,any,sg,3,o,\xe0\xa4\xa8\xe0\xa5\x87,ne'
p3267
sS'chunkid'
p3268
S'NP13'
p3269
sS'creftype'
p3270
S'Anaphora-C:i30'
p3271
sS'chunktype'
p3272
S'head:NP13'
p3273
sS'cref'
p3274
S'i34%1:t10'
p3275
sS'drel'
p3276
S'k1:VGF3'
p3277
ssbsg26
I00
sg27
I00
sg28
Nsg29
Nsg30
I16
sg31
I4
sg32
Nsg33
Nsg34
S'PRP'
p3278
sg36
g3257
sg37
I00
sba(issf_api
Word
p3279
(dp3280
g6
I00
sg7
V\u092c\u0924\u093e\u092f\u093e
p3281
sg9
(issf_api
FeatureSet
p3282
(dp3283
g12
(dp3284
S'posn'
p3285
S'280'
p3286
sS'name'
p3287
S'\xe0\xa4\xac\xe0\xa4\xa4\xe0\xa4\xbe\xe0\xa4\xaf\xe0\xa4\xbe'
p3288
sS'af'
p3289
S'\xe0\xa4\xac\xe0\xa4\xa4\xe0\xa4\xbe,v,m,sg,any,,\xe0\xa4\xaf\xe0\xa4\xbe_\xe0\xa4\xa5\xe0\xa4\xbe,yA'
p3290
sS'chunkid'
p3291
S'VGF3'
p3292
sS'stype'
p3293
S'declarative'
p3294
sS'drel'
p3295
S'ccof:CCP'
p3296
sS'voicetype'
p3297
S'active'
p3298
sS'vpos'
p3299
S'tam_2'
p3300
sS'chunktype'
p3301
S'head:VGF3'
p3302
ssbsg26
I00
sg27
I00
sg28
Nsg29
Nsg30
I17
sg31
I4
sg32
Nsg33
Nsg34
S'VM'
p3303
sg36
g3282
sg37
I00
sba(issf_api
Word
p3304
(dp3305
g6
I00
sg7
V\u0925\u093e
p3306
sg9
(issf_api
FeatureSet
p3307
(dp3308
g12
(dp3309
S'posn'
p3310
S'290'
p3311
sS'name'
p3312
S'\xe0\xa4\xa5\xe0\xa4\xbe2'
p3313
sS'drel'
p3314
S'lwg__vaux:VGF3'
p3315
sS'chunktype'
p3316
S'child:VGF3'
p3317
sS'af'
p3318
S'\xe0\xa4\xa5\xe0\xa4\xbe,v,m,sg,any,,\xe0\xa4\xa5\xe0\xa4\xbe,WA'
p3319
ssbsg26
I00
sg27
I00
sg28
Nsg29
Nsg30
I17
sg31
I4
sg32
Nsg33
Nsg34
S'VAUX'
p3320
sg36
g3307
sg37
I00
sba(issf_api
Word
p3321
(dp3322
g6
I00
sg7
V\u0915\u093f
p3323
sg9
(issf_api
FeatureSet
p3324
(dp3325
g12
(dp3326
S'posn'
p3327
S'300'
p3328
sS'name'
p3329
S'\xe0\xa4\x95\xe0\xa4\xbf2'
p3330
sS'af'
p3331
S'\xe0\xa4\x95\xe0\xa4\xbf,avy,,,,,,'
p3332
sS'chunkid'
p3333
S'CCP2'
p3334
sS'drel'
p3335
S'k2:VGF3'
p3336
sS'chunktype'
p3337
S'head:CCP2'
p3338
ssbsg26
I00
sg27
I00
sg28
Nsg29
Nsg30
I18
sg31
I4
sg32
Nsg33
Nsg34
S'CC'
p3339
sg36
g3324
sg37
I00
sba(issf_api
Word
p3340
(dp3341
g6
I00
sg7
V\u092a\u0941\u0932\u093f\u0938
p3342
sg9
(issf_api
FeatureSet
p3343
(dp3344
g12
(dp3345
S'crefhead'
p3346
S'\xe0\xa4\xaa\xe0\xa5\x81\xe0\xa4\xb2\xe0\xa4\xbf\xe0\xa4\xb8:i35'
p3347
sS'posn'
p3348
S'310'
p3349
sS'name'
p3350
S'\xe0\xa4\xaa\xe0\xa5\x81\xe0\xa4\xb2\xe0\xa4\xbf\xe0\xa4\xb8'
p3351
sS'af'
p3352
S'\xe0\xa4\xaa\xe0\xa5\x81\xe0\xa4\xb2\xe0\xa4\xbf\xe0\xa4\xb8,n,f,sg,3,d,0,0'
p3353
sS'creftype'
p3354
S'Coreference-RPartOf:i6'
p3355
sS'drel'
p3356
S'pof__cn:NP14'
p3357
sS'chunktype'
p3358
S'child:NP14'
p3359
sS'cref'
p3360
S'i35%1:t5'
p3361
ssbsg26
I00
sg27
I00
sg28
Nsg29
Nsg30
I19
sg31
I4
sg32
Nsg33
Nsg34
S'NNC'
p3362
sg36
g3343
sg37
I00
sba(issf_api
Word
p3363
(dp3364
g6
I00
sg7
V\u0905\u0927\u093f\u0915\u093e\u0930\u093f\u092f\u094b\u0902
p3365
sg9
(issf_api
FeatureSet
p3366
(dp3367
g12
(dp3368
S'posn'
p3369
S'320'
p3370
sS'name'
p3371
S'\xe0\xa4\x85\xe0\xa4\xa7\xe0\xa4\xbf\xe0\xa4\x95\xe0\xa4\xbe\xe0\xa4\xb0\xe0\xa4\xbf\xe0\xa4\xaf\xe0\xa5\x8b\xe0\xa4\x82'
p3372
sS'af'
p3373
S'\xe0\xa4\x85\xe0\xa4\xa7\xe0\xa4\xbf\xe0\xa4\x95\xe0\xa4\xbe\xe0\xa4\xb0\xe0\xa5\x80,n,m,pl,3,o,0_\xe0\xa4\xa8\xe0\xa5\x87,0'
p3374
sS'chunkid'
p3375
S'NP14'
p3376
sS'drel'
p3377
S'k1:VGF4'
p3378
sS'vpos'
p3379
S'vib_3'
p3380
sS'chunktype'
p3381
S'head:NP14'
p3382
ssbsg26
I00
sg27
I00
sg28
Nsg29
Nsg30
I19
sg31
I4
sg32
Nsg33
Nsg34
S'NN'
p3383
sg36
g3366
sg37
I00
sba(issf_api
Word
p3384
(dp3385
g6
I00
sg7
V\u0928\u0947
p3386
sg9
(issf_api
FeatureSet
p3387
(dp3388
g12
(dp3389
S'posn'
p3390
S'330'
p3391
sS'name'
p3392
S'\xe0\xa4\xa8\xe0\xa5\x872'
p3393
sS'drel'
p3394
S'lwg__psp:NP14'
p3395
sS'chunktype'
p3396
S'child:NP14'
p3397
sS'af'
p3398
S'\xe0\xa4\xa8\xe0\xa5\x87,psp,,,,,,'
p3399
ssbsg26
I00
sg27
I00
sg28
Nsg29
Nsg30
I19
sg31
I4
sg32
Nsg33
Nsg34
S'PSP'
p3400
sg36
g3387
sg37
I00
sba(issf_api
Word
p3401
(dp3402
g6
I00
sg7
V\u0909\u0928\u0915\u0940
p3403
sg9
(issf_api
FeatureSet
p3404
(dp3405
g12
(dp3406
S'crefhead'
p3407
S'\xe0\xa4\x89\xe0\xa4\xa8\xe0\xa4\x95\xe0\xa5\x80:i36'
p3408
sS'posn'
p3409
S'340'
p3410
sS'name'
p3411
S'\xe0\xa4\x89\xe0\xa4\xa8\xe0\xa4\x95\xe0\xa5\x80'
p3412
sS'af'
p3413
S'\xe0\xa4\xb5\xe0\xa4\xb9,pn,any,sg,3h,o,\xe0\xa4\x95\xe0\xa4\xbe,kA'
p3414
sS'chunkid'
p3415
S'NP15'
p3416
sS'creftype'
p3417
S'Anaphora-C:i34'
p3418
sS'chunktype'
p3419
S'head:NP15'
p3420
sS'cref'
p3421
S'i36%1:t10'
p3422
sS'drel'
p3423
S'r6-k2:NP16'
p3424
ssbsg26
I00
sg27
I00
sg28
Nsg29
Nsg30
I20
sg31
I4
sg32
Nsg33
Nsg34
S'PRP'
p3425
sg36
g3404
sg37
I00
sba(issf_api
Word
p3426
(dp3427
g6
I00
sg7
V\u092a\u093f\u091f\u093e\u0908
p3428
sg9
(issf_api
FeatureSet
p3429
(dp3430
g12
(dp3431
S'posn'
p3432
S'350'
p3433
sS'name'
p3434
S'\xe0\xa4\xaa\xe0\xa4\xbf\xe0\xa4\x9f\xe0\xa4\xbe\xe0\xa4\x88'
p3435
sS'af'
p3436
S'\xe0\xa4\xaa\xe0\xa4\xbf\xe0\xa4\x9f\xe0\xa4\xbe\xe0\xa4\x88,n,f,sg,3,d,0,0'
p3437
sS'chunkid'
p3438
S'NP16'
p3439
sS'drel'
p3440
S'pof:VGF4'
p3441
sS'chunktype'
p3442
S'head:NP16'
p3443
ssbsg26
I00
sg27
I00
sg28
Nsg29
Nsg30
I21
sg31
I4
sg32
Nsg33
Nsg34
S'NN'
p3444
sg36
g3429
sg37
I00
sba(issf_api
Word
p3445
(dp3446
g6
I00
sg7
V\u0915\u0940
p3447
sg9
(issf_api
FeatureSet
p3448
(dp3449
g12
(dp3450
S'posn'
p3451
S'360'
p3452
sS'name'
p3453
S'\xe0\xa4\x95\xe0\xa5\x802'
p3454
sS'af'
p3455
S'\xe0\xa4\x95\xe0\xa4\xb0,v,f,sg,any,,\xe0\xa4\xaf\xe0\xa4\xbe_\xe0\xa4\xa5\xe0\xa4\xbe,yA'
p3456
sS'chunkid'
p3457
S'VGF4'
p3458
sS'stype'
p3459
S'declarative'
p3460
sS'drel'
p3461
S'ccof:CCP2'
p3462
sS'voicetype'
p3463
S'active'
p3464
sS'vpos'
p3465
S'tam_2'
p3466
sS'chunktype'
p3467
S'head:VGF4'
p3468
ssbsg26
I00
sg27
I00
sg28
Nsg29
Nsg30
I22
sg31
I4
sg32
Nsg33
Nsg34
S'VM'
p3469
sg36
g3448
sg37
I00
sba(issf_api
Word
p3470
(dp3471
g6
I00
sg7
V\u0925\u0940
p3472
sg9
(issf_api
FeatureSet
p3473
(dp3474
g12
(dp3475
S'posn'
p3476
S'370'
p3477
sS'name'
p3478
S'\xe0\xa4\xa5\xe0\xa5\x80'
p3479
sS'drel'
p3480
S'lwg__vaux:VGF4'
p3481
sS'chunktype'
p3482
S'child:VGF4'
p3483
sS'af'
p3484
S'\xe0\xa4\xa5\xe0\xa4\xbe,v,f,sg,any,,\xe0\xa4\xa5\xe0\xa4\xbe,WA'
p3485
ssbsg26
I00
sg27
I00
sg28
Nsg29
Nsg30
I22
sg31
I4
sg32
Nsg33
Nsg34
S'VAUX'
p3486
sg36
g3473
sg37
I00
sba(issf_api
Word
p3487
(dp3488
g6
I00
sg7
V\u0964
p3489
sg9
(issf_api
FeatureSet
p3490
(dp3491
g12
(dp3492
S'posn'
p3493
S'380'
p3494
sS'name'
p3495
S'\xe0\xa5\xa4'
p3496
sS'af'
p3497
S'\xe0\xa5\xa4,punc,,,,,,'
p3498
sS'chunkid'
p3499
S'BLK'
p3500
sS'drel'
p3501
S'rsym:VGF'
p3502
sS'chunktype'
p3503
S'head:BLK'
p3504
ssbsg26
I00
sg27
I00
sg28
Nsg29
Nsg30
I23
sg31
I4
sg32
Nsg33
Nsg34
S'SYM'
p3505
sg36
g3490
sg37
I00
sbasS'sentenceList'
p3506
(lp3507
(issf_api
Sentence
p3508
(dp3509
S'rootNode'
p3510
(lp3511
sg31
I0
sS'wordNumList'
p3512
(lp3513
I0
aI1
aI2
aI3
aI4
aI5
aI6
aI7
aI8
aI9
aI10
aI11
aI12
aI13
aI14
aI15
aI16
aI17
aI18
aI19
aI20
aI21
aI22
aI23
aI24
aI25
aI26
aI27
aI28
aI29
aI30
aI31
aI32
aI33
aI34
asS'nodeDict'
p3514
(dp3515
S'VGNF'
p3516
(issf_api
Node
p3517
(dp3518
S'nodeRelation'
p3519
S'vmod'
p3520
sS'nodeName'
p3521
g3516
sS'nodeParent'
p3522
S'VGF'
p3523
sS'nodeLevel'
p3524
I-1
sg30
I6
sS'childList'
p3525
(lp3526
S'JJP'
p3527
aS'NP5'
p3528
aS'NP4'
p3529
asbsS'NP10'
p3530
(issf_api
Node
p3531
(dp3532
g3519
S'pof'
p3533
sg3521
g3530
sg3522
S'VGF'
p3534
sg3524
I-1
sg30
I14
sg3525
(lp3535
S'VGNN'
p3536
asbsg3536
(issf_api
Node
p3537
(dp3538
g3519
S'r6-k2'
p3539
sg3521
g3536
sg3522
S'NP10'
p3540
sg3524
I-1
sg30
I13
sg3525
(lp3541
S'JJP2'
p3542
aS'NP9'
p3543
asbsS'VGF'
p3544
(issf_api
Node
p3545
(dp3546
g3519
S'None'
p3547
sg3521
g3544
sg3522
g3547
sg3524
I-1
sg30
I15
sg3525
(lp3548
g3516
ag3530
aS'BLK'
p3549
aS'NP7'
p3550
aS'NP3'
p3551
asbsg3527
(issf_api
Node
p3552
(dp3553
g3519
S'pof'
p3554
sg3521
g3527
sg3522
S'VGNF'
p3555
sg3524
I-1
sg30
I5
sg3525
(lp3556
sbsg3528
(issf_api
Node
p3557
(dp3558
g3519
S'k2'
p3559
sg3521
g3528
sg3522
S'VGNF'
p3560
sg3524
I-1
sg30
I4
sg3525
(lp3561
sbsg3542
(issf_api
Node
p3562
(dp3563
g3519
S'pof'
p3564
sg3521
g3542
sg3522
S'VGNN'
p3565
sg3524
I-1
sg30
I12
sg3525
(lp3566
sbsg3543
(issf_api
Node
p3567
(dp3568
g3519
S'k2'
p3569
sg3521
g3543
sg3522
S'VGNN'
p3570
sg3524
I-1
sg30
I11
sg3525
(lp3571
sbsS'NP8'
p3572
(issf_api
Node
p3573
(dp3574
g3519
S'rs'
p3575
sg3521
g3572
sg3522
S'NP7'
p3576
sg3524
I-1
sg30
I9
sg3525
(lp3577
sbsg3549
(issf_api
Node
p3578
(dp3579
g3519
S'rsym'
p3580
sg3521
g3549
sg3522
S'VGF'
p3581
sg3524
I-1
sg30
I16
sg3525
(lp3582
sbsS'FRAGP'
p3583
(issf_api
Node
p3584
(dp3585
g3519
S'fragof'
p3586
sg3521
g3583
sg3522
S'NP7'
p3587
sg3524
I-1
sg30
I10
sg3525
(lp3588
sbsS'NP'
p3589
(issf_api
Node
p3590
(dp3591
g3519
S'r6'
p3592
sg3521
g3589
sg3522
S'NP2'
p3593
sg3524
I-1
sg30
I0
sg3525
(lp3594
sbsg3529
(issf_api
Node
p3595
(dp3596
g3519
S'k7'
p3597
sg3521
g3529
sg3522
S'VGNF'
p3598
sg3524
I-1
sg30
I3
sg3525
(lp3599
sbsg3550
(issf_api
Node
p3600
(dp3601
g3519
S'k7'
p3602
sg3521
g3550
sg3522
S'VGF'
p3603
sg3524
I-1
sg30
I8
sg3525
(lp3604
g3572
ag3583
aS'NP6'
p3605
asbsg3605
(issf_api
Node
p3606
(dp3607
g3519
S'r6'
p3608
sg3521
g3605
sg3522
S'NP7'
p3609
sg3524
I-1
sg30
I7
sg3525
(lp3610
sbsg3551
(issf_api
Node
p3611
(dp3612
g3519
S'k1'
p3613
sg3521
g3551
sg3522
S'VGF'
p3614
sg3524
I-1
sg30
I2
sg3525
(lp3615
S'NP2'
p3616
asbsg3616
(issf_api
Node
p3617
(dp3618
g3519
S'nmod'
p3619
sg3521
g3616
sg3522
S'NP3'
p3620
sg3524
I-1
sg30
I1
sg3525
(lp3621
g3589
asbssS'chunkList'
p3622
(lp3623
(issf_api
Chunk
p3624
(dp3625
g3521
g95
sg30
I0
sS'chunkTag'
p3626
g108
sg31
I0
sg3512
(lp3627
I0
aI1
aI2
aI3
aI4
asg36
(issf_api
FeatureSet
p3628
(dp3629
g12
(dp3630
S'name'
p3631
g3589
sS'drel'
p3632
S'r6:NP2'
p3633
ssbsba(issf_api
Chunk
p3634
(dp3635
g3521
g141
sg30
I1
sg3626
g150
sg31
I0
sg3512
(lp3636
I5
asg36
(issf_api
FeatureSet
p3637
(dp3638
g12
(dp3639
S'name'
p3640
g3616
sS'drel'
p3641
S'nmod:NP3'
p3642
ssbsba(issf_api
Chunk
p3643
(dp3644
g3521
g185
sg30
I2
sg3626
g198
sg31
I0
sg3512
(lp3645
I6
aI7
aI8
asg36
(issf_api
FeatureSet
p3646
(dp3647
g12
(dp3648
S'name'
p3649
g3551
sS'drel'
p3650
S'k1:VGF'
p3651
ssbsba(issf_api
Chunk
p3652
(dp3653
g3521
g269
sg30
I3
sg3626
g280
sg31
I0
sg3512
(lp3654
I9
aI10
aI11
aI12
asg36
(issf_api
FeatureSet
p3655
(dp3656
g12
(dp3657
S'name'
p3658
g3529
sS'drel'
p3659
S'k7:VGNF'
p3660
ssbsba(issf_api
Chunk
p3661
(dp3662
g3521
g313
sg30
I4
sg3626
g322
sg31
I0
sg3512
(lp3663
I13
asg36
(issf_api
FeatureSet
p3664
(dp3665
g12
(dp3666
S'name'
p3667
g3528
sS'drel'
p3668
S'k2:VGNF'
p3669
ssbsba(issf_api
Chunk
p3670
(dp3671
g3521
g336
sg30
I5
sg3626
g341
sg31
I0
sg3512
(lp3672
I14
asg36
(issf_api
FeatureSet
p3673
(dp3674
g12
(dp3675
S'name'
p3676
g3527
sS'drel'
p3677
S'pof:VGNF'
p3678
ssbsba(issf_api
Chunk
p3679
(dp3680
g3521
g355
sg30
I6
sg3626
g360
sg31
I0
sg3512
(lp3681
I15
asg36
(issf_api
FeatureSet
p3682
(dp3683
g12
(dp3684
S'name'
p3685
g3516
sS'drel'
p3686
S'vmod:VGF'
p3687
ssbsba(issf_api
Chunk
p3688
(dp3689
g3521
g399
sg30
I7
sg3626
g412
sg31
I0
sg3512
(lp3690
I16
aI17
aI18
asg36
(issf_api
FeatureSet
p3691
(dp3692
g12
(dp3693
S'name'
p3694
g3605
sS'drel'
p3695
S'r6:NP7'
p3696
ssbsba(issf_api
Chunk
p3697
(dp3698
g3521
g483
sg30
I8
sg3626
g494
sg31
I0
sg3512
(lp3699
I19
aI20
aI21
asg36
(issf_api
FeatureSet
p3700
(dp3701
g12
(dp3702
S'name'
p3703
g3550
sS'drel'
p3704
S'k7:VGF'
p3705
ssbsba(issf_api
Chunk
p3706
(dp3707
g3521
g527
sg30
I9
sg3626
g536
sg31
I0
sg3512
(lp3708
I22
aI23
aI24
asg36
(issf_api
FeatureSet
p3709
(dp3710
g12
(dp3711
S'name'
p3712
g3572
sS'drel'
p3713
S'rs:NP7'
p3714
ssbsba(issf_api
Chunk
p3715
(dp3716
g3521
g567
sg30
I10
sg3626
g568
sg31
I0
sg3512
(lp3717
I25
asg36
(issf_api
FeatureSet
p3718
(dp3719
g12
(dp3720
S'name'
p3721
g3583
sS'drel'
p3722
S'fragof:NP7'
p3723
ssbsba(issf_api
Chunk
p3724
(dp3725
g3521
g584
sg30
I11
sg3626
g595
sg31
I0
sg3512
(lp3726
I26
aI27
asg36
(issf_api
FeatureSet
p3727
(dp3728
g12
(dp3729
S'name'
p3730
g3543
sS'drel'
p3731
S'k2:VGNN'
p3732
ssbsba(issf_api
Chunk
p3733
(dp3734
g3521
g626
sg30
I12
sg3626
g631
sg31
I0
sg3512
(lp3735
I28
asg36
(issf_api
FeatureSet
p3736
(dp3737
g12
(dp3738
S'name'
p3739
g3542
sS'drel'
p3740
S'pof:VGNN'
p3741
ssbsba(issf_api
Chunk
p3742
(dp3743
g3521
g645
sg30
I13
sg3626
g652
sg31
I0
sg3512
(lp3744
I29
aI30
asg36
(issf_api
FeatureSet
p3745
(dp3746
g12
(dp3747
S'name'
p3748
g3536
sS'drel'
p3749
S'r6-k2:NP10'
p3750
ssbsba(issf_api
Chunk
p3751
(dp3752
g3521
g683
sg30
I14
sg3626
g688
sg31
I0
sg3512
(lp3753
I31
asg36
(issf_api
FeatureSet
p3754
(dp3755
g12
(dp3756
S'name'
p3757
g3530
sS'drel'
p3758
S'pof:VGF'
p3759
ssbsba(issf_api
Chunk
p3760
(dp3761
g3521
g702
sg30
I15
sg3626
g711
sg31
I0
sg3512
(lp3762
I32
aI33
asg36
(issf_api
FeatureSet
p3763
(dp3764
g12
(dp3765
S'name'
p3766
g3544
ssbsba(issf_api
Chunk
p3767
(dp3768
g3521
g742
sg30
I16
sg3626
g747
sg31
I0
sg3512
(lp3769
I34
asg36
(issf_api
FeatureSet
p3770
(dp3771
g12
(dp3772
S'name'
p3773
g3549
sS'drel'
p3774
S'rsym:VGF'
p3775
ssbsbasba(issf_api
Sentence
p3776
(dp3777
g3510
(lp3778
sg31
I1
sg3512
(lp3779
I35
aI36
aI37
aI38
aI39
aI40
aI41
aI42
aI43
aI44
aI45
aI46
aI47
aI48
aI49
aI50
aI51
aI52
aI53
aI54
aI55
aI56
aI57
aI58
aI59
aI60
aI61
aI62
asg3514
(dp3780
S'VGNN'
p3781
(issf_api
Node
p3782
(dp3783
g3519
S'k7t'
p3784
sg3521
g3781
sg3522
S'VGF'
p3785
sg3524
I-1
sg30
I4
sg3525
(lp3786
S'NP4'
p3787
aS'NP3'
p3788
asbsS'VGF'
p3789
(issf_api
Node
p3790
(dp3791
g3519
g3547
sg3521
g3789
sg3522
g3547
sg3524
I-1
sg30
I10
sg3525
(lp3792
g3781
aS'NP8'
p3793
aS'BLK'
p3794
aS'NP'
p3795
aS'NP2'
p3796
asbsS'VGNN2'
p3797
(issf_api
Node
p3798
(dp3799
g3519
S'r6-k2'
p3800
sg3521
g3797
sg3522
S'NP8'
p3801
sg3524
I-1
sg30
I8
sg3525
(lp3802
S'NP5'
p3803
aS'NP7'
p3804
aS'NP6'
p3805
asbsg3803
(issf_api
Node
p3806
(dp3807
g3519
S'k2'
p3808
sg3521
g3803
sg3522
S'VGNN2'
p3809
sg3524
I-1
sg30
I5
sg3525
(lp3810
sbsg3793
(issf_api
Node
p3811
(dp3812
g3519
S'pof'
p3813
sg3521
g3793
sg3522
S'VGF'
p3814
sg3524
I-1
sg30
I9
sg3525
(lp3815
g3797
asbsg3794
(issf_api
Node
p3816
(dp3817
g3519
S'rsym'
p3818
sg3521
g3794
sg3522
S'VGF'
p3819
sg3524
I-1
sg30
I11
sg3525
(lp3820
sbsg3795
(issf_api
Node
p3821
(dp3822
g3519
S'sent-adv'
p3823
sg3521
g3795
sg3522
S'VGF'
p3824
sg3524
I-1
sg30
I0
sg3525
(lp3825
sbsg3787
(issf_api
Node
p3826
(dp3827
g3519
S'pof'
p3828
sg3521
g3787
sg3522
S'VGNN'
p3829
sg3524
I-1
sg30
I3
sg3525
(lp3830
sbsg3804
(issf_api
Node
p3831
(dp3832
g3519
S'k7'
p3833
sg3521
g3804
sg3522
S'VGNN2'
p3834
sg3524
I-1
sg30
I7
sg3525
(lp3835
sbsg3805
(issf_api
Node
p3836
(dp3837
g3519
S'k7a'
p3838
sg3521
g3805
sg3522
S'VGNN2'
p3839
sg3524
I-1
sg30
I6
sg3525
(lp3840
sbsg3788
(issf_api
Node
p3841
(dp3842
g3519
S'k7a'
p3843
sg3521
g3788
sg3522
S'VGNN'
p3844
sg3524
I-1
sg30
I2
sg3525
(lp3845
sbsg3796
(issf_api
Node
p3846
(dp3847
g3519
S'k1'
p3848
sg3521
g3796
sg3522
S'VGF'
p3849
sg3524
I-1
sg30
I1
sg3525
(lp3850
sbssg3622
(lp3851
(issf_api
Chunk
p3852
(dp3853
g3521
g763
sg30
I0
sg3626
g776
sg31
I1
sg3512
(lp3854
I35
aI36
aI37
asg36
(issf_api
FeatureSet
p3855
(dp3856
g12
(dp3857
S'name'
p3858
g3795
sS'drel'
p3859
S'sent-adv:VGF'
p3860
ssbsba(issf_api
Chunk
p3861
(dp3862
g3521
g826
sg30
I1
sg3626
g837
sg31
I1
sg3512
(lp3863
I38
aI39
asg36
(issf_api
FeatureSet
p3864
(dp3865
g12
(dp3866
S'name'
p3867
g3796
sS'drel'
p3868
S'k1:VGF'
p3869
ssbsba(issf_api
Chunk
p3870
(dp3871
g3521
g868
sg30
I2
sg3626
g875
sg31
I1
sg3512
(lp3872
I40
aI41
aI42
asg36
(issf_api
FeatureSet
p3873
(dp3874
g12
(dp3875
S'name'
p3876
g3788
sS'drel'
p3877
S'k7a:VGNN'
p3878
ssbsba(issf_api
Chunk
p3879
(dp3880
g3521
g923
sg30
I3
sg3626
g928
sg31
I1
sg3512
(lp3881
I43
asg36
(issf_api
FeatureSet
p3882
(dp3883
g12
(dp3884
S'name'
p3885
g3787
sS'drel'
p3886
S'pof:VGNN'
p3887
ssbsba(issf_api
Chunk
p3888
(dp3889
g3521
g942
sg30
I4
sg3626
g949
sg31
I1
sg3512
(lp3890
I44
aI45
asg36
(issf_api
FeatureSet
p3891
(dp3892
g12
(dp3893
S'name'
p3894
g3781
sS'drel'
p3895
S'k7t:VGF'
p3896
ssbsba(issf_api
Chunk
p3897
(dp3898
g3521
g982
sg30
I5
sg3626
g993
sg31
I1
sg3512
(lp3899
I46
aI47
asg36
(issf_api
FeatureSet
p3900
(dp3901
g12
(dp3902
S'name'
p3903
g3803
sS'drel'
p3904
S'k2:VGNN2'
p3905
ssbsba(issf_api
Chunk
p3906
(dp3907
g3521
g1083
sg30
I6
sg3626
g1090
sg31
I1
sg3512
(lp3908
I48
aI49
aI50
aI51
aI52
aI53
asg36
(issf_api
FeatureSet
p3909
(dp3910
g12
(dp3911
S'name'
p3912
g3805
sS'drel'
p3913
S'k7a:VGNN2'
p3914
ssbsba(issf_api
Chunk
p3915
(dp3916
g3521
g1155
sg30
I7
sg3626
g1162
sg31
I1
sg3512
(lp3917
I54
aI55
aI56
asg36
(issf_api
FeatureSet
p3918
(dp3919
g12
(dp3920
S'name'
p3921
g3804
sS'drel'
p3922
S'k7:VGNN2'
p3923
ssbsba(issf_api
Chunk
p3924
(dp3925
g3521
g1193
sg30
I8
sg3626
g1200
sg31
I1
sg3512
(lp3926
I57
aI58
asg36
(issf_api
FeatureSet
p3927
(dp3928
g12
(dp3929
S'name'
p3930
g3797
sS'drel'
p3931
S'r6-k2:NP8'
p3932
ssbsba(issf_api
Chunk
p3933
(dp3934
g3521
g1231
sg30
I9
sg3626
g1236
sg31
I1
sg3512
(lp3935
I59
asg36
(issf_api
FeatureSet
p3936
(dp3937
g12
(dp3938
S'name'
p3939
g3793
sS'drel'
p3940
S'pof:VGF'
p3941
ssbsba(issf_api
Chunk
p3942
(dp3943
g3521
g1250
sg30
I10
sg3626
g1259
sg31
I1
sg3512
(lp3944
I60
aI61
asg36
(issf_api
FeatureSet
p3945
(dp3946
g12
(dp3947
S'name'
p3948
g3789
ssbsba(issf_api
Chunk
p3949
(dp3950
g3521
g1290
sg30
I11
sg3626
g1295
sg31
I1
sg3512
(lp3951
I62
asg36
(issf_api
FeatureSet
p3952
(dp3953
g12
(dp3954
S'name'
p3955
g3794
sS'drel'
p3956
S'rsym:VGF'
p3957
ssbsbasba(issf_api
Sentence
p3958
(dp3959
g3510
(lp3960
sg31
I2
sg3512
(lp3961
I63
aI64
aI65
aI66
aI67
aI68
aI69
aI70
aI71
aI72
aI73
aI74
aI75
aI76
aI77
aI78
aI79
aI80
aI81
aI82
aI83
aI84
aI85
aI86
aI87
aI88
aI89
aI90
aI91
aI92
aI93
aI94
aI95
aI96
aI97
aI98
aI99
aI100
aI101
aI102
aI103
aI104
aI105
aI106
aI107
asg3514
(dp3962
S'CCP'
p3963
(issf_api
Node
p3964
(dp3965
g3519
g3547
sg3521
g3963
sg3522
g3547
sg3524
I-1
sg30
I18
sg3525
(lp3966
S'VGF2'
p3967
aS'VGF'
p3968
aS'BLK'
p3969
asbsS'NP14'
p3970
(issf_api
Node
p3971
(dp3972
g3519
S'k7'
p3973
sg3521
g3970
sg3522
S'VGF3'
p3974
sg3524
I-1
sg30
I22
sg3525
(lp3975
sbsS'VGNN2'
p3976
(issf_api
Node
p3977
(dp3978
g3519
S'r6-k2'
p3979
sg3521
g3976
sg3522
S'NP12'
p3980
sg3524
I-1
sg30
I15
sg3525
(lp3981
S'NP11'
p3982
aS'JJP2'
p3983
asbsS'NP9'
p3984
(issf_api
Node
p3985
(dp3986
g3519
S'k7'
p3987
sg3521
g3984
sg3522
S'VGF'
p3988
sg3524
I-1
sg30
I10
sg3525
(lp3989
S'NP8'
p3990
asbsg3990
(issf_api
Node
p3991
(dp3992
g3519
S'r6'
p3993
sg3521
g3990
sg3522
S'NP9'
p3994
sg3524
I-1
sg30
I9
sg3525
(lp3995
sbsS'NP5'
p3996
(issf_api
Node
p3997
(dp3998
g3519
S'k7'
p3999
sg3521
g3996
sg3522
S'VGNF'
p4000
sg3524
I-1
sg30
I4
sg3525
(lp4001
sbsS'NP4'
p4002
(issf_api
Node
p4003
(dp4004
g3519
S'k7t'
p4005
sg3521
g4002
sg3522
S'VGF'
p4006
sg3524
I-1
sg30
I3
sg3525
(lp4007
sbsS'NP7'
p4008
(issf_api
Node
p4009
(dp4010
g3519
S'k7'
p4011
sg3521
g4008
sg3522
S'VGF'
p4012
sg3524
I-1
sg30
I8
sg3525
(lp4013
sbsS'NP6'
p4014
(issf_api
Node
p4015
(dp4016
g3519
S'k2'
p4017
sg3521
g4014
sg3522
S'VGNF'
p4018
sg3524
I-1
sg30
I5
sg3525
(lp4019
sbsS'CCP2'
p4020
(issf_api
Node
p4021
(dp4022
g3519
S'k2'
p4023
sg3521
g4020
sg3522
S'VGF2'
p4024
sg3524
I-1
sg30
I20
sg3525
(lp4025
S'VGF3'
p4026
asbsS'NP3'
p4027
(issf_api
Node
p4028
(dp4029
g3519
S'k1'
p4030
sg3521
g4027
sg3522
S'VGF'
p4031
sg3524
I-1
sg30
I2
sg3525
(lp4032
S'NP2'
p4033
asbsg4033
(issf_api
Node
p4034
(dp4035
g3519
S'nmod'
p4036
sg3521
g4033
sg3522
S'NP3'
p4037
sg3524
I-1
sg30
I1
sg3525
(lp4038
S'NP'
p4039
asbsg3982
(issf_api
Node
p4040
(dp4041
g3519
S'k2'
p4042
sg3521
g3982
sg3522
S'VGNN2'
p4043
sg3524
I-1
sg30
I13
sg3525
(lp4044
sbsS'NP10'
p4045
(issf_api
Node
p4046
(dp4047
g3519
S'pof'
p4048
sg3521
g4045
sg3522
S'VGNN'
p4049
sg3524
I-1
sg30
I11
sg3525
(lp4050
sbsS'NP13'
p4051
(issf_api
Node
p4052
(dp4053
g3519
S'k2'
p4054
sg3521
g4051
sg3522
S'VGF3'
p4055
sg3524
I-1
sg30
I21
sg3525
(lp4056
sbsS'NP12'
p4057
(issf_api
Node
p4058
(dp4059
g3519
S'pof'
p4060
sg3521
g4057
sg3522
S'VGF'
p4061
sg3524
I-1
sg30
I16
sg3525
(lp4062
g3976
asbsg4026
(issf_api
Node
p4063
(dp4064
g3519
S'ccof'
p4065
sg3521
g4026
sg3522
S'CCP2'
p4066
sg3524
I-1
sg30
I23
sg3525
(lp4067
g3970
ag4051
asbsg3967
(issf_api
Node
p4068
(dp4069
g3519
S'ccof'
p4070
sg3521
g3967
sg3522
S'CCP'
p4071
sg3524
I-1
sg30
I19
sg3525
(lp4072
g4020
asbsg4039
(issf_api
Node
p4073
(dp4074
g3519
S'r6'
p4075
sg3521
g4039
sg3522
S'NP2'
p4076
sg3524
I-1
sg30
I0
sg3525
(lp4077
sbsS'VGNF'
p4078
(issf_api
Node
p4079
(dp4080
g3519
S'vmod'
p4081
sg3521
g4078
sg3522
S'VGF'
p4082
sg3524
I-1
sg30
I7
sg3525
(lp4083
g3996
ag4014
aS'JJP'
p4084
asbsS'VGNN'
p4085
(issf_api
Node
p4086
(dp4087
g3519
S'rt'
p4088
sg3521
g4085
sg3522
S'VGF'
p4089
sg3524
I-1
sg30
I12
sg3525
(lp4090
g4045
asbsg3968
(issf_api
Node
p4091
(dp4092
g3519
S'ccof'
p4093
sg3521
g3968
sg3522
S'CCP'
p4094
sg3524
I-1
sg30
I17
sg3525
(lp4095
g3984
ag4002
ag4008
ag4027
ag4057
ag4078
ag4085
asbsg3969
(issf_api
Node
p4096
(dp4097
g3519
S'rsym'
p4098
sg3521
g3969
sg3522
S'CCP'
p4099
sg3524
I-1
sg30
I24
sg3525
(lp4100
sbsg4084
(issf_api
Node
p4101
(dp4102
g3519
S'pof'
p4103
sg3521
g4084
sg3522
S'VGNF'
p4104
sg3524
I-1
sg30
I6
sg3525
(lp4105
sbsg3983
(issf_api
Node
p4106
(dp4107
g3519
S'pof'
p4108
sg3521
g3983
sg3522
S'VGNN2'
p4109
sg3524
I-1
sg30
I14
sg3525
(lp4110
sbssg3622
(lp4111
(issf_api
Chunk
p4112
(dp4113
g3521
g1313
sg30
I0
sg3626
g1326
sg31
I2
sg3512
(lp4114
I63
aI64
asg36
(issf_api
FeatureSet
p4115
(dp4116
g12
(dp4117
S'name'
p4118
g4039
sS'drel'
p4119
S'r6:NP2'
p4120
ssbsba(issf_api
Chunk
p4121
(dp4122
g3521
g1359
sg30
I1
sg3626
g1370
sg31
I2
sg3512
(lp4123
I65
asg36
(issf_api
FeatureSet
p4124
(dp4125
g12
(dp4126
S'name'
p4127
g4033
sS'drel'
p4128
S'nmod:NP3'
p4129
ssbsba(issf_api
Chunk
p4130
(dp4131
g3521
g1405
sg30
I2
sg3626
g1416
sg31
I2
sg3512
(lp4132
I66
aI67
aI68
asg36
(issf_api
FeatureSet
p4133
(dp4134
g12
(dp4135
S'name'
p4136
g4027
sS'drel'
p4137
S'k1:VGF'
p4138
ssbsba(issf_api
Chunk
p4139
(dp4140
g3521
g1447
sg30
I3
sg3626
g1454
sg31
I2
sg3512
(lp4141
I69
aI70
asg36
(issf_api
FeatureSet
p4142
(dp4143
g12
(dp4144
S'name'
p4145
g4002
sS'drel'
p4146
S'k7t:VGF'
p4147
ssbsba(issf_api
Chunk
p4148
(dp4149
g3521
g1506
sg30
I4
sg3626
g1517
sg31
I2
sg3512
(lp4150
I71
aI72
aI73
asg36
(issf_api
FeatureSet
p4151
(dp4152
g12
(dp4153
S'name'
p4154
g3996
sS'drel'
p4155
S'k7:VGNF'
p4156
ssbsba(issf_api
Chunk
p4157
(dp4158
g3521
g1550
sg30
I5
sg3626
g1559
sg31
I2
sg3512
(lp4159
I74
asg36
(issf_api
FeatureSet
p4160
(dp4161
g12
(dp4162
S'name'
p4163
g4014
sS'drel'
p4164
S'k2:VGNF'
p4165
ssbsba(issf_api
Chunk
p4166
(dp4167
g3521
g1573
sg30
I6
sg3626
g1578
sg31
I2
sg3512
(lp4168
I75
asg36
(issf_api
FeatureSet
p4169
(dp4170
g12
(dp4171
S'name'
p4172
g4084
sS'drel'
p4173
S'pof:VGNF'
p4174
ssbsba(issf_api
Chunk
p4175
(dp4176
g3521
g1592
sg30
I7
sg3626
g1597
sg31
I2
sg3512
(lp4177
I76
asg36
(issf_api
FeatureSet
p4178
(dp4179
g12
(dp4180
S'name'
p4181
g4078
sS'drel'
p4182
S'vmod:VGF'
p4183
ssbsba(issf_api
Chunk
p4184
(dp4185
g3521
g1613
sg30
I8
sg3626
g1624
sg31
I2
sg3512
(lp4186
I77
aI78
asg36
(issf_api
FeatureSet
p4187
(dp4188
g12
(dp4189
S'name'
p4190
g4008
sS'drel'
p4191
S'k7:VGF'
p4192
ssbsba(issf_api
Chunk
p4193
(dp4194
g3521
g1655
sg30
I9
sg3626
g1662
sg31
I2
sg3512
(lp4195
I79
aI80
asg36
(issf_api
FeatureSet
p4196
(dp4197
g12
(dp4198
S'name'
p4199
g3990
sS'drel'
p4200
S'r6:NP9'
p4201
ssbsba(issf_api
Chunk
p4202
(dp4203
g3521
g1727
sg30
I10
sg3626
g1734
sg31
I2
sg3512
(lp4204
I81
aI82
aI83
aI84
asg36
(issf_api
FeatureSet
p4205
(dp4206
g12
(dp4207
S'name'
p4208
g3984
sS'drel'
p4209
S'k7:VGF'
p4210
ssbsba(issf_api
Chunk
p4211
(dp4212
g3521
g1765
sg30
I11
sg3626
g1770
sg31
I2
sg3512
(lp4213
I85
asg36
(issf_api
FeatureSet
p4214
(dp4215
g12
(dp4216
S'name'
p4217
g4045
sS'drel'
p4218
S'pof:VGNN'
p4219
ssbsba(issf_api
Chunk
p4220
(dp4221
g3521
g1784
sg30
I12
sg3626
g1791
sg31
I2
sg3512
(lp4222
I86
aI87
aI88
asg36
(issf_api
FeatureSet
p4223
(dp4224
g12
(dp4225
S'name'
p4226
g4085
sS'drel'
p4227
S'rt:VGF'
p4228
ssbsba(issf_api
Chunk
p4229
(dp4230
g3521
g1841
sg30
I13
sg3626
g1852
sg31
I2
sg3512
(lp4231
I89
aI90
asg36
(issf_api
FeatureSet
p4232
(dp4233
g12
(dp4234
S'name'
p4235
g3982
sS'drel'
p4236
S'k2:VGNN2'
p4237
ssbsba(issf_api
Chunk
p4238
(dp4239
g3521
g1883
sg30
I14
sg3626
g1888
sg31
I2
sg3512
(lp4240
I91
asg36
(issf_api
FeatureSet
p4241
(dp4242
g12
(dp4243
S'name'
p4244
g3983
sS'drel'
p4245
S'pof:VGNN2'
p4246
ssbsba(issf_api
Chunk
p4247
(dp4248
g3521
g1902
sg30
I15
sg3626
g1909
sg31
I2
sg3512
(lp4249
I92
aI93
asg36
(issf_api
FeatureSet
p4250
(dp4251
g12
(dp4252
S'name'
p4253
g3976
sS'drel'
p4254
S'r6-k2:NP12'
p4255
ssbsba(issf_api
Chunk
p4256
(dp4257
g3521
g1940
sg30
I16
sg3626
g1945
sg31
I2
sg3512
(lp4258
I94
asg36
(issf_api
FeatureSet
p4259
(dp4260
g12
(dp4261
S'name'
p4262
g4057
sS'drel'
p4263
S'pof:VGF'
p4264
ssbsba(issf_api
Chunk
p4265
(dp4266
g3521
g1959
sg30
I17
sg3626
g1968
sg31
I2
sg3512
(lp4267
I95
asg36
(issf_api
FeatureSet
p4268
(dp4269
g12
(dp4270
S'name'
p4271
g3968
sS'drel'
p4272
S'ccof:CCP'
p4273
ssbsba(issf_api
Chunk
p4274
(dp4275
g3521
g1978
sg30
I18
sg3626
g1985
sg31
I2
sg3512
(lp4276
I96
asg36
(issf_api
FeatureSet
p4277
(dp4278
g12
(dp4279
S'name'
p4280
g3963
ssbsba(issf_api
Chunk
p4281
(dp4282
g3521
g1999
sg30
I19
sg3626
g2008
sg31
I2
sg3512
(lp4283
I97
asg36
(issf_api
FeatureSet
p4284
(dp4285
g12
(dp4286
S'name'
p4287
g3967
sS'drel'
p4288
S'ccof:CCP'
p4289
ssbsba(issf_api
Chunk
p4290
(dp4291
g3521
g2022
sg30
I20
sg3626
g2027
sg31
I2
sg3512
(lp4292
I98
asg36
(issf_api
FeatureSet
p4293
(dp4294
g12
(dp4295
S'name'
p4296
g4020
sS'drel'
p4297
S'k2:VGF2'
p4298
ssbsba(issf_api
Chunk
p4299
(dp4300
g3521
g2043
sg30
I21
sg3626
g2054
sg31
I2
sg3512
(lp4301
I99
aI100
asg36
(issf_api
FeatureSet
p4302
(dp4303
g12
(dp4304
S'name'
p4305
g4051
sS'drel'
p4306
S'k2:VGF3'
p4307
ssbsba(issf_api
Chunk
p4308
(dp4309
g3521
g2085
sg30
I22
sg3626
g2092
sg31
I2
sg3512
(lp4310
I101
aI102
asg36
(issf_api
FeatureSet
p4311
(dp4312
g12
(dp4313
S'name'
p4314
g3970
sS'drel'
p4315
S'k7:VGF3'
p4316
ssbsba(issf_api
Chunk
p4317
(dp4318
g3521
g2123
sg30
I23
sg3626
g2134
sg31
I2
sg3512
(lp4319
I103
aI104
aI105
aI106
asg36
(issf_api
FeatureSet
p4320
(dp4321
g12
(dp4322
S'name'
p4323
g4026
sS'drel'
p4324
S'ccof:CCP2'
p4325
ssbsba(issf_api
Chunk
p4326
(dp4327
g3521
g2199
sg30
I24
sg3626
g2204
sg31
I2
sg3512
(lp4328
I107
asg36
(issf_api
FeatureSet
p4329
(dp4330
g12
(dp4331
S'name'
p4332
g3969
sS'drel'
p4333
S'rsym:CCP'
p4334
ssbsbasba(issf_api
Sentence
p4335
(dp4336
g3510
(lp4337
sg31
I3
sg3512
(lp4338
I108
aI109
aI110
aI111
aI112
aI113
aI114
aI115
aI116
aI117
aI118
aI119
aI120
aI121
aI122
aI123
aI124
aI125
aI126
aI127
aI128
aI129
aI130
aI131
aI132
asg3514
(dp4339
S'NULL__CCP'
p4340
(issf_api
Node
p4341
(dp4342
g3519
g3547
sg3521
g4340
sg3522
g3547
sg3524
I-1
sg30
I-1
sg3525
(lp4343
S'VGNN'
p4344
aS'VGNN2'
p4345
asbsg4344
(issf_api
Node
p4346
(dp4347
g3519
S'ccof'
p4348
sg3521
g4344
sg3522
S'NULL__CCP'
p4349
sg3524
I-1
sg30
I5
sg3525
(lp4350
S'NP5'
p4351
asbsS'VGF'
p4352
(issf_api
Node
p4353
(dp4354
g3519
g3547
sg3521
g4352
sg3522
g3547
sg3524
I-1
sg30
I14
sg3525
(lp4355
S'BLK'
p4356
aS'NP10'
p4357
aS'NP'
p4358
aS'NP3'
p4359
asbsS'JJP'
p4360
(issf_api
Node
p4361
(dp4362
g3519
S'nmod'
p4363
sg3521
g4360
sg3522
S'NP9'
p4364
sg3524
I-1
sg30
I9
sg3525
(lp4365
S'NP8'
p4366
asbsg4345
(issf_api
Node
p4367
(dp4368
g3519
S'ccof'
p4369
sg3521
g4345
sg3522
S'NULL__CCP'
p4370
sg3524
I-1
sg30
I12
sg3525
(lp4371
S'JJP2'
p4372
aS'NP9'
p4373
aS'NP6'
p4374
asbsg4351
(issf_api
Node
p4375
(dp4376
g3519
S'pof'
p4377
sg3521
g4351
sg3522
S'VGNN'
p4378
sg3524
I-1
sg30
I4
sg3525
(lp4379
S'NP4'
p4380
asbsg4372
(issf_api
Node
p4381
(dp4382
g3519
S'pof'
p4383
sg3521
g4372
sg3522
S'VGNN2'
p4384
sg3524
I-1
sg30
I11
sg3525
(lp4385
sbsg4373
(issf_api
Node
p4386
(dp4387
g3519
S'k2'
p4388
sg3521
g4373
sg3522
S'VGNN2'
p4389
sg3524
I-1
sg30
I10
sg3525
(lp4390
g4360
asbsg4366
(issf_api
Node
p4391
(dp4392
g3519
S'jjmod'
p4393
sg3521
g4366
sg3522
S'JJP'
p4394
sg3524
I-1
sg30
I8
sg3525
(lp4395
S'NP7'
p4396
asbsg4356
(issf_api
Node
p4397
(dp4398
g3519
S'rsym'
p4399
sg3521
g4356
sg3522
S'VGF'
p4400
sg3524
I-1
sg30
I15
sg3525
(lp4401
sbsg4357
(issf_api
Node
p4402
(dp4403
g3519
S'pof'
p4404
sg3521
g4357
sg3522
S'VGF'
p4405
sg3524
I-1
sg30
I13
sg3525
(lp4406
sbsg4358
(issf_api
Node
p4407
(dp4408
g3519
S'k1'
p4409
sg3521
g4358
sg3522
S'VGF'
p4410
sg3524
I-1
sg30
I0
sg3525
(lp4411
sbsg4380
(issf_api
Node
p4412
(dp4413
g3519
S'r6-k2'
p4414
sg3521
g4380
sg3522
S'NP5'
p4415
sg3524
I-1
sg30
I3
sg3525
(lp4416
sbsg4396
(issf_api
Node
p4417
(dp4418
g3519
S'r6'
p4419
sg3521
g4396
sg3522
S'NP8'
p4420
sg3524
I-1
sg30
I7
sg3525
(lp4421
sbsg4374
(issf_api
Node
p4422
(dp4423
g3519
S'vmod'
p4424
sg3521
g4374
sg3522
S'VGNN2'
p4425
sg3524
I-1
sg30
I6
sg3525
(lp4426
sbsg4359
(issf_api
Node
p4427
(dp4428
g3519
S'k5'
p4429
sg3521
g4359
sg3522
S'VGF'
p4430
sg3524
I-1
sg30
I2
sg3525
(lp4431
S'NP2'
p4432
asbsg4432
(issf_api
Node
p4433
(dp4434
g3519
S'r6'
p4435
sg3521
g4432
sg3522
S'NP3'
p4436
sg3524
I-1
sg30
I1
sg3525
(lp4437
sbssg3622
(lp4438
(issf_api
Chunk
p4439
(dp4440
g3521
g2220
sg30
I0
sg3626
g2231
sg31
I3
sg3512
(lp4441
I108
aI109
asg36
(issf_api
FeatureSet
p4442
(dp4443
g12
(dp4444
S'name'
p4445
g4358
sS'drel'
p4446
S'k1:VGF'
p4447
ssbsba(issf_api
Chunk
p4448
(dp4449
g3521
g2264
sg30
I1
sg3626
g2275
sg31
I3
sg3512
(lp4450
I110
aI111
asg36
(issf_api
FeatureSet
p4451
(dp4452
g12
(dp4453
S'name'
p4454
g4432
sS'drel'
p4455
S'r6:NP3'
p4456
ssbsba(issf_api
Chunk
p4457
(dp4458
g3521
g2306
sg30
I2
sg3626
g2313
sg31
I3
sg3512
(lp4459
I112
aI113
asg36
(issf_api
FeatureSet
p4460
(dp4461
g12
(dp4462
S'name'
p4463
g4359
sS'drel'
p4464
S'k5:VGF'
p4465
ssbsba(issf_api
Chunk
p4466
(dp4467
g3521
g2344
sg30
I3
sg3626
g2351
sg31
I3
sg3512
(lp4468
I114
aI115
asg36
(issf_api
FeatureSet
p4469
(dp4470
g12
(dp4471
S'name'
p4472
g4380
sS'drel'
p4473
S'r6-k2:NP5'
p4474
ssbsba(issf_api
Chunk
p4475
(dp4476
g3521
g2382
sg30
I4
sg3626
g2387
sg31
I3
sg3512
(lp4477
I116
asg36
(issf_api
FeatureSet
p4478
(dp4479
g12
(dp4480
S'name'
p4481
g4351
sS'drel'
p4482
S'pof:VGNN'
p4483
ssbsba(issf_api
Chunk
p4484
(dp4485
g3521
g2401
sg30
I5
sg3626
g2406
sg31
I3
sg3512
(lp4486
I117
asg36
(issf_api
FeatureSet
p4487
(dp4488
g12
(dp4489
S'name'
p4490
g4344
sS'drel'
p4491
S'ccof:NULL__CCP'
p4492
ssbsba(issf_api
Chunk
p4493
(dp4494
g3521
g2422
sg30
I6
sg3626
g2433
sg31
I3
sg3512
(lp4495
I118
aI119
aI120
asg36
(issf_api
FeatureSet
p4496
(dp4497
g12
(dp4498
S'name'
p4499
g4374
sS'drel'
p4500
S'vmod:VGNN2'
p4501
ssbsba(issf_api
Chunk
p4502
(dp4503
g3521
g2481
sg30
I7
sg3626
g2488
sg31
I3
sg3512
(lp4504
I121
aI122
asg36
(issf_api
FeatureSet
p4505
(dp4506
g12
(dp4507
S'name'
p4508
g4396
sS'drel'
p4509
S'r6:NP8'
p4510
ssbsba(issf_api
Chunk
p4511
(dp4512
g3521
g2519
sg30
I8
sg3626
g2526
sg31
I3
sg3512
(lp4513
I123
aI124
asg36
(issf_api
FeatureSet
p4514
(dp4515
g12
(dp4516
S'name'
p4517
g4366
sS'drel'
p4518
S'jjmod:JJP'
p4519
ssbsba(issf_api
Chunk
p4520
(dp4521
g3521
g2557
sg30
I9
sg3626
g2562
sg31
I3
sg3512
(lp4522
I125
asg36
(issf_api
FeatureSet
p4523
(dp4524
g12
(dp4525
S'name'
p4526
g4360
sS'drel'
p4527
S'nmod:NP9'
p4528
ssbsba(issf_api
Chunk
p4529
(dp4530
g3521
g2576
sg30
I10
sg3626
g2581
sg31
I3
sg3512
(lp4531
I126
asg36
(issf_api
FeatureSet
p4532
(dp4533
g12
(dp4534
S'name'
p4535
g4373
sS'drel'
p4536
S'k2:VGNN2'
p4537
ssbsba(issf_api
Chunk
p4538
(dp4539
g3521
g2595
sg30
I11
sg3626
g2600
sg31
I3
sg3512
(lp4540
I127
asg36
(issf_api
FeatureSet
p4541
(dp4542
g12
(dp4543
S'name'
p4544
g4372
sS'drel'
p4545
S'pof:VGNN2'
p4546
ssbsba(issf_api
Chunk
p4547
(dp4548
g3521
g2614
sg30
I12
sg3626
g2621
sg31
I3
sg3512
(lp4549
I128
aI129
asg36
(issf_api
FeatureSet
p4550
(dp4551
g12
(dp4552
S'name'
p4553
g4345
sS'drel'
p4554
S'ccof:NULL__CCP'
p4555
ssbsba(issf_api
Chunk
p4556
(dp4557
g3521
g2652
sg30
I13
sg3626
g2657
sg31
I3
sg3512
(lp4558
I130
asg36
(issf_api
FeatureSet
p4559
(dp4560
g12
(dp4561
S'name'
p4562
g4357
sS'drel'
p4563
S'pof:VGF'
p4564
ssbsba(issf_api
Chunk
p4565
(dp4566
g3521
g2671
sg30
I14
sg3626
g2678
sg31
I3
sg3512
(lp4567
I131
asg36
(issf_api
FeatureSet
p4568
(dp4569
g12
(dp4570
S'name'
p4571
g4352
ssbsba(issf_api
Chunk
p4572
(dp4573
g3521
g2692
sg30
I15
sg3626
g2697
sg31
I3
sg3512
(lp4574
I132
asg36
(issf_api
FeatureSet
p4575
(dp4576
g12
(dp4577
S'name'
p4578
g4356
sS'drel'
p4579
S'rsym:VGF'
p4580
ssbsbasba(issf_api
Sentence
p4581
(dp4582
g3510
(lp4583
sg31
I4
sg3512
(lp4584
I133
aI134
aI135
aI136
aI137
aI138
aI139
aI140
aI141
aI142
aI143
aI144
aI145
aI146
aI147
aI148
aI149
aI150
aI151
aI152
aI153
aI154
aI155
aI156
aI157
aI158
aI159
aI160
aI161
aI162
aI163
aI164
aI165
aI166
aI167
aI168
aI169
aI170
asg3514
(dp4585
S'VGF4'
p4586
(issf_api
Node
p4587
(dp4588
g3519
S'ccof'
p4589
sg3521
g4586
sg3522
S'CCP2'
p4590
sg3524
I-1
sg30
I22
sg3525
(lp4591
S'NP14'
p4592
aS'NP16'
p4593
asbsS'NP15'
p4594
(issf_api
Node
p4595
(dp4596
g3519
S'r6-k2'
p4597
sg3521
g4594
sg3522
S'NP16'
p4598
sg3524
I-1
sg30
I20
sg3525
(lp4599
sbsS'CCP'
p4600
(issf_api
Node
p4601
(dp4602
g3519
S'k2'
p4603
sg3521
g4600
sg3522
S'VGF'
p4604
sg3524
I-1
sg30
I3
sg3525
(lp4605
S'VGF3'
p4606
asbsS'VGF2'
p4607
(issf_api
Node
p4608
(dp4609
g3519
S'nmod__relc'
p4610
sg3521
g4607
sg3522
S'NP12'
p4611
sg3524
I-1
sg30
I14
sg3525
(lp4612
S'NP9'
p4613
aS'NP7'
p4614
aS'NP6'
p4615
aS'NP3'
p4616
aS'NP11'
p4617
aS'VGNN'
p4618
asbsg4613
(issf_api
Node
p4619
(dp4620
g3519
S'k7'
p4621
sg3521
g4613
sg3522
S'VGF2'
p4622
sg3524
I-1
sg30
I10
sg3525
(lp4623
S'NP8'
p4624
asbsg4624
(issf_api
Node
p4625
(dp4626
g3519
S'r6'
p4627
sg3521
g4624
sg3522
S'NP9'
p4628
sg3524
I-1
sg30
I9
sg3525
(lp4629
sbsS'NP5'
p4630
(issf_api
Node
p4631
(dp4632
g3519
S'nmod'
p4633
sg3521
g4630
sg3522
S'NP6'
p4634
sg3524
I-1
sg30
I6
sg3525
(lp4635
S'NP4'
p4636
asbsg4636
(issf_api
Node
p4637
(dp4638
g3519
S'r6'
p4639
sg3521
g4636
sg3522
S'NP5'
p4640
sg3524
I-1
sg30
I5
sg3525
(lp4641
sbsg4614
(issf_api
Node
p4642
(dp4643
g3519
S'k7t'
p4644
sg3521
g4614
sg3522
S'VGF2'
p4645
sg3524
I-1
sg30
I8
sg3525
(lp4646
sbsg4615
(issf_api
Node
p4647
(dp4648
g3519
S'k1'
p4649
sg3521
g4615
sg3522
S'VGF2'
p4650
sg3524
I-1
sg30
I7
sg3525
(lp4651
g4630
asbsS'CCP2'
p4652
(issf_api
Node
p4653
(dp4654
g3519
S'k2'
p4655
sg3521
g4652
sg3522
S'VGF3'
p4656
sg3524
I-1
sg30
I18
sg3525
(lp4657
g4586
asbsg4616
(issf_api
Node
p4658
(dp4659
g3519
S'k7t'
p4660
sg3521
g4616
sg3522
S'VGF2'
p4661
sg3524
I-1
sg30
I4
sg3525
(lp4662
sbsS'NP2'
p4663
(issf_api
Node
p4664
(dp4665
g3519
S'pof'
p4666
sg3521
g4663
sg3522
S'VGF'
p4667
sg3524
I-1
sg30
I1
sg3525
(lp4668
sbsg4617
(issf_api
Node
p4669
(dp4670
g3519
S'k2'
p4671
sg3521
g4617
sg3522
S'VGF2'
p4672
sg3524
I-1
sg30
I12
sg3525
(lp4673
S'NP10'
p4674
asbsg4674
(issf_api
Node
p4675
(dp4676
g3519
S'r6'
p4677
sg3521
g4674
sg3522
S'NP11'
p4678
sg3524
I-1
sg30
I11
sg3525
(lp4679
sbsS'NP13'
p4680
(issf_api
Node
p4681
(dp4682
g3519
S'k1'
p4683
sg3521
g4680
sg3522
S'VGF3'
p4684
sg3524
I-1
sg30
I16
sg3525
(lp4685
sbsS'NP12'
p4686
(issf_api
Node
p4687
(dp4688
g3519
S'k7t'
p4689
sg3521
g4686
sg3522
S'VGF3'
p4690
sg3524
I-1
sg30
I15
sg3525
(lp4691
g4607
asbsg4606
(issf_api
Node
p4692
(dp4693
g3519
S'ccof'
p4694
sg3521
g4606
sg3522
S'CCP'
p4695
sg3524
I-1
sg30
I17
sg3525
(lp4696
g4652
ag4680
ag4686
asbsg4592
(issf_api
Node
p4697
(dp4698
g3519
S'k1'
p4699
sg3521
g4592
sg3522
S'VGF4'
p4700
sg3524
I-1
sg30
I19
sg3525
(lp4701
sbsg4593
(issf_api
Node
p4702
(dp4703
g3519
S'pof'
p4704
sg3521
g4593
sg3522
S'VGF4'
p4705
sg3524
I-1
sg30
I21
sg3525
(lp4706
g4594
asbsS'NP'
p4707
(issf_api
Node
p4708
(dp4709
g3519
S'k1'
p4710
sg3521
g4707
sg3522
S'VGF'
p4711
sg3524
I-1
sg30
I0
sg3525
(lp4712
sbsg4618
(issf_api
Node
p4713
(dp4714
g3519
S'rt'
p4715
sg3521
g4618
sg3522
S'VGF2'
p4716
sg3524
I-1
sg30
I13
sg3525
(lp4717
sbsS'VGF'
p4718
(issf_api
Node
p4719
(dp4720
g3519
g3547
sg3521
g4718
sg3522
g3547
sg3524
I-1
sg30
I2
sg3525
(lp4721
g4600
ag4663
ag4707
aS'BLK'
p4722
asbsg4722
(issf_api
Node
p4723
(dp4724
g3519
S'rsym'
p4725
sg3521
g4722
sg3522
S'VGF'
p4726
sg3524
I-1
sg30
I23
sg3525
(lp4727
sbssg3622
(lp4728
(issf_api
Chunk
p4729
(dp4730
g3521
g2713
sg30
I0
sg3626
g2724
sg31
I4
sg3512
(lp4731
I133
aI134
asg36
(issf_api
FeatureSet
p4732
(dp4733
g12
(dp4734
S'name'
p4735
g4707
sS'drel'
p4736
S'k1:VGF'
p4737
ssbsba(issf_api
Chunk
p4738
(dp4739
g3521
g2755
sg30
I1
sg3626
g2760
sg31
I4
sg3512
(lp4740
I135
asg36
(issf_api
FeatureSet
p4741
(dp4742
g12
(dp4743
S'name'
p4744
g4663
sS'drel'
p4745
S'pof:VGF'
p4746
ssbsba(issf_api
Chunk
p4747
(dp4748
g3521
g2774
sg30
I2
sg3626
g2781
sg31
I4
sg3512
(lp4749
I136
asg36
(issf_api
FeatureSet
p4750
(dp4751
g12
(dp4752
S'name'
p4753
g4718
ssbsba(issf_api
Chunk
p4754
(dp4755
g3521
g2795
sg30
I3
sg3626
g2800
sg31
I4
sg3512
(lp4756
I137
asg36
(issf_api
FeatureSet
p4757
(dp4758
g12
(dp4759
S'name'
p4760
g4600
sS'drel'
p4761
S'k2:VGF'
p4762
ssbsba(issf_api
Chunk
p4763
(dp4764
g3521
g2818
sg30
I4
sg3626
g2829
sg31
I4
sg3512
(lp4765
I138
asg36
(issf_api
FeatureSet
p4766
(dp4767
g12
(dp4768
S'name'
p4769
g4616
sS'drel'
p4770
S'k7t:VGF2'
p4771
ssbsba(issf_api
Chunk
p4772
(dp4773
g3521
g2847
sg30
I5
sg3626
g2860
sg31
I4
sg3512
(lp4774
I139
aI140
asg36
(issf_api
FeatureSet
p4775
(dp4776
g12
(dp4777
S'name'
p4778
g4636
sS'drel'
p4779
S'r6:NP5'
p4780
ssbsba(issf_api
Chunk
p4781
(dp4782
g3521
g2893
sg30
I6
sg3626
g2902
sg31
I4
sg3512
(lp4783
I141
asg36
(issf_api
FeatureSet
p4784
(dp4785
g12
(dp4786
S'name'
p4787
g4630
sS'drel'
p4788
S'nmod:NP6'
p4789
ssbsba(issf_api
Chunk
p4790
(dp4791
g3521
g2937
sg30
I7
sg3626
g2948
sg31
I4
sg3512
(lp4792
I142
aI143
asg36
(issf_api
FeatureSet
p4793
(dp4794
g12
(dp4795
S'name'
p4796
g4615
sS'drel'
p4797
S'k1:VGF2'
p4798
ssbsba(issf_api
Chunk
p4799
(dp4800
g3521
g2979
sg30
I8
sg3626
g2986
sg31
I4
sg3512
(lp4801
I144
aI145
aI146
asg36
(issf_api
FeatureSet
p4802
(dp4803
g12
(dp4804
S'name'
p4805
g4614
sS'drel'
p4806
S'k7t:VGF2'
p4807
ssbsba(issf_api
Chunk
p4808
(dp4809
g3521
g3019
sg30
I9
sg3626
g3030
sg31
I4
sg3512
(lp4810
I147
aI148
asg36
(issf_api
FeatureSet
p4811
(dp4812
g12
(dp4813
S'name'
p4814
g4624
sS'drel'
p4815
S'r6:NP9'
p4816
ssbsba(issf_api
Chunk
p4817
(dp4818
g3521
g3061
sg30
I10
sg3626
g3068
sg31
I4
sg3512
(lp4819
I149
aI150
asg36
(issf_api
FeatureSet
p4820
(dp4821
g12
(dp4822
S'name'
p4823
g4613
sS'drel'
p4824
S'k7:VGF2'
p4825
ssbsba(issf_api
Chunk
p4826
(dp4827
g3521
g3101
sg30
I11
sg3626
g3110
sg31
I4
sg3512
(lp4828
I151
asg36
(issf_api
FeatureSet
p4829
(dp4830
g12
(dp4831
S'name'
p4832
g4674
sS'drel'
p4833
S'r6:NP11'
p4834
ssbsba(issf_api
Chunk
p4835
(dp4836
g3521
g3124
sg30
I12
sg3626
g3131
sg31
I4
sg3512
(lp4837
I152
aI153
asg36
(issf_api
FeatureSet
p4838
(dp4839
g12
(dp4840
S'name'
p4841
g4617
sS'drel'
p4842
S'k2:VGF2'
p4843
ssbsba(issf_api
Chunk
p4844
(dp4845
g3521
g3162
sg30
I13
sg3626
g3167
sg31
I4
sg3512
(lp4846
I154
asg36
(issf_api
FeatureSet
p4847
(dp4848
g12
(dp4849
S'name'
p4850
g4618
sS'drel'
p4851
S'rt:VGF2'
p4852
ssbsba(issf_api
Chunk
p4853
(dp4854
g3521
g3181
sg30
I14
sg3626
g3192
sg31
I4
sg3512
(lp4855
I155
aI156
aI157
asg36
(issf_api
FeatureSet
p4856
(dp4857
g12
(dp4858
S'name'
p4859
g4607
sS'drel'
p4860
S'nmod__relc:NP12'
p4861
ssbsba(issf_api
Chunk
p4862
(dp4863
g3521
g3242
sg30
I15
sg3626
g3253
sg31
I4
sg3512
(lp4864
I158
asg36
(issf_api
FeatureSet
p4865
(dp4866
g12
(dp4867
S'name'
p4868
g4686
sS'drel'
p4869
S'k7t:VGF3'
p4870
ssbsba(issf_api
Chunk
p4871
(dp4872
g3521
g3269
sg30
I16
sg3626
g3278
sg31
I4
sg3512
(lp4873
I159
asg36
(issf_api
FeatureSet
p4874
(dp4875
g12
(dp4876
S'name'
p4877
g4680
sS'drel'
p4878
S'k1:VGF3'
p4879
ssbsba(issf_api
Chunk
p4880
(dp4881
g3521
g3292
sg30
I17
sg3626
g3303
sg31
I4
sg3512
(lp4882
I160
aI161
asg36
(issf_api
FeatureSet
p4883
(dp4884
g12
(dp4885
S'name'
p4886
g4606
sS'drel'
p4887
S'ccof:CCP'
p4888
ssbsba(issf_api
Chunk
p4889
(dp4890
g3521
g3334
sg30
I18
sg3626
g3339
sg31
I4
sg3512
(lp4891
I162
asg36
(issf_api
FeatureSet
p4892
(dp4893
g12
(dp4894
S'name'
p4895
g4652
sS'drel'
p4896
S'k2:VGF3'
p4897
ssbsba(issf_api
Chunk
p4898
(dp4899
g3521
g3376
sg30
I19
sg3626
g3383
sg31
I4
sg3512
(lp4900
I163
aI164
aI165
asg36
(issf_api
FeatureSet
p4901
(dp4902
g12
(dp4903
S'name'
p4904
g4592
sS'drel'
p4905
S'k1:VGF4'
p4906
ssbsba(issf_api
Chunk
p4907
(dp4908
g3521
g3416
sg30
I20
sg3626
g3425
sg31
I4
sg3512
(lp4909
I166
asg36
(issf_api
FeatureSet
p4910
(dp4911
g12
(dp4912
S'name'
p4913
g4594
sS'drel'
p4914
S'r6-k2:NP16'
p4915
ssbsba(issf_api
Chunk
p4916
(dp4917
g3521
g3439
sg30
I21
sg3626
g3444
sg31
I4
sg3512
(lp4918
I167
asg36
(issf_api
FeatureSet
p4919
(dp4920
g12
(dp4921
S'name'
p4922
g4593
sS'drel'
p4923
S'pof:VGF4'
p4924
ssbsba(issf_api
Chunk
p4925
(dp4926
g3521
g3458
sg30
I22
sg3626
g3469
sg31
I4
sg3512
(lp4927
I168
aI169
asg36
(issf_api
FeatureSet
p4928
(dp4929
g12
(dp4930
S'name'
p4931
g4586
sS'drel'
p4932
S'ccof:CCP2'
p4933
ssbsba(issf_api
Chunk
p4934
(dp4935
g3521
g3500
sg30
I23
sg3626
g3505
sg31
I4
sg3512
(lp4936
I170
asg36
(issf_api
FeatureSet
p4937
(dp4938
g12
(dp4939
S'name'
p4940
g4722
sS'drel'
p4941
S'rsym:VGF'
p4942
ssbsbasbasb.