(issf_api
SSFInfo
p0
(dp1
S'globalWordList'
p2
(lp3
(issf_api
Word
p4
(dp5
S'splitConn'
p6
I00
sS'word'
p7
V\u0915\u093e\u0902\u0917\u094d\u0930\u0947\u0938
p8
sS'extraFeatureSet'
p9
(issf_api
FeatureSet
p10
(dp11
S'featureDict'
p12
(dp13
S'crefhead'
p14
S'\xe0\xa4\x95\xe0\xa4\xbe\xe0\xa4\x82\xe0\xa4\x97\xe0\xa5\x8d\xe0\xa4\xb0\xe0\xa5\x87\xe0\xa4\xb8:i1'
p15
sS'posn'
p16
S'10'
p17
sS'name'
p18
S'\xe0\xa4\x95\xe0\xa4\xbe\xe0\xa4\x82\xe0\xa4\x97\xe0\xa5\x8d\xe0\xa4\xb0\xe0\xa5\x87\xe0\xa4\xb8'
p19
sS'af'
p20
S'\xe0\xa4\x95\xe0\xa4\xbe\xe0\xa4\x82\xe0\xa4\x97\xe0\xa5\x8d\xe0\xa4\xb0\xe0\xa5\x87\xe0\xa4\xb8,n,f,sg,3,o,0_\xe0\xa4\xa8\xe0\xa5\x87,0'
p21
sS'chunkid'
p22
S'NP'
p23
sS'chunktype'
p24
S'head:NP'
p25
sS'crefchainhead'
p26
S'i1:t1'
p27
sS'vpos'
p28
S'vib_2'
p29
sS'cref'
p30
S'i1%1:t1'
p31
sS'drel'
p32
S'k1:VGF'
p33
ssbsS'arg1'
p34
I00
sS'arg2'
p35
I00
sS'sense'
p36
NsS'arg1Span'
p37
NsS'chunkNum'
p38
I0
sS'sentenceNum'
p39
I0
sS'relationNum'
p40
NsS'arg2Span'
p41
NsS'wordTag'
p42
S'NNP'
p43
sS'featureSet'
p44
g10
sS'conn'
p45
I00
sba(issf_api
Word
p46
(dp47
g6
I00
sg7
V\u0928\u0947
p48
sg9
(issf_api
FeatureSet
p49
(dp50
g12
(dp51
S'posn'
p52
S'20'
p53
sS'name'
p54
S'\xe0\xa4\xa8\xe0\xa5\x87'
p55
sS'drel'
p56
S'lwg__psp:NP'
p57
sS'chunktype'
p58
S'child:NP'
p59
sS'af'
p60
S'\xe0\xa4\xa8\xe0\xa5\x87,psp,,,,,,'
p61
ssbsg34
I00
sg35
I00
sg36
Nsg37
Nsg38
I0
sg39
I0
sg40
Nsg41
Nsg42
S'PSP'
p62
sg44
g49
sg45
I00
sba(issf_api
Word
p63
(dp64
g6
I00
sg7
V\u091c\u0928\u0924\u093e
p65
sg9
(issf_api
FeatureSet
p66
(dp67
g12
(dp68
S'posn'
p69
S'30'
p70
sS'name'
p71
S'\xe0\xa4\x9c\xe0\xa4\xa8\xe0\xa4\xa4\xe0\xa4\xbe'
p72
sS'af'
p73
S'\xe0\xa4\x9c\xe0\xa4\xa8\xe0\xa4\xa4\xe0\xa4\xbe,n,f,sg,3,d,0,0'
p74
sS'acrefmod'
p75
S'm1%0:i2'
p76
sS'drel'
p77
S'pof__cn:NP2'
p78
sS'chunktype'
p79
S'child:NP2'
p80
ssbsg34
I00
sg35
I00
sg36
Nsg37
Nsg38
I1
sg39
I0
sg40
Nsg41
Nsg42
S'NNPC'
p81
sg44
g66
sg45
I00
sba(issf_api
Word
p82
(dp83
g6
I00
sg7
V\u092a\u093e\u0930\u094d\u091f\u0940
p84
sg9
(issf_api
FeatureSet
p85
(dp86
g12
(dp87
S'posn'
p88
S'40'
p89
sS'name'
p90
S'\xe0\xa4\xaa\xe0\xa4\xbe\xe0\xa4\xb0\xe0\xa5\x8d\xe0\xa4\x9f\xe0\xa5\x80'
p91
sS'af'
p92
S'\xe0\xa4\xaa\xe0\xa4\xbe\xe0\xa4\xb0\xe0\xa5\x8d\xe0\xa4\x9f\xe0\xa5\x80,n,f,sg,3,o,0_\xe0\xa4\x95\xe0\xa4\xbe,0'
p93
sS'acrefmodhead'
p94
S'\xe0\xa4\xaa\xe0\xa4\xbe\xe0\xa4\xb0\xe0\xa5\x8d\xe0\xa4\x9f\xe0\xa5\x80:m1'
p95
sS'chunkid'
p96
S'NP2'
p97
sS'acrefmod'
p98
S'm1%1:i2'
p99
sS'drel'
p100
S'r6:NP3'
p101
sS'vpos'
p102
S'vib_3'
p103
sS'chunktype'
p104
S'head:NP2'
p105
ssbsg34
I00
sg35
I00
sg36
Nsg37
Nsg38
I1
sg39
I0
sg40
Nsg41
Nsg42
S'NNP'
p106
sg44
g85
sg45
I00
sba(issf_api
Word
p107
(dp108
g6
I00
sg7
V\u0915\u0947
p109
sg9
(issf_api
FeatureSet
p110
(dp111
g12
(dp112
S'posn'
p113
S'50'
p114
sS'name'
p115
S'\xe0\xa4\x95\xe0\xa5\x87'
p116
sS'drel'
p117
S'lwg__psp:NP2'
p118
sS'chunktype'
p119
S'child:NP2'
p120
sS'af'
p121
S'\xe0\xa4\x95\xe0\xa4\xbe,psp,m,sg,,o,,'
p122
ssbsg34
I00
sg35
I00
sg36
Nsg37
Nsg38
I1
sg39
I0
sg40
Nsg41
Nsg42
S'PSP'
p123
sg44
g110
sg45
I00
sba(issf_api
Word
p124
(dp125
g6
I00
sg7
V\u0905\u0927\u094d\u092f\u0915\u094d\u0937
p126
sg9
(issf_api
FeatureSet
p127
(dp128
g12
(dp129
S'crefhead'
p130
S'\xe0\xa4\x85\xe0\xa4\xa7\xe0\xa5\x8d\xe0\xa4\xaf\xe0\xa4\x95\xe0\xa5\x8d\xe0\xa4\xb7:i2'
p131
sS'posn'
p132
S'60'
p133
sS'name'
p134
S'\xe0\xa4\x85\xe0\xa4\xa7\xe0\xa5\x8d\xe0\xa4\xaf\xe0\xa4\x95\xe0\xa5\x8d\xe0\xa4\xb7'
p135
sS'af'
p136
S'\xe0\xa4\x85\xe0\xa4\xa7\xe0\xa5\x8d\xe0\xa4\xaf\xe0\xa4\x95\xe0\xa5\x8d\xe0\xa4\xb7,n,m,sg,3,o,0,0'
p137
sS'chunkid'
p138
S'NP3'
p139
sS'crefmod'
p140
S'm1:i2'
p141
sS'chunktype'
p142
S'head:NP3'
p143
sS'cref'
p144
S'i2%1:t2'
p145
sS'drel'
p146
S'nmod:NP4'
p147
ssbsg34
I00
sg35
I00
sg36
Nsg37
Nsg38
I2
sg39
I0
sg40
Nsg41
Nsg42
S'NN'
p148
sg44
g127
sg45
I00
sba(issf_api
Word
p149
(dp150
g6
I00
sg7
V\u0938\u0941\u092c\u094d\u0930\u0939\u094d\u092e\u0923\u094d\u092f\u092e\u094d
p151
sg9
(issf_api
FeatureSet
p152
(dp153
g12
(dp154
S'posn'
p155
S'70'
p156
sS'name'
p157
S'\xe0\xa4\xb8\xe0\xa5\x81\xe0\xa4\xac\xe0\xa5\x8d\xe0\xa4\xb0\xe0\xa4\xb9\xe0\xa5\x8d\xe0\xa4\xae\xe0\xa4\xa3\xe0\xa5\x8d\xe0\xa4\xaf\xe0\xa4\xae\xe0\xa5\x8d'
p158
sS'af'
p159
S'\xe0\xa4\xb8\xe0\xa5\x81\xe0\xa4\xac\xe0\xa5\x8d\xe0\xa4\xb0\xe0\xa4\xb9\xe0\xa5\x8d\xe0\xa4\xae\xe0\xa4\xa3\xe0\xa5\x8d\xe0\xa4\xaf\xe0\xa4\xae\xe0\xa5\x8d,n,m,sg,3,d,0,0'
p160
sS'drel'
p161
S'pof__cn:NP4'
p162
sS'chunktype'
p163
S'child:NP4'
p164
sS'cref'
p165
S'i3%0:t2'
p166
ssbsg34
I00
sg35
I00
sg36
Nsg37
Nsg38
I3
sg39
I0
sg40
Nsg41
Nsg42
S'NNPC'
p167
sg44
g152
sg45
I00
sba(issf_api
Word
p168
(dp169
g6
I00
sg7
V\u0938\u094d\u0935\u093e\u092e\u0940
p170
sg9
(issf_api
FeatureSet
p171
(dp172
g12
(dp173
S'crefhead'
p174
S'\xe0\xa4\xb8\xe0\xa5\x8d\xe0\xa4\xb5\xe0\xa4\xbe\xe0\xa4\xae\xe0\xa5\x80:i3'
p175
sS'posn'
p176
S'80'
p177
sS'name'
p178
S'\xe0\xa4\xb8\xe0\xa5\x8d\xe0\xa4\xb5\xe0\xa4\xbe\xe0\xa4\xae\xe0\xa5\x80'
p179
sS'af'
p180
S'\xe0\xa4\xb8\xe0\xa5\x8d\xe0\xa4\xb5\xe0\xa4\xbe\xe0\xa4\xae\xe0\xa5\x80,n,m,sg,3,o,0_\xe0\xa4\x95\xe0\xa4\xbe,0'
p181
sS'chunkid'
p182
S'NP4'
p183
sS'creftype'
p184
S'Coreference-NounComplement:i2'
p185
sS'chunktype'
p186
S'head:NP4'
p187
sS'crefchainhead'
p188
S'i3:t2'
p189
sS'vpos'
p190
S'vib_3'
p191
sS'cref'
p192
S'i3%1:t2'
p193
sS'drel'
p194
S'r6:NP5'
p195
ssbsg34
I00
sg35
I00
sg36
Nsg37
Nsg38
I3
sg39
I0
sg40
Nsg41
Nsg42
S'NNP'
p196
sg44
g171
sg45
I00
sba(issf_api
Word
p197
(dp198
g6
I00
sg7
V\u0915\u0947
p199
sg9
(issf_api
FeatureSet
p200
(dp201
g12
(dp202
S'posn'
p203
S'90'
p204
sS'name'
p205
S'\xe0\xa4\x95\xe0\xa5\x872'
p206
sS'drel'
p207
S'lwg__psp:NP4'
p208
sS'chunktype'
p209
S'child:NP4'
p210
sS'af'
p211
S'\xe0\xa4\x95\xe0\xa4\xbe,psp,m,sg,,o,,'
p212
ssbsg34
I00
sg35
I00
sg36
Nsg37
Nsg38
I3
sg39
I0
sg40
Nsg41
Nsg42
S'PSP'
p213
sg44
g200
sg45
I00
sba(issf_api
Word
p214
(dp215
g6
I00
sg7
V\u092a\u093e\u0930\u094d\u091f\u0940
p216
sg9
(issf_api
FeatureSet
p217
(dp218
g12
(dp219
S'crefhead'
p220
S'\xe0\xa4\xaa\xe0\xa4\xbe\xe0\xa4\xb0\xe0\xa5\x8d\xe0\xa4\x9f\xe0\xa5\x80:i4'
p221
sS'posn'
p222
S'100'
p223
sS'name'
p224
S'\xe0\xa4\xaa\xe0\xa4\xbe\xe0\xa4\xb0\xe0\xa5\x8d\xe0\xa4\x9f\xe0\xa5\x802'
p225
sS'af'
p226
S'\xe0\xa4\xaa\xe0\xa4\xbe\xe0\xa4\xb0\xe0\xa5\x8d\xe0\xa4\x9f\xe0\xa5\x80,n,f,sg,3,d,0,0'
p227
sS'creftype'
p228
S'Coreference-Noun-Noun:i1'
p229
sS'drel'
p230
S'pof__cn:NP5'
p231
sS'chunktype'
p232
S'child:NP5'
p233
sS'cref'
p234
S'i4%1:t1,i5%0:t3'
p235
ssbsg34
I00
sg35
I00
sg36
Nsg37
Nsg38
I4
sg39
I0
sg40
Nsg41
Nsg42
S'NNC'
p236
sg44
g217
sg45
I00
sba(issf_api
Word
p237
(dp238
g6
I00
sg7
V\u0906\u0932\u093e\u0915\u092e\u093e\u0928
p239
sg9
(issf_api
FeatureSet
p240
(dp241
g12
(dp242
S'posn'
p243
S'110'
p244
sS'name'
p245
S'\xe0\xa4\x86\xe0\xa4\xb2\xe0\xa4\xbe\xe0\xa4\x95\xe0\xa4\xae\xe0\xa4\xbe\xe0\xa4\xa8'
p246
sS'af'
p247
S'\xe0\xa4\x86\xe0\xa4\xb2\xe0\xa4\xbe\xe0\xa4\x95\xe0\xa4\xae\xe0\xa4\xbe\xe0\xa4\xa8,n,f,sg,3,d,0,0'
p248
sS'drel'
p249
S'nmod:NP5'
p250
sS'chunktype'
p251
S'child:NP5'
p252
sS'cref'
p253
S'i5%0:t3'
p254
ssbsg34
I00
sg35
I00
sg36
Nsg37
Nsg38
I4
sg39
I0
sg40
Nsg41
Nsg42
S'NN'
p255
sg44
g240
sg45
I00
sba(issf_api
Word
p256
(dp257
g6
I00
sg7
V\u0938\u094b\u0928\u093f\u092f\u093e
p258
sg9
(issf_api
FeatureSet
p259
(dp260
g12
(dp261
S'posn'
p262
S'120'
p263
sS'name'
p264
S'\xe0\xa4\xb8\xe0\xa5\x8b\xe0\xa4\xa8\xe0\xa4\xbf\xe0\xa4\xaf\xe0\xa4\xbe'
p265
sS'af'
p266
S'\xe0\xa4\xb8\xe0\xa5\x8b\xe0\xa4\xa8\xe0\xa4\xbf\xe0\xa4\xaf\xe0\xa4\xbe,n,f,sg,3,d,0,0'
p267
sS'drel'
p268
S'pof__cn:NP5'
p269
sS'chunktype'
p270
S'child:NP5'
p271
sS'cref'
p272
S'i5%0:t3'
p273
ssbsg34
I00
sg35
I00
sg36
Nsg37
Nsg38
I4
sg39
I0
sg40
Nsg41
Nsg42
S'NNPC'
p274
sg44
g259
sg45
I00
sba(issf_api
Word
p275
(dp276
g6
I00
sg7
V\u0917\u093e\u0901\u0927\u0940
p277
sg9
(issf_api
FeatureSet
p278
(dp279
g12
(dp280
S'crefhead'
p281
S'\xe0\xa4\x97\xe0\xa4\xbe\xe0\xa4\x81\xe0\xa4\xa7\xe0\xa5\x80:i5'
p282
sS'posn'
p283
S'130'
p284
sS'name'
p285
S'\xe0\xa4\x97\xe0\xa4\xbe\xe0\xa4\x81\xe0\xa4\xa7\xe0\xa5\x80'
p286
sS'af'
p287
S'\xe0\xa4\x97\xe0\xa4\xbe\xe0\xa4\x81\xe0\xa4\xa7\xe0\xa5\x80,n,any,sg,3,o,0_\xe0\xa4\xaa\xe0\xa4\xb0,0'
p288
sS'chunkid'
p289
S'NP5'
p290
sS'drel'
p291
S'k1:VGNF'
p292
sS'chunktype'
p293
S'head:NP5'
p294
sS'vpos'
p295
S'vib_vib_5'
p296
sS'cref'
p297
S'i5%1:t3'
p298
ssbsg34
I00
sg35
I00
sg36
Nsg37
Nsg38
I4
sg39
I0
sg40
Nsg41
Nsg42
S'NNP'
p299
sg44
g278
sg45
I00
sba(issf_api
Word
p300
(dp301
g6
I00
sg7
V\u092a\u0930
p302
sg9
(issf_api
FeatureSet
p303
(dp304
g12
(dp305
S'posn'
p306
S'140'
p307
sS'name'
p308
S'\xe0\xa4\xaa\xe0\xa4\xb0'
p309
sS'drel'
p310
S'lwg__psp:NP5'
p311
sS'chunktype'
p312
S'child:NP5'
p313
sS'af'
p314
S'\xe0\xa4\xaa\xe0\xa4\xb0,psp,,,,,,'
p315
ssbsg34
I00
sg35
I00
sg36
Nsg37
Nsg38
I4
sg39
I0
sg40
Nsg41
Nsg42
S'PSP'
p316
sg44
g303
sg45
I00
sba(issf_api
Word
p317
(dp318
g6
I00
sg7
V\u0932\u0917\u093e\u090f
p319
sg9
(issf_api
FeatureSet
p320
(dp321
g12
(dp322
S'posn'
p323
S'150'
p324
sS'name'
p325
S'\xe0\xa4\xb2\xe0\xa4\x97\xe0\xa4\xbe\xe0\xa4\x8f'
p326
sS'af'
p327
S'\xe0\xa4\xb2\xe0\xa4\x97\xe0\xa4\xbe,v,m,pl,any,,\xe0\xa4\xaf\xe0\xa4\xbe_\xe0\xa4\x9c\xe0\xa4\xbe+\xe0\xa4\xaf\xe0\xa4\xbe\xe0\xa5\xa7,yA'
p328
sS'chunkid'
p329
S'VGNF'
p330
sS'drel'
p331
S'vmod:VGF'
p332
sS'vpos'
p333
S'tam_2'
p334
sS'chunktype'
p335
S'head:VGNF'
p336
ssbsg34
I00
sg35
I00
sg36
Nsg37
Nsg38
I5
sg39
I0
sg40
Nsg41
Nsg42
S'VM'
p337
sg44
g320
sg45
I00
sba(issf_api
Word
p338
(dp339
g6
I00
sg7
V\u0917\u090f
p340
sg9
(issf_api
FeatureSet
p341
(dp342
g12
(dp343
S'posn'
p344
S'160'
p345
sS'name'
p346
S'\xe0\xa4\x97\xe0\xa4\x8f'
p347
sS'drel'
p348
S'lwg__vaux:VGNF'
p349
sS'chunktype'
p350
S'child:VGNF'
p351
sS'af'
p352
S'\xe0\xa4\x9c\xe0\xa4\xbe,v,m,pl,any,,\xe0\xa4\xaf\xe0\xa4\xbe\xe0\xa5\xa7,yA1'
p353
ssbsg34
I00
sg35
I00
sg36
Nsg37
Nsg38
I5
sg39
I0
sg40
Nsg41
Nsg42
S'VAUX'
p354
sg44
g341
sg45
I00
sba(issf_api
Word
p355
(dp356
g6
I00
sg7
V\u0906\u0930\u094b\u092a\u094b\u0902
p357
sg9
(issf_api
FeatureSet
p358
(dp359
g12
(dp360
S'posn'
p361
S'170'
p362
sS'name'
p363
S'\xe0\xa4\x86\xe0\xa4\xb0\xe0\xa5\x8b\xe0\xa4\xaa\xe0\xa5\x8b\xe0\xa4\x82'
p364
sS'af'
p365
S'\xe0\xa4\x86\xe0\xa4\xb0\xe0\xa5\x8b\xe0\xa4\xaa,n,m,pl,3,o,0_\xe0\xa4\x95\xe0\xa5\x8b,0'
p366
sS'chunkid'
p367
S'NP6'
p368
sS'drel'
p369
S'k2:VGF'
p370
sS'vpos'
p371
S'vib_2'
p372
sS'chunktype'
p373
S'head:NP6'
p374
ssbsg34
I00
sg35
I00
sg36
Nsg37
Nsg38
I6
sg39
I0
sg40
Nsg41
Nsg42
S'NN'
p375
sg44
g358
sg45
I00
sba(issf_api
Word
p376
(dp377
g6
I00
sg7
V\u0915\u094b
p378
sg9
(issf_api
FeatureSet
p379
(dp380
g12
(dp381
S'posn'
p382
S'180'
p383
sS'name'
p384
S'\xe0\xa4\x95\xe0\xa5\x8b'
p385
sS'drel'
p386
S'lwg__psp:NP6'
p387
sS'chunktype'
p388
S'child:NP6'
p389
sS'af'
p390
S'\xe0\xa4\x95\xe0\xa5\x8b,psp,,,,,,'
p391
ssbsg34
I00
sg35
I00
sg36
Nsg37
Nsg38
I6
sg39
I0
sg40
Nsg41
Nsg42
S'PSP'
p392
sg44
g379
sg45
I00
sba(issf_api
Word
p393
(dp394
g6
I00
sg7
V\u0916\u093e\u0930\u093f\u091c
p395
sg9
(issf_api
FeatureSet
p396
(dp397
g12
(dp398
S'posn'
p399
S'190'
p400
sS'name'
p401
S'\xe0\xa4\x96\xe0\xa4\xbe\xe0\xa4\xb0\xe0\xa4\xbf\xe0\xa4\x9c'
p402
sS'af'
p403
S'\xe0\xa4\x96\xe0\xa4\xbe\xe0\xa4\xb0\xe0\xa4\xbf\xe0\xa4\x9c,adj,any,any,,,,'
p404
sS'chunkid'
p405
S'JJP'
p406
sS'drel'
p407
S'pof:VGF'
p408
sS'chunktype'
p409
S'head:JJP'
p410
ssbsg34
I00
sg35
I00
sg36
Nsg37
Nsg38
I7
sg39
I0
sg40
Nsg41
Nsg42
S'JJ'
p411
sg44
g396
sg45
I00
sba(issf_api
Word
p412
(dp413
g6
I00
sg7
V\u0915\u0930
p414
sg9
(issf_api
FeatureSet
p415
(dp416
g12
(dp417
S'posn'
p418
S'200'
p419
sS'name'
p420
S'\xe0\xa4\x95\xe0\xa4\xb0'
p421
sS'af'
p422
S'\xe0\xa4\x95\xe0\xa4\xb0,v,m,sg,3,,0_\xe0\xa4\xa6\xe0\xa5\x87+\xe0\xa4\xaf\xe0\xa4\xbe_\xe0\xa4\xb9\xe0\xa5\x88,0'
p423
sS'chunkid'
p424
S'VGF'
p425
sS'chunktype'
p426
S'head:VGF'
p427
sS'voicetype'
p428
S'active'
p429
sS'vpos'
p430
S'tam_2_3'
p431
sS'stype'
p432
S'declarative'
p433
ssbsg34
I00
sg35
I00
sg36
Nsg37
Nsg38
I8
sg39
I0
sg40
Nsg41
Nsg42
S'VM'
p434
sg44
g415
sg45
I00
sba(issf_api
Word
p435
(dp436
g6
I00
sg7
V\u0926\u093f\u092f\u093e
p437
sg9
(issf_api
FeatureSet
p438
(dp439
g12
(dp440
S'posn'
p441
S'210'
p442
sS'name'
p443
S'\xe0\xa4\xa6\xe0\xa4\xbf\xe0\xa4\xaf\xe0\xa4\xbe'
p444
sS'drel'
p445
S'lwg__vaux:VGF'
p446
sS'chunktype'
p447
S'child:VGF'
p448
sS'af'
p449
S'\xe0\xa4\xa6\xe0\xa5\x87,v,m,sg,any,,\xe0\xa4\xaf\xe0\xa4\xbe,yA'
p450
ssbsg34
I00
sg35
I00
sg36
Nsg37
Nsg38
I8
sg39
I0
sg40
Nsg41
Nsg42
S'VAUX'
p451
sg44
g438
sg45
I00
sba(issf_api
Word
p452
(dp453
g6
I00
sg7
V\u0939\u0948
p454
sg9
(issf_api
FeatureSet
p455
(dp456
g12
(dp457
S'posn'
p458
S'220'
p459
sS'name'
p460
S'\xe0\xa4\xb9\xe0\xa5\x88'
p461
sS'drel'
p462
S'lwg__vaux:VGF'
p463
sS'chunktype'
p464
S'child:VGF'
p465
sS'af'
p466
S'\xe0\xa4\xb9\xe0\xa5\x88,v,any,sg,3,,\xe0\xa4\xb9\xe0\xa5\x88,hE'
p467
ssbsg34
I00
sg35
I00
sg36
Nsg37
Nsg38
I8
sg39
I0
sg40
Nsg41
Nsg42
S'VAUX'
p468
sg44
g455
sg45
I00
sba(issf_api
Word
p469
(dp470
g6
I00
sg7
V\u0964
p471
sg9
(issf_api
FeatureSet
p472
(dp473
g12
(dp474
S'posn'
p475
S'230'
p476
sS'name'
p477
S'\xe0\xa5\xa4'
p478
sS'af'
p479
S'\xe0\xa5\xa4,punc,,,,,,'
p480
sS'chunkid'
p481
S'BLK'
p482
sS'drel'
p483
S'rsym:VGF'
p484
sS'chunktype'
p485
S'head:BLK'
p486
ssbsg34
I00
sg35
I00
sg36
Nsg37
Nsg38
I9
sg39
I0
sg40
Nsg41
Nsg42
S'SYM'
p487
sg44
g472
sg45
I00
sba(issf_api
Word
p488
(dp489
g6
I00
sg7
V\u092a\u093e\u0930\u094d\u091f\u0940
p490
sg9
(issf_api
FeatureSet
p491
(dp492
g12
(dp493
S'crefhead'
p494
S'\xe0\xa4\xaa\xe0\xa4\xbe\xe0\xa4\xb0\xe0\xa5\x8d\xe0\xa4\x9f\xe0\xa5\x80:i6'
p495
sS'posn'
p496
S'10'
p497
sS'name'
p498
S'\xe0\xa4\xaa\xe0\xa4\xbe\xe0\xa4\xb0\xe0\xa5\x8d\xe0\xa4\x9f\xe0\xa5\x80'
p499
sS'af'
p500
S'\xe0\xa4\xaa\xe0\xa4\xbe\xe0\xa4\xb0\xe0\xa5\x8d\xe0\xa4\x9f\xe0\xa5\x80,n,f,sg,3,o,0_\xe0\xa4\x95\xe0\xa4\xbe,0'
p501
sS'chunkid'
p502
S'NP'
p503
sS'creftype'
p504
S'Coreference-Identity:i4'
p505
sS'chunktype'
p506
S'head:NP'
p507
sS'vpos'
p508
S'vib_2'
p509
sS'cref'
p510
S'i6%1:t1'
p511
sS'drel'
p512
S'k1:VGNN'
p513
ssbsg34
I00
sg35
I00
sg36
Nsg37
Nsg38
I0
sg39
I1
sg40
Nsg41
Nsg42
S'NN'
p514
sg44
g491
sg45
I00
sba(issf_api
Word
p515
(dp516
g6
I00
sg7
V\u0915\u093e
p517
sg9
(issf_api
FeatureSet
p518
(dp519
g12
(dp520
S'posn'
p521
S'20'
p522
sS'name'
p523
S'\xe0\xa4\x95\xe0\xa4\xbe'
p524
sS'drel'
p525
S'lwg__psp:NP'
p526
sS'chunktype'
p527
S'child:NP'
p528
sS'af'
p529
S'\xe0\xa4\x95\xe0\xa4\xbe,psp,m,sg,,d,,'
p530
ssbsg34
I00
sg35
I00
sg36
Nsg37
Nsg38
I0
sg39
I1
sg40
Nsg41
Nsg42
S'PSP'
p531
sg44
g518
sg45
I00
sba(issf_api
Word
p532
(dp533
g6
I00
sg7
V\u0915\u0939\u0928\u093e
p534
sg9
(issf_api
FeatureSet
p535
(dp536
g12
(dp537
S'posn'
p538
S'30'
p539
sS'name'
p540
S'\xe0\xa4\x95\xe0\xa4\xb9\xe0\xa4\xa8\xe0\xa4\xbe'
p541
sS'af'
p542
S'\xe0\xa4\x95\xe0\xa4\xb9,v,any,any,any,d,\xe0\xa4\xa8\xe0\xa4\xbe,nA'
p543
sS'chunkid'
p544
S'VGNN'
p545
sS'drel'
p546
S'k1:VGF'
p547
sS'chunktype'
p548
S'head:VGNN'
p549
ssbsg34
I00
sg35
I00
sg36
Nsg37
Nsg38
I1
sg39
I1
sg40
Nsg41
Nsg42
S'VM'
p550
sg44
g535
sg45
I00
sba(issf_api
Word
p551
(dp552
g6
I00
sg7
V\u0939\u0948
p553
sg9
(issf_api
FeatureSet
p554
(dp555
g12
(dp556
S'posn'
p557
S'40'
p558
sS'name'
p559
S'\xe0\xa4\xb9\xe0\xa5\x88'
p560
sS'af'
p561
S'\xe0\xa4\xb9\xe0\xa5\x88,v,any,sg,3,,\xe0\xa4\xb9\xe0\xa5\x88,hE'
p562
sS'chunkid'
p563
S'VGF'
p564
sS'chunktype'
p565
S'head:VGF'
p566
sS'voicetype'
p567
S'active'
p568
sS'stype'
p569
S'declarative'
p570
ssbsg34
I00
sg35
I00
sg36
Nsg37
Nsg38
I2
sg39
I1
sg40
Nsg41
Nsg42
S'VM'
p571
sg44
g554
sg45
I00
sba(issf_api
Word
p572
(dp573
g6
I00
sg7
V\u0915\u093f
p574
sg9
(issf_api
FeatureSet
p575
(dp576
g12
(dp577
S'posn'
p578
S'50'
p579
sS'name'
p580
S'\xe0\xa4\x95\xe0\xa4\xbf'
p581
sS'af'
p582
S'\xe0\xa4\x95\xe0\xa4\xbf,avy,,,,,,'
p583
sS'chunkid'
p584
S'CCP'
p585
sS'drel'
p586
S'k2:VGNN'
p587
sS'chunktype'
p588
S'head:CCP'
p589
ssbsg34
I00
sg35
I00
sg36
Nsg37
Nsg38
I3
sg39
I1
sg40
Nsg41
Nsg42
S'CC'
p590
sg44
g575
sg45
I00
sba(issf_api
Word
p591
(dp592
g6
I00
sg7
V\u0915\u093e\u0902\u0917\u094d\u0930\u0947\u0938
p593
sg9
(issf_api
FeatureSet
p594
(dp595
g12
(dp596
S'crefhead'
p597
S'\xe0\xa4\x95\xe0\xa4\xbe\xe0\xa4\x82\xe0\xa4\x97\xe0\xa5\x8d\xe0\xa4\xb0\xe0\xa5\x87\xe0\xa4\xb8:i7'
p598
sS'posn'
p599
S'60'
p600
sS'name'
p601
S'\xe0\xa4\x95\xe0\xa4\xbe\xe0\xa4\x82\xe0\xa4\x97\xe0\xa5\x8d\xe0\xa4\xb0\xe0\xa5\x87\xe0\xa4\xb8'
p602
sS'af'
p603
S'\xe0\xa4\x95\xe0\xa4\xbe\xe0\xa4\x82\xe0\xa4\x97\xe0\xa5\x8d\xe0\xa4\xb0\xe0\xa5\x87\xe0\xa4\xb8,n,f,sg,3,d,0,0'
p604
sS'chunkid'
p605
S'NP2'
p606
sS'creftype'
p607
S'Coreference-Noun-Noun:i6'
p608
sS'chunktype'
p609
S'head:NP2'
p610
sS'cref'
p611
S'i7%1:t1'
p612
sS'drel'
p613
S'k1:VGF2'
p614
ssbsg34
I00
sg35
I00
sg36
Nsg37
Nsg38
I4
sg39
I1
sg40
Nsg41
Nsg42
S'NNP'
p615
sg44
g594
sg45
I00
sba(issf_api
Word
p616
(dp617
g6
I00
sg7
V\u092a\u0939\u0932\u0947
p618
sg9
(issf_api
FeatureSet
p619
(dp620
g12
(dp621
S'posn'
p622
S'70'
p623
sS'name'
p624
S'\xe0\xa4\xaa\xe0\xa4\xb9\xe0\xa4\xb2\xe0\xa5\x87'
p625
sS'af'
p626
S'\xe0\xa4\xaa\xe0\xa4\xb9\xe0\xa4\xb2\xe0\xa5\x87,nst,m,sg,3,d,,'
p627
sS'chunkid'
p628
S'NP3'
p629
sS'drel'
p630
S'k7t:VGF2'
p631
sS'chunktype'
p632
S'head:NP3'
p633
ssbsg34
I00
sg35
I00
sg36
Nsg37
Nsg38
I5
sg39
I1
sg40
Nsg41
Nsg42
S'NST'
p634
sg44
g619
sg45
I00
sba(issf_api
Word
p635
(dp636
g6
I00
sg7
V\u092d\u0940
p637
sg9
(issf_api
FeatureSet
p638
(dp639
g12
(dp640
S'posn'
p641
S'80'
p642
sS'name'
p643
S'\xe0\xa4\xad\xe0\xa5\x80'
p644
sS'drel'
p645
S'lwg__rp:NP3'
p646
sS'chunktype'
p647
S'child:NP3'
p648
sS'af'
p649
S'\xe0\xa4\xad\xe0\xa5\x80,avy,,,,,,'
p650
ssbsg34
I00
sg35
I00
sg36
Nsg37
Nsg38
I5
sg39
I1
sg40
Nsg41
Nsg42
S'RP'
p651
sg44
g638
sg45
I00
sba(issf_api
Word
p652
(dp653
g6
I00
sg7
V\u092f\u0939
p654
sg9
(issf_api
FeatureSet
p655
(dp656
g12
(dp657
S'crefhead'
p658
S'\xe0\xa4\xaf\xe0\xa4\xb9:i8'
p659
sS'posn'
p660
S'90'
p661
sS'name'
p662
S'\xe0\xa4\xaf\xe0\xa4\xb9'
p663
sS'af'
p664
S'\xe0\xa4\xaf\xe0\xa4\xb9,pn,any,sg,3,d,0,0'
p665
sS'chunkid'
p666
S'NP4'
p667
sS'drel'
p668
S'k2:VGF2'
p669
sS'chunktype'
p670
S'head:NP4'
p671
sS'cref'
p672
S'i8%1:t4'
p673
ssbsg34
I00
sg35
I00
sg36
Nsg37
Nsg38
I6
sg39
I1
sg40
Nsg41
Nsg42
S'PRP'
p674
sg44
g655
sg45
I00
sba(issf_api
Word
p675
(dp676
g6
I00
sg7
V\u0938\u093e\u092b
p677
sg9
(issf_api
FeatureSet
p678
(dp679
g12
(dp680
S'posn'
p681
S'100'
p682
sS'name'
p683
S'\xe0\xa4\xb8\xe0\xa4\xbe\xe0\xa4\xab'
p684
sS'af'
p685
S'\xe0\xa4\xb8\xe0\xa4\xbe\xe0\xa4\xab,adj,any,any,,,,'
p686
sS'chunkid'
p687
S'JJP'
p688
sS'drel'
p689
S'pof:VGF2'
p690
sS'chunktype'
p691
S'head:JJP'
p692
ssbsg34
I00
sg35
I00
sg36
Nsg37
Nsg38
I7
sg39
I1
sg40
Nsg41
Nsg42
S'JJ'
p693
sg44
g678
sg45
I00
sba(issf_api
Word
p694
(dp695
g6
I00
sg7
V\u0915\u0930
p696
sg9
(issf_api
FeatureSet
p697
(dp698
g12
(dp699
S'posn'
p700
S'110'
p701
sS'name'
p702
S'\xe0\xa4\x95\xe0\xa4\xb0'
p703
sS'af'
p704
S'\xe0\xa4\x95\xe0\xa4\xb0,v,f,sg,3,,0_\xe0\xa4\x9a\xe0\xa5\x81\xe0\xa4\x95+\xe0\xa4\xaf\xe0\xa4\xbe_\xe0\xa4\xb9\xe0\xa5\x88,0'
p705
sS'chunkid'
p706
S'VGF2'
p707
sS'stype'
p708
S'declarative'
p709
sS'drel'
p710
S'ccof:CCP'
p711
sS'voicetype'
p712
S'active'
p713
sS'vpos'
p714
S'tam_2_3'
p715
sS'chunktype'
p716
S'head:VGF2'
p717
ssbsg34
I00
sg35
I00
sg36
Nsg37
Nsg38
I8
sg39
I1
sg40
Nsg41
Nsg42
S'VM'
p718
sg44
g697
sg45
I00
sba(issf_api
Word
p719
(dp720
g6
I00
sg7
V\u091a\u0941\u0915\u0940
p721
sg9
(issf_api
FeatureSet
p722
(dp723
g12
(dp724
S'posn'
p725
S'120'
p726
sS'name'
p727
S'\xe0\xa4\x9a\xe0\xa5\x81\xe0\xa4\x95\xe0\xa5\x80'
p728
sS'drel'
p729
S'lwg__vaux:VGF2'
p730
sS'chunktype'
p731
S'child:VGF2'
p732
sS'af'
p733
S'\xe0\xa4\x9a\xe0\xa5\x81\xe0\xa4\x95,v,f,sg,any,,\xe0\xa4\xaf\xe0\xa4\xbe,yA'
p734
ssbsg34
I00
sg35
I00
sg36
Nsg37
Nsg38
I8
sg39
I1
sg40
Nsg41
Nsg42
S'VAUX'
p735
sg44
g722
sg45
I00
sba(issf_api
Word
p736
(dp737
g6
I00
sg7
V\u0939\u0948
p738
sg9
(issf_api
FeatureSet
p739
(dp740
g12
(dp741
S'posn'
p742
S'130'
p743
sS'name'
p744
S'\xe0\xa4\xb9\xe0\xa5\x882'
p745
sS'drel'
p746
S'lwg__vaux:VGF2'
p747
sS'chunktype'
p748
S'child:VGF2'
p749
sS'af'
p750
S'\xe0\xa4\xb9\xe0\xa5\x88,v,any,sg,3,,\xe0\xa4\xb9\xe0\xa5\x88,hE'
p751
ssbsg34
I00
sg35
I00
sg36
Nsg37
Nsg38
I8
sg39
I1
sg40
Nsg41
Nsg42
S'VAUX'
p752
sg44
g739
sg45
I00
sba(issf_api
Word
p753
(dp754
g6
I00
sg7
V\u0915\u093f
p755
sg9
(issf_api
FeatureSet
p756
(dp757
g12
(dp758
S'posn'
p759
S'140'
p760
sS'name'
p761
S'\xe0\xa4\x95\xe0\xa4\xbf2'
p762
sS'af'
p763
S'\xe0\xa4\x95\xe0\xa4\xbf,avy,,,,,,'
p764
sS'chunkid'
p765
S'CCP2'
p766
sS'drel'
p767
S'rs:NP4'
p768
sS'chunktype'
p769
S'head:CCP2'
p770
ssbsg34
I00
sg35
I00
sg36
Nsg37
Nsg38
I9
sg39
I1
sg40
Nsg41
Nsg42
S'CC'
p771
sg44
g756
sg45
I00
sba(issf_api
Word
p772
(dp773
g6
I00
sg7
V\u0907\u0930\u093e\u0915
p774
sg9
(issf_api
FeatureSet
p775
(dp776
g12
(dp777
S'posn'
p778
S'150'
p779
sS'name'
p780
S'\xe0\xa4\x87\xe0\xa4\xb0\xe0\xa4\xbe\xe0\xa4\x95'
p781
sS'af'
p782
S'\xe0\xa4\x87\xe0\xa4\xb0\xe0\xa4\xbe\xe0\xa4\x95,n,m,sg,3,o,0_\xe0\xa4\xae\xe0\xa5\x87\xe0\xa4\x82,0'
p783
sS'chunkid'
p784
S'NP5'
p785
sS'drel'
p786
S'k7p:VGNF'
p787
sS'chunktype'
p788
S'head:NP5'
p789
sS'vpos'
p790
S'vib_2'
p791
sS'cref'
p792
S'i9%0:t4'
p793
ssbsg34
I00
sg35
I00
sg36
Nsg37
Nsg38
I10
sg39
I1
sg40
Nsg41
Nsg42
S'NNP'
p794
sg44
g775
sg45
I00
sba(issf_api
Word
p795
(dp796
g6
I00
sg7
V\u092e\u0947\u0902
p797
sg9
(issf_api
FeatureSet
p798
(dp799
g12
(dp800
S'posn'
p801
S'160'
p802
sS'name'
p803
S'\xe0\xa4\xae\xe0\xa5\x87\xe0\xa4\x82'
p804
sS'af'
p805
S'\xe0\xa4\xae\xe0\xa5\x87\xe0\xa4\x82,psp,,,,,,'
p806
sS'drel'
p807
S'lwg__psp:NP5'
p808
sS'chunktype'
p809
S'child:NP5'
p810
sS'cref'
p811
S'i9%0:t4'
p812
ssbsg34
I00
sg35
I00
sg36
Nsg37
Nsg38
I10
sg39
I1
sg40
Nsg41
Nsg42
S'PSP'
p813
sg44
g798
sg45
I00
sba(issf_api
Word
p814
(dp815
g6
I00
sg7
V\u0939\u0941\u090f
p816
sg9
(issf_api
FeatureSet
p817
(dp818
g12
(dp819
S'posn'
p820
S'170'
p821
sS'name'
p822
S'\xe0\xa4\xb9\xe0\xa5\x81\xe0\xa4\x8f'
p823
sS'af'
p824
S'\xe0\xa4\xb9\xe0\xa5\x8b,v,m,sg,any,,\xe0\xa4\xaf\xe0\xa4\xbe,yA'
p825
sS'chunkid'
p826
S'VGNF'
p827
sS'drel'
p828
S'vmod:VGF3'
p829
sS'chunktype'
p830
S'head:VGNF'
p831
sS'cref'
p832
S'i9%0:t4'
p833
ssbsg34
I00
sg35
I00
sg36
Nsg37
Nsg38
I11
sg39
I1
sg40
Nsg41
Nsg42
S'VM'
p834
sg44
g817
sg45
I00
sba(issf_api
Word
p835
(dp836
g6
I00
sg7
V\u0924\u0947\u0932
p837
sg9
(issf_api
FeatureSet
p838
(dp839
g12
(dp840
S'posn'
p841
S'180'
p842
sS'name'
p843
S'\xe0\xa4\xa4\xe0\xa5\x87\xe0\xa4\xb2'
p844
sS'af'
p845
S'\xe0\xa4\xa4\xe0\xa5\x87\xe0\xa4\xb2,n,m,sg,3,d,0,0'
p846
sS'drel'
p847
S'pof__cn:NP6'
p848
sS'chunktype'
p849
S'child:NP6'
p850
sS'cref'
p851
S'i9%0:t4'
p852
ssbsg34
I00
sg35
I00
sg36
Nsg37
Nsg38
I12
sg39
I1
sg40
Nsg41
Nsg42
S'NNC'
p853
sg44
g838
sg45
I00
sba(issf_api
Word
p854
(dp855
g6
I00
sg7
V\u0918\u094b\u091f\u093e\u0932\u0947
p856
sg9
(issf_api
FeatureSet
p857
(dp858
g12
(dp859
S'posn'
p860
S'190'
p861
sS'name'
p862
S'\xe0\xa4\x98\xe0\xa5\x8b\xe0\xa4\x9f\xe0\xa4\xbe\xe0\xa4\xb2\xe0\xa5\x87'
p863
sS'af'
p864
S'\xe0\xa4\x98\xe0\xa5\x8b\xe0\xa4\x9f\xe0\xa4\xbe\xe0\xa4\xb2\xe0\xa4\xbe,n,m,sg,3,o,0_\xe0\xa4\xb8\xe0\xa5\x87,0'
p865
sS'chunkid'
p866
S'NP6'
p867
sS'drel'
p868
S'k1s:VGF3'
p869
sS'chunktype'
p870
S'head:NP6'
p871
sS'vpos'
p872
S'vib_3'
p873
sS'cref'
p874
S'i9%0:t4'
p875
ssbsg34
I00
sg35
I00
sg36
Nsg37
Nsg38
I12
sg39
I1
sg40
Nsg41
Nsg42
S'NN'
p876
sg44
g857
sg45
I00
sba(issf_api
Word
p877
(dp878
g6
I00
sg7
V\u0938\u0947
p879
sg9
(issf_api
FeatureSet
p880
(dp881
g12
(dp882
S'posn'
p883
S'200'
p884
sS'name'
p885
S'\xe0\xa4\xb8\xe0\xa5\x87'
p886
sS'af'
p887
S'\xe0\xa4\xb8\xe0\xa5\x87,psp,,,,,,'
p888
sS'drel'
p889
S'lwg__psp:NP6'
p890
sS'chunktype'
p891
S'child:NP6'
p892
sS'cref'
p893
S'i9%0:t4'
p894
ssbsg34
I00
sg35
I00
sg36
Nsg37
Nsg38
I12
sg39
I1
sg40
Nsg41
Nsg42
S'PSP'
p895
sg44
g880
sg45
I00
sba(issf_api
Word
p896
(dp897
g6
I00
sg7
V\u0909\u0938\u0915\u093e
p898
sg9
(issf_api
FeatureSet
p899
(dp900
g12
(dp901
S'crefhead'
p902
S'\xe0\xa4\x89\xe0\xa4\xb8\xe0\xa4\x95\xe0\xa4\xbe:i10'
p903
sS'posn'
p904
S'210'
p905
sS'name'
p906
S'\xe0\xa4\x89\xe0\xa4\xb8\xe0\xa4\x95\xe0\xa4\xbe'
p907
sS'af'
p908
S'\xe0\xa4\xb5\xe0\xa4\xb9,pn,m,sg,3,o,\xe0\xa4\x95\xe0\xa4\xbe,kA'
p909
sS'chunkid'
p910
S'NP7'
p911
sS'creftype'
p912
S'Anaphora-C:i7'
p913
sS'chunktype'
p914
S'head:NP7'
p915
sS'cref'
p916
S'i10%1:t1,i9%0:t4'
p917
sS'drel'
p918
S'r6:NP8'
p919
ssbsg34
I00
sg35
I00
sg36
Nsg37
Nsg38
I13
sg39
I1
sg40
Nsg41
Nsg42
S'PRP'
p920
sg44
g899
sg45
I00
sba(issf_api
Word
p921
(dp922
g6
I00
sg7
V\u0915\u094b\u0908
p923
sg9
(issf_api
FeatureSet
p924
(dp925
g12
(dp926
S'crefhead'
p927
S'\xe0\xa4\x95\xe0\xa5\x8b\xe0\xa4\x88:i11'
p928
sS'posn'
p929
S'220'
p930
sS'name'
p931
S'\xe0\xa4\x95\xe0\xa5\x8b\xe0\xa4\x88'
p932
sS'af'
p933
S'\xe0\xa4\x95\xe0\xa5\x8b\xe0\xa4\x88,pn,any,sg,3,d,0,0'
p934
sS'drel'
p935
S'nmod__adj:NP8'
p936
sS'crefchainhead'
p937
S'i11:t5'
p938
sS'chunktype'
p939
S'child:NP8'
p940
sS'cref'
p941
S'i11%1:t5,i9%0:t4'
p942
ssbsg34
I00
sg35
I00
sg36
Nsg37
Nsg38
I14
sg39
I1
sg40
Nsg41
Nsg42
S'PRP'
p943
sg44
g924
sg45
I00
sba(issf_api
Word
p944
(dp945
g6
I00
sg7
V\u0930\u093f\u0936\u094d\u0924\u093e
p946
sg9
(issf_api
FeatureSet
p947
(dp948
g12
(dp949
S'posn'
p950
S'230'
p951
sS'name'
p952
S'\xe0\xa4\xb0\xe0\xa4\xbf\xe0\xa4\xb6\xe0\xa5\x8d\xe0\xa4\xa4\xe0\xa4\xbe'
p953
sS'af'
p954
S'\xe0\xa4\xb0\xe0\xa4\xbf\xe0\xa4\xb6\xe0\xa5\x8d\xe0\xa4\xa4\xe0\xa4\xbe,n,m,sg,3,d,0,0'
p955
sS'chunkid'
p956
S'NP8'
p957
sS'drel'
p958
S'k1:VGF3'
p959
sS'chunktype'
p960
S'head:NP8'
p961
sS'cref'
p962
S'i9%0:t4'
p963
ssbsg34
I00
sg35
I00
sg36
Nsg37
Nsg38
I14
sg39
I1
sg40
Nsg41
Nsg42
S'NN'
p964
sg44
g947
sg45
I00
sba(issf_api
Word
p965
(dp966
g6
I00
sg7
V\u0928\u0939\u0940\u0902
p967
sg9
(issf_api
FeatureSet
p968
(dp969
g12
(dp970
S'posn'
p971
S'240'
p972
sS'name'
p973
S'\xe0\xa4\xa8\xe0\xa4\xb9\xe0\xa5\x80\xe0\xa4\x82'
p974
sS'af'
p975
S'\xe0\xa4\xa8\xe0\xa4\xb9\xe0\xa5\x80\xe0\xa4\x82,avy,,,,,,'
p976
sS'drel'
p977
S'lwg__neg:VGF3'
p978
sS'chunktype'
p979
S'child:VGF3'
p980
sS'cref'
p981
S'i9%0:t4'
p982
ssbsg34
I00
sg35
I00
sg36
Nsg37
Nsg38
I15
sg39
I1
sg40
Nsg41
Nsg42
S'NEG'
p983
sg44
g968
sg45
I00
sba(issf_api
Word
p984
(dp985
g6
I00
sg7
V\u0939\u0948
p986
sg9
(issf_api
FeatureSet
p987
(dp988
g12
(dp989
S'crefhead'
p990
S'\xe0\xa4\xb9\xe0\xa5\x88:i9'
p991
sS'posn'
p992
S'250'
p993
sS'name'
p994
S'\xe0\xa4\xb9\xe0\xa5\x883'
p995
sS'af'
p996
S'\xe0\xa4\xb9\xe0\xa5\x88,v,any,sg,3,,\xe0\xa4\xb9\xe0\xa5\x88,hE'
p997
sS'chunkid'
p998
S'VGF3'
p999
sS'stype'
p1000
S'declarative'
p1001
sS'creftype'
p1002
S'Anaphora-RC:i8'
p1003
sS'chunktype'
p1004
S'head:VGF3'
p1005
sS'crefchainhead'
p1006
S'i9:t4'
p1007
sS'voicetype'
p1008
S'active'
p1009
sS'cref'
p1010
S'i9%1:t4'
p1011
sS'drel'
p1012
S'ccof:CCP2'
p1013
ssbsg34
I00
sg35
I00
sg36
Nsg37
Nsg38
I15
sg39
I1
sg40
Nsg41
Nsg42
S'VM'
p1014
sg44
g987
sg45
I00
sba(issf_api
Word
p1015
(dp1016
g6
I00
sg7
V\u0964
p1017
sg9
(issf_api
FeatureSet
p1018
(dp1019
g12
(dp1020
S'posn'
p1021
S'260'
p1022
sS'name'
p1023
S'\xe0\xa5\xa4'
p1024
sS'af'
p1025
S'\xe0\xa5\xa4,punc,,,,,,'
p1026
sS'chunkid'
p1027
S'BLK'
p1028
sS'drel'
p1029
S'rsym:VGF'
p1030
sS'chunktype'
p1031
S'head:BLK'
p1032
ssbsg34
I00
sg35
I00
sg36
Nsg37
Nsg38
I16
sg39
I1
sg40
Nsg41
Nsg42
S'SYM'
p1033
sg44
g1018
sg45
I00
sba(issf_api
Word
p1034
(dp1035
g6
I00
sg7
V\u091c\u0939\u093e\u0902
p1036
sg9
(issf_api
FeatureSet
p1037
(dp1038
g12
(dp1039
S'crefhead'
p1040
S'\xe0\xa4\x9c\xe0\xa4\xb9\xe0\xa4\xbe\xe0\xa4\x82:i12'
p1041
sS'posn'
p1042
S'10'
p1043
sS'name'
p1044
S'\xe0\xa4\x9c\xe0\xa4\xb9\xe0\xa4\xbe\xe0\xa4\x82'
p1045
sS'af'
p1046
S'\xe0\xa4\x9c\xe0\xa4\xb9\xe0\xa4\xbe\xe0\xa4\x81,pn,,,,o,0_\xe0\xa4\xa4\xe0\xa4\x95,'
p1047
sS'chunkid'
p1048
S'NP'
p1049
sS'chunktype'
p1050
S'head:NP'
p1051
sS'crefchainhead'
p1052
S'i12:t6'
p1053
sS'vpos'
p1054
S'vib_2'
p1055
sS'cref'
p1056
S'i12%1:t6'
p1057
sS'drel'
p1058
S'sent-adv:VGF'
p1059
ssbsg34
I00
sg35
I00
sg36
Nsg37
Nsg38
I0
sg39
I2
sg40
Nsg41
Nsg42
S'PRP'
p1060
sg44
g1037
sg45
I00
sba(issf_api
Word
p1061
(dp1062
g6
I00
sg7
V\u0924\u0915
p1063
sg9
(issf_api
FeatureSet
p1064
(dp1065
g12
(dp1066
S'posn'
p1067
S'20'
p1068
sS'name'
p1069
S'\xe0\xa4\xa4\xe0\xa4\x95'
p1070
sS'drel'
p1071
S'lwg__psp:NP'
p1072
sS'chunktype'
p1073
S'child:NP'
p1074
sS'af'
p1075
S'\xe0\xa4\xa4\xe0\xa4\x95,psp,,,,,,'
p1076
ssbsg34
I00
sg35
I00
sg36
Nsg37
Nsg38
I0
sg39
I2
sg40
Nsg41
Nsg42
S'PSP'
p1077
sg44
g1064
sg45
I00
sba(issf_api
Word
p1078
(dp1079
g6
I00
sg7
V\u0938\u0941\u092c\u094d\u0930\u0939\u094d\u092e\u0923\u094d\u092f\u092e
p1080
sg9
(issf_api
FeatureSet
p1081
(dp1082
g12
(dp1083
S'crefhead'
p1084
S'\xe0\xa4\xb8\xe0\xa5\x81\xe0\xa4\xac\xe0\xa5\x8d\xe0\xa4\xb0\xe0\xa4\xb9\xe0\xa5\x8d\xe0\xa4\xae\xe0\xa4\xa3\xe0\xa5\x8d\xe0\xa4\xaf\xe0\xa4\xae:i13'
p1085
sS'posn'
p1086
S'30'
p1087
sS'name'
p1088
S'\xe0\xa4\xb8\xe0\xa5\x81\xe0\xa4\xac\xe0\xa5\x8d\xe0\xa4\xb0\xe0\xa4\xb9\xe0\xa5\x8d\xe0\xa4\xae\xe0\xa4\xa3\xe0\xa5\x8d\xe0\xa4\xaf\xe0\xa4\xae'
p1089
sS'af'
p1090
S'\xe0\xa4\xb8\xe0\xa5\x81\xe0\xa4\xac\xe0\xa5\x8d\xe0\xa4\xb0\xe0\xa4\xb9\xe0\xa5\x8d\xe0\xa4\xae\xe0\xa4\xa3\xe0\xa5\x8d\xe0\xa4\xaf\xe0\xa4\xae,n,m,sg,3,o,0_\xe0\xa4\x95\xe0\xa4\xbe,0'
p1091
sS'chunkid'
p1092
S'NP2'
p1093
sS'creftype'
p1094
S'Coreference-Identity:i3'
p1095
sS'chunktype'
p1096
S'head:NP2'
p1097
sS'vpos'
p1098
S'vib_2'
p1099
sS'cref'
p1100
S'i13%1:t2'
p1101
sS'drel'
p1102
S'r6:NP3'
p1103
ssbsg34
I00
sg35
I00
sg36
Nsg37
Nsg38
I1
sg39
I2
sg40
Nsg41
Nsg42
S'NNP'
p1104
sg44
g1081
sg45
I00
sba(issf_api
Word
p1105
(dp1106
g6
I00
sg7
V\u0915\u0947
p1107
sg9
(issf_api
FeatureSet
p1108
(dp1109
g12
(dp1110
S'posn'
p1111
S'40'
p1112
sS'name'
p1113
S'\xe0\xa4\x95\xe0\xa5\x87'
p1114
sS'drel'
p1115
S'lwg__psp:NP2'
p1116
sS'chunktype'
p1117
S'child:NP2'
p1118
sS'af'
p1119
S'\xe0\xa4\x95\xe0\xa4\xbe,psp,m,sg,,o,,'
p1120
ssbsg34
I00
sg35
I00
sg36
Nsg37
Nsg38
I1
sg39
I2
sg40
Nsg41
Nsg42
S'PSP'
p1121
sg44
g1108
sg45
I00
sba(issf_api
Word
p1122
(dp1123
g6
I00
sg7
V\u0907\u0938
p1124
sg9
(issf_api
FeatureSet
p1125
(dp1126
g12
(dp1127
S'posn'
p1128
S'50'
p1129
sS'name'
p1130
S'\xe0\xa4\x87\xe0\xa4\xb8'
p1131
sS'drel'
p1132
S'nmod__adj:NP3'
p1133
sS'chunktype'
p1134
S'child:NP3'
p1135
sS'af'
p1136
S'\xe0\xa4\xaf\xe0\xa4\xb9,pn,any,sg,3,o,,'
p1137
ssbsg34
I00
sg35
I00
sg36
Nsg37
Nsg38
I2
sg39
I2
sg40
Nsg41
Nsg42
S'DEM'
p1138
sg44
g1125
sg45
I00
sba(issf_api
Word
p1139
(dp1140
g6
I00
sg7
V\u0916\u094b\u091c\u0940
p1141
sg9
(issf_api
FeatureSet
p1142
(dp1143
g12
(dp1144
S'posn'
p1145
S'60'
p1146
sS'name'
p1147
S'\xe0\xa4\x96\xe0\xa5\x8b\xe0\xa4\x9c\xe0\xa5\x80'
p1148
sS'drel'
p1149
S'nmod__adj:NP3'
p1150
sS'chunktype'
p1151
S'child:NP3'
p1152
sS'af'
p1153
S'\xe0\xa4\x96\xe0\xa5\x8b\xe0\xa4\x9c\xe0\xa5\x80,adj,any,any,,o,,'
p1154
ssbsg34
I00
sg35
I00
sg36
Nsg37
Nsg38
I2
sg39
I2
sg40
Nsg41
Nsg42
S'JJ'
p1155
sg44
g1142
sg45
I00
sba(issf_api
Word
p1156
(dp1157
g6
I00
sg7
V\u0926\u093e\u0935\u0947
p1158
sg9
(issf_api
FeatureSet
p1159
(dp1160
g12
(dp1161
S'posn'
p1162
S'70'
p1163
sS'name'
p1164
S'\xe0\xa4\xa6\xe0\xa4\xbe\xe0\xa4\xb5\xe0\xa5\x87'
p1165
sS'af'
p1166
S'\xe0\xa4\xa6\xe0\xa4\xbe\xe0\xa4\xb5\xe0\xa4\xbe,n,m,sg,3,o,0_\xe0\xa4\x95\xe0\xa4\xbe,0'
p1167
sS'chunkid'
p1168
S'NP3'
p1169
sS'drel'
p1170
S'r6:NP4'
p1171
sS'vpos'
p1172
S'vib_4'
p1173
sS'chunktype'
p1174
S'head:NP3'
p1175
ssbsg34
I00
sg35
I00
sg36
Nsg37
Nsg38
I2
sg39
I2
sg40
Nsg41
Nsg42
S'NN'
p1176
sg44
g1159
sg45
I00
sba(issf_api
Word
p1177
(dp1178
g6
I00
sg7
V\u0915\u093e
p1179
sg9
(issf_api
FeatureSet
p1180
(dp1181
g12
(dp1182
S'posn'
p1183
S'80'
p1184
sS'name'
p1185
S'\xe0\xa4\x95\xe0\xa4\xbe'
p1186
sS'drel'
p1187
S'lwg__psp:NP3'
p1188
sS'chunktype'
p1189
S'child:NP3'
p1190
sS'af'
p1191
S'\xe0\xa4\x95\xe0\xa4\xbe,psp,m,sg,,d,,'
p1192
ssbsg34
I00
sg35
I00
sg36
Nsg37
Nsg38
I2
sg39
I2
sg40
Nsg41
Nsg42
S'PSP'
p1193
sg44
g1180
sg45
I00
sba(issf_api
Word
p1194
(dp1195
g6
I00
sg7
V\u0938\u0935\u093e\u0932
p1196
sg9
(issf_api
FeatureSet
p1197
(dp1198
g12
(dp1199
S'posn'
p1200
S'90'
p1201
sS'name'
p1202
S'\xe0\xa4\xb8\xe0\xa4\xb5\xe0\xa4\xbe\xe0\xa4\xb2'
p1203
sS'af'
p1204
S'\xe0\xa4\xb8\xe0\xa4\xb5\xe0\xa4\xbe\xe0\xa4\xb2,n,m,sg,3,d,0,0'
p1205
sS'chunkid'
p1206
S'NP4'
p1207
sS'drel'
p1208
S'k2:VGF'
p1209
sS'chunktype'
p1210
S'head:NP4'
p1211
ssbsg34
I00
sg35
I00
sg36
Nsg37
Nsg38
I3
sg39
I2
sg40
Nsg41
Nsg42
S'NN'
p1212
sg44
g1197
sg45
I00
sba(issf_api
Word
p1213
(dp1214
g6
I00
sg7
V\u0939\u0948
p1215
sg9
(issf_api
FeatureSet
p1216
(dp1217
g12
(dp1218
S'posn'
p1219
S'100'
p1220
sS'name'
p1221
S'\xe0\xa4\xb9\xe0\xa5\x88'
p1222
sS'af'
p1223
S'\xe0\xa4\xb9\xe0\xa5\x88,v,any,sg,3,,\xe0\xa4\xb9\xe0\xa5\x88,hE'
p1224
sS'chunkid'
p1225
S'VGF'
p1226
sS'stype'
p1227
S'declarative'
p1228
sS'drel'
p1229
S'ccof:NULL__CCP'
p1230
sS'voicetype'
p1231
S'active'
p1232
sS'chunktype'
p1233
S'head:VGF'
p1234
ssbsg34
I00
sg35
I00
sg36
Nsg37
Nsg38
I4
sg39
I2
sg40
Nsg41
Nsg42
S'VM'
p1235
sg44
g1216
sg45
I00
sba(issf_api
Word
p1236
(dp1237
g6
I00
sg7
V,
p1238
sg9
(issf_api
FeatureSet
p1239
(dp1240
g12
(dp1241
S'posn'
p1242
S'110'
p1243
sS'name'
p1244
S','
p1245
sS'drel'
p1246
S'rsym:VGF'
p1247
sS'chunktype'
p1248
S'child:VGF'
p1249
sS'af'
p1250
S'COMMA,punc,,,,,,'
p1251
ssbsg34
I00
sg35
I00
sg36
Nsg37
Nsg38
I4
sg39
I2
sg40
Nsg41
Nsg42
S'SYM'
p1252
sg44
g1239
sg45
I00
sba(issf_api
Word
p1253
(dp1254
g6
I00
sg7
V\u0907\u0938
p1255
sg9
(issf_api
FeatureSet
p1256
(dp1257
g12
(dp1258
S'posn'
p1259
S'120'
p1260
sS'name'
p1261
S'\xe0\xa4\x87\xe0\xa4\xb82'
p1262
sS'drel'
p1263
S'nmod__adj:NP5'
p1264
sS'chunktype'
p1265
S'child:NP5'
p1266
sS'af'
p1267
S'\xe0\xa4\xaf\xe0\xa4\xb9,pn,any,sg,3,o,,'
p1268
ssbsg34
I00
sg35
I00
sg36
Nsg37
Nsg38
I5
sg39
I2
sg40
Nsg41
Nsg42
S'DEM'
p1269
sg44
g1256
sg45
I00
sba(issf_api
Word
p1270
(dp1271
g6
I00
sg7
V\u0924\u0930\u0939
p1272
sg9
(issf_api
FeatureSet
p1273
(dp1274
g12
(dp1275
S'posn'
p1276
S'130'
p1277
sS'name'
p1278
S'\xe0\xa4\xa4\xe0\xa4\xb0\xe0\xa4\xb9'
p1279
sS'af'
p1280
S'\xe0\xa4\xa4\xe0\xa4\xb0\xe0\xa4\xb9,n,f,sg,3,o,0_\xe0\xa4\x95\xe0\xa4\xbe,0'
p1281
sS'chunkid'
p1282
S'NP5'
p1283
sS'drel'
p1284
S'r6:NP8'
p1285
sS'vpos'
p1286
S'vib_3'
p1287
sS'chunktype'
p1288
S'head:NP5'
p1289
ssbsg34
I00
sg35
I00
sg36
Nsg37
Nsg38
I5
sg39
I2
sg40
Nsg41
Nsg42
S'NN'
p1290
sg44
g1273
sg45
I00
sba(issf_api
Word
p1291
(dp1292
g6
I00
sg7
V\u0915\u0947
p1293
sg9
(issf_api
FeatureSet
p1294
(dp1295
g12
(dp1296
S'posn'
p1297
S'140'
p1298
sS'name'
p1299
S'\xe0\xa4\x95\xe0\xa5\x872'
p1300
sS'drel'
p1301
S'lwg__psp:NP5'
p1302
sS'chunktype'
p1303
S'child:NP5'
p1304
sS'af'
p1305
S'\xe0\xa4\x95\xe0\xa4\xbe,psp,m,pl,,o,,'
p1306
ssbsg34
I00
sg35
I00
sg36
Nsg37
Nsg38
I5
sg39
I2
sg40
Nsg41
Nsg42
S'PSP'
p1307
sg44
g1294
sg45
I00
sba(issf_api
Word
p1308
(dp1309
g6
I00
sg7
V\u0909\u0928\u0915\u0947
p1310
sg9
(issf_api
FeatureSet
p1311
(dp1312
g12
(dp1313
S'crefhead'
p1314
S'\xe0\xa4\x89\xe0\xa4\xa8\xe0\xa4\x95\xe0\xa5\x87:i14'
p1315
sS'posn'
p1316
S'150'
p1317
sS'name'
p1318
S'\xe0\xa4\x89\xe0\xa4\xa8\xe0\xa4\x95\xe0\xa5\x87'
p1319
sS'af'
p1320
S'\xe0\xa4\xb5\xe0\xa4\xb9,pn,m,pl,3,o,\xe0\xa4\x95\xe0\xa4\xbe,kA'
p1321
sS'chunkid'
p1322
S'NP6'
p1323
sS'creftype'
p1324
S'Anaphora-C:i13'
p1325
sS'chunktype'
p1326
S'head:NP6'
p1327
sS'cref'
p1328
S'i14%1:t2'
p1329
sS'drel'
p1330
S'r6:NP8'
p1331
ssbsg34
I00
sg35
I00
sg36
Nsg37
Nsg38
I6
sg39
I2
sg40
Nsg41
Nsg42
S'PRP'
p1332
sg44
g1311
sg45
I00
sba(issf_api
Word
p1333
(dp1334
g6
I00
sg7
V\u0926\u093e\u0935\u0947
p1335
sg9
(issf_api
FeatureSet
p1336
(dp1337
g12
(dp1338
S'posn'
p1339
S'160'
p1340
sS'name'
p1341
S'\xe0\xa4\xa6\xe0\xa4\xbe\xe0\xa4\xb5\xe0\xa5\x872'
p1342
sS'af'
p1343
S'\xe0\xa4\xa6\xe0\xa4\xbe\xe0\xa4\xb5\xe0\xa4\xbe,n,m,pl,3,d,0,0'
p1344
sS'chunkid'
p1345
S'NP7'
p1346
sS'drel'
p1347
S'k2:VGF2'
p1348
sS'chunktype'
p1349
S'head:NP7'
p1350
ssbsg34
I00
sg35
I00
sg36
Nsg37
Nsg38
I7
sg39
I2
sg40
Nsg41
Nsg42
S'NN'
p1351
sg44
g1336
sg45
I00
sba(issf_api
Word
p1352
(dp1353
g6
I00
sg7
V\u092a\u0939\u0932\u0947
p1354
sg9
(issf_api
FeatureSet
p1355
(dp1356
g12
(dp1357
S'posn'
p1358
S'170'
p1359
sS'name'
p1360
S'\xe0\xa4\xaa\xe0\xa4\xb9\xe0\xa4\xb2\xe0\xa5\x87'
p1361
sS'af'
p1362
S'\xe0\xa4\xaa\xe0\xa4\xb9\xe0\xa4\xb2\xe0\xa5\x87,nst,m,sg,3,d,,'
p1363
sS'chunkid'
p1364
S'NP8'
p1365
sS'drel'
p1366
S'k7t:VGF2'
p1367
sS'chunktype'
p1368
S'head:NP8'
p1369
ssbsg34
I00
sg35
I00
sg36
Nsg37
Nsg38
I8
sg39
I2
sg40
Nsg41
Nsg42
S'NST'
p1370
sg44
g1355
sg45
I00
sba(issf_api
Word
p1371
(dp1372
g6
I00
sg7
V\u092d\u0940
p1373
sg9
(issf_api
FeatureSet
p1374
(dp1375
g12
(dp1376
S'posn'
p1377
S'180'
p1378
sS'name'
p1379
S'\xe0\xa4\xad\xe0\xa5\x80'
p1380
sS'drel'
p1381
S'lwg__rp:NP8'
p1382
sS'chunktype'
p1383
S'child:NP8'
p1384
sS'af'
p1385
S'\xe0\xa4\xad\xe0\xa5\x80,avy,,,,,,'
p1386
ssbsg34
I00
sg35
I00
sg36
Nsg37
Nsg38
I8
sg39
I2
sg40
Nsg41
Nsg42
S'RP'
p1387
sg44
g1374
sg45
I00
sba(issf_api
Word
p1388
(dp1389
g6
I00
sg7
V\u0916\u094b\u0916\u0932\u0947
p1390
sg9
(issf_api
FeatureSet
p1391
(dp1392
g12
(dp1393
S'posn'
p1394
S'190'
p1395
sS'name'
p1396
S'\xe0\xa4\x96\xe0\xa5\x8b\xe0\xa4\x96\xe0\xa4\xb2\xe0\xa5\x87'
p1397
sS'af'
p1398
S'\xe0\xa4\x96\xe0\xa5\x8b\xe0\xa4\x96\xe0\xa4\xb2\xe0\xa4\xbe,adj,m,pl,,,,'
p1399
sS'chunkid'
p1400
S'JJP'
p1401
sS'drel'
p1402
S'adv:VGF2'
p1403
sS'chunktype'
p1404
S'head:JJP'
p1405
ssbsg34
I00
sg35
I00
sg36
Nsg37
Nsg38
I9
sg39
I2
sg40
Nsg41
Nsg42
S'JJ'
p1406
sg44
g1391
sg45
I00
sba(issf_api
Word
p1407
(dp1408
g6
I00
sg7
V\u0938\u093e\u092c\u093f\u0924
p1409
sg9
(issf_api
FeatureSet
p1410
(dp1411
g12
(dp1412
S'posn'
p1413
S'200'
p1414
sS'name'
p1415
S'\xe0\xa4\xb8\xe0\xa4\xbe\xe0\xa4\xac\xe0\xa4\xbf\xe0\xa4\xa4'
p1416
sS'af'
p1417
S'\xe0\xa4\xb8\xe0\xa4\xbe\xe0\xa4\xac\xe0\xa4\xbf\xe0\xa4\xa4,adj,any,any,,,,'
p1418
sS'chunkid'
p1419
S'JJP2'
p1420
sS'drel'
p1421
S'pof:VGF2'
p1422
sS'chunktype'
p1423
S'head:JJP2'
p1424
ssbsg34
I00
sg35
I00
sg36
Nsg37
Nsg38
I10
sg39
I2
sg40
Nsg41
Nsg42
S'JJ'
p1425
sg44
g1410
sg45
I00
sba(issf_api
Word
p1426
(dp1427
g6
I00
sg7
V\u0939\u094b
p1428
sg9
(issf_api
FeatureSet
p1429
(dp1430
g12
(dp1431
S'posn'
p1432
S'210'
p1433
sS'name'
p1434
S'\xe0\xa4\xb9\xe0\xa5\x8b'
p1435
sS'af'
p1436
S'\xe0\xa4\xb9\xe0\xa5\x8b,v,m,pl,3,,0_\xe0\xa4\x9a\xe0\xa5\x81\xe0\xa4\x95+\xe0\xa4\xaf\xe0\xa4\xbe_\xe0\xa4\xb9\xe0\xa5\x88,0'
p1437
sS'chunkid'
p1438
S'VGF2'
p1439
sS'stype'
p1440
S'declarative'
p1441
sS'drel'
p1442
S'ccof:NULL__CCP'
p1443
sS'voicetype'
p1444
S'active'
p1445
sS'vpos'
p1446
S'tam_2_3'
p1447
sS'chunktype'
p1448
S'head:VGF2'
p1449
ssbsg34
I00
sg35
I00
sg36
Nsg37
Nsg38
I11
sg39
I2
sg40
Nsg41
Nsg42
S'VM'
p1450
sg44
g1429
sg45
I00
sba(issf_api
Word
p1451
(dp1452
g6
I00
sg7
V\u091a\u0941\u0915\u0947
p1453
sg9
(issf_api
FeatureSet
p1454
(dp1455
g12
(dp1456
S'posn'
p1457
S'220'
p1458
sS'name'
p1459
S'\xe0\xa4\x9a\xe0\xa5\x81\xe0\xa4\x95\xe0\xa5\x87'
p1460
sS'drel'
p1461
S'lwg__vaux:VGF2'
p1462
sS'chunktype'
p1463
S'child:VGF2'
p1464
sS'af'
p1465
S'\xe0\xa4\x9a\xe0\xa5\x81\xe0\xa4\x95,v,m,pl,any,,\xe0\xa4\xaf\xe0\xa4\xbe,yA'
p1466
ssbsg34
I00
sg35
I00
sg36
Nsg37
Nsg38
I11
sg39
I2
sg40
Nsg41
Nsg42
S'VAUX'
p1467
sg44
g1454
sg45
I00
sba(issf_api
Word
p1468
(dp1469
g6
I00
sg7
V\u0939\u0948\u0902
p1470
sg9
(issf_api
FeatureSet
p1471
(dp1472
g12
(dp1473
S'posn'
p1474
S'230'
p1475
sS'name'
p1476
S'\xe0\xa4\xb9\xe0\xa5\x88\xe0\xa4\x82'
p1477
sS'drel'
p1478
S'lwg__vaux:VGF2'
p1479
sS'chunktype'
p1480
S'child:VGF2'
p1481
sS'af'
p1482
S'\xe0\xa4\xb9\xe0\xa5\x88,v,any,pl,3,,\xe0\xa4\xb9\xe0\xa5\x88,hE'
p1483
ssbsg34
I00
sg35
I00
sg36
Nsg37
Nsg38
I11
sg39
I2
sg40
Nsg41
Nsg42
S'VAUX'
p1484
sg44
g1471
sg45
I00
sba(issf_api
Word
p1485
(dp1486
g6
I00
sg7
V\u0964
p1487
sg9
(issf_api
FeatureSet
p1488
(dp1489
g12
(dp1490
S'posn'
p1491
S'240'
p1492
sS'name'
p1493
S'\xe0\xa5\xa4'
p1494
sS'af'
p1495
S'\xe0\xa5\xa4,punc,,,,,,'
p1496
sS'chunkid'
p1497
S'BLK'
p1498
sS'drel'
p1499
S'rsym:NULL__CCP'
p1500
sS'chunktype'
p1501
S'head:BLK'
p1502
ssbsg34
I00
sg35
I00
sg36
Nsg37
Nsg38
I12
sg39
I2
sg40
Nsg41
Nsg42
S'SYM'
p1503
sg44
g1488
sg45
I00
sba(issf_api
Word
p1504
(dp1505
g6
I00
sg7
V\u092a\u093e\u0930\u094d\u091f\u0940
p1506
sg9
(issf_api
FeatureSet
p1507
(dp1508
g12
(dp1509
S'crefhead'
p1510
S'\xe0\xa4\xaa\xe0\xa4\xbe\xe0\xa4\xb0\xe0\xa5\x8d\xe0\xa4\x9f\xe0\xa5\x80:i16'
p1511
sS'posn'
p1512
S'10'
p1513
sS'name'
p1514
S'\xe0\xa4\xaa\xe0\xa4\xbe\xe0\xa4\xb0\xe0\xa5\x8d\xe0\xa4\x9f\xe0\xa5\x80'
p1515
sS'af'
p1516
S'\xe0\xa4\xaa\xe0\xa4\xbe\xe0\xa4\xb0\xe0\xa5\x8d\xe0\xa4\x9f\xe0\xa5\x80,n,f,sg,3,d,0,0'
p1517
sS'creftype'
p1518
S'Coreference-Noun-Noun:i10'
p1519
sS'drel'
p1520
S'pof__cn:NP'
p1521
sS'chunktype'
p1522
S'child:NP'
p1523
sS'cref'
p1524
S'i15%0:t7,i16%1:t1'
p1525
ssbsg34
I00
sg35
I00
sg36
Nsg37
Nsg38
I0
sg39
I3
sg40
Nsg41
Nsg42
S'NNC'
p1526
sg44
g1507
sg45
I00
sba(issf_api
Word
p1527
(dp1528
g6
I00
sg7
V\u092a\u094d\u0930\u0935\u0915\u094d\u0924\u093e
p1529
sg9
(issf_api
FeatureSet
p1530
(dp1531
g12
(dp1532
S'crefhead'
p1533
S'\xe0\xa4\xaa\xe0\xa5\x8d\xe0\xa4\xb0\xe0\xa4\xb5\xe0\xa4\x95\xe0\xa5\x8d\xe0\xa4\xa4\xe0\xa4\xbe:i15'
p1534
sS'posn'
p1535
S'20'
p1536
sS'name'
p1537
S'\xe0\xa4\xaa\xe0\xa5\x8d\xe0\xa4\xb0\xe0\xa4\xb5\xe0\xa4\x95\xe0\xa5\x8d\xe0\xa4\xa4\xe0\xa4\xbe'
p1538
sS'af'
p1539
S'\xe0\xa4\xaa\xe0\xa5\x8d\xe0\xa4\xb0\xe0\xa4\xb5\xe0\xa4\x95\xe0\xa5\x8d\xe0\xa4\xa4\xe0\xa4\xbe,n,m,sg,3,o,0,0'
p1540
sS'chunkid'
p1541
S'NP'
p1542
sS'drel'
p1543
S'nmod:NP2'
p1544
sS'chunktype'
p1545
S'head:NP'
p1546
sS'cref'
p1547
S'i15%1:t7'
p1548
ssbsg34
I00
sg35
I00
sg36
Nsg37
Nsg38
I0
sg39
I3
sg40
Nsg41
Nsg42
S'NN'
p1549
sg44
g1530
sg45
I00
sba(issf_api
Word
p1550
(dp1551
g6
I00
sg7
V\u0906\u0928\u0902\u0926
p1552
sg9
(issf_api
FeatureSet
p1553
(dp1554
g12
(dp1555
S'posn'
p1556
S'30'
p1557
sS'name'
p1558
S'\xe0\xa4\x86\xe0\xa4\xa8\xe0\xa4\x82\xe0\xa4\xa6'
p1559
sS'af'
p1560
S'\xe0\xa4\x86\xe0\xa4\xa8\xe0\xa4\x82\xe0\xa4\xa6,n,m,sg,3,d,0,0'
p1561
sS'drel'
p1562
S'pof__cn:NP2'
p1563
sS'chunktype'
p1564
S'child:NP2'
p1565
sS'cref'
p1566
S'i17%0:t7'
p1567
ssbsg34
I00
sg35
I00
sg36
Nsg37
Nsg38
I1
sg39
I3
sg40
Nsg41
Nsg42
S'NNPC'
p1568
sg44
g1553
sg45
I00
sba(issf_api
Word
p1569
(dp1570
g6
I00
sg7
V\u0936\u0930\u094d\u092e\u093e
p1571
sg9
(issf_api
FeatureSet
p1572
(dp1573
g12
(dp1574
S'crefhead'
p1575
S'\xe0\xa4\xb6\xe0\xa4\xb0\xe0\xa5\x8d\xe0\xa4\xae\xe0\xa4\xbe:i17'
p1576
sS'posn'
p1577
S'40'
p1578
sS'name'
p1579
S'\xe0\xa4\xb6\xe0\xa4\xb0\xe0\xa5\x8d\xe0\xa4\xae\xe0\xa4\xbe'
p1580
sS'af'
p1581
S'\xe0\xa4\xb6\xe0\xa4\xb0\xe0\xa5\x8d\xe0\xa4\xae\xe0\xa4\xbe,n,any,sg,3,o,0_\xe0\xa4\xa8\xe0\xa5\x87,0'
p1582
sS'chunkid'
p1583
S'NP2'
p1584
sS'creftype'
p1585
S'Coreference-NounComplement:i15'
p1586
sS'chunktype'
p1587
S'head:NP2'
p1588
sS'crefchainhead'
p1589
S'i17:t7'
p1590
sS'vpos'
p1591
S'vib_3'
p1592
sS'cref'
p1593
S'i17%1:t7'
p1594
sS'drel'
p1595
S'k1:VGF'
p1596
ssbsg34
I00
sg35
I00
sg36
Nsg37
Nsg38
I1
sg39
I3
sg40
Nsg41
Nsg42
S'NNP'
p1597
sg44
g1572
sg45
I00
sba(issf_api
Word
p1598
(dp1599
g6
I00
sg7
V\u0928\u0947
p1600
sg9
(issf_api
FeatureSet
p1601
(dp1602
g12
(dp1603
S'posn'
p1604
S'50'
p1605
sS'name'
p1606
S'\xe0\xa4\xa8\xe0\xa5\x87'
p1607
sS'drel'
p1608
S'lwg__psp:NP2'
p1609
sS'chunktype'
p1610
S'child:NP2'
p1611
sS'af'
p1612
S'\xe0\xa4\xa8\xe0\xa5\x87,psp,,,,,,'
p1613
ssbsg34
I00
sg35
I00
sg36
Nsg37
Nsg38
I1
sg39
I3
sg40
Nsg41
Nsg42
S'PSP'
p1614
sg44
g1601
sg45
I00
sba(issf_api
Word
p1615
(dp1616
g6
I00
sg7
V\u0915\u0939\u093e
p1617
sg9
(issf_api
FeatureSet
p1618
(dp1619
g12
(dp1620
S'posn'
p1621
S'60'
p1622
sS'name'
p1623
S'\xe0\xa4\x95\xe0\xa4\xb9\xe0\xa4\xbe'
p1624
sS'af'
p1625
S'\xe0\xa4\x95\xe0\xa4\xb9,v,m,sg,any,,\xe0\xa4\xaf\xe0\xa4\xbe,yA'
p1626
sS'chunkid'
p1627
S'VGF'
p1628
sS'chunktype'
p1629
S'head:VGF'
p1630
sS'voicetype'
p1631
S'active'
p1632
sS'stype'
p1633
S'declarative'
p1634
ssbsg34
I00
sg35
I00
sg36
Nsg37
Nsg38
I2
sg39
I3
sg40
Nsg41
Nsg42
S'VM'
p1635
sg44
g1618
sg45
I00
sba(issf_api
Word
p1636
(dp1637
g6
I00
sg7
V\u0915\u093f
p1638
sg9
(issf_api
FeatureSet
p1639
(dp1640
g12
(dp1641
S'posn'
p1642
S'70'
p1643
sS'name'
p1644
S'\xe0\xa4\x95\xe0\xa4\xbf'
p1645
sS'af'
p1646
S'\xe0\xa4\x95\xe0\xa4\xbf,avy,,,,,,'
p1647
sS'chunkid'
p1648
S'CCP'
p1649
sS'drel'
p1650
S'k2:VGF'
p1651
sS'chunktype'
p1652
S'head:CCP'
p1653
ssbsg34
I00
sg35
I00
sg36
Nsg37
Nsg38
I3
sg39
I3
sg40
Nsg41
Nsg42
S'CC'
p1654
sg44
g1639
sg45
I00
sba(issf_api
Word
p1655
(dp1656
g6
I00
sg7
V\u0938\u0941\u092c\u094d\u0930\u0939\u094d\u092e\u0923\u094d\u092f\u092e
p1657
sg9
(issf_api
FeatureSet
p1658
(dp1659
g12
(dp1660
S'crefhead'
p1661
S'\xe0\xa4\xb8\xe0\xa5\x81\xe0\xa4\xac\xe0\xa5\x8d\xe0\xa4\xb0\xe0\xa4\xb9\xe0\xa5\x8d\xe0\xa4\xae\xe0\xa4\xa3\xe0\xa5\x8d\xe0\xa4\xaf\xe0\xa4\xae:i18'
p1662
sS'posn'
p1663
S'80'
p1664
sS'name'
p1665
S'\xe0\xa4\xb8\xe0\xa5\x81\xe0\xa4\xac\xe0\xa5\x8d\xe0\xa4\xb0\xe0\xa4\xb9\xe0\xa5\x8d\xe0\xa4\xae\xe0\xa4\xa3\xe0\xa5\x8d\xe0\xa4\xaf\xe0\xa4\xae'
p1666
sS'af'
p1667
S'\xe0\xa4\xb8\xe0\xa5\x81\xe0\xa4\xac\xe0\xa5\x8d\xe0\xa4\xb0\xe0\xa4\xb9\xe0\xa5\x8d\xe0\xa4\xae\xe0\xa4\xa3\xe0\xa5\x8d\xe0\xa4\xaf\xe0\xa4\xae,n,m,sg,3,d,0,0'
p1668
sS'chunkid'
p1669
S'NP3'
p1670
sS'creftype'
p1671
S'Coreference-Identity:i14'
p1672
sS'chunktype'
p1673
S'head:NP3'
p1674
sS'cref'
p1675
S'i18%1:t2'
p1676
sS'drel'
p1677
S'k1:VGF2'
p1678
ssbsg34
I00
sg35
I00
sg36
Nsg37
Nsg38
I4
sg39
I3
sg40
Nsg41
Nsg42
S'NNP'
p1679
sg44
g1658
sg45
I00
sba(issf_api
Word
p1680
(dp1681
g6
I00
sg7
V\u092a\u0939\u0932\u0947
p1682
sg9
(issf_api
FeatureSet
p1683
(dp1684
g12
(dp1685
S'posn'
p1686
S'90'
p1687
sS'name'
p1688
S'\xe0\xa4\xaa\xe0\xa4\xb9\xe0\xa4\xb2\xe0\xa5\x87'
p1689
sS'af'
p1690
S'\xe0\xa4\xaa\xe0\xa4\xb9\xe0\xa4\xb2\xe0\xa5\x87,nst,m,sg,3,d,,'
p1691
sS'chunkid'
p1692
S'NP4'
p1693
sS'drel'
p1694
S'k7t:VGF2'
p1695
sS'chunktype'
p1696
S'head:NP4'
p1697
ssbsg34
I00
sg35
I00
sg36
Nsg37
Nsg38
I5
sg39
I3
sg40
Nsg41
Nsg42
S'NST'
p1698
sg44
g1683
sg45
I00
sba(issf_api
Word
p1699
(dp1700
g6
I00
sg7
V\u092d\u0940
p1701
sg9
(issf_api
FeatureSet
p1702
(dp1703
g12
(dp1704
S'posn'
p1705
S'100'
p1706
sS'name'
p1707
S'\xe0\xa4\xad\xe0\xa5\x80'
p1708
sS'drel'
p1709
S'lwg__rp:NP4'
p1710
sS'chunktype'
p1711
S'child:NP4'
p1712
sS'af'
p1713
S'\xe0\xa4\xad\xe0\xa5\x80,avy,,,,,,'
p1714
ssbsg34
I00
sg35
I00
sg36
Nsg37
Nsg38
I5
sg39
I3
sg40
Nsg41
Nsg42
S'RP'
p1715
sg44
g1702
sg45
I00
sba(issf_api
Word
p1716
(dp1717
g6
I00
sg7
V\u0907\u0938
p1718
sg9
(issf_api
FeatureSet
p1719
(dp1720
g12
(dp1721
S'posn'
p1722
S'110'
p1723
sS'name'
p1724
S'\xe0\xa4\x87\xe0\xa4\xb8'
p1725
sS'drel'
p1726
S'nmod__adj:NP5'
p1727
sS'chunktype'
p1728
S'child:NP5'
p1729
sS'af'
p1730
S'\xe0\xa4\xaf\xe0\xa4\xb9,pn,any,sg,3,o,,'
p1731
ssbsg34
I00
sg35
I00
sg36
Nsg37
Nsg38
I6
sg39
I3
sg40
Nsg41
Nsg42
S'DEM'
p1732
sg44
g1719
sg45
I00
sba(issf_api
Word
p1733
(dp1734
g6
I00
sg7
V\u0924\u0930\u0939
p1735
sg9
(issf_api
FeatureSet
p1736
(dp1737
g12
(dp1738
S'posn'
p1739
S'120'
p1740
sS'name'
p1741
S'\xe0\xa4\xa4\xe0\xa4\xb0\xe0\xa4\xb9'
p1742
sS'af'
p1743
S'\xe0\xa4\xa4\xe0\xa4\xb0\xe0\xa4\xb9,n,f,sg,3,o,0_\xe0\xa4\x95\xe0\xa4\xbe,0'
p1744
sS'chunkid'
p1745
S'NP5'
p1746
sS'drel'
p1747
S'r6:NP6'
p1748
sS'vpos'
p1749
S'vib_3'
p1750
sS'chunktype'
p1751
S'head:NP5'
p1752
ssbsg34
I00
sg35
I00
sg36
Nsg37
Nsg38
I6
sg39
I3
sg40
Nsg41
Nsg42
S'NN'
p1753
sg44
g1736
sg45
I00
sba(issf_api
Word
p1754
(dp1755
g6
I00
sg7
V\u0915\u0947
p1756
sg9
(issf_api
FeatureSet
p1757
(dp1758
g12
(dp1759
S'posn'
p1760
S'130'
p1761
sS'name'
p1762
S'\xe0\xa4\x95\xe0\xa5\x87'
p1763
sS'drel'
p1764
S'lwg__psp:NP5'
p1765
sS'chunktype'
p1766
S'child:NP5'
p1767
sS'af'
p1768
S'\xe0\xa4\x95\xe0\xa4\xbe,psp,m,pl,,d,,'
p1769
ssbsg34
I00
sg35
I00
sg36
Nsg37
Nsg38
I6
sg39
I3
sg40
Nsg41
Nsg42
S'PSP'
p1770
sg44
g1757
sg45
I00
sba(issf_api
Word
p1771
(dp1772
g6
I00
sg7
V\u0906\u0930\u094b\u092a
p1773
sg9
(issf_api
FeatureSet
p1774
(dp1775
g12
(dp1776
S'posn'
p1777
S'140'
p1778
sS'name'
p1779
S'\xe0\xa4\x86\xe0\xa4\xb0\xe0\xa5\x8b\xe0\xa4\xaa'
p1780
sS'af'
p1781
S'\xe0\xa4\x86\xe0\xa4\xb0\xe0\xa5\x8b\xe0\xa4\xaa,n,m,pl,3,d,0,0'
p1782
sS'chunkid'
p1783
S'NP6'
p1784
sS'drel'
p1785
S'k2:VGF2'
p1786
sS'chunktype'
p1787
S'head:NP6'
p1788
ssbsg34
I00
sg35
I00
sg36
Nsg37
Nsg38
I7
sg39
I3
sg40
Nsg41
Nsg42
S'NN'
p1789
sg44
g1774
sg45
I00
sba(issf_api
Word
p1790
(dp1791
g6
I00
sg7
V\u0932\u0917\u093e\u0924\u0947
p1792
sg9
(issf_api
FeatureSet
p1793
(dp1794
g12
(dp1795
S'posn'
p1796
S'150'
p1797
sS'name'
p1798
S'\xe0\xa4\xb2\xe0\xa4\x97\xe0\xa4\xbe\xe0\xa4\xa4\xe0\xa5\x87'
p1799
sS'af'
p1800
S'\xe0\xa4\xb2\xe0\xa4\x97\xe0\xa4\xbe,v,m,sg,3h,,\xe0\xa4\xa4\xe0\xa4\xbe_\xe0\xa4\xb0\xe0\xa4\xb9+\xe0\xa4\xaf\xe0\xa4\xbe_\xe0\xa4\xb9\xe0\xa5\x88,wA'
p1801
sS'chunkid'
p1802
S'VGF2'
p1803
sS'stype'
p1804
S'declarative'
p1805
sS'drel'
p1806
S'ccof:CCP'
p1807
sS'voicetype'
p1808
S'active'
p1809
sS'vpos'
p1810
S'tam_2_3'
p1811
sS'chunktype'
p1812
S'head:VGF2'
p1813
ssbsg34
I00
sg35
I00
sg36
Nsg37
Nsg38
I8
sg39
I3
sg40
Nsg41
Nsg42
S'VM'
p1814
sg44
g1793
sg45
I00
sba(issf_api
Word
p1815
(dp1816
g6
I00
sg7
V\u0930\u0939\u0947
p1817
sg9
(issf_api
FeatureSet
p1818
(dp1819
g12
(dp1820
S'posn'
p1821
S'160'
p1822
sS'name'
p1823
S'\xe0\xa4\xb0\xe0\xa4\xb9\xe0\xa5\x87'
p1824
sS'drel'
p1825
S'lwg__vaux:VGF2'
p1826
sS'chunktype'
p1827
S'child:VGF2'
p1828
sS'af'
p1829
S'\xe0\xa4\xb0\xe0\xa4\xb9,v,m,sg,3h,,\xe0\xa4\xaf\xe0\xa4\xbe,yA'
p1830
ssbsg34
I00
sg35
I00
sg36
Nsg37
Nsg38
I8
sg39
I3
sg40
Nsg41
Nsg42
S'VAUX'
p1831
sg44
g1818
sg45
I00
sba(issf_api
Word
p1832
(dp1833
g6
I00
sg7
V\u0939\u0948\u0902
p1834
sg9
(issf_api
FeatureSet
p1835
(dp1836
g12
(dp1837
S'posn'
p1838
S'170'
p1839
sS'name'
p1840
S'\xe0\xa4\xb9\xe0\xa5\x88\xe0\xa4\x82'
p1841
sS'drel'
p1842
S'lwg__vaux:VGF2'
p1843
sS'chunktype'
p1844
S'child:VGF2'
p1845
sS'af'
p1846
S'\xe0\xa4\xb9\xe0\xa5\x88,v,any,sg,3h,,\xe0\xa4\xb9\xe0\xa5\x88,hE'
p1847
ssbsg34
I00
sg35
I00
sg36
Nsg37
Nsg38
I8
sg39
I3
sg40
Nsg41
Nsg42
S'VAUX'
p1848
sg44
g1835
sg45
I00
sba(issf_api
Word
p1849
(dp1850
g6
I00
sg7
V\u0964
p1851
sg9
(issf_api
FeatureSet
p1852
(dp1853
g12
(dp1854
S'posn'
p1855
S'180'
p1856
sS'name'
p1857
S'\xe0\xa5\xa4'
p1858
sS'af'
p1859
S'\xe0\xa5\xa4,punc,,,,,,'
p1860
sS'chunkid'
p1861
S'BLK'
p1862
sS'drel'
p1863
S'rsym:VGF'
p1864
sS'chunktype'
p1865
S'head:BLK'
p1866
ssbsg34
I00
sg35
I00
sg36
Nsg37
Nsg38
I9
sg39
I3
sg40
Nsg41
Nsg42
S'SYM'
p1867
sg44
g1852
sg45
I00
sba(issf_api
Word
p1868
(dp1869
g6
I00
sg7
V\u092c\u0915\u094c\u0932
p1870
sg9
(issf_api
FeatureSet
p1871
(dp1872
g12
(dp1873
S'posn'
p1874
S'10'
p1875
sS'name'
p1876
S'\xe0\xa4\xac\xe0\xa4\x95\xe0\xa5\x8c\xe0\xa4\xb2'
p1877
sS'drel'
p1878
S'lwg__psp:NP'
p1879
sS'chunktype'
p1880
S'child:NP'
p1881
sS'af'
p1882
S'\xe0\xa4\xac\xe0\xa4\x95\xe0\xa5\x8c\xe0\xa4\xb2,psp,,,,,,'
p1883
ssbsg34
I00
sg35
I00
sg36
Nsg37
Nsg38
I0
sg39
I4
sg40
Nsg41
Nsg42
S'PSP'
p1884
sg44
g1871
sg45
I00
sba(issf_api
Word
p1885
(dp1886
g6
I00
sg7
V\u0906\u0928\u0902\u0926
p1887
sg9
(issf_api
FeatureSet
p1888
(dp1889
g12
(dp1890
S'crefhead'
p1891
S'\xe0\xa4\x86\xe0\xa4\xa8\xe0\xa4\x82\xe0\xa4\xa6:i19'
p1892
sS'posn'
p1893
S'20'
p1894
sS'name'
p1895
S'\xe0\xa4\x86\xe0\xa4\xa8\xe0\xa4\x82\xe0\xa4\xa6'
p1896
sS'af'
p1897
S'\xe0\xa4\x86\xe0\xa4\xa8\xe0\xa4\x82\xe0\xa4\xa6,n,m,sg,3,d,0_\xe0\xa4\xac\xe0\xa4\x95\xe0\xa5\x8c\xe0\xa4\xb2,0'
p1898
sS'chunkid'
p1899
S'NP'
p1900
sS'creftype'
p1901
S'Coreference-Identity:i17'
p1902
sS'chunktype'
p1903
S'head:NP'
p1904
sS'vpos'
p1905
S'1_vib'
p1906
sS'cref'
p1907
S'i19%1:t7'
p1908
sS'drel'
p1909
S'k7a:VGF'
p1910
ssbsg34
I00
sg35
I00
sg36
Nsg37
Nsg38
I0
sg39
I4
sg40
Nsg41
Nsg42
S'NNP'
p1911
sg44
g1888
sg45
I00
sba(issf_api
Word
p1912
(dp1913
g6
I00
sg7
V,
p1914
sg9
(issf_api
FeatureSet
p1915
(dp1916
g12
(dp1917
S'posn'
p1918
S'30'
p1919
sS'name'
p1920
g1245
sS'drel'
p1921
S'rsym:NP'
p1922
sS'chunktype'
p1923
S'child:NP'
p1924
sS'af'
p1925
S'COMMA,punc,,,,,,'
p1926
ssbsg34
I00
sg35
I00
sg36
Nsg37
Nsg38
I0
sg39
I4
sg40
Nsg41
Nsg42
S'SYM'
p1927
sg44
g1915
sg45
I00
sba(issf_api
Word
p1928
(dp1929
g6
I00
sg7
V\u0938\u094d\u0935\u093e\u092e\u0940
p1930
sg9
(issf_api
FeatureSet
p1931
(dp1932
g12
(dp1933
S'crefhead'
p1934
S'\xe0\xa4\xb8\xe0\xa5\x8d\xe0\xa4\xb5\xe0\xa4\xbe\xe0\xa4\xae\xe0\xa5\x80:i20'
p1935
sS'posn'
p1936
S'40'
p1937
sS'name'
p1938
S'\xe0\xa4\xb8\xe0\xa5\x8d\xe0\xa4\xb5\xe0\xa4\xbe\xe0\xa4\xae\xe0\xa5\x80'
p1939
sS'af'
p1940
S'\xe0\xa4\xb8\xe0\xa5\x8d\xe0\xa4\xb5\xe0\xa4\xbe\xe0\xa4\xae\xe0\xa5\x80,n,m,sg,3,o,0_\xe0\xa4\xa8\xe0\xa5\x87,0'
p1941
sS'chunkid'
p1942
S'NP2'
p1943
sS'creftype'
p1944
S'Coreference-Identity:i18'
p1945
sS'chunktype'
p1946
S'head:NP2'
p1947
sS'vpos'
p1948
S'vib_2'
p1949
sS'cref'
p1950
S'i20%1:t2'
p1951
sS'drel'
p1952
S'k1:VGF'
p1953
ssbsg34
I00
sg35
I00
sg36
Nsg37
Nsg38
I1
sg39
I4
sg40
Nsg41
Nsg42
S'NNP'
p1954
sg44
g1931
sg45
I00
sba(issf_api
Word
p1955
(dp1956
g6
I00
sg7
V\u0928\u0947
p1957
sg9
(issf_api
FeatureSet
p1958
(dp1959
g12
(dp1960
S'posn'
p1961
S'50'
p1962
sS'name'
p1963
S'\xe0\xa4\xa8\xe0\xa5\x87'
p1964
sS'drel'
p1965
S'lwg__psp:NP2'
p1966
sS'chunktype'
p1967
S'child:NP2'
p1968
sS'af'
p1969
S'\xe0\xa4\xa8\xe0\xa5\x87,psp,,,,,,'
p1970
ssbsg34
I00
sg35
I00
sg36
Nsg37
Nsg38
I1
sg39
I4
sg40
Nsg41
Nsg42
S'PSP'
p1971
sg44
g1958
sg45
I00
sba(issf_api
Word
p1972
(dp1973
g6
I00
sg7
V\u0939\u092e\u0947\u0936\u093e
p1974
sg9
(issf_api
FeatureSet
p1975
(dp1976
g12
(dp1977
S'posn'
p1978
S'60'
p1979
sS'name'
p1980
S'\xe0\xa4\xb9\xe0\xa4\xae\xe0\xa5\x87\xe0\xa4\xb6\xe0\xa4\xbe'
p1981
sS'af'
p1982
S'\xe0\xa4\xb9\xe0\xa4\xae\xe0\xa5\x87\xe0\xa4\xb6\xe0\xa4\xbe,adv,,,,,,'
p1983
sS'chunkid'
p1984
S'RBP'
p1985
sS'drel'
p1986
S'adv:VGF'
p1987
sS'chunktype'
p1988
S'head:RBP'
p1989
ssbsg34
I00
sg35
I00
sg36
Nsg37
Nsg38
I2
sg39
I4
sg40
Nsg41
Nsg42
S'RB'
p1990
sg44
g1975
sg45
I00
sba(issf_api
Word
p1991
(dp1992
g6
I00
sg7
V\u0932\u094b\u0917\u094b\u0902
p1993
sg9
(issf_api
FeatureSet
p1994
(dp1995
g12
(dp1996
S'posn'
p1997
S'70'
p1998
sS'name'
p1999
S'\xe0\xa4\xb2\xe0\xa5\x8b\xe0\xa4\x97\xe0\xa5\x8b\xe0\xa4\x82'
p2000
sS'af'
p2001
S'\xe0\xa4\xb2\xe0\xa5\x8b\xe0\xa4\x97,n,m,pl,3,o,0_\xe0\xa4\x95\xe0\xa5\x8b,0'
p2002
sS'chunkid'
p2003
S'NP3'
p2004
sS'drel'
p2005
S'k4:VGF'
p2006
sS'vpos'
p2007
S'vib_2'
p2008
sS'chunktype'
p2009
S'head:NP3'
p2010
ssbsg34
I00
sg35
I00
sg36
Nsg37
Nsg38
I3
sg39
I4
sg40
Nsg41
Nsg42
S'NN'
p2011
sg44
g1994
sg45
I00
sba(issf_api
Word
p2012
(dp2013
g6
I00
sg7
V\u0915\u094b
p2014
sg9
(issf_api
FeatureSet
p2015
(dp2016
g12
(dp2017
S'posn'
p2018
S'80'
p2019
sS'name'
p2020
S'\xe0\xa4\x95\xe0\xa5\x8b'
p2021
sS'drel'
p2022
S'lwg__psp:NP3'
p2023
sS'chunktype'
p2024
S'child:NP3'
p2025
sS'af'
p2026
S'\xe0\xa4\x95\xe0\xa5\x8b,psp,,,,,,'
p2027
ssbsg34
I00
sg35
I00
sg36
Nsg37
Nsg38
I3
sg39
I4
sg40
Nsg41
Nsg42
S'PSP'
p2028
sg44
g2015
sg45
I00
sba(issf_api
Word
p2029
(dp2030
g6
I00
sg7
V\u0907\u0938
p2031
sg9
(issf_api
FeatureSet
p2032
(dp2033
g12
(dp2034
S'posn'
p2035
S'90'
p2036
sS'name'
p2037
S'\xe0\xa4\x87\xe0\xa4\xb8'
p2038
sS'drel'
p2039
S'nmod__adj:NP4'
p2040
sS'chunktype'
p2041
S'child:NP4'
p2042
sS'af'
p2043
S'\xe0\xa4\xaf\xe0\xa4\xb9,pn,any,sg,3,o,,'
p2044
ssbsg34
I00
sg35
I00
sg36
Nsg37
Nsg38
I4
sg39
I4
sg40
Nsg41
Nsg42
S'DEM'
p2045
sg44
g2032
sg45
I00
sba(issf_api
Word
p2046
(dp2047
g6
I00
sg7
V\u0924\u0930\u0939
p2048
sg9
(issf_api
FeatureSet
p2049
(dp2050
g12
(dp2051
S'posn'
p2052
S'100'
p2053
sS'name'
p2054
S'\xe0\xa4\xa4\xe0\xa4\xb0\xe0\xa4\xb9'
p2055
sS'af'
p2056
S'\xe0\xa4\xa4\xe0\xa4\xb0\xe0\xa4\xb9,n,f,sg,3,o,0_\xe0\xa4\x95\xe0\xa4\xbe,0'
p2057
sS'chunkid'
p2058
S'NP4'
p2059
sS'drel'
p2060
S'r6:NP5'
p2061
sS'vpos'
p2062
S'vib_3'
p2063
sS'chunktype'
p2064
S'head:NP4'
p2065
ssbsg34
I00
sg35
I00
sg36
Nsg37
Nsg38
I4
sg39
I4
sg40
Nsg41
Nsg42
S'NN'
p2066
sg44
g2049
sg45
I00
sba(issf_api
Word
p2067
(dp2068
g6
I00
sg7
V\u0915\u0947
p2069
sg9
(issf_api
FeatureSet
p2070
(dp2071
g12
(dp2072
S'posn'
p2073
S'110'
p2074
sS'name'
p2075
S'\xe0\xa4\x95\xe0\xa5\x87'
p2076
sS'drel'
p2077
S'lwg__psp:NP4'
p2078
sS'chunktype'
p2079
S'child:NP4'
p2080
sS'af'
p2081
S'\xe0\xa4\x95\xe0\xa4\xbe,psp,m,pl,,o,,'
p2082
ssbsg34
I00
sg35
I00
sg36
Nsg37
Nsg38
I4
sg39
I4
sg40
Nsg41
Nsg42
S'PSP'
p2083
sg44
g2070
sg45
I00
sba(issf_api
Word
p2084
(dp2085
g6
I00
sg7
V\u092c\u092f\u093e\u0928\u094b\u0902
p2086
sg9
(issf_api
FeatureSet
p2087
(dp2088
g12
(dp2089
S'posn'
p2090
S'120'
p2091
sS'name'
p2092
S'\xe0\xa4\xac\xe0\xa4\xaf\xe0\xa4\xbe\xe0\xa4\xa8\xe0\xa5\x8b\xe0\xa4\x82'
p2093
sS'af'
p2094
S'\xe0\xa4\xac\xe0\xa4\xaf\xe0\xa4\xbe\xe0\xa4\xa8,n,m,pl,3,o,0_\xe0\xa4\xb8\xe0\xa5\x87,0'
p2095
sS'chunkid'
p2096
S'NP5'
p2097
sS'drel'
p2098
S'k3:VGF'
p2099
sS'vpos'
p2100
S'vib_2'
p2101
sS'chunktype'
p2102
S'head:NP5'
p2103
ssbsg34
I00
sg35
I00
sg36
Nsg37
Nsg38
I5
sg39
I4
sg40
Nsg41
Nsg42
S'NN'
p2104
sg44
g2087
sg45
I00
sba(issf_api
Word
p2105
(dp2106
g6
I00
sg7
V\u0938\u0947
p2107
sg9
(issf_api
FeatureSet
p2108
(dp2109
g12
(dp2110
S'posn'
p2111
S'130'
p2112
sS'name'
p2113
S'\xe0\xa4\xb8\xe0\xa5\x87'
p2114
sS'drel'
p2115
S'lwg__psp:NP5'
p2116
sS'chunktype'
p2117
S'child:NP5'
p2118
sS'af'
p2119
S'\xe0\xa4\xb8\xe0\xa5\x87,psp,,,,,,'
p2120
ssbsg34
I00
sg35
I00
sg36
Nsg37
Nsg38
I5
sg39
I4
sg40
Nsg41
Nsg42
S'PSP'
p2121
sg44
g2108
sg45
I00
sba(issf_api
Word
p2122
(dp2123
g6
I00
sg7
V\u0917\u0941\u092e\u0930\u093e\u0939
p2124
sg9
(issf_api
FeatureSet
p2125
(dp2126
g12
(dp2127
S'posn'
p2128
S'140'
p2129
sS'name'
p2130
S'\xe0\xa4\x97\xe0\xa5\x81\xe0\xa4\xae\xe0\xa4\xb0\xe0\xa4\xbe\xe0\xa4\xb9'
p2131
sS'af'
p2132
S'\xe0\xa4\x97\xe0\xa5\x81\xe0\xa4\xae\xe0\xa4\xb0\xe0\xa4\xbe\xe0\xa4\xb9,adj,any,any,,,,'
p2133
sS'chunkid'
p2134
S'JJP'
p2135
sS'drel'
p2136
S'pof:VGF'
p2137
sS'chunktype'
p2138
S'head:JJP'
p2139
ssbsg34
I00
sg35
I00
sg36
Nsg37
Nsg38
I6
sg39
I4
sg40
Nsg41
Nsg42
S'JJ'
p2140
sg44
g2125
sg45
I00
sba(issf_api
Word
p2141
(dp2142
g6
I00
sg7
V\u0915\u093f\u092f\u093e
p2143
sg9
(issf_api
FeatureSet
p2144
(dp2145
g12
(dp2146
S'posn'
p2147
S'150'
p2148
sS'name'
p2149
S'\xe0\xa4\x95\xe0\xa4\xbf\xe0\xa4\xaf\xe0\xa4\xbe'
p2150
sS'af'
p2151
S'\xe0\xa4\x95\xe0\xa4\xb0,v,m,sg,3,,\xe0\xa4\xaf\xe0\xa4\xbe_\xe0\xa4\xb9\xe0\xa5\x88,yA'
p2152
sS'chunkid'
p2153
S'VGF'
p2154
sS'chunktype'
p2155
S'head:VGF'
p2156
sS'voicetype'
p2157
S'active'
p2158
sS'vpos'
p2159
S'tam_2'
p2160
sS'stype'
p2161
S'declarative'
p2162
ssbsg34
I00
sg35
I00
sg36
Nsg37
Nsg38
I7
sg39
I4
sg40
Nsg41
Nsg42
S'VM'
p2163
sg44
g2144
sg45
I00
sba(issf_api
Word
p2164
(dp2165
g6
I00
sg7
V\u0939\u0948
p2166
sg9
(issf_api
FeatureSet
p2167
(dp2168
g12
(dp2169
S'posn'
p2170
S'160'
p2171
sS'name'
p2172
S'\xe0\xa4\xb9\xe0\xa5\x88'
p2173
sS'drel'
p2174
S'lwg__vaux:VGF'
p2175
sS'chunktype'
p2176
S'child:VGF'
p2177
sS'af'
p2178
S'\xe0\xa4\xb9\xe0\xa5\x88,v,any,sg,3,,\xe0\xa4\xb9\xe0\xa5\x88,hE'
p2179
ssbsg34
I00
sg35
I00
sg36
Nsg37
Nsg38
I7
sg39
I4
sg40
Nsg41
Nsg42
S'VAUX'
p2180
sg44
g2167
sg45
I00
sba(issf_api
Word
p2181
(dp2182
g6
I00
sg7
V\u0964
p2183
sg9
(issf_api
FeatureSet
p2184
(dp2185
g12
(dp2186
S'posn'
p2187
S'170'
p2188
sS'name'
p2189
S'\xe0\xa5\xa4'
p2190
sS'af'
p2191
S'\xe0\xa5\xa4,punc,,,,,,'
p2192
sS'chunkid'
p2193
S'BLK'
p2194
sS'drel'
p2195
S'rsym:VGF'
p2196
sS'chunktype'
p2197
S'head:BLK'
p2198
ssbsg34
I00
sg35
I00
sg36
Nsg37
Nsg38
I8
sg39
I4
sg40
Nsg41
Nsg42
S'SYM'
p2199
sg44
g2184
sg45
I00
sba(issf_api
Word
p2200
(dp2201
g6
I00
sg7
V\u0909\u0928\u094d\u0939\u094b\u0902\u0928\u0947
p2202
sg9
(issf_api
FeatureSet
p2203
(dp2204
g12
(dp2205
S'crefhead'
p2206
S'\xe0\xa4\x89\xe0\xa4\xa8\xe0\xa5\x8d\xe0\xa4\xb9\xe0\xa5\x8b\xe0\xa4\x82\xe0\xa4\xa8\xe0\xa5\x87:i21'
p2207
sS'posn'
p2208
S'10'
p2209
sS'name'
p2210
S'\xe0\xa4\x89\xe0\xa4\xa8\xe0\xa5\x8d\xe0\xa4\xb9\xe0\xa5\x8b\xe0\xa4\x82\xe0\xa4\xa8\xe0\xa5\x87'
p2211
sS'af'
p2212
S'\xe0\xa4\xb5\xe0\xa4\xb9,pn,any,sg,3h,o,\xe0\xa4\xa8\xe0\xa5\x87,ne'
p2213
sS'chunkid'
p2214
S'NP'
p2215
sS'creftype'
p2216
S'Anaphora-C:i19'
p2217
sS'chunktype'
p2218
S'head:NP'
p2219
sS'cref'
p2220
S'i21%1:t7'
p2221
sS'drel'
p2222
S'k1:VGF'
p2223
ssbsg34
I00
sg35
I00
sg36
Nsg37
Nsg38
I0
sg39
I5
sg40
Nsg41
Nsg42
S'PRP'
p2224
sg44
g2203
sg45
I00
sba(issf_api
Word
p2225
(dp2226
g6
I00
sg7
V\u0909\u092e\u094d\u092e\u0940\u0926
p2227
sg9
(issf_api
FeatureSet
p2228
(dp2229
g12
(dp2230
S'posn'
p2231
S'20'
p2232
sS'name'
p2233
S'\xe0\xa4\x89\xe0\xa4\xae\xe0\xa5\x8d\xe0\xa4\xae\xe0\xa5\x80\xe0\xa4\xa6'
p2234
sS'af'
p2235
S'\xe0\xa4\x89\xe0\xa4\xae\xe0\xa5\x8d\xe0\xa4\xae\xe0\xa5\x80\xe0\xa4\xa6,n,f,sg,3,d,0,0'
p2236
sS'chunkid'
p2237
S'NP2'
p2238
sS'drel'
p2239
S'pof:VGF'
p2240
sS'chunktype'
p2241
S'head:NP2'
p2242
ssbsg34
I00
sg35
I00
sg36
Nsg37
Nsg38
I1
sg39
I5
sg40
Nsg41
Nsg42
S'NN'
p2243
sg44
g2228
sg45
I00
sba(issf_api
Word
p2244
(dp2245
g6
I00
sg7
V\u091c\u0924\u093e\u0908
p2246
sg9
(issf_api
FeatureSet
p2247
(dp2248
g12
(dp2249
S'posn'
p2250
S'30'
p2251
sS'name'
p2252
S'\xe0\xa4\x9c\xe0\xa4\xa4\xe0\xa4\xbe\xe0\xa4\x88'
p2253
sS'af'
p2254
S'\xe0\xa4\x9c\xe0\xa4\xa4\xe0\xa4\xbe,v,f,sg,any,,\xe0\xa4\xaf\xe0\xa4\xbe,yA'
p2255
sS'chunkid'
p2256
S'VGF'
p2257
sS'chunktype'
p2258
S'head:VGF'
p2259
sS'voicetype'
p2260
S'active'
p2261
sS'stype'
p2262
S'declarative'
p2263
ssbsg34
I00
sg35
I00
sg36
Nsg37
Nsg38
I2
sg39
I5
sg40
Nsg41
Nsg42
S'VM'
p2264
sg44
g2247
sg45
I00
sba(issf_api
Word
p2265
(dp2266
g6
I00
sg7
V\u0915\u093f
p2267
sg9
(issf_api
FeatureSet
p2268
(dp2269
g12
(dp2270
S'posn'
p2271
S'40'
p2272
sS'name'
p2273
S'\xe0\xa4\x95\xe0\xa4\xbf'
p2274
sS'af'
p2275
S'\xe0\xa4\x95\xe0\xa4\xbf,avy,,,,,,'
p2276
sS'chunkid'
p2277
S'CCP'
p2278
sS'drel'
p2279
S'k2:VGF'
p2280
sS'chunktype'
p2281
S'head:CCP'
p2282
ssbsg34
I00
sg35
I00
sg36
Nsg37
Nsg38
I3
sg39
I5
sg40
Nsg41
Nsg42
S'CC'
p2283
sg44
g2268
sg45
I00
sba(issf_api
Word
p2284
(dp2285
g6
I00
sg7
V\u0909\u0928\u0915\u0947
p2286
sg9
(issf_api
FeatureSet
p2287
(dp2288
g12
(dp2289
S'posn'
p2290
S'50'
p2291
sS'name'
p2292
S'\xe0\xa4\x89\xe0\xa4\xa8\xe0\xa4\x95\xe0\xa5\x87'
p2293
sS'af'
p2294
S'\xe0\xa4\xb5\xe0\xa4\xb9,pn,m,sg,3h,o,\xe0\xa4\x95\xe0\xa4\xbe,kA'
p2295
sS'chunkid'
p2296
S'NP3'
p2297
sS'drel'
p2298
S'r6:NP4'
p2299
sS'chunktype'
p2300
S'head:NP3'
p2301
ssbsg34
I00
sg35
I00
sg36
Nsg37
Nsg38
I4
sg39
I5
sg40
Nsg41
Nsg42
S'PRP'
p2302
sg44
g2287
sg45
I00
sba(issf_api
Word
p2303
(dp2304
g6
I00
sg7
V\u0907\u0938
p2305
sg9
(issf_api
FeatureSet
p2306
(dp2307
g12
(dp2308
S'posn'
p2309
S'60'
p2310
sS'name'
p2311
S'\xe0\xa4\x87\xe0\xa4\xb8'
p2312
sS'drel'
p2313
S'nmod__adj:NP4'
p2314
sS'chunktype'
p2315
S'child:NP4'
p2316
sS'af'
p2317
S'\xe0\xa4\xaf\xe0\xa4\xb9,pn,any,sg,3,o,,'
p2318
ssbsg34
I00
sg35
I00
sg36
Nsg37
Nsg38
I5
sg39
I5
sg40
Nsg41
Nsg42
S'DEM'
p2319
sg44
g2306
sg45
I00
sba(issf_api
Word
p2320
(dp2321
g6
I00
sg7
V\u0928\u090f
p2322
sg9
(issf_api
FeatureSet
p2323
(dp2324
g12
(dp2325
S'posn'
p2326
S'70'
p2327
sS'name'
p2328
S'\xe0\xa4\xa8\xe0\xa4\x8f'
p2329
sS'drel'
p2330
S'nmod__adj:NP4'
p2331
sS'chunktype'
p2332
S'child:NP4'
p2333
sS'af'
p2334
S'\xe0\xa4\xa8\xe0\xa4\xaf\xe0\xa4\xbe,adj,m,sg,,o,,'
p2335
ssbsg34
I00
sg35
I00
sg36
Nsg37
Nsg38
I5
sg39
I5
sg40
Nsg41
Nsg42
S'JJ'
p2336
sg44
g2323
sg45
I00
sba(issf_api
Word
p2337
(dp2338
g6
I00
sg7
V\u0916\u094b\u091c\u0940
p2339
sg9
(issf_api
FeatureSet
p2340
(dp2341
g12
(dp2342
S'posn'
p2343
S'80'
p2344
sS'name'
p2345
S'\xe0\xa4\x96\xe0\xa5\x8b\xe0\xa4\x9c\xe0\xa5\x80'
p2346
sS'drel'
p2347
S'nmod__adj:NP4'
p2348
sS'chunktype'
p2349
S'child:NP4'
p2350
sS'af'
p2351
S'\xe0\xa4\x96\xe0\xa5\x8b\xe0\xa4\x9c\xe0\xa5\x80,adj,any,any,,o,,'
p2352
ssbsg34
I00
sg35
I00
sg36
Nsg37
Nsg38
I5
sg39
I5
sg40
Nsg41
Nsg42
S'JJ'
p2353
sg44
g2340
sg45
I00
sba(issf_api
Word
p2354
(dp2355
g6
I00
sg7
V\u0916\u0941\u0932\u093e\u0938\u0947
p2356
sg9
(issf_api
FeatureSet
p2357
(dp2358
g12
(dp2359
S'posn'
p2360
S'90'
p2361
sS'name'
p2362
S'\xe0\xa4\x96\xe0\xa5\x81\xe0\xa4\xb2\xe0\xa4\xbe\xe0\xa4\xb8\xe0\xa5\x87'
p2363
sS'af'
p2364
S'\xe0\xa4\x96\xe0\xa5\x81\xe0\xa4\xb2\xe0\xa4\xbe\xe0\xa4\xb8\xe0\xa4\xbe,n,m,sg,3,o,0_\xe0\xa4\x95\xe0\xa4\xbe,0'
p2365
sS'chunkid'
p2366
S'NP4'
p2367
sS'drel'
p2368
S'k2:VGF2'
p2369
sS'vpos'
p2370
S'vib_5_RP'
p2371
sS'chunktype'
p2372
S'head:NP4'
p2373
ssbsg34
I00
sg35
I00
sg36
Nsg37
Nsg38
I5
sg39
I5
sg40
Nsg41
Nsg42
S'NN'
p2374
sg44
g2357
sg45
I00
sba(issf_api
Word
p2375
(dp2376
g6
I00
sg7
V\u0915\u093e
p2377
sg9
(issf_api
FeatureSet
p2378
(dp2379
g12
(dp2380
S'posn'
p2381
S'100'
p2382
sS'name'
p2383
S'\xe0\xa4\x95\xe0\xa4\xbe'
p2384
sS'drel'
p2385
S'lwg__psp:NP4'
p2386
sS'chunktype'
p2387
S'child:NP4'
p2388
sS'af'
p2389
S'\xe0\xa4\x95\xe0\xa4\xbe,psp,m,sg,,d,,'
p2390
ssbsg34
I00
sg35
I00
sg36
Nsg37
Nsg38
I5
sg39
I5
sg40
Nsg41
Nsg42
S'PSP'
p2391
sg44
g2378
sg45
I00
sba(issf_api
Word
p2392
(dp2393
g6
I00
sg7
V\u092d\u0940
p2394
sg9
(issf_api
FeatureSet
p2395
(dp2396
g12
(dp2397
S'posn'
p2398
S'110'
p2399
sS'name'
p2400
S'\xe0\xa4\xad\xe0\xa5\x80'
p2401
sS'drel'
p2402
S'lwg__rp:NP4'
p2403
sS'chunktype'
p2404
S'child:NP4'
p2405
sS'af'
p2406
S'\xe0\xa4\xad\xe0\xa5\x80,avy,,,,,,'
p2407
ssbsg34
I00
sg35
I00
sg36
Nsg37
Nsg38
I5
sg39
I5
sg40
Nsg41
Nsg42
S'RP'
p2408
sg44
g2395
sg45
I00
sba(issf_api
Word
p2409
(dp2410
g6
I00
sg7
V\u092f\u0939\u0940
p2411
sg9
(issf_api
FeatureSet
p2412
(dp2413
g12
(dp2414
S'posn'
p2415
S'120'
p2416
sS'name'
p2417
S'\xe0\xa4\xaf\xe0\xa4\xb9\xe0\xa5\x80'
p2418
sS'drel'
p2419
S'nmod__adj:NP5'
p2420
sS'chunktype'
p2421
S'child:NP5'
p2422
sS'af'
p2423
S'\xe0\xa4\xaf\xe0\xa4\xb9,pn,any,sg,3,d,,'
p2424
ssbsg34
I00
sg35
I00
sg36
Nsg37
Nsg38
I6
sg39
I5
sg40
Nsg41
Nsg42
S'DEM'
p2425
sg44
g2412
sg45
I00
sba(issf_api
Word
p2426
(dp2427
g6
I00
sg7
V\u0939\u0936\u094d\u0930
p2428
sg9
(issf_api
FeatureSet
p2429
(dp2430
g12
(dp2431
S'posn'
p2432
S'130'
p2433
sS'name'
p2434
S'\xe0\xa4\xb9\xe0\xa4\xb6\xe0\xa5\x8d\xe0\xa4\xb0'
p2435
sS'af'
p2436
S'\xe0\xa4\xb9\xe0\xa4\xb6\xe0\xa5\x8d\xe0\xa4\xb0,n,m,sg,3,d,0,0'
p2437
sS'chunkid'
p2438
S'NP5'
p2439
sS'drel'
p2440
S'pof:VGF2'
p2441
sS'chunktype'
p2442
S'head:NP5'
p2443
ssbsg34
I00
sg35
I00
sg36
Nsg37
Nsg38
I6
sg39
I5
sg40
Nsg41
Nsg42
S'NN'
p2444
sg44
g2429
sg45
I00
sba(issf_api
Word
p2445
(dp2446
g6
I00
sg7
V\u0939\u094b\u0917\u093e
p2447
sg9
(issf_api
FeatureSet
p2448
(dp2449
g12
(dp2450
S'posn'
p2451
S'140'
p2452
sS'name'
p2453
S'\xe0\xa4\xb9\xe0\xa5\x8b\xe0\xa4\x97\xe0\xa4\xbe'
p2454
sS'af'
p2455
S'\xe0\xa4\xb9\xe0\xa5\x8b,v,m,sg,3,,\xe0\xa4\x97\xe0\xa4\xbe,gA'
p2456
sS'chunkid'
p2457
S'VGF2'
p2458
sS'stype'
p2459
S'declarative'
p2460
sS'drel'
p2461
S'ccof:CCP'
p2462
sS'voicetype'
p2463
S'active'
p2464
sS'chunktype'
p2465
S'head:VGF2'
p2466
ssbsg34
I00
sg35
I00
sg36
Nsg37
Nsg38
I7
sg39
I5
sg40
Nsg41
Nsg42
S'VM'
p2467
sg44
g2448
sg45
I00
sba(issf_api
Word
p2468
(dp2469
g6
I00
sg7
V\u0964
p2470
sg9
(issf_api
FeatureSet
p2471
(dp2472
g12
(dp2473
S'posn'
p2474
S'150'
p2475
sS'name'
p2476
S'\xe0\xa5\xa4'
p2477
sS'af'
p2478
S'\xe0\xa5\xa4,punc,,,,,,'
p2479
sS'chunkid'
p2480
S'BLK'
p2481
sS'drel'
p2482
S'rsym:VGF'
p2483
sS'chunktype'
p2484
S'head:BLK'
p2485
ssbsg34
I00
sg35
I00
sg36
Nsg37
Nsg38
I8
sg39
I5
sg40
Nsg41
Nsg42
S'SYM'
p2486
sg44
g2471
sg45
I00
sba(issf_api
Word
p2487
(dp2488
g6
I00
sg7
V\u092a\u094d\u0930\u0935\u0915\u094d\u0924\u093e
p2489
sg9
(issf_api
FeatureSet
p2490
(dp2491
g12
(dp2492
S'crefhead'
p2493
S'\xe0\xa4\xaa\xe0\xa5\x8d\xe0\xa4\xb0\xe0\xa4\xb5\xe0\xa4\x95\xe0\xa5\x8d\xe0\xa4\xa4\xe0\xa4\xbe:i22'
p2494
sS'posn'
p2495
S'10'
p2496
sS'name'
p2497
S'\xe0\xa4\xaa\xe0\xa5\x8d\xe0\xa4\xb0\xe0\xa4\xb5\xe0\xa4\x95\xe0\xa5\x8d\xe0\xa4\xa4\xe0\xa4\xbe'
p2498
sS'af'
p2499
S'\xe0\xa4\xaa\xe0\xa5\x8d\xe0\xa4\xb0\xe0\xa4\xb5\xe0\xa4\x95\xe0\xa5\x8d\xe0\xa4\xa4\xe0\xa4\xbe,n,m,sg,3,o,0_\xe0\xa4\xa8\xe0\xa5\x87,0'
p2500
sS'chunkid'
p2501
S'NP'
p2502
sS'creftype'
p2503
S'Coreference-Noun-Noun:i21'
p2504
sS'chunktype'
p2505
S'head:NP'
p2506
sS'vpos'
p2507
S'vib_2'
p2508
sS'cref'
p2509
S'i22%1:t7'
p2510
sS'drel'
p2511
S'k1:VGF'
p2512
ssbsg34
I00
sg35
I00
sg36
Nsg37
Nsg38
I0
sg39
I6
sg40
Nsg41
Nsg42
S'NN'
p2513
sg44
g2490
sg45
I00
sba(issf_api
Word
p2514
(dp2515
g6
I00
sg7
V\u0928\u0947
p2516
sg9
(issf_api
FeatureSet
p2517
(dp2518
g12
(dp2519
S'posn'
p2520
S'20'
p2521
sS'name'
p2522
S'\xe0\xa4\xa8\xe0\xa5\x87'
p2523
sS'drel'
p2524
S'lwg__psp:NP'
p2525
sS'chunktype'
p2526
S'child:NP'
p2527
sS'af'
p2528
S'\xe0\xa4\xa8\xe0\xa5\x87,psp,,,,,,'
p2529
ssbsg34
I00
sg35
I00
sg36
Nsg37
Nsg38
I0
sg39
I6
sg40
Nsg41
Nsg42
S'PSP'
p2530
sg44
g2517
sg45
I00
sba(issf_api
Word
p2531
(dp2532
g6
I00
sg7
V\u0907\u0938
p2533
sg9
(issf_api
FeatureSet
p2534
(dp2535
g12
(dp2536
S'posn'
p2537
S'30'
p2538
sS'name'
p2539
S'\xe0\xa4\x87\xe0\xa4\xb8'
p2540
sS'drel'
p2541
S'nmod__adj:NP2'
p2542
sS'chunktype'
p2543
S'child:NP2'
p2544
sS'af'
p2545
S'\xe0\xa4\xaf\xe0\xa4\xb9,pn,any,sg,3,o,,'
p2546
ssbsg34
I00
sg35
I00
sg36
Nsg37
Nsg38
I1
sg39
I6
sg40
Nsg41
Nsg42
S'DEM'
p2547
sg44
g2534
sg45
I00
sba(issf_api
Word
p2548
(dp2549
g6
I00
sg7
V\u092c\u093e\u0924
p2550
sg9
(issf_api
FeatureSet
p2551
(dp2552
g12
(dp2553
S'posn'
p2554
S'40'
p2555
sS'name'
p2556
S'\xe0\xa4\xac\xe0\xa4\xbe\xe0\xa4\xa4'
p2557
sS'af'
p2558
S'\xe0\xa4\xac\xe0\xa4\xbe\xe0\xa4\xa4,n,f,sg,3,o,0_\xe0\xa4\xb8\xe0\xa5\x87,0'
p2559
sS'chunkid'
p2560
S'NP2'
p2561
sS'drel'
p2562
S'k2:VGF'
p2563
sS'vpos'
p2564
S'vib_3_RP'
p2565
sS'chunktype'
p2566
S'head:NP2'
p2567
ssbsg34
I00
sg35
I00
sg36
Nsg37
Nsg38
I1
sg39
I6
sg40
Nsg41
Nsg42
S'NN'
p2568
sg44
g2551
sg45
I00
sba(issf_api
Word
p2569
(dp2570
g6
I00
sg7
V\u0938\u0947
p2571
sg9
(issf_api
FeatureSet
p2572
(dp2573
g12
(dp2574
S'posn'
p2575
S'50'
p2576
sS'name'
p2577
S'\xe0\xa4\xb8\xe0\xa5\x87'
p2578
sS'drel'
p2579
S'lwg__psp:NP2'
p2580
sS'chunktype'
p2581
S'child:NP2'
p2582
sS'af'
p2583
S'\xe0\xa4\xb8\xe0\xa5\x87,psp,,,,,,'
p2584
ssbsg34
I00
sg35
I00
sg36
Nsg37
Nsg38
I1
sg39
I6
sg40
Nsg41
Nsg42
S'PSP'
p2585
sg44
g2572
sg45
I00
sba(issf_api
Word
p2586
(dp2587
g6
I00
sg7
V\u092d\u0940
p2588
sg9
(issf_api
FeatureSet
p2589
(dp2590
g12
(dp2591
S'posn'
p2592
S'60'
p2593
sS'name'
p2594
S'\xe0\xa4\xad\xe0\xa5\x80'
p2595
sS'drel'
p2596
S'lwg__rp:NP2'
p2597
sS'chunktype'
p2598
S'child:NP2'
p2599
sS'af'
p2600
S'\xe0\xa4\xad\xe0\xa5\x80,avy,,,,,,'
p2601
ssbsg34
I00
sg35
I00
sg36
Nsg37
Nsg38
I1
sg39
I6
sg40
Nsg41
Nsg42
S'RP'
p2602
sg44
g2589
sg45
I00
sba(issf_api
Word
p2603
(dp2604
g6
I00
sg7
V\u0938\u093e\u092b
p2605
sg9
(issf_api
FeatureSet
p2606
(dp2607
g12
(dp2608
S'posn'
p2609
S'70'
p2610
sS'name'
p2611
S'\xe0\xa4\xb8\xe0\xa4\xbe\xe0\xa4\xab'
p2612
sS'drel'
p2613
S'nmod__adj:NP3'
p2614
sS'chunktype'
p2615
S'child:NP3'
p2616
sS'af'
p2617
S'\xe0\xa4\xb8\xe0\xa4\xbe\xe0\xa4\xab,adj,any,any,,d,,'
p2618
ssbsg34
I00
sg35
I00
sg36
Nsg37
Nsg38
I2
sg39
I6
sg40
Nsg41
Nsg42
S'JJ'
p2619
sg44
g2606
sg45
I00
sba(issf_api
Word
p2620
(dp2621
g6
I00
sg7
V\u0907\u0928\u094d\u0915\u093e\u0930
p2622
sg9
(issf_api
FeatureSet
p2623
(dp2624
g12
(dp2625
S'posn'
p2626
S'80'
p2627
sS'name'
p2628
S'\xe0\xa4\x87\xe0\xa4\xa8\xe0\xa5\x8d\xe0\xa4\x95\xe0\xa4\xbe\xe0\xa4\xb0'
p2629
sS'af'
p2630
S'\xe0\xa4\x87\xe0\xa4\xa8\xe0\xa5\x8d\xe0\xa4\x95\xe0\xa4\xbe\xe0\xa4\xb0,n,m,sg,3,d,0,0'
p2631
sS'chunkid'
p2632
S'NP3'
p2633
sS'drel'
p2634
S'pof:VGF'
p2635
sS'chunktype'
p2636
S'head:NP3'
p2637
ssbsg34
I00
sg35
I00
sg36
Nsg37
Nsg38
I2
sg39
I6
sg40
Nsg41
Nsg42
S'NN'
p2638
sg44
g2623
sg45
I00
sba(issf_api
Word
p2639
(dp2640
g6
I00
sg7
V\u0915\u093f\u092f\u093e
p2641
sg9
(issf_api
FeatureSet
p2642
(dp2643
g12
(dp2644
S'posn'
p2645
S'90'
p2646
sS'name'
p2647
S'\xe0\xa4\x95\xe0\xa4\xbf\xe0\xa4\xaf\xe0\xa4\xbe'
p2648
sS'af'
p2649
S'\xe0\xa4\x95\xe0\xa4\xb0,v,m,sg,any,,\xe0\xa4\xaf\xe0\xa4\xbe,yA'
p2650
sS'chunkid'
p2651
S'VGF'
p2652
sS'chunktype'
p2653
S'head:VGF'
p2654
sS'voicetype'
p2655
S'active'
p2656
sS'stype'
p2657
S'declarative'
p2658
ssbsg34
I00
sg35
I00
sg36
Nsg37
Nsg38
I3
sg39
I6
sg40
Nsg41
Nsg42
S'VM'
p2659
sg44
g2642
sg45
I00
sba(issf_api
Word
p2660
(dp2661
g6
I00
sg7
V\u0915\u093f
p2662
sg9
(issf_api
FeatureSet
p2663
(dp2664
g12
(dp2665
S'posn'
p2666
S'100'
p2667
sS'name'
p2668
S'\xe0\xa4\x95\xe0\xa4\xbf'
p2669
sS'af'
p2670
S'\xe0\xa4\x95\xe0\xa4\xbf,avy,,,,,,'
p2671
sS'chunkid'
p2672
S'CCP'
p2673
sS'drel'
p2674
S'rs:NP2'
p2675
sS'chunktype'
p2676
S'head:CCP'
p2677
ssbsg34
I00
sg35
I00
sg36
Nsg37
Nsg38
I4
sg39
I6
sg40
Nsg41
Nsg42
S'CC'
p2678
sg44
g2663
sg45
I00
sba(issf_api
Word
p2679
(dp2680
g6
I00
sg7
V\u092a\u094d\u0930\u0935\u0930\u094d\u0924\u0928
p2681
sg9
(issf_api
FeatureSet
p2682
(dp2683
g12
(dp2684
S'posn'
p2685
S'110'
p2686
sS'name'
p2687
S'\xe0\xa4\xaa\xe0\xa5\x8d\xe0\xa4\xb0\xe0\xa4\xb5\xe0\xa4\xb0\xe0\xa5\x8d\xe0\xa4\xa4\xe0\xa4\xa8'
p2688
sS'af'
p2689
S'\xe0\xa4\xaa\xe0\xa5\x8d\xe0\xa4\xb0\xe0\xa4\xb5\xe0\xa4\xb0\xe0\xa5\x8d\xe0\xa4\xa4\xe0\xa4\xa8,n,m,sg,3,d,0,0'
p2690
sS'drel'
p2691
S'pof__cn:NP4'
p2692
sS'chunktype'
p2693
S'child:NP4'
p2694
sS'cref'
p2695
S'i23%0:t8'
p2696
ssbsg34
I00
sg35
I00
sg36
Nsg37
Nsg38
I5
sg39
I6
sg40
Nsg41
Nsg42
S'NNPC'
p2697
sg44
g2682
sg45
I00
sba(issf_api
Word
p2698
(dp2699
g6
I00
sg7
V\u0928\u093f\u0926\u0947\u0936\u093e\u0932\u092f
p2700
sg9
(issf_api
FeatureSet
p2701
(dp2702
g12
(dp2703
S'crefhead'
p2704
S'\xe0\xa4\xa8\xe0\xa4\xbf\xe0\xa4\xa6\xe0\xa5\x87\xe0\xa4\xb6\xe0\xa4\xbe\xe0\xa4\xb2\xe0\xa4\xaf:i23'
p2705
sS'posn'
p2706
S'120'
p2707
sS'name'
p2708
S'\xe0\xa4\xa8\xe0\xa4\xbf\xe0\xa4\xa6\xe0\xa5\x87\xe0\xa4\xb6\xe0\xa4\xbe\xe0\xa4\xb2\xe0\xa4\xaf'
p2709
sS'af'
p2710
S'\xe0\xa4\xa8\xe0\xa4\xbf\xe0\xa4\xa6\xe0\xa5\x87\xe0\xa4\xb6\xe0\xa4\xbe\xe0\xa4\xb2\xe0\xa4\xaf,n,m,sg,3,o,0_\xe0\xa4\x95\xe0\xa4\xbe,0'
p2711
sS'chunkid'
p2712
S'NP4'
p2713
sS'chunktype'
p2714
S'head:NP4'
p2715
sS'crefchainhead'
p2716
S'i23:t8'
p2717
sS'vpos'
p2718
S'vib_3'
p2719
sS'cref'
p2720
S'i23%1:t8'
p2721
sS'drel'
p2722
S'r6:NP5'
p2723
ssbsg34
I00
sg35
I00
sg36
Nsg37
Nsg38
I5
sg39
I6
sg40
Nsg41
Nsg42
S'NNP'
p2724
sg44
g2701
sg45
I00
sba(issf_api
Word
p2725
(dp2726
g6
I00
sg7
V\u0915\u0947
p2727
sg9
(issf_api
FeatureSet
p2728
(dp2729
g12
(dp2730
S'posn'
p2731
S'130'
p2732
sS'name'
p2733
S'\xe0\xa4\x95\xe0\xa5\x87'
p2734
sS'drel'
p2735
S'lwg__psp:NP4'
p2736
sS'chunktype'
p2737
S'child:NP4'
p2738
sS'af'
p2739
S'\xe0\xa4\x95\xe0\xa4\xbe,psp,m,sg,,o,,'
p2740
ssbsg34
I00
sg35
I00
sg36
Nsg37
Nsg38
I5
sg39
I6
sg40
Nsg41
Nsg42
S'PSP'
p2741
sg44
g2728
sg45
I00
sba(issf_api
Word
p2742
(dp2743
g6
I00
sg7
V\u0915\u093f\u0938\u0940
p2744
sg9
(issf_api
FeatureSet
p2745
(dp2746
g12
(dp2747
S'crefhead'
p2748
S'\xe0\xa4\x95\xe0\xa4\xbf\xe0\xa4\xb8\xe0\xa5\x80:i24'
p2749
sS'posn'
p2750
S'140'
p2751
sS'name'
p2752
S'\xe0\xa4\x95\xe0\xa4\xbf\xe0\xa4\xb8\xe0\xa5\x80'
p2753
sS'af'
p2754
S'\xe0\xa4\x95\xe0\xa5\x8b\xe0\xa4\x88,pn,any,sg,3,o,0,0'
p2755
sS'drel'
p2756
S'nmod__adj:NP5'
p2757
sS'crefchainhead'
p2758
S'i24:t9'
p2759
sS'chunktype'
p2760
S'child:NP5'
p2761
sS'cref'
p2762
S'i24%1:t9'
p2763
ssbsg34
I00
sg35
I00
sg36
Nsg37
Nsg38
I6
sg39
I6
sg40
Nsg41
Nsg42
S'PRP'
p2764
sg44
g2745
sg45
I00
sba(issf_api
Word
p2765
(dp2766
g6
I00
sg7
V\u092c\u0921\u093c\u0947
p2767
sg9
(issf_api
FeatureSet
p2768
(dp2769
g12
(dp2770
S'posn'
p2771
S'150'
p2772
sS'name'
p2773
S'\xe0\xa4\xac\xe0\xa4\xa1\xe0\xa4\xbc\xe0\xa5\x87'
p2774
sS'drel'
p2775
S'nmod__adj:NP5'
p2776
sS'chunktype'
p2777
S'child:NP5'
p2778
sS'af'
p2779
S'\xe0\xa4\xac\xe0\xa4\xa1\xe0\xa4\xbc\xe0\xa4\xbe,adj,m,sg,,o,,'
p2780
ssbsg34
I00
sg35
I00
sg36
Nsg37
Nsg38
I6
sg39
I6
sg40
Nsg41
Nsg42
S'JJ'
p2781
sg44
g2768
sg45
I00
sba(issf_api
Word
p2782
(dp2783
g6
I00
sg7
V\u0905\u092b\u0938\u0930
p2784
sg9
(issf_api
FeatureSet
p2785
(dp2786
g12
(dp2787
S'posn'
p2788
S'160'
p2789
sS'name'
p2790
S'\xe0\xa4\x85\xe0\xa4\xab\xe0\xa4\xb8\xe0\xa4\xb0'
p2791
sS'af'
p2792
S'\xe0\xa4\x85\xe0\xa4\xab\xe0\xa4\xb8\xe0\xa4\xb0,n,m,sg,3,o,0_\xe0\xa4\xa8\xe0\xa5\x87,0'
p2793
sS'chunkid'
p2794
S'NP5'
p2795
sS'drel'
p2796
S'k1:VGF2'
p2797
sS'vpos'
p2798
S'vib_vib_4'
p2799
sS'chunktype'
p2800
S'head:NP5'
p2801
ssbsg34
I00
sg35
I00
sg36
Nsg37
Nsg38
I6
sg39
I6
sg40
Nsg41
Nsg42
S'NN'
p2802
sg44
g2785
sg45
I00
sba(issf_api
Word
p2803
(dp2804
g6
I00
sg7
V\u0928\u0947
p2805
sg9
(issf_api
FeatureSet
p2806
(dp2807
g12
(dp2808
S'posn'
p2809
S'170'
p2810
sS'name'
p2811
S'\xe0\xa4\xa8\xe0\xa5\x872'
p2812
sS'drel'
p2813
S'lwg__psp:NP5'
p2814
sS'chunktype'
p2815
S'child:NP5'
p2816
sS'af'
p2817
S'\xe0\xa4\xa8\xe0\xa5\x87,psp,,,,,,'
p2818
ssbsg34
I00
sg35
I00
sg36
Nsg37
Nsg38
I6
sg39
I6
sg40
Nsg41
Nsg42
S'PSP'
p2819
sg44
g2806
sg45
I00
sba(issf_api
Word
p2820
(dp2821
g6
I00
sg7
V\u0915\u093e\u0902\u0917\u094d\u0930\u0947\u0938
p2822
sg9
(issf_api
FeatureSet
p2823
(dp2824
g12
(dp2825
S'crefhead'
p2826
S'\xe0\xa4\x95\xe0\xa4\xbe\xe0\xa4\x82\xe0\xa4\x97\xe0\xa5\x8d\xe0\xa4\xb0\xe0\xa5\x87\xe0\xa4\xb8:i25'
p2827
sS'posn'
p2828
S'180'
p2829
sS'name'
p2830
S'\xe0\xa4\x95\xe0\xa4\xbe\xe0\xa4\x82\xe0\xa4\x97\xe0\xa5\x8d\xe0\xa4\xb0\xe0\xa5\x87\xe0\xa4\xb8'
p2831
sS'af'
p2832
S'\xe0\xa4\x95\xe0\xa4\xbe\xe0\xa4\x82\xe0\xa4\x97\xe0\xa5\x8d\xe0\xa4\xb0\xe0\xa5\x87\xe0\xa4\xb8,n,f,sg,3,d,0,0'
p2833
sS'creftype'
p2834
S'Coreference-Noun-Noun:i16'
p2835
sS'drel'
p2836
S'nmod__adj:NP6'
p2837
sS'chunktype'
p2838
S'child:NP6'
p2839
sS'cref'
p2840
S'i25%1:t1,i26%0:t3'
p2841
ssbsg34
I00
sg35
I00
sg36
Nsg37
Nsg38
I7
sg39
I6
sg40
Nsg41
Nsg42
S'NNP'
p2842
sg44
g2823
sg45
I00
sba(issf_api
Word
p2843
(dp2844
g6
I00
sg7
V\u0905\u0927\u094d\u092f\u0915\u094d\u0937
p2845
sg9
(issf_api
FeatureSet
p2846
(dp2847
g12
(dp2848
S'posn'
p2849
S'190'
p2850
sS'name'
p2851
S'\xe0\xa4\x85\xe0\xa4\xa7\xe0\xa5\x8d\xe0\xa4\xaf\xe0\xa4\x95\xe0\xa5\x8d\xe0\xa4\xb7'
p2852
sS'af'
p2853
S'\xe0\xa4\x85\xe0\xa4\xa7\xe0\xa5\x8d\xe0\xa4\xaf\xe0\xa4\x95\xe0\xa5\x8d\xe0\xa4\xb7,n,f,sg,3,d,0,0'
p2854
sS'drel'
p2855
S'nmod:NP6'
p2856
sS'chunktype'
p2857
S'child:NP6'
p2858
sS'cref'
p2859
S'i26%0:t3'
p2860
ssbsg34
I00
sg35
I00
sg36
Nsg37
Nsg38
I7
sg39
I6
sg40
Nsg41
Nsg42
S'NN'
p2861
sg44
g2846
sg45
I00
sba(issf_api
Word
p2862
(dp2863
g6
I00
sg7
V\u0938\u094b\u0928\u093f\u092f\u093e
p2864
sg9
(issf_api
FeatureSet
p2865
(dp2866
g12
(dp2867
S'posn'
p2868
S'200'
p2869
sS'name'
p2870
S'\xe0\xa4\xb8\xe0\xa5\x8b\xe0\xa4\xa8\xe0\xa4\xbf\xe0\xa4\xaf\xe0\xa4\xbe'
p2871
sS'af'
p2872
S'\xe0\xa4\xb8\xe0\xa5\x8b\xe0\xa4\xa8\xe0\xa4\xbf\xe0\xa4\xaf\xe0\xa4\xbe,n,f,sg,3,d,0,0'
p2873
sS'drel'
p2874
S'pof__cn:NP6'
p2875
sS'chunktype'
p2876
S'child:NP6'
p2877
sS'cref'
p2878
S'i26%0:t3'
p2879
ssbsg34
I00
sg35
I00
sg36
Nsg37
Nsg38
I7
sg39
I6
sg40
Nsg41
Nsg42
S'NNPC'
p2880
sg44
g2865
sg45
I00
sba(issf_api
Word
p2881
(dp2882
g6
I00
sg7
V\u0917\u093e\u0901\u0927\u0940
p2883
sg9
(issf_api
FeatureSet
p2884
(dp2885
g12
(dp2886
S'crefhead'
p2887
S'\xe0\xa4\x97\xe0\xa4\xbe\xe0\xa4\x81\xe0\xa4\xa7\xe0\xa5\x80:i26'
p2888
sS'posn'
p2889
S'210'
p2890
sS'name'
p2891
S'\xe0\xa4\x97\xe0\xa4\xbe\xe0\xa4\x81\xe0\xa4\xa7\xe0\xa5\x80'
p2892
sS'af'
p2893
S'\xe0\xa4\x97\xe0\xa4\xbe\xe0\xa4\x81\xe0\xa4\xa7\xe0\xa5\x80,n,any,sg,3,o,0_\xe0\xa4\xb8\xe0\xa5\x87,0'
p2894
sS'chunkid'
p2895
S'NP6'
p2896
sS'creftype'
p2897
S'Coreference-Identity:i51:i27'
p2898
sS'chunktype'
p2899
S'head:NP6'
p2900
sS'crefchainhead'
p2901
S'i26:t3'
p2902
sS'vpos'
p2903
S'vib_vib_vib_5'
p2904
sS'cref'
p2905
S'i26%1:t3'
p2906
sS'drel'
p2907
S'k2:VGF2'
p2908
ssbsg34
I00
sg35
I00
sg36
Nsg37
Nsg38
I7
sg39
I6
sg40
Nsg41
Nsg42
S'NNP'
p2909
sg44
g2884
sg45
I00
sba(issf_api
Word
p2910
(dp2911
g6
I00
sg7
V\u0938\u0947
p2912
sg9
(issf_api
FeatureSet
p2913
(dp2914
g12
(dp2915
S'posn'
p2916
S'220'
p2917
sS'name'
p2918
S'\xe0\xa4\xb8\xe0\xa5\x872'
p2919
sS'drel'
p2920
S'lwg__psp:NP6'
p2921
sS'chunktype'
p2922
S'child:NP6'
p2923
sS'af'
p2924
S'\xe0\xa4\xb8\xe0\xa5\x87,psp,,,,,,'
p2925
ssbsg34
I00
sg35
I00
sg36
Nsg37
Nsg38
I7
sg39
I6
sg40
Nsg41
Nsg42
S'PSP'
p2926
sg44
g2913
sg45
I00
sba(issf_api
Word
p2927
(dp2928
g6
I00
sg7
V\u092e\u0941\u0932\u093e\u0915\u093e\u0924
p2929
sg9
(issf_api
FeatureSet
p2930
(dp2931
g12
(dp2932
S'posn'
p2933
S'230'
p2934
sS'name'
p2935
S'\xe0\xa4\xae\xe0\xa5\x81\xe0\xa4\xb2\xe0\xa4\xbe\xe0\xa4\x95\xe0\xa4\xbe\xe0\xa4\xa4'
p2936
sS'af'
p2937
S'\xe0\xa4\xae\xe0\xa5\x81\xe0\xa4\xb2\xe0\xa4\xbe\xe0\xa4\x95\xe0\xa4\xbe\xe0\xa4\xa4,n,f,sg,3,d,0,0'
p2938
sS'chunkid'
p2939
S'NP7'
p2940
sS'drel'
p2941
S'pof:VGF2'
p2942
sS'chunktype'
p2943
S'head:NP7'
p2944
ssbsg34
I00
sg35
I00
sg36
Nsg37
Nsg38
I8
sg39
I6
sg40
Nsg41
Nsg42
S'NN'
p2945
sg44
g2930
sg45
I00
sba(issf_api
Word
p2946
(dp2947
g6
I00
sg7
V\u0915\u0940
p2948
sg9
(issf_api
FeatureSet
p2949
(dp2950
g12
(dp2951
S'posn'
p2952
S'240'
p2953
sS'name'
p2954
S'\xe0\xa4\x95\xe0\xa5\x80'
p2955
sS'af'
p2956
S'\xe0\xa4\x95\xe0\xa4\xb0,v,f,sg,any,,\xe0\xa4\xaf\xe0\xa4\xbe_\xe0\xa4\xa5\xe0\xa4\xbe,yA'
p2957
sS'chunkid'
p2958
S'VGF2'
p2959
sS'stype'
p2960
S'declarative'
p2961
sS'drel'
p2962
S'ccof:CCP'
p2963
sS'voicetype'
p2964
S'active'
p2965
sS'vpos'
p2966
S'tam_2'
p2967
sS'chunktype'
p2968
S'head:VGF2'
p2969
ssbsg34
I00
sg35
I00
sg36
Nsg37
Nsg38
I9
sg39
I6
sg40
Nsg41
Nsg42
S'VM'
p2970
sg44
g2949
sg45
I00
sba(issf_api
Word
p2971
(dp2972
g6
I00
sg7
V\u0925\u0940
p2973
sg9
(issf_api
FeatureSet
p2974
(dp2975
g12
(dp2976
S'posn'
p2977
S'250'
p2978
sS'name'
p2979
S'\xe0\xa4\xa5\xe0\xa5\x80'
p2980
sS'drel'
p2981
S'lwg__vaux:VGF2'
p2982
sS'chunktype'
p2983
S'child:VGF2'
p2984
sS'af'
p2985
S'\xe0\xa4\xa5\xe0\xa4\xbe,v,f,sg,any,,\xe0\xa4\xa5\xe0\xa4\xbe,WA'
p2986
ssbsg34
I00
sg35
I00
sg36
Nsg37
Nsg38
I9
sg39
I6
sg40
Nsg41
Nsg42
S'VAUX'
p2987
sg44
g2974
sg45
I00
sba(issf_api
Word
p2988
(dp2989
g6
I00
sg7
V\u0964
p2990
sg9
(issf_api
FeatureSet
p2991
(dp2992
g12
(dp2993
S'posn'
p2994
S'260'
p2995
sS'name'
p2996
S'\xe0\xa5\xa4'
p2997
sS'af'
p2998
S'\xe0\xa5\xa4,punc,,,,,,'
p2999
sS'chunkid'
p3000
S'BLK'
p3001
sS'drel'
p3002
S'rsym:VGF'
p3003
sS'chunktype'
p3004
S'head:BLK'
p3005
ssbsg34
I00
sg35
I00
sg36
Nsg37
Nsg38
I10
sg39
I6
sg40
Nsg41
Nsg42
S'SYM'
p3006
sg44
g2991
sg45
I00
sba(issf_api
Word
p3007
(dp3008
g6
I00
sg7
V\u0906\u0928\u0902\u0926
p3009
sg9
(issf_api
FeatureSet
p3010
(dp3011
g12
(dp3012
S'posn'
p3013
S'10'
p3014
sS'name'
p3015
S'\xe0\xa4\x86\xe0\xa4\xa8\xe0\xa4\x82\xe0\xa4\xa6'
p3016
sS'af'
p3017
S'\xe0\xa4\x86\xe0\xa4\xa8\xe0\xa4\x82\xe0\xa4\xa6,n,m,sg,3,d,0,0'
p3018
sS'drel'
p3019
S'pof__cn:NP'
p3020
sS'chunktype'
p3021
S'child:NP'
p3022
sS'cref'
p3023
S'i28%0:t7'
p3024
ssbsg34
I00
sg35
I00
sg36
Nsg37
Nsg38
I0
sg39
I7
sg40
Nsg41
Nsg42
S'NNPC'
p3025
sg44
g3010
sg45
I00
sba(issf_api
Word
p3026
(dp3027
g6
I00
sg7
V\u0936\u0930\u094d\u092e\u093e
p3028
sg9
(issf_api
FeatureSet
p3029
(dp3030
g12
(dp3031
S'crefhead'
p3032
S'\xe0\xa4\xb6\xe0\xa4\xb0\xe0\xa5\x8d\xe0\xa4\xae\xe0\xa4\xbe:i28'
p3033
sS'posn'
p3034
S'20'
p3035
sS'name'
p3036
S'\xe0\xa4\xb6\xe0\xa4\xb0\xe0\xa5\x8d\xe0\xa4\xae\xe0\xa4\xbe'
p3037
sS'af'
p3038
S'\xe0\xa4\xb6\xe0\xa4\xb0\xe0\xa5\x8d\xe0\xa4\xae\xe0\xa4\xbe,n,any,sg,3,o,0_\xe0\xa4\xa8\xe0\xa5\x87,0'
p3039
sS'chunkid'
p3040
S'NP'
p3041
sS'creftype'
p3042
S'Coreference-Noun-Noun:i22'
p3043
sS'chunktype'
p3044
S'head:NP'
p3045
sS'vpos'
p3046
S'vib_3'
p3047
sS'cref'
p3048
S'i28%1:t7'
p3049
sS'drel'
p3050
S'k1:VGF'
p3051
ssbsg34
I00
sg35
I00
sg36
Nsg37
Nsg38
I0
sg39
I7
sg40
Nsg41
Nsg42
S'NNP'
p3052
sg44
g3029
sg45
I00
sba(issf_api
Word
p3053
(dp3054
g6
I00
sg7
V\u0928\u0947
p3055
sg9
(issf_api
FeatureSet
p3056
(dp3057
g12
(dp3058
S'posn'
p3059
S'30'
p3060
sS'name'
p3061
S'\xe0\xa4\xa8\xe0\xa5\x87'
p3062
sS'drel'
p3063
S'lwg__psp:NP'
p3064
sS'chunktype'
p3065
S'child:NP'
p3066
sS'af'
p3067
S'\xe0\xa4\xa8\xe0\xa5\x87,psp,,,,,,'
p3068
ssbsg34
I00
sg35
I00
sg36
Nsg37
Nsg38
I0
sg39
I7
sg40
Nsg41
Nsg42
S'PSP'
p3069
sg44
g3056
sg45
I00
sba(issf_api
Word
p3070
(dp3071
g6
I00
sg7
V\u0915\u0939\u093e
p3072
sg9
(issf_api
FeatureSet
p3073
(dp3074
g12
(dp3075
S'posn'
p3076
S'40'
p3077
sS'name'
p3078
S'\xe0\xa4\x95\xe0\xa4\xb9\xe0\xa4\xbe'
p3079
sS'af'
p3080
S'\xe0\xa4\x95\xe0\xa4\xb9,v,m,sg,any,,\xe0\xa4\xaf\xe0\xa4\xbe,yA'
p3081
sS'chunkid'
p3082
S'VGF'
p3083
sS'chunktype'
p3084
S'head:VGF'
p3085
sS'voicetype'
p3086
S'active'
p3087
sS'stype'
p3088
S'declarative'
p3089
ssbsg34
I00
sg35
I00
sg36
Nsg37
Nsg38
I1
sg39
I7
sg40
Nsg41
Nsg42
S'VM'
p3090
sg44
g3073
sg45
I00
sba(issf_api
Word
p3091
(dp3092
g6
I00
sg7
V\u0915\u093f
p3093
sg9
(issf_api
FeatureSet
p3094
(dp3095
g12
(dp3096
S'posn'
p3097
S'50'
p3098
sS'name'
p3099
S'\xe0\xa4\x95\xe0\xa4\xbf'
p3100
sS'af'
p3101
S'\xe0\xa4\x95\xe0\xa4\xbf,avy,,,,,,'
p3102
sS'chunkid'
p3103
S'CCP'
p3104
sS'drel'
p3105
S'k2:VGF'
p3106
sS'chunktype'
p3107
S'head:CCP'
p3108
ssbsg34
I00
sg35
I00
sg36
Nsg37
Nsg38
I2
sg39
I7
sg40
Nsg41
Nsg42
S'CC'
p3109
sg44
g3094
sg45
I00
sba(issf_api
Word
p3110
(dp3111
g6
I00
sg7
V\u0907\u0938
p3112
sg9
(issf_api
FeatureSet
p3113
(dp3114
g12
(dp3115
S'posn'
p3116
S'60'
p3117
sS'name'
p3118
S'\xe0\xa4\x87\xe0\xa4\xb8'
p3119
sS'drel'
p3120
S'nmod__adj:NP2'
p3121
sS'chunktype'
p3122
S'child:NP2'
p3123
sS'af'
p3124
S'\xe0\xa4\xaf\xe0\xa4\xb9,pn,any,sg,3,o,,'
p3125
ssbsg34
I00
sg35
I00
sg36
Nsg37
Nsg38
I3
sg39
I7
sg40
Nsg41
Nsg42
S'DEM'
p3126
sg44
g3113
sg45
I00
sba(issf_api
Word
p3127
(dp3128
g6
I00
sg7
V\u0916\u092c\u0930
p3129
sg9
(issf_api
FeatureSet
p3130
(dp3131
g12
(dp3132
S'posn'
p3133
S'70'
p3134
sS'name'
p3135
S'\xe0\xa4\x96\xe0\xa4\xac\xe0\xa4\xb0'
p3136
sS'af'
p3137
S'\xe0\xa4\x96\xe0\xa4\xac\xe0\xa4\xb0,n,f,sg,3,o,0_\xe0\xa4\xae\xe0\xa5\x87\xe0\xa4\x82,0'
p3138
sS'chunkid'
p3139
S'NP2'
p3140
sS'drel'
p3141
S'k7:VGF2'
p3142
sS'vpos'
p3143
S'vib_3'
p3144
sS'chunktype'
p3145
S'head:NP2'
p3146
ssbsg34
I00
sg35
I00
sg36
Nsg37
Nsg38
I3
sg39
I7
sg40
Nsg41
Nsg42
S'NN'
p3147
sg44
g3130
sg45
I00
sba(issf_api
Word
p3148
(dp3149
g6
I00
sg7
V\u092e\u0947\u0902
p3150
sg9
(issf_api
FeatureSet
p3151
(dp3152
g12
(dp3153
S'posn'
p3154
S'80'
p3155
sS'name'
p3156
S'\xe0\xa4\xae\xe0\xa5\x87\xe0\xa4\x82'
p3157
sS'drel'
p3158
S'lwg__psp:NP2'
p3159
sS'chunktype'
p3160
S'child:NP2'
p3161
sS'af'
p3162
S'\xe0\xa4\xae\xe0\xa5\x87\xe0\xa4\x82,psp,,,,,,'
p3163
ssbsg34
I00
sg35
I00
sg36
Nsg37
Nsg38
I3
sg39
I7
sg40
Nsg41
Nsg42
S'PSP'
p3164
sg44
g3151
sg45
I00
sba(issf_api
Word
p3165
(dp3166
g6
I00
sg7
V\u0915\u094b\u0908
p3167
sg9
(issf_api
FeatureSet
p3168
(dp3169
g12
(dp3170
S'crefhead'
p3171
S'\xe0\xa4\x95\xe0\xa5\x8b\xe0\xa4\x88:i29'
p3172
sS'posn'
p3173
S'90'
p3174
sS'name'
p3175
S'\xe0\xa4\x95\xe0\xa5\x8b\xe0\xa4\x88'
p3176
sS'af'
p3177
S'\xe0\xa4\x95\xe0\xa5\x8b\xe0\xa4\x88,pn,any,sg,3,d,0,0'
p3178
sS'drel'
p3179
S'nmod__adj:NP3'
p3180
sS'crefchainhead'
p3181
S'i29:t10'
p3182
sS'chunktype'
p3183
S'child:NP3'
p3184
sS'cref'
p3185
S'i29%1:t10'
p3186
ssbsg34
I00
sg35
I00
sg36
Nsg37
Nsg38
I4
sg39
I7
sg40
Nsg41
Nsg42
S'PRP'
p3187
sg44
g3168
sg45
I00
sba(issf_api
Word
p3188
(dp3189
g6
I00
sg7
V\u0938\u091a\u094d\u091a\u093e\u0908
p3190
sg9
(issf_api
FeatureSet
p3191
(dp3192
g12
(dp3193
S'posn'
p3194
S'100'
p3195
sS'name'
p3196
S'\xe0\xa4\xb8\xe0\xa4\x9a\xe0\xa5\x8d\xe0\xa4\x9a\xe0\xa4\xbe\xe0\xa4\x88'
p3197
sS'af'
p3198
S'\xe0\xa4\xb8\xe0\xa4\x9a\xe0\xa5\x8d\xe0\xa4\x9a\xe0\xa4\xbe\xe0\xa4\x88,n,f,sg,3,d,0,0'
p3199
sS'chunkid'
p3200
S'NP3'
p3201
sS'drel'
p3202
S'k1:VGF2'
p3203
sS'chunktype'
p3204
S'head:NP3'
p3205
ssbsg34
I00
sg35
I00
sg36
Nsg37
Nsg38
I4
sg39
I7
sg40
Nsg41
Nsg42
S'NN'
p3206
sg44
g3191
sg45
I00
sba(issf_api
Word
p3207
(dp3208
g6
I00
sg7
V\u0928\u0939\u0940\u0902
p3209
sg9
(issf_api
FeatureSet
p3210
(dp3211
g12
(dp3212
S'posn'
p3213
S'110'
p3214
sS'name'
p3215
S'\xe0\xa4\xa8\xe0\xa4\xb9\xe0\xa5\x80\xe0\xa4\x82'
p3216
sS'drel'
p3217
S'lwg__neg:VGF2'
p3218
sS'chunktype'
p3219
S'child:VGF2'
p3220
sS'af'
p3221
S'\xe0\xa4\xa8\xe0\xa4\xb9\xe0\xa5\x80\xe0\xa4\x82,avy,,,,,,'
p3222
ssbsg34
I00
sg35
I00
sg36
Nsg37
Nsg38
I5
sg39
I7
sg40
Nsg41
Nsg42
S'NEG'
p3223
sg44
g3210
sg45
I00
sba(issf_api
Word
p3224
(dp3225
g6
I00
sg7
V\u0939\u0948
p3226
sg9
(issf_api
FeatureSet
p3227
(dp3228
g12
(dp3229
S'posn'
p3230
S'120'
p3231
sS'name'
p3232
S'\xe0\xa4\xb9\xe0\xa5\x88'
p3233
sS'af'
p3234
S'\xe0\xa4\xb9\xe0\xa5\x88,v,any,sg,3,,\xe0\xa4\xb9\xe0\xa5\x88,hE'
p3235
sS'chunkid'
p3236
S'VGF2'
p3237
sS'stype'
p3238
S'declarative'
p3239
sS'drel'
p3240
S'ccof:CCP'
p3241
sS'voicetype'
p3242
S'active'
p3243
sS'chunktype'
p3244
S'head:VGF2'
p3245
ssbsg34
I00
sg35
I00
sg36
Nsg37
Nsg38
I5
sg39
I7
sg40
Nsg41
Nsg42
S'VM'
p3246
sg44
g3227
sg45
I00
sba(issf_api
Word
p3247
(dp3248
g6
I00
sg7
V\u0964
p3249
sg9
(issf_api
FeatureSet
p3250
(dp3251
g12
(dp3252
S'posn'
p3253
S'130'
p3254
sS'name'
p3255
S'\xe0\xa5\xa4'
p3256
sS'af'
p3257
S'\xe0\xa5\xa4,punc,,,,,,'
p3258
sS'chunkid'
p3259
S'BLK'
p3260
sS'drel'
p3261
S'rsym:VGF'
p3262
sS'chunktype'
p3263
S'head:BLK'
p3264
ssbsg34
I00
sg35
I00
sg36
Nsg37
Nsg38
I6
sg39
I7
sg40
Nsg41
Nsg42
S'SYM'
p3265
sg44
g3250
sg45
I00
sba(issf_api
Word
p3266
(dp3267
g6
I00
sg7
V\u0935\u094b\u0932\u094d\u0915\u0930
p3268
sg9
(issf_api
FeatureSet
p3269
(dp3270
g12
(dp3271
S'posn'
p3272
S'10'
p3273
sS'name'
p3274
S'\xe0\xa4\xb5\xe0\xa5\x8b\xe0\xa4\xb2\xe0\xa5\x8d\xe0\xa4\x95\xe0\xa4\xb0'
p3275
sS'drel'
p3276
S'nmod__adj:NP'
p3277
sS'chunktype'
p3278
S'child:NP'
p3279
sS'af'
p3280
S'\xe0\xa4\xb5\xe0\xa5\x8b\xe0\xa4\xb2\xe0\xa5\x8d\xe0\xa4\x95\xe0\xa4\xb0,n,m,sg,3,d,0,0'
p3281
ssbsg34
I00
sg35
I00
sg36
Nsg37
Nsg38
I0
sg39
I8
sg40
Nsg41
Nsg42
S'NNP'
p3282
sg44
g3269
sg45
I00
sba(issf_api
Word
p3283
(dp3284
g6
I00
sg7
V\u092e\u093e\u092e\u0932\u0947
p3285
sg9
(issf_api
FeatureSet
p3286
(dp3287
g12
(dp3288
S'posn'
p3289
S'20'
p3290
sS'name'
p3291
S'\xe0\xa4\xae\xe0\xa4\xbe\xe0\xa4\xae\xe0\xa4\xb2\xe0\xa5\x87'
p3292
sS'af'
p3293
S'\xe0\xa4\xae\xe0\xa4\xbe\xe0\xa4\xae\xe0\xa4\xb2\xe0\xa4\xbe,n,m,sg,3,o,0_\xe0\xa4\x95\xe0\xa4\xbe,0'
p3294
sS'chunkid'
p3295
S'NP'
p3296
sS'drel'
p3297
S'r6:NP2'
p3298
sS'vpos'
p3299
S'vib_vib_3'
p3300
sS'chunktype'
p3301
S'head:NP'
p3302
ssbsg34
I00
sg35
I00
sg36
Nsg37
Nsg38
I0
sg39
I8
sg40
Nsg41
Nsg42
S'NN'
p3303
sg44
g3286
sg45
I00
sba(issf_api
Word
p3304
(dp3305
g6
I00
sg7
V\u0915\u0940
p3306
sg9
(issf_api
FeatureSet
p3307
(dp3308
g12
(dp3309
S'posn'
p3310
S'30'
p3311
sS'name'
p3312
S'\xe0\xa4\x95\xe0\xa5\x80'
p3313
sS'drel'
p3314
S'lwg__psp:NP'
p3315
sS'chunktype'
p3316
S'child:NP'
p3317
sS'af'
p3318
S'\xe0\xa4\x95\xe0\xa4\xbe,psp,f,sg,,d,,'
p3319
ssbsg34
I00
sg35
I00
sg36
Nsg37
Nsg38
I0
sg39
I8
sg40
Nsg41
Nsg42
S'PSP'
p3320
sg44
g3307
sg45
I00
sba(issf_api
Word
p3321
(dp3322
g6
I00
sg7
V\u091c\u093e\u0901\u091a
p3323
sg9
(issf_api
FeatureSet
p3324
(dp3325
g12
(dp3326
S'posn'
p3327
S'40'
p3328
sS'name'
p3329
S'\xe0\xa4\x9c\xe0\xa4\xbe\xe0\xa4\x81\xe0\xa4\x9a'
p3330
sS'af'
p3331
S'\xe0\xa4\x9c\xe0\xa4\xbe\xe0\xa4\x81\xe0\xa4\x9a,n,f,sg,3,d,0,0'
p3332
sS'chunkid'
p3333
S'NP2'
p3334
sS'drel'
p3335
S'pof:VGNF'
p3336
sS'chunktype'
p3337
S'head:NP2'
p3338
ssbsg34
I00
sg35
I00
sg36
Nsg37
Nsg38
I1
sg39
I8
sg40
Nsg41
Nsg42
S'NN'
p3339
sg44
g3324
sg45
I00
sba(issf_api
Word
p3340
(dp3341
g6
I00
sg7
V\u0915\u0930
p3342
sg9
(issf_api
FeatureSet
p3343
(dp3344
g12
(dp3345
S'posn'
p3346
S'50'
p3347
sS'name'
p3348
S'\xe0\xa4\x95\xe0\xa4\xb0'
p3349
sS'af'
p3350
S'\xe0\xa4\x95\xe0\xa4\xb0,v,any,sg,any,,0_\xe0\xa4\xb0\xe0\xa4\xb9+\xe0\xa4\xaf\xe0\xa4\xbe,0'
p3351
sS'chunkid'
p3352
S'VGNF'
p3353
sS'drel'
p3354
S'nmod__k1inv:NP3'
p3355
sS'vpos'
p3356
S'tam_2'
p3357
sS'chunktype'
p3358
S'head:VGNF'
p3359
ssbsg34
I00
sg35
I00
sg36
Nsg37
Nsg38
I2
sg39
I8
sg40
Nsg41
Nsg42
S'VM'
p3360
sg44
g3343
sg45
I00
sba(issf_api
Word
p3361
(dp3362
g6
I00
sg7
V\u0930\u0939\u0947
p3363
sg9
(issf_api
FeatureSet
p3364
(dp3365
g12
(dp3366
S'posn'
p3367
S'60'
p3368
sS'name'
p3369
S'\xe0\xa4\xb0\xe0\xa4\xb9\xe0\xa5\x87'
p3370
sS'drel'
p3371
S'lwg__vaux:VGNF'
p3372
sS'chunktype'
p3373
S'child:VGNF'
p3374
sS'af'
p3375
S'\xe0\xa4\xb0\xe0\xa4\xb9,v,m,sg,any,,\xe0\xa4\xaf\xe0\xa4\xbe,yA'
p3376
ssbsg34
I00
sg35
I00
sg36
Nsg37
Nsg38
I2
sg39
I8
sg40
Nsg41
Nsg42
S'VAUX'
p3377
sg44
g3364
sg45
I00
sba(issf_api
Word
p3378
(dp3379
g6
I00
sg7
V\u092a\u094d\u0930\u0935\u0930\u094d\u0924\u0928
p3380
sg9
(issf_api
FeatureSet
p3381
(dp3382
g12
(dp3383
S'posn'
p3384
S'70'
p3385
sS'name'
p3386
S'\xe0\xa4\xaa\xe0\xa5\x8d\xe0\xa4\xb0\xe0\xa4\xb5\xe0\xa4\xb0\xe0\xa5\x8d\xe0\xa4\xa4\xe0\xa4\xa8'
p3387
sS'af'
p3388
S'\xe0\xa4\xaa\xe0\xa5\x8d\xe0\xa4\xb0\xe0\xa4\xb5\xe0\xa4\xb0\xe0\xa5\x8d\xe0\xa4\xa4\xe0\xa4\xa8,n,m,sg,3,d,0,0'
p3389
sS'drel'
p3390
S'pof__cn:NP3'
p3391
sS'chunktype'
p3392
S'child:NP3'
p3393
sS'cref'
p3394
S'i30%0:t8'
p3395
ssbsg34
I00
sg35
I00
sg36
Nsg37
Nsg38
I3
sg39
I8
sg40
Nsg41
Nsg42
S'NNPC'
p3396
sg44
g3381
sg45
I00
sba(issf_api
Word
p3397
(dp3398
g6
I00
sg7
V\u0928\u093f\u0926\u0947\u0936\u093e\u0932\u092f
p3399
sg9
(issf_api
FeatureSet
p3400
(dp3401
g12
(dp3402
S'crefhead'
p3403
S'\xe0\xa4\xa8\xe0\xa4\xbf\xe0\xa4\xa6\xe0\xa5\x87\xe0\xa4\xb6\xe0\xa4\xbe\xe0\xa4\xb2\xe0\xa4\xaf:i30'
p3404
sS'posn'
p3405
S'80'
p3406
sS'name'
p3407
S'\xe0\xa4\xa8\xe0\xa4\xbf\xe0\xa4\xa6\xe0\xa5\x87\xe0\xa4\xb6\xe0\xa4\xbe\xe0\xa4\xb2\xe0\xa4\xaf'
p3408
sS'af'
p3409
S'\xe0\xa4\xa8\xe0\xa4\xbf\xe0\xa4\xa6\xe0\xa5\x87\xe0\xa4\xb6\xe0\xa4\xbe\xe0\xa4\xb2\xe0\xa4\xaf,n,m,sg,3,o,0_\xe0\xa4\x95\xe0\xa4\xbe,0'
p3410
sS'chunkid'
p3411
S'NP3'
p3412
sS'creftype'
p3413
S'Coreference-Identity:i23'
p3414
sS'chunktype'
p3415
S'head:NP3'
p3416
sS'vpos'
p3417
S'vib_3'
p3418
sS'cref'
p3419
S'i30%1:t8'
p3420
sS'drel'
p3421
S'r6:NP4'
p3422
ssbsg34
I00
sg35
I00
sg36
Nsg37
Nsg38
I3
sg39
I8
sg40
Nsg41
Nsg42
S'NN'
p3423
sg44
g3400
sg45
I00
sba(issf_api
Word
p3424
(dp3425
g6
I00
sg7
V\u0915\u0947
p3426
sg9
(issf_api
FeatureSet
p3427
(dp3428
g12
(dp3429
S'posn'
p3430
S'90'
p3431
sS'name'
p3432
S'\xe0\xa4\x95\xe0\xa5\x87'
p3433
sS'drel'
p3434
S'lwg__psp:NP3'
p3435
sS'chunktype'
p3436
S'child:NP3'
p3437
sS'af'
p3438
S'\xe0\xa4\x95\xe0\xa4\xbe,psp,m,sg,,o,,'
p3439
ssbsg34
I00
sg35
I00
sg36
Nsg37
Nsg38
I3
sg39
I8
sg40
Nsg41
Nsg42
S'PSP'
p3440
sg44
g3427
sg45
I00
sba(issf_api
Word
p3441
(dp3442
g6
I00
sg7
V\u0915\u093f\u0938\u0940
p3443
sg9
(issf_api
FeatureSet
p3444
(dp3445
g12
(dp3446
S'crefhead'
p3447
S'\xe0\xa4\x95\xe0\xa4\xbf\xe0\xa4\xb8\xe0\xa5\x80:i31'
p3448
sS'posn'
p3449
S'100'
p3450
sS'name'
p3451
S'\xe0\xa4\x95\xe0\xa4\xbf\xe0\xa4\xb8\xe0\xa5\x80'
p3452
sS'af'
p3453
S'\xe0\xa4\x95\xe0\xa5\x8b\xe0\xa4\x88,pn,any,sg,3,o,0,0'
p3454
sS'drel'
p3455
S'nmod__adj:NP4'
p3456
sS'crefchainhead'
p3457
S'i31:t11'
p3458
sS'chunktype'
p3459
S'child:NP4'
p3460
sS'cref'
p3461
S'i31%1:t11'
p3462
ssbsg34
I00
sg35
I00
sg36
Nsg37
Nsg38
I4
sg39
I8
sg40
Nsg41
Nsg42
S'PRP'
p3463
sg44
g3444
sg45
I00
sba(issf_api
Word
p3464
(dp3465
g6
I00
sg7
V\u0905\u092b\u0938\u0930
p3466
sg9
(issf_api
FeatureSet
p3467
(dp3468
g12
(dp3469
S'posn'
p3470
S'110'
p3471
sS'name'
p3472
S'\xe0\xa4\x85\xe0\xa4\xab\xe0\xa4\xb8\xe0\xa4\xb0'
p3473
sS'af'
p3474
S'\xe0\xa4\x85\xe0\xa4\xab\xe0\xa4\xb8\xe0\xa4\xb0,n,m,sg,3,o,0_\xe0\xa4\xa8\xe0\xa5\x87,0'
p3475
sS'chunkid'
p3476
S'NP4'
p3477
sS'drel'
p3478
S'k1:VGF'
p3479
sS'vpos'
p3480
S'vib_vib_3'
p3481
sS'chunktype'
p3482
S'head:NP4'
p3483
ssbsg34
I00
sg35
I00
sg36
Nsg37
Nsg38
I4
sg39
I8
sg40
Nsg41
Nsg42
S'NN'
p3484
sg44
g3467
sg45
I00
sba(issf_api
Word
p3485
(dp3486
g6
I00
sg7
V\u0928\u0947
p3487
sg9
(issf_api
FeatureSet
p3488
(dp3489
g12
(dp3490
S'posn'
p3491
S'120'
p3492
sS'name'
p3493
S'\xe0\xa4\xa8\xe0\xa5\x87'
p3494
sS'drel'
p3495
S'lwg__psp:NP4'
p3496
sS'chunktype'
p3497
S'child:NP4'
p3498
sS'af'
p3499
S'\xe0\xa4\xa8\xe0\xa5\x87,psp,,,,,,'
p3500
ssbsg34
I00
sg35
I00
sg36
Nsg37
Nsg38
I4
sg39
I8
sg40
Nsg41
Nsg42
S'PSP'
p3501
sg44
g3488
sg45
I00
sba(issf_api
Word
p3502
(dp3503
g6
I00
sg7
V\u0915\u093e\u0902\u0917\u094d\u0930\u0947\u0938
p3504
sg9
(issf_api
FeatureSet
p3505
(dp3506
g12
(dp3507
S'crefhead'
p3508
S'\xe0\xa4\x95\xe0\xa4\xbe\xe0\xa4\x82\xe0\xa4\x97\xe0\xa5\x8d\xe0\xa4\xb0\xe0\xa5\x87\xe0\xa4\xb8:i32'
p3509
sS'posn'
p3510
S'130'
p3511
sS'name'
p3512
S'\xe0\xa4\x95\xe0\xa4\xbe\xe0\xa4\x82\xe0\xa4\x97\xe0\xa5\x8d\xe0\xa4\xb0\xe0\xa5\x87\xe0\xa4\xb8'
p3513
sS'af'
p3514
S'\xe0\xa4\x95\xe0\xa4\xbe\xe0\xa4\x82\xe0\xa4\x97\xe0\xa5\x8d\xe0\xa4\xb0\xe0\xa5\x87\xe0\xa4\xb8,n,f,sg,3,d,0,0'
p3515
sS'creftype'
p3516
S'Coreference-Identity:i25'
p3517
sS'drel'
p3518
S'nmod__adj:NP5'
p3519
sS'chunktype'
p3520
S'child:NP5'
p3521
sS'cref'
p3522
S'i32%1:t1,i33%0:t3'
p3523
ssbsg34
I00
sg35
I00
sg36
Nsg37
Nsg38
I5
sg39
I8
sg40
Nsg41
Nsg42
S'NNP'
p3524
sg44
g3505
sg45
I00
sba(issf_api
Word
p3525
(dp3526
g6
I00
sg7
V\u0905\u0927\u094d\u092f\u0915\u094d\u0937
p3527
sg9
(issf_api
FeatureSet
p3528
(dp3529
g12
(dp3530
S'crefhead'
p3531
S'\xe0\xa4\x85\xe0\xa4\xa7\xe0\xa5\x8d\xe0\xa4\xaf\xe0\xa4\x95\xe0\xa5\x8d\xe0\xa4\xb7:i33'
p3532
sS'posn'
p3533
S'140'
p3534
sS'name'
p3535
S'\xe0\xa4\x85\xe0\xa4\xa7\xe0\xa5\x8d\xe0\xa4\xaf\xe0\xa4\x95\xe0\xa5\x8d\xe0\xa4\xb7'
p3536
sS'af'
p3537
S'\xe0\xa4\x85\xe0\xa4\xa7\xe0\xa5\x8d\xe0\xa4\xaf\xe0\xa4\x95\xe0\xa5\x8d\xe0\xa4\xb7,n,f,sg,3,o,0_\xe0\xa4\xb8\xe0\xa5\x87,0'
p3538
sS'chunkid'
p3539
S'NP5'
p3540
sS'creftype'
p3541
S'Coreference-Identity:i26'
p3542
sS'chunktype'
p3543
S'head:NP5'
p3544
sS'vpos'
p3545
S'vib_vib_3'
p3546
sS'cref'
p3547
S'i33%1:t3'
p3548
sS'drel'
p3549
S'k4:VGF'
p3550
ssbsg34
I00
sg35
I00
sg36
Nsg37
Nsg38
I5
sg39
I8
sg40
Nsg41
Nsg42
S'NN'
p3551
sg44
g3528
sg45
I00
sba(issf_api
Word
p3552
(dp3553
g6
I00
sg7
V\u0938\u0947
p3554
sg9
(issf_api
FeatureSet
p3555
(dp3556
g12
(dp3557
S'posn'
p3558
S'150'
p3559
sS'name'
p3560
S'\xe0\xa4\xb8\xe0\xa5\x87'
p3561
sS'drel'
p3562
S'lwg__psp:NP5'
p3563
sS'chunktype'
p3564
S'child:NP5'
p3565
sS'af'
p3566
S'\xe0\xa4\xb8\xe0\xa5\x87,psp,,,,,,'
p3567
ssbsg34
I00
sg35
I00
sg36
Nsg37
Nsg38
I5
sg39
I8
sg40
Nsg41
Nsg42
S'PSP'
p3568
sg44
g3555
sg45
I00
sba(issf_api
Word
p3569
(dp3570
g6
I00
sg7
V\u0915\u094b\u0908
p3571
sg9
(issf_api
FeatureSet
p3572
(dp3573
g12
(dp3574
S'crefhead'
p3575
S'\xe0\xa4\x95\xe0\xa5\x8b\xe0\xa4\x88:i34'
p3576
sS'posn'
p3577
S'160'
p3578
sS'name'
p3579
S'\xe0\xa4\x95\xe0\xa5\x8b\xe0\xa4\x88'
p3580
sS'af'
p3581
S'\xe0\xa4\x95\xe0\xa5\x8b\xe0\xa4\x88,pn,any,sg,3,d,0,0'
p3582
sS'drel'
p3583
S'nmod__adj:NP6'
p3584
sS'crefchainhead'
p3585
S'i34:t12'
p3586
sS'chunktype'
p3587
S'child:NP6'
p3588
sS'cref'
p3589
S'i34%1:t12'
p3590
ssbsg34
I00
sg35
I00
sg36
Nsg37
Nsg38
I6
sg39
I8
sg40
Nsg41
Nsg42
S'PRP'
p3591
sg44
g3572
sg45
I00
sba(issf_api
Word
p3592
(dp3593
g6
I00
sg7
V\u092e\u0941\u0932\u093e\u0915\u093e\u0924
p3594
sg9
(issf_api
FeatureSet
p3595
(dp3596
g12
(dp3597
S'posn'
p3598
S'170'
p3599
sS'name'
p3600
S'\xe0\xa4\xae\xe0\xa5\x81\xe0\xa4\xb2\xe0\xa4\xbe\xe0\xa4\x95\xe0\xa4\xbe\xe0\xa4\xa4'
p3601
sS'af'
p3602
S'\xe0\xa4\xae\xe0\xa5\x81\xe0\xa4\xb2\xe0\xa4\xbe\xe0\xa4\x95\xe0\xa4\xbe\xe0\xa4\xa4,n,f,sg,3,d,0,0'
p3603
sS'chunkid'
p3604
S'NP6'
p3605
sS'drel'
p3606
S'k2:VGF'
p3607
sS'chunktype'
p3608
S'head:NP6'
p3609
ssbsg34
I00
sg35
I00
sg36
Nsg37
Nsg38
I6
sg39
I8
sg40
Nsg41
Nsg42
S'NN'
p3610
sg44
g3595
sg45
I00
sba(issf_api
Word
p3611
(dp3612
g6
I00
sg7
V\u0928\u0939\u0940\u0902
p3613
sg9
(issf_api
FeatureSet
p3614
(dp3615
g12
(dp3616
S'posn'
p3617
S'180'
p3618
sS'name'
p3619
S'\xe0\xa4\xa8\xe0\xa4\xb9\xe0\xa5\x80\xe0\xa4\x82'
p3620
sS'drel'
p3621
S'lwg__neg:VGF'
p3622
sS'chunktype'
p3623
S'child:VGF'
p3624
sS'af'
p3625
S'\xe0\xa4\xa8\xe0\xa4\xb9\xe0\xa5\x80\xe0\xa4\x82,avy,,,,,,'
p3626
ssbsg34
I00
sg35
I00
sg36
Nsg37
Nsg38
I7
sg39
I8
sg40
Nsg41
Nsg42
S'NEG'
p3627
sg44
g3614
sg45
I00
sba(issf_api
Word
p3628
(dp3629
g6
I00
sg7
V\u0915\u0940
p3630
sg9
(issf_api
FeatureSet
p3631
(dp3632
g12
(dp3633
S'posn'
p3634
S'190'
p3635
sS'name'
p3636
S'\xe0\xa4\x95\xe0\xa5\x802'
p3637
sS'af'
p3638
S'\xe0\xa4\x95\xe0\xa4\xb0,v,f,sg,3,,\xe0\xa4\xaf\xe0\xa4\xbe_\xe0\xa4\xb9\xe0\xa5\x88,yA'
p3639
sS'chunkid'
p3640
S'VGF'
p3641
sS'chunktype'
p3642
S'head:VGF'
p3643
sS'voicetype'
p3644
S'active'
p3645
sS'vpos'
p3646
S'tam_3'
p3647
sS'stype'
p3648
S'declarative'
p3649
ssbsg34
I00
sg35
I00
sg36
Nsg37
Nsg38
I7
sg39
I8
sg40
Nsg41
Nsg42
S'VM'
p3650
sg44
g3631
sg45
I00
sba(issf_api
Word
p3651
(dp3652
g6
I00
sg7
V\u0939\u0948
p3653
sg9
(issf_api
FeatureSet
p3654
(dp3655
g12
(dp3656
S'posn'
p3657
S'200'
p3658
sS'name'
p3659
S'\xe0\xa4\xb9\xe0\xa5\x88'
p3660
sS'drel'
p3661
S'lwg__vaux:VGF'
p3662
sS'chunktype'
p3663
S'child:VGF'
p3664
sS'af'
p3665
S'\xe0\xa4\xb9\xe0\xa5\x88,v,any,sg,3,,\xe0\xa4\xb9\xe0\xa5\x88,hE'
p3666
ssbsg34
I00
sg35
I00
sg36
Nsg37
Nsg38
I7
sg39
I8
sg40
Nsg41
Nsg42
S'VAUX'
p3667
sg44
g3654
sg45
I00
sba(issf_api
Word
p3668
(dp3669
g6
I00
sg7
V\u0964
p3670
sg9
(issf_api
FeatureSet
p3671
(dp3672
g12
(dp3673
S'posn'
p3674
S'210'
p3675
sS'name'
p3676
S'\xe0\xa5\xa4'
p3677
sS'af'
p3678
S'\xe0\xa5\xa4,punc,,,,,,'
p3679
sS'chunkid'
p3680
S'BLK'
p3681
sS'drel'
p3682
S'rsym:VGF'
p3683
sS'chunktype'
p3684
S'head:BLK'
p3685
ssbsg34
I00
sg35
I00
sg36
Nsg37
Nsg38
I8
sg39
I8
sg40
Nsg41
Nsg42
S'SYM'
p3686
sg44
g3671
sg45
I00
sba(issf_api
Word
p3687
(dp3688
g6
I00
sg7
V\u0968\u096e
p3689
sg9
(issf_api
FeatureSet
p3690
(dp3691
g12
(dp3692
S'posn'
p3693
S'10'
p3694
sS'name'
p3695
S'\xe0\xa5\xa8\xe0\xa5\xae'
p3696
sS'drel'
p3697
S'pof__cn:NP'
p3698
sS'chunktype'
p3699
S'child:NP'
p3700
sS'af'
p3701
S'\xe0\xa5\xa8\xe0\xa5\xae,n,any,sg,3,d,0,0'
p3702
ssbsg34
I00
sg35
I00
sg36
Nsg37
Nsg38
I0
sg39
I9
sg40
Nsg41
Nsg42
S'NNPC'
p3703
sg44
g3690
sg45
I00
sba(issf_api
Word
p3704
(dp3705
g6
I00
sg7
V\u0926\u093f\u0938\u0902\u092c\u0930
p3706
sg9
(issf_api
FeatureSet
p3707
(dp3708
g12
(dp3709
S'posn'
p3710
S'20'
p3711
sS'name'
p3712
S'\xe0\xa4\xa6\xe0\xa4\xbf\xe0\xa4\xb8\xe0\xa4\x82\xe0\xa4\xac\xe0\xa4\xb0'
p3713
sS'af'
p3714
S'\xe0\xa4\xa6\xe0\xa4\xbf\xe0\xa4\xb8\xe0\xa4\x82\xe0\xa4\xac\xe0\xa4\xb0,n,m,sg,3,o,0_\xe0\xa4\x95\xe0\xa5\x8b,0'
p3715
sS'chunkid'
p3716
S'NP'
p3717
sS'drel'
p3718
S'k7t:VGNF'
p3719
sS'vpos'
p3720
S'vib_3'
p3721
sS'chunktype'
p3722
S'head:NP'
p3723
ssbsg34
I00
sg35
I00
sg36
Nsg37
Nsg38
I0
sg39
I9
sg40
Nsg41
Nsg42
S'NNP'
p3724
sg44
g3707
sg45
I00
sba(issf_api
Word
p3725
(dp3726
g6
I00
sg7
V\u0915\u094b
p3727
sg9
(issf_api
FeatureSet
p3728
(dp3729
g12
(dp3730
S'posn'
p3731
S'30'
p3732
sS'name'
p3733
S'\xe0\xa4\x95\xe0\xa5\x8b'
p3734
sS'drel'
p3735
S'lwg__psp:NP'
p3736
sS'chunktype'
p3737
S'child:NP'
p3738
sS'af'
p3739
S'\xe0\xa4\x95\xe0\xa5\x8b,psp,,,,,,'
p3740
ssbsg34
I00
sg35
I00
sg36
Nsg37
Nsg38
I0
sg39
I9
sg40
Nsg41
Nsg42
S'PSP'
p3741
sg44
g3728
sg45
I00
sba(issf_api
Word
p3742
(dp3743
g6
I00
sg7
V\u092a\u093e\u0930\u094d\u091f\u0940
p3744
sg9
(issf_api
FeatureSet
p3745
(dp3746
g12
(dp3747
S'crefhead'
p3748
S'\xe0\xa4\xaa\xe0\xa4\xbe\xe0\xa4\xb0\xe0\xa5\x8d\xe0\xa4\x9f\xe0\xa5\x80:i35'
p3749
sS'posn'
p3750
S'40'
p3751
sS'name'
p3752
S'\xe0\xa4\xaa\xe0\xa4\xbe\xe0\xa4\xb0\xe0\xa5\x8d\xe0\xa4\x9f\xe0\xa5\x80'
p3753
sS'af'
p3754
S'\xe0\xa4\xaa\xe0\xa4\xbe\xe0\xa4\xb0\xe0\xa5\x8d\xe0\xa4\x9f\xe0\xa5\x80,n,f,sg,3,o,0_\xe0\xa4\x95\xe0\xa4\xbe,0'
p3755
sS'chunkid'
p3756
S'NP2'
p3757
sS'creftype'
p3758
S'Coreference-Noun-Noun:i32'
p3759
sS'chunktype'
p3760
S'head:NP2'
p3761
sS'vpos'
p3762
S'vib_2'
p3763
sS'cref'
p3764
S'i35%1:t1'
p3765
sS'drel'
p3766
S'r6:NP3'
p3767
ssbsg34
I00
sg35
I00
sg36
Nsg37
Nsg38
I1
sg39
I9
sg40
Nsg41
Nsg42
S'NN'
p3768
sg44
g3745
sg45
I00
sba(issf_api
Word
p3769
(dp3770
g6
I00
sg7
V\u0915\u0947
p3771
sg9
(issf_api
FeatureSet
p3772
(dp3773
g12
(dp3774
S'posn'
p3775
S'50'
p3776
sS'name'
p3777
S'\xe0\xa4\x95\xe0\xa5\x87'
p3778
sS'drel'
p3779
S'lwg__psp:NP2'
p3780
sS'chunktype'
p3781
S'child:NP2'
p3782
sS'af'
p3783
S'\xe0\xa4\x95\xe0\xa4\xbe,psp,m,sg,,o,,'
p3784
ssbsg34
I00
sg35
I00
sg36
Nsg37
Nsg38
I1
sg39
I9
sg40
Nsg41
Nsg42
S'PSP'
p3785
sg44
g3772
sg45
I00
sba(issf_api
Word
p3786
(dp3787
g6
I00
sg7
V\u0967\u0968\u0966\u0935\u0947\u0902
p3788
sg9
(issf_api
FeatureSet
p3789
(dp3790
g12
(dp3791
S'posn'
p3792
S'60'
p3793
sS'name'
p3794
S'\xe0\xa5\xa7\xe0\xa5\xa8\xe0\xa5\xa6\xe0\xa4\xb5\xe0\xa5\x87\xe0\xa4\x82'
p3795
sS'drel'
p3796
S'nmod__adj:NP3'
p3797
sS'chunktype'
p3798
S'child:NP3'
p3799
sS'af'
p3800
S'\xe0\xa5\xa7\xe0\xa5\xa8\xe0\xa5\xa6\xe0\xa4\xb5\xe0\xa4\xbe\xe0\xa4\x81,num,m,sg,,o,,'
p3801
ssbsg34
I00
sg35
I00
sg36
Nsg37
Nsg38
I2
sg39
I9
sg40
Nsg41
Nsg42
S'QO'
p3802
sg44
g3789
sg45
I00
sba(issf_api
Word
p3803
(dp3804
g6
I00
sg7
V\u0938\u094d\u0925\u093e\u092a\u0928\u093e
p3805
sg9
(issf_api
FeatureSet
p3806
(dp3807
g12
(dp3808
S'posn'
p3809
S'70'
p3810
sS'name'
p3811
S'\xe0\xa4\xb8\xe0\xa5\x8d\xe0\xa4\xa5\xe0\xa4\xbe\xe0\xa4\xaa\xe0\xa4\xa8\xe0\xa4\xbe'
p3812
sS'drel'
p3813
S'pof__cn:NP3'
p3814
sS'chunktype'
p3815
S'child:NP3'
p3816
sS'af'
p3817
S'\xe0\xa4\xb8\xe0\xa5\x8d\xe0\xa4\xa5\xe0\xa4\xbe\xe0\xa4\xaa\xe0\xa4\xa8\xe0\xa4\xbe,n,f,sg,3,d,0,0'
p3818
ssbsg34
I00
sg35
I00
sg36
Nsg37
Nsg38
I2
sg39
I9
sg40
Nsg41
Nsg42
S'NNC'
p3819
sg44
g3806
sg45
I00
sba(issf_api
Word
p3820
(dp3821
g6
I00
sg7
V\u0926\u093f\u0935\u0938
p3822
sg9
(issf_api
FeatureSet
p3823
(dp3824
g12
(dp3825
S'posn'
p3826
S'80'
p3827
sS'name'
p3828
S'\xe0\xa4\xa6\xe0\xa4\xbf\xe0\xa4\xb5\xe0\xa4\xb8'
p3829
sS'af'
p3830
S'\xe0\xa4\xa6\xe0\xa4\xbf\xe0\xa4\xb5\xe0\xa4\xb8,n,m,sg,3,o,0_\xe0\xa4\x95\xe0\xa4\xbe,0'
p3831
sS'chunkid'
p3832
S'NP3'
p3833
sS'drel'
p3834
S'r6-k2:NP4'
p3835
sS'vpos'
p3836
S'vib_4'
p3837
sS'chunktype'
p3838
S'head:NP3'
p3839
ssbsg34
I00
sg35
I00
sg36
Nsg37
Nsg38
I2
sg39
I9
sg40
Nsg41
Nsg42
S'NN'
p3840
sg44
g3823
sg45
I00
sba(issf_api
Word
p3841
(dp3842
g6
I00
sg7
V\u0915\u093e
p3843
sg9
(issf_api
FeatureSet
p3844
(dp3845
g12
(dp3846
S'posn'
p3847
S'90'
p3848
sS'name'
p3849
S'\xe0\xa4\x95\xe0\xa4\xbe'
p3850
sS'drel'
p3851
S'lwg__psp:NP3'
p3852
sS'chunktype'
p3853
S'child:NP3'
p3854
sS'af'
p3855
S'\xe0\xa4\x95\xe0\xa4\xbe,psp,m,sg,,d,,'
p3856
ssbsg34
I00
sg35
I00
sg36
Nsg37
Nsg38
I2
sg39
I9
sg40
Nsg41
Nsg42
S'PSP'
p3857
sg44
g3844
sg45
I00
sba(issf_api
Word
p3858
(dp3859
g6
I00
sg7
V\u091c\u093f\u0915\u094d\u0930
p3860
sg9
(issf_api
FeatureSet
p3861
(dp3862
g12
(dp3863
S'posn'
p3864
S'100'
p3865
sS'name'
p3866
S'\xe0\xa4\x9c\xe0\xa4\xbf\xe0\xa4\x95\xe0\xa5\x8d\xe0\xa4\xb0'
p3867
sS'af'
p3868
S'\xe0\xa4\x9c\xe0\xa4\xbf\xe0\xa4\x95\xe0\xa5\x8d\xe0\xa4\xb0,n,m,sg,3,d,0,0'
p3869
sS'chunkid'
p3870
S'NP4'
p3871
sS'drel'
p3872
S'pof:VGNF'
p3873
sS'chunktype'
p3874
S'head:NP4'
p3875
ssbsg34
I00
sg35
I00
sg36
Nsg37
Nsg38
I3
sg39
I9
sg40
Nsg41
Nsg42
S'NN'
p3876
sg44
g3861
sg45
I00
sba(issf_api
Word
p3877
(dp3878
g6
I00
sg7
V\u0915\u0930\u0924\u0947
p3879
sg9
(issf_api
FeatureSet
p3880
(dp3881
g12
(dp3882
S'posn'
p3883
S'110'
p3884
sS'name'
p3885
S'\xe0\xa4\x95\xe0\xa4\xb0\xe0\xa4\xa4\xe0\xa5\x87'
p3886
sS'af'
p3887
S'\xe0\xa4\x95\xe0\xa4\xb0,v,m,sg,any,,\xe0\xa4\xa4\xe0\xa4\xbe_\xe0\xa4\xb9\xe0\xa5\x8b+\xe0\xa4\xaf\xe0\xa4\xbe,wA'
p3888
sS'chunkid'
p3889
S'VGNF'
p3890
sS'drel'
p3891
S'vmod:VGF'
p3892
sS'vpos'
p3893
S'tam_2'
p3894
sS'chunktype'
p3895
S'head:VGNF'
p3896
ssbsg34
I00
sg35
I00
sg36
Nsg37
Nsg38
I4
sg39
I9
sg40
Nsg41
Nsg42
S'VM'
p3897
sg44
g3880
sg45
I00
sba(issf_api
Word
p3898
(dp3899
g6
I00
sg7
V\u0939\u0941\u090f
p3900
sg9
(issf_api
FeatureSet
p3901
(dp3902
g12
(dp3903
S'posn'
p3904
S'120'
p3905
sS'name'
p3906
S'\xe0\xa4\xb9\xe0\xa5\x81\xe0\xa4\x8f'
p3907
sS'drel'
p3908
S'lwg__vaux:VGNF'
p3909
sS'chunktype'
p3910
S'child:VGNF'
p3911
sS'af'
p3912
S'\xe0\xa4\xb9\xe0\xa5\x8b,v,m,sg,any,,\xe0\xa4\xaf\xe0\xa4\xbe,yA'
p3913
ssbsg34
I00
sg35
I00
sg36
Nsg37
Nsg38
I4
sg39
I9
sg40
Nsg41
Nsg42
S'VAUX'
p3914
sg44
g3901
sg45
I00
sba(issf_api
Word
p3915
(dp3916
g6
I00
sg7
V\u0909\u0928\u094d\u0939\u094b\u0902\u0928\u0947
p3917
sg9
(issf_api
FeatureSet
p3918
(dp3919
g12
(dp3920
S'crefhead'
p3921
S'\xe0\xa4\x89\xe0\xa4\xa8\xe0\xa5\x8d\xe0\xa4\xb9\xe0\xa5\x8b\xe0\xa4\x82\xe0\xa4\xa8\xe0\xa5\x87:i36'
p3922
sS'posn'
p3923
S'130'
p3924
sS'name'
p3925
S'\xe0\xa4\x89\xe0\xa4\xa8\xe0\xa5\x8d\xe0\xa4\xb9\xe0\xa5\x8b\xe0\xa4\x82\xe0\xa4\xa8\xe0\xa5\x87'
p3926
sS'af'
p3927
S'\xe0\xa4\xb5\xe0\xa4\xb9,pn,any,sg,3h,o,\xe0\xa4\xa8\xe0\xa5\x87,ne'
p3928
sS'chunkid'
p3929
S'NP5'
p3930
sS'creftype'
p3931
S'Anaphora-C:i28'
p3932
sS'chunktype'
p3933
S'head:NP5'
p3934
sS'cref'
p3935
S'i36%1:t7'
p3936
sS'drel'
p3937
S'k1:VGF'
p3938
ssbsg34
I00
sg35
I00
sg36
Nsg37
Nsg38
I5
sg39
I9
sg40
Nsg41
Nsg42
S'PRP'
p3939
sg44
g3918
sg45
I00
sba(issf_api
Word
p3940
(dp3941
g6
I00
sg7
V\u0915\u0939\u093e
p3942
sg9
(issf_api
FeatureSet
p3943
(dp3944
g12
(dp3945
S'posn'
p3946
S'140'
p3947
sS'name'
p3948
S'\xe0\xa4\x95\xe0\xa4\xb9\xe0\xa4\xbe'
p3949
sS'af'
p3950
S'\xe0\xa4\x95\xe0\xa4\xb9,v,m,sg,any,,\xe0\xa4\xaf\xe0\xa4\xbe,yA'
p3951
sS'chunkid'
p3952
S'VGF'
p3953
sS'chunktype'
p3954
S'head:VGF'
p3955
sS'voicetype'
p3956
S'active'
p3957
sS'stype'
p3958
S'declarative'
p3959
ssbsg34
I00
sg35
I00
sg36
Nsg37
Nsg38
I6
sg39
I9
sg40
Nsg41
Nsg42
S'VM'
p3960
sg44
g3943
sg45
I00
sba(issf_api
Word
p3961
(dp3962
g6
I00
sg7
V\u0915\u093f
p3963
sg9
(issf_api
FeatureSet
p3964
(dp3965
g12
(dp3966
S'posn'
p3967
S'150'
p3968
sS'name'
p3969
S'\xe0\xa4\x95\xe0\xa4\xbf'
p3970
sS'af'
p3971
S'\xe0\xa4\x95\xe0\xa4\xbf,avy,,,,,,'
p3972
sS'chunkid'
p3973
S'CCP'
p3974
sS'drel'
p3975
S'k2:VGF'
p3976
sS'chunktype'
p3977
S'head:CCP'
p3978
ssbsg34
I00
sg35
I00
sg36
Nsg37
Nsg38
I7
sg39
I9
sg40
Nsg41
Nsg42
S'CC'
p3979
sg44
g3964
sg45
I00
sba(issf_api
Word
p3980
(dp3981
g6
I00
sg7
V\u092a\u093e\u0930\u094d\u091f\u0940
p3982
sg9
(issf_api
FeatureSet
p3983
(dp3984
g12
(dp3985
S'crefhead'
p3986
S'\xe0\xa4\xaa\xe0\xa4\xbe\xe0\xa4\xb0\xe0\xa5\x8d\xe0\xa4\x9f\xe0\xa5\x80:i37'
p3987
sS'posn'
p3988
S'160'
p3989
sS'name'
p3990
S'\xe0\xa4\xaa\xe0\xa4\xbe\xe0\xa4\xb0\xe0\xa5\x8d\xe0\xa4\x9f\xe0\xa5\x802'
p3991
sS'af'
p3992
S'\xe0\xa4\xaa\xe0\xa4\xbe\xe0\xa4\xb0\xe0\xa5\x8d\xe0\xa4\x9f\xe0\xa5\x80,n,f,sg,3,d,0,0'
p3993
sS'creftype'
p3994
S'Coreference-Identity:i35'
p3995
sS'drel'
p3996
S'pof__cn:NP6'
p3997
sS'chunktype'
p3998
S'child:NP6'
p3999
sS'cref'
p4000
S'i37%1:t1,i38%0:t3'
p4001
ssbsg34
I00
sg35
I00
sg36
Nsg37
Nsg38
I8
sg39
I9
sg40
Nsg41
Nsg42
S'NNC'
p4002
sg44
g3983
sg45
I00
sba(issf_api
Word
p4003
(dp4004
g6
I00
sg7
V\u0905\u0927\u094d\u092f\u0915\u094d\u0937
p4005
sg9
(issf_api
FeatureSet
p4006
(dp4007
g12
(dp4008
S'crefhead'
p4009
S'\xe0\xa4\x85\xe0\xa4\xa7\xe0\xa5\x8d\xe0\xa4\xaf\xe0\xa4\x95\xe0\xa5\x8d\xe0\xa4\xb7:i38'
p4010
sS'posn'
p4011
S'170'
p4012
sS'name'
p4013
S'\xe0\xa4\x85\xe0\xa4\xa7\xe0\xa5\x8d\xe0\xa4\xaf\xe0\xa4\x95\xe0\xa5\x8d\xe0\xa4\xb7'
p4014
sS'af'
p4015
S'\xe0\xa4\x85\xe0\xa4\xa7\xe0\xa5\x8d\xe0\xa4\xaf\xe0\xa4\x95\xe0\xa5\x8d\xe0\xa4\xb7,n,f,sg,3,d,0,0'
p4016
sS'chunkid'
p4017
S'NP6'
p4018
sS'creftype'
p4019
S'Coreference-Identity:i33'
p4020
sS'chunktype'
p4021
S'head:NP6'
p4022
sS'cref'
p4023
S'i38%1:t3'
p4024
sS'drel'
p4025
S'k1:VGF2'
p4026
ssbsg34
I00
sg35
I00
sg36
Nsg37
Nsg38
I8
sg39
I9
sg40
Nsg41
Nsg42
S'NN'
p4027
sg44
g4006
sg45
I00
sba(issf_api
Word
p4028
(dp4029
g6
I00
sg7
V\u092a\u0941\u0923\u0947
p4030
sg9
(issf_api
FeatureSet
p4031
(dp4032
g12
(dp4033
S'crefhead'
p4034
S'\xe0\xa4\xaa\xe0\xa5\x81\xe0\xa4\xa3\xe0\xa5\x87:i39'
p4035
sS'posn'
p4036
S'180'
p4037
sS'name'
p4038
S'\xe0\xa4\xaa\xe0\xa5\x81\xe0\xa4\xa3\xe0\xa5\x87'
p4039
sS'af'
p4040
S'\xe0\xa4\xaa\xe0\xa5\x81\xe0\xa4\xa3\xe0\xa5\x87,n,m,sg,3,o,0_\xe0\xa4\xae\xe0\xa5\x87\xe0\xa4\x82,0'
p4041
sS'chunkid'
p4042
S'NP7'
p4043
sS'chunktype'
p4044
S'head:NP7'
p4045
sS'crefchainhead'
p4046
S'i39:t13'
p4047
sS'vpos'
p4048
S'vib_2'
p4049
sS'cref'
p4050
S'i39%1:t13'
p4051
sS'drel'
p4052
S'k7p:VGF2'
p4053
ssbsg34
I00
sg35
I00
sg36
Nsg37
Nsg38
I9
sg39
I9
sg40
Nsg41
Nsg42
S'NNP'
p4054
sg44
g4031
sg45
I00
sba(issf_api
Word
p4055
(dp4056
g6
I00
sg7
V\u092e\u0947\u0902
p4057
sg9
(issf_api
FeatureSet
p4058
(dp4059
g12
(dp4060
S'posn'
p4061
S'190'
p4062
sS'name'
p4063
S'\xe0\xa4\xae\xe0\xa5\x87\xe0\xa4\x82'
p4064
sS'drel'
p4065
S'lwg__psp:NP7'
p4066
sS'chunktype'
p4067
S'child:NP7'
p4068
sS'af'
p4069
S'\xe0\xa4\xae\xe0\xa5\x87\xe0\xa4\x82,psp,,,,,,'
p4070
ssbsg34
I00
sg35
I00
sg36
Nsg37
Nsg38
I9
sg39
I9
sg40
Nsg41
Nsg42
S'PSP'
p4071
sg44
g4058
sg45
I00
sba(issf_api
Word
p4072
(dp4073
g6
I00
sg7
V\u0938\u094d\u0925\u093e\u092a\u0928\u093e
p4074
sg9
(issf_api
FeatureSet
p4075
(dp4076
g12
(dp4077
S'posn'
p4078
S'200'
p4079
sS'name'
p4080
S'\xe0\xa4\xb8\xe0\xa5\x8d\xe0\xa4\xa5\xe0\xa4\xbe\xe0\xa4\xaa\xe0\xa4\xa8\xe0\xa4\xbe2'
p4081
sS'drel'
p4082
S'pof__cn:NP8'
p4083
sS'chunktype'
p4084
S'child:NP8'
p4085
sS'af'
p4086
S'\xe0\xa4\xb8\xe0\xa5\x8d\xe0\xa4\xa5\xe0\xa4\xbe\xe0\xa4\xaa\xe0\xa4\xa8\xe0\xa4\xbe,n,f,sg,3,d,0,0'
p4087
ssbsg34
I00
sg35
I00
sg36
Nsg37
Nsg38
I10
sg39
I9
sg40
Nsg41
Nsg42
S'NNC'
p4088
sg44
g4075
sg45
I00
sba(issf_api
Word
p4089
(dp4090
g6
I00
sg7
V\u0926\u093f\u0935\u0938
p4091
sg9
(issf_api
FeatureSet
p4092
(dp4093
g12
(dp4094
S'posn'
p4095
S'210'
p4096
sS'name'
p4097
S'\xe0\xa4\xa6\xe0\xa4\xbf\xe0\xa4\xb5\xe0\xa4\xb82'
p4098
sS'af'
p4099
S'\xe0\xa4\xa6\xe0\xa4\xbf\xe0\xa4\xb5\xe0\xa4\xb8,n,m,sg,3,d,0,0'
p4100
sS'chunkid'
p4101
S'NP8'
p4102
sS'drel'
p4103
S'k2:VGF2'
p4104
sS'chunktype'
p4105
S'head:NP8'
p4106
ssbsg34
I00
sg35
I00
sg36
Nsg37
Nsg38
I10
sg39
I9
sg40
Nsg41
Nsg42
S'NN'
p4107
sg44
g4092
sg45
I00
sba(issf_api
Word
p4108
(dp4109
g6
I00
sg7
V\u092e\u0928\u093e\u090f\u0917\u0940\u0902
p4110
sg9
(issf_api
FeatureSet
p4111
(dp4112
g12
(dp4113
S'posn'
p4114
S'220'
p4115
sS'name'
p4116
S'\xe0\xa4\xae\xe0\xa4\xa8\xe0\xa4\xbe\xe0\xa4\x8f\xe0\xa4\x97\xe0\xa5\x80\xe0\xa4\x82'
p4117
sS'af'
p4118
S'\xe0\xa4\xae\xe0\xa4\xa8\xe0\xa4\xbe,v,f,sg,3h,,\xe0\xa4\x97\xe0\xa4\xbe,gA'
p4119
sS'chunkid'
p4120
S'VGF2'
p4121
sS'stype'
p4122
S'declarative'
p4123
sS'drel'
p4124
S'ccof:CCP'
p4125
sS'voicetype'
p4126
S'active'
p4127
sS'chunktype'
p4128
S'head:VGF2'
p4129
ssbsg34
I00
sg35
I00
sg36
Nsg37
Nsg38
I11
sg39
I9
sg40
Nsg41
Nsg42
S'VM'
p4130
sg44
g4111
sg45
I00
sba(issf_api
Word
p4131
(dp4132
g6
I00
sg7
V\u0964
p4133
sg9
(issf_api
FeatureSet
p4134
(dp4135
g12
(dp4136
S'posn'
p4137
S'230'
p4138
sS'name'
p4139
S'\xe0\xa5\xa4'
p4140
sS'af'
p4141
S'\xe0\xa5\xa4,punc,,,,,,'
p4142
sS'chunkid'
p4143
S'BLK'
p4144
sS'drel'
p4145
S'rsym:VGF'
p4146
sS'chunktype'
p4147
S'head:BLK'
p4148
ssbsg34
I00
sg35
I00
sg36
Nsg37
Nsg38
I12
sg39
I9
sg40
Nsg41
Nsg42
S'SYM'
p4149
sg44
g4134
sg45
I00
sba(issf_api
Word
p4150
(dp4151
g6
I00
sg7
V\u092a\u0941\u0923\u0947
p4152
sg9
(issf_api
FeatureSet
p4153
(dp4154
g12
(dp4155
S'crefhead'
p4156
S'\xe0\xa4\xaa\xe0\xa5\x81\xe0\xa4\xa3\xe0\xa5\x87:i40'
p4157
sS'posn'
p4158
S'10'
p4159
sS'name'
p4160
S'\xe0\xa4\xaa\xe0\xa5\x81\xe0\xa4\xa3\xe0\xa5\x87'
p4161
sS'af'
p4162
S'\xe0\xa4\xaa\xe0\xa5\x81\xe0\xa4\xa3\xe0\xa5\x87,n,m,sg,3,o,0_\xe0\xa4\xae\xe0\xa5\x87\xe0\xa4\x82,0'
p4163
sS'chunkid'
p4164
S'NP'
p4165
sS'creftype'
p4166
S'Coreference-Identity:i39'
p4167
sS'chunktype'
p4168
S'head:NP'
p4169
sS'vpos'
p4170
S'vib_2'
p4171
sS'cref'
p4172
S'i40%1:t13'
p4173
sS'drel'
p4174
S'k7p:VGF'
p4175
ssbsg34
I00
sg35
I00
sg36
Nsg37
Nsg38
I0
sg39
I10
sg40
Nsg41
Nsg42
S'NNP'
p4176
sg44
g4153
sg45
I00
sba(issf_api
Word
p4177
(dp4178
g6
I00
sg7
V\u092e\u0947\u0902
p4179
sg9
(issf_api
FeatureSet
p4180
(dp4181
g12
(dp4182
S'posn'
p4183
S'20'
p4184
sS'name'
p4185
S'\xe0\xa4\xae\xe0\xa5\x87\xe0\xa4\x82'
p4186
sS'drel'
p4187
S'lwg__psp:NP'
p4188
sS'chunktype'
p4189
S'child:NP'
p4190
sS'af'
p4191
S'\xe0\xa4\xae\xe0\xa5\x87\xe0\xa4\x82,psp,,,,,,'
p4192
ssbsg34
I00
sg35
I00
sg36
Nsg37
Nsg38
I0
sg39
I10
sg40
Nsg41
Nsg42
S'PSP'
p4193
sg44
g4180
sg45
I00
sba(issf_api
Word
p4194
(dp4195
g6
I00
sg7
V\u0927\u094d\u0935\u091c\u093e\u0930\u094b\u0939\u0923
p4196
sg9
(issf_api
FeatureSet
p4197
(dp4198
g12
(dp4199
S'posn'
p4200
S'30'
p4201
sS'name'
p4202
S'\xe0\xa4\xa7\xe0\xa5\x8d\xe0\xa4\xb5\xe0\xa4\x9c\xe0\xa4\xbe\xe0\xa4\xb0\xe0\xa5\x8b\xe0\xa4\xb9\xe0\xa4\xa3'
p4203
sS'af'
p4204
S'\xe0\xa4\xa7\xe0\xa5\x8d\xe0\xa4\xb5\xe0\xa4\x9c\xe0\xa4\xbe\xe0\xa4\xb0\xe0\xa5\x8b\xe0\xa4\xb9\xe0\xa4\xa3,n,m,sg,3,o,0_\xe0\xa4\x95\xe0\xa5\x87_\xe0\xa4\xac\xe0\xa4\xbe\xe0\xa4\xa6,0'
p4205
sS'chunkid'
p4206
S'NP2'
p4207
sS'drel'
p4208
S'k7:VGF'
p4209
sS'vpos'
p4210
S'vib_2_3'
p4211
sS'chunktype'
p4212
S'head:NP2'
p4213
ssbsg34
I00
sg35
I00
sg36
Nsg37
Nsg38
I1
sg39
I10
sg40
Nsg41
Nsg42
S'NN'
p4214
sg44
g4197
sg45
I00
sba(issf_api
Word
p4215
(dp4216
g6
I00
sg7
V\u0915\u0947
p4217
sg9
(issf_api
FeatureSet
p4218
(dp4219
g12
(dp4220
S'posn'
p4221
S'40'
p4222
sS'name'
p4223
S'\xe0\xa4\x95\xe0\xa5\x87'
p4224
sS'drel'
p4225
S'lwg__psp:NP2'
p4226
sS'chunktype'
p4227
S'child:NP2'
p4228
sS'af'
p4229
S'\xe0\xa4\x95\xe0\xa5\x87,psp,,,,,,'
p4230
ssbsg34
I00
sg35
I00
sg36
Nsg37
Nsg38
I1
sg39
I10
sg40
Nsg41
Nsg42
S'PSP'
p4231
sg44
g4218
sg45
I00
sba(issf_api
Word
p4232
(dp4233
g6
I00
sg7
V\u092c\u093e\u0926
p4234
sg9
(issf_api
FeatureSet
p4235
(dp4236
g12
(dp4237
S'posn'
p4238
S'50'
p4239
sS'name'
p4240
S'\xe0\xa4\xac\xe0\xa4\xbe\xe0\xa4\xa6'
p4241
sS'drel'
p4242
S'lwg__psp:NP2'
p4243
sS'chunktype'
p4244
S'child:NP2'
p4245
sS'af'
p4246
S'\xe0\xa4\xac\xe0\xa4\xbe\xe0\xa4\xa6,nst,m,sg,3,d,,'
p4247
ssbsg34
I00
sg35
I00
sg36
Nsg37
Nsg38
I1
sg39
I10
sg40
Nsg41
Nsg42
S'NST'
p4248
sg44
g4235
sg45
I00
sba(issf_api
Word
p4249
(dp4250
g6
I00
sg7
V\u0909\u0928\u0915\u0947
p4251
sg9
(issf_api
FeatureSet
p4252
(dp4253
g12
(dp4254
S'crefhead'
p4255
S'\xe0\xa4\x89\xe0\xa4\xa8\xe0\xa4\x95\xe0\xa5\x87:i41'
p4256
sS'posn'
p4257
S'60'
p4258
sS'name'
p4259
S'\xe0\xa4\x89\xe0\xa4\xa8\xe0\xa4\x95\xe0\xa5\x87'
p4260
sS'af'
p4261
S'\xe0\xa4\xb5\xe0\xa4\xb9,pn,m,sg,3h,o,\xe0\xa4\x95\xe0\xa4\xbe,kA'
p4262
sS'chunkid'
p4263
S'NP3'
p4264
sS'creftype'
p4265
S'Anaphora-C:i38'
p4266
sS'chunktype'
p4267
S'head:NP3'
p4268
sS'cref'
p4269
S'i41%1:t3'
p4270
sS'drel'
p4271
S'k1:VGF'
p4272
ssbsg34
I00
sg35
I00
sg36
Nsg37
Nsg38
I2
sg39
I10
sg40
Nsg41
Nsg42
S'PRP'
p4273
sg44
g4252
sg45
I00
sba(issf_api
Word
p4274
(dp4275
g6
I00
sg7
V\u092e\u0941\u0902\u092c\u0908
p4276
sg9
(issf_api
FeatureSet
p4277
(dp4278
g12
(dp4279
S'posn'
p4280
S'70'
p4281
sS'name'
p4282
S'\xe0\xa4\xae\xe0\xa5\x81\xe0\xa4\x82\xe0\xa4\xac\xe0\xa4\x88'
p4283
sS'af'
p4284
S'\xe0\xa4\xae\xe0\xa5\x81\xe0\xa4\x82\xe0\xa4\xac\xe0\xa4\x88,n,f,sg,3,d,0,0'
p4285
sS'chunkid'
p4286
S'NP4'
p4287
sS'drel'
p4288
S'k7p:VGNN'
p4289
sS'chunktype'
p4290
S'head:NP4'
p4291
ssbsg34
I00
sg35
I00
sg36
Nsg37
Nsg38
I3
sg39
I10
sg40
Nsg41
Nsg42
S'NNP'
p4292
sg44
g4277
sg45
I00
sba(issf_api
Word
p4293
(dp4294
g6
I00
sg7
V\u091c\u093e\u0928\u0947
p4295
sg9
(issf_api
FeatureSet
p4296
(dp4297
g12
(dp4298
S'posn'
p4299
S'80'
p4300
sS'name'
p4301
S'\xe0\xa4\x9c\xe0\xa4\xbe\xe0\xa4\xa8\xe0\xa5\x87'
p4302
sS'af'
p4303
S'\xe0\xa4\x9c\xe0\xa4\xbe,v,any,sg,any,o,\xe0\xa4\xa8\xe0\xa4\xbe_\xe0\xa4\x95\xe0\xa4\xbe,nA'
p4304
sS'chunkid'
p4305
S'VGNN'
p4306
sS'drel'
p4307
S'r6:NP5'
p4308
sS'vpos'
p4309
S'tam_2'
p4310
sS'chunktype'
p4311
S'head:VGNN'
p4312
ssbsg34
I00
sg35
I00
sg36
Nsg37
Nsg38
I4
sg39
I10
sg40
Nsg41
Nsg42
S'VM'
p4313
sg44
g4296
sg45
I00
sba(issf_api
Word
p4314
(dp4315
g6
I00
sg7
V\u0915\u093e
p4316
sg9
(issf_api
FeatureSet
p4317
(dp4318
g12
(dp4319
S'posn'
p4320
S'90'
p4321
sS'name'
p4322
S'\xe0\xa4\x95\xe0\xa4\xbe'
p4323
sS'drel'
p4324
S'lwg__psp:VGNN'
p4325
sS'chunktype'
p4326
S'child:VGNN'
p4327
sS'af'
p4328
S'\xe0\xa4\x95\xe0\xa4\xbe,psp,m,sg,,d,,'
p4329
ssbsg34
I00
sg35
I00
sg36
Nsg37
Nsg38
I4
sg39
I10
sg40
Nsg41
Nsg42
S'PSP'
p4330
sg44
g4317
sg45
I00
sba(issf_api
Word
p4331
(dp4332
g6
I00
sg7
V\u0915\u093e\u0930\u094d\u092f\u0915\u094d\u0930\u092e
p4333
sg9
(issf_api
FeatureSet
p4334
(dp4335
g12
(dp4336
S'posn'
p4337
S'100'
p4338
sS'name'
p4339
S'\xe0\xa4\x95\xe0\xa4\xbe\xe0\xa4\xb0\xe0\xa5\x8d\xe0\xa4\xaf\xe0\xa4\x95\xe0\xa5\x8d\xe0\xa4\xb0\xe0\xa4\xae'
p4340
sS'af'
p4341
S'\xe0\xa4\x95\xe0\xa4\xbe\xe0\xa4\xb0\xe0\xa5\x8d\xe0\xa4\xaf\xe0\xa4\x95\xe0\xa5\x8d\xe0\xa4\xb0\xe0\xa4\xae,n,m,sg,3,d,0,0'
p4342
sS'chunkid'
p4343
S'NP5'
p4344
sS'drel'
p4345
S'k2:VGF'
p4346
sS'chunktype'
p4347
S'head:NP5'
p4348
ssbsg34
I00
sg35
I00
sg36
Nsg37
Nsg38
I5
sg39
I10
sg40
Nsg41
Nsg42
S'NN'
p4349
sg44
g4334
sg45
I00
sba(issf_api
Word
p4350
(dp4351
g6
I00
sg7
V\u0939\u0948
p4352
sg9
(issf_api
FeatureSet
p4353
(dp4354
g12
(dp4355
S'posn'
p4356
S'110'
p4357
sS'name'
p4358
S'\xe0\xa4\xb9\xe0\xa5\x88'
p4359
sS'af'
p4360
S'\xe0\xa4\xb9\xe0\xa5\x88,v,any,sg,3,,\xe0\xa4\xb9\xe0\xa5\x88,hE'
p4361
sS'chunkid'
p4362
S'VGF'
p4363
sS'chunktype'
p4364
S'head:VGF'
p4365
sS'voicetype'
p4366
S'active'
p4367
sS'stype'
p4368
S'declarative'
p4369
ssbsg34
I00
sg35
I00
sg36
Nsg37
Nsg38
I6
sg39
I10
sg40
Nsg41
Nsg42
S'VM'
p4370
sg44
g4353
sg45
I00
sba(issf_api
Word
p4371
(dp4372
g6
I00
sg7
V\u0964
p4373
sg9
(issf_api
FeatureSet
p4374
(dp4375
g12
(dp4376
S'posn'
p4377
S'120'
p4378
sS'name'
p4379
S'\xe0\xa5\xa4'
p4380
sS'af'
p4381
S'\xe0\xa5\xa4,punc,,,,,,'
p4382
sS'chunkid'
p4383
S'BLK'
p4384
sS'drel'
p4385
S'rsym:VGF'
p4386
sS'chunktype'
p4387
S'head:BLK'
p4388
ssbsg34
I00
sg35
I00
sg36
Nsg37
Nsg38
I7
sg39
I10
sg40
Nsg41
Nsg42
S'SYM'
p4389
sg44
g4374
sg45
I00
sba(issf_api
Word
p4390
(dp4391
g6
I00
sg7
V\u092f\u0939
p4392
sg9
(issf_api
FeatureSet
p4393
(dp4394
g12
(dp4395
S'posn'
p4396
S'10'
p4397
sS'name'
p4398
S'\xe0\xa4\xaf\xe0\xa4\xb9'
p4399
sS'drel'
p4400
S'nmod__adj:NP'
p4401
sS'chunktype'
p4402
S'child:NP'
p4403
sS'af'
p4404
S'\xe0\xa4\xaf\xe0\xa4\xb9,pn,any,sg,3,d,,'
p4405
ssbsg34
I00
sg35
I00
sg36
Nsg37
Nsg38
I0
sg39
I11
sg40
Nsg41
Nsg42
S'DEM'
p4406
sg44
g4393
sg45
I00
sba(issf_api
Word
p4407
(dp4408
g6
I00
sg7
V\u092a\u094d\u0930\u0936\u094d\u0928
p4409
sg9
(issf_api
FeatureSet
p4410
(dp4411
g12
(dp4412
S'posn'
p4413
S'20'
p4414
sS'name'
p4415
S'\xe0\xa4\xaa\xe0\xa5\x8d\xe0\xa4\xb0\xe0\xa4\xb6\xe0\xa5\x8d\xe0\xa4\xa8'
p4416
sS'af'
p4417
S'\xe0\xa4\xaa\xe0\xa5\x8d\xe0\xa4\xb0\xe0\xa4\xb6\xe0\xa5\x8d\xe0\xa4\xa8,n,m,sg,3,d,0,0'
p4418
sS'chunkid'
p4419
S'NP'
p4420
sS'drel'
p4421
S'pof:VGNN'
p4422
sS'chunktype'
p4423
S'head:NP'
p4424
ssbsg34
I00
sg35
I00
sg36
Nsg37
Nsg38
I0
sg39
I11
sg40
Nsg41
Nsg42
S'NN'
p4425
sg44
g4410
sg45
I00
sba(issf_api
Word
p4426
(dp4427
g6
I00
sg7
V\u0915\u093f\u090f
p4428
sg9
(issf_api
FeatureSet
p4429
(dp4430
g12
(dp4431
S'posn'
p4432
S'30'
p4433
sS'name'
p4434
S'\xe0\xa4\x95\xe0\xa4\xbf\xe0\xa4\x8f'
p4435
sS'af'
p4436
S'\xe0\xa4\x95\xe0\xa4\xb0,v,any,sg,any,,\xe0\xa4\xaf\xe0\xa4\xbe_\xe0\xa4\x9c\xe0\xa4\xbe+\xe0\xa4\xa8\xe0\xa4\xbe_\xe0\xa4\xaa\xe0\xa4\xb0,yA'
p4437
sS'chunkid'
p4438
S'VGNN'
p4439
sS'drel'
p4440
S'k7:VGF2'
p4441
sS'vpos'
p4442
S'tam_2_3'
p4443
sS'chunktype'
p4444
S'head:VGNN'
p4445
ssbsg34
I00
sg35
I00
sg36
Nsg37
Nsg38
I1
sg39
I11
sg40
Nsg41
Nsg42
S'VM'
p4446
sg44
g4429
sg45
I00
sba(issf_api
Word
p4447
(dp4448
g6
I00
sg7
V\u091c\u093e\u0928\u0947
p4449
sg9
(issf_api
FeatureSet
p4450
(dp4451
g12
(dp4452
S'posn'
p4453
S'40'
p4454
sS'name'
p4455
S'\xe0\xa4\x9c\xe0\xa4\xbe\xe0\xa4\xa8\xe0\xa5\x87'
p4456
sS'drel'
p4457
S'lwg__vaux:VGNN'
p4458
sS'chunktype'
p4459
S'child:VGNN'
p4460
sS'af'
p4461
S'\xe0\xa4\x9c\xe0\xa4\xbe,v,any,any,any,o,\xe0\xa4\xa8\xe0\xa4\xbe,nA'
p4462
ssbsg34
I00
sg35
I00
sg36
Nsg37
Nsg38
I1
sg39
I11
sg40
Nsg41
Nsg42
S'VAUX'
p4463
sg44
g4450
sg45
I00
sba(issf_api
Word
p4464
(dp4465
g6
I00
sg7
V\u092a\u0930
p4466
sg9
(issf_api
FeatureSet
p4467
(dp4468
g12
(dp4469
S'posn'
p4470
S'50'
p4471
sS'name'
p4472
S'\xe0\xa4\xaa\xe0\xa4\xb0'
p4473
sS'drel'
p4474
S'lwg__psp:VGNN'
p4475
sS'chunktype'
p4476
S'child:VGNN'
p4477
sS'af'
p4478
S'\xe0\xa4\xaa\xe0\xa4\xb0,psp,,,,,,'
p4479
ssbsg34
I00
sg35
I00
sg36
Nsg37
Nsg38
I1
sg39
I11
sg40
Nsg41
Nsg42
S'PSP'
p4480
sg44
g4467
sg45
I00
sba(issf_api
Word
p4481
(dp4482
g6
I00
sg7
V\u0915\u093f
p4483
sg9
(issf_api
FeatureSet
p4484
(dp4485
g12
(dp4486
S'posn'
p4487
S'60'
p4488
sS'name'
p4489
S'\xe0\xa4\x95\xe0\xa4\xbf'
p4490
sS'af'
p4491
S'\xe0\xa4\x95\xe0\xa4\xbf,avy,,,,,,'
p4492
sS'chunkid'
p4493
S'CCP'
p4494
sS'drel'
p4495
S'rs:NP'
p4496
sS'chunktype'
p4497
S'head:CCP'
p4498
ssbsg34
I00
sg35
I00
sg36
Nsg37
Nsg38
I2
sg39
I11
sg40
Nsg41
Nsg42
S'CC'
p4499
sg44
g4484
sg45
I00
sba(issf_api
Word
p4500
(dp4501
g6
I00
sg7
V\u0915\u094d\u092f\u093e
p4502
sg9
(issf_api
FeatureSet
p4503
(dp4504
g12
(dp4505
S'posn'
p4506
S'70'
p4507
sS'name'
p4508
S'\xe0\xa4\x95\xe0\xa5\x8d\xe0\xa4\xaf\xe0\xa4\xbe'
p4509
sS'af'
p4510
S'\xe0\xa4\x95\xe0\xa5\x8d\xe0\xa4\xaf\xe0\xa4\xbe,pn,,,,,,'
p4511
sS'chunkid'
p4512
S'RBP'
p4513
sS'drel'
p4514
S'adv:VGF'
p4515
sS'chunktype'
p4516
S'head:RBP'
p4517
ssbsg34
I00
sg35
I00
sg36
Nsg37
Nsg38
I3
sg39
I11
sg40
Nsg41
Nsg42
S'WQ'
p4518
sg44
g4503
sg45
I00
sba(issf_api
Word
p4519
(dp4520
g6
I00
sg7
V\u0938\u094b\u0928\u093f\u092f\u093e
p4521
sg9
(issf_api
FeatureSet
p4522
(dp4523
g12
(dp4524
S'posn'
p4525
S'80'
p4526
sS'name'
p4527
S'\xe0\xa4\xb8\xe0\xa5\x8b\xe0\xa4\xa8\xe0\xa4\xbf\xe0\xa4\xaf\xe0\xa4\xbe'
p4528
sS'af'
p4529
S'\xe0\xa4\xb8\xe0\xa5\x8b\xe0\xa4\xa8\xe0\xa4\xbf\xe0\xa4\xaf\xe0\xa4\xbe,n,f,sg,3,d,0,0'
p4530
sS'drel'
p4531
S'pof__cn:NP2'
p4532
sS'chunktype'
p4533
S'child:NP2'
p4534
sS'cref'
p4535
S'i42%0:t3'
p4536
ssbsg34
I00
sg35
I00
sg36
Nsg37
Nsg38
I4
sg39
I11
sg40
Nsg41
Nsg42
S'NNPC'
p4537
sg44
g4522
sg45
I00
sba(issf_api
Word
p4538
(dp4539
g6
I00
sg7
V\u0917\u093e\u0901\u0927\u0940
p4540
sg9
(issf_api
FeatureSet
p4541
(dp4542
g12
(dp4543
S'crefhead'
p4544
S'\xe0\xa4\x97\xe0\xa4\xbe\xe0\xa4\x81\xe0\xa4\xa7\xe0\xa5\x80:i42'
p4545
sS'posn'
p4546
S'90'
p4547
sS'name'
p4548
S'\xe0\xa4\x97\xe0\xa4\xbe\xe0\xa4\x81\xe0\xa4\xa7\xe0\xa5\x80'
p4549
sS'af'
p4550
S'\xe0\xa4\x97\xe0\xa4\xbe\xe0\xa4\x81\xe0\xa4\xa7\xe0\xa5\x80,n,any,sg,3,d,0,0'
p4551
sS'chunkid'
p4552
S'NP2'
p4553
sS'creftype'
p4554
S'Coreference-Noun-Noun:i41'
p4555
sS'chunktype'
p4556
S'head:NP2'
p4557
sS'cref'
p4558
S'i42%1:t3'
p4559
sS'drel'
p4560
S'k1:VGF'
p4561
ssbsg34
I00
sg35
I00
sg36
Nsg37
Nsg38
I4
sg39
I11
sg40
Nsg41
Nsg42
S'NNP'
p4562
sg44
g4541
sg45
I00
sba(issf_api
Word
p4563
(dp4564
g6
I00
sg7
V\u0915\u094b\u0902\u0915\u0923
p4565
sg9
(issf_api
FeatureSet
p4566
(dp4567
g12
(dp4568
S'crefhead'
p4569
S'\xe0\xa4\x95\xe0\xa5\x8b\xe0\xa4\x82\xe0\xa4\x95\xe0\xa4\xa3:i43'
p4570
sS'posn'
p4571
S'100'
p4572
sS'name'
p4573
S'\xe0\xa4\x95\xe0\xa5\x8b\xe0\xa4\x82\xe0\xa4\x95\xe0\xa4\xa3'
p4574
sS'af'
p4575
S'\xe0\xa4\x95\xe0\xa5\x8b\xe0\xa4\x82\xe0\xa4\x95\xe0\xa4\xa3,n,m,sg,3,d,0,0'
p4576
sS'chunkid'
p4577
S'NP3'
p4578
sS'chunktype'
p4579
S'head:NP3'
p4580
sS'crefchainhead'
p4581
S'i43:t14'
p4582
sS'cref'
p4583
S'i43%1:t14'
p4584
sS'drel'
p4585
S'k7p:VGF'
p4586
ssbsg34
I00
sg35
I00
sg36
Nsg37
Nsg38
I5
sg39
I11
sg40
Nsg41
Nsg42
S'NNP'
p4587
sg44
g4566
sg45
I00
sba(issf_api
Word
p4588
(dp4589
g6
I00
sg7
V\u092d\u0940
p4590
sg9
(issf_api
FeatureSet
p4591
(dp4592
g12
(dp4593
S'posn'
p4594
S'110'
p4595
sS'name'
p4596
S'\xe0\xa4\xad\xe0\xa5\x80'
p4597
sS'drel'
p4598
S'lwg__rp:NP3'
p4599
sS'chunktype'
p4600
S'child:NP3'
p4601
sS'af'
p4602
S'\xe0\xa4\xad\xe0\xa5\x80,avy,,,,,,'
p4603
ssbsg34
I00
sg35
I00
sg36
Nsg37
Nsg38
I5
sg39
I11
sg40
Nsg41
Nsg42
S'RP'
p4604
sg44
g4591
sg45
I00
sba(issf_api
Word
p4605
(dp4606
g6
I00
sg7
V\u091c\u093e\u090f\u0917\u0940\u0902
p4607
sg9
(issf_api
FeatureSet
p4608
(dp4609
g12
(dp4610
S'posn'
p4611
S'120'
p4612
sS'name'
p4613
S'\xe0\xa4\x9c\xe0\xa4\xbe\xe0\xa4\x8f\xe0\xa4\x97\xe0\xa5\x80\xe0\xa4\x82'
p4614
sS'af'
p4615
S'\xe0\xa4\x9c\xe0\xa4\xbe,v,f,sg,3h,,\xe0\xa4\x97\xe0\xa4\xbe,gA'
p4616
sS'chunkid'
p4617
S'VGF'
p4618
sS'stype'
p4619
S'declarative'
p4620
sS'drel'
p4621
S'ccof:CCP'
p4622
sS'voicetype'
p4623
S'active'
p4624
sS'chunktype'
p4625
S'head:VGF'
p4626
ssbsg34
I00
sg35
I00
sg36
Nsg37
Nsg38
I6
sg39
I11
sg40
Nsg41
Nsg42
S'VM'
p4627
sg44
g4608
sg45
I00
sba(issf_api
Word
p4628
(dp4629
g6
I00
sg7
V,
p4630
sg9
(issf_api
FeatureSet
p4631
(dp4632
g12
(dp4633
S'posn'
p4634
S'130'
p4635
sS'name'
p4636
g1245
sS'drel'
p4637
S'rsym:VGF'
p4638
sS'chunktype'
p4639
S'child:VGF'
p4640
sS'af'
p4641
S'COMMA,punc,,,,,,'
p4642
ssbsg34
I00
sg35
I00
sg36
Nsg37
Nsg38
I6
sg39
I11
sg40
Nsg41
Nsg42
S'SYM'
p4643
sg44
g4631
sg45
I00
sba(issf_api
Word
p4644
(dp4645
g6
I00
sg7
V\u0909\u0928\u094d\u0939\u094b\u0902\u0928\u0947
p4646
sg9
(issf_api
FeatureSet
p4647
(dp4648
g12
(dp4649
S'crefhead'
p4650
S'\xe0\xa4\x89\xe0\xa4\xa8\xe0\xa5\x8d\xe0\xa4\xb9\xe0\xa5\x8b\xe0\xa4\x82\xe0\xa4\xa8\xe0\xa5\x87:i44'
p4651
sS'posn'
p4652
S'140'
p4653
sS'name'
p4654
S'\xe0\xa4\x89\xe0\xa4\xa8\xe0\xa5\x8d\xe0\xa4\xb9\xe0\xa5\x8b\xe0\xa4\x82\xe0\xa4\xa8\xe0\xa5\x87'
p4655
sS'af'
p4656
S'\xe0\xa4\xb5\xe0\xa4\xb9,pn,any,sg,3h,o,\xe0\xa4\xa8\xe0\xa5\x87,ne'
p4657
sS'chunkid'
p4658
S'NP4'
p4659
sS'creftype'
p4660
S'Anaphora-C:i36'
p4661
sS'chunktype'
p4662
S'head:NP4'
p4663
sS'cref'
p4664
S'i44%1:t7'
p4665
sS'drel'
p4666
S'k1:VGF2'
p4667
ssbsg34
I00
sg35
I00
sg36
Nsg37
Nsg38
I7
sg39
I11
sg40
Nsg41
Nsg42
S'PRP'
p4668
sg44
g4647
sg45
I00
sba(issf_api
Word
p4669
(dp4670
g6
I00
sg7
V\u0915\u0939\u093e
p4671
sg9
(issf_api
FeatureSet
p4672
(dp4673
g12
(dp4674
S'posn'
p4675
S'150'
p4676
sS'name'
p4677
S'\xe0\xa4\x95\xe0\xa4\xb9\xe0\xa4\xbe'
p4678
sS'af'
p4679
S'\xe0\xa4\x95\xe0\xa4\xb9,v,m,sg,any,,\xe0\xa4\xaf\xe0\xa4\xbe,yA'
p4680
sS'chunkid'
p4681
S'VGF2'
p4682
sS'chunktype'
p4683
S'head:VGF2'
p4684
sS'voicetype'
p4685
S'active'
p4686
sS'stype'
p4687
S'declarative'
p4688
ssbsg34
I00
sg35
I00
sg36
Nsg37
Nsg38
I8
sg39
I11
sg40
Nsg41
Nsg42
S'VM'
p4689
sg44
g4672
sg45
I00
sba(issf_api
Word
p4690
(dp4691
g6
I00
sg7
V\u0915\u093f
p4692
sg9
(issf_api
FeatureSet
p4693
(dp4694
g12
(dp4695
S'posn'
p4696
S'160'
p4697
sS'name'
p4698
S'\xe0\xa4\x95\xe0\xa4\xbf2'
p4699
sS'af'
p4700
S'\xe0\xa4\x95\xe0\xa4\xbf,avy,,,,,,'
p4701
sS'chunkid'
p4702
S'CCP2'
p4703
sS'drel'
p4704
S'k2:VGF2'
p4705
sS'chunktype'
p4706
S'head:CCP2'
p4707
ssbsg34
I00
sg35
I00
sg36
Nsg37
Nsg38
I9
sg39
I11
sg40
Nsg41
Nsg42
S'CC'
p4708
sg44
g4693
sg45
I00
sba(issf_api
Word
p4709
(dp4710
g6
I00
sg7
V\u0935\u0939\u093e\u0901
p4711
sg9
(issf_api
FeatureSet
p4712
(dp4713
g12
(dp4714
S'crefhead'
p4715
S'\xe0\xa4\xb5\xe0\xa4\xb9\xe0\xa4\xbe\xe0\xa4\x81:i45'
p4716
sS'posn'
p4717
S'170'
p4718
sS'name'
p4719
S'\xe0\xa4\xb5\xe0\xa4\xb9\xe0\xa4\xbe\xe0\xa4\x81'
p4720
sS'af'
p4721
S'\xe0\xa4\xb5\xe0\xa4\xb9\xe0\xa4\xbe\xe0\xa4\x81,pn,,,,d,,'
p4722
sS'chunkid'
p4723
S'NP5'
p4724
sS'creftype'
p4725
S'Anaphora-C:i43'
p4726
sS'chunktype'
p4727
S'head:NP5'
p4728
sS'cref'
p4729
S'i45%1:t14,i46%0:t15'
p4730
sS'drel'
p4731
S'k7p:VGF3'
p4732
ssbsg34
I00
sg35
I00
sg36
Nsg37
Nsg38
I10
sg39
I11
sg40
Nsg41
Nsg42
S'PRP'
p4733
sg44
g4712
sg45
I00
sba(issf_api
Word
p4734
(dp4735
g6
I00
sg7
V\u0909\u092a
p4736
sg9
(issf_api
FeatureSet
p4737
(dp4738
g12
(dp4739
S'posn'
p4740
S'180'
p4741
sS'name'
p4742
S'\xe0\xa4\x89\xe0\xa4\xaa'
p4743
sS'af'
p4744
S'\xe0\xa4\x89\xe0\xa4\xaa,adj,any,any,,d,,'
p4745
sS'drel'
p4746
S'nmod__adj:NP6'
p4747
sS'chunktype'
p4748
S'child:NP6'
p4749
sS'cref'
p4750
S'i46%0:t15'
p4751
ssbsg34
I00
sg35
I00
sg36
Nsg37
Nsg38
I11
sg39
I11
sg40
Nsg41
Nsg42
S'JJ'
p4752
sg44
g4737
sg45
I00
sba(issf_api
Word
p4753
(dp4754
g6
I00
sg7
V\u091a\u0941\u0928\u093e\u0935
p4755
sg9
(issf_api
FeatureSet
p4756
(dp4757
g12
(dp4758
S'posn'
p4759
S'190'
p4760
sS'name'
p4761
S'\xe0\xa4\x9a\xe0\xa5\x81\xe0\xa4\xa8\xe0\xa4\xbe\xe0\xa4\xb5'
p4762
sS'af'
p4763
S'\xe0\xa4\x9a\xe0\xa5\x81\xe0\xa4\xa8\xe0\xa4\xbe\xe0\xa4\xb5,n,m,pl,3,d,0,0'
p4764
sS'chunkid'
p4765
S'NP6'
p4766
sS'drel'
p4767
S'k1:VGF3'
p4768
sS'chunktype'
p4769
S'head:NP6'
p4770
sS'cref'
p4771
S'i46%0:t15'
p4772
ssbsg34
I00
sg35
I00
sg36
Nsg37
Nsg38
I11
sg39
I11
sg40
Nsg41
Nsg42
S'NN'
p4773
sg44
g4756
sg45
I00
sba(issf_api
Word
p4774
(dp4775
g6
I00
sg7
V\u0939\u0948\u0902
p4776
sg9
(issf_api
FeatureSet
p4777
(dp4778
g12
(dp4779
S'crefhead'
p4780
S'\xe0\xa4\xb9\xe0\xa5\x88\xe0\xa4\x82:i46'
p4781
sS'posn'
p4782
S'200'
p4783
sS'name'
p4784
S'\xe0\xa4\xb9\xe0\xa5\x88\xe0\xa4\x82'
p4785
sS'af'
p4786
S'\xe0\xa4\xb9\xe0\xa5\x88,v,any,pl,3,,\xe0\xa4\xb9\xe0\xa5\x88,hE'
p4787
sS'chunkid'
p4788
S'VGF3'
p4789
sS'stype'
p4790
S'declarative'
p4791
sS'chunktype'
p4792
S'head:VGF3'
p4793
sS'crefchainhead'
p4794
S'i46:t15'
p4795
sS'voicetype'
p4796
S'active'
p4797
sS'cref'
p4798
S'i46%1:t15'
p4799
sS'drel'
p4800
S'ccof:CCP2'
p4801
ssbsg34
I00
sg35
I00
sg36
Nsg37
Nsg38
I12
sg39
I11
sg40
Nsg41
Nsg42
S'VM'
p4802
sg44
g4777
sg45
I00
sba(issf_api
Word
p4803
(dp4804
g6
I00
sg7
V\u0964
p4805
sg9
(issf_api
FeatureSet
p4806
(dp4807
g12
(dp4808
S'posn'
p4809
S'210'
p4810
sS'name'
p4811
S'\xe0\xa5\xa4'
p4812
sS'af'
p4813
S'\xe0\xa5\xa4,punc,,,,,,'
p4814
sS'chunkid'
p4815
S'BLK'
p4816
sS'drel'
p4817
S'rsym:VGF2'
p4818
sS'chunktype'
p4819
S'head:BLK'
p4820
ssbsg34
I00
sg35
I00
sg36
Nsg37
Nsg38
I13
sg39
I11
sg40
Nsg41
Nsg42
S'SYM'
p4821
sg44
g4806
sg45
I00
sba(issf_api
Word
p4822
(dp4823
g6
I00
sg7
V\u0907\u0938\u0932\u093f\u090f
p4824
sg9
(issf_api
FeatureSet
p4825
(dp4826
g12
(dp4827
S'crefhead'
p4828
S'\xe0\xa4\x87\xe0\xa4\xb8\xe0\xa4\xb2\xe0\xa4\xbf\xe0\xa4\x8f:i47'
p4829
sS'posn'
p4830
S'10'
p4831
sS'name'
p4832
S'\xe0\xa4\x87\xe0\xa4\xb8\xe0\xa4\xb2\xe0\xa4\xbf\xe0\xa4\x8f'
p4833
sS'af'
p4834
S'\xe0\xa4\x87\xe0\xa4\xb8\xe0\xa4\xb2\xe0\xa4\xbf\xe0\xa4\xaf\xe0\xa5\x87,pn,,,,,,'
p4835
sS'chunkid'
p4836
S'NP'
p4837
sS'creftype'
p4838
S'Anaphora-C:i46'
p4839
sS'chunktype'
p4840
S'head:NP'
p4841
sS'cref'
p4842
S'i47%1:t15'
p4843
sS'drel'
p4844
S'rh:VGF'
p4845
ssbsg34
I00
sg35
I00
sg36
Nsg37
Nsg38
I0
sg39
I12
sg40
Nsg41
Nsg42
S'PRP'
p4846
sg44
g4825
sg45
I00
sba(issf_api
Word
p4847
(dp4848
g6
I00
sg7
V,
p4849
sg9
(issf_api
FeatureSet
p4850
(dp4851
g12
(dp4852
S'posn'
p4853
S'20'
p4854
sS'name'
p4855
g1245
sS'drel'
p4856
S'rsym:NP'
p4857
sS'chunktype'
p4858
S'child:NP'
p4859
sS'af'
p4860
S'COMMA,punc,,,,,,'
p4861
ssbsg34
I00
sg35
I00
sg36
Nsg37
Nsg38
I0
sg39
I12
sg40
Nsg41
Nsg42
S'SYM'
p4862
sg44
g4850
sg45
I00
sba(issf_api
Word
p4863
(dp4864
g6
I00
sg7
V\u0915\u094b\u0902\u0915\u0923
p4865
sg9
(issf_api
FeatureSet
p4866
(dp4867
g12
(dp4868
S'crefhead'
p4869
S'\xe0\xa4\x95\xe0\xa5\x8b\xe0\xa4\x82\xe0\xa4\x95\xe0\xa4\xa3:i48'
p4870
sS'posn'
p4871
S'30'
p4872
sS'name'
p4873
S'\xe0\xa4\x95\xe0\xa5\x8b\xe0\xa4\x82\xe0\xa4\x95\xe0\xa4\xa3'
p4874
sS'af'
p4875
S'\xe0\xa4\x95\xe0\xa5\x8b\xe0\xa4\x82\xe0\xa4\x95\xe0\xa4\xa3,n,m,sg,3,o,0_\xe0\xa4\x95\xe0\xa4\xbe,0'
p4876
sS'chunkid'
p4877
S'NP2'
p4878
sS'creftype'
p4879
S'Coreference-Identity:i45'
p4880
sS'chunktype'
p4881
S'head:NP2'
p4882
sS'vpos'
p4883
S'vib_2'
p4884
sS'cref'
p4885
S'i48%1:t14'
p4886
sS'drel'
p4887
S'r6:NP3'
p4888
ssbsg34
I00
sg35
I00
sg36
Nsg37
Nsg38
I1
sg39
I12
sg40
Nsg41
Nsg42
S'NNP'
p4889
sg44
g4866
sg45
I00
sba(issf_api
Word
p4890
(dp4891
g6
I00
sg7
V\u0915\u093e
p4892
sg9
(issf_api
FeatureSet
p4893
(dp4894
g12
(dp4895
S'posn'
p4896
S'40'
p4897
sS'name'
p4898
S'\xe0\xa4\x95\xe0\xa4\xbe'
p4899
sS'drel'
p4900
S'lwg__psp:NP2'
p4901
sS'chunktype'
p4902
S'child:NP2'
p4903
sS'af'
p4904
S'\xe0\xa4\x95\xe0\xa4\xbe,psp,m,sg,,d,,'
p4905
ssbsg34
I00
sg35
I00
sg36
Nsg37
Nsg38
I1
sg39
I12
sg40
Nsg41
Nsg42
S'PSP'
p4906
sg44
g4893
sg45
I00
sba(issf_api
Word
p4907
(dp4908
g6
I00
sg7
V\u0915\u094b\u0908
p4909
sg9
(issf_api
FeatureSet
p4910
(dp4911
g12
(dp4912
S'crefhead'
p4913
S'\xe0\xa4\x95\xe0\xa5\x8b\xe0\xa4\x88:i49'
p4914
sS'posn'
p4915
S'50'
p4916
sS'name'
p4917
S'\xe0\xa4\x95\xe0\xa5\x8b\xe0\xa4\x88'
p4918
sS'af'
p4919
S'\xe0\xa4\x95\xe0\xa5\x8b\xe0\xa4\x88,pn,any,sg,3,d,0,0'
p4920
sS'drel'
p4921
S'nmod__adj:NP3'
p4922
sS'crefchainhead'
p4923
S'i49:t16'
p4924
sS'chunktype'
p4925
S'child:NP3'
p4926
sS'cref'
p4927
S'i49%1:t16'
p4928
ssbsg34
I00
sg35
I00
sg36
Nsg37
Nsg38
I2
sg39
I12
sg40
Nsg41
Nsg42
S'PRP'
p4929
sg44
g4910
sg45
I00
sba(issf_api
Word
p4930
(dp4931
g6
I00
sg7
V\u0915\u093e\u0930\u094d\u092f\u0915\u094d\u0930\u092e
p4932
sg9
(issf_api
FeatureSet
p4933
(dp4934
g12
(dp4935
S'posn'
p4936
S'60'
p4937
sS'name'
p4938
S'\xe0\xa4\x95\xe0\xa4\xbe\xe0\xa4\xb0\xe0\xa5\x8d\xe0\xa4\xaf\xe0\xa4\x95\xe0\xa5\x8d\xe0\xa4\xb0\xe0\xa4\xae'
p4939
sS'af'
p4940
S'\xe0\xa4\x95\xe0\xa4\xbe\xe0\xa4\xb0\xe0\xa5\x8d\xe0\xa4\xaf\xe0\xa4\x95\xe0\xa5\x8d\xe0\xa4\xb0\xe0\xa4\xae,n,m,sg,3,d,0,0'
p4941
sS'chunkid'
p4942
S'NP3'
p4943
sS'drel'
p4944
S'k1:VGF'
p4945
sS'chunktype'
p4946
S'head:NP3'
p4947
ssbsg34
I00
sg35
I00
sg36
Nsg37
Nsg38
I2
sg39
I12
sg40
Nsg41
Nsg42
S'NN'
p4948
sg44
g4933
sg45
I00
sba(issf_api
Word
p4949
(dp4950
g6
I00
sg7
V\u0928\u0939\u0940\u0902
p4951
sg9
(issf_api
FeatureSet
p4952
(dp4953
g12
(dp4954
S'posn'
p4955
S'70'
p4956
sS'name'
p4957
S'\xe0\xa4\xa8\xe0\xa4\xb9\xe0\xa5\x80\xe0\xa4\x82'
p4958
sS'drel'
p4959
S'lwg__neg:VGF'
p4960
sS'chunktype'
p4961
S'child:VGF'
p4962
sS'af'
p4963
S'\xe0\xa4\xa8\xe0\xa4\xb9\xe0\xa5\x80\xe0\xa4\x82,avy,,,,,,'
p4964
ssbsg34
I00
sg35
I00
sg36
Nsg37
Nsg38
I3
sg39
I12
sg40
Nsg41
Nsg42
S'NEG'
p4965
sg44
g4952
sg45
I00
sba(issf_api
Word
p4966
(dp4967
g6
I00
sg7
V\u0939\u0948
p4968
sg9
(issf_api
FeatureSet
p4969
(dp4970
g12
(dp4971
S'posn'
p4972
S'80'
p4973
sS'name'
p4974
S'\xe0\xa4\xb9\xe0\xa5\x88'
p4975
sS'af'
p4976
S'\xe0\xa4\xb9\xe0\xa5\x88,v,any,sg,3,,\xe0\xa4\xb9\xe0\xa5\x88,hE'
p4977
sS'chunkid'
p4978
S'VGF'
p4979
sS'chunktype'
p4980
S'head:VGF'
p4981
sS'voicetype'
p4982
S'active'
p4983
sS'stype'
p4984
S'declarative'
p4985
ssbsg34
I00
sg35
I00
sg36
Nsg37
Nsg38
I3
sg39
I12
sg40
Nsg41
Nsg42
S'VM'
p4986
sg44
g4969
sg45
I00
sba(issf_api
Word
p4987
(dp4988
g6
I00
sg7
V\u0964
p4989
sg9
(issf_api
FeatureSet
p4990
(dp4991
g12
(dp4992
S'posn'
p4993
S'90'
p4994
sS'name'
p4995
S'\xe0\xa5\xa4'
p4996
sS'af'
p4997
S'\xe0\xa5\xa4,punc,,,,,,'
p4998
sS'chunkid'
p4999
S'BLK'
p5000
sS'drel'
p5001
S'rsym:VGF'
p5002
sS'chunktype'
p5003
S'head:BLK'
p5004
ssbsg34
I00
sg35
I00
sg36
Nsg37
Nsg38
I4
sg39
I12
sg40
Nsg41
Nsg42
S'SYM'
p5005
sg44
g4990
sg45
I00
sbasS'sentenceList'
p5006
(lp5007
(issf_api
Sentence
p5008
(dp5009
S'rootNode'
p5010
(lp5011
sg39
I0
sS'wordNumList'
p5012
(lp5013
I0
aI1
aI2
aI3
aI4
aI5
aI6
aI7
aI8
aI9
aI10
aI11
aI12
aI13
aI14
aI15
aI16
aI17
aI18
aI19
aI20
aI21
aI22
asS'nodeDict'
p5014
(dp5015
S'VGNF'
p5016
(issf_api
Node
p5017
(dp5018
S'nodeRelation'
p5019
S'vmod'
p5020
sS'nodeName'
p5021
g5016
sS'nodeParent'
p5022
S'VGF'
p5023
sS'nodeLevel'
p5024
I-1
sg38
I5
sS'childList'
p5025
(lp5026
S'NP5'
p5027
asbsS'VGF'
p5028
(issf_api
Node
p5029
(dp5030
g5019
S'None'
p5031
sg5021
g5028
sg5022
g5031
sg5024
I-1
sg38
I8
sg5025
(lp5032
g5016
aS'JJP'
p5033
aS'BLK'
p5034
aS'NP'
p5035
aS'NP6'
p5036
asbsg5033
(issf_api
Node
p5037
(dp5038
g5019
S'pof'
p5039
sg5021
g5033
sg5022
S'VGF'
p5040
sg5024
I-1
sg38
I7
sg5025
(lp5041
sbsg5027
(issf_api
Node
p5042
(dp5043
g5019
S'k1'
p5044
sg5021
g5027
sg5022
S'VGNF'
p5045
sg5024
I-1
sg38
I4
sg5025
(lp5046
S'NP4'
p5047
asbsg5034
(issf_api
Node
p5048
(dp5049
g5019
S'rsym'
p5050
sg5021
g5034
sg5022
S'VGF'
p5051
sg5024
I-1
sg38
I9
sg5025
(lp5052
sbsg5035
(issf_api
Node
p5053
(dp5054
g5019
S'k1'
p5055
sg5021
g5035
sg5022
S'VGF'
p5056
sg5024
I-1
sg38
I0
sg5025
(lp5057
sbsg5047
(issf_api
Node
p5058
(dp5059
g5019
S'r6'
p5060
sg5021
g5047
sg5022
S'NP5'
p5061
sg5024
I-1
sg38
I3
sg5025
(lp5062
S'NP3'
p5063
asbsg5036
(issf_api
Node
p5064
(dp5065
g5019
S'k2'
p5066
sg5021
g5036
sg5022
S'VGF'
p5067
sg5024
I-1
sg38
I6
sg5025
(lp5068
sbsg5063
(issf_api
Node
p5069
(dp5070
g5019
S'nmod'
p5071
sg5021
g5063
sg5022
S'NP4'
p5072
sg5024
I-1
sg38
I2
sg5025
(lp5073
S'NP2'
p5074
asbsg5074
(issf_api
Node
p5075
(dp5076
g5019
S'r6'
p5077
sg5021
g5074
sg5022
S'NP3'
p5078
sg5024
I-1
sg38
I1
sg5025
(lp5079
sbssS'chunkList'
p5080
(lp5081
(issf_api
Chunk
p5082
(dp5083
g5021
g23
sg38
I0
sS'chunkTag'
p5084
g43
sg39
I0
sg5012
(lp5085
I0
aI1
asg44
(issf_api
FeatureSet
p5086
(dp5087
g12
(dp5088
S'name'
p5089
g5035
sS'drel'
p5090
S'k1:VGF'
p5091
ssbsba(issf_api
Chunk
p5092
(dp5093
g5021
g97
sg38
I1
sg5084
g106
sg39
I0
sg5012
(lp5094
I2
aI3
aI4
asg44
(issf_api
FeatureSet
p5095
(dp5096
g12
(dp5097
S'name'
p5098
g5074
sS'drel'
p5099
S'r6:NP3'
p5100
ssbsba(issf_api
Chunk
p5101
(dp5102
g5021
g139
sg38
I2
sg5084
g148
sg39
I0
sg5012
(lp5103
I5
asg44
(issf_api
FeatureSet
p5104
(dp5105
g12
(dp5106
S'name'
p5107
g5063
sS'drel'
p5108
S'nmod:NP4'
p5109
ssbsba(issf_api
Chunk
p5110
(dp5111
g5021
g183
sg38
I3
sg5084
g196
sg39
I0
sg5012
(lp5112
I6
aI7
aI8
asg44
(issf_api
FeatureSet
p5113
(dp5114
g12
(dp5115
S'name'
p5116
g5047
sS'drel'
p5117
S'r6:NP5'
p5118
ssbsba(issf_api
Chunk
p5119
(dp5120
g5021
g290
sg38
I4
sg5084
g299
sg39
I0
sg5012
(lp5121
I9
aI10
aI11
aI12
aI13
asg44
(issf_api
FeatureSet
p5122
(dp5123
g12
(dp5124
S'name'
p5125
g5027
sS'drel'
p5126
S'k1:VGNF'
p5127
ssbsba(issf_api
Chunk
p5128
(dp5129
g5021
g330
sg38
I5
sg5084
g337
sg39
I0
sg5012
(lp5130
I14
aI15
asg44
(issf_api
FeatureSet
p5131
(dp5132
g12
(dp5133
S'name'
p5134
g5016
sS'drel'
p5135
S'vmod:VGF'
p5136
ssbsba(issf_api
Chunk
p5137
(dp5138
g5021
g368
sg38
I6
sg5084
g375
sg39
I0
sg5012
(lp5139
I16
aI17
asg44
(issf_api
FeatureSet
p5140
(dp5141
g12
(dp5142
S'name'
p5143
g5036
sS'drel'
p5144
S'k2:VGF'
p5145
ssbsba(issf_api
Chunk
p5146
(dp5147
g5021
g406
sg38
I7
sg5084
g411
sg39
I0
sg5012
(lp5148
I18
asg44
(issf_api
FeatureSet
p5149
(dp5150
g12
(dp5151
S'name'
p5152
g5033
sS'drel'
p5153
S'pof:VGF'
p5154
ssbsba(issf_api
Chunk
p5155
(dp5156
g5021
g425
sg38
I8
sg5084
g434
sg39
I0
sg5012
(lp5157
I19
aI20
aI21
asg44
(issf_api
FeatureSet
p5158
(dp5159
g12
(dp5160
S'name'
p5161
g5028
ssbsba(issf_api
Chunk
p5162
(dp5163
g5021
g482
sg38
I9
sg5084
g487
sg39
I0
sg5012
(lp5164
I22
asg44
(issf_api
FeatureSet
p5165
(dp5166
g12
(dp5167
S'name'
p5168
g5034
sS'drel'
p5169
S'rsym:VGF'
p5170
ssbsbasba(issf_api
Sentence
p5171
(dp5172
g5010
(lp5173
sg39
I1
sg5012
(lp5174
I23
aI24
aI25
aI26
aI27
aI28
aI29
aI30
aI31
aI32
aI33
aI34
aI35
aI36
aI37
aI38
aI39
aI40
aI41
aI42
aI43
aI44
aI45
aI46
aI47
aI48
asg5014
(dp5175
S'VGF2'
p5176
(issf_api
Node
p5177
(dp5178
g5019
S'ccof'
p5179
sg5021
g5176
sg5022
S'CCP'
p5180
sg5024
I-1
sg38
I8
sg5025
(lp5181
S'JJP'
p5182
aS'NP4'
p5183
aS'NP3'
p5184
aS'NP2'
p5185
asbsS'VGNF'
p5186
(issf_api
Node
p5187
(dp5188
g5019
S'vmod'
p5189
sg5021
g5186
sg5022
S'VGF3'
p5190
sg5024
I-1
sg38
I11
sg5025
(lp5191
S'NP5'
p5192
asbsS'VGNN'
p5193
(issf_api
Node
p5194
(dp5195
g5019
S'k1'
p5196
sg5021
g5193
sg5022
S'VGF'
p5197
sg5024
I-1
sg38
I1
sg5025
(lp5198
S'CCP'
p5199
aS'NP'
p5200
asbsS'VGF'
p5201
(issf_api
Node
p5202
(dp5203
g5019
g5031
sg5021
g5201
sg5022
g5031
sg5024
I-1
sg38
I2
sg5025
(lp5204
g5193
aS'BLK'
p5205
asbsS'VGF3'
p5206
(issf_api
Node
p5207
(dp5208
g5019
S'ccof'
p5209
sg5021
g5206
sg5022
S'CCP2'
p5210
sg5024
I-1
sg38
I15
sg5025
(lp5211
g5186
aS'NP8'
p5212
aS'NP6'
p5213
asbsg5199
(issf_api
Node
p5214
(dp5215
g5019
S'k2'
p5216
sg5021
g5199
sg5022
S'VGNN'
p5217
sg5024
I-1
sg38
I3
sg5025
(lp5218
g5176
asbsg5182
(issf_api
Node
p5219
(dp5220
g5019
S'pof'
p5221
sg5021
g5182
sg5022
S'VGF2'
p5222
sg5024
I-1
sg38
I7
sg5025
(lp5223
sbsg5192
(issf_api
Node
p5224
(dp5225
g5019
S'k7p'
p5226
sg5021
g5192
sg5022
S'VGNF'
p5227
sg5024
I-1
sg38
I10
sg5025
(lp5228
sbsg5212
(issf_api
Node
p5229
(dp5230
g5019
S'k1'
p5231
sg5021
g5212
sg5022
S'VGF3'
p5232
sg5024
I-1
sg38
I14
sg5025
(lp5233
S'NP7'
p5234
asbsg5205
(issf_api
Node
p5235
(dp5236
g5019
S'rsym'
p5237
sg5021
g5205
sg5022
S'VGF'
p5238
sg5024
I-1
sg38
I16
sg5025
(lp5239
sbsg5200
(issf_api
Node
p5240
(dp5241
g5019
S'k1'
p5242
sg5021
g5200
sg5022
S'VGNN'
p5243
sg5024
I-1
sg38
I0
sg5025
(lp5244
sbsg5183
(issf_api
Node
p5245
(dp5246
g5019
S'k2'
p5247
sg5021
g5183
sg5022
S'VGF2'
p5248
sg5024
I-1
sg38
I6
sg5025
(lp5249
S'CCP2'
p5250
asbsg5234
(issf_api
Node
p5251
(dp5252
g5019
S'r6'
p5253
sg5021
g5234
sg5022
S'NP8'
p5254
sg5024
I-1
sg38
I13
sg5025
(lp5255
sbsg5213
(issf_api
Node
p5256
(dp5257
g5019
S'k1s'
p5258
sg5021
g5213
sg5022
S'VGF3'
p5259
sg5024
I-1
sg38
I12
sg5025
(lp5260
sbsg5250
(issf_api
Node
p5261
(dp5262
g5019
S'rs'
p5263
sg5021
g5250
sg5022
S'NP4'
p5264
sg5024
I-1
sg38
I9
sg5025
(lp5265
g5206
asbsg5184
(issf_api
Node
p5266
(dp5267
g5019
S'k7t'
p5268
sg5021
g5184
sg5022
S'VGF2'
p5269
sg5024
I-1
sg38
I5
sg5025
(lp5270
sbsg5185
(issf_api
Node
p5271
(dp5272
g5019
S'k1'
p5273
sg5021
g5185
sg5022
S'VGF2'
p5274
sg5024
I-1
sg38
I4
sg5025
(lp5275
sbssg5080
(lp5276
(issf_api
Chunk
p5277
(dp5278
g5021
g503
sg38
I0
sg5084
g514
sg39
I1
sg5012
(lp5279
I23
aI24
asg44
(issf_api
FeatureSet
p5280
(dp5281
g12
(dp5282
S'name'
p5283
g5200
sS'drel'
p5284
S'k1:VGNN'
p5285
ssbsba(issf_api
Chunk
p5286
(dp5287
g5021
g545
sg38
I1
sg5084
g550
sg39
I1
sg5012
(lp5288
I25
asg44
(issf_api
FeatureSet
p5289
(dp5290
g12
(dp5291
S'name'
p5292
g5193
sS'drel'
p5293
S'k1:VGF'
p5294
ssbsba(issf_api
Chunk
p5295
(dp5296
g5021
g564
sg38
I2
sg5084
g571
sg39
I1
sg5012
(lp5297
I26
asg44
(issf_api
FeatureSet
p5298
(dp5299
g12
(dp5300
S'name'
p5301
g5201
ssbsba(issf_api
Chunk
p5302
(dp5303
g5021
g585
sg38
I3
sg5084
g590
sg39
I1
sg5012
(lp5304
I27
asg44
(issf_api
FeatureSet
p5305
(dp5306
g12
(dp5307
S'name'
p5308
g5199
sS'drel'
p5309
S'k2:VGNN'
p5310
ssbsba(issf_api
Chunk
p5311
(dp5312
g5021
g606
sg38
I4
sg5084
g615
sg39
I1
sg5012
(lp5313
I28
asg44
(issf_api
FeatureSet
p5314
(dp5315
g12
(dp5316
S'name'
p5317
g5185
sS'drel'
p5318
S'k1:VGF2'
p5319
ssbsba(issf_api
Chunk
p5320
(dp5321
g5021
g629
sg38
I5
sg5084
g634
sg39
I1
sg5012
(lp5322
I29
aI30
asg44
(issf_api
FeatureSet
p5323
(dp5324
g12
(dp5325
S'name'
p5326
g5184
sS'drel'
p5327
S'k7t:VGF2'
p5328
ssbsba(issf_api
Chunk
p5329
(dp5330
g5021
g667
sg38
I6
sg5084
g674
sg39
I1
sg5012
(lp5331
I31
asg44
(issf_api
FeatureSet
p5332
(dp5333
g12
(dp5334
S'name'
p5335
g5183
sS'drel'
p5336
S'k2:VGF2'
p5337
ssbsba(issf_api
Chunk
p5338
(dp5339
g5021
g688
sg38
I7
sg5084
g693
sg39
I1
sg5012
(lp5340
I32
asg44
(issf_api
FeatureSet
p5341
(dp5342
g12
(dp5343
S'name'
p5344
g5182
sS'drel'
p5345
S'pof:VGF2'
p5346
ssbsba(issf_api
Chunk
p5347
(dp5348
g5021
g707
sg38
I8
sg5084
g718
sg39
I1
sg5012
(lp5349
I33
aI34
aI35
asg44
(issf_api
FeatureSet
p5350
(dp5351
g12
(dp5352
S'name'
p5353
g5176
sS'drel'
p5354
S'ccof:CCP'
p5355
ssbsba(issf_api
Chunk
p5356
(dp5357
g5021
g766
sg38
I9
sg5084
g771
sg39
I1
sg5012
(lp5358
I36
asg44
(issf_api
FeatureSet
p5359
(dp5360
g12
(dp5361
S'name'
p5362
g5250
sS'drel'
p5363
S'rs:NP4'
p5364
ssbsba(issf_api
Chunk
p5365
(dp5366
g5021
g785
sg38
I10
sg5084
g794
sg39
I1
sg5012
(lp5367
I37
aI38
asg44
(issf_api
FeatureSet
p5368
(dp5369
g12
(dp5370
S'name'
p5371
g5192
sS'drel'
p5372
S'k7p:VGNF'
p5373
ssbsba(issf_api
Chunk
p5374
(dp5375
g5021
g827
sg38
I11
sg5084
g834
sg39
I1
sg5012
(lp5376
I39
asg44
(issf_api
FeatureSet
p5377
(dp5378
g12
(dp5379
S'name'
p5380
g5186
sS'drel'
p5381
S'vmod:VGF3'
p5382
ssbsba(issf_api
Chunk
p5383
(dp5384
g5021
g867
sg38
I12
sg5084
g876
sg39
I1
sg5012
(lp5385
I40
aI41
aI42
asg44
(issf_api
FeatureSet
p5386
(dp5387
g12
(dp5388
S'name'
p5389
g5213
sS'drel'
p5390
S'k1s:VGF3'
p5391
ssbsba(issf_api
Chunk
p5392
(dp5393
g5021
g911
sg38
I13
sg5084
g920
sg39
I1
sg5012
(lp5394
I43
asg44
(issf_api
FeatureSet
p5395
(dp5396
g12
(dp5397
S'name'
p5398
g5234
sS'drel'
p5399
S'r6:NP8'
p5400
ssbsba(issf_api
Chunk
p5401
(dp5402
g5021
g957
sg38
I14
sg5084
g964
sg39
I1
sg5012
(lp5403
I44
aI45
asg44
(issf_api
FeatureSet
p5404
(dp5405
g12
(dp5406
S'name'
p5407
g5212
sS'drel'
p5408
S'k1:VGF3'
p5409
ssbsba(issf_api
Chunk
p5410
(dp5411
g5021
g999
sg38
I15
sg5084
g1014
sg39
I1
sg5012
(lp5412
I46
aI47
asg44
(issf_api
FeatureSet
p5413
(dp5414
g12
(dp5415
S'name'
p5416
g5206
sS'drel'
p5417
S'ccof:CCP2'
p5418
ssbsba(issf_api
Chunk
p5419
(dp5420
g5021
g1028
sg38
I16
sg5084
g1033
sg39
I1
sg5012
(lp5421
I48
asg44
(issf_api
FeatureSet
p5422
(dp5423
g12
(dp5424
S'name'
p5425
g5205
sS'drel'
p5426
S'rsym:VGF'
p5427
ssbsbasba(issf_api
Sentence
p5428
(dp5429
g5010
(lp5430
sg39
I2
sg5012
(lp5431
I49
aI50
aI51
aI52
aI53
aI54
aI55
aI56
aI57
aI58
aI59
aI60
aI61
aI62
aI63
aI64
aI65
aI66
aI67
aI68
aI69
aI70
aI71
aI72
asg5014
(dp5432
S'NULL__CCP'
p5433
(issf_api
Node
p5434
(dp5435
g5019
g5031
sg5021
g5433
sg5022
g5031
sg5024
I-1
sg38
I-1
sg5025
(lp5436
S'VGF'
p5437
aS'VGF2'
p5438
aS'BLK'
p5439
asbsg5437
(issf_api
Node
p5440
(dp5441
g5019
S'ccof'
p5442
sg5021
g5437
sg5022
S'NULL__CCP'
p5443
sg5024
I-1
sg38
I4
sg5025
(lp5444
S'NP'
p5445
aS'NP4'
p5446
asbsg5438
(issf_api
Node
p5447
(dp5448
g5019
S'ccof'
p5449
sg5021
g5438
sg5022
S'NULL__CCP'
p5450
sg5024
I-1
sg38
I11
sg5025
(lp5451
S'JJP'
p5452
aS'JJP2'
p5453
aS'NP8'
p5454
aS'NP7'
p5455
asbsg5452
(issf_api
Node
p5456
(dp5457
g5019
S'adv'
p5458
sg5021
g5452
sg5022
S'VGF2'
p5459
sg5024
I-1
sg38
I9
sg5025
(lp5460
sbsS'NP5'
p5461
(issf_api
Node
p5462
(dp5463
g5019
S'r6'
p5464
sg5021
g5461
sg5022
S'NP8'
p5465
sg5024
I-1
sg38
I5
sg5025
(lp5466
sbsg5453
(issf_api
Node
p5467
(dp5468
g5019
S'pof'
p5469
sg5021
g5453
sg5022
S'VGF2'
p5470
sg5024
I-1
sg38
I10
sg5025
(lp5471
sbsg5454
(issf_api
Node
p5472
(dp5473
g5019
S'k7t'
p5474
sg5021
g5454
sg5022
S'VGF2'
p5475
sg5024
I-1
sg38
I8
sg5025
(lp5476
g5461
aS'NP6'
p5477
asbsg5439
(issf_api
Node
p5478
(dp5479
g5019
S'rsym'
p5480
sg5021
g5439
sg5022
S'NULL__CCP'
p5481
sg5024
I-1
sg38
I12
sg5025
(lp5482
sbsg5445
(issf_api
Node
p5483
(dp5484
g5019
S'sent-adv'
p5485
sg5021
g5445
sg5022
S'VGF'
p5486
sg5024
I-1
sg38
I0
sg5025
(lp5487
sbsg5446
(issf_api
Node
p5488
(dp5489
g5019
S'k2'
p5490
sg5021
g5446
sg5022
S'VGF'
p5491
sg5024
I-1
sg38
I3
sg5025
(lp5492
S'NP3'
p5493
asbsg5455
(issf_api
Node
p5494
(dp5495
g5019
S'k2'
p5496
sg5021
g5455
sg5022
S'VGF2'
p5497
sg5024
I-1
sg38
I7
sg5025
(lp5498
sbsg5477
(issf_api
Node
p5499
(dp5500
g5019
S'r6'
p5501
sg5021
g5477
sg5022
S'NP8'
p5502
sg5024
I-1
sg38
I6
sg5025
(lp5503
sbsg5493
(issf_api
Node
p5504
(dp5505
g5019
S'r6'
p5506
sg5021
g5493
sg5022
S'NP4'
p5507
sg5024
I-1
sg38
I2
sg5025
(lp5508
S'NP2'
p5509
asbsg5509
(issf_api
Node
p5510
(dp5511
g5019
S'r6'
p5512
sg5021
g5509
sg5022
S'NP3'
p5513
sg5024
I-1
sg38
I1
sg5025
(lp5514
sbssg5080
(lp5515
(issf_api
Chunk
p5516
(dp5517
g5021
g1049
sg38
I0
sg5084
g1060
sg39
I2
sg5012
(lp5518
I49
aI50
asg44
(issf_api
FeatureSet
p5519
(dp5520
g12
(dp5521
S'name'
p5522
g5445
sS'drel'
p5523
S'sent-adv:VGF'
p5524
ssbsba(issf_api
Chunk
p5525
(dp5526
g5021
g1093
sg38
I1
sg5084
g1104
sg39
I2
sg5012
(lp5527
I51
aI52
asg44
(issf_api
FeatureSet
p5528
(dp5529
g12
(dp5530
S'name'
p5531
g5509
sS'drel'
p5532
S'r6:NP3'
p5533
ssbsba(issf_api
Chunk
p5534
(dp5535
g5021
g1169
sg38
I2
sg5084
g1176
sg39
I2
sg5012
(lp5536
I53
aI54
aI55
aI56
asg44
(issf_api
FeatureSet
p5537
(dp5538
g12
(dp5539
S'name'
p5540
g5493
sS'drel'
p5541
S'r6:NP4'
p5542
ssbsba(issf_api
Chunk
p5543
(dp5544
g5021
g1207
sg38
I3
sg5084
g1212
sg39
I2
sg5012
(lp5545
I57
asg44
(issf_api
FeatureSet
p5546
(dp5547
g12
(dp5548
S'name'
p5549
g5446
sS'drel'
p5550
S'k2:VGF'
p5551
ssbsba(issf_api
Chunk
p5552
(dp5553
g5021
g1226
sg38
I4
sg5084
g1235
sg39
I2
sg5012
(lp5554
I58
aI59
asg44
(issf_api
FeatureSet
p5555
(dp5556
g12
(dp5557
S'name'
p5558
g5437
sS'drel'
p5559
S'ccof:NULL__CCP'
p5560
ssbsba(issf_api
Chunk
p5561
(dp5562
g5021
g1283
sg38
I5
sg5084
g1290
sg39
I2
sg5012
(lp5563
I60
aI61
aI62
asg44
(issf_api
FeatureSet
p5564
(dp5565
g12
(dp5566
S'name'
p5567
g5461
sS'drel'
p5568
S'r6:NP8'
p5569
ssbsba(issf_api
Chunk
p5570
(dp5571
g5021
g1323
sg38
I6
sg5084
g1332
sg39
I2
sg5012
(lp5572
I63
asg44
(issf_api
FeatureSet
p5573
(dp5574
g12
(dp5575
S'name'
p5576
g5477
sS'drel'
p5577
S'r6:NP8'
p5578
ssbsba(issf_api
Chunk
p5579
(dp5580
g5021
g1346
sg38
I7
sg5084
g1351
sg39
I2
sg5012
(lp5581
I64
asg44
(issf_api
FeatureSet
p5582
(dp5583
g12
(dp5584
S'name'
p5585
g5455
sS'drel'
p5586
S'k2:VGF2'
p5587
ssbsba(issf_api
Chunk
p5588
(dp5589
g5021
g1365
sg38
I8
sg5084
g1370
sg39
I2
sg5012
(lp5590
I65
aI66
asg44
(issf_api
FeatureSet
p5591
(dp5592
g12
(dp5593
S'name'
p5594
g5454
sS'drel'
p5595
S'k7t:VGF2'
p5596
ssbsba(issf_api
Chunk
p5597
(dp5598
g5021
g1401
sg38
I9
sg5084
g1406
sg39
I2
sg5012
(lp5599
I67
asg44
(issf_api
FeatureSet
p5600
(dp5601
g12
(dp5602
S'name'
p5603
g5452
sS'drel'
p5604
S'adv:VGF2'
p5605
ssbsba(issf_api
Chunk
p5606
(dp5607
g5021
g1420
sg38
I10
sg5084
g1425
sg39
I2
sg5012
(lp5608
I68
asg44
(issf_api
FeatureSet
p5609
(dp5610
g12
(dp5611
S'name'
p5612
g5453
sS'drel'
p5613
S'pof:VGF2'
p5614
ssbsba(issf_api
Chunk
p5615
(dp5616
g5021
g1439
sg38
I11
sg5084
g1450
sg39
I2
sg5012
(lp5617
I69
aI70
aI71
asg44
(issf_api
FeatureSet
p5618
(dp5619
g12
(dp5620
S'name'
p5621
g5438
sS'drel'
p5622
S'ccof:NULL__CCP'
p5623
ssbsba(issf_api
Chunk
p5624
(dp5625
g5021
g1498
sg38
I12
sg5084
g1503
sg39
I2
sg5012
(lp5626
I72
asg44
(issf_api
FeatureSet
p5627
(dp5628
g12
(dp5629
S'name'
p5630
g5439
sS'drel'
p5631
S'rsym:NULL__CCP'
p5632
ssbsbasba(issf_api
Sentence
p5633
(dp5634
g5010
(lp5635
sg39
I3
sg5012
(lp5636
I73
aI74
aI75
aI76
aI77
aI78
aI79
aI80
aI81
aI82
aI83
aI84
aI85
aI86
aI87
aI88
aI89
aI90
asg5014
(dp5637
S'VGF'
p5638
(issf_api
Node
p5639
(dp5640
g5019
g5031
sg5021
g5638
sg5022
g5031
sg5024
I-1
sg38
I2
sg5025
(lp5641
S'CCP'
p5642
aS'BLK'
p5643
aS'NP2'
p5644
asbsg5642
(issf_api
Node
p5645
(dp5646
g5019
S'k2'
p5647
sg5021
g5642
sg5022
S'VGF'
p5648
sg5024
I-1
sg38
I3
sg5025
(lp5649
S'VGF2'
p5650
asbsg5650
(issf_api
Node
p5651
(dp5652
g5019
S'ccof'
p5653
sg5021
g5650
sg5022
S'CCP'
p5654
sg5024
I-1
sg38
I8
sg5025
(lp5655
S'NP4'
p5656
aS'NP6'
p5657
aS'NP3'
p5658
asbsS'NP5'
p5659
(issf_api
Node
p5660
(dp5661
g5019
S'r6'
p5662
sg5021
g5659
sg5022
S'NP6'
p5663
sg5024
I-1
sg38
I6
sg5025
(lp5664
sbsg5643
(issf_api
Node
p5665
(dp5666
g5019
S'rsym'
p5667
sg5021
g5643
sg5022
S'VGF'
p5668
sg5024
I-1
sg38
I9
sg5025
(lp5669
sbsS'NP'
p5670
(issf_api
Node
p5671
(dp5672
g5019
S'nmod'
p5673
sg5021
g5670
sg5022
S'NP2'
p5674
sg5024
I-1
sg38
I0
sg5025
(lp5675
sbsg5656
(issf_api
Node
p5676
(dp5677
g5019
S'k7t'
p5678
sg5021
g5656
sg5022
S'VGF2'
p5679
sg5024
I-1
sg38
I5
sg5025
(lp5680
sbsg5657
(issf_api
Node
p5681
(dp5682
g5019
S'k2'
p5683
sg5021
g5657
sg5022
S'VGF2'
p5684
sg5024
I-1
sg38
I7
sg5025
(lp5685
g5659
asbsg5658
(issf_api
Node
p5686
(dp5687
g5019
S'k1'
p5688
sg5021
g5658
sg5022
S'VGF2'
p5689
sg5024
I-1
sg38
I4
sg5025
(lp5690
sbsg5644
(issf_api
Node
p5691
(dp5692
g5019
S'k1'
p5693
sg5021
g5644
sg5022
S'VGF'
p5694
sg5024
I-1
sg38
I1
sg5025
(lp5695
g5670
asbssg5080
(lp5696
(issf_api
Chunk
p5697
(dp5698
g5021
g1542
sg38
I0
sg5084
g1549
sg39
I3
sg5012
(lp5699
I73
aI74
asg44
(issf_api
FeatureSet
p5700
(dp5701
g12
(dp5702
S'name'
p5703
g5670
sS'drel'
p5704
S'nmod:NP2'
p5705
ssbsba(issf_api
Chunk
p5706
(dp5707
g5021
g1584
sg38
I1
sg5084
g1597
sg39
I3
sg5012
(lp5708
I75
aI76
aI77
asg44
(issf_api
FeatureSet
p5709
(dp5710
g12
(dp5711
S'name'
p5712
g5644
sS'drel'
p5713
S'k1:VGF'
p5714
ssbsba(issf_api
Chunk
p5715
(dp5716
g5021
g1628
sg38
I2
sg5084
g1635
sg39
I3
sg5012
(lp5717
I78
asg44
(issf_api
FeatureSet
p5718
(dp5719
g12
(dp5720
S'name'
p5721
g5638
ssbsba(issf_api
Chunk
p5722
(dp5723
g5021
g1649
sg38
I3
sg5084
g1654
sg39
I3
sg5012
(lp5724
I79
asg44
(issf_api
FeatureSet
p5725
(dp5726
g12
(dp5727
S'name'
p5728
g5642
sS'drel'
p5729
S'k2:VGF'
p5730
ssbsba(issf_api
Chunk
p5731
(dp5732
g5021
g1670
sg38
I4
sg5084
g1679
sg39
I3
sg5012
(lp5733
I80
asg44
(issf_api
FeatureSet
p5734
(dp5735
g12
(dp5736
S'name'
p5737
g5658
sS'drel'
p5738
S'k1:VGF2'
p5739
ssbsba(issf_api
Chunk
p5740
(dp5741
g5021
g1693
sg38
I5
sg5084
g1698
sg39
I3
sg5012
(lp5742
I81
aI82
asg44
(issf_api
FeatureSet
p5743
(dp5744
g12
(dp5745
S'name'
p5746
g5656
sS'drel'
p5747
S'k7t:VGF2'
p5748
ssbsba(issf_api
Chunk
p5749
(dp5750
g5021
g1746
sg38
I6
sg5084
g1753
sg39
I3
sg5012
(lp5751
I83
aI84
aI85
asg44
(issf_api
FeatureSet
p5752
(dp5753
g12
(dp5754
S'name'
p5755
g5659
sS'drel'
p5756
S'r6:NP6'
p5757
ssbsba(issf_api
Chunk
p5758
(dp5759
g5021
g1784
sg38
I7
sg5084
g1789
sg39
I3
sg5012
(lp5760
I86
asg44
(issf_api
FeatureSet
p5761
(dp5762
g12
(dp5763
S'name'
p5764
g5657
sS'drel'
p5765
S'k2:VGF2'
p5766
ssbsba(issf_api
Chunk
p5767
(dp5768
g5021
g1803
sg38
I8
sg5084
g1814
sg39
I3
sg5012
(lp5769
I87
aI88
aI89
asg44
(issf_api
FeatureSet
p5770
(dp5771
g12
(dp5772
S'name'
p5773
g5650
sS'drel'
p5774
S'ccof:CCP'
p5775
ssbsba(issf_api
Chunk
p5776
(dp5777
g5021
g1862
sg38
I9
sg5084
g1867
sg39
I3
sg5012
(lp5778
I90
asg44
(issf_api
FeatureSet
p5779
(dp5780
g12
(dp5781
S'name'
p5782
g5643
sS'drel'
p5783
S'rsym:VGF'
p5784
ssbsbasba(issf_api
Sentence
p5785
(dp5786
g5010
(lp5787
sg39
I4
sg5012
(lp5788
I91
aI92
aI93
aI94
aI95
aI96
aI97
aI98
aI99
aI100
aI101
aI102
aI103
aI104
aI105
aI106
aI107
asg5014
(dp5789
S'VGF'
p5790
(issf_api
Node
p5791
(dp5792
g5019
g5031
sg5021
g5790
sg5022
g5031
sg5024
I-1
sg38
I7
sg5025
(lp5793
S'RBP'
p5794
aS'NP5'
p5795
aS'BLK'
p5796
aS'NP'
p5797
aS'JJP'
p5798
aS'NP3'
p5799
aS'NP2'
p5800
asbsg5794
(issf_api
Node
p5801
(dp5802
g5019
S'adv'
p5803
sg5021
g5794
sg5022
S'VGF'
p5804
sg5024
I-1
sg38
I2
sg5025
(lp5805
sbsg5795
(issf_api
Node
p5806
(dp5807
g5019
S'k3'
p5808
sg5021
g5795
sg5022
S'VGF'
p5809
sg5024
I-1
sg38
I5
sg5025
(lp5810
S'NP4'
p5811
asbsg5796
(issf_api
Node
p5812
(dp5813
g5019
S'rsym'
p5814
sg5021
g5796
sg5022
S'VGF'
p5815
sg5024
I-1
sg38
I8
sg5025
(lp5816
sbsg5797
(issf_api
Node
p5817
(dp5818
g5019
S'k7a'
p5819
sg5021
g5797
sg5022
S'VGF'
p5820
sg5024
I-1
sg38
I0
sg5025
(lp5821
sbsg5811
(issf_api
Node
p5822
(dp5823
g5019
S'r6'
p5824
sg5021
g5811
sg5022
S'NP5'
p5825
sg5024
I-1
sg38
I4
sg5025
(lp5826
sbsg5798
(issf_api
Node
p5827
(dp5828
g5019
S'pof'
p5829
sg5021
g5798
sg5022
S'VGF'
p5830
sg5024
I-1
sg38
I6
sg5025
(lp5831
sbsg5799
(issf_api
Node
p5832
(dp5833
g5019
S'k4'
p5834
sg5021
g5799
sg5022
S'VGF'
p5835
sg5024
I-1
sg38
I3
sg5025
(lp5836
sbsg5800
(issf_api
Node
p5837
(dp5838
g5019
S'k1'
p5839
sg5021
g5800
sg5022
S'VGF'
p5840
sg5024
I-1
sg38
I1
sg5025
(lp5841
sbssg5080
(lp5842
(issf_api
Chunk
p5843
(dp5844
g5021
g1900
sg38
I0
sg5084
g1911
sg39
I4
sg5012
(lp5845
I91
aI92
aI93
asg44
(issf_api
FeatureSet
p5846
(dp5847
g12
(dp5848
S'name'
p5849
g5797
sS'drel'
p5850
S'k7a:VGF'
p5851
ssbsba(issf_api
Chunk
p5852
(dp5853
g5021
g1943
sg38
I1
sg5084
g1954
sg39
I4
sg5012
(lp5854
I94
aI95
asg44
(issf_api
FeatureSet
p5855
(dp5856
g12
(dp5857
S'name'
p5858
g5800
sS'drel'
p5859
S'k1:VGF'
p5860
ssbsba(issf_api
Chunk
p5861
(dp5862
g5021
g1985
sg38
I2
sg5084
g1990
sg39
I4
sg5012
(lp5863
I96
asg44
(issf_api
FeatureSet
p5864
(dp5865
g12
(dp5866
S'name'
p5867
g5794
sS'drel'
p5868
S'adv:VGF'
p5869
ssbsba(issf_api
Chunk
p5870
(dp5871
g5021
g2004
sg38
I3
sg5084
g2011
sg39
I4
sg5012
(lp5872
I97
aI98
asg44
(issf_api
FeatureSet
p5873
(dp5874
g12
(dp5875
S'name'
p5876
g5799
sS'drel'
p5877
S'k4:VGF'
p5878
ssbsba(issf_api
Chunk
p5879
(dp5880
g5021
g2059
sg38
I4
sg5084
g2066
sg39
I4
sg5012
(lp5881
I99
aI100
aI101
asg44
(issf_api
FeatureSet
p5882
(dp5883
g12
(dp5884
S'name'
p5885
g5811
sS'drel'
p5886
S'r6:NP5'
p5887
ssbsba(issf_api
Chunk
p5888
(dp5889
g5021
g2097
sg38
I5
sg5084
g2104
sg39
I4
sg5012
(lp5890
I102
aI103
asg44
(issf_api
FeatureSet
p5891
(dp5892
g12
(dp5893
S'name'
p5894
g5795
sS'drel'
p5895
S'k3:VGF'
p5896
ssbsba(issf_api
Chunk
p5897
(dp5898
g5021
g2135
sg38
I6
sg5084
g2140
sg39
I4
sg5012
(lp5899
I104
asg44
(issf_api
FeatureSet
p5900
(dp5901
g12
(dp5902
S'name'
p5903
g5798
sS'drel'
p5904
S'pof:VGF'
p5905
ssbsba(issf_api
Chunk
p5906
(dp5907
g5021
g2154
sg38
I7
sg5084
g2163
sg39
I4
sg5012
(lp5908
I105
aI106
asg44
(issf_api
FeatureSet
p5909
(dp5910
g12
(dp5911
S'name'
p5912
g5790
ssbsba(issf_api
Chunk
p5913
(dp5914
g5021
g2194
sg38
I8
sg5084
g2199
sg39
I4
sg5012
(lp5915
I107
asg44
(issf_api
FeatureSet
p5916
(dp5917
g12
(dp5918
S'name'
p5919
g5796
sS'drel'
p5920
S'rsym:VGF'
p5921
ssbsbasba(issf_api
Sentence
p5922
(dp5923
g5010
(lp5924
sg39
I5
sg5012
(lp5925
I108
aI109
aI110
aI111
aI112
aI113
aI114
aI115
aI116
aI117
aI118
aI119
aI120
aI121
aI122
asg5014
(dp5926
S'VGF'
p5927
(issf_api
Node
p5928
(dp5929
g5019
g5031
sg5021
g5927
sg5022
g5031
sg5024
I-1
sg38
I2
sg5025
(lp5930
S'CCP'
p5931
aS'BLK'
p5932
aS'NP'
p5933
aS'NP2'
p5934
asbsg5931
(issf_api
Node
p5935
(dp5936
g5019
S'k2'
p5937
sg5021
g5931
sg5022
S'VGF'
p5938
sg5024
I-1
sg38
I3
sg5025
(lp5939
S'VGF2'
p5940
asbsg5940
(issf_api
Node
p5941
(dp5942
g5019
S'ccof'
p5943
sg5021
g5940
sg5022
S'CCP'
p5944
sg5024
I-1
sg38
I7
sg5025
(lp5945
S'NP5'
p5946
aS'NP4'
p5947
asbsg5946
(issf_api
Node
p5948
(dp5949
g5019
S'pof'
p5950
sg5021
g5946
sg5022
S'VGF2'
p5951
sg5024
I-1
sg38
I6
sg5025
(lp5952
sbsg5932
(issf_api
Node
p5953
(dp5954
g5019
S'rsym'
p5955
sg5021
g5932
sg5022
S'VGF'
p5956
sg5024
I-1
sg38
I8
sg5025
(lp5957
sbsg5933
(issf_api
Node
p5958
(dp5959
g5019
S'k1'
p5960
sg5021
g5933
sg5022
S'VGF'
p5961
sg5024
I-1
sg38
I0
sg5025
(lp5962
sbsg5947
(issf_api
Node
p5963
(dp5964
g5019
S'k2'
p5965
sg5021
g5947
sg5022
S'VGF2'
p5966
sg5024
I-1
sg38
I5
sg5025
(lp5967
S'NP3'
p5968
asbsg5968
(issf_api
Node
p5969
(dp5970
g5019
S'r6'
p5971
sg5021
g5968
sg5022
S'NP4'
p5972
sg5024
I-1
sg38
I4
sg5025
(lp5973
sbsg5934
(issf_api
Node
p5974
(dp5975
g5019
S'pof'
p5976
sg5021
g5934
sg5022
S'VGF'
p5977
sg5024
I-1
sg38
I1
sg5025
(lp5978
sbssg5080
(lp5979
(issf_api
Chunk
p5980
(dp5981
g5021
g2215
sg38
I0
sg5084
g2224
sg39
I5
sg5012
(lp5982
I108
asg44
(issf_api
FeatureSet
p5983
(dp5984
g12
(dp5985
S'name'
p5986
g5933
sS'drel'
p5987
S'k1:VGF'
p5988
ssbsba(issf_api
Chunk
p5989
(dp5990
g5021
g2238
sg38
I1
sg5084
g2243
sg39
I5
sg5012
(lp5991
I109
asg44
(issf_api
FeatureSet
p5992
(dp5993
g12
(dp5994
S'name'
p5995
g5934
sS'drel'
p5996
S'pof:VGF'
p5997
ssbsba(issf_api
Chunk
p5998
(dp5999
g5021
g2257
sg38
I2
sg5084
g2264
sg39
I5
sg5012
(lp6000
I110
asg44
(issf_api
FeatureSet
p6001
(dp6002
g12
(dp6003
S'name'
p6004
g5927
ssbsba(issf_api
Chunk
p6005
(dp6006
g5021
g2278
sg38
I3
sg5084
g2283
sg39
I5
sg5012
(lp6007
I111
asg44
(issf_api
FeatureSet
p6008
(dp6009
g12
(dp6010
S'name'
p6011
g5931
sS'drel'
p6012
S'k2:VGF'
p6013
ssbsba(issf_api
Chunk
p6014
(dp6015
g5021
g2297
sg38
I4
sg5084
g2302
sg39
I5
sg5012
(lp6016
I112
asg44
(issf_api
FeatureSet
p6017
(dp6018
g12
(dp6019
S'name'
p6020
g5968
sS'drel'
p6021
S'r6:NP4'
p6022
ssbsba(issf_api
Chunk
p6023
(dp6024
g5021
g2367
sg38
I5
sg5084
g2374
sg39
I5
sg5012
(lp6025
I113
aI114
aI115
aI116
aI117
aI118
asg44
(issf_api
FeatureSet
p6026
(dp6027
g12
(dp6028
S'name'
p6029
g5947
sS'drel'
p6030
S'k2:VGF2'
p6031
ssbsba(issf_api
Chunk
p6032
(dp6033
g5021
g2439
sg38
I6
sg5084
g2444
sg39
I5
sg5012
(lp6034
I119
aI120
asg44
(issf_api
FeatureSet
p6035
(dp6036
g12
(dp6037
S'name'
p6038
g5946
sS'drel'
p6039
S'pof:VGF2'
p6040
ssbsba(issf_api
Chunk
p6041
(dp6042
g5021
g2458
sg38
I7
sg5084
g2467
sg39
I5
sg5012
(lp6043
I121
asg44
(issf_api
FeatureSet
p6044
(dp6045
g12
(dp6046
S'name'
p6047
g5940
sS'drel'
p6048
S'ccof:CCP'
p6049
ssbsba(issf_api
Chunk
p6050
(dp6051
g5021
g2481
sg38
I8
sg5084
g2486
sg39
I5
sg5012
(lp6052
I122
asg44
(issf_api
FeatureSet
p6053
(dp6054
g12
(dp6055
S'name'
p6056
g5932
sS'drel'
p6057
S'rsym:VGF'
p6058
ssbsbasba(issf_api
Sentence
p6059
(dp6060
g5010
(lp6061
sg39
I6
sg5012
(lp6062
I123
aI124
aI125
aI126
aI127
aI128
aI129
aI130
aI131
aI132
aI133
aI134
aI135
aI136
aI137
aI138
aI139
aI140
aI141
aI142
aI143
aI144
aI145
aI146
aI147
aI148
asg5014
(dp6063
S'VGF'
p6064
(issf_api
Node
p6065
(dp6066
g5019
g5031
sg5021
g6064
sg5022
g5031
sg5024
I-1
sg38
I3
sg5025
(lp6067
S'BLK'
p6068
aS'NP'
p6069
aS'NP3'
p6070
aS'NP2'
p6071
asbsS'CCP'
p6072
(issf_api
Node
p6073
(dp6074
g5019
S'rs'
p6075
sg5021
g6072
sg5022
S'NP2'
p6076
sg5024
I-1
sg38
I4
sg5025
(lp6077
S'VGF2'
p6078
asbsg6078
(issf_api
Node
p6079
(dp6080
g5019
S'ccof'
p6081
sg5021
g6078
sg5022
S'CCP'
p6082
sg5024
I-1
sg38
I9
sg5025
(lp6083
S'NP5'
p6084
aS'NP7'
p6085
aS'NP6'
p6086
asbsg6084
(issf_api
Node
p6087
(dp6088
g5019
S'k1'
p6089
sg5021
g6084
sg5022
S'VGF2'
p6090
sg5024
I-1
sg38
I6
sg5025
(lp6091
S'NP4'
p6092
asbsg6068
(issf_api
Node
p6093
(dp6094
g5019
S'rsym'
p6095
sg5021
g6068
sg5022
S'VGF'
p6096
sg5024
I-1
sg38
I10
sg5025
(lp6097
sbsg6069
(issf_api
Node
p6098
(dp6099
g5019
S'k1'
p6100
sg5021
g6069
sg5022
S'VGF'
p6101
sg5024
I-1
sg38
I0
sg5025
(lp6102
sbsg6092
(issf_api
Node
p6103
(dp6104
g5019
S'r6'
p6105
sg5021
g6092
sg5022
S'NP5'
p6106
sg5024
I-1
sg38
I5
sg5025
(lp6107
sbsg6085
(issf_api
Node
p6108
(dp6109
g5019
S'pof'
p6110
sg5021
g6085
sg5022
S'VGF2'
p6111
sg5024
I-1
sg38
I8
sg5025
(lp6112
sbsg6086
(issf_api
Node
p6113
(dp6114
g5019
S'k2'
p6115
sg5021
g6086
sg5022
S'VGF2'
p6116
sg5024
I-1
sg38
I7
sg5025
(lp6117
sbsg6070
(issf_api
Node
p6118
(dp6119
g5019
S'pof'
p6120
sg5021
g6070
sg5022
S'VGF'
p6121
sg5024
I-1
sg38
I2
sg5025
(lp6122
sbsg6071
(issf_api
Node
p6123
(dp6124
g5019
S'k2'
p6125
sg5021
g6071
sg5022
S'VGF'
p6126
sg5024
I-1
sg38
I1
sg5025
(lp6127
g6072
asbssg5080
(lp6128
(issf_api
Chunk
p6129
(dp6130
g5021
g2502
sg38
I0
sg5084
g2513
sg39
I6
sg5012
(lp6131
I123
aI124
asg44
(issf_api
FeatureSet
p6132
(dp6133
g12
(dp6134
S'name'
p6135
g6069
sS'drel'
p6136
S'k1:VGF'
p6137
ssbsba(issf_api
Chunk
p6138
(dp6139
g5021
g2561
sg38
I1
sg5084
g2568
sg39
I6
sg5012
(lp6140
I125
aI126
aI127
aI128
asg44
(issf_api
FeatureSet
p6141
(dp6142
g12
(dp6143
S'name'
p6144
g6071
sS'drel'
p6145
S'k2:VGF'
p6146
ssbsba(issf_api
Chunk
p6147
(dp6148
g5021
g2633
sg38
I2
sg5084
g2638
sg39
I6
sg5012
(lp6149
I129
aI130
asg44
(issf_api
FeatureSet
p6150
(dp6151
g12
(dp6152
S'name'
p6153
g6070
sS'drel'
p6154
S'pof:VGF'
p6155
ssbsba(issf_api
Chunk
p6156
(dp6157
g5021
g2652
sg38
I3
sg5084
g2659
sg39
I6
sg5012
(lp6158
I131
asg44
(issf_api
FeatureSet
p6159
(dp6160
g12
(dp6161
S'name'
p6162
g6064
ssbsba(issf_api
Chunk
p6163
(dp6164
g5021
g2673
sg38
I4
sg5084
g2678
sg39
I6
sg5012
(lp6165
I132
asg44
(issf_api
FeatureSet
p6166
(dp6167
g12
(dp6168
S'name'
p6169
g6072
sS'drel'
p6170
S'rs:NP2'
p6171
ssbsba(issf_api
Chunk
p6172
(dp6173
g5021
g2713
sg38
I5
sg5084
g2724
sg39
I6
sg5012
(lp6174
I133
aI134
aI135
asg44
(issf_api
FeatureSet
p6175
(dp6176
g12
(dp6177
S'name'
p6178
g6092
sS'drel'
p6179
S'r6:NP5'
p6180
ssbsba(issf_api
Chunk
p6181
(dp6182
g5021
g2795
sg38
I6
sg5084
g2802
sg39
I6
sg5012
(lp6183
I136
aI137
aI138
aI139
asg44
(issf_api
FeatureSet
p6184
(dp6185
g12
(dp6186
S'name'
p6187
g6084
sS'drel'
p6188
S'k1:VGF2'
p6189
ssbsba(issf_api
Chunk
p6190
(dp6191
g5021
g2896
sg38
I7
sg5084
g2909
sg39
I6
sg5012
(lp6192
I140
aI141
aI142
aI143
aI144
asg44
(issf_api
FeatureSet
p6193
(dp6194
g12
(dp6195
S'name'
p6196
g6086
sS'drel'
p6197
S'k2:VGF2'
p6198
ssbsba(issf_api
Chunk
p6199
(dp6200
g5021
g2940
sg38
I8
sg5084
g2945
sg39
I6
sg5012
(lp6201
I145
asg44
(issf_api
FeatureSet
p6202
(dp6203
g12
(dp6204
S'name'
p6205
g6085
sS'drel'
p6206
S'pof:VGF2'
p6207
ssbsba(issf_api
Chunk
p6208
(dp6209
g5021
g2959
sg38
I9
sg5084
g2970
sg39
I6
sg5012
(lp6210
I146
aI147
asg44
(issf_api
FeatureSet
p6211
(dp6212
g12
(dp6213
S'name'
p6214
g6078
sS'drel'
p6215
S'ccof:CCP'
p6216
ssbsba(issf_api
Chunk
p6217
(dp6218
g5021
g3001
sg38
I10
sg5084
g3006
sg39
I6
sg5012
(lp6219
I148
asg44
(issf_api
FeatureSet
p6220
(dp6221
g12
(dp6222
S'name'
p6223
g6068
sS'drel'
p6224
S'rsym:VGF'
p6225
ssbsbasba(issf_api
Sentence
p6226
(dp6227
g5010
(lp6228
sg39
I7
sg5012
(lp6229
I149
aI150
aI151
aI152
aI153
aI154
aI155
aI156
aI157
aI158
aI159
aI160
aI161
asg5014
(dp6230
S'VGF'
p6231
(issf_api
Node
p6232
(dp6233
g5019
g5031
sg5021
g6231
sg5022
g5031
sg5024
I-1
sg38
I1
sg5025
(lp6234
S'CCP'
p6235
aS'BLK'
p6236
aS'NP'
p6237
asbsS'VGF2'
p6238
(issf_api
Node
p6239
(dp6240
g5019
S'ccof'
p6241
sg5021
g6238
sg5022
S'CCP'
p6242
sg5024
I-1
sg38
I5
sg5025
(lp6243
S'NP3'
p6244
aS'NP2'
p6245
asbsg6235
(issf_api
Node
p6246
(dp6247
g5019
S'k2'
p6248
sg5021
g6235
sg5022
S'VGF'
p6249
sg5024
I-1
sg38
I2
sg5025
(lp6250
g6238
asbsg6236
(issf_api
Node
p6251
(dp6252
g5019
S'rsym'
p6253
sg5021
g6236
sg5022
S'VGF'
p6254
sg5024
I-1
sg38
I6
sg5025
(lp6255
sbsg6237
(issf_api
Node
p6256
(dp6257
g5019
S'k1'
p6258
sg5021
g6237
sg5022
S'VGF'
p6259
sg5024
I-1
sg38
I0
sg5025
(lp6260
sbsg6244
(issf_api
Node
p6261
(dp6262
g5019
S'k1'
p6263
sg5021
g6244
sg5022
S'VGF2'
p6264
sg5024
I-1
sg38
I4
sg5025
(lp6265
sbsg6245
(issf_api
Node
p6266
(dp6267
g5019
S'k7'
p6268
sg5021
g6245
sg5022
S'VGF2'
p6269
sg5024
I-1
sg38
I3
sg5025
(lp6270
sbssg5080
(lp6271
(issf_api
Chunk
p6272
(dp6273
g5021
g3041
sg38
I0
sg5084
g3052
sg39
I7
sg5012
(lp6274
I149
aI150
aI151
asg44
(issf_api
FeatureSet
p6275
(dp6276
g12
(dp6277
S'name'
p6278
g6237
sS'drel'
p6279
S'k1:VGF'
p6280
ssbsba(issf_api
Chunk
p6281
(dp6282
g5021
g3083
sg38
I1
sg5084
g3090
sg39
I7
sg5012
(lp6283
I152
asg44
(issf_api
FeatureSet
p6284
(dp6285
g12
(dp6286
S'name'
p6287
g6231
ssbsba(issf_api
Chunk
p6288
(dp6289
g5021
g3104
sg38
I2
sg5084
g3109
sg39
I7
sg5012
(lp6290
I153
asg44
(issf_api
FeatureSet
p6291
(dp6292
g12
(dp6293
S'name'
p6294
g6235
sS'drel'
p6295
S'k2:VGF'
p6296
ssbsba(issf_api
Chunk
p6297
(dp6298
g5021
g3140
sg38
I3
sg5084
g3147
sg39
I7
sg5012
(lp6299
I154
aI155
aI156
asg44
(issf_api
FeatureSet
p6300
(dp6301
g12
(dp6302
S'name'
p6303
g6245
sS'drel'
p6304
S'k7:VGF2'
p6305
ssbsba(issf_api
Chunk
p6306
(dp6307
g5021
g3201
sg38
I4
sg5084
g3206
sg39
I7
sg5012
(lp6308
I157
aI158
asg44
(issf_api
FeatureSet
p6309
(dp6310
g12
(dp6311
S'name'
p6312
g6244
sS'drel'
p6313
S'k1:VGF2'
p6314
ssbsba(issf_api
Chunk
p6315
(dp6316
g5021
g3237
sg38
I5
sg5084
g3246
sg39
I7
sg5012
(lp6317
I159
aI160
asg44
(issf_api
FeatureSet
p6318
(dp6319
g12
(dp6320
S'name'
p6321
g6238
sS'drel'
p6322
S'ccof:CCP'
p6323
ssbsba(issf_api
Chunk
p6324
(dp6325
g5021
g3260
sg38
I6
sg5084
g3265
sg39
I7
sg5012
(lp6326
I161
asg44
(issf_api
FeatureSet
p6327
(dp6328
g12
(dp6329
S'name'
p6330
g6236
sS'drel'
p6331
S'rsym:VGF'
p6332
ssbsbasba(issf_api
Sentence
p6333
(dp6334
g5010
(lp6335
sg39
I8
sg5012
(lp6336
I162
aI163
aI164
aI165
aI166
aI167
aI168
aI169
aI170
aI171
aI172
aI173
aI174
aI175
aI176
aI177
aI178
aI179
aI180
aI181
aI182
asg5014
(dp6337
S'VGNF'
p6338
(issf_api
Node
p6339
(dp6340
g5019
S'nmod__k1inv'
p6341
sg5021
g6338
sg5022
S'NP3'
p6342
sg5024
I-1
sg38
I2
sg5025
(lp6343
S'NP2'
p6344
asbsS'VGF'
p6345
(issf_api
Node
p6346
(dp6347
g5019
g5031
sg5021
g6345
sg5022
g5031
sg5024
I-1
sg38
I7
sg5025
(lp6348
S'NP5'
p6349
aS'BLK'
p6350
aS'NP4'
p6351
aS'NP6'
p6352
asbsg6349
(issf_api
Node
p6353
(dp6354
g5019
S'k4'
p6355
sg5021
g6349
sg5022
S'VGF'
p6356
sg5024
I-1
sg38
I5
sg5025
(lp6357
sbsg6350
(issf_api
Node
p6358
(dp6359
g5019
S'rsym'
p6360
sg5021
g6350
sg5022
S'VGF'
p6361
sg5024
I-1
sg38
I8
sg5025
(lp6362
sbsS'NP'
p6363
(issf_api
Node
p6364
(dp6365
g5019
S'r6'
p6366
sg5021
g6363
sg5022
S'NP2'
p6367
sg5024
I-1
sg38
I0
sg5025
(lp6368
sbsg6351
(issf_api
Node
p6369
(dp6370
g5019
S'k1'
p6371
sg5021
g6351
sg5022
S'VGF'
p6372
sg5024
I-1
sg38
I4
sg5025
(lp6373
S'NP3'
p6374
asbsg6352
(issf_api
Node
p6375
(dp6376
g5019
S'k2'
p6377
sg5021
g6352
sg5022
S'VGF'
p6378
sg5024
I-1
sg38
I6
sg5025
(lp6379
sbsg6374
(issf_api
Node
p6380
(dp6381
g5019
S'r6'
p6382
sg5021
g6374
sg5022
S'NP4'
p6383
sg5024
I-1
sg38
I3
sg5025
(lp6384
g6338
asbsg6344
(issf_api
Node
p6385
(dp6386
g5019
S'pof'
p6387
sg5021
g6344
sg5022
S'VGNF'
p6388
sg5024
I-1
sg38
I1
sg5025
(lp6389
g6363
asbssg5080
(lp6390
(issf_api
Chunk
p6391
(dp6392
g5021
g3296
sg38
I0
sg5084
g3303
sg39
I8
sg5012
(lp6393
I162
aI163
aI164
asg44
(issf_api
FeatureSet
p6394
(dp6395
g12
(dp6396
S'name'
p6397
g6363
sS'drel'
p6398
S'r6:NP2'
p6399
ssbsba(issf_api
Chunk
p6400
(dp6401
g5021
g3334
sg38
I1
sg5084
g3339
sg39
I8
sg5012
(lp6402
I165
asg44
(issf_api
FeatureSet
p6403
(dp6404
g12
(dp6405
S'name'
p6406
g6344
sS'drel'
p6407
S'pof:VGNF'
p6408
ssbsba(issf_api
Chunk
p6409
(dp6410
g5021
g3353
sg38
I2
sg5084
g3360
sg39
I8
sg5012
(lp6411
I166
aI167
asg44
(issf_api
FeatureSet
p6412
(dp6413
g12
(dp6414
S'name'
p6415
g6338
sS'drel'
p6416
S'nmod__k1inv:NP3'
p6417
ssbsba(issf_api
Chunk
p6418
(dp6419
g5021
g3412
sg38
I3
sg5084
g3423
sg39
I8
sg5012
(lp6420
I168
aI169
aI170
asg44
(issf_api
FeatureSet
p6421
(dp6422
g12
(dp6423
S'name'
p6424
g6374
sS'drel'
p6425
S'r6:NP4'
p6426
ssbsba(issf_api
Chunk
p6427
(dp6428
g5021
g3477
sg38
I4
sg5084
g3484
sg39
I8
sg5012
(lp6429
I171
aI172
aI173
asg44
(issf_api
FeatureSet
p6430
(dp6431
g12
(dp6432
S'name'
p6433
g6351
sS'drel'
p6434
S'k1:VGF'
p6435
ssbsba(issf_api
Chunk
p6436
(dp6437
g5021
g3540
sg38
I5
sg5084
g3551
sg39
I8
sg5012
(lp6438
I174
aI175
aI176
asg44
(issf_api
FeatureSet
p6439
(dp6440
g12
(dp6441
S'name'
p6442
g6349
sS'drel'
p6443
S'k4:VGF'
p6444
ssbsba(issf_api
Chunk
p6445
(dp6446
g5021
g3605
sg38
I6
sg5084
g3610
sg39
I8
sg5012
(lp6447
I177
aI178
asg44
(issf_api
FeatureSet
p6448
(dp6449
g12
(dp6450
S'name'
p6451
g6352
sS'drel'
p6452
S'k2:VGF'
p6453
ssbsba(issf_api
Chunk
p6454
(dp6455
g5021
g3641
sg38
I7
sg5084
g3650
sg39
I8
sg5012
(lp6456
I179
aI180
aI181
asg44
(issf_api
FeatureSet
p6457
(dp6458
g12
(dp6459
S'name'
p6460
g6345
ssbsba(issf_api
Chunk
p6461
(dp6462
g5021
g3681
sg38
I8
sg5084
g3686
sg39
I8
sg5012
(lp6463
I182
asg44
(issf_api
FeatureSet
p6464
(dp6465
g12
(dp6466
S'name'
p6467
g6350
sS'drel'
p6468
S'rsym:VGF'
p6469
ssbsbasba(issf_api
Sentence
p6470
(dp6471
g5010
(lp6472
sg39
I9
sg5012
(lp6473
I183
aI184
aI185
aI186
aI187
aI188
aI189
aI190
aI191
aI192
aI193
aI194
aI195
aI196
aI197
aI198
aI199
aI200
aI201
aI202
aI203
aI204
aI205
asg5014
(dp6474
S'VGNF'
p6475
(issf_api
Node
p6476
(dp6477
g5019
S'vmod'
p6478
sg5021
g6475
sg5022
S'VGF'
p6479
sg5024
I-1
sg38
I4
sg5025
(lp6480
S'NP'
p6481
aS'NP4'
p6482
asbsS'VGF'
p6483
(issf_api
Node
p6484
(dp6485
g5019
g5031
sg5021
g6483
sg5022
g5031
sg5024
I-1
sg38
I6
sg5025
(lp6486
g6475
aS'CCP'
p6487
aS'NP5'
p6488
aS'BLK'
p6489
asbsg6487
(issf_api
Node
p6490
(dp6491
g5019
S'k2'
p6492
sg5021
g6487
sg5022
S'VGF'
p6493
sg5024
I-1
sg38
I7
sg5025
(lp6494
S'VGF2'
p6495
asbsg6495
(issf_api
Node
p6496
(dp6497
g5019
S'ccof'
p6498
sg5021
g6495
sg5022
S'CCP'
p6499
sg5024
I-1
sg38
I11
sg5025
(lp6500
S'NP8'
p6501
aS'NP7'
p6502
aS'NP6'
p6503
asbsg6488
(issf_api
Node
p6504
(dp6505
g5019
S'k1'
p6506
sg5021
g6488
sg5022
S'VGF'
p6507
sg5024
I-1
sg38
I5
sg5025
(lp6508
sbsg6501
(issf_api
Node
p6509
(dp6510
g5019
S'k2'
p6511
sg5021
g6501
sg5022
S'VGF2'
p6512
sg5024
I-1
sg38
I10
sg5025
(lp6513
sbsg6489
(issf_api
Node
p6514
(dp6515
g5019
S'rsym'
p6516
sg5021
g6489
sg5022
S'VGF'
p6517
sg5024
I-1
sg38
I12
sg5025
(lp6518
sbsg6481
(issf_api
Node
p6519
(dp6520
g5019
S'k7t'
p6521
sg5021
g6481
sg5022
S'VGNF'
p6522
sg5024
I-1
sg38
I0
sg5025
(lp6523
sbsg6482
(issf_api
Node
p6524
(dp6525
g5019
S'pof'
p6526
sg5021
g6482
sg5022
S'VGNF'
p6527
sg5024
I-1
sg38
I3
sg5025
(lp6528
S'NP3'
p6529
asbsg6502
(issf_api
Node
p6530
(dp6531
g5019
S'k7p'
p6532
sg5021
g6502
sg5022
S'VGF2'
p6533
sg5024
I-1
sg38
I9
sg5025
(lp6534
sbsg6503
(issf_api
Node
p6535
(dp6536
g5019
S'k1'
p6537
sg5021
g6503
sg5022
S'VGF2'
p6538
sg5024
I-1
sg38
I8
sg5025
(lp6539
sbsg6529
(issf_api
Node
p6540
(dp6541
g5019
S'r6-k2'
p6542
sg5021
g6529
sg5022
S'NP4'
p6543
sg5024
I-1
sg38
I2
sg5025
(lp6544
S'NP2'
p6545
asbsg6545
(issf_api
Node
p6546
(dp6547
g5019
S'r6'
p6548
sg5021
g6545
sg5022
S'NP3'
p6549
sg5024
I-1
sg38
I1
sg5025
(lp6550
sbssg5080
(lp6551
(issf_api
Chunk
p6552
(dp6553
g5021
g3717
sg38
I0
sg5084
g3724
sg39
I9
sg5012
(lp6554
I183
aI184
aI185
asg44
(issf_api
FeatureSet
p6555
(dp6556
g12
(dp6557
S'name'
p6558
g6481
sS'drel'
p6559
S'k7t:VGNF'
p6560
ssbsba(issf_api
Chunk
p6561
(dp6562
g5021
g3757
sg38
I1
sg5084
g3768
sg39
I9
sg5012
(lp6563
I186
aI187
asg44
(issf_api
FeatureSet
p6564
(dp6565
g12
(dp6566
S'name'
p6567
g6545
sS'drel'
p6568
S'r6:NP3'
p6569
ssbsba(issf_api
Chunk
p6570
(dp6571
g5021
g3833
sg38
I2
sg5084
g3840
sg39
I9
sg5012
(lp6572
I188
aI189
aI190
aI191
asg44
(issf_api
FeatureSet
p6573
(dp6574
g12
(dp6575
S'name'
p6576
g6529
sS'drel'
p6577
S'r6-k2:NP4'
p6578
ssbsba(issf_api
Chunk
p6579
(dp6580
g5021
g3871
sg38
I3
sg5084
g3876
sg39
I9
sg5012
(lp6581
I192
asg44
(issf_api
FeatureSet
p6582
(dp6583
g12
(dp6584
S'name'
p6585
g6482
sS'drel'
p6586
S'pof:VGNF'
p6587
ssbsba(issf_api
Chunk
p6588
(dp6589
g5021
g3890
sg38
I4
sg5084
g3897
sg39
I9
sg5012
(lp6590
I193
aI194
asg44
(issf_api
FeatureSet
p6591
(dp6592
g12
(dp6593
S'name'
p6594
g6475
sS'drel'
p6595
S'vmod:VGF'
p6596
ssbsba(issf_api
Chunk
p6597
(dp6598
g5021
g3930
sg38
I5
sg5084
g3939
sg39
I9
sg5012
(lp6599
I195
asg44
(issf_api
FeatureSet
p6600
(dp6601
g12
(dp6602
S'name'
p6603
g6488
sS'drel'
p6604
S'k1:VGF'
p6605
ssbsba(issf_api
Chunk
p6606
(dp6607
g5021
g3953
sg38
I6
sg5084
g3960
sg39
I9
sg5012
(lp6608
I196
asg44
(issf_api
FeatureSet
p6609
(dp6610
g12
(dp6611
S'name'
p6612
g6483
ssbsba(issf_api
Chunk
p6613
(dp6614
g5021
g3974
sg38
I7
sg5084
g3979
sg39
I9
sg5012
(lp6615
I197
asg44
(issf_api
FeatureSet
p6616
(dp6617
g12
(dp6618
S'name'
p6619
g6487
sS'drel'
p6620
S'k2:VGF'
p6621
ssbsba(issf_api
Chunk
p6622
(dp6623
g5021
g4018
sg38
I8
sg5084
g4027
sg39
I9
sg5012
(lp6624
I198
aI199
asg44
(issf_api
FeatureSet
p6625
(dp6626
g12
(dp6627
S'name'
p6628
g6503
sS'drel'
p6629
S'k1:VGF2'
p6630
ssbsba(issf_api
Chunk
p6631
(dp6632
g5021
g4043
sg38
I9
sg5084
g4054
sg39
I9
sg5012
(lp6633
I200
aI201
asg44
(issf_api
FeatureSet
p6634
(dp6635
g12
(dp6636
S'name'
p6637
g6502
sS'drel'
p6638
S'k7p:VGF2'
p6639
ssbsba(issf_api
Chunk
p6640
(dp6641
g5021
g4102
sg38
I10
sg5084
g4107
sg39
I9
sg5012
(lp6642
I202
aI203
asg44
(issf_api
FeatureSet
p6643
(dp6644
g12
(dp6645
S'name'
p6646
g6501
sS'drel'
p6647
S'k2:VGF2'
p6648
ssbsba(issf_api
Chunk
p6649
(dp6650
g5021
g4121
sg38
I11
sg5084
g4130
sg39
I9
sg5012
(lp6651
I204
asg44
(issf_api
FeatureSet
p6652
(dp6653
g12
(dp6654
S'name'
p6655
g6495
sS'drel'
p6656
S'ccof:CCP'
p6657
ssbsba(issf_api
Chunk
p6658
(dp6659
g5021
g4144
sg38
I12
sg5084
g4149
sg39
I9
sg5012
(lp6660
I205
asg44
(issf_api
FeatureSet
p6661
(dp6662
g12
(dp6663
S'name'
p6664
g6489
sS'drel'
p6665
S'rsym:VGF'
p6666
ssbsbasba(issf_api
Sentence
p6667
(dp6668
g5010
(lp6669
sg39
I10
sg5012
(lp6670
I206
aI207
aI208
aI209
aI210
aI211
aI212
aI213
aI214
aI215
aI216
aI217
asg5014
(dp6671
S'VGNN'
p6672
(issf_api
Node
p6673
(dp6674
g5019
S'r6'
p6675
sg5021
g6672
sg5022
S'NP5'
p6676
sg5024
I-1
sg38
I4
sg5025
(lp6677
S'NP4'
p6678
asbsS'VGF'
p6679
(issf_api
Node
p6680
(dp6681
g5019
g5031
sg5021
g6679
sg5022
g5031
sg5024
I-1
sg38
I6
sg5025
(lp6682
S'NP5'
p6683
aS'BLK'
p6684
aS'NP'
p6685
aS'NP3'
p6686
aS'NP2'
p6687
asbsg6683
(issf_api
Node
p6688
(dp6689
g5019
S'k2'
p6690
sg5021
g6683
sg5022
S'VGF'
p6691
sg5024
I-1
sg38
I5
sg5025
(lp6692
g6672
asbsg6684
(issf_api
Node
p6693
(dp6694
g5019
S'rsym'
p6695
sg5021
g6684
sg5022
S'VGF'
p6696
sg5024
I-1
sg38
I7
sg5025
(lp6697
sbsg6685
(issf_api
Node
p6698
(dp6699
g5019
S'k7p'
p6700
sg5021
g6685
sg5022
S'VGF'
p6701
sg5024
I-1
sg38
I0
sg5025
(lp6702
sbsg6678
(issf_api
Node
p6703
(dp6704
g5019
S'k7p'
p6705
sg5021
g6678
sg5022
S'VGNN'
p6706
sg5024
I-1
sg38
I3
sg5025
(lp6707
sbsg6686
(issf_api
Node
p6708
(dp6709
g5019
S'k1'
p6710
sg5021
g6686
sg5022
S'VGF'
p6711
sg5024
I-1
sg38
I2
sg5025
(lp6712
sbsg6687
(issf_api
Node
p6713
(dp6714
g5019
S'k7'
p6715
sg5021
g6687
sg5022
S'VGF'
p6716
sg5024
I-1
sg38
I1
sg5025
(lp6717
sbssg5080
(lp6718
(issf_api
Chunk
p6719
(dp6720
g5021
g4165
sg38
I0
sg5084
g4176
sg39
I10
sg5012
(lp6721
I206
aI207
asg44
(issf_api
FeatureSet
p6722
(dp6723
g12
(dp6724
S'name'
p6725
g6685
sS'drel'
p6726
S'k7p:VGF'
p6727
ssbsba(issf_api
Chunk
p6728
(dp6729
g5021
g4207
sg38
I1
sg5084
g4214
sg39
I10
sg5012
(lp6730
I208
aI209
aI210
asg44
(issf_api
FeatureSet
p6731
(dp6732
g12
(dp6733
S'name'
p6734
g6687
sS'drel'
p6735
S'k7:VGF'
p6736
ssbsba(issf_api
Chunk
p6737
(dp6738
g5021
g4264
sg38
I2
sg5084
g4273
sg39
I10
sg5012
(lp6739
I211
asg44
(issf_api
FeatureSet
p6740
(dp6741
g12
(dp6742
S'name'
p6743
g6686
sS'drel'
p6744
S'k1:VGF'
p6745
ssbsba(issf_api
Chunk
p6746
(dp6747
g5021
g4287
sg38
I3
sg5084
g4292
sg39
I10
sg5012
(lp6748
I212
asg44
(issf_api
FeatureSet
p6749
(dp6750
g12
(dp6751
S'name'
p6752
g6678
sS'drel'
p6753
S'k7p:VGNN'
p6754
ssbsba(issf_api
Chunk
p6755
(dp6756
g5021
g4306
sg38
I4
sg5084
g4313
sg39
I10
sg5012
(lp6757
I213
aI214
asg44
(issf_api
FeatureSet
p6758
(dp6759
g12
(dp6760
S'name'
p6761
g6672
sS'drel'
p6762
S'r6:NP5'
p6763
ssbsba(issf_api
Chunk
p6764
(dp6765
g5021
g4344
sg38
I5
sg5084
g4349
sg39
I10
sg5012
(lp6766
I215
asg44
(issf_api
FeatureSet
p6767
(dp6768
g12
(dp6769
S'name'
p6770
g6683
sS'drel'
p6771
S'k2:VGF'
p6772
ssbsba(issf_api
Chunk
p6773
(dp6774
g5021
g4363
sg38
I6
sg5084
g4370
sg39
I10
sg5012
(lp6775
I216
asg44
(issf_api
FeatureSet
p6776
(dp6777
g12
(dp6778
S'name'
p6779
g6679
ssbsba(issf_api
Chunk
p6780
(dp6781
g5021
g4384
sg38
I7
sg5084
g4389
sg39
I10
sg5012
(lp6782
I217
asg44
(issf_api
FeatureSet
p6783
(dp6784
g12
(dp6785
S'name'
p6786
g6684
sS'drel'
p6787
S'rsym:VGF'
p6788
ssbsbasba(issf_api
Sentence
p6789
(dp6790
g5010
(lp6791
sg39
I11
sg5012
(lp6792
I218
aI219
aI220
aI221
aI222
aI223
aI224
aI225
aI226
aI227
aI228
aI229
aI230
aI231
aI232
aI233
aI234
aI235
aI236
aI237
aI238
asg5014
(dp6793
S'VGF2'
p6794
(issf_api
Node
p6795
(dp6796
g5019
g5031
sg5021
g6794
sg5022
g5031
sg5024
I-1
sg38
I8
sg5025
(lp6797
S'VGNN'
p6798
aS'BLK'
p6799
aS'NP4'
p6800
aS'CCP2'
p6801
asbsg6798
(issf_api
Node
p6802
(dp6803
g5019
S'k7'
p6804
sg5021
g6798
sg5022
S'VGF2'
p6805
sg5024
I-1
sg38
I1
sg5025
(lp6806
S'NP'
p6807
asbsS'VGF'
p6808
(issf_api
Node
p6809
(dp6810
g5019
S'ccof'
p6811
sg5021
g6808
sg5022
S'CCP'
p6812
sg5024
I-1
sg38
I6
sg5025
(lp6813
S'RBP'
p6814
aS'NP3'
p6815
aS'NP2'
p6816
asbsS'VGF3'
p6817
(issf_api
Node
p6818
(dp6819
g5019
S'ccof'
p6820
sg5021
g6817
sg5022
S'CCP2'
p6821
sg5024
I-1
sg38
I12
sg5025
(lp6822
S'NP5'
p6823
aS'NP6'
p6824
asbsS'CCP'
p6825
(issf_api
Node
p6826
(dp6827
g5019
S'rs'
p6828
sg5021
g6825
sg5022
S'NP'
p6829
sg5024
I-1
sg38
I2
sg5025
(lp6830
g6808
asbsg6814
(issf_api
Node
p6831
(dp6832
g5019
S'adv'
p6833
sg5021
g6814
sg5022
S'VGF'
p6834
sg5024
I-1
sg38
I3
sg5025
(lp6835
sbsg6823
(issf_api
Node
p6836
(dp6837
g5019
S'k7p'
p6838
sg5021
g6823
sg5022
S'VGF3'
p6839
sg5024
I-1
sg38
I10
sg5025
(lp6840
sbsg6799
(issf_api
Node
p6841
(dp6842
g5019
S'rsym'
p6843
sg5021
g6799
sg5022
S'VGF2'
p6844
sg5024
I-1
sg38
I13
sg5025
(lp6845
sbsg6807
(issf_api
Node
p6846
(dp6847
g5019
S'pof'
p6848
sg5021
g6807
sg5022
S'VGNN'
p6849
sg5024
I-1
sg38
I0
sg5025
(lp6850
g6825
asbsg6800
(issf_api
Node
p6851
(dp6852
g5019
S'k1'
p6853
sg5021
g6800
sg5022
S'VGF2'
p6854
sg5024
I-1
sg38
I7
sg5025
(lp6855
sbsg6824
(issf_api
Node
p6856
(dp6857
g5019
S'k1'
p6858
sg5021
g6824
sg5022
S'VGF3'
p6859
sg5024
I-1
sg38
I11
sg5025
(lp6860
sbsg6801
(issf_api
Node
p6861
(dp6862
g5019
S'k2'
p6863
sg5021
g6801
sg5022
S'VGF2'
p6864
sg5024
I-1
sg38
I9
sg5025
(lp6865
g6817
asbsg6815
(issf_api
Node
p6866
(dp6867
g5019
S'k7p'
p6868
sg5021
g6815
sg5022
S'VGF'
p6869
sg5024
I-1
sg38
I5
sg5025
(lp6870
sbsg6816
(issf_api
Node
p6871
(dp6872
g5019
S'k1'
p6873
sg5021
g6816
sg5022
S'VGF'
p6874
sg5024
I-1
sg38
I4
sg5025
(lp6875
sbssg5080
(lp6876
(issf_api
Chunk
p6877
(dp6878
g5021
g4420
sg38
I0
sg5084
g4425
sg39
I11
sg5012
(lp6879
I218
aI219
asg44
(issf_api
FeatureSet
p6880
(dp6881
g12
(dp6882
S'name'
p6883
g6807
sS'drel'
p6884
S'pof:VGNN'
p6885
ssbsba(issf_api
Chunk
p6886
(dp6887
g5021
g4439
sg38
I1
sg5084
g4446
sg39
I11
sg5012
(lp6888
I220
aI221
aI222
asg44
(issf_api
FeatureSet
p6889
(dp6890
g12
(dp6891
S'name'
p6892
g6798
sS'drel'
p6893
S'k7:VGF2'
p6894
ssbsba(issf_api
Chunk
p6895
(dp6896
g5021
g4494
sg38
I2
sg5084
g4499
sg39
I11
sg5012
(lp6897
I223
asg44
(issf_api
FeatureSet
p6898
(dp6899
g12
(dp6900
S'name'
p6901
g6825
sS'drel'
p6902
S'rs:NP'
p6903
ssbsba(issf_api
Chunk
p6904
(dp6905
g5021
g4513
sg38
I3
sg5084
g4518
sg39
I11
sg5012
(lp6906
I224
asg44
(issf_api
FeatureSet
p6907
(dp6908
g12
(dp6909
S'name'
p6910
g6814
sS'drel'
p6911
S'adv:VGF'
p6912
ssbsba(issf_api
Chunk
p6913
(dp6914
g5021
g4553
sg38
I4
sg5084
g4562
sg39
I11
sg5012
(lp6915
I225
aI226
asg44
(issf_api
FeatureSet
p6916
(dp6917
g12
(dp6918
S'name'
p6919
g6816
sS'drel'
p6920
S'k1:VGF'
p6921
ssbsba(issf_api
Chunk
p6922
(dp6923
g5021
g4578
sg38
I5
sg5084
g4587
sg39
I11
sg5012
(lp6924
I227
aI228
asg44
(issf_api
FeatureSet
p6925
(dp6926
g12
(dp6927
S'name'
p6928
g6815
sS'drel'
p6929
S'k7p:VGF'
p6930
ssbsba(issf_api
Chunk
p6931
(dp6932
g5021
g4618
sg38
I6
sg5084
g4627
sg39
I11
sg5012
(lp6933
I229
aI230
asg44
(issf_api
FeatureSet
p6934
(dp6935
g12
(dp6936
S'name'
p6937
g6808
sS'drel'
p6938
S'ccof:CCP'
p6939
ssbsba(issf_api
Chunk
p6940
(dp6941
g5021
g4659
sg38
I7
sg5084
g4668
sg39
I11
sg5012
(lp6942
I231
asg44
(issf_api
FeatureSet
p6943
(dp6944
g12
(dp6945
S'name'
p6946
g6800
sS'drel'
p6947
S'k1:VGF2'
p6948
ssbsba(issf_api
Chunk
p6949
(dp6950
g5021
g4682
sg38
I8
sg5084
g4689
sg39
I11
sg5012
(lp6951
I232
asg44
(issf_api
FeatureSet
p6952
(dp6953
g12
(dp6954
S'name'
p6955
g6794
ssbsba(issf_api
Chunk
p6956
(dp6957
g5021
g4703
sg38
I9
sg5084
g4708
sg39
I11
sg5012
(lp6958
I233
asg44
(issf_api
FeatureSet
p6959
(dp6960
g12
(dp6961
S'name'
p6962
g6801
sS'drel'
p6963
S'k2:VGF2'
p6964
ssbsba(issf_api
Chunk
p6965
(dp6966
g5021
g4724
sg38
I10
sg5084
g4733
sg39
I11
sg5012
(lp6967
I234
asg44
(issf_api
FeatureSet
p6968
(dp6969
g12
(dp6970
S'name'
p6971
g6823
sS'drel'
p6972
S'k7p:VGF3'
p6973
ssbsba(issf_api
Chunk
p6974
(dp6975
g5021
g4766
sg38
I11
sg5084
g4773
sg39
I11
sg5012
(lp6976
I235
aI236
asg44
(issf_api
FeatureSet
p6977
(dp6978
g12
(dp6979
S'name'
p6980
g6824
sS'drel'
p6981
S'k1:VGF3'
p6982
ssbsba(issf_api
Chunk
p6983
(dp6984
g5021
g4789
sg38
I12
sg5084
g4802
sg39
I11
sg5012
(lp6985
I237
asg44
(issf_api
FeatureSet
p6986
(dp6987
g12
(dp6988
S'name'
p6989
g6817
sS'drel'
p6990
S'ccof:CCP2'
p6991
ssbsba(issf_api
Chunk
p6992
(dp6993
g5021
g4816
sg38
I13
sg5084
g4821
sg39
I11
sg5012
(lp6994
I238
asg44
(issf_api
FeatureSet
p6995
(dp6996
g12
(dp6997
S'name'
p6998
g6799
sS'drel'
p6999
S'rsym:VGF2'
p7000
ssbsbasba(issf_api
Sentence
p7001
(dp7002
g5010
(lp7003
sg39
I12
sg5012
(lp7004
I239
aI240
aI241
aI242
aI243
aI244
aI245
aI246
aI247
asg5014
(dp7005
S'NP'
p7006
(issf_api
Node
p7007
(dp7008
g5019
S'rh'
p7009
sg5021
g7006
sg5022
S'VGF'
p7010
sg5024
I-1
sg38
I0
sg5025
(lp7011
sbsS'VGF'
p7012
(issf_api
Node
p7013
(dp7014
g5019
g5031
sg5021
g7012
sg5022
g5031
sg5024
I-1
sg38
I3
sg5025
(lp7015
g7006
aS'BLK'
p7016
aS'NP3'
p7017
asbsg7016
(issf_api
Node
p7018
(dp7019
g5019
S'rsym'
p7020
sg5021
g7016
sg5022
S'VGF'
p7021
sg5024
I-1
sg38
I4
sg5025
(lp7022
sbsg7017
(issf_api
Node
p7023
(dp7024
g5019
S'k1'
p7025
sg5021
g7017
sg5022
S'VGF'
p7026
sg5024
I-1
sg38
I2
sg5025
(lp7027
S'NP2'
p7028
asbsg7028
(issf_api
Node
p7029
(dp7030
g5019
S'r6'
p7031
sg5021
g7028
sg5022
S'NP3'
p7032
sg5024
I-1
sg38
I1
sg5025
(lp7033
sbssg5080
(lp7034
(issf_api
Chunk
p7035
(dp7036
g5021
g4837
sg38
I0
sg5084
g4846
sg39
I12
sg5012
(lp7037
I239
aI240
asg44
(issf_api
FeatureSet
p7038
(dp7039
g12
(dp7040
S'name'
p7041
g7006
sS'drel'
p7042
S'rh:VGF'
p7043
ssbsba(issf_api
Chunk
p7044
(dp7045
g5021
g4878
sg38
I1
sg5084
g4889
sg39
I12
sg5012
(lp7046
I241
aI242
asg44
(issf_api
FeatureSet
p7047
(dp7048
g12
(dp7049
S'name'
p7050
g7028
sS'drel'
p7051
S'r6:NP3'
p7052
ssbsba(issf_api
Chunk
p7053
(dp7054
g5021
g4943
sg38
I2
sg5084
g4948
sg39
I12
sg5012
(lp7055
I243
aI244
asg44
(issf_api
FeatureSet
p7056
(dp7057
g12
(dp7058
S'name'
p7059
g7017
sS'drel'
p7060
S'k1:VGF'
p7061
ssbsba(issf_api
Chunk
p7062
(dp7063
g5021
g4979
sg38
I3
sg5084
g4986
sg39
I12
sg5012
(lp7064
I245
aI246
asg44
(issf_api
FeatureSet
p7065
(dp7066
g12
(dp7067
S'name'
p7068
g7012
ssbsba(issf_api
Chunk
p7069
(dp7070
g5021
g5000
sg38
I4
sg5084
g5005
sg39
I12
sg5012
(lp7071
I247
asg44
(issf_api
FeatureSet
p7072
(dp7073
g12
(dp7074
S'name'
p7075
g7016
sS'drel'
p7076
S'rsym:VGF'
p7077
ssbsbasbasb.