(issf_api
SSFInfo
p0
(dp1
S'globalWordList'
p2
(lp3
(issf_api
Word
p4
(dp5
S'splitConn'
p6
I00
sS'word'
p7
V\u091a\u093f\u0902\u0915\u093e\u0930\u093e
p8
sS'extraFeatureSet'
p9
(issf_api
FeatureSet
p10
(dp11
S'featureDict'
p12
(dp13
S'crefhead'
p14
S'\xe0\xa4\x9a\xe0\xa4\xbf\xe0\xa4\x82\xe0\xa4\x95\xe0\xa4\xbe\xe0\xa4\xb0\xe0\xa4\xbe:i2'
p15
sS'posn'
p16
S'10'
p17
sS'name'
p18
S'\xe0\xa4\x9a\xe0\xa4\xbf\xe0\xa4\x82\xe0\xa4\x95\xe0\xa4\xbe\xe0\xa4\xb0\xe0\xa4\xbe'
p19
sS'af'
p20
S'\xe0\xa4\x9a\xe0\xa4\xbf\xe0\xa4\x82\xe0\xa4\x95\xe0\xa4\xbe\xe0\xa4\xb0\xe0\xa4\xbe,n,m,sg,3,d,0,0'
p21
sS'drel'
p22
S'pof__cn:NP'
p23
sS'crefchainhead'
p24
S'i2:t2'
p25
sS'chunktype'
p26
S'child:NP'
p27
sS'cref'
p28
S'i1%0:t1,i2%1:t2'
p29
ssbsS'arg1'
p30
I00
sS'arg2'
p31
I00
sS'sense'
p32
NsS'arg1Span'
p33
NsS'chunkNum'
p34
I0
sS'sentenceNum'
p35
I0
sS'relationNum'
p36
NsS'arg2Span'
p37
NsS'wordTag'
p38
S'NNPC'
p39
sS'featureSet'
p40
g10
sS'conn'
p41
I00
sba(issf_api
Word
p42
(dp43
g6
I00
sg7
V\u0936\u093f\u0915\u093e\u0930
p44
sg9
(issf_api
FeatureSet
p45
(dp46
g12
(dp47
S'posn'
p48
S'20'
p49
sS'name'
p50
S'\xe0\xa4\xb6\xe0\xa4\xbf\xe0\xa4\x95\xe0\xa4\xbe\xe0\xa4\xb0'
p51
sS'af'
p52
S'\xe0\xa4\xb6\xe0\xa4\xbf\xe0\xa4\x95\xe0\xa4\xbe\xe0\xa4\xb0,n,m,sg,3,d,0,0'
p53
sS'drel'
p54
S'pof__cn:NP'
p55
sS'chunktype'
p56
S'child:NP'
p57
sS'cref'
p58
S'i1%0:t1'
p59
ssbsg30
I00
sg31
I00
sg32
Nsg33
Nsg34
I0
sg35
I0
sg36
Nsg37
Nsg38
S'NNPC'
p60
sg40
g45
sg41
I00
sba(issf_api
Word
p61
(dp62
g6
I00
sg7
V\u092e\u093e\u092e\u0932\u0947
p63
sg9
(issf_api
FeatureSet
p64
(dp65
g12
(dp66
S'crefhead'
p67
S'\xe0\xa4\xae\xe0\xa4\xbe\xe0\xa4\xae\xe0\xa4\xb2\xe0\xa5\x87:i1'
p68
sS'posn'
p69
S'30'
p70
sS'name'
p71
S'\xe0\xa4\xae\xe0\xa4\xbe\xe0\xa4\xae\xe0\xa4\xb2\xe0\xa5\x87'
p72
sS'af'
p73
S'\xe0\xa4\xae\xe0\xa4\xbe\xe0\xa4\xae\xe0\xa4\xb2\xe0\xa4\xbe,n,m,sg,3,o,0_\xe0\xa4\xae\xe0\xa5\x87\xe0\xa4\x82,0'
p74
sS'chunkid'
p75
S'NP'
p76
sS'chunktype'
p77
S'head:NP'
p78
sS'crefchainhead'
p79
S'i1:t1'
p80
sS'vpos'
p81
S'vib_4'
p82
sS'cref'
p83
S'i1%1:t1'
p84
sS'drel'
p85
S'k7:VGF'
p86
ssbsg30
I00
sg31
I00
sg32
Nsg33
Nsg34
I0
sg35
I0
sg36
Nsg37
Nsg38
S'NNP'
p87
sg40
g64
sg41
I00
sba(issf_api
Word
p88
(dp89
g6
I00
sg7
V\u092e\u0947\u0902
p90
sg9
(issf_api
FeatureSet
p91
(dp92
g12
(dp93
S'posn'
p94
S'40'
p95
sS'name'
p96
S'\xe0\xa4\xae\xe0\xa5\x87\xe0\xa4\x82'
p97
sS'drel'
p98
S'lwg__psp:NP'
p99
sS'chunktype'
p100
S'child:NP'
p101
sS'af'
p102
S'\xe0\xa4\xae\xe0\xa5\x87\xe0\xa4\x82,psp,,,,,,'
p103
ssbsg30
I00
sg31
I00
sg32
Nsg33
Nsg34
I0
sg35
I0
sg36
Nsg37
Nsg38
S'PSP'
p104
sg40
g91
sg41
I00
sba(issf_api
Word
p105
(dp106
g6
I00
sg7
V\u091c\u094b\u0927\u092a\u0941\u0930
p107
sg9
(issf_api
FeatureSet
p108
(dp109
g12
(dp110
S'posn'
p111
S'50'
p112
sS'name'
p113
S'\xe0\xa4\x9c\xe0\xa5\x8b\xe0\xa4\xa7\xe0\xa4\xaa\xe0\xa5\x81\xe0\xa4\xb0'
p114
sS'af'
p115
S'\xe0\xa4\x9c\xe0\xa5\x8b\xe0\xa4\xa7\xe0\xa4\xaa\xe0\xa5\x81\xe0\xa4\xb0,n,m,sg,3,o,0_\xe0\xa4\x95\xe0\xa4\xbe,0'
p116
sS'acrefmodhead'
p117
S'\xe0\xa4\x9c\xe0\xa5\x8b\xe0\xa4\xa7\xe0\xa4\xaa\xe0\xa5\x81\xe0\xa4\xb0:m1'
p118
sS'chunkid'
p119
S'NP2'
p120
sS'acrefmod'
p121
S'm1%1:i3'
p122
sS'drel'
p123
S'r6:NP3'
p124
sS'vpos'
p125
S'vib_2'
p126
sS'chunktype'
p127
S'head:NP2'
p128
ssbsg30
I00
sg31
I00
sg32
Nsg33
Nsg34
I1
sg35
I0
sg36
Nsg37
Nsg38
S'NNP'
p129
sg40
g108
sg41
I00
sba(issf_api
Word
p130
(dp131
g6
I00
sg7
V\u0915\u0940
p132
sg9
(issf_api
FeatureSet
p133
(dp134
g12
(dp135
S'posn'
p136
S'60'
p137
sS'name'
p138
S'\xe0\xa4\x95\xe0\xa5\x80'
p139
sS'drel'
p140
S'lwg__psp:NP2'
p141
sS'chunktype'
p142
S'child:NP2'
p143
sS'af'
p144
S'\xe0\xa4\x95\xe0\xa4\xbe,psp,f,sg,,d,,'
p145
ssbsg30
I00
sg31
I00
sg32
Nsg33
Nsg34
I1
sg35
I0
sg36
Nsg37
Nsg38
S'PSP'
p146
sg40
g133
sg41
I00
sba(issf_api
Word
p147
(dp148
g6
I00
sg7
V\u090f\u0915
p149
sg9
(issf_api
FeatureSet
p150
(dp151
g12
(dp152
S'posn'
p153
S'70'
p154
sS'name'
p155
S'\xe0\xa4\x8f\xe0\xa4\x95'
p156
sS'af'
p157
S'\xe0\xa4\x8f\xe0\xa4\x95,num,any,any,,any,,'
p158
sS'drel'
p159
S'nmod__adj:NP3'
p160
sS'chunktype'
p161
S'child:NP3'
p162
sS'cref'
p163
S'i3%0:t3'
p164
ssbsg30
I00
sg31
I00
sg32
Nsg33
Nsg34
I2
sg35
I0
sg36
Nsg37
Nsg38
S'QC'
p165
sg40
g150
sg41
I00
sba(issf_api
Word
p166
(dp167
g6
I00
sg7
V\u0938\u094d\u0925\u093e\u0928\u0940\u092f
p168
sg9
(issf_api
FeatureSet
p169
(dp170
g12
(dp171
S'posn'
p172
S'80'
p173
sS'name'
p174
S'\xe0\xa4\xb8\xe0\xa5\x8d\xe0\xa4\xa5\xe0\xa4\xbe\xe0\xa4\xa8\xe0\xa5\x80\xe0\xa4\xaf'
p175
sS'af'
p176
S'\xe0\xa4\xb8\xe0\xa5\x8d\xe0\xa4\xa5\xe0\xa4\xbe\xe0\xa4\xa8\xe0\xa5\x80\xe0\xa4\xaf,adj,any,any,,d,,'
p177
sS'drel'
p178
S'nmod__adj:NP3'
p179
sS'chunktype'
p180
S'child:NP3'
p181
sS'cref'
p182
S'i3%0:t3'
p183
ssbsg30
I00
sg31
I00
sg32
Nsg33
Nsg34
I2
sg35
I0
sg36
Nsg37
Nsg38
S'JJ'
p184
sg40
g169
sg41
I00
sba(issf_api
Word
p185
(dp186
g6
I00
sg7
V\u0905\u0926\u093e\u0932\u0924
p187
sg9
(issf_api
FeatureSet
p188
(dp189
g12
(dp190
S'crefhead'
p191
S'\xe0\xa4\x85\xe0\xa4\xa6\xe0\xa4\xbe\xe0\xa4\xb2\xe0\xa4\xa4:i3'
p192
sS'posn'
p193
S'90'
p194
sS'name'
p195
S'\xe0\xa4\x85\xe0\xa4\xa6\xe0\xa4\xbe\xe0\xa4\xb2\xe0\xa4\xa4'
p196
sS'af'
p197
S'\xe0\xa4\x85\xe0\xa4\xa6\xe0\xa4\xbe\xe0\xa4\xb2\xe0\xa4\xa4,n,f,sg,3,d,0,0'
p198
sS'chunkid'
p199
S'NP3'
p200
sS'crefmod'
p201
S'm1:i3'
p202
sS'chunktype'
p203
S'head:NP3'
p204
sS'crefchainhead'
p205
S'i3:t3'
p206
sS'cref'
p207
S'i3%1:t3'
p208
sS'drel'
p209
S'k1:VGF'
p210
ssbsg30
I00
sg31
I00
sg32
Nsg33
Nsg34
I2
sg35
I0
sg36
Nsg37
Nsg38
S'NN'
p211
sg40
g188
sg41
I00
sba(issf_api
Word
p212
(dp213
g6
I00
sg7
V\u0938\u094b\u092e\u0935\u093e\u0930
p214
sg9
(issf_api
FeatureSet
p215
(dp216
g12
(dp217
S'posn'
p218
S'100'
p219
sS'name'
p220
S'\xe0\xa4\xb8\xe0\xa5\x8b\xe0\xa4\xae\xe0\xa4\xb5\xe0\xa4\xbe\xe0\xa4\xb0'
p221
sS'af'
p222
S'\xe0\xa4\xb8\xe0\xa5\x8b\xe0\xa4\xae\xe0\xa4\xb5\xe0\xa4\xbe\xe0\xa4\xb0,n,m,sg,3,o,0_\xe0\xa4\x95\xe0\xa5\x8b,0'
p223
sS'chunkid'
p224
S'NP4'
p225
sS'drel'
p226
S'k7t:VGF'
p227
sS'vpos'
p228
S'vib_2'
p229
sS'chunktype'
p230
S'head:NP4'
p231
ssbsg30
I00
sg31
I00
sg32
Nsg33
Nsg34
I3
sg35
I0
sg36
Nsg37
Nsg38
S'NNP'
p232
sg40
g215
sg41
I00
sba(issf_api
Word
p233
(dp234
g6
I00
sg7
V\u0915\u094b
p235
sg9
(issf_api
FeatureSet
p236
(dp237
g12
(dp238
S'posn'
p239
S'110'
p240
sS'name'
p241
S'\xe0\xa4\x95\xe0\xa5\x8b'
p242
sS'drel'
p243
S'lwg__psp:NP4'
p244
sS'chunktype'
p245
S'child:NP4'
p246
sS'af'
p247
S'\xe0\xa4\x95\xe0\xa5\x8b,psp,,,,,,'
p248
ssbsg30
I00
sg31
I00
sg32
Nsg33
Nsg34
I3
sg35
I0
sg36
Nsg37
Nsg38
S'PSP'
p249
sg40
g236
sg41
I00
sba(issf_api
Word
p250
(dp251
g6
I00
sg7
V\u0905\u092a\u0928\u093e
p252
sg9
(issf_api
FeatureSet
p253
(dp254
g12
(dp255
S'crefhead'
p256
S'\xe0\xa4\x85\xe0\xa4\xaa\xe0\xa4\xa8\xe0\xa4\xbe:i4'
p257
sS'posn'
p258
S'120'
p259
sS'name'
p260
S'\xe0\xa4\x85\xe0\xa4\xaa\xe0\xa4\xa8\xe0\xa4\xbe'
p261
sS'af'
p262
S'\xe0\xa4\x85\xe0\xa4\xaa\xe0\xa4\xa8\xe0\xa4\xbe,pn,m,sg,any,d,0,0'
p263
sS'chunkid'
p264
S'NP5'
p265
sS'creftype'
p266
S'Anaphora-C:i3'
p267
sS'chunktype'
p268
S'head:NP5'
p269
sS'cref'
p270
S'i4%1:t3'
p271
sS'drel'
p272
S'r6:NP6'
p273
ssbsg30
I00
sg31
I00
sg32
Nsg33
Nsg34
I4
sg35
I0
sg36
Nsg37
Nsg38
S'PRP'
p274
sg40
g253
sg41
I00
sba(issf_api
Word
p275
(dp276
g6
I00
sg7
V\u092b\u0948\u0938\u0932\u093e
p277
sg9
(issf_api
FeatureSet
p278
(dp279
g12
(dp280
S'posn'
p281
S'130'
p282
sS'name'
p283
S'\xe0\xa4\xab\xe0\xa5\x88\xe0\xa4\xb8\xe0\xa4\xb2\xe0\xa4\xbe'
p284
sS'af'
p285
S'\xe0\xa4\xab\xe0\xa5\x88\xe0\xa4\xb8\xe0\xa4\xb2\xe0\xa4\xbe,n,m,sg,3,d,0,0'
p286
sS'chunkid'
p287
S'NP6'
p288
sS'drel'
p289
S'k2:VGF'
p290
sS'chunktype'
p291
S'head:NP6'
p292
ssbsg30
I00
sg31
I00
sg32
Nsg33
Nsg34
I5
sg35
I0
sg36
Nsg37
Nsg38
S'NN'
p293
sg40
g278
sg41
I00
sba(issf_api
Word
p294
(dp295
g6
I00
sg7
V\u0938\u0941\u0928\u093e\u090f\u0917\u0940
p296
sg9
(issf_api
FeatureSet
p297
(dp298
g12
(dp299
S'posn'
p300
S'140'
p301
sS'name'
p302
S'\xe0\xa4\xb8\xe0\xa5\x81\xe0\xa4\xa8\xe0\xa4\xbe\xe0\xa4\x8f\xe0\xa4\x97\xe0\xa5\x80'
p303
sS'af'
p304
S'\xe0\xa4\xb8\xe0\xa5\x81\xe0\xa4\xa8\xe0\xa4\xbe,v,f,sg,3,,\xe0\xa4\x97\xe0\xa4\xbe,gA'
p305
sS'chunkid'
p306
S'VGF'
p307
sS'chunktype'
p308
S'head:VGF'
p309
sS'voicetype'
p310
S'active'
p311
sS'stype'
p312
S'declarative'
p313
ssbsg30
I00
sg31
I00
sg32
Nsg33
Nsg34
I6
sg35
I0
sg36
Nsg37
Nsg38
S'VM'
p314
sg40
g297
sg41
I00
sba(issf_api
Word
p315
(dp316
g6
I00
sg7
V\u0964
p317
sg9
(issf_api
FeatureSet
p318
(dp319
g12
(dp320
S'posn'
p321
S'150'
p322
sS'name'
p323
S'\xe0\xa5\xa4'
p324
sS'af'
p325
S'\xe0\xa5\xa4,punc,,,,,,'
p326
sS'chunkid'
p327
S'BLK'
p328
sS'drel'
p329
S'rsym:VGF'
p330
sS'chunktype'
p331
S'head:BLK'
p332
ssbsg30
I00
sg31
I00
sg32
Nsg33
Nsg34
I7
sg35
I0
sg36
Nsg37
Nsg38
S'SYM'
p333
sg40
g318
sg41
I00
sba(issf_api
Word
p334
(dp335
g6
I00
sg7
V\u0907\u0938
p336
sg9
(issf_api
FeatureSet
p337
(dp338
g12
(dp339
S'posn'
p340
S'10'
p341
sS'name'
p342
S'\xe0\xa4\x87\xe0\xa4\xb8'
p343
sS'af'
p344
S'\xe0\xa4\xaf\xe0\xa4\xb9,pn,any,sg,3,o,,'
p345
sS'drel'
p346
S'nmod__adj:NP'
p347
sS'chunktype'
p348
S'child:NP'
p349
sS'cref'
p350
S'i5%0:t1'
p351
ssbsg30
I00
sg31
I00
sg32
Nsg33
Nsg34
I0
sg35
I1
sg36
Nsg37
Nsg38
S'DEM'
p352
sg40
g337
sg41
I00
sba(issf_api
Word
p353
(dp354
g6
I00
sg7
V\u092e\u093e\u092e\u0932\u0947
p355
sg9
(issf_api
FeatureSet
p356
(dp357
g12
(dp358
S'crefhead'
p359
S'\xe0\xa4\xae\xe0\xa4\xbe\xe0\xa4\xae\xe0\xa4\xb2\xe0\xa5\x87:i5'
p360
sS'posn'
p361
S'20'
p362
sS'name'
p363
S'\xe0\xa4\xae\xe0\xa4\xbe\xe0\xa4\xae\xe0\xa4\xb2\xe0\xa5\x87'
p364
sS'af'
p365
S'\xe0\xa4\xae\xe0\xa4\xbe\xe0\xa4\xae\xe0\xa4\xb2\xe0\xa4\xbe,n,m,sg,3,o,0_\xe0\xa4\xae\xe0\xa5\x87\xe0\xa4\x82,0'
p366
sS'chunkid'
p367
S'NP'
p368
sS'creftype'
p369
S'Coreference-Identity:i1'
p370
sS'chunktype'
p371
S'head:NP'
p372
sS'vpos'
p373
S'vib_3'
p374
sS'cref'
p375
S'i5%1:t1'
p376
sS'drel'
p377
S'k7:VGF'
p378
ssbsg30
I00
sg31
I00
sg32
Nsg33
Nsg34
I0
sg35
I1
sg36
Nsg37
Nsg38
S'NN'
p379
sg40
g356
sg41
I00
sba(issf_api
Word
p380
(dp381
g6
I00
sg7
V\u092e\u0947\u0902
p382
sg9
(issf_api
FeatureSet
p383
(dp384
g12
(dp385
S'posn'
p386
S'30'
p387
sS'name'
p388
S'\xe0\xa4\xae\xe0\xa5\x87\xe0\xa4\x82'
p389
sS'drel'
p390
S'lwg__psp:NP'
p391
sS'chunktype'
p392
S'child:NP'
p393
sS'af'
p394
S'\xe0\xa4\xae\xe0\xa5\x87\xe0\xa4\x82,psp,,,,,,'
p395
ssbsg30
I00
sg31
I00
sg32
Nsg33
Nsg34
I0
sg35
I1
sg36
Nsg37
Nsg38
S'PSP'
p396
sg40
g383
sg41
I00
sba(issf_api
Word
p397
(dp398
g6
I00
sg7
V\u092c\u0949\u0932\u0940\u0935\u0941\u0921
p399
sg9
(issf_api
FeatureSet
p400
(dp401
g12
(dp402
S'posn'
p403
S'40'
p404
sS'name'
p405
S'\xe0\xa4\xac\xe0\xa5\x89\xe0\xa4\xb2\xe0\xa5\x80\xe0\xa4\xb5\xe0\xa5\x81\xe0\xa4\xa1'
p406
sS'af'
p407
S'\xe0\xa4\xac\xe0\xa5\x89\xe0\xa4\xb2\xe0\xa5\x80\xe0\xa4\xb5\xe0\xa5\x81\xe0\xa4\xa1,n,m,sg,3,d,0,0'
p408
sS'drel'
p409
S'nmod__adj:NP2'
p410
sS'chunktype'
p411
S'child:NP2'
p412
sS'cref'
p413
S'i6%0:t4'
p414
ssbsg30
I00
sg31
I00
sg32
Nsg33
Nsg34
I1
sg35
I1
sg36
Nsg37
Nsg38
S'NNP'
p415
sg40
g400
sg41
I00
sba(issf_api
Word
p416
(dp417
g6
I00
sg7
V\u0905\u092d\u093f\u0928\u0947\u0924\u093e
p418
sg9
(issf_api
FeatureSet
p419
(dp420
g12
(dp421
S'crefhead'
p422
S'\xe0\xa4\x85\xe0\xa4\xad\xe0\xa4\xbf\xe0\xa4\xa8\xe0\xa5\x87\xe0\xa4\xa4\xe0\xa4\xbe:i6'
p423
sS'posn'
p424
S'50'
p425
sS'name'
p426
S'\xe0\xa4\x85\xe0\xa4\xad\xe0\xa4\xbf\xe0\xa4\xa8\xe0\xa5\x87\xe0\xa4\xa4\xe0\xa4\xbe'
p427
sS'af'
p428
S'\xe0\xa4\x85\xe0\xa4\xad\xe0\xa4\xbf\xe0\xa4\xa8\xe0\xa5\x87\xe0\xa4\xa4\xe0\xa4\xbe,n,m,sg,3,d,0,0'
p429
sS'chunkid'
p430
S'NP2'
p431
sS'drel'
p432
S'nmod:NP3'
p433
sS'chunktype'
p434
S'head:NP2'
p435
sS'cref'
p436
S'i6%1:t4'
p437
ssbsg30
I00
sg31
I00
sg32
Nsg33
Nsg34
I1
sg35
I1
sg36
Nsg37
Nsg38
S'NN'
p438
sg40
g419
sg41
I00
sba(issf_api
Word
p439
(dp440
g6
I00
sg7
V\u0938\u0932\u092e\u093e\u0928
p441
sg9
(issf_api
FeatureSet
p442
(dp443
g12
(dp444
S'posn'
p445
S'60'
p446
sS'name'
p447
S'\xe0\xa4\xb8\xe0\xa4\xb2\xe0\xa4\xae\xe0\xa4\xbe\xe0\xa4\xa8'
p448
sS'af'
p449
S'\xe0\xa4\xb8\xe0\xa4\xb2\xe0\xa4\xae\xe0\xa4\xbe\xe0\xa4\xa8,n,m,sg,3,d,0,0'
p450
sS'drel'
p451
S'pof__cn:NP3'
p452
sS'chunktype'
p453
S'child:NP3'
p454
sS'cref'
p455
S'i7%0:t4'
p456
ssbsg30
I00
sg31
I00
sg32
Nsg33
Nsg34
I2
sg35
I1
sg36
Nsg37
Nsg38
S'NNPC'
p457
sg40
g442
sg41
I00
sba(issf_api
Word
p458
(dp459
g6
I00
sg7
V\u0916\u093e\u0928
p460
sg9
(issf_api
FeatureSet
p461
(dp462
g12
(dp463
S'crefhead'
p464
S'\xe0\xa4\x96\xe0\xa4\xbe\xe0\xa4\xa8:i7'
p465
sS'posn'
p466
S'70'
p467
sS'name'
p468
S'\xe0\xa4\x96\xe0\xa4\xbe\xe0\xa4\xa8'
p469
sS'af'
p470
S'\xe0\xa4\x96\xe0\xa4\xbe\xe0\xa4\xa8,n,any,sg,3,d,0,0'
p471
sS'chunkid'
p472
S'NP3'
p473
sS'creftype'
p474
S'Coreference-NounComplement:i6'
p475
sS'chunktype'
p476
S'head:NP3'
p477
sS'crefchainhead'
p478
S'i7:t4'
p479
sS'cref'
p480
S'i7%1:t4'
p481
sS'drel'
p482
S'k1:VGF'
p483
ssbsg30
I00
sg31
I00
sg32
Nsg33
Nsg34
I2
sg35
I1
sg36
Nsg37
Nsg38
S'NNP'
p484
sg40
g461
sg41
I00
sba(issf_api
Word
p485
(dp486
g6
I00
sg7
V\u0906\u0930\u094b\u092a\u0940
p487
sg9
(issf_api
FeatureSet
p488
(dp489
g12
(dp490
S'crefhead'
p491
S'\xe0\xa4\x86\xe0\xa4\xb0\xe0\xa5\x8b\xe0\xa4\xaa\xe0\xa5\x80:i8'
p492
sS'posn'
p493
S'80'
p494
sS'name'
p495
S'\xe0\xa4\x86\xe0\xa4\xb0\xe0\xa5\x8b\xe0\xa4\xaa\xe0\xa5\x80'
p496
sS'af'
p497
S'\xe0\xa4\x86\xe0\xa4\xb0\xe0\xa5\x8b\xe0\xa4\xaa\xe0\xa5\x80,adj,any,any,,,,'
p498
sS'chunkid'
p499
S'JJP'
p500
sS'creftype'
p501
S'Coreference-Apposition:i7'
p502
sS'chunktype'
p503
S'head:JJP'
p504
sS'cref'
p505
S'i8%1:t4'
p506
sS'drel'
p507
S'k1s:VGF'
p508
ssbsg30
I00
sg31
I00
sg32
Nsg33
Nsg34
I3
sg35
I1
sg36
Nsg37
Nsg38
S'JJ'
p509
sg40
g488
sg41
I00
sba(issf_api
Word
p510
(dp511
g6
I00
sg7
V\u0939\u0948\u0902
p512
sg9
(issf_api
FeatureSet
p513
(dp514
g12
(dp515
S'posn'
p516
S'90'
p517
sS'name'
p518
S'\xe0\xa4\xb9\xe0\xa5\x88\xe0\xa4\x82'
p519
sS'af'
p520
S'\xe0\xa4\xb9\xe0\xa5\x88,v,any,sg,3h,,\xe0\xa4\xb9\xe0\xa5\x88,hE'
p521
sS'chunkid'
p522
S'VGF'
p523
sS'chunktype'
p524
S'head:VGF'
p525
sS'voicetype'
p526
S'active'
p527
sS'stype'
p528
S'declarative'
p529
ssbsg30
I00
sg31
I00
sg32
Nsg33
Nsg34
I4
sg35
I1
sg36
Nsg37
Nsg38
S'VM'
p530
sg40
g513
sg41
I00
sba(issf_api
Word
p531
(dp532
g6
I00
sg7
V\u0964
p533
sg9
(issf_api
FeatureSet
p534
(dp535
g12
(dp536
S'posn'
p537
S'100'
p538
sS'name'
p539
S'\xe0\xa5\xa4'
p540
sS'af'
p541
S'\xe0\xa5\xa4,punc,,,,,,'
p542
sS'chunkid'
p543
S'BLK'
p544
sS'drel'
p545
S'rsym:VGF'
p546
sS'chunktype'
p547
S'head:BLK'
p548
ssbsg30
I00
sg31
I00
sg32
Nsg33
Nsg34
I5
sg35
I1
sg36
Nsg37
Nsg38
S'SYM'
p549
sg40
g534
sg41
I00
sba(issf_api
Word
p550
(dp551
g6
I00
sg7
V\u0938\u0932\u092e\u093e\u0928
p552
sg9
(issf_api
FeatureSet
p553
(dp554
g12
(dp555
S'crefhead'
p556
S'\xe0\xa4\xb8\xe0\xa4\xb2\xe0\xa4\xae\xe0\xa4\xbe\xe0\xa4\xa8:i9'
p557
sS'posn'
p558
S'10'
p559
sS'name'
p560
S'\xe0\xa4\xb8\xe0\xa4\xb2\xe0\xa4\xae\xe0\xa4\xbe\xe0\xa4\xa8'
p561
sS'af'
p562
S'\xe0\xa4\xb8\xe0\xa4\xb2\xe0\xa4\xae\xe0\xa4\xbe\xe0\xa4\xa8,n,m,sg,3,o,0_\xe0\xa4\x95\xe0\xa4\xbe,0'
p563
sS'acrefmodhead'
p564
S'\xe0\xa4\xb8\xe0\xa4\xb2\xe0\xa4\xae\xe0\xa4\xbe\xe0\xa4\xa8:m2'
p565
sS'chunkid'
p566
S'NP'
p567
sS'acrefmod'
p568
S'm2%1:i10'
p569
sS'creftype'
p570
S'Coreference-Noun-Noun:i8'
p571
sS'chunktype'
p572
S'head:NP'
p573
sS'vpos'
p574
S'vib_2'
p575
sS'cref'
p576
S'i9%1:t4'
p577
sS'drel'
p578
S'r6:NP2'
p579
ssbsg30
I00
sg31
I00
sg32
Nsg33
Nsg34
I0
sg35
I2
sg36
Nsg37
Nsg38
S'NNP'
p580
sg40
g553
sg41
I00
sba(issf_api
Word
p581
(dp582
g6
I00
sg7
V\u0915\u0947
p583
sg9
(issf_api
FeatureSet
p584
(dp585
g12
(dp586
S'posn'
p587
S'20'
p588
sS'name'
p589
S'\xe0\xa4\x95\xe0\xa5\x87'
p590
sS'drel'
p591
S'lwg__psp:NP'
p592
sS'chunktype'
p593
S'child:NP'
p594
sS'af'
p595
S'\xe0\xa4\x95\xe0\xa4\xbe,psp,m,sg,,o,,'
p596
ssbsg30
I00
sg31
I00
sg32
Nsg33
Nsg34
I0
sg35
I2
sg36
Nsg37
Nsg38
S'PSP'
p597
sg40
g584
sg41
I00
sba(issf_api
Word
p598
(dp599
g6
I00
sg7
V\u0935\u0915\u0940\u0932
p600
sg9
(issf_api
FeatureSet
p601
(dp602
g12
(dp603
S'crefhead'
p604
S'\xe0\xa4\xb5\xe0\xa4\x95\xe0\xa5\x80\xe0\xa4\xb2:i10'
p605
sS'posn'
p606
S'30'
p607
sS'name'
p608
S'\xe0\xa4\xb5\xe0\xa4\x95\xe0\xa5\x80\xe0\xa4\xb2'
p609
sS'af'
p610
S'\xe0\xa4\xb5\xe0\xa4\x95\xe0\xa5\x80\xe0\xa4\xb2,n,m,sg,3,o,0,0'
p611
sS'chunkid'
p612
S'NP2'
p613
sS'crefmod'
p614
S'm2:i10'
p615
sS'chunktype'
p616
S'head:NP2'
p617
sS'cref'
p618
S'i10%1:t5'
p619
sS'drel'
p620
S'nmod:NP3'
p621
ssbsg30
I00
sg31
I00
sg32
Nsg33
Nsg34
I1
sg35
I2
sg36
Nsg37
Nsg38
S'NN'
p622
sg40
g601
sg41
I00
sba(issf_api
Word
p623
(dp624
g6
I00
sg7
V\u0939\u0938\u094d\u0924\u0940\u092e\u0932
p625
sg9
(issf_api
FeatureSet
p626
(dp627
g12
(dp628
S'posn'
p629
S'40'
p630
sS'name'
p631
S'\xe0\xa4\xb9\xe0\xa4\xb8\xe0\xa5\x8d\xe0\xa4\xa4\xe0\xa5\x80\xe0\xa4\xae\xe0\xa4\xb2'
p632
sS'af'
p633
S'\xe0\xa4\xb9\xe0\xa4\xb8\xe0\xa5\x8d\xe0\xa4\xa4\xe0\xa5\x80\xe0\xa4\xae\xe0\xa4\xb2,n,m,sg,3,d,0,0'
p634
sS'drel'
p635
S'pof__cn:NP3'
p636
sS'chunktype'
p637
S'child:NP3'
p638
sS'cref'
p639
S'i11%0:t5'
p640
ssbsg30
I00
sg31
I00
sg32
Nsg33
Nsg34
I2
sg35
I2
sg36
Nsg37
Nsg38
S'NNPC'
p641
sg40
g626
sg41
I00
sba(issf_api
Word
p642
(dp643
g6
I00
sg7
V\u0938\u093e\u0930\u0938\u094d\u0935\u0924
p644
sg9
(issf_api
FeatureSet
p645
(dp646
g12
(dp647
S'crefhead'
p648
S'\xe0\xa4\xb8\xe0\xa4\xbe\xe0\xa4\xb0\xe0\xa4\xb8\xe0\xa5\x8d\xe0\xa4\xb5\xe0\xa4\xa4:i11'
p649
sS'posn'
p650
S'50'
p651
sS'name'
p652
S'\xe0\xa4\xb8\xe0\xa4\xbe\xe0\xa4\xb0\xe0\xa4\xb8\xe0\xa5\x8d\xe0\xa4\xb5\xe0\xa4\xa4'
p653
sS'af'
p654
S'\xe0\xa4\xb8\xe0\xa4\xbe\xe0\xa4\xb0\xe0\xa4\xb8\xe0\xa5\x8d\xe0\xa4\xb5\xe0\xa4\xa4,n,m,sg,3,o,0_\xe0\xa4\xa8\xe0\xa5\x87,0'
p655
sS'chunkid'
p656
S'NP3'
p657
sS'creftype'
p658
S'Coreference-NounComplement:i10'
p659
sS'chunktype'
p660
S'head:NP3'
p661
sS'crefchainhead'
p662
S'i11:t5'
p663
sS'vpos'
p664
S'vib_3'
p665
sS'cref'
p666
S'i11%1:t5'
p667
sS'drel'
p668
S'k1:VGF'
p669
ssbsg30
I00
sg31
I00
sg32
Nsg33
Nsg34
I2
sg35
I2
sg36
Nsg37
Nsg38
S'NNP'
p670
sg40
g645
sg41
I00
sba(issf_api
Word
p671
(dp672
g6
I00
sg7
V\u0928\u0947
p673
sg9
(issf_api
FeatureSet
p674
(dp675
g12
(dp676
S'posn'
p677
S'60'
p678
sS'name'
p679
S'\xe0\xa4\xa8\xe0\xa5\x87'
p680
sS'drel'
p681
S'lwg__psp:NP3'
p682
sS'chunktype'
p683
S'child:NP3'
p684
sS'af'
p685
S'\xe0\xa4\xa8\xe0\xa5\x87,psp,,,,,,'
p686
ssbsg30
I00
sg31
I00
sg32
Nsg33
Nsg34
I2
sg35
I2
sg36
Nsg37
Nsg38
S'PSP'
p687
sg40
g674
sg41
I00
sba(issf_api
Word
p688
(dp689
g6
I00
sg7
V\u0930\u0935\u093f\u0935\u093e\u0930
p690
sg9
(issf_api
FeatureSet
p691
(dp692
g12
(dp693
S'posn'
p694
S'70'
p695
sS'name'
p696
S'\xe0\xa4\xb0\xe0\xa4\xb5\xe0\xa4\xbf\xe0\xa4\xb5\xe0\xa4\xbe\xe0\xa4\xb0'
p697
sS'af'
p698
S'\xe0\xa4\xb0\xe0\xa4\xb5\xe0\xa4\xbf\xe0\xa4\xb5\xe0\xa4\xbe\xe0\xa4\xb0,n,m,sg,3,o,0_\xe0\xa4\x95\xe0\xa5\x8b,0'
p699
sS'chunkid'
p700
S'NP4'
p701
sS'drel'
p702
S'k7t:VGF'
p703
sS'vpos'
p704
S'vib_2'
p705
sS'chunktype'
p706
S'head:NP4'
p707
ssbsg30
I00
sg31
I00
sg32
Nsg33
Nsg34
I3
sg35
I2
sg36
Nsg37
Nsg38
S'NNP'
p708
sg40
g691
sg41
I00
sba(issf_api
Word
p709
(dp710
g6
I00
sg7
V\u0915\u094b
p711
sg9
(issf_api
FeatureSet
p712
(dp713
g12
(dp714
S'posn'
p715
S'80'
p716
sS'name'
p717
S'\xe0\xa4\x95\xe0\xa5\x8b'
p718
sS'drel'
p719
S'lwg__psp:NP4'
p720
sS'chunktype'
p721
S'child:NP4'
p722
sS'af'
p723
S'\xe0\xa4\x95\xe0\xa5\x8b,psp,,,,,,'
p724
ssbsg30
I00
sg31
I00
sg32
Nsg33
Nsg34
I3
sg35
I2
sg36
Nsg37
Nsg38
S'PSP'
p725
sg40
g712
sg41
I00
sba(issf_api
Word
p726
(dp727
g6
I00
sg7
V\u0907\u0938\u0915\u0940
p728
sg9
(issf_api
FeatureSet
p729
(dp730
g12
(dp731
S'crefhead'
p732
S'\xe0\xa4\x87\xe0\xa4\xb8\xe0\xa4\x95\xe0\xa5\x80:i12'
p733
sS'posn'
p734
S'90'
p735
sS'name'
p736
S'\xe0\xa4\x87\xe0\xa4\xb8\xe0\xa4\x95\xe0\xa5\x80'
p737
sS'af'
p738
S'\xe0\xa4\xaf\xe0\xa4\xb9,pn,f,sg,3,o,\xe0\xa4\x95\xe0\xa4\xbe,kA'
p739
sS'chunkid'
p740
S'NP5'
p741
sS'chunktype'
p742
S'head:NP5'
p743
sS'crefchainhead'
p744
S'i12:t6'
p745
sS'cref'
p746
S'i12%1:t6'
p747
sS'drel'
p748
S'r6:NP6'
p749
ssbsg30
I00
sg31
I00
sg32
Nsg33
Nsg34
I4
sg35
I2
sg36
Nsg37
Nsg38
S'PRP'
p750
sg40
g729
sg41
I00
sba(issf_api
Word
p751
(dp752
g6
I00
sg7
V\u091c\u093e\u0928\u0915\u093e\u0930\u0940
p753
sg9
(issf_api
FeatureSet
p754
(dp755
g12
(dp756
S'posn'
p757
S'100'
p758
sS'name'
p759
S'\xe0\xa4\x9c\xe0\xa4\xbe\xe0\xa4\xa8\xe0\xa4\x95\xe0\xa4\xbe\xe0\xa4\xb0\xe0\xa5\x80'
p760
sS'af'
p761
S'\xe0\xa4\x9c\xe0\xa4\xbe\xe0\xa4\xa8\xe0\xa4\x95\xe0\xa4\xbe\xe0\xa4\xb0\xe0\xa5\x80,n,f,sg,3,d,0,0'
p762
sS'chunkid'
p763
S'NP6'
p764
sS'drel'
p765
S'k2:VGNF'
p766
sS'chunktype'
p767
S'head:NP6'
p768
ssbsg30
I00
sg31
I00
sg32
Nsg33
Nsg34
I5
sg35
I2
sg36
Nsg37
Nsg38
S'NN'
p769
sg40
g754
sg41
I00
sba(issf_api
Word
p770
(dp771
g6
I00
sg7
V\u0926\u0947\u0924\u0947
p772
sg9
(issf_api
FeatureSet
p773
(dp774
g12
(dp775
S'posn'
p776
S'110'
p777
sS'name'
p778
S'\xe0\xa4\xa6\xe0\xa5\x87\xe0\xa4\xa4\xe0\xa5\x87'
p779
sS'af'
p780
S'\xe0\xa4\xa6\xe0\xa5\x87,v,m,sg,any,,\xe0\xa4\xa4\xe0\xa4\xbe_\xe0\xa4\xb9\xe0\xa5\x8b+\xe0\xa4\xaf\xe0\xa4\xbe,wA'
p781
sS'chunkid'
p782
S'VGNF'
p783
sS'drel'
p784
S'vmod:VGF'
p785
sS'vpos'
p786
S'tam_2'
p787
sS'chunktype'
p788
S'head:VGNF'
p789
ssbsg30
I00
sg31
I00
sg32
Nsg33
Nsg34
I6
sg35
I2
sg36
Nsg37
Nsg38
S'VM'
p790
sg40
g773
sg41
I00
sba(issf_api
Word
p791
(dp792
g6
I00
sg7
V\u0939\u0941\u090f
p793
sg9
(issf_api
FeatureSet
p794
(dp795
g12
(dp796
S'posn'
p797
S'120'
p798
sS'name'
p799
S'\xe0\xa4\xb9\xe0\xa5\x81\xe0\xa4\x8f'
p800
sS'drel'
p801
S'lwg__vaux:VGNF'
p802
sS'chunktype'
p803
S'child:VGNF'
p804
sS'af'
p805
S'\xe0\xa4\xb9\xe0\xa5\x8b,v,m,sg,any,,\xe0\xa4\xaf\xe0\xa4\xbe,yA'
p806
ssbsg30
I00
sg31
I00
sg32
Nsg33
Nsg34
I6
sg35
I2
sg36
Nsg37
Nsg38
S'VAUX'
p807
sg40
g794
sg41
I00
sba(issf_api
Word
p808
(dp809
g6
I00
sg7
V\u092c\u0924\u093e\u092f\u093e
p810
sg9
(issf_api
FeatureSet
p811
(dp812
g12
(dp813
S'posn'
p814
S'130'
p815
sS'name'
p816
S'\xe0\xa4\xac\xe0\xa4\xa4\xe0\xa4\xbe\xe0\xa4\xaf\xe0\xa4\xbe'
p817
sS'af'
p818
S'\xe0\xa4\xac\xe0\xa4\xa4\xe0\xa4\xbe,v,m,sg,any,,\xe0\xa4\xaf\xe0\xa4\xbe,yA'
p819
sS'chunkid'
p820
S'VGF'
p821
sS'chunktype'
p822
S'head:VGF'
p823
sS'voicetype'
p824
S'active'
p825
sS'stype'
p826
S'declarative'
p827
ssbsg30
I00
sg31
I00
sg32
Nsg33
Nsg34
I7
sg35
I2
sg36
Nsg37
Nsg38
S'VM'
p828
sg40
g811
sg41
I00
sba(issf_api
Word
p829
(dp830
g6
I00
sg7
V\u0915\u093f
p831
sg9
(issf_api
FeatureSet
p832
(dp833
g12
(dp834
S'posn'
p835
S'140'
p836
sS'name'
p837
S'\xe0\xa4\x95\xe0\xa4\xbf'
p838
sS'af'
p839
S'\xe0\xa4\x95\xe0\xa4\xbf,avy,,,,,,'
p840
sS'chunkid'
p841
S'CCP'
p842
sS'drel'
p843
S'k2:VGF'
p844
sS'chunktype'
p845
S'head:CCP'
p846
ssbsg30
I00
sg31
I00
sg32
Nsg33
Nsg34
I8
sg35
I2
sg36
Nsg37
Nsg38
S'CC'
p847
sg40
g832
sg41
I00
sba(issf_api
Word
p848
(dp849
g6
I00
sg7
V\u091a\u0940\u092b
p850
sg9
(issf_api
FeatureSet
p851
(dp852
g12
(dp853
S'posn'
p854
S'150'
p855
sS'name'
p856
S'\xe0\xa4\x9a\xe0\xa5\x80\xe0\xa4\xab'
p857
sS'af'
p858
S'\xe0\xa4\x9a\xe0\xa5\x80\xe0\xa4\xab,adj,any,any,,,,'
p859
sS'drel'
p860
S'pof__cn:NP7'
p861
sS'chunktype'
p862
S'child:NP7'
p863
sS'cref'
p864
S'i13%0:t7,i14%0:t8'
p865
ssbsg30
I00
sg31
I00
sg32
Nsg33
Nsg34
I9
sg35
I2
sg36
Nsg37
Nsg38
S'NNC'
p866
sg40
g851
sg41
I00
sba(issf_api
Word
p867
(dp868
g6
I00
sg7
V\u091c\u094d\u092f\u0942\u0921\u093f\u0936\u093f\u092f\u0932
p869
sg9
(issf_api
FeatureSet
p870
(dp871
g12
(dp872
S'posn'
p873
S'150'
p874
sS'name'
p875
S'\xe0\xa4\x9c\xe0\xa5\x8d\xe0\xa4\xaf\xe0\xa5\x82\xe0\xa4\xa1\xe0\xa4\xbf\xe0\xa4\xb6\xe0\xa4\xbf\xe0\xa4\xaf\xe0\xa4\xb2'
p876
sS'af'
p877
S'\xe0\xa4\x9c\xe0\xa5\x8d\xe0\xa4\xaf\xe0\xa5\x82\xe0\xa4\xa1\xe0\xa4\xbf\xe0\xa4\xb6\xe0\xa4\xbf\xe0\xa4\xaf\xe0\xa4\xb2,adj,any,any,,o,,'
p878
sS'drel'
p879
S'pof__cn:NP7'
p880
sS'chunktype'
p881
S'child:NP7'
p882
sS'cref'
p883
S'i13%0:t7,i14%0:t8'
p884
ssbsg30
I00
sg31
I00
sg32
Nsg33
Nsg34
I9
sg35
I2
sg36
Nsg37
Nsg38
S'NNC'
p885
sg40
g870
sg41
I00
sba(issf_api
Word
p886
(dp887
g6
I00
sg7
V\u092e\u091c\u093f\u0938\u094d\u091f\u094d\u0930\u0947\u091f
p888
sg9
(issf_api
FeatureSet
p889
(dp890
g12
(dp891
S'crefhead'
p892
S'\xe0\xa4\xae\xe0\xa4\x9c\xe0\xa4\xbf\xe0\xa4\xb8\xe0\xa5\x8d\xe0\xa4\x9f\xe0\xa5\x8d\xe0\xa4\xb0\xe0\xa5\x87\xe0\xa4\x9f:i13'
p893
sS'posn'
p894
S'170'
p895
sS'name'
p896
S'\xe0\xa4\xae\xe0\xa4\x9c\xe0\xa4\xbf\xe0\xa4\xb8\xe0\xa5\x8d\xe0\xa4\x9f\xe0\xa5\x8d\xe0\xa4\xb0\xe0\xa5\x87\xe0\xa4\x9f'
p897
sS'af'
p898
S'\xe0\xa4\xae\xe0\xa4\x9c\xe0\xa4\xbf\xe0\xa4\xb8\xe0\xa5\x8d\xe0\xa4\x9f\xe0\xa5\x8d\xe0\xa4\xb0\xe0\xa5\x87\xe0\xa4\x9f,n,m,sg,3,o,0_\xe0\xa4\xa8\xe0\xa5\x87,0'
p899
sS'chunkid'
p900
S'NP7'
p901
sS'chunktype'
p902
S'head:NP7'
p903
sS'crefchainhead'
p904
S'i13:t7'
p905
sS'vpos'
p906
S'vib_4'
p907
sS'cref'
p908
S'i13%1:t7,i14%0:t8'
p909
sS'drel'
p910
S'k1:VGF2'
p911
ssbsg30
I00
sg31
I00
sg32
Nsg33
Nsg34
I9
sg35
I2
sg36
Nsg37
Nsg38
S'NN'
p912
sg40
g889
sg41
I00
sba(issf_api
Word
p913
(dp914
g6
I00
sg7
V\u0928\u0947
p915
sg9
(issf_api
FeatureSet
p916
(dp917
g12
(dp918
S'posn'
p919
S'180'
p920
sS'name'
p921
S'\xe0\xa4\xa8\xe0\xa5\x872'
p922
sS'af'
p923
S'\xe0\xa4\xa8\xe0\xa5\x87,psp,,,,,,'
p924
sS'drel'
p925
S'lwg__psp:NP7'
p926
sS'chunktype'
p927
S'child:NP7'
p928
sS'cref'
p929
S'i14%0:t8'
p930
ssbsg30
I00
sg31
I00
sg32
Nsg33
Nsg34
I9
sg35
I2
sg36
Nsg37
Nsg38
S'PSP'
p931
sg40
g916
sg41
I00
sba(issf_api
Word
p932
(dp933
g6
I00
sg7
V\u0968\u096e
p934
sg9
(issf_api
FeatureSet
p935
(dp936
g12
(dp937
S'posn'
p938
S'190'
p939
sS'name'
p940
S'\xe0\xa5\xa8\xe0\xa5\xae'
p941
sS'af'
p942
S'\xe0\xa5\xa8\xe0\xa5\xae,n,any,sg,3,d,0,0'
p943
sS'drel'
p944
S'pof__cn:NP8'
p945
sS'chunktype'
p946
S'child:NP8'
p947
sS'cref'
p948
S'i14%0:t8'
p949
ssbsg30
I00
sg31
I00
sg32
Nsg33
Nsg34
I10
sg35
I2
sg36
Nsg37
Nsg38
S'NNPC'
p950
sg40
g935
sg41
I00
sba(issf_api
Word
p951
(dp952
g6
I00
sg7
V\u092e\u093e\u0930\u094d\u091a
p953
sg9
(issf_api
FeatureSet
p954
(dp955
g12
(dp956
S'posn'
p957
S'200'
p958
sS'name'
p959
S'\xe0\xa4\xae\xe0\xa4\xbe\xe0\xa4\xb0\xe0\xa5\x8d\xe0\xa4\x9a'
p960
sS'af'
p961
S'\xe0\xa4\xae\xe0\xa4\xbe\xe0\xa4\xb0\xe0\xa5\x8d\xe0\xa4\x9a,n,m,sg,3,o,0_\xe0\xa4\x95\xe0\xa5\x8b,0'
p962
sS'chunkid'
p963
S'NP8'
p964
sS'drel'
p965
S'k7t:VGF2'
p966
sS'chunktype'
p967
S'head:NP8'
p968
sS'vpos'
p969
S'vib_3'
p970
sS'cref'
p971
S'i14%0:t8'
p972
ssbsg30
I00
sg31
I00
sg32
Nsg33
Nsg34
I10
sg35
I2
sg36
Nsg37
Nsg38
S'NNP'
p973
sg40
g954
sg41
I00
sba(issf_api
Word
p974
(dp975
g6
I00
sg7
V\u0915\u094b
p976
sg9
(issf_api
FeatureSet
p977
(dp978
g12
(dp979
S'posn'
p980
S'210'
p981
sS'name'
p982
S'\xe0\xa4\x95\xe0\xa5\x8b2'
p983
sS'af'
p984
S'\xe0\xa4\x95\xe0\xa5\x8b,psp,,,,,,'
p985
sS'drel'
p986
S'lwg__psp:NP8'
p987
sS'chunktype'
p988
S'child:NP8'
p989
sS'cref'
p990
S'i14%0:t8'
p991
ssbsg30
I00
sg31
I00
sg32
Nsg33
Nsg34
I10
sg35
I2
sg36
Nsg37
Nsg38
S'PSP'
p992
sg40
g977
sg41
I00
sba(issf_api
Word
p993
(dp994
g6
I00
sg7
V\u092c\u091a\u093e\u0935
p995
sg9
(issf_api
FeatureSet
p996
(dp997
g12
(dp998
S'posn'
p999
S'220'
p1000
sS'name'
p1001
S'\xe0\xa4\xac\xe0\xa4\x9a\xe0\xa4\xbe\xe0\xa4\xb5'
p1002
sS'af'
p1003
S'\xe0\xa4\xac\xe0\xa4\x9a\xe0\xa4\xbe\xe0\xa4\xb5,n,m,sg,3,d,0,0'
p1004
sS'drel'
p1005
S'pof__cn:NP9'
p1006
sS'chunktype'
p1007
S'child:NP9'
p1008
sS'cref'
p1009
S'i14%0:t8'
p1010
ssbsg30
I00
sg31
I00
sg32
Nsg33
Nsg34
I11
sg35
I2
sg36
Nsg37
Nsg38
S'NNC'
p1011
sg40
g996
sg41
I00
sba(issf_api
Word
p1012
(dp1013
g6
I00
sg7
V\u092a\u0915\u094d\u0937
p1014
sg9
(issf_api
FeatureSet
p1015
(dp1016
g12
(dp1017
S'posn'
p1018
S'230'
p1019
sS'name'
p1020
S'\xe0\xa4\xaa\xe0\xa4\x95\xe0\xa5\x8d\xe0\xa4\xb7'
p1021
sS'af'
p1022
S'\xe0\xa4\xaa\xe0\xa4\x95\xe0\xa5\x8d\xe0\xa4\xb7,n,m,sg,3,o,0_\xe0\xa4\x95\xe0\xa4\xbe,0'
p1023
sS'chunkid'
p1024
S'NP9'
p1025
sS'drel'
p1026
S'r6:NP10'
p1027
sS'chunktype'
p1028
S'head:NP9'
p1029
sS'vpos'
p1030
S'vib_3'
p1031
sS'cref'
p1032
S'i14%0:t8'
p1033
ssbsg30
I00
sg31
I00
sg32
Nsg33
Nsg34
I11
sg35
I2
sg36
Nsg37
Nsg38
S'NN'
p1034
sg40
g1015
sg41
I00
sba(issf_api
Word
p1035
(dp1036
g6
I00
sg7
V\u0915\u0940
p1037
sg9
(issf_api
FeatureSet
p1038
(dp1039
g12
(dp1040
S'posn'
p1041
S'240'
p1042
sS'name'
p1043
S'\xe0\xa4\x95\xe0\xa5\x80'
p1044
sS'af'
p1045
S'\xe0\xa4\x95\xe0\xa4\xbe,psp,f,sg,,d,,'
p1046
sS'drel'
p1047
S'lwg__psp:NP9'
p1048
sS'chunktype'
p1049
S'child:NP9'
p1050
sS'cref'
p1051
S'i14%0:t8'
p1052
ssbsg30
I00
sg31
I00
sg32
Nsg33
Nsg34
I11
sg35
I2
sg36
Nsg37
Nsg38
S'PSP'
p1053
sg40
g1038
sg41
I00
sba(issf_api
Word
p1054
(dp1055
g6
I00
sg7
V\u0926\u0932\u0940\u0932
p1056
sg9
(issf_api
FeatureSet
p1057
(dp1058
g12
(dp1059
S'posn'
p1060
S'250'
p1061
sS'name'
p1062
S'\xe0\xa4\xa6\xe0\xa4\xb2\xe0\xa5\x80\xe0\xa4\xb2'
p1063
sS'af'
p1064
S'\xe0\xa4\xa6\xe0\xa4\xb2\xe0\xa5\x80\xe0\xa4\xb2,n,f,sg,3,d,0,0'
p1065
sS'chunkid'
p1066
S'NP10'
p1067
sS'drel'
p1068
S'k2:VGF2'
p1069
sS'chunktype'
p1070
S'head:NP10'
p1071
sS'cref'
p1072
S'i14%0:t8'
p1073
ssbsg30
I00
sg31
I00
sg32
Nsg33
Nsg34
I12
sg35
I2
sg36
Nsg37
Nsg38
S'NN'
p1074
sg40
g1057
sg41
I00
sba(issf_api
Word
p1075
(dp1076
g6
I00
sg7
V\u0938\u0941\u0928\u0940
p1077
sg9
(issf_api
FeatureSet
p1078
(dp1079
g12
(dp1080
S'crefhead'
p1081
S'\xe0\xa4\xb8\xe0\xa5\x81\xe0\xa4\xa8\xe0\xa5\x80:i14'
p1082
sS'posn'
p1083
S'260'
p1084
sS'name'
p1085
S'\xe0\xa4\xb8\xe0\xa5\x81\xe0\xa4\xa8\xe0\xa5\x80'
p1086
sS'af'
p1087
S'\xe0\xa4\xb8\xe0\xa5\x81\xe0\xa4\xa8,v,f,sg,any,,\xe0\xa4\xaf\xe0\xa4\xbe_\xe0\xa4\xa5\xe0\xa4\xbe,yA'
p1088
sS'chunkid'
p1089
S'VGF2'
p1090
sS'stype'
p1091
S'declarative'
p1092
sS'chunktype'
p1093
S'head:VGF2'
p1094
sS'crefchainhead'
p1095
S'i14:t8'
p1096
sS'voicetype'
p1097
S'active'
p1098
sS'vpos'
p1099
S'tam_2'
p1100
sS'cref'
p1101
S'i14%0:t8'
p1102
sS'drel'
p1103
S'ccof:CCP2'
p1104
ssbsg30
I00
sg31
I00
sg32
Nsg33
Nsg34
I13
sg35
I2
sg36
Nsg37
Nsg38
S'VM'
p1105
sg40
g1078
sg41
I00
sba(issf_api
Word
p1106
(dp1107
g6
I00
sg7
V\u0925\u0940
p1108
sg9
(issf_api
FeatureSet
p1109
(dp1110
g12
(dp1111
S'posn'
p1112
S'270'
p1113
sS'name'
p1114
S'\xe0\xa4\xa5\xe0\xa5\x80'
p1115
sS'af'
p1116
S'\xe0\xa4\xa5\xe0\xa4\xbe,v,f,sg,any,,\xe0\xa4\xa5\xe0\xa4\xbe,WA'
p1117
sS'drel'
p1118
S'lwg__vaux:VGF2'
p1119
sS'chunktype'
p1120
S'child:VGF2'
p1121
sS'cref'
p1122
S'i14%1:t8'
p1123
ssbsg30
I00
sg31
I00
sg32
Nsg33
Nsg34
I13
sg35
I2
sg36
Nsg37
Nsg38
S'VAUX'
p1124
sg40
g1109
sg41
I00
sba(issf_api
Word
p1125
(dp1126
g6
I00
sg7
V\u0914\u0930
p1127
sg9
(issf_api
FeatureSet
p1128
(dp1129
g12
(dp1130
S'posn'
p1131
S'280'
p1132
sS'name'
p1133
S'\xe0\xa4\x94\xe0\xa4\xb0'
p1134
sS'af'
p1135
S'\xe0\xa4\x94\xe0\xa4\xb0,avy,,,,,,'
p1136
sS'chunkid'
p1137
S'CCP2'
p1138
sS'drel'
p1139
S'ccof:CCP'
p1140
sS'chunktype'
p1141
S'head:CCP2'
p1142
ssbsg30
I00
sg31
I00
sg32
Nsg33
Nsg34
I14
sg35
I2
sg36
Nsg37
Nsg38
S'CC'
p1143
sg40
g1128
sg41
I00
sba(issf_api
Word
p1144
(dp1145
g6
I00
sg7
V\u0907\u0938\u0915\u0947
p1146
sg9
(issf_api
FeatureSet
p1147
(dp1148
g12
(dp1149
S'crefhead'
p1150
S'\xe0\xa4\x87\xe0\xa4\xb8\xe0\xa4\x95\xe0\xa5\x87:i15'
p1151
sS'posn'
p1152
S'290'
p1153
sS'name'
p1154
S'\xe0\xa4\x87\xe0\xa4\xb8\xe0\xa4\x95\xe0\xa5\x87'
p1155
sS'af'
p1156
S'\xe0\xa4\xaf\xe0\xa4\xb9,pn,any,sg,3,o,0_\xe0\xa4\xac\xe0\xa4\xbe\xe0\xa4\xa6,ke'
p1157
sS'chunkid'
p1158
S'NP11'
p1159
sS'creftype'
p1160
S'Anaphora-E:i14'
p1161
sS'chunktype'
p1162
S'head:NP11'
p1163
sS'vpos'
p1164
S'vib_2'
p1165
sS'cref'
p1166
S'i15%1:t8'
p1167
sS'drel'
p1168
S'k7t:VGF3'
p1169
ssbsg30
I00
sg31
I00
sg32
Nsg33
Nsg34
I15
sg35
I2
sg36
Nsg37
Nsg38
S'PRP'
p1170
sg40
g1147
sg41
I00
sba(issf_api
Word
p1171
(dp1172
g6
I00
sg7
V\u092c\u093e\u0926
p1173
sg9
(issf_api
FeatureSet
p1174
(dp1175
g12
(dp1176
S'posn'
p1177
S'300'
p1178
sS'name'
p1179
S'\xe0\xa4\xac\xe0\xa4\xbe\xe0\xa4\xa6'
p1180
sS'drel'
p1181
S'lwg__psp:NP11'
p1182
sS'chunktype'
p1183
S'child:NP11'
p1184
sS'af'
p1185
S'\xe0\xa4\xac\xe0\xa4\xbe\xe0\xa4\xa6,nst,m,sg,3,d,,'
p1186
ssbsg30
I00
sg31
I00
sg32
Nsg33
Nsg34
I15
sg35
I2
sg36
Nsg37
Nsg38
S'NST'
p1187
sg40
g1174
sg41
I00
sba(issf_api
Word
p1188
(dp1189
g6
I00
sg7
V\u092b\u0948\u0938\u0932\u093e
p1190
sg9
(issf_api
FeatureSet
p1191
(dp1192
g12
(dp1193
S'posn'
p1194
S'310'
p1195
sS'name'
p1196
S'\xe0\xa4\xab\xe0\xa5\x88\xe0\xa4\xb8\xe0\xa4\xb2\xe0\xa4\xbe'
p1197
sS'af'
p1198
S'\xe0\xa4\xab\xe0\xa5\x88\xe0\xa4\xb8\xe0\xa4\xb2\xe0\xa4\xbe,n,m,sg,3,d,0,0'
p1199
sS'chunkid'
p1200
S'NP12'
p1201
sS'drel'
p1202
S'k2:VGNN'
p1203
sS'chunktype'
p1204
S'head:NP12'
p1205
ssbsg30
I00
sg31
I00
sg32
Nsg33
Nsg34
I16
sg35
I2
sg36
Nsg37
Nsg38
S'NN'
p1206
sg40
g1191
sg41
I00
sba(issf_api
Word
p1207
(dp1208
g6
I00
sg7
V\u0938\u0941\u0928\u093e\u0928\u0947
p1209
sg9
(issf_api
FeatureSet
p1210
(dp1211
g12
(dp1212
S'posn'
p1213
S'320'
p1214
sS'name'
p1215
S'\xe0\xa4\xb8\xe0\xa5\x81\xe0\xa4\xa8\xe0\xa4\xbe\xe0\xa4\xa8\xe0\xa5\x87'
p1216
sS'af'
p1217
S'\xe0\xa4\xb8\xe0\xa5\x81\xe0\xa4\xa8\xe0\xa4\xbe,v,any,any,any,o,\xe0\xa4\xa8\xe0\xa4\xbe_\xe0\xa4\x95\xe0\xa5\x87_\xe0\xa4\xb2\xe0\xa4\xbf\xe0\xa4\x8f,nA'
p1218
sS'chunkid'
p1219
S'VGNN'
p1220
sS'drel'
p1221
S'rt:VGF3'
p1222
sS'vpos'
p1223
S'tam_2_3'
p1224
sS'chunktype'
p1225
S'head:VGNN'
p1226
ssbsg30
I00
sg31
I00
sg32
Nsg33
Nsg34
I17
sg35
I2
sg36
Nsg37
Nsg38
S'VM'
p1227
sg40
g1210
sg41
I00
sba(issf_api
Word
p1228
(dp1229
g6
I00
sg7
V\u0915\u0947
p1230
sg9
(issf_api
FeatureSet
p1231
(dp1232
g12
(dp1233
S'posn'
p1234
S'330'
p1235
sS'name'
p1236
S'\xe0\xa4\x95\xe0\xa5\x872'
p1237
sS'drel'
p1238
S'lwg__psp:VGNN'
p1239
sS'chunktype'
p1240
S'child:VGNN'
p1241
sS'af'
p1242
S'\xe0\xa4\x95\xe0\xa5\x87,psp,,,,,,'
p1243
ssbsg30
I00
sg31
I00
sg32
Nsg33
Nsg34
I17
sg35
I2
sg36
Nsg37
Nsg38
S'PSP'
p1244
sg40
g1231
sg41
I00
sba(issf_api
Word
p1245
(dp1246
g6
I00
sg7
V\u0932\u093f\u090f
p1247
sg9
(issf_api
FeatureSet
p1248
(dp1249
g12
(dp1250
S'posn'
p1251
S'340'
p1252
sS'name'
p1253
S'\xe0\xa4\xb2\xe0\xa4\xbf\xe0\xa4\x8f'
p1254
sS'drel'
p1255
S'lwg__psp:VGNN'
p1256
sS'chunktype'
p1257
S'child:VGNN'
p1258
sS'af'
p1259
S'\xe0\xa4\xb2\xe0\xa4\xbf\xe0\xa4\x8f,psp,,,,,,'
p1260
ssbsg30
I00
sg31
I00
sg32
Nsg33
Nsg34
I17
sg35
I2
sg36
Nsg37
Nsg38
S'PSP'
p1261
sg40
g1248
sg41
I00
sba(issf_api
Word
p1262
(dp1263
g6
I00
sg7
V\u0967\u0966
p1264
sg9
(issf_api
FeatureSet
p1265
(dp1266
g12
(dp1267
S'posn'
p1268
S'350'
p1269
sS'name'
p1270
S'\xe0\xa5\xa7\xe0\xa5\xa6'
p1271
sS'drel'
p1272
S'pof__cn:NP13'
p1273
sS'chunktype'
p1274
S'child:NP13'
p1275
sS'af'
p1276
S'\xe0\xa5\xa7\xe0\xa5\xa6,n,any,sg,3,d,0,0'
p1277
ssbsg30
I00
sg31
I00
sg32
Nsg33
Nsg34
I18
sg35
I2
sg36
Nsg37
Nsg38
S'NNPC'
p1278
sg40
g1265
sg41
I00
sba(issf_api
Word
p1279
(dp1280
g6
I00
sg7
V\u0905\u092a\u094d\u0930\u0948\u0932
p1281
sg9
(issf_api
FeatureSet
p1282
(dp1283
g12
(dp1284
S'posn'
p1285
S'360'
p1286
sS'name'
p1287
S'\xe0\xa4\x85\xe0\xa4\xaa\xe0\xa5\x8d\xe0\xa4\xb0\xe0\xa5\x88\xe0\xa4\xb2'
p1288
sS'af'
p1289
S'\xe0\xa4\x85\xe0\xa4\xaa\xe0\xa5\x8d\xe0\xa4\xb0\xe0\xa5\x88\xe0\xa4\xb2,n,m,sg,3,o,0_\xe0\xa4\x95\xe0\xa4\xbe,0'
p1290
sS'chunkid'
p1291
S'NP13'
p1292
sS'drel'
p1293
S'r6:NP14'
p1294
sS'vpos'
p1295
S'vib_3'
p1296
sS'chunktype'
p1297
S'head:NP13'
p1298
ssbsg30
I00
sg31
I00
sg32
Nsg33
Nsg34
I18
sg35
I2
sg36
Nsg37
Nsg38
S'NNP'
p1299
sg40
g1282
sg41
I00
sba(issf_api
Word
p1300
(dp1301
g6
I00
sg7
V\u0915\u0940
p1302
sg9
(issf_api
FeatureSet
p1303
(dp1304
g12
(dp1305
S'posn'
p1306
S'370'
p1307
sS'name'
p1308
S'\xe0\xa4\x95\xe0\xa5\x802'
p1309
sS'drel'
p1310
S'lwg__psp:NP13'
p1311
sS'chunktype'
p1312
S'child:NP13'
p1313
sS'af'
p1314
S'\xe0\xa4\x95\xe0\xa4\xbe,psp,f,sg,,d,,'
p1315
ssbsg30
I00
sg31
I00
sg32
Nsg33
Nsg34
I18
sg35
I2
sg36
Nsg37
Nsg38
S'PSP'
p1316
sg40
g1303
sg41
I00
sba(issf_api
Word
p1317
(dp1318
g6
I00
sg7
V\u0924\u093e\u0930\u0940\u0916
p1319
sg9
(issf_api
FeatureSet
p1320
(dp1321
g12
(dp1322
S'posn'
p1323
S'380'
p1324
sS'name'
p1325
S'\xe0\xa4\xa4\xe0\xa4\xbe\xe0\xa4\xb0\xe0\xa5\x80\xe0\xa4\x96'
p1326
sS'af'
p1327
S'\xe0\xa4\xa4\xe0\xa4\xbe\xe0\xa4\xb0\xe0\xa5\x80\xe0\xa4\x96,n,f,sg,3,d,0,0'
p1328
sS'chunkid'
p1329
S'NP14'
p1330
sS'drel'
p1331
S'k2:VGF3'
p1332
sS'chunktype'
p1333
S'head:NP14'
p1334
ssbsg30
I00
sg31
I00
sg32
Nsg33
Nsg34
I19
sg35
I2
sg36
Nsg37
Nsg38
S'NN'
p1335
sg40
g1320
sg41
I00
sba(issf_api
Word
p1336
(dp1337
g6
I00
sg7
V\u0924\u092f
p1338
sg9
(issf_api
FeatureSet
p1339
(dp1340
g12
(dp1341
S'posn'
p1342
S'390'
p1343
sS'name'
p1344
S'\xe0\xa4\xa4\xe0\xa4\xaf'
p1345
sS'af'
p1346
S'\xe0\xa4\xa4\xe0\xa4\xaf,adj,any,any,,,,'
p1347
sS'chunkid'
p1348
S'JJP'
p1349
sS'drel'
p1350
S'pof:VGF3'
p1351
sS'chunktype'
p1352
S'head:JJP'
p1353
ssbsg30
I00
sg31
I00
sg32
Nsg33
Nsg34
I20
sg35
I2
sg36
Nsg37
Nsg38
S'JJ'
p1354
sg40
g1339
sg41
I00
sba(issf_api
Word
p1355
(dp1356
g6
I00
sg7
V\u0915\u0940
p1357
sg9
(issf_api
FeatureSet
p1358
(dp1359
g12
(dp1360
S'posn'
p1361
S'400'
p1362
sS'name'
p1363
S'\xe0\xa4\x95\xe0\xa5\x803'
p1364
sS'af'
p1365
S'\xe0\xa4\x95\xe0\xa4\xb0,v,f,sg,any,,\xe0\xa4\xaf\xe0\xa4\xbe,yA'
p1366
sS'chunkid'
p1367
S'VGF3'
p1368
sS'stype'
p1369
S'declarative'
p1370
sS'drel'
p1371
S'ccof:CCP2'
p1372
sS'voicetype'
p1373
S'active'
p1374
sS'chunktype'
p1375
S'head:VGF3'
p1376
ssbsg30
I00
sg31
I00
sg32
Nsg33
Nsg34
I21
sg35
I2
sg36
Nsg37
Nsg38
S'VM'
p1377
sg40
g1358
sg41
I00
sba(issf_api
Word
p1378
(dp1379
g6
I00
sg7
V\u0964
p1380
sg9
(issf_api
FeatureSet
p1381
(dp1382
g12
(dp1383
S'posn'
p1384
S'410'
p1385
sS'name'
p1386
S'\xe0\xa5\xa4'
p1387
sS'af'
p1388
S'\xe0\xa5\xa4,punc,,,,,,'
p1389
sS'chunkid'
p1390
S'BLK'
p1391
sS'drel'
p1392
S'rsym:VGF'
p1393
sS'chunktype'
p1394
S'head:BLK'
p1395
ssbsg30
I00
sg31
I00
sg32
Nsg33
Nsg34
I22
sg35
I2
sg36
Nsg37
Nsg38
S'SYM'
p1396
sg40
g1381
sg41
I00
sba(issf_api
Word
p1397
(dp1398
g6
I00
sg7
V\u0907\u0938
p1399
sg9
(issf_api
FeatureSet
p1400
(dp1401
g12
(dp1402
S'posn'
p1403
S'10'
p1404
sS'name'
p1405
S'\xe0\xa4\x87\xe0\xa4\xb8'
p1406
sS'af'
p1407
S'\xe0\xa4\xaf\xe0\xa4\xb9,pn,any,sg,3,o,,'
p1408
sS'chunkid'
p1409
S'NP'
p1410
sS'drel'
p1411
S'k7t:VGF'
p1412
sS'chunktype'
p1413
S'head:NP'
p1414
ssbsg30
I00
sg31
I00
sg32
Nsg33
Nsg34
I0
sg35
I3
sg36
Nsg37
Nsg38
S'DEM'
p1415
sg40
g1400
sg41
I00
sba(issf_api
Word
p1416
(dp1417
g6
I00
sg7
V\u0926\u094c\u0930\u093e\u0928
p1418
sg9
(issf_api
FeatureSet
p1419
(dp1420
g12
(dp1421
S'posn'
p1422
S'20'
p1423
sS'name'
p1424
S'\xe0\xa4\xa6\xe0\xa5\x8c\xe0\xa4\xb0\xe0\xa4\xbe\xe0\xa4\xa8'
p1425
sS'drel'
p1426
S'lwg__psp:NP'
p1427
sS'chunktype'
p1428
S'child:NP'
p1429
sS'af'
p1430
S'\xe0\xa4\xa6\xe0\xa5\x8c\xe0\xa4\xb0\xe0\xa4\xbe\xe0\xa4\xa8,nst,m,sg,3,d,,'
p1431
ssbsg30
I00
sg31
I00
sg32
Nsg33
Nsg34
I0
sg35
I3
sg36
Nsg37
Nsg38
S'NST'
p1432
sg40
g1419
sg41
I00
sba(issf_api
Word
p1433
(dp1434
g6
I00
sg7
V\u0938\u0932\u092e\u093e\u0928
p1435
sg9
(issf_api
FeatureSet
p1436
(dp1437
g12
(dp1438
S'posn'
p1439
S'30'
p1440
sS'name'
p1441
S'\xe0\xa4\xb8\xe0\xa4\xb2\xe0\xa4\xae\xe0\xa4\xbe\xe0\xa4\xa8'
p1442
sS'af'
p1443
S'\xe0\xa4\xb8\xe0\xa4\xb2\xe0\xa4\xae\xe0\xa4\xbe\xe0\xa4\xa8,n,m,sg,3,d,0,0'
p1444
sS'drel'
p1445
S'pof__cn:NP2'
p1446
sS'chunktype'
p1447
S'child:NP2'
p1448
sS'cref'
p1449
S'i16%0:t4'
p1450
ssbsg30
I00
sg31
I00
sg32
Nsg33
Nsg34
I1
sg35
I3
sg36
Nsg37
Nsg38
S'NNPC'
p1451
sg40
g1436
sg41
I00
sba(issf_api
Word
p1452
(dp1453
g6
I00
sg7
V\u0916\u093e\u0928
p1454
sg9
(issf_api
FeatureSet
p1455
(dp1456
g12
(dp1457
S'crefhead'
p1458
S'\xe0\xa4\x96\xe0\xa4\xbe\xe0\xa4\xa8:i16'
p1459
sS'posn'
p1460
S'40'
p1461
sS'name'
p1462
S'\xe0\xa4\x96\xe0\xa4\xbe\xe0\xa4\xa8'
p1463
sS'af'
p1464
S'\xe0\xa4\x96\xe0\xa4\xbe\xe0\xa4\xa8,n,m,sg,3,d,0,0'
p1465
sS'chunkid'
p1466
S'NP2'
p1467
sS'creftype'
p1468
S'Coreference-Identity:i9'
p1469
sS'chunktype'
p1470
S'head:NP2'
p1471
sS'cref'
p1472
S'i16%1:t4'
p1473
sS'drel'
p1474
S'ccof:CCP'
p1475
ssbsg30
I00
sg31
I00
sg32
Nsg33
Nsg34
I1
sg35
I3
sg36
Nsg37
Nsg38
S'NNP'
p1476
sg40
g1455
sg41
I00
sba(issf_api
Word
p1477
(dp1478
g6
I00
sg7
V\u0914\u0930
p1479
sg9
(issf_api
FeatureSet
p1480
(dp1481
g12
(dp1482
S'posn'
p1483
S'50'
p1484
sS'name'
p1485
S'\xe0\xa4\x94\xe0\xa4\xb0'
p1486
sS'af'
p1487
S'\xe0\xa4\x94\xe0\xa4\xb0,avy,,,,,,'
p1488
sS'chunkid'
p1489
S'CCP'
p1490
sS'drel'
p1491
S'k1:VGF'
p1492
sS'chunktype'
p1493
S'head:CCP'
p1494
ssbsg30
I00
sg31
I00
sg32
Nsg33
Nsg34
I2
sg35
I3
sg36
Nsg37
Nsg38
S'CC'
p1495
sg40
g1480
sg41
I00
sba(issf_api
Word
p1496
(dp1497
g6
I00
sg7
V\u092a\u093e\u0902\u091a
p1498
sg9
(issf_api
FeatureSet
p1499
(dp1500
g12
(dp1501
S'posn'
p1502
S'60'
p1503
sS'name'
p1504
S'\xe0\xa4\xaa\xe0\xa4\xbe\xe0\xa4\x82\xe0\xa4\x9a'
p1505
sS'af'
p1506
S'\xe0\xa4\xaa\xe0\xa4\xbe\xe0\xa4\x82\xe0\xa4\x9a,num,any,any,,any,,'
p1507
sS'drel'
p1508
S'nmod__adj:NP3'
p1509
sS'chunktype'
p1510
S'child:NP3'
p1511
sS'cref'
p1512
S'i17%0:t9,i18%0:t10,i19%0:t11,i20%0:t12,i21%0:t13'
p1513
ssbsg30
I00
sg31
I00
sg32
Nsg33
Nsg34
I3
sg35
I3
sg36
Nsg37
Nsg38
S'QC'
p1514
sg40
g1499
sg41
I00
sba(issf_api
Word
p1515
(dp1516
g6
I00
sg7
V\u0905\u0928\u094d\u092f
p1517
sg9
(issf_api
FeatureSet
p1518
(dp1519
g12
(dp1520
S'posn'
p1521
S'70'
p1522
sS'name'
p1523
S'\xe0\xa4\x85\xe0\xa4\xa8\xe0\xa5\x8d\xe0\xa4\xaf'
p1524
sS'af'
p1525
S'\xe0\xa4\x85\xe0\xa4\xa8\xe0\xa5\x8d\xe0\xa4\xaf,adj,any,any,,d,,'
p1526
sS'drel'
p1527
S'nmod__adj:NP3'
p1528
sS'chunktype'
p1529
S'child:NP3'
p1530
sS'cref'
p1531
S'i17%0:t9,i18%0:t10,i19%0:t11,i20%0:t12,i21%0:t13'
p1532
ssbsg30
I00
sg31
I00
sg32
Nsg33
Nsg34
I3
sg35
I3
sg36
Nsg37
Nsg38
S'JJ'
p1533
sg40
g1518
sg41
I00
sba(issf_api
Word
p1534
(dp1535
g6
I00
sg7
V\u0906\u0930\u094b\u092a\u0940
p1536
sg9
(issf_api
FeatureSet
p1537
(dp1538
g12
(dp1539
S'crefhead'
p1540
S'\xe0\xa4\x86\xe0\xa4\xb0\xe0\xa5\x8b\xe0\xa4\xaa\xe0\xa5\x80:i17,\xe0\xa4\x86\xe0\xa4\xb0\xe0\xa5\x8b\xe0\xa4\xaa\xe0\xa5\x80:i18,\xe0\xa4\x86\xe0\xa4\xb0\xe0\xa5\x8b\xe0\xa4\xaa\xe0\xa5\x80:i19,\xe0\xa4\x86\xe0\xa4\xb0\xe0\xa5\x8b\xe0\xa4\xaa\xe0\xa5\x80:i20,\xe0\xa4\x86\xe0\xa4\xb0\xe0\xa5\x8b\xe0\xa4\xaa\xe0\xa5\x80:i21'
p1541
sS'posn'
p1542
S'80'
p1543
sS'name'
p1544
S'\xe0\xa4\x86\xe0\xa4\xb0\xe0\xa5\x8b\xe0\xa4\xaa\xe0\xa5\x80'
p1545
sS'af'
p1546
S'\xe0\xa4\x86\xe0\xa4\xb0\xe0\xa5\x8b\xe0\xa4\xaa\xe0\xa5\x80,n,m,pl,3,d,0,0'
p1547
sS'chunkid'
p1548
S'NP3'
p1549
sS'drel'
p1550
S'ccof:CCP'
p1551
sS'chunktype'
p1552
S'head:NP3'
p1553
sS'cref'
p1554
S'i17%1:t9,i18%1:t10,i19%1:t11,i20%1:t12,i21%1:t13'
p1555
ssbsg30
I00
sg31
I00
sg32
Nsg33
Nsg34
I3
sg35
I3
sg36
Nsg37
Nsg38
S'NN'
p1556
sg40
g1537
sg41
I00
sba(issf_api
Word
p1557
(dp1558
g6
I00
sg7
V\u092c\u093e\u0932
p1559
sg9
(issf_api
FeatureSet
p1560
(dp1561
g12
(dp1562
S'posn'
p1563
S'90'
p1564
sS'name'
p1565
S'\xe0\xa4\xac\xe0\xa4\xbe\xe0\xa4\xb2'
p1566
sS'af'
p1567
S'\xe0\xa4\xac\xe0\xa4\xbe\xe0\xa4\xb2,n,m,sg,3,d,0,0'
p1568
sS'drel'
p1569
S'pof__cn:NP4'
p1570
sS'chunktype'
p1571
S'child:NP4'
p1572
sS'cref'
p1573
S'i22%0:t9'
p1574
ssbsg30
I00
sg31
I00
sg32
Nsg33
Nsg34
I4
sg35
I3
sg36
Nsg37
Nsg38
S'NNPC'
p1575
sg40
g1560
sg41
I00
sba(issf_api
Word
p1576
(dp1577
g6
I00
sg7
V\u0906\u0902\u0917\u094d\u0930\u0947
p1578
sg9
(issf_api
FeatureSet
p1579
(dp1580
g12
(dp1581
S'crefhead'
p1582
S'\xe0\xa4\x86\xe0\xa4\x82\xe0\xa4\x97\xe0\xa5\x8d\xe0\xa4\xb0\xe0\xa5\x87:i22'
p1583
sS'posn'
p1584
S'100'
p1585
sS'name'
p1586
S'\xe0\xa4\x86\xe0\xa4\x82\xe0\xa4\x97\xe0\xa5\x8d\xe0\xa4\xb0\xe0\xa5\x87'
p1587
sS'af'
p1588
S'\xe0\xa4\x86\xe0\xa4\x82\xe0\xa4\x97\xe0\xa5\x8d\xe0\xa4\xb0\xe0\xa5\x87,n,any,sg,3,d,0,0'
p1589
sS'chunkid'
p1590
S'NP4'
p1591
sS'creftype'
p1592
S'Coreference-PartOf:i17'
p1593
sS'chunktype'
p1594
S'head:NP4'
p1595
sS'crefchainhead'
p1596
S'i22:t9'
p1597
sS'cref'
p1598
S'i22%1:t9'
p1599
sS'drel'
p1600
S'ccof:CCP2'
p1601
ssbsg30
I00
sg31
I00
sg32
Nsg33
Nsg34
I4
sg35
I3
sg36
Nsg37
Nsg38
S'NNP'
p1602
sg40
g1579
sg41
I00
sba(issf_api
Word
p1603
(dp1604
g6
I00
sg7
V,
p1605
sg9
(issf_api
FeatureSet
p1606
(dp1607
g12
(dp1608
S'posn'
p1609
S'110'
p1610
sS'name'
p1611
S','
p1612
sS'drel'
p1613
S'rsym:NP4'
p1614
sS'chunktype'
p1615
S'child:NP4'
p1616
sS'af'
p1617
S'COMMA,punc,,,,,,'
p1618
ssbsg30
I00
sg31
I00
sg32
Nsg33
Nsg34
I4
sg35
I3
sg36
Nsg37
Nsg38
S'SYM'
p1619
sg40
g1606
sg41
I00
sba(issf_api
Word
p1620
(dp1621
g6
I00
sg7
V\u092a\u094d\u0930\u0924\u093e\u092a
p1622
sg9
(issf_api
FeatureSet
p1623
(dp1624
g12
(dp1625
S'posn'
p1626
S'120'
p1627
sS'name'
p1628
S'\xe0\xa4\xaa\xe0\xa5\x8d\xe0\xa4\xb0\xe0\xa4\xa4\xe0\xa4\xbe\xe0\xa4\xaa'
p1629
sS'af'
p1630
S'\xe0\xa4\xaa\xe0\xa5\x8d\xe0\xa4\xb0\xe0\xa4\xa4\xe0\xa4\xbe\xe0\xa4\xaa,n,m,sg,3,d,0,0'
p1631
sS'drel'
p1632
S'pof__cn:NP5'
p1633
sS'chunktype'
p1634
S'child:NP5'
p1635
sS'cref'
p1636
S'i23%0:t10'
p1637
ssbsg30
I00
sg31
I00
sg32
Nsg33
Nsg34
I5
sg35
I3
sg36
Nsg37
Nsg38
S'NNPC'
p1638
sg40
g1623
sg41
I00
sba(issf_api
Word
p1639
(dp1640
g6
I00
sg7
V\u0938\u093f\u0902\u0939
p1641
sg9
(issf_api
FeatureSet
p1642
(dp1643
g12
(dp1644
S'crefhead'
p1645
S'\xe0\xa4\xb8\xe0\xa4\xbf\xe0\xa4\x82\xe0\xa4\xb9:i23'
p1646
sS'posn'
p1647
S'130'
p1648
sS'name'
p1649
S'\xe0\xa4\xb8\xe0\xa4\xbf\xe0\xa4\x82\xe0\xa4\xb9'
p1650
sS'af'
p1651
S'\xe0\xa4\xb8\xe0\xa4\xbf\xe0\xa4\x82\xe0\xa4\xb9,n,m,sg,3,d,0,0'
p1652
sS'chunkid'
p1653
S'NP5'
p1654
sS'creftype'
p1655
S'Coreference-PartOf:i18'
p1656
sS'chunktype'
p1657
S'head:NP5'
p1658
sS'crefchainhead'
p1659
S'i23:t10'
p1660
sS'cref'
p1661
S'i23%1:t10'
p1662
sS'drel'
p1663
S'ccof:CCP2'
p1664
ssbsg30
I00
sg31
I00
sg32
Nsg33
Nsg34
I5
sg35
I3
sg36
Nsg37
Nsg38
S'NNP'
p1665
sg40
g1642
sg41
I00
sba(issf_api
Word
p1666
(dp1667
g6
I00
sg7
V,
p1668
sg9
(issf_api
FeatureSet
p1669
(dp1670
g12
(dp1671
S'posn'
p1672
S'140'
p1673
sS'name'
p1674
S',2'
p1675
sS'drel'
p1676
S'rsym:NP5'
p1677
sS'chunktype'
p1678
S'child:NP5'
p1679
sS'af'
p1680
S'COMMA,punc,,,,,,'
p1681
ssbsg30
I00
sg31
I00
sg32
Nsg33
Nsg34
I5
sg35
I3
sg36
Nsg37
Nsg38
S'SYM'
p1682
sg40
g1669
sg41
I00
sba(issf_api
Word
p1683
(dp1684
g6
I00
sg7
V\u0913\u092e
p1685
sg9
(issf_api
FeatureSet
p1686
(dp1687
g12
(dp1688
S'posn'
p1689
S'150'
p1690
sS'name'
p1691
S'\xe0\xa4\x93\xe0\xa4\xae'
p1692
sS'af'
p1693
S'\xe0\xa4\x93\xe0\xa4\xae,n,m,sg,3,d,0,0'
p1694
sS'drel'
p1695
S'pof__cn:NP6'
p1696
sS'chunktype'
p1697
S'child:NP6'
p1698
sS'cref'
p1699
S'i24%0:t11'
p1700
ssbsg30
I00
sg31
I00
sg32
Nsg33
Nsg34
I6
sg35
I3
sg36
Nsg37
Nsg38
S'NNPC'
p1701
sg40
g1686
sg41
I00
sba(issf_api
Word
p1702
(dp1703
g6
I00
sg7
V\u0938\u093f\u0902\u0939
p1704
sg9
(issf_api
FeatureSet
p1705
(dp1706
g12
(dp1707
S'crefhead'
p1708
S'\xe0\xa4\xb8\xe0\xa4\xbf\xe0\xa4\x82\xe0\xa4\xb9:i24'
p1709
sS'posn'
p1710
S'160'
p1711
sS'name'
p1712
S'\xe0\xa4\xb8\xe0\xa4\xbf\xe0\xa4\x82\xe0\xa4\xb92'
p1713
sS'af'
p1714
S'\xe0\xa4\xb8\xe0\xa4\xbf\xe0\xa4\x82\xe0\xa4\xb9,n,m,sg,3,d,0,0'
p1715
sS'chunkid'
p1716
S'NP6'
p1717
sS'creftype'
p1718
S'Coreference-PartOf:i19'
p1719
sS'chunktype'
p1720
S'head:NP6'
p1721
sS'crefchainhead'
p1722
S'i24:t11'
p1723
sS'cref'
p1724
S'i24%1:t11'
p1725
sS'drel'
p1726
S'ccof:CCP2'
p1727
ssbsg30
I00
sg31
I00
sg32
Nsg33
Nsg34
I6
sg35
I3
sg36
Nsg37
Nsg38
S'NNP'
p1728
sg40
g1705
sg41
I00
sba(issf_api
Word
p1729
(dp1730
g6
I00
sg7
V,
p1731
sg9
(issf_api
FeatureSet
p1732
(dp1733
g12
(dp1734
S'posn'
p1735
S'170'
p1736
sS'name'
p1737
S',3'
p1738
sS'drel'
p1739
S'rsym:NP6'
p1740
sS'chunktype'
p1741
S'child:NP6'
p1742
sS'af'
p1743
S'COMMA,punc,,,,,,'
p1744
ssbsg30
I00
sg31
I00
sg32
Nsg33
Nsg34
I6
sg35
I3
sg36
Nsg37
Nsg38
S'SYM'
p1745
sg40
g1732
sg41
I00
sba(issf_api
Word
p1746
(dp1747
g6
I00
sg7
V\u0926\u0941\u0937\u094d\u092f\u0902\u0924
p1748
sg9
(issf_api
FeatureSet
p1749
(dp1750
g12
(dp1751
S'posn'
p1752
S'180'
p1753
sS'name'
p1754
S'\xe0\xa4\xa6\xe0\xa5\x81\xe0\xa4\xb7\xe0\xa5\x8d\xe0\xa4\xaf\xe0\xa4\x82\xe0\xa4\xa4'
p1755
sS'af'
p1756
S'\xe0\xa4\xa6\xe0\xa5\x81\xe0\xa4\xb7\xe0\xa5\x8d\xe0\xa4\xaf\xe0\xa4\x82\xe0\xa4\xa4,n,m,sg,3,d,0,0'
p1757
sS'drel'
p1758
S'pof__cn:NP7'
p1759
sS'chunktype'
p1760
S'child:NP7'
p1761
sS'cref'
p1762
S'i25%0:t12'
p1763
ssbsg30
I00
sg31
I00
sg32
Nsg33
Nsg34
I7
sg35
I3
sg36
Nsg37
Nsg38
S'NNPC'
p1764
sg40
g1749
sg41
I00
sba(issf_api
Word
p1765
(dp1766
g6
I00
sg7
V\u0938\u093f\u0902\u0939
p1767
sg9
(issf_api
FeatureSet
p1768
(dp1769
g12
(dp1770
S'crefhead'
p1771
S'\xe0\xa4\xb8\xe0\xa4\xbf\xe0\xa4\x82\xe0\xa4\xb9:i25'
p1772
sS'posn'
p1773
S'190'
p1774
sS'name'
p1775
S'\xe0\xa4\xb8\xe0\xa4\xbf\xe0\xa4\x82\xe0\xa4\xb93'
p1776
sS'af'
p1777
S'\xe0\xa4\xb8\xe0\xa4\xbf\xe0\xa4\x82\xe0\xa4\xb9,n,m,sg,3,d,0,0'
p1778
sS'chunkid'
p1779
S'NP7'
p1780
sS'creftype'
p1781
S'Coreference-PartOf:i20'
p1782
sS'chunktype'
p1783
S'head:NP7'
p1784
sS'crefchainhead'
p1785
S'i25:t12'
p1786
sS'cref'
p1787
S'i25%1:t12'
p1788
sS'drel'
p1789
S'ccof:CCP2'
p1790
ssbsg30
I00
sg31
I00
sg32
Nsg33
Nsg34
I7
sg35
I3
sg36
Nsg37
Nsg38
S'NNP'
p1791
sg40
g1768
sg41
I00
sba(issf_api
Word
p1792
(dp1793
g6
I00
sg7
V\u0914\u0930
p1794
sg9
(issf_api
FeatureSet
p1795
(dp1796
g12
(dp1797
S'posn'
p1798
S'200'
p1799
sS'name'
p1800
S'\xe0\xa4\x94\xe0\xa4\xb02'
p1801
sS'af'
p1802
S'\xe0\xa4\x94\xe0\xa4\xb0,avy,,,,,,'
p1803
sS'chunkid'
p1804
S'CCP2'
p1805
sS'drel'
p1806
S'rs:NP3'
p1807
sS'chunktype'
p1808
S'head:CCP2'
p1809
ssbsg30
I00
sg31
I00
sg32
Nsg33
Nsg34
I8
sg35
I3
sg36
Nsg37
Nsg38
S'CC'
p1810
sg40
g1795
sg41
I00
sba(issf_api
Word
p1811
(dp1812
g6
I00
sg7
V\u0917\u094b\u0935\u0930\u094d\u0927\u0928
p1813
sg9
(issf_api
FeatureSet
p1814
(dp1815
g12
(dp1816
S'posn'
p1817
S'210'
p1818
sS'name'
p1819
S'\xe0\xa4\x97\xe0\xa5\x8b\xe0\xa4\xb5\xe0\xa4\xb0\xe0\xa5\x8d\xe0\xa4\xa7\xe0\xa4\xa8'
p1820
sS'af'
p1821
S'\xe0\xa4\x97\xe0\xa5\x8b\xe0\xa4\xb5\xe0\xa4\xb0\xe0\xa5\x8d\xe0\xa4\xa7\xe0\xa4\xa8,n,m,sg,3,d,0,0'
p1822
sS'drel'
p1823
S'pof__cn:NP8'
p1824
sS'chunktype'
p1825
S'child:NP8'
p1826
sS'cref'
p1827
S'i26%0:t13'
p1828
ssbsg30
I00
sg31
I00
sg32
Nsg33
Nsg34
I9
sg35
I3
sg36
Nsg37
Nsg38
S'NNPC'
p1829
sg40
g1814
sg41
I00
sba(issf_api
Word
p1830
(dp1831
g6
I00
sg7
V\u0938\u093f\u0902\u0939
p1832
sg9
(issf_api
FeatureSet
p1833
(dp1834
g12
(dp1835
S'crefhead'
p1836
S'\xe0\xa4\xb8\xe0\xa4\xbf\xe0\xa4\x82\xe0\xa4\xb9:i26'
p1837
sS'posn'
p1838
S'220'
p1839
sS'name'
p1840
S'\xe0\xa4\xb8\xe0\xa4\xbf\xe0\xa4\x82\xe0\xa4\xb94'
p1841
sS'af'
p1842
S'\xe0\xa4\xb8\xe0\xa4\xbf\xe0\xa4\x82\xe0\xa4\xb9,n,m,sg,3,d,0,0'
p1843
sS'chunkid'
p1844
S'NP8'
p1845
sS'creftype'
p1846
S'Coreference-PartOf:i21'
p1847
sS'chunktype'
p1848
S'head:NP8'
p1849
sS'crefchainhead'
p1850
S'i26:t13'
p1851
sS'cref'
p1852
S'i26%1:t13'
p1853
sS'drel'
p1854
S'ccof:CCP2'
p1855
ssbsg30
I00
sg31
I00
sg32
Nsg33
Nsg34
I9
sg35
I3
sg36
Nsg37
Nsg38
S'NNP'
p1856
sg40
g1833
sg41
I00
sba(issf_api
Word
p1857
(dp1858
g6
I00
sg7
V\u092d\u0940
p1859
sg9
(issf_api
FeatureSet
p1860
(dp1861
g12
(dp1862
S'posn'
p1863
S'230'
p1864
sS'name'
p1865
S'\xe0\xa4\xad\xe0\xa5\x80'
p1866
sS'drel'
p1867
S'lwg__rp:NP8'
p1868
sS'chunktype'
p1869
S'child:NP8'
p1870
sS'af'
p1871
S'\xe0\xa4\xad\xe0\xa5\x80,avy,,,,,,'
p1872
ssbsg30
I00
sg31
I00
sg32
Nsg33
Nsg34
I9
sg35
I3
sg36
Nsg37
Nsg38
S'RP'
p1873
sg40
g1860
sg41
I00
sba(issf_api
Word
p1874
(dp1875
g6
I00
sg7
V\u092e\u094c\u091c\u0942\u0926
p1876
sg9
(issf_api
FeatureSet
p1877
(dp1878
g12
(dp1879
S'posn'
p1880
S'240'
p1881
sS'name'
p1882
S'\xe0\xa4\xae\xe0\xa5\x8c\xe0\xa4\x9c\xe0\xa5\x82\xe0\xa4\xa6'
p1883
sS'af'
p1884
S'\xe0\xa4\xae\xe0\xa5\x8c\xe0\xa4\x9c\xe0\xa5\x82\xe0\xa4\xa6,adj,any,any,,,,'
p1885
sS'chunkid'
p1886
S'JJP'
p1887
sS'drel'
p1888
S'pof:VGF'
p1889
sS'chunktype'
p1890
S'head:JJP'
p1891
ssbsg30
I00
sg31
I00
sg32
Nsg33
Nsg34
I10
sg35
I3
sg36
Nsg37
Nsg38
S'JJ'
p1892
sg40
g1877
sg41
I00
sba(issf_api
Word
p1893
(dp1894
g6
I00
sg7
V\u0930\u0939\u0947\u0902\u0917\u0947
p1895
sg9
(issf_api
FeatureSet
p1896
(dp1897
g12
(dp1898
S'posn'
p1899
S'250'
p1900
sS'name'
p1901
S'\xe0\xa4\xb0\xe0\xa4\xb9\xe0\xa5\x87\xe0\xa4\x82\xe0\xa4\x97\xe0\xa5\x87'
p1902
sS'af'
p1903
S'\xe0\xa4\xb0\xe0\xa4\xb9,v,m,pl,3,,\xe0\xa4\x97\xe0\xa4\xbe,gA'
p1904
sS'chunkid'
p1905
S'VGF'
p1906
sS'chunktype'
p1907
S'head:VGF'
p1908
sS'voicetype'
p1909
S'active'
p1910
sS'stype'
p1911
S'declarative'
p1912
ssbsg30
I00
sg31
I00
sg32
Nsg33
Nsg34
I11
sg35
I3
sg36
Nsg37
Nsg38
S'VM'
p1913
sg40
g1896
sg41
I00
sba(issf_api
Word
p1914
(dp1915
g6
I00
sg7
V\u0964
p1916
sg9
(issf_api
FeatureSet
p1917
(dp1918
g12
(dp1919
S'posn'
p1920
S'260'
p1921
sS'name'
p1922
S'\xe0\xa5\xa4'
p1923
sS'af'
p1924
S'\xe0\xa5\xa4,punc,,,,,,'
p1925
sS'chunkid'
p1926
S'BLK'
p1927
sS'drel'
p1928
S'rsym:VGF'
p1929
sS'chunktype'
p1930
S'head:BLK'
p1931
ssbsg30
I00
sg31
I00
sg32
Nsg33
Nsg34
I12
sg35
I3
sg36
Nsg37
Nsg38
S'SYM'
p1932
sg40
g1917
sg41
I00
sba(issf_api
Word
p1933
(dp1934
g6
I00
sg7
V\u092f\u0939
p1935
sg9
(issf_api
FeatureSet
p1936
(dp1937
g12
(dp1938
S'posn'
p1939
S'10'
p1940
sS'name'
p1941
S'\xe0\xa4\xaf\xe0\xa4\xb9'
p1942
sS'af'
p1943
S'\xe0\xa4\xaf\xe0\xa4\xb9,pn,any,sg,3,d,,'
p1944
sS'drel'
p1945
S'nmod__adj:NP'
p1946
sS'chunktype'
p1947
S'child:NP'
p1948
sS'cref'
p1949
S'i27%0:t1'
p1950
ssbsg30
I00
sg31
I00
sg32
Nsg33
Nsg34
I0
sg35
I4
sg36
Nsg37
Nsg38
S'DEM'
p1951
sg40
g1936
sg41
I00
sba(issf_api
Word
p1952
(dp1953
g6
I00
sg7
V\u092e\u093e\u092e\u0932\u093e
p1954
sg9
(issf_api
FeatureSet
p1955
(dp1956
g12
(dp1957
S'crefhead'
p1958
S'\xe0\xa4\xae\xe0\xa4\xbe\xe0\xa4\xae\xe0\xa4\xb2\xe0\xa4\xbe:i27'
p1959
sS'posn'
p1960
S'20'
p1961
sS'name'
p1962
S'\xe0\xa4\xae\xe0\xa4\xbe\xe0\xa4\xae\xe0\xa4\xb2\xe0\xa4\xbe'
p1963
sS'af'
p1964
S'\xe0\xa4\xae\xe0\xa4\xbe\xe0\xa4\xae\xe0\xa4\xb2\xe0\xa4\xbe,n,m,sg,3,d,0,0'
p1965
sS'chunkid'
p1966
S'NP'
p1967
sS'creftype'
p1968
S'Coreference-Identity:i5'
p1969
sS'chunktype'
p1970
S'head:NP'
p1971
sS'cref'
p1972
S'i27%1:t1'
p1973
sS'drel'
p1974
S'k1:VGF'
p1975
ssbsg30
I00
sg31
I00
sg32
Nsg33
Nsg34
I0
sg35
I4
sg36
Nsg37
Nsg38
S'NN'
p1976
sg40
g1955
sg41
I00
sba(issf_api
Word
p1977
(dp1978
g6
I00
sg7
V\u0935\u0930\u094d\u0937
p1979
sg9
(issf_api
FeatureSet
p1980
(dp1981
g12
(dp1982
S'posn'
p1983
S'30'
p1984
sS'name'
p1985
S'\xe0\xa4\xb5\xe0\xa4\xb0\xe0\xa5\x8d\xe0\xa4\xb7'
p1986
sS'drel'
p1987
S'nmod:NP2'
p1988
sS'chunktype'
p1989
S'child:NP2'
p1990
sS'af'
p1991
S'\xe0\xa4\xb5\xe0\xa4\xb0\xe0\xa5\x8d\xe0\xa4\xb7,n,m,sg,3,d,0,0'
p1992
ssbsg30
I00
sg31
I00
sg32
Nsg33
Nsg34
I1
sg35
I4
sg36
Nsg37
Nsg38
S'NN'
p1993
sg40
g1980
sg41
I00
sba(issf_api
Word
p1994
(dp1995
g6
I00
sg7
V\u0967\u096f\u096e\u096e
p1996
sg9
(issf_api
FeatureSet
p1997
(dp1998
g12
(dp1999
S'posn'
p2000
S'40'
p2001
sS'name'
p2002
S'\xe0\xa5\xa7\xe0\xa5\xaf\xe0\xa5\xae\xe0\xa5\xae'
p2003
sS'af'
p2004
S'\xe0\xa5\xa7\xe0\xa5\xaf\xe0\xa5\xae\xe0\xa5\xae,n,any,sg,3,o,0_\xe0\xa4\x95\xe0\xa4\xbe,0'
p2005
sS'chunkid'
p2006
S'NP2'
p2007
sS'drel'
p2008
S'r6:NP'
p2009
sS'vpos'
p2010
S'vib_vib_3'
p2011
sS'chunktype'
p2012
S'head:NP2'
p2013
ssbsg30
I00
sg31
I00
sg32
Nsg33
Nsg34
I1
sg35
I4
sg36
Nsg37
Nsg38
S'NNP'
p2014
sg40
g1997
sg41
I00
sba(issf_api
Word
p2015
(dp2016
g6
I00
sg7
V\u0915\u093e
p2017
sg9
(issf_api
FeatureSet
p2018
(dp2019
g12
(dp2020
S'posn'
p2021
S'50'
p2022
sS'name'
p2023
S'\xe0\xa4\x95\xe0\xa4\xbe'
p2024
sS'drel'
p2025
S'lwg__psp:NP2'
p2026
sS'chunktype'
p2027
S'child:NP2'
p2028
sS'af'
p2029
S'\xe0\xa4\x95\xe0\xa4\xbe,psp,m,sg,,d,,'
p2030
ssbsg30
I00
sg31
I00
sg32
Nsg33
Nsg34
I1
sg35
I4
sg36
Nsg37
Nsg38
S'PSP'
p2031
sg40
g2018
sg41
I00
sba(issf_api
Word
p2032
(dp2033
g6
I00
sg7
V\u0939\u0948
p2034
sg9
(issf_api
FeatureSet
p2035
(dp2036
g12
(dp2037
S'posn'
p2038
S'60'
p2039
sS'name'
p2040
S'\xe0\xa4\xb9\xe0\xa5\x88'
p2041
sS'af'
p2042
S'\xe0\xa4\xb9\xe0\xa5\x88,v,any,sg,3,,\xe0\xa4\xb9\xe0\xa5\x88,hE'
p2043
sS'chunkid'
p2044
S'VGF'
p2045
sS'chunktype'
p2046
S'head:VGF'
p2047
sS'voicetype'
p2048
S'active'
p2049
sS'stype'
p2050
S'declarative'
p2051
ssbsg30
I00
sg31
I00
sg32
Nsg33
Nsg34
I2
sg35
I4
sg36
Nsg37
Nsg38
S'VM'
p2052
sg40
g2035
sg41
I00
sba(issf_api
Word
p2053
(dp2054
g6
I00
sg7
V\u091c\u092c
p2055
sg9
(issf_api
FeatureSet
p2056
(dp2057
g12
(dp2058
S'crefhead'
p2059
S'\xe0\xa4\x9c\xe0\xa4\xac:i28'
p2060
sS'posn'
p2061
S'70'
p2062
sS'name'
p2063
S'\xe0\xa4\x9c\xe0\xa4\xac'
p2064
sS'af'
p2065
S'\xe0\xa4\x9c\xe0\xa4\xac,pn,,,,d,,'
p2066
sS'coref'
p2067
S':NP2'
p2068
sS'chunkid'
p2069
S'NP3'
p2070
sS'chunktype'
p2071
S'head:NP3'
p2072
sS'cref'
p2073
S'i28%1:t14'
p2074
sS'drel'
p2075
S'k7t:VGF2'
p2076
ssbsg30
I00
sg31
I00
sg32
Nsg33
Nsg34
I3
sg35
I4
sg36
Nsg37
Nsg38
S'PRP'
p2077
sg40
g2056
sg41
I00
sba(issf_api
Word
p2078
(dp2079
g6
I00
sg7
V\u0918\u094b\u0930\u093e
p2080
sg9
(issf_api
FeatureSet
p2081
(dp2082
g12
(dp2083
S'posn'
p2084
S'80'
p2085
sS'name'
p2086
S'\xe0\xa4\x98\xe0\xa5\x8b\xe0\xa4\xb0\xe0\xa4\xbe'
p2087
sS'af'
p2088
S'\xe0\xa4\x98\xe0\xa5\x8b\xe0\xa4\xb0\xe0\xa4\xbe,n,m,sg,3,d,0,0'
p2089
sS'drel'
p2090
S'pof__cn:NP4'
p2091
sS'chunktype'
p2092
S'child:NP4'
p2093
sS'cref'
p2094
S'i29%0:t14'
p2095
ssbsg30
I00
sg31
I00
sg32
Nsg33
Nsg34
I4
sg35
I4
sg36
Nsg37
Nsg38
S'NNPC'
p2096
sg40
g2081
sg41
I00
sba(issf_api
Word
p2097
(dp2098
g6
I00
sg7
V\u092b\u093e\u0930\u094d\u092e\u0939\u093e\u0909\u0938
p2099
sg9
(issf_api
FeatureSet
p2100
(dp2101
g12
(dp2102
S'posn'
p2103
S'90'
p2104
sS'name'
p2105
S'\xe0\xa4\xab\xe0\xa4\xbe\xe0\xa4\xb0\xe0\xa5\x8d\xe0\xa4\xae\xe0\xa4\xb9\xe0\xa4\xbe\xe0\xa4\x89\xe0\xa4\xb8'
p2106
sS'af'
p2107
S'\xe0\xa4\xab\xe0\xa4\xbe\xe0\xa4\xb0\xe0\xa5\x8d\xe0\xa4\xae\xe0\xa4\xb9\xe0\xa4\xbe\xe0\xa4\x89\xe0\xa4\xb8,n,m,sg,3,o,0_\xe0\xa4\xae\xe0\xa5\x87\xe0\xa4\x82,0'
p2108
sS'chunkid'
p2109
S'NP4'
p2110
sS'drel'
p2111
S'k7p:VGF2'
p2112
sS'chunktype'
p2113
S'head:NP4'
p2114
sS'vpos'
p2115
S'vib_3'
p2116
sS'cref'
p2117
S'i29%0:t14'
p2118
ssbsg30
I00
sg31
I00
sg32
Nsg33
Nsg34
I4
sg35
I4
sg36
Nsg37
Nsg38
S'NNP'
p2119
sg40
g2100
sg41
I00
sba(issf_api
Word
p2120
(dp2121
g6
I00
sg7
V\u092e\u0947\u0902
p2122
sg9
(issf_api
FeatureSet
p2123
(dp2124
g12
(dp2125
S'posn'
p2126
S'100'
p2127
sS'name'
p2128
S'\xe0\xa4\xae\xe0\xa5\x87\xe0\xa4\x82'
p2129
sS'af'
p2130
S'\xe0\xa4\xae\xe0\xa5\x87\xe0\xa4\x82,psp,,,,,,'
p2131
sS'drel'
p2132
S'lwg__psp:NP4'
p2133
sS'chunktype'
p2134
S'child:NP4'
p2135
sS'cref'
p2136
S'i29%0:t14'
p2137
ssbsg30
I00
sg31
I00
sg32
Nsg33
Nsg34
I4
sg35
I4
sg36
Nsg37
Nsg38
S'PSP'
p2138
sg40
g2123
sg41
I00
sba(issf_api
Word
p2139
(dp2140
g6
I00
sg7
V\u0938\u0932\u092e\u093e\u0928
p2141
sg9
(issf_api
FeatureSet
p2142
(dp2143
g12
(dp2144
S'crefhead'
p2145
S'\xe0\xa4\xb8\xe0\xa4\xb2\xe0\xa4\xae\xe0\xa4\xbe\xe0\xa4\xa8:i30'
p2146
sS'posn'
p2147
S'110'
p2148
sS'name'
p2149
S'\xe0\xa4\xb8\xe0\xa4\xb2\xe0\xa4\xae\xe0\xa4\xbe\xe0\xa4\xa8'
p2150
sS'af'
p2151
S'\xe0\xa4\xb8\xe0\xa4\xb2\xe0\xa4\xae\xe0\xa4\xbe\xe0\xa4\xa8,n,m,sg,3,o,0,0'
p2152
sS'chunkid'
p2153
S'NP5'
p2154
sS'creftype'
p2155
S'Coreference-Identity:i16'
p2156
sS'chunktype'
p2157
S'head:NP5'
p2158
sS'cref'
p2159
S'i30%1:t4,i29%0:t14'
p2160
sS'drel'
p2161
S'ccof:CCP'
p2162
ssbsg30
I00
sg31
I00
sg32
Nsg33
Nsg34
I5
sg35
I4
sg36
Nsg37
Nsg38
S'NNP'
p2163
sg40
g2142
sg41
I00
sba(issf_api
Word
p2164
(dp2165
g6
I00
sg7
V\u0914\u0930
p2166
sg9
(issf_api
FeatureSet
p2167
(dp2168
g12
(dp2169
S'posn'
p2170
S'120'
p2171
sS'name'
p2172
S'\xe0\xa4\x94\xe0\xa4\xb0'
p2173
sS'af'
p2174
S'\xe0\xa4\x94\xe0\xa4\xb0,avy,,,,,,'
p2175
sS'chunkid'
p2176
S'CCP'
p2177
sS'drel'
p2178
S'k1:VGF2'
p2179
sS'chunktype'
p2180
S'head:CCP'
p2181
sS'cref'
p2182
S'i29%0:t14'
p2183
ssbsg30
I00
sg31
I00
sg32
Nsg33
Nsg34
I6
sg35
I4
sg36
Nsg37
Nsg38
S'CC'
p2184
sg40
g2167
sg41
I00
sba(issf_api
Word
p2185
(dp2186
g6
I00
sg7
V\u0905\u0928\u094d\u092f
p2187
sg9
(issf_api
FeatureSet
p2188
(dp2189
g12
(dp2190
S'posn'
p2191
S'130'
p2192
sS'name'
p2193
S'\xe0\xa4\x85\xe0\xa4\xa8\xe0\xa5\x8d\xe0\xa4\xaf'
p2194
sS'af'
p2195
S'\xe0\xa4\x85\xe0\xa4\xa8\xe0\xa5\x8d\xe0\xa4\xaf,adj,any,any,,o,,'
p2196
sS'drel'
p2197
S'nmod__adj:NP6'
p2198
sS'chunktype'
p2199
S'child:NP6'
p2200
sS'cref'
p2201
S'i31%0:t9,i32%0:t10,i33%0:t11,i34%0:t12,i35%0:t13,i29%0:t14'
p2202
ssbsg30
I00
sg31
I00
sg32
Nsg33
Nsg34
I7
sg35
I4
sg36
Nsg37
Nsg38
S'JJ'
p2203
sg40
g2188
sg41
I00
sba(issf_api
Word
p2204
(dp2205
g6
I00
sg7
V\u0906\u0930\u094b\u092a\u093f\u092f\u094b\u0902
p2206
sg9
(issf_api
FeatureSet
p2207
(dp2208
g12
(dp2209
S'crefhead'
p2210
S'\xe0\xa4\x86\xe0\xa4\xb0\xe0\xa5\x8b\xe0\xa4\xaa\xe0\xa4\xbf\xe0\xa4\xaf\xe0\xa5\x8b\xe0\xa4\x82:i31,\xe0\xa4\x86\xe0\xa4\xb0\xe0\xa5\x8b\xe0\xa4\xaa\xe0\xa4\xbf\xe0\xa4\xaf\xe0\xa5\x8b\xe0\xa4\x82:i32,\xe0\xa4\x86\xe0\xa4\xb0\xe0\xa5\x8b\xe0\xa4\xaa\xe0\xa4\xbf\xe0\xa4\xaf\xe0\xa5\x8b\xe0\xa4\x82:i33,\xe0\xa4\x86\xe0\xa4\xb0\xe0\xa5\x8b\xe0\xa4\xaa\xe0\xa4\xbf\xe0\xa4\xaf\xe0\xa5\x8b\xe0\xa4\x82:i34,\xe0\xa4\x86\xe0\xa4\xb0\xe0\xa5\x8b\xe0\xa4\xaa\xe0\xa4\xbf\xe0\xa4\xaf\xe0\xa5\x8b\xe0\xa4\x82:i35'
p2211
sS'posn'
p2212
S'140'
p2213
sS'name'
p2214
S'\xe0\xa4\x86\xe0\xa4\xb0\xe0\xa5\x8b\xe0\xa4\xaa\xe0\xa4\xbf\xe0\xa4\xaf\xe0\xa5\x8b\xe0\xa4\x82'
p2215
sS'af'
p2216
S'\xe0\xa4\x86\xe0\xa4\xb0\xe0\xa5\x8b\xe0\xa4\xaa\xe0\xa5\x80,n,m,pl,3,o,0_\xe0\xa4\xa8\xe0\xa5\x87,0'
p2217
sS'chunkid'
p2218
S'NP6'
p2219
sS'creftype'
p2220
S'Coreference-Identity:i26,Coreference-Identity:i25,Coreference-Identity:i24,Coreference-Identity:i23,Coreference-Identity:i22'
p2221
sS'chunktype'
p2222
S'head:NP6'
p2223
sS'vpos'
p2224
S'vib_3'
p2225
sS'cref'
p2226
S'i31%1:t9,i32%1:t10,i33%1:t11,i34%1:t12,i35%1:t13,i29%0:t14'
p2227
sS'drel'
p2228
S'ccof:CCP'
p2229
ssbsg30
I00
sg31
I00
sg32
Nsg33
Nsg34
I7
sg35
I4
sg36
Nsg37
Nsg38
S'NN'
p2230
sg40
g2207
sg41
I00
sba(issf_api
Word
p2231
(dp2232
g6
I00
sg7
V\u0928\u0947
p2233
sg9
(issf_api
FeatureSet
p2234
(dp2235
g12
(dp2236
S'posn'
p2237
S'150'
p2238
sS'name'
p2239
S'\xe0\xa4\xa8\xe0\xa5\x87'
p2240
sS'af'
p2241
S'\xe0\xa4\xa8\xe0\xa5\x87,psp,,,,,,'
p2242
sS'drel'
p2243
S'lwg__psp:NP6'
p2244
sS'chunktype'
p2245
S'child:NP6'
p2246
sS'cref'
p2247
S'i29%0:t14'
p2248
ssbsg30
I00
sg31
I00
sg32
Nsg33
Nsg34
I7
sg35
I4
sg36
Nsg37
Nsg38
S'PSP'
p2249
sg40
g2234
sg41
I00
sba(issf_api
Word
p2250
(dp2251
g6
I00
sg7
V\u090f\u0915
p2252
sg9
(issf_api
FeatureSet
p2253
(dp2254
g12
(dp2255
S'posn'
p2256
S'160'
p2257
sS'name'
p2258
S'\xe0\xa4\x8f\xe0\xa4\x95'
p2259
sS'af'
p2260
S'\xe0\xa4\x8f\xe0\xa4\x95,num,any,any,,any,,'
p2261
sS'drel'
p2262
S'nmod__adj:NP7'
p2263
sS'chunktype'
p2264
S'child:NP7'
p2265
sS'cref'
p2266
S'i29%0:t14'
p2267
ssbsg30
I00
sg31
I00
sg32
Nsg33
Nsg34
I8
sg35
I4
sg36
Nsg37
Nsg38
S'QC'
p2268
sg40
g2253
sg41
I00
sba(issf_api
Word
p2269
(dp2270
g6
I00
sg7
V\u091a\u093f\u0902\u0915\u093e\u0930\u093e
p2271
sg9
(issf_api
FeatureSet
p2272
(dp2273
g12
(dp2274
S'crefhead'
p2275
S'\xe0\xa4\x9a\xe0\xa4\xbf\xe0\xa4\x82\xe0\xa4\x95\xe0\xa4\xbe\xe0\xa4\xb0\xe0\xa4\xbe:i36'
p2276
sS'posn'
p2277
S'170'
p2278
sS'name'
p2279
S'\xe0\xa4\x9a\xe0\xa4\xbf\xe0\xa4\x82\xe0\xa4\x95\xe0\xa4\xbe\xe0\xa4\xb0\xe0\xa4\xbe'
p2280
sS'af'
p2281
S'\xe0\xa4\x9a\xe0\xa4\xbf\xe0\xa4\x82\xe0\xa4\x95\xe0\xa4\xbe\xe0\xa4\xb0\xe0\xa4\xbe,n,m,sg,3,o,0,0'
p2282
sS'chunkid'
p2283
S'NP7'
p2284
sS'creftype'
p2285
S'Coreference-Identity:i2'
p2286
sS'chunktype'
p2287
S'head:NP7'
p2288
sS'cref'
p2289
S'i36%1:t2,i29%0:t14'
p2290
sS'drel'
p2291
S'k2:VGF2'
p2292
ssbsg30
I00
sg31
I00
sg32
Nsg33
Nsg34
I8
sg35
I4
sg36
Nsg37
Nsg38
S'NNP'
p2293
sg40
g2272
sg41
I00
sba(issf_api
Word
p2294
(dp2295
g6
I00
sg7
V(
p2296
sg9
(issf_api
FeatureSet
p2297
(dp2298
g12
(dp2299
S'posn'
p2300
S'180'
p2301
sS'name'
p2302
S'('
p2303
sS'af'
p2304
S',punc,,,,,,'
p2305
sS'drel'
p2306
S'rsym:NP8'
p2307
sS'chunktype'
p2308
S'child:NP8'
p2309
sS'cref'
p2310
S'i29%0:t14'
p2311
ssbsg30
I00
sg31
I00
sg32
Nsg33
Nsg34
I9
sg35
I4
sg36
Nsg37
Nsg38
S'SYM'
p2312
sg40
g2297
sg41
I00
sba(issf_api
Word
p2313
(dp2314
g6
I00
sg7
V\u0939\u093f\u0930\u0923
p2315
sg9
(issf_api
FeatureSet
p2316
(dp2317
g12
(dp2318
S'posn'
p2319
S'190'
p2320
sS'name'
p2321
S'\xe0\xa4\xb9\xe0\xa4\xbf\xe0\xa4\xb0\xe0\xa4\xa3'
p2322
sS'af'
p2323
S'\xe0\xa4\xb9\xe0\xa4\xbf\xe0\xa4\xb0\xe0\xa4\xa3,n,m,sg,3,o,0_\xe0\xa4\x95\xe0\xa4\xbe,0'
p2324
sS'acrefmodhead'
p2325
S'\xe0\xa4\xb9\xe0\xa4\xbf\xe0\xa4\xb0\xe0\xa4\xa3:m3'
p2326
sS'chunkid'
p2327
S'NP8'
p2328
sS'acrefmod'
p2329
S'm3%1:i37'
p2330
sS'chunktype'
p2331
S'head:NP8'
p2332
sS'vpos'
p2333
S'vib_3'
p2334
sS'cref'
p2335
S'i29%0:t14'
p2336
sS'drel'
p2337
S'r6:NP9'
p2338
ssbsg30
I00
sg31
I00
sg32
Nsg33
Nsg34
I9
sg35
I4
sg36
Nsg37
Nsg38
S'NN'
p2339
sg40
g2316
sg41
I00
sba(issf_api
Word
p2340
(dp2341
g6
I00
sg7
V\u0915\u0940
p2342
sg9
(issf_api
FeatureSet
p2343
(dp2344
g12
(dp2345
S'posn'
p2346
S'200'
p2347
sS'name'
p2348
S'\xe0\xa4\x95\xe0\xa5\x80'
p2349
sS'af'
p2350
S'\xe0\xa4\x95\xe0\xa4\xbe,psp,f,sg,,o,,'
p2351
sS'drel'
p2352
S'lwg__psp:NP8'
p2353
sS'chunktype'
p2354
S'child:NP8'
p2355
sS'cref'
p2356
S'i29%0:t14'
p2357
ssbsg30
I00
sg31
I00
sg32
Nsg33
Nsg34
I9
sg35
I4
sg36
Nsg37
Nsg38
S'PSP'
p2358
sg40
g2343
sg41
I00
sba(issf_api
Word
p2359
(dp2360
g6
I00
sg7
V\u090f\u0915
p2361
sg9
(issf_api
FeatureSet
p2362
(dp2363
g12
(dp2364
S'posn'
p2365
S'210'
p2366
sS'name'
p2367
S'\xe0\xa4\x8f\xe0\xa4\x952'
p2368
sS'af'
p2369
S'\xe0\xa4\x8f\xe0\xa4\x95,num,any,any,,any,,'
p2370
sS'drel'
p2371
S'nmod__adj:NP9'
p2372
sS'chunktype'
p2373
S'child:NP9'
p2374
sS'cref'
p2375
S'i37%0:t2:0::'
p2376
ssbsg30
I00
sg31
I00
sg32
Nsg33
Nsg34
I10
sg35
I4
sg36
Nsg37
Nsg38
S'QC'
p2377
sg40
g2362
sg41
I00
sba(issf_api
Word
p2378
(dp2379
g6
I00
sg7
V\u092a\u094d\u0930\u091c\u093e\u0924\u093f
p2380
sg9
(issf_api
FeatureSet
p2381
(dp2382
g12
(dp2383
S'crefhead'
p2384
S'\xe0\xa4\xaa\xe0\xa5\x8d\xe0\xa4\xb0\xe0\xa4\x9c\xe0\xa4\xbe\xe0\xa4\xa4\xe0\xa4\xbf:i37'
p2385
sS'posn'
p2386
S'220'
p2387
sS'name'
p2388
S'\xe0\xa4\xaa\xe0\xa5\x8d\xe0\xa4\xb0\xe0\xa4\x9c\xe0\xa4\xbe\xe0\xa4\xa4\xe0\xa4\xbf'
p2389
sS'af'
p2390
S'\xe0\xa4\xaa\xe0\xa5\x8d\xe0\xa4\xb0\xe0\xa4\x9c\xe0\xa4\xbe\xe0\xa4\xa4\xe0\xa4\xbf,n,f,sg,3,o,0,0'
p2391
sS'chunkid'
p2392
S'NP9'
p2393
sS'crefmod'
p2394
S'm3:i37'
p2395
sS'creftype'
p2396
S'Coreference-Bracketed/Abbraviation:i36'
p2397
sS'chunktype'
p2398
S'head:NP9'
p2399
sS'cref'
p2400
S'i37%1:t2,i29%0:t14'
p2401
sS'drel'
p2402
S'rs:NP7'
p2403
ssbsg30
I00
sg31
I00
sg32
Nsg33
Nsg34
I10
sg35
I4
sg36
Nsg37
Nsg38
S'NN'
p2404
sg40
g2381
sg41
I00
sba(issf_api
Word
p2405
(dp2406
g6
I00
sg7
V)
p2407
sg9
(issf_api
FeatureSet
p2408
(dp2409
g12
(dp2410
S'posn'
p2411
S'230'
p2412
sS'name'
p2413
S')'
p2414
sS'af'
p2415
S',punc,,,,,,'
p2416
sS'drel'
p2417
S'rsym:NP9'
p2418
sS'chunktype'
p2419
S'child:NP9'
p2420
sS'cref'
p2421
S'i29%0:t14'
p2422
ssbsg30
I00
sg31
I00
sg32
Nsg33
Nsg34
I10
sg35
I4
sg36
Nsg37
Nsg38
S'SYM'
p2423
sg40
g2408
sg41
I00
sba(issf_api
Word
p2424
(dp2425
g6
I00
sg7
V\u0915\u094b
p2426
sg9
(issf_api
FeatureSet
p2427
(dp2428
g12
(dp2429
S'name'
p2430
S'\xe0\xa4\x95\xe0\xa5\x8b'
p2431
sS'drel'
p2432
S'fragof:NP7'
p2433
sS'cref'
p2434
S'i29%0:t14'
p2435
sS'chunktype'
p2436
S'head:FRAGP'
p2437
sS'chunkid'
p2438
S'FRAGP'
p2439
ssbsg30
I00
sg31
I00
sg32
Nsg33
Nsg34
I11
sg35
I4
sg36
Nsg37
Nsg38
S'PSP'
p2440
sg40
g2427
sg41
I00
sba(issf_api
Word
p2441
(dp2442
g6
I00
sg7
V\u092e\u093e\u0930
p2443
sg9
(issf_api
FeatureSet
p2444
(dp2445
g12
(dp2446
S'crefhead'
p2447
S'\xe0\xa4\xae\xe0\xa4\xbe\xe0\xa4\xb0:i29'
p2448
sS'posn'
p2449
S'250'
p2450
sS'name'
p2451
S'\xe0\xa4\xae\xe0\xa4\xbe\xe0\xa4\xb0'
p2452
sS'af'
p2453
S'\xe0\xa4\xae\xe0\xa4\xbe\xe0\xa4\xb0,v,m,sg,any,,0_\xe0\xa4\xa6\xe0\xa5\x87+\xe0\xa4\xaf\xe0\xa4\xbe_\xe0\xa4\xa5\xe0\xa4\xbe,0'
p2454
sS'chunkid'
p2455
S'VGF2'
p2456
sS'stype'
p2457
S'declarative'
p2458
sS'creftype'
p2459
S'Anaphora-RT:i28'
p2460
sS'chunktype'
p2461
S'head:VGF2'
p2462
sS'crefchainhead'
p2463
S'i29:t14'
p2464
sS'voicetype'
p2465
S'active'
p2466
sS'vpos'
p2467
S'tam_2_3'
p2468
sS'cref'
p2469
S'i29%0:t14'
p2470
sS'drel'
p2471
S'nmod__relc:NP2'
p2472
ssbsg30
I00
sg31
I00
sg32
Nsg33
Nsg34
I12
sg35
I4
sg36
Nsg37
Nsg38
S'VM'
p2473
sg40
g2444
sg41
I00
sba(issf_api
Word
p2474
(dp2475
g6
I00
sg7
V\u0926\u093f\u092f\u093e
p2476
sg9
(issf_api
FeatureSet
p2477
(dp2478
g12
(dp2479
S'posn'
p2480
S'260'
p2481
sS'name'
p2482
S'\xe0\xa4\xa6\xe0\xa4\xbf\xe0\xa4\xaf\xe0\xa4\xbe'
p2483
sS'af'
p2484
S'\xe0\xa4\xa6\xe0\xa5\x87,v,m,sg,any,,\xe0\xa4\xaf\xe0\xa4\xbe,yA'
p2485
sS'drel'
p2486
S'lwg__vaux:VGF2'
p2487
sS'chunktype'
p2488
S'child:VGF2'
p2489
sS'cref'
p2490
S'i29%0:t14'
p2491
ssbsg30
I00
sg31
I00
sg32
Nsg33
Nsg34
I12
sg35
I4
sg36
Nsg37
Nsg38
S'VAUX'
p2492
sg40
g2477
sg41
I00
sba(issf_api
Word
p2493
(dp2494
g6
I00
sg7
V\u0925\u093e
p2495
sg9
(issf_api
FeatureSet
p2496
(dp2497
g12
(dp2498
S'posn'
p2499
S'270'
p2500
sS'name'
p2501
S'\xe0\xa4\xa5\xe0\xa4\xbe'
p2502
sS'af'
p2503
S'\xe0\xa4\xa5\xe0\xa4\xbe,v,m,sg,any,,\xe0\xa4\xa5\xe0\xa4\xbe,WA'
p2504
sS'drel'
p2505
S'lwg__vaux:VGF2'
p2506
sS'chunktype'
p2507
S'child:VGF2'
p2508
sS'cref'
p2509
S'i29%1:t14'
p2510
ssbsg30
I00
sg31
I00
sg32
Nsg33
Nsg34
I12
sg35
I4
sg36
Nsg37
Nsg38
S'VAUX'
p2511
sg40
g2496
sg41
I00
sba(issf_api
Word
p2512
(dp2513
g6
I00
sg7
V\u0964
p2514
sg9
(issf_api
FeatureSet
p2515
(dp2516
g12
(dp2517
S'posn'
p2518
S'280'
p2519
sS'name'
p2520
S'\xe0\xa5\xa4'
p2521
sS'af'
p2522
S'\xe0\xa5\xa4,punc,,,,,,'
p2523
sS'chunkid'
p2524
S'BLK'
p2525
sS'drel'
p2526
S'rsym:VGF'
p2527
sS'chunktype'
p2528
S'head:BLK'
p2529
ssbsg30
I00
sg31
I00
sg32
Nsg33
Nsg34
I13
sg35
I4
sg36
Nsg37
Nsg38
S'SYM'
p2530
sg40
g2515
sg41
I00
sba(issf_api
Word
p2531
(dp2532
g6
I00
sg7
V\u092c\u0939\u0930\u0939\u093e\u0932
p2533
sg9
(issf_api
FeatureSet
p2534
(dp2535
g12
(dp2536
S'posn'
p2537
S'10'
p2538
sS'chunkid'
p2539
S'CCP'
p2540
sS'name'
p2541
S'\xe0\xa4\xac\xe0\xa4\xb9\xe0\xa4\xb0\xe0\xa4\xb9\xe0\xa4\xbe\xe0\xa4\xb2'
p2542
sS'chunktype'
p2543
S'head:CCP'
p2544
sS'af'
p2545
S'\xe0\xa4\xac\xe0\xa4\xb9\xe0\xa4\xb0\xe0\xa4\xb9\xe0\xa4\xbe\xe0\xa4\xb2,avy,,,,,,'
p2546
ssbsg30
I00
sg31
I00
sg32
Nsg33
Nsg34
I0
sg35
I5
sg36
Nsg37
Nsg38
S'CC'
p2547
sg40
g2534
sg41
I00
sba(issf_api
Word
p2548
(dp2549
g6
I00
sg7
V,
p2550
sg9
(issf_api
FeatureSet
p2551
(dp2552
g12
(dp2553
S'posn'
p2554
S'20'
p2555
sS'name'
p2556
g1612
sS'drel'
p2557
S'rsym:CCP'
p2558
sS'chunktype'
p2559
S'child:CCP'
p2560
sS'af'
p2561
S'COMMA,punc,,,,,,'
p2562
ssbsg30
I00
sg31
I00
sg32
Nsg33
Nsg34
I0
sg35
I5
sg36
Nsg37
Nsg38
S'SYM'
p2563
sg40
g2551
sg41
I00
sba(issf_api
Word
p2564
(dp2565
g6
I00
sg7
V\u0938\u093e\u0930\u0938\u094d\u0935\u0924
p2566
sg9
(issf_api
FeatureSet
p2567
(dp2568
g12
(dp2569
S'crefhead'
p2570
S'\xe0\xa4\xb8\xe0\xa4\xbe\xe0\xa4\xb0\xe0\xa4\xb8\xe0\xa5\x8d\xe0\xa4\xb5\xe0\xa4\xa4:i38'
p2571
sS'posn'
p2572
S'30'
p2573
sS'name'
p2574
S'\xe0\xa4\xb8\xe0\xa4\xbe\xe0\xa4\xb0\xe0\xa4\xb8\xe0\xa5\x8d\xe0\xa4\xb5\xe0\xa4\xa4'
p2575
sS'af'
p2576
S'\xe0\xa4\xb8\xe0\xa4\xbe\xe0\xa4\xb0\xe0\xa4\xb8\xe0\xa5\x8d\xe0\xa4\xb5\xe0\xa4\xa4,n,m,sg,3,o,0_\xe0\xa4\xa8\xe0\xa5\x87,0'
p2577
sS'chunkid'
p2578
S'NP'
p2579
sS'creftype'
p2580
S'Coreference-Identity:i11'
p2581
sS'chunktype'
p2582
S'head:NP'
p2583
sS'vpos'
p2584
S'vib_2'
p2585
sS'cref'
p2586
S'i38%1:t5'
p2587
sS'drel'
p2588
S'k1:VGF'
p2589
ssbsg30
I00
sg31
I00
sg32
Nsg33
Nsg34
I1
sg35
I5
sg36
Nsg37
Nsg38
S'NNP'
p2590
sg40
g2567
sg41
I00
sba(issf_api
Word
p2591
(dp2592
g6
I00
sg7
V\u0928\u0947
p2593
sg9
(issf_api
FeatureSet
p2594
(dp2595
g12
(dp2596
S'posn'
p2597
S'40'
p2598
sS'name'
p2599
S'\xe0\xa4\xa8\xe0\xa5\x87'
p2600
sS'drel'
p2601
S'lwg__psp:NP'
p2602
sS'chunktype'
p2603
S'child:NP'
p2604
sS'af'
p2605
S'\xe0\xa4\xa8\xe0\xa5\x87,psp,,,,,,'
p2606
ssbsg30
I00
sg31
I00
sg32
Nsg33
Nsg34
I1
sg35
I5
sg36
Nsg37
Nsg38
S'PSP'
p2607
sg40
g2594
sg41
I00
sba(issf_api
Word
p2608
(dp2609
g6
I00
sg7
V\u0915\u0939\u093e
p2610
sg9
(issf_api
FeatureSet
p2611
(dp2612
g12
(dp2613
S'posn'
p2614
S'50'
p2615
sS'name'
p2616
S'\xe0\xa4\x95\xe0\xa4\xb9\xe0\xa4\xbe'
p2617
sS'af'
p2618
S'\xe0\xa4\x95\xe0\xa4\xb9,v,m,sg,any,,\xe0\xa4\xaf\xe0\xa4\xbe,yA'
p2619
sS'chunkid'
p2620
S'VGF'
p2621
sS'stype'
p2622
S'declarative'
p2623
sS'drel'
p2624
S'ccof:CCP'
p2625
sS'voicetype'
p2626
S'active'
p2627
sS'chunktype'
p2628
S'head:VGF'
p2629
ssbsg30
I00
sg31
I00
sg32
Nsg33
Nsg34
I2
sg35
I5
sg36
Nsg37
Nsg38
S'VM'
p2630
sg40
g2611
sg41
I00
sba(issf_api
Word
p2631
(dp2632
g6
I00
sg7
V\u0915\u093f
p2633
sg9
(issf_api
FeatureSet
p2634
(dp2635
g12
(dp2636
S'posn'
p2637
S'60'
p2638
sS'name'
p2639
S'\xe0\xa4\x95\xe0\xa4\xbf'
p2640
sS'af'
p2641
S'\xe0\xa4\x95\xe0\xa4\xbf,avy,,,,,,'
p2642
sS'chunkid'
p2643
S'CCP2'
p2644
sS'drel'
p2645
S'k2:VGF'
p2646
sS'chunktype'
p2647
S'head:CCP2'
p2648
ssbsg30
I00
sg31
I00
sg32
Nsg33
Nsg34
I3
sg35
I5
sg36
Nsg37
Nsg38
S'CC'
p2649
sg40
g2634
sg41
I00
sba(issf_api
Word
p2650
(dp2651
g6
I00
sg7
V\u0938\u093e\u0924
p2652
sg9
(issf_api
FeatureSet
p2653
(dp2654
g12
(dp2655
S'posn'
p2656
S'70'
p2657
sS'name'
p2658
S'\xe0\xa4\xb8\xe0\xa4\xbe\xe0\xa4\xa4'
p2659
sS'drel'
p2660
S'pof__cn:NP2'
p2661
sS'chunktype'
p2662
S'child:NP2'
p2663
sS'af'
p2664
S'\xe0\xa4\xb8\xe0\xa4\xbe\xe0\xa4\xa4,n,any,sg,3,d,0,0'
p2665
ssbsg30
I00
sg31
I00
sg32
Nsg33
Nsg34
I4
sg35
I5
sg36
Nsg37
Nsg38
S'NNPC'
p2666
sg40
g2653
sg41
I00
sba(issf_api
Word
p2667
(dp2668
g6
I00
sg7
V\u0905\u092a\u094d\u0930\u0948\u0932
p2669
sg9
(issf_api
FeatureSet
p2670
(dp2671
g12
(dp2672
S'posn'
p2673
S'80'
p2674
sS'name'
p2675
S'\xe0\xa4\x85\xe0\xa4\xaa\xe0\xa5\x8d\xe0\xa4\xb0\xe0\xa5\x88\xe0\xa4\xb2'
p2676
sS'af'
p2677
S'\xe0\xa4\x85\xe0\xa4\xaa\xe0\xa5\x8d\xe0\xa4\xb0\xe0\xa5\x88\xe0\xa4\xb2,n,m,sg,3,o,0_\xe0\xa4\x95\xe0\xa5\x8b,0'
p2678
sS'chunkid'
p2679
S'NP2'
p2680
sS'drel'
p2681
S'k7t:VGF2'
p2682
sS'vpos'
p2683
S'vib_3'
p2684
sS'chunktype'
p2685
S'head:NP2'
p2686
ssbsg30
I00
sg31
I00
sg32
Nsg33
Nsg34
I4
sg35
I5
sg36
Nsg37
Nsg38
S'NNP'
p2687
sg40
g2670
sg41
I00
sba(issf_api
Word
p2688
(dp2689
g6
I00
sg7
V\u0915\u094b
p2690
sg9
(issf_api
FeatureSet
p2691
(dp2692
g12
(dp2693
S'posn'
p2694
S'90'
p2695
sS'name'
p2696
S'\xe0\xa4\x95\xe0\xa5\x8b'
p2697
sS'drel'
p2698
S'lwg__psp:NP2'
p2699
sS'chunktype'
p2700
S'child:NP2'
p2701
sS'af'
p2702
S'\xe0\xa4\x95\xe0\xa5\x8b,psp,,,,,,'
p2703
ssbsg30
I00
sg31
I00
sg32
Nsg33
Nsg34
I4
sg35
I5
sg36
Nsg37
Nsg38
S'PSP'
p2704
sg40
g2691
sg41
I00
sba(issf_api
Word
p2705
(dp2706
g6
I00
sg7
V\u091a\u0940\u092b
p2707
sg9
(issf_api
FeatureSet
p2708
(dp2709
g12
(dp2710
S'posn'
p2711
S'150'
p2712
sS'name'
p2713
S'\xe0\xa4\x9a\xe0\xa5\x80\xe0\xa4\xab'
p2714
sS'af'
p2715
S'\xe0\xa4\x9a\xe0\xa5\x80\xe0\xa4\xab,adj,any,any,,,,'
p2716
sS'drel'
p2717
S'pof__cn:NP3'
p2718
sS'chunktype'
p2719
S'child:NP3'
p2720
sS'cref'
p2721
S'i39%0:t7'
p2722
ssbsg30
I00
sg31
I00
sg32
Nsg33
Nsg34
I5
sg35
I5
sg36
Nsg37
Nsg38
S'NNC'
p2723
sg40
g2708
sg41
I00
sba(issf_api
Word
p2724
(dp2725
g6
I00
sg7
V\u091c\u094d\u092f\u0942\u0921\u093f\u0936\u093f\u092f\u0932
p2726
sg9
(issf_api
FeatureSet
p2727
(dp2728
g12
(dp2729
S'posn'
p2730
S'150'
p2731
sS'name'
p2732
S'\xe0\xa4\x9c\xe0\xa5\x8d\xe0\xa4\xaf\xe0\xa5\x82\xe0\xa4\xa1\xe0\xa4\xbf\xe0\xa4\xb6\xe0\xa4\xbf\xe0\xa4\xaf\xe0\xa4\xb2'
p2733
sS'af'
p2734
S'\xe0\xa4\x9c\xe0\xa5\x8d\xe0\xa4\xaf\xe0\xa5\x82\xe0\xa4\xa1\xe0\xa4\xbf\xe0\xa4\xb6\xe0\xa4\xbf\xe0\xa4\xaf\xe0\xa4\xb2,adj,any,any,,o,,'
p2735
sS'drel'
p2736
S'pof__cn:NP3'
p2737
sS'chunktype'
p2738
S'child:NP3'
p2739
sS'cref'
p2740
S'i39%0:t7'
p2741
ssbsg30
I00
sg31
I00
sg32
Nsg33
Nsg34
I5
sg35
I5
sg36
Nsg37
Nsg38
S'NNC'
p2742
sg40
g2727
sg41
I00
sba(issf_api
Word
p2743
(dp2744
g6
I00
sg7
V\u092e\u091c\u093f\u0938\u094d\u091f\u094d\u0930\u0947\u091f
p2745
sg9
(issf_api
FeatureSet
p2746
(dp2747
g12
(dp2748
S'crefhead'
p2749
S'\xe0\xa4\xae\xe0\xa4\x9c\xe0\xa4\xbf\xe0\xa4\xb8\xe0\xa5\x8d\xe0\xa4\x9f\xe0\xa5\x8d\xe0\xa4\xb0\xe0\xa5\x87\xe0\xa4\x9f:i39'
p2750
sS'posn'
p2751
S'120'
p2752
sS'name'
p2753
S'\xe0\xa4\xae\xe0\xa4\x9c\xe0\xa4\xbf\xe0\xa4\xb8\xe0\xa5\x8d\xe0\xa4\x9f\xe0\xa5\x8d\xe0\xa4\xb0\xe0\xa5\x87\xe0\xa4\x9f'
p2754
sS'af'
p2755
S'\xe0\xa4\xae\xe0\xa4\x9c\xe0\xa4\xbf\xe0\xa4\xb8\xe0\xa5\x8d\xe0\xa4\x9f\xe0\xa5\x8d\xe0\xa4\xb0\xe0\xa5\x87\xe0\xa4\x9f,n,m,sg,3,o,0_\xe0\xa4\xa8\xe0\xa5\x87,0'
p2756
sS'chunkid'
p2757
S'NP3'
p2758
sS'creftype'
p2759
S'Coreference-Identity:i13'
p2760
sS'chunktype'
p2761
S'head:NP3'
p2762
sS'vpos'
p2763
S'vib_4'
p2764
sS'cref'
p2765
S'i39%1:t7'
p2766
sS'drel'
p2767
S'k1:VGF2'
p2768
ssbsg30
I00
sg31
I00
sg32
Nsg33
Nsg34
I5
sg35
I5
sg36
Nsg37
Nsg38
S'NN'
p2769
sg40
g2746
sg41
I00
sba(issf_api
Word
p2770
(dp2771
g6
I00
sg7
V\u0928\u0947
p2772
sg9
(issf_api
FeatureSet
p2773
(dp2774
g12
(dp2775
S'posn'
p2776
S'130'
p2777
sS'name'
p2778
S'\xe0\xa4\xa8\xe0\xa5\x872'
p2779
sS'drel'
p2780
S'lwg__psp:NP3'
p2781
sS'chunktype'
p2782
S'child:NP3'
p2783
sS'af'
p2784
S'\xe0\xa4\xa8\xe0\xa5\x87,psp,,,,,,'
p2785
ssbsg30
I00
sg31
I00
sg32
Nsg33
Nsg34
I5
sg35
I5
sg36
Nsg37
Nsg38
S'PSP'
p2786
sg40
g2773
sg41
I00
sba(issf_api
Word
p2787
(dp2788
g6
I00
sg7
V\u0938\u0932\u092e\u093e\u0928
p2789
sg9
(issf_api
FeatureSet
p2790
(dp2791
g12
(dp2792
S'crefhead'
p2793
S'\xe0\xa4\xb8\xe0\xa4\xb2\xe0\xa4\xae\xe0\xa4\xbe\xe0\xa4\xa8:i40'
p2794
sS'posn'
p2795
S'140'
p2796
sS'name'
p2797
S'\xe0\xa4\xb8\xe0\xa4\xb2\xe0\xa4\xae\xe0\xa4\xbe\xe0\xa4\xa8'
p2798
sS'af'
p2799
S'\xe0\xa4\xb8\xe0\xa4\xb2\xe0\xa4\xae\xe0\xa4\xbe\xe0\xa4\xa8,n,m,sg,3,o,0_\xe0\xa4\x95\xe0\xa4\xbe,0'
p2800
sS'acrefmodhead'
p2801
S'\xe0\xa4\xb8\xe0\xa4\xb2\xe0\xa4\xae\xe0\xa4\xbe\xe0\xa4\xa8:m4'
p2802
sS'chunkid'
p2803
S'NP4'
p2804
sS'acrefmod'
p2805
S'm4%1:i41'
p2806
sS'creftype'
p2807
S'Coreference-Identity:i30'
p2808
sS'chunktype'
p2809
S'head:NP4'
p2810
sS'vpos'
p2811
S'vib_2'
p2812
sS'cref'
p2813
S'i40%1:t4'
p2814
sS'drel'
p2815
S'r6:NP5'
p2816
ssbsg30
I00
sg31
I00
sg32
Nsg33
Nsg34
I6
sg35
I5
sg36
Nsg37
Nsg38
S'NNP'
p2817
sg40
g2790
sg41
I00
sba(issf_api
Word
p2818
(dp2819
g6
I00
sg7
V\u0915\u0940
p2820
sg9
(issf_api
FeatureSet
p2821
(dp2822
g12
(dp2823
S'posn'
p2824
S'150'
p2825
sS'name'
p2826
S'\xe0\xa4\x95\xe0\xa5\x80'
p2827
sS'drel'
p2828
S'lwg__psp:NP4'
p2829
sS'chunktype'
p2830
S'child:NP4'
p2831
sS'af'
p2832
S'\xe0\xa4\x95\xe0\xa4\xbe,psp,f,sg,,d,,'
p2833
ssbsg30
I00
sg31
I00
sg32
Nsg33
Nsg34
I6
sg35
I5
sg36
Nsg37
Nsg38
S'PSP'
p2834
sg40
g2821
sg41
I00
sba(issf_api
Word
p2835
(dp2836
g6
I00
sg7
V\u092f\u093e\u091a\u093f\u0915\u093e
p2837
sg9
(issf_api
FeatureSet
p2838
(dp2839
g12
(dp2840
S'crefhead'
p2841
S'\xe0\xa4\xaf\xe0\xa4\xbe\xe0\xa4\x9a\xe0\xa4\xbf\xe0\xa4\x95\xe0\xa4\xbe:i41'
p2842
sS'posn'
p2843
S'160'
p2844
sS'name'
p2845
S'\xe0\xa4\xaf\xe0\xa4\xbe\xe0\xa4\x9a\xe0\xa4\xbf\xe0\xa4\x95\xe0\xa4\xbe'
p2846
sS'af'
p2847
S'\xe0\xa4\xaf\xe0\xa4\xbe\xe0\xa4\x9a\xe0\xa4\xbf\xe0\xa4\x95\xe0\xa4\xbe,n,f,sg,3,d,0,0'
p2848
sS'chunkid'
p2849
S'NP5'
p2850
sS'crefmod'
p2851
S'm4:i41'
p2852
sS'chunktype'
p2853
S'head:NP5'
p2854
sS'crefchainhead'
p2855
S'i41:t15'
p2856
sS'cref'
p2857
S'i41%1:t15'
p2858
sS'drel'
p2859
S'k2:VGF2'
p2860
ssbsg30
I00
sg31
I00
sg32
Nsg33
Nsg34
I7
sg35
I5
sg36
Nsg37
Nsg38
S'NN'
p2861
sg40
g2838
sg41
I00
sba(issf_api
Word
p2862
(dp2863
g6
I00
sg7
V\u0920\u0941\u0915\u0930\u093e
p2864
sg9
(issf_api
FeatureSet
p2865
(dp2866
g12
(dp2867
S'posn'
p2868
S'170'
p2869
sS'name'
p2870
S'\xe0\xa4\xa0\xe0\xa5\x81\xe0\xa4\x95\xe0\xa4\xb0\xe0\xa4\xbe'
p2871
sS'af'
p2872
S'\xe0\xa4\xa0\xe0\xa5\x81\xe0\xa4\x95\xe0\xa4\xb0\xe0\xa4\xbe,v,f,sg,any,,0_\xe0\xa4\xa6\xe0\xa5\x87+\xe0\xa4\xaf\xe0\xa4\xbe_\xe0\xa4\xa5\xe0\xa4\xbe,0'
p2873
sS'chunkid'
p2874
S'VGF2'
p2875
sS'stype'
p2876
S'declarative'
p2877
sS'drel'
p2878
S'ccof:CCP2'
p2879
sS'voicetype'
p2880
S'active'
p2881
sS'vpos'
p2882
S'tam_2_3'
p2883
sS'chunktype'
p2884
S'head:VGF2'
p2885
ssbsg30
I00
sg31
I00
sg32
Nsg33
Nsg34
I8
sg35
I5
sg36
Nsg37
Nsg38
S'VM'
p2886
sg40
g2865
sg41
I00
sba(issf_api
Word
p2887
(dp2888
g6
I00
sg7
V\u0926\u0940
p2889
sg9
(issf_api
FeatureSet
p2890
(dp2891
g12
(dp2892
S'posn'
p2893
S'180'
p2894
sS'name'
p2895
S'\xe0\xa4\xa6\xe0\xa5\x80'
p2896
sS'drel'
p2897
S'lwg__vaux:VGF2'
p2898
sS'chunktype'
p2899
S'child:VGF2'
p2900
sS'af'
p2901
S'\xe0\xa4\xa6\xe0\xa5\x87,v,f,sg,any,,\xe0\xa4\xaf\xe0\xa4\xbe,yA'
p2902
ssbsg30
I00
sg31
I00
sg32
Nsg33
Nsg34
I8
sg35
I5
sg36
Nsg37
Nsg38
S'VAUX'
p2903
sg40
g2890
sg41
I00
sba(issf_api
Word
p2904
(dp2905
g6
I00
sg7
V\u0925\u0940
p2906
sg9
(issf_api
FeatureSet
p2907
(dp2908
g12
(dp2909
S'posn'
p2910
S'190'
p2911
sS'name'
p2912
S'\xe0\xa4\xa5\xe0\xa5\x80'
p2913
sS'drel'
p2914
S'lwg__vaux:VGF2'
p2915
sS'chunktype'
p2916
S'child:VGF2'
p2917
sS'af'
p2918
S'\xe0\xa4\xa5\xe0\xa4\xbe,v,f,sg,any,,\xe0\xa4\xa5\xe0\xa4\xbe,WA'
p2919
ssbsg30
I00
sg31
I00
sg32
Nsg33
Nsg34
I8
sg35
I5
sg36
Nsg37
Nsg38
S'VAUX'
p2920
sg40
g2907
sg41
I00
sba(issf_api
Word
p2921
(dp2922
g6
I00
sg7
V\u0964
p2923
sg9
(issf_api
FeatureSet
p2924
(dp2925
g12
(dp2926
S'posn'
p2927
S'200'
p2928
sS'name'
p2929
S'\xe0\xa5\xa4'
p2930
sS'af'
p2931
S'\xe0\xa5\xa4,punc,,,,,,'
p2932
sS'chunkid'
p2933
S'BLK'
p2934
sS'drel'
p2935
S'rsym:CCP'
p2936
sS'chunktype'
p2937
S'head:BLK'
p2938
ssbsg30
I00
sg31
I00
sg32
Nsg33
Nsg34
I9
sg35
I5
sg36
Nsg37
Nsg38
S'SYM'
p2939
sg40
g2924
sg41
I00
sba(issf_api
Word
p2940
(dp2941
g6
I00
sg7
V\u092f\u093e\u091a\u093f\u0915\u093e
p2942
sg9
(issf_api
FeatureSet
p2943
(dp2944
g12
(dp2945
S'crefhead'
p2946
S'\xe0\xa4\xaf\xe0\xa4\xbe\xe0\xa4\x9a\xe0\xa4\xbf\xe0\xa4\x95\xe0\xa4\xbe:i42'
p2947
sS'posn'
p2948
S'10'
p2949
sS'name'
p2950
S'\xe0\xa4\xaf\xe0\xa4\xbe\xe0\xa4\x9a\xe0\xa4\xbf\xe0\xa4\x95\xe0\xa4\xbe'
p2951
sS'af'
p2952
S'\xe0\xa4\xaf\xe0\xa4\xbe\xe0\xa4\x9a\xe0\xa4\xbf\xe0\xa4\x95\xe0\xa4\xbe,n,f,sg,3,o,0_\xe0\xa4\x95\xe0\xa4\xbe,0'
p2953
sS'chunkid'
p2954
S'NP'
p2955
sS'creftype'
p2956
S'Coreference-Identity:i41'
p2957
sS'chunktype'
p2958
S'head:NP'
p2959
sS'vpos'
p2960
S'vib_2'
p2961
sS'cref'
p2962
S'i42%1:t15'
p2963
sS'drel'
p2964
S'r6:NP2'
p2965
ssbsg30
I00
sg31
I00
sg32
Nsg33
Nsg34
I0
sg35
I6
sg36
Nsg37
Nsg38
S'NN'
p2966
sg40
g2943
sg41
I00
sba(issf_api
Word
p2967
(dp2968
g6
I00
sg7
V\u0915\u0947
p2969
sg9
(issf_api
FeatureSet
p2970
(dp2971
g12
(dp2972
S'posn'
p2973
S'20'
p2974
sS'name'
p2975
S'\xe0\xa4\x95\xe0\xa5\x87'
p2976
sS'drel'
p2977
S'lwg__psp:NP'
p2978
sS'chunktype'
p2979
S'child:NP'
p2980
sS'af'
p2981
S'\xe0\xa4\x95\xe0\xa4\xbe,psp,m,sg,,o,,'
p2982
ssbsg30
I00
sg31
I00
sg32
Nsg33
Nsg34
I0
sg35
I6
sg36
Nsg37
Nsg38
S'PSP'
p2983
sg40
g2970
sg41
I00
sba(issf_api
Word
p2984
(dp2985
g6
I00
sg7
V\u092e\u093e\u0927\u094d\u092f\u092e
p2986
sg9
(issf_api
FeatureSet
p2987
(dp2988
g12
(dp2989
S'posn'
p2990
S'30'
p2991
sS'name'
p2992
S'\xe0\xa4\xae\xe0\xa4\xbe\xe0\xa4\xa7\xe0\xa5\x8d\xe0\xa4\xaf\xe0\xa4\xae'
p2993
sS'af'
p2994
S'\xe0\xa4\xae\xe0\xa4\xbe\xe0\xa4\xa7\xe0\xa5\x8d\xe0\xa4\xaf\xe0\xa4\xae,n,m,sg,3,o,0_\xe0\xa4\xb8\xe0\xa5\x87,0'
p2995
sS'chunkid'
p2996
S'NP2'
p2997
sS'drel'
p2998
S'k3:VGF'
p2999
sS'vpos'
p3000
S'vib_2'
p3001
sS'chunktype'
p3002
S'head:NP2'
p3003
ssbsg30
I00
sg31
I00
sg32
Nsg33
Nsg34
I1
sg35
I6
sg36
Nsg37
Nsg38
S'NN'
p3004
sg40
g2987
sg41
I00
sba(issf_api
Word
p3005
(dp3006
g6
I00
sg7
V\u0938\u0947
p3007
sg9
(issf_api
FeatureSet
p3008
(dp3009
g12
(dp3010
S'posn'
p3011
S'40'
p3012
sS'name'
p3013
S'\xe0\xa4\xb8\xe0\xa5\x87'
p3014
sS'drel'
p3015
S'lwg__psp:NP2'
p3016
sS'chunktype'
p3017
S'child:NP2'
p3018
sS'af'
p3019
S'\xe0\xa4\xb8\xe0\xa5\x87,psp,,,,,,'
p3020
ssbsg30
I00
sg31
I00
sg32
Nsg33
Nsg34
I1
sg35
I6
sg36
Nsg37
Nsg38
S'PSP'
p3021
sg40
g3008
sg41
I00
sba(issf_api
Word
p3022
(dp3023
g6
I00
sg7
V\u092e\u093e\u092e\u0932\u0947
p3024
sg9
(issf_api
FeatureSet
p3025
(dp3026
g12
(dp3027
S'crefhead'
p3028
S'\xe0\xa4\xae\xe0\xa4\xbe\xe0\xa4\xae\xe0\xa4\xb2\xe0\xa5\x87:i43'
p3029
sS'posn'
p3030
S'50'
p3031
sS'name'
p3032
S'\xe0\xa4\xae\xe0\xa4\xbe\xe0\xa4\xae\xe0\xa4\xb2\xe0\xa5\x87'
p3033
sS'af'
p3034
S'\xe0\xa4\xae\xe0\xa4\xbe\xe0\xa4\xae\xe0\xa4\xb2\xe0\xa4\xbe,n,m,sg,3,o,0_\xe0\xa4\x95\xe0\xa4\xbe,0'
p3035
sS'acrefmodhead'
p3036
S'\xe0\xa4\xae\xe0\xa4\xbe\xe0\xa4\xae\xe0\xa4\xb2\xe0\xa5\x87:m5'
p3037
sS'chunkid'
p3038
S'NP3'
p3039
sS'acrefmod'
p3040
S'm5%1:i44'
p3041
sS'creftype'
p3042
S'Coreference-Identity:i27'
p3043
sS'chunktype'
p3044
S'head:NP3'
p3045
sS'vpos'
p3046
S'vib_2'
p3047
sS'cref'
p3048
S'i43%1:t1'
p3049
sS'drel'
p3050
S'r6:NP4'
p3051
ssbsg30
I00
sg31
I00
sg32
Nsg33
Nsg34
I2
sg35
I6
sg36
Nsg37
Nsg38
S'NN'
p3052
sg40
g3025
sg41
I00
sba(issf_api
Word
p3053
(dp3054
g6
I00
sg7
V\u0915\u0947
p3055
sg9
(issf_api
FeatureSet
p3056
(dp3057
g12
(dp3058
S'posn'
p3059
S'60'
p3060
sS'name'
p3061
S'\xe0\xa4\x95\xe0\xa5\x872'
p3062
sS'drel'
p3063
S'lwg__psp:NP3'
p3064
sS'chunktype'
p3065
S'child:NP3'
p3066
sS'af'
p3067
S'\xe0\xa4\x95\xe0\xa4\xbe,psp,m,sg,,o,,'
p3068
ssbsg30
I00
sg31
I00
sg32
Nsg33
Nsg34
I2
sg35
I6
sg36
Nsg37
Nsg38
S'PSP'
p3069
sg40
g3056
sg41
I00
sba(issf_api
Word
p3070
(dp3071
g6
I00
sg7
V\u090f\u0915
p3072
sg9
(issf_api
FeatureSet
p3073
(dp3074
g12
(dp3075
S'posn'
p3076
S'70'
p3077
sS'name'
p3078
S'\xe0\xa4\x8f\xe0\xa4\x95'
p3079
sS'af'
p3080
S'\xe0\xa4\x8f\xe0\xa4\x95,num,any,any,,any,,'
p3081
sS'drel'
p3082
S'nmod__adj:NP4'
p3083
sS'chunktype'
p3084
S'child:NP4'
p3085
sS'cref'
p3086
S'i44%0:t16'
p3087
ssbsg30
I00
sg31
I00
sg32
Nsg33
Nsg34
I3
sg35
I6
sg36
Nsg37
Nsg38
S'QC'
p3088
sg40
g3073
sg41
I00
sba(issf_api
Word
p3089
(dp3090
g6
I00
sg7
V\u0917\u0935\u093e\u0939
p3091
sg9
(issf_api
FeatureSet
p3092
(dp3093
g12
(dp3094
S'crefhead'
p3095
S'\xe0\xa4\x97\xe0\xa4\xb5\xe0\xa4\xbe\xe0\xa4\xb9:i44'
p3096
sS'posn'
p3097
S'80'
p3098
sS'name'
p3099
S'\xe0\xa4\x97\xe0\xa4\xb5\xe0\xa4\xbe\xe0\xa4\xb9'
p3100
sS'af'
p3101
S'\xe0\xa4\x97\xe0\xa4\xb5\xe0\xa4\xbe\xe0\xa4\xb9,n,m,sg,3,o,0,0'
p3102
sS'chunkid'
p3103
S'NP4'
p3104
sS'crefmod'
p3105
S'm5:i44'
p3106
sS'chunktype'
p3107
S'head:NP4'
p3108
sS'cref'
p3109
S'i44%1:t16'
p3110
sS'drel'
p3111
S'nmod:NP5'
p3112
ssbsg30
I00
sg31
I00
sg32
Nsg33
Nsg34
I3
sg35
I6
sg36
Nsg37
Nsg38
S'NN'
p3113
sg40
g3092
sg41
I00
sba(issf_api
Word
p3114
(dp3115
g6
I00
sg7
V\u0939\u0930\u0940\u0936
p3116
sg9
(issf_api
FeatureSet
p3117
(dp3118
g12
(dp3119
S'posn'
p3120
S'90'
p3121
sS'name'
p3122
S'\xe0\xa4\xb9\xe0\xa4\xb0\xe0\xa5\x80\xe0\xa4\xb6'
p3123
sS'af'
p3124
S'\xe0\xa4\xb9\xe0\xa4\xb0\xe0\xa5\x80\xe0\xa4\xb6,n,m,sg,3,d,0,0'
p3125
sS'drel'
p3126
S'pof__cn:NP5'
p3127
sS'chunktype'
p3128
S'child:NP5'
p3129
sS'cref'
p3130
S'i45%0:t16'
p3131
ssbsg30
I00
sg31
I00
sg32
Nsg33
Nsg34
I4
sg35
I6
sg36
Nsg37
Nsg38
S'NNPC'
p3132
sg40
g3117
sg41
I00
sba(issf_api
Word
p3133
(dp3134
g6
I00
sg7
V\u0926\u0941\u0932\u093e\u0928\u0940
p3135
sg9
(issf_api
FeatureSet
p3136
(dp3137
g12
(dp3138
S'crefhead'
p3139
S'\xe0\xa4\xa6\xe0\xa5\x81\xe0\xa4\xb2\xe0\xa4\xbe\xe0\xa4\xa8\xe0\xa5\x80:i45'
p3140
sS'posn'
p3141
S'100'
p3142
sS'name'
p3143
S'\xe0\xa4\xa6\xe0\xa5\x81\xe0\xa4\xb2\xe0\xa4\xbe\xe0\xa4\xa8\xe0\xa5\x80'
p3144
sS'af'
p3145
S'\xe0\xa4\xa6\xe0\xa5\x81\xe0\xa4\xb2\xe0\xa4\xbe\xe0\xa4\xa8\xe0\xa5\x80,n,any,sg,3,o,0_\xe0\xa4\x95\xe0\xa5\x8b,0'
p3146
sS'chunkid'
p3147
S'NP5'
p3148
sS'creftype'
p3149
S'Coreference-NounComplement:i44'
p3150
sS'chunktype'
p3151
S'head:NP5'
p3152
sS'crefchainhead'
p3153
S'i45:t16'
p3154
sS'vpos'
p3155
S'vib_3'
p3156
sS'cref'
p3157
S'i45%1:t16'
p3158
sS'drel'
p3159
S'k2:VGNN'
p3160
ssbsg30
I00
sg31
I00
sg32
Nsg33
Nsg34
I4
sg35
I6
sg36
Nsg37
Nsg38
S'NNP'
p3161
sg40
g3136
sg41
I00
sba(issf_api
Word
p3162
(dp3163
g6
I00
sg7
V\u0915\u094b
p3164
sg9
(issf_api
FeatureSet
p3165
(dp3166
g12
(dp3167
S'posn'
p3168
S'110'
p3169
sS'name'
p3170
S'\xe0\xa4\x95\xe0\xa5\x8b'
p3171
sS'drel'
p3172
S'lwg__psp:NP5'
p3173
sS'chunktype'
p3174
S'child:NP5'
p3175
sS'af'
p3176
S'\xe0\xa4\x95\xe0\xa5\x8b,psp,,,,,,'
p3177
ssbsg30
I00
sg31
I00
sg32
Nsg33
Nsg34
I4
sg35
I6
sg36
Nsg37
Nsg38
S'PSP'
p3178
sg40
g3165
sg41
I00
sba(issf_api
Word
p3179
(dp3180
g6
I00
sg7
V\u092c\u0941\u0932\u093e\u0928\u0947
p3181
sg9
(issf_api
FeatureSet
p3182
(dp3183
g12
(dp3184
S'posn'
p3185
S'120'
p3186
sS'name'
p3187
S'\xe0\xa4\xac\xe0\xa5\x81\xe0\xa4\xb2\xe0\xa4\xbe\xe0\xa4\xa8\xe0\xa5\x87'
p3188
sS'af'
p3189
S'\xe0\xa4\xac\xe0\xa5\x81\xe0\xa4\xb2\xe0\xa4\xbe,v,any,sg,any,o,\xe0\xa4\xa8\xe0\xa4\xbe_\xe0\xa4\x95\xe0\xa4\xbe,nA'
p3190
sS'chunkid'
p3191
S'VGNN'
p3192
sS'drel'
p3193
S'r6-k2:NP6'
p3194
sS'vpos'
p3195
S'tam_2'
p3196
sS'chunktype'
p3197
S'head:VGNN'
p3198
ssbsg30
I00
sg31
I00
sg32
Nsg33
Nsg34
I5
sg35
I6
sg36
Nsg37
Nsg38
S'VM'
p3199
sg40
g3182
sg41
I00
sba(issf_api
Word
p3200
(dp3201
g6
I00
sg7
V\u0915\u0940
p3202
sg9
(issf_api
FeatureSet
p3203
(dp3204
g12
(dp3205
S'posn'
p3206
S'130'
p3207
sS'name'
p3208
S'\xe0\xa4\x95\xe0\xa5\x80'
p3209
sS'drel'
p3210
S'lwg__psp:VGNN'
p3211
sS'chunktype'
p3212
S'child:VGNN'
p3213
sS'af'
p3214
S'\xe0\xa4\x95\xe0\xa4\xbe,psp,f,sg,,d,,'
p3215
ssbsg30
I00
sg31
I00
sg32
Nsg33
Nsg34
I5
sg35
I6
sg36
Nsg37
Nsg38
S'PSP'
p3216
sg40
g3203
sg41
I00
sba(issf_api
Word
p3217
(dp3218
g6
I00
sg7
V\u092e\u093e\u0902\u0917
p3219
sg9
(issf_api
FeatureSet
p3220
(dp3221
g12
(dp3222
S'posn'
p3223
S'140'
p3224
sS'name'
p3225
S'\xe0\xa4\xae\xe0\xa4\xbe\xe0\xa4\x82\xe0\xa4\x97'
p3226
sS'af'
p3227
S'\xe0\xa4\xae\xe0\xa4\xbe\xe0\xa4\x82\xe0\xa4\x97,n,f,sg,3,d,0,0'
p3228
sS'chunkid'
p3229
S'NP6'
p3230
sS'drel'
p3231
S'pof:VGF'
p3232
sS'chunktype'
p3233
S'head:NP6'
p3234
ssbsg30
I00
sg31
I00
sg32
Nsg33
Nsg34
I6
sg35
I6
sg36
Nsg37
Nsg38
S'NN'
p3235
sg40
g3220
sg41
I00
sba(issf_api
Word
p3236
(dp3237
g6
I00
sg7
V\u0915\u0940
p3238
sg9
(issf_api
FeatureSet
p3239
(dp3240
g12
(dp3241
S'posn'
p3242
S'150'
p3243
sS'name'
p3244
S'\xe0\xa4\x95\xe0\xa5\x802'
p3245
sS'af'
p3246
S'\xe0\xa4\x95\xe0\xa4\xb0,v,f,sg,any,,\xe0\xa4\xaf\xe0\xa4\xbe_\xe0\xa4\x9c\xe0\xa4\xbe+\xe0\xa4\xaf\xe0\xa4\xbe\xe0\xa5\xa7_\xe0\xa4\xa5\xe0\xa4\xbe,yA'
p3247
sS'chunkid'
p3248
S'VGF'
p3249
sS'chunktype'
p3250
S'head:VGF'
p3251
sS'voicetype'
p3252
S'passive'
p3253
sS'vpos'
p3254
S'tam_2_3'
p3255
sS'stype'
p3256
S'declarative'
p3257
ssbsg30
I00
sg31
I00
sg32
Nsg33
Nsg34
I7
sg35
I6
sg36
Nsg37
Nsg38
S'VM'
p3258
sg40
g3239
sg41
I00
sba(issf_api
Word
p3259
(dp3260
g6
I00
sg7
V\u0917\u0908
p3261
sg9
(issf_api
FeatureSet
p3262
(dp3263
g12
(dp3264
S'posn'
p3265
S'160'
p3266
sS'name'
p3267
S'\xe0\xa4\x97\xe0\xa4\x88'
p3268
sS'drel'
p3269
S'lwg__vaux:VGF'
p3270
sS'chunktype'
p3271
S'child:VGF'
p3272
sS'af'
p3273
S'\xe0\xa4\x9c\xe0\xa4\xbe,v,f,sg,any,,\xe0\xa4\xaf\xe0\xa4\xbe\xe0\xa5\xa7,yA1'
p3274
ssbsg30
I00
sg31
I00
sg32
Nsg33
Nsg34
I7
sg35
I6
sg36
Nsg37
Nsg38
S'VAUX'
p3275
sg40
g3262
sg41
I00
sba(issf_api
Word
p3276
(dp3277
g6
I00
sg7
V\u0925\u0940
p3278
sg9
(issf_api
FeatureSet
p3279
(dp3280
g12
(dp3281
S'posn'
p3282
S'170'
p3283
sS'name'
p3284
S'\xe0\xa4\xa5\xe0\xa5\x80'
p3285
sS'drel'
p3286
S'lwg__vaux:VGF'
p3287
sS'chunktype'
p3288
S'child:VGF'
p3289
sS'af'
p3290
S'\xe0\xa4\xa5\xe0\xa4\xbe,v,f,sg,any,,\xe0\xa4\xa5\xe0\xa4\xbe,WA'
p3291
ssbsg30
I00
sg31
I00
sg32
Nsg33
Nsg34
I7
sg35
I6
sg36
Nsg37
Nsg38
S'VAUX'
p3292
sg40
g3279
sg41
I00
sba(issf_api
Word
p3293
(dp3294
g6
I00
sg7
V\u0964
p3295
sg9
(issf_api
FeatureSet
p3296
(dp3297
g12
(dp3298
S'posn'
p3299
S'180'
p3300
sS'name'
p3301
S'\xe0\xa5\xa4'
p3302
sS'af'
p3303
S'\xe0\xa5\xa4,punc,,,,,,'
p3304
sS'chunkid'
p3305
S'BLK'
p3306
sS'drel'
p3307
S'rsym:VGF'
p3308
sS'chunktype'
p3309
S'head:BLK'
p3310
ssbsg30
I00
sg31
I00
sg32
Nsg33
Nsg34
I8
sg35
I6
sg36
Nsg37
Nsg38
S'SYM'
p3311
sg40
g3296
sg41
I00
sba(issf_api
Word
p3312
(dp3313
g6
I00
sg7
V\u0926\u0941\u0932\u093e\u0928\u0940
p3314
sg9
(issf_api
FeatureSet
p3315
(dp3316
g12
(dp3317
S'crefhead'
p3318
S'\xe0\xa4\xa6\xe0\xa5\x81\xe0\xa4\xb2\xe0\xa4\xbe\xe0\xa4\xa8\xe0\xa5\x80:i46'
p3319
sS'posn'
p3320
S'10'
p3321
sS'name'
p3322
S'\xe0\xa4\xa6\xe0\xa5\x81\xe0\xa4\xb2\xe0\xa4\xbe\xe0\xa4\xa8\xe0\xa5\x80'
p3323
sS'af'
p3324
S'\xe0\xa4\xa6\xe0\xa5\x81\xe0\xa4\xb2\xe0\xa4\xbe\xe0\xa4\xa8\xe0\xa5\x80,n,m,sg,3,d,0,0'
p3325
sS'chunkid'
p3326
S'NP'
p3327
sS'creftype'
p3328
S'Coreference-Identity:i45'
p3329
sS'chunktype'
p3330
S'head:NP'
p3331
sS'cref'
p3332
S'i46%1:t16'
p3333
sS'drel'
p3334
S'k1:VGF'
p3335
ssbsg30
I00
sg31
I00
sg32
Nsg33
Nsg34
I0
sg35
I7
sg36
Nsg37
Nsg38
S'NNP'
p3336
sg40
g3315
sg41
I00
sba(issf_api
Word
p3337
(dp3338
g6
I00
sg7
V\u0915\u0908
p3339
sg9
(issf_api
FeatureSet
p3340
(dp3341
g12
(dp3342
S'posn'
p3343
S'20'
p3344
sS'name'
p3345
S'\xe0\xa4\x95\xe0\xa4\x88'
p3346
sS'drel'
p3347
S'nmod__adj:NP2'
p3348
sS'chunktype'
p3349
S'child:NP2'
p3350
sS'af'
p3351
S'\xe0\xa4\x95\xe0\xa4\x88,avy,,,,,,'
p3352
ssbsg30
I00
sg31
I00
sg32
Nsg33
Nsg34
I1
sg35
I7
sg36
Nsg37
Nsg38
S'QF'
p3353
sg40
g3340
sg41
I00
sba(issf_api
Word
p3354
(dp3355
g6
I00
sg7
V\u0935\u0930\u094d\u0937\u094b\u0902
p3356
sg9
(issf_api
FeatureSet
p3357
(dp3358
g12
(dp3359
S'posn'
p3360
S'30'
p3361
sS'name'
p3362
S'\xe0\xa4\xb5\xe0\xa4\xb0\xe0\xa5\x8d\xe0\xa4\xb7\xe0\xa5\x8b\xe0\xa4\x82'
p3363
sS'af'
p3364
S'\xe0\xa4\xb5\xe0\xa4\xb0\xe0\xa5\x8d\xe0\xa4\xb7,n,m,pl,3,o,0_\xe0\xa4\xb8\xe0\xa5\x87,0'
p3365
sS'chunkid'
p3366
S'NP2'
p3367
sS'drel'
p3368
S'k7t:VGF'
p3369
sS'vpos'
p3370
S'vib_3'
p3371
sS'chunktype'
p3372
S'head:NP2'
p3373
ssbsg30
I00
sg31
I00
sg32
Nsg33
Nsg34
I1
sg35
I7
sg36
Nsg37
Nsg38
S'NN'
p3374
sg40
g3357
sg41
I00
sba(issf_api
Word
p3375
(dp3376
g6
I00
sg7
V\u0938\u0947
p3377
sg9
(issf_api
FeatureSet
p3378
(dp3379
g12
(dp3380
S'posn'
p3381
S'40'
p3382
sS'name'
p3383
S'\xe0\xa4\xb8\xe0\xa5\x87'
p3384
sS'drel'
p3385
S'lwg__psp:NP2'
p3386
sS'chunktype'
p3387
S'child:NP2'
p3388
sS'af'
p3389
S'\xe0\xa4\xb8\xe0\xa5\x87,psp,,,,,,'
p3390
ssbsg30
I00
sg31
I00
sg32
Nsg33
Nsg34
I1
sg35
I7
sg36
Nsg37
Nsg38
S'PSP'
p3391
sg40
g3378
sg41
I00
sba(issf_api
Word
p3392
(dp3393
g6
I00
sg7
V\u0905\u0926\u093e\u0932\u0924
p3394
sg9
(issf_api
FeatureSet
p3395
(dp3396
g12
(dp3397
S'posn'
p3398
S'50'
p3399
sS'name'
p3400
S'\xe0\xa4\x85\xe0\xa4\xa6\xe0\xa4\xbe\xe0\xa4\xb2\xe0\xa4\xa4'
p3401
sS'af'
p3402
S'\xe0\xa4\x85\xe0\xa4\xa6\xe0\xa4\xbe\xe0\xa4\xb2\xe0\xa4\xa4,n,f,sg,3,o,0_\xe0\xa4\xae\xe0\xa5\x87\xe0\xa4\x82,0'
p3403
sS'chunkid'
p3404
S'NP3'
p3405
sS'drel'
p3406
S'k7p:VGF'
p3407
sS'vpos'
p3408
S'vib_2'
p3409
sS'chunktype'
p3410
S'head:NP3'
p3411
ssbsg30
I00
sg31
I00
sg32
Nsg33
Nsg34
I2
sg35
I7
sg36
Nsg37
Nsg38
S'NN'
p3412
sg40
g3395
sg41
I00
sba(issf_api
Word
p3413
(dp3414
g6
I00
sg7
V\u092e\u0947\u0902
p3415
sg9
(issf_api
FeatureSet
p3416
(dp3417
g12
(dp3418
S'posn'
p3419
S'60'
p3420
sS'name'
p3421
S'\xe0\xa4\xae\xe0\xa5\x87\xe0\xa4\x82'
p3422
sS'drel'
p3423
S'lwg__psp:NP3'
p3424
sS'chunktype'
p3425
S'child:NP3'
p3426
sS'af'
p3427
S'\xe0\xa4\xae\xe0\xa5\x87\xe0\xa4\x82,psp,,,,,,'
p3428
ssbsg30
I00
sg31
I00
sg32
Nsg33
Nsg34
I2
sg35
I7
sg36
Nsg37
Nsg38
S'PSP'
p3429
sg40
g3416
sg41
I00
sba(issf_api
Word
p3430
(dp3431
g6
I00
sg7
V\u0939\u093e\u091c\u093f\u0930
p3432
sg9
(issf_api
FeatureSet
p3433
(dp3434
g12
(dp3435
S'posn'
p3436
S'70'
p3437
sS'name'
p3438
S'\xe0\xa4\xb9\xe0\xa4\xbe\xe0\xa4\x9c\xe0\xa4\xbf\xe0\xa4\xb0'
p3439
sS'af'
p3440
S'\xe0\xa4\xb9\xe0\xa4\xbe\xe0\xa4\x9c\xe0\xa4\xbf\xe0\xa4\xb0,adj,any,any,,,,'
p3441
sS'chunkid'
p3442
S'JJP'
p3443
sS'drel'
p3444
S'pof:VGF'
p3445
sS'chunktype'
p3446
S'head:JJP'
p3447
ssbsg30
I00
sg31
I00
sg32
Nsg33
Nsg34
I3
sg35
I7
sg36
Nsg37
Nsg38
S'JJ'
p3448
sg40
g3433
sg41
I00
sba(issf_api
Word
p3449
(dp3450
g6
I00
sg7
V\u0928\u0939\u0940\u0902
p3451
sg9
(issf_api
FeatureSet
p3452
(dp3453
g12
(dp3454
S'posn'
p3455
S'80'
p3456
sS'name'
p3457
S'\xe0\xa4\xa8\xe0\xa4\xb9\xe0\xa5\x80\xe0\xa4\x82'
p3458
sS'drel'
p3459
S'lwg__neg:VGF'
p3460
sS'chunktype'
p3461
S'child:VGF'
p3462
sS'af'
p3463
S'\xe0\xa4\xa8\xe0\xa4\xb9\xe0\xa5\x80\xe0\xa4\x82,avy,,,,,,'
p3464
ssbsg30
I00
sg31
I00
sg32
Nsg33
Nsg34
I4
sg35
I7
sg36
Nsg37
Nsg38
S'NEG'
p3465
sg40
g3452
sg41
I00
sba(issf_api
Word
p3466
(dp3467
g6
I00
sg7
V\u0939\u094b
p3468
sg9
(issf_api
FeatureSet
p3469
(dp3470
g12
(dp3471
S'posn'
p3472
S'90'
p3473
sS'name'
p3474
S'\xe0\xa4\xb9\xe0\xa5\x8b'
p3475
sS'af'
p3476
S'\xe0\xa4\xb9\xe0\xa5\x8b,v,m,sg,3,,0_\xe0\xa4\xb0\xe0\xa4\xb9+\xe0\xa4\xaf\xe0\xa4\xbe_\xe0\xa4\xb9\xe0\xa5\x88,0'
p3477
sS'chunkid'
p3478
S'VGF'
p3479
sS'chunktype'
p3480
S'head:VGF'
p3481
sS'voicetype'
p3482
S'active'
p3483
sS'vpos'
p3484
S'tam_3_4'
p3485
sS'stype'
p3486
S'declarative'
p3487
ssbsg30
I00
sg31
I00
sg32
Nsg33
Nsg34
I4
sg35
I7
sg36
Nsg37
Nsg38
S'VM'
p3488
sg40
g3469
sg41
I00
sba(issf_api
Word
p3489
(dp3490
g6
I00
sg7
V\u0930\u0939\u093e
p3491
sg9
(issf_api
FeatureSet
p3492
(dp3493
g12
(dp3494
S'posn'
p3495
S'100'
p3496
sS'name'
p3497
S'\xe0\xa4\xb0\xe0\xa4\xb9\xe0\xa4\xbe'
p3498
sS'drel'
p3499
S'lwg__vaux:VGF'
p3500
sS'chunktype'
p3501
S'child:VGF'
p3502
sS'af'
p3503
S'\xe0\xa4\xb0\xe0\xa4\xb9,v,m,sg,any,,\xe0\xa4\xaf\xe0\xa4\xbe,yA'
p3504
ssbsg30
I00
sg31
I00
sg32
Nsg33
Nsg34
I4
sg35
I7
sg36
Nsg37
Nsg38
S'VAUX'
p3505
sg40
g3492
sg41
I00
sba(issf_api
Word
p3506
(dp3507
g6
I00
sg7
V\u0939\u0948
p3508
sg9
(issf_api
FeatureSet
p3509
(dp3510
g12
(dp3511
S'posn'
p3512
S'110'
p3513
sS'name'
p3514
S'\xe0\xa4\xb9\xe0\xa5\x88'
p3515
sS'drel'
p3516
S'lwg__vaux:VGF'
p3517
sS'chunktype'
p3518
S'child:VGF'
p3519
sS'af'
p3520
S'\xe0\xa4\xb9\xe0\xa5\x88,v,any,sg,3,,\xe0\xa4\xb9\xe0\xa5\x88,hE'
p3521
ssbsg30
I00
sg31
I00
sg32
Nsg33
Nsg34
I4
sg35
I7
sg36
Nsg37
Nsg38
S'VAUX'
p3522
sg40
g3509
sg41
I00
sba(issf_api
Word
p3523
(dp3524
g6
I00
sg7
V\u0964
p3525
sg9
(issf_api
FeatureSet
p3526
(dp3527
g12
(dp3528
S'posn'
p3529
S'120'
p3530
sS'name'
p3531
S'\xe0\xa5\xa4'
p3532
sS'af'
p3533
S'\xe0\xa5\xa4,punc,,,,,,'
p3534
sS'chunkid'
p3535
S'BLK'
p3536
sS'drel'
p3537
S'rsym:VGF'
p3538
sS'chunktype'
p3539
S'head:BLK'
p3540
ssbsg30
I00
sg31
I00
sg32
Nsg33
Nsg34
I5
sg35
I7
sg36
Nsg37
Nsg38
S'SYM'
p3541
sg40
g3526
sg41
I00
sba(issf_api
Word
p3542
(dp3543
g6
I00
sg7
V\u0926\u0941\u0932\u093e\u0928\u0940
p3544
sg9
(issf_api
FeatureSet
p3545
(dp3546
g12
(dp3547
S'crefhead'
p3548
S'\xe0\xa4\xa6\xe0\xa5\x81\xe0\xa4\xb2\xe0\xa4\xbe\xe0\xa4\xa8\xe0\xa5\x80:i47'
p3549
sS'posn'
p3550
S'10'
p3551
sS'name'
p3552
S'\xe0\xa4\xa6\xe0\xa5\x81\xe0\xa4\xb2\xe0\xa4\xbe\xe0\xa4\xa8\xe0\xa5\x80'
p3553
sS'af'
p3554
S'\xe0\xa4\xa6\xe0\xa5\x81\xe0\xa4\xb2\xe0\xa4\xbe\xe0\xa4\xa8\xe0\xa5\x80,n,m,sg,3,o,0_\xe0\xa4\x95\xe0\xa5\x87_\xe0\xa4\xac\xe0\xa4\xbe\xe0\xa4\xb0\xe0\xa5\x87_\xe0\xa4\xae\xe0\xa5\x87\xe0\xa4\x82,0'
p3555
sS'chunkid'
p3556
S'NP'
p3557
sS'creftype'
p3558
S'Coreference-Identity:i46'
p3559
sS'chunktype'
p3560
S'head:NP'
p3561
sS'vpos'
p3562
S'vib_2_3_4'
p3563
sS'cref'
p3564
S'i47%1:t16'
p3565
sS'drel'
p3566
S'k7:VGF'
p3567
ssbsg30
I00
sg31
I00
sg32
Nsg33
Nsg34
I0
sg35
I8
sg36
Nsg37
Nsg38
S'NNP'
p3568
sg40
g3545
sg41
I00
sba(issf_api
Word
p3569
(dp3570
g6
I00
sg7
V\u0915\u0947
p3571
sg9
(issf_api
FeatureSet
p3572
(dp3573
g12
(dp3574
S'posn'
p3575
S'20'
p3576
sS'name'
p3577
S'\xe0\xa4\x95\xe0\xa5\x87'
p3578
sS'drel'
p3579
S'lwg__psp:NP'
p3580
sS'chunktype'
p3581
S'child:NP'
p3582
sS'af'
p3583
S'\xe0\xa4\x95\xe0\xa5\x87,psp,,,,,,'
p3584
ssbsg30
I00
sg31
I00
sg32
Nsg33
Nsg34
I0
sg35
I8
sg36
Nsg37
Nsg38
S'PSP'
p3585
sg40
g3572
sg41
I00
sba(issf_api
Word
p3586
(dp3587
g6
I00
sg7
V\u092c\u093e\u0930\u0947
p3588
sg9
(issf_api
FeatureSet
p3589
(dp3590
g12
(dp3591
S'posn'
p3592
S'30'
p3593
sS'name'
p3594
S'\xe0\xa4\xac\xe0\xa4\xbe\xe0\xa4\xb0\xe0\xa5\x87'
p3595
sS'drel'
p3596
S'lwg__psp:NP'
p3597
sS'chunktype'
p3598
S'child:NP'
p3599
sS'af'
p3600
S'\xe0\xa4\xac\xe0\xa4\xbe\xe0\xa4\xb0\xe0\xa5\x87,psp,,,,,,'
p3601
ssbsg30
I00
sg31
I00
sg32
Nsg33
Nsg34
I0
sg35
I8
sg36
Nsg37
Nsg38
S'PSP'
p3602
sg40
g3589
sg41
I00
sba(issf_api
Word
p3603
(dp3604
g6
I00
sg7
V\u092e\u0947\u0902
p3605
sg9
(issf_api
FeatureSet
p3606
(dp3607
g12
(dp3608
S'posn'
p3609
S'40'
p3610
sS'name'
p3611
S'\xe0\xa4\xae\xe0\xa5\x87\xe0\xa4\x82'
p3612
sS'drel'
p3613
S'lwg__psp:NP'
p3614
sS'chunktype'
p3615
S'child:NP'
p3616
sS'af'
p3617
S'\xe0\xa4\xae\xe0\xa5\x87\xe0\xa4\x82,psp,,,,,,'
p3618
ssbsg30
I00
sg31
I00
sg32
Nsg33
Nsg34
I0
sg35
I8
sg36
Nsg37
Nsg38
S'PSP'
p3619
sg40
g3606
sg41
I00
sba(issf_api
Word
p3620
(dp3621
g6
I00
sg7
V\u092c\u0924\u093e\u092f\u093e
p3622
sg9
(issf_api
FeatureSet
p3623
(dp3624
g12
(dp3625
S'posn'
p3626
S'50'
p3627
sS'name'
p3628
S'\xe0\xa4\xac\xe0\xa4\xa4\xe0\xa4\xbe\xe0\xa4\xaf\xe0\xa4\xbe'
p3629
sS'af'
p3630
S'\xe0\xa4\xac\xe0\xa4\xa4\xe0\xa4\xbe,v,m,sg,3,,\xe0\xa4\xaf\xe0\xa4\xbe_\xe0\xa4\x9c\xe0\xa4\xbe+\xe0\xa4\xa4\xe0\xa4\xbe_\xe0\xa4\xb9\xe0\xa5\x88,yA'
p3631
sS'chunkid'
p3632
S'VGF'
p3633
sS'chunktype'
p3634
S'head:VGF'
p3635
sS'voicetype'
p3636
S'passive'
p3637
sS'vpos'
p3638
S'tam_2_3'
p3639
sS'stype'
p3640
S'declarative'
p3641
ssbsg30
I00
sg31
I00
sg32
Nsg33
Nsg34
I1
sg35
I8
sg36
Nsg37
Nsg38
S'VM'
p3642
sg40
g3623
sg41
I00
sba(issf_api
Word
p3643
(dp3644
g6
I00
sg7
V\u091c\u093e\u0924\u093e
p3645
sg9
(issf_api
FeatureSet
p3646
(dp3647
g12
(dp3648
S'posn'
p3649
S'60'
p3650
sS'name'
p3651
S'\xe0\xa4\x9c\xe0\xa4\xbe\xe0\xa4\xa4\xe0\xa4\xbe'
p3652
sS'drel'
p3653
S'lwg__vaux:VGF'
p3654
sS'chunktype'
p3655
S'child:VGF'
p3656
sS'af'
p3657
S'\xe0\xa4\x9c\xe0\xa4\xbe,v,m,sg,any,,\xe0\xa4\xa4\xe0\xa4\xbe,wA'
p3658
ssbsg30
I00
sg31
I00
sg32
Nsg33
Nsg34
I1
sg35
I8
sg36
Nsg37
Nsg38
S'VAUX'
p3659
sg40
g3646
sg41
I00
sba(issf_api
Word
p3660
(dp3661
g6
I00
sg7
V\u0939\u0948
p3662
sg9
(issf_api
FeatureSet
p3663
(dp3664
g12
(dp3665
S'posn'
p3666
S'70'
p3667
sS'name'
p3668
S'\xe0\xa4\xb9\xe0\xa5\x88'
p3669
sS'drel'
p3670
S'lwg__vaux:VGF'
p3671
sS'chunktype'
p3672
S'child:VGF'
p3673
sS'af'
p3674
S'\xe0\xa4\xb9\xe0\xa5\x88,v,any,sg,3,,\xe0\xa4\xb9\xe0\xa5\x88,hE'
p3675
ssbsg30
I00
sg31
I00
sg32
Nsg33
Nsg34
I1
sg35
I8
sg36
Nsg37
Nsg38
S'VAUX'
p3676
sg40
g3663
sg41
I00
sba(issf_api
Word
p3677
(dp3678
g6
I00
sg7
V\u0915\u093f
p3679
sg9
(issf_api
FeatureSet
p3680
(dp3681
g12
(dp3682
S'posn'
p3683
S'80'
p3684
sS'name'
p3685
S'\xe0\xa4\x95\xe0\xa4\xbf'
p3686
sS'af'
p3687
S'\xe0\xa4\x95\xe0\xa4\xbf,avy,,,,,,'
p3688
sS'chunkid'
p3689
S'CCP'
p3690
sS'drel'
p3691
S'k2:VGF'
p3692
sS'chunktype'
p3693
S'head:CCP'
p3694
ssbsg30
I00
sg31
I00
sg32
Nsg33
Nsg34
I2
sg35
I8
sg36
Nsg37
Nsg38
S'CC'
p3695
sg40
g3680
sg41
I00
sba(issf_api
Word
p3696
(dp3697
g6
I00
sg7
V\u0935\u0939
p3698
sg9
(issf_api
FeatureSet
p3699
(dp3700
g12
(dp3701
S'crefhead'
p3702
S'\xe0\xa4\xb5\xe0\xa4\xb9:i48'
p3703
sS'posn'
p3704
S'90'
p3705
sS'name'
p3706
S'\xe0\xa4\xb5\xe0\xa4\xb9'
p3707
sS'af'
p3708
S'\xe0\xa4\xb5\xe0\xa4\xb9,pn,any,sg,3,d,,'
p3709
sS'chunkid'
p3710
S'NP2'
p3711
sS'creftype'
p3712
S'Anaphora-C:i47'
p3713
sS'chunktype'
p3714
S'head:NP2'
p3715
sS'cref'
p3716
S'i48%1:t16'
p3717
sS'drel'
p3718
S'k1:VGF2'
p3719
ssbsg30
I00
sg31
I00
sg32
Nsg33
Nsg34
I3
sg35
I8
sg36
Nsg37
Nsg38
S'PRP'
p3720
sg40
g3699
sg41
I00
sba(issf_api
Word
p3721
(dp3722
g6
I00
sg7
V\u0936\u093f\u0915\u093e\u0930
p3723
sg9
(issf_api
FeatureSet
p3724
(dp3725
g12
(dp3726
S'posn'
p3727
S'100'
p3728
sS'name'
p3729
S'\xe0\xa4\xb6\xe0\xa4\xbf\xe0\xa4\x95\xe0\xa4\xbe\xe0\xa4\xb0'
p3730
sS'af'
p3731
S'\xe0\xa4\xb6\xe0\xa4\xbf\xe0\xa4\x95\xe0\xa4\xbe\xe0\xa4\xb0,n,m,sg,3,d,0,0'
p3732
sS'drel'
p3733
S'pof__cn:NP3'
p3734
sS'chunktype'
p3735
S'child:NP3'
p3736
sS'cref'
p3737
S'i49%0:t1'
p3738
ssbsg30
I00
sg31
I00
sg32
Nsg33
Nsg34
I4
sg35
I8
sg36
Nsg37
Nsg38
S'NNC'
p3739
sg40
g3724
sg41
I00
sba(issf_api
Word
p3740
(dp3741
g6
I00
sg7
V\u092e\u093e\u092e\u0932\u0947
p3742
sg9
(issf_api
FeatureSet
p3743
(dp3744
g12
(dp3745
S'crefhead'
p3746
S'\xe0\xa4\xae\xe0\xa4\xbe\xe0\xa4\xae\xe0\xa4\xb2\xe0\xa5\x87:i49'
p3747
sS'posn'
p3748
S'110'
p3749
sS'name'
p3750
S'\xe0\xa4\xae\xe0\xa4\xbe\xe0\xa4\xae\xe0\xa4\xb2\xe0\xa5\x87'
p3751
sS'af'
p3752
S'\xe0\xa4\xae\xe0\xa4\xbe\xe0\xa4\xae\xe0\xa4\xb2\xe0\xa4\xbe,n,m,sg,3,o,0_\xe0\xa4\xae\xe0\xa5\x87\xe0\xa4\x82,0'
p3753
sS'chunkid'
p3754
S'NP3'
p3755
sS'creftype'
p3756
S'Coreference-Identity:i43'
p3757
sS'chunktype'
p3758
S'head:NP3'
p3759
sS'vpos'
p3760
S'vib_3'
p3761
sS'cref'
p3762
S'i49%1:t1'
p3763
sS'drel'
p3764
S'k7:VGF2'
p3765
ssbsg30
I00
sg31
I00
sg32
Nsg33
Nsg34
I4
sg35
I8
sg36
Nsg37
Nsg38
S'NN'
p3766
sg40
g3743
sg41
I00
sba(issf_api
Word
p3767
(dp3768
g6
I00
sg7
V\u092e\u0947\u0902
p3769
sg9
(issf_api
FeatureSet
p3770
(dp3771
g12
(dp3772
S'posn'
p3773
S'120'
p3774
sS'name'
p3775
S'\xe0\xa4\xae\xe0\xa5\x87\xe0\xa4\x822'
p3776
sS'drel'
p3777
S'lwg__psp:NP3'
p3778
sS'chunktype'
p3779
S'child:NP3'
p3780
sS'af'
p3781
S'\xe0\xa4\xae\xe0\xa5\x87\xe0\xa4\x82,psp,,,,,,'
p3782
ssbsg30
I00
sg31
I00
sg32
Nsg33
Nsg34
I4
sg35
I8
sg36
Nsg37
Nsg38
S'PSP'
p3783
sg40
g3770
sg41
I00
sba(issf_api
Word
p3784
(dp3785
g6
I00
sg7
V\u092e\u0941\u0916\u094d\u092f
p3786
sg9
(issf_api
FeatureSet
p3787
(dp3788
g12
(dp3789
S'posn'
p3790
S'130'
p3791
sS'name'
p3792
S'\xe0\xa4\xae\xe0\xa5\x81\xe0\xa4\x96\xe0\xa5\x8d\xe0\xa4\xaf'
p3793
sS'af'
p3794
S'\xe0\xa4\xae\xe0\xa5\x81\xe0\xa4\x96\xe0\xa5\x8d\xe0\xa4\xaf,adj,any,any,,d,,'
p3795
sS'drel'
p3796
S'nmod__adj:NP4'
p3797
sS'chunktype'
p3798
S'child:NP4'
p3799
sS'cref'
p3800
S'i50%0:t16'
p3801
ssbsg30
I00
sg31
I00
sg32
Nsg33
Nsg34
I5
sg35
I8
sg36
Nsg37
Nsg38
S'JJ'
p3802
sg40
g3787
sg41
I00
sba(issf_api
Word
p3803
(dp3804
g6
I00
sg7
V\u0917\u0935\u093e\u0939
p3805
sg9
(issf_api
FeatureSet
p3806
(dp3807
g12
(dp3808
S'crefhead'
p3809
S'\xe0\xa4\x97\xe0\xa4\xb5\xe0\xa4\xbe\xe0\xa4\xb9:i50'
p3810
sS'posn'
p3811
S'140'
p3812
sS'name'
p3813
S'\xe0\xa4\x97\xe0\xa4\xb5\xe0\xa4\xbe\xe0\xa4\xb9'
p3814
sS'af'
p3815
S'\xe0\xa4\x97\xe0\xa4\xb5\xe0\xa4\xbe\xe0\xa4\xb9,n,m,sg,3,d,0,0'
p3816
sS'chunkid'
p3817
S'NP4'
p3818
sS'creftype'
p3819
S'Coreference-Noun-Noun:i48'
p3820
sS'chunktype'
p3821
S'head:NP4'
p3822
sS'cref'
p3823
S'i50%1:t16'
p3824
sS'drel'
p3825
S'k1s:VGF2'
p3826
ssbsg30
I00
sg31
I00
sg32
Nsg33
Nsg34
I5
sg35
I8
sg36
Nsg37
Nsg38
S'NN'
p3827
sg40
g3806
sg41
I00
sba(issf_api
Word
p3828
(dp3829
g6
I00
sg7
V\u0939\u0948
p3830
sg9
(issf_api
FeatureSet
p3831
(dp3832
g12
(dp3833
S'posn'
p3834
S'150'
p3835
sS'name'
p3836
S'\xe0\xa4\xb9\xe0\xa5\x882'
p3837
sS'af'
p3838
S'\xe0\xa4\xb9\xe0\xa5\x88,v,any,sg,3,,\xe0\xa4\xb9\xe0\xa5\x88,hE'
p3839
sS'chunkid'
p3840
S'VGF2'
p3841
sS'stype'
p3842
S'declarative'
p3843
sS'drel'
p3844
S'ccof:CCP'
p3845
sS'voicetype'
p3846
S'active'
p3847
sS'chunktype'
p3848
S'head:VGF2'
p3849
ssbsg30
I00
sg31
I00
sg32
Nsg33
Nsg34
I6
sg35
I8
sg36
Nsg37
Nsg38
S'VM'
p3850
sg40
g3831
sg41
I00
sba(issf_api
Word
p3851
(dp3852
g6
I00
sg7
V\u0964
p3853
sg9
(issf_api
FeatureSet
p3854
(dp3855
g12
(dp3856
S'posn'
p3857
S'160'
p3858
sS'name'
p3859
S'\xe0\xa5\xa4'
p3860
sS'af'
p3861
S'\xe0\xa5\xa4,punc,,,,,,'
p3862
sS'chunkid'
p3863
S'BLK'
p3864
sS'drel'
p3865
S'rsym:VGF'
p3866
sS'chunktype'
p3867
S'head:BLK'
p3868
ssbsg30
I00
sg31
I00
sg32
Nsg33
Nsg34
I7
sg35
I8
sg36
Nsg37
Nsg38
S'SYM'
p3869
sg40
g3854
sg41
I00
sbasS'sentenceList'
p3870
(lp3871
(issf_api
Sentence
p3872
(dp3873
S'rootNode'
p3874
(lp3875
sg35
I0
sS'wordNumList'
p3876
(lp3877
I0
aI1
aI2
aI3
aI4
aI5
aI6
aI7
aI8
aI9
aI10
aI11
aI12
aI13
aI14
asS'nodeDict'
p3878
(dp3879
S'VGF'
p3880
(issf_api
Node
p3881
(dp3882
S'nodeRelation'
p3883
S'None'
p3884
sS'nodeName'
p3885
g3880
sS'nodeParent'
p3886
g3884
sS'nodeLevel'
p3887
I-1
sg34
I6
sS'childList'
p3888
(lp3889
S'BLK'
p3890
aS'NP'
p3891
aS'NP4'
p3892
aS'NP6'
p3893
aS'NP3'
p3894
asbsS'NP5'
p3895
(issf_api
Node
p3896
(dp3897
g3883
S'r6'
p3898
sg3885
g3895
sg3886
S'NP6'
p3899
sg3887
I-1
sg34
I4
sg3888
(lp3900
sbsg3890
(issf_api
Node
p3901
(dp3902
g3883
S'rsym'
p3903
sg3885
g3890
sg3886
S'VGF'
p3904
sg3887
I-1
sg34
I7
sg3888
(lp3905
sbsg3891
(issf_api
Node
p3906
(dp3907
g3883
S'k7'
p3908
sg3885
g3891
sg3886
S'VGF'
p3909
sg3887
I-1
sg34
I0
sg3888
(lp3910
sbsg3892
(issf_api
Node
p3911
(dp3912
g3883
S'k7t'
p3913
sg3885
g3892
sg3886
S'VGF'
p3914
sg3887
I-1
sg34
I3
sg3888
(lp3915
sbsg3893
(issf_api
Node
p3916
(dp3917
g3883
S'k2'
p3918
sg3885
g3893
sg3886
S'VGF'
p3919
sg3887
I-1
sg34
I5
sg3888
(lp3920
g3895
asbsg3894
(issf_api
Node
p3921
(dp3922
g3883
S'k1'
p3923
sg3885
g3894
sg3886
S'VGF'
p3924
sg3887
I-1
sg34
I2
sg3888
(lp3925
S'NP2'
p3926
asbsg3926
(issf_api
Node
p3927
(dp3928
g3883
S'r6'
p3929
sg3885
g3926
sg3886
S'NP3'
p3930
sg3887
I-1
sg34
I1
sg3888
(lp3931
sbssS'chunkList'
p3932
(lp3933
(issf_api
Chunk
p3934
(dp3935
g3885
g76
sg34
I0
sS'chunkTag'
p3936
g87
sg35
I0
sg3876
(lp3937
I0
aI1
aI2
aI3
asg40
(issf_api
FeatureSet
p3938
(dp3939
g12
(dp3940
S'name'
p3941
g3891
sS'drel'
p3942
S'k7:VGF'
p3943
ssbsba(issf_api
Chunk
p3944
(dp3945
g3885
g120
sg34
I1
sg3936
g129
sg35
I0
sg3876
(lp3946
I4
aI5
asg40
(issf_api
FeatureSet
p3947
(dp3948
g12
(dp3949
S'name'
p3950
g3926
sS'drel'
p3951
S'r6:NP3'
p3952
ssbsba(issf_api
Chunk
p3953
(dp3954
g3885
g200
sg34
I2
sg3936
g211
sg35
I0
sg3876
(lp3955
I6
aI7
aI8
asg40
(issf_api
FeatureSet
p3956
(dp3957
g12
(dp3958
S'name'
p3959
g3894
sS'drel'
p3960
S'k1:VGF'
p3961
ssbsba(issf_api
Chunk
p3962
(dp3963
g3885
g225
sg34
I3
sg3936
g232
sg35
I0
sg3876
(lp3964
I9
aI10
asg40
(issf_api
FeatureSet
p3965
(dp3966
g12
(dp3967
S'name'
p3968
g3892
sS'drel'
p3969
S'k7t:VGF'
p3970
ssbsba(issf_api
Chunk
p3971
(dp3972
g3885
g265
sg34
I4
sg3936
g274
sg35
I0
sg3876
(lp3973
I11
asg40
(issf_api
FeatureSet
p3974
(dp3975
g12
(dp3976
S'name'
p3977
g3895
sS'drel'
p3978
S'r6:NP6'
p3979
ssbsba(issf_api
Chunk
p3980
(dp3981
g3885
g288
sg34
I5
sg3936
g293
sg35
I0
sg3876
(lp3982
I12
asg40
(issf_api
FeatureSet
p3983
(dp3984
g12
(dp3985
S'name'
p3986
g3893
sS'drel'
p3987
S'k2:VGF'
p3988
ssbsba(issf_api
Chunk
p3989
(dp3990
g3885
g307
sg34
I6
sg3936
g314
sg35
I0
sg3876
(lp3991
I13
asg40
(issf_api
FeatureSet
p3992
(dp3993
g12
(dp3994
S'name'
p3995
g3880
ssbsba(issf_api
Chunk
p3996
(dp3997
g3885
g328
sg34
I7
sg3936
g333
sg35
I0
sg3876
(lp3998
I14
asg40
(issf_api
FeatureSet
p3999
(dp4000
g12
(dp4001
S'name'
p4002
g3890
sS'drel'
p4003
S'rsym:VGF'
p4004
ssbsbasba(issf_api
Sentence
p4005
(dp4006
g3874
(lp4007
sg35
I1
sg3876
(lp4008
I15
aI16
aI17
aI18
aI19
aI20
aI21
aI22
aI23
aI24
asg3878
(dp4009
S'VGF'
p4010
(issf_api
Node
p4011
(dp4012
g3883
g3884
sg3885
g4010
sg3886
g3884
sg3887
I-1
sg34
I4
sg3888
(lp4013
S'JJP'
p4014
aS'BLK'
p4015
aS'NP'
p4016
aS'NP3'
p4017
asbsg4014
(issf_api
Node
p4018
(dp4019
g3883
S'k1s'
p4020
sg3885
g4014
sg3886
S'VGF'
p4021
sg3887
I-1
sg34
I3
sg3888
(lp4022
sbsg4015
(issf_api
Node
p4023
(dp4024
g3883
S'rsym'
p4025
sg3885
g4015
sg3886
S'VGF'
p4026
sg3887
I-1
sg34
I5
sg3888
(lp4027
sbsg4016
(issf_api
Node
p4028
(dp4029
g3883
S'k7'
p4030
sg3885
g4016
sg3886
S'VGF'
p4031
sg3887
I-1
sg34
I0
sg3888
(lp4032
sbsg4017
(issf_api
Node
p4033
(dp4034
g3883
S'k1'
p4035
sg3885
g4017
sg3886
S'VGF'
p4036
sg3887
I-1
sg34
I2
sg3888
(lp4037
S'NP2'
p4038
asbsg4038
(issf_api
Node
p4039
(dp4040
g3883
S'nmod'
p4041
sg3885
g4038
sg3886
S'NP3'
p4042
sg3887
I-1
sg34
I1
sg3888
(lp4043
sbssg3932
(lp4044
(issf_api
Chunk
p4045
(dp4046
g3885
g368
sg34
I0
sg3936
g379
sg35
I1
sg3876
(lp4047
I15
aI16
aI17
asg40
(issf_api
FeatureSet
p4048
(dp4049
g12
(dp4050
S'name'
p4051
g4016
sS'drel'
p4052
S'k7:VGF'
p4053
ssbsba(issf_api
Chunk
p4054
(dp4055
g3885
g431
sg34
I1
sg3936
g438
sg35
I1
sg3876
(lp4056
I18
aI19
asg40
(issf_api
FeatureSet
p4057
(dp4058
g12
(dp4059
S'name'
p4060
g4038
sS'drel'
p4061
S'nmod:NP3'
p4062
ssbsba(issf_api
Chunk
p4063
(dp4064
g3885
g473
sg34
I2
sg3936
g484
sg35
I1
sg3876
(lp4065
I20
aI21
asg40
(issf_api
FeatureSet
p4066
(dp4067
g12
(dp4068
S'name'
p4069
g4017
sS'drel'
p4070
S'k1:VGF'
p4071
ssbsba(issf_api
Chunk
p4072
(dp4073
g3885
g500
sg34
I3
sg3936
g509
sg35
I1
sg3876
(lp4074
I22
asg40
(issf_api
FeatureSet
p4075
(dp4076
g12
(dp4077
S'name'
p4078
g4014
sS'drel'
p4079
S'k1s:VGF'
p4080
ssbsba(issf_api
Chunk
p4081
(dp4082
g3885
g523
sg34
I4
sg3936
g530
sg35
I1
sg3876
(lp4083
I23
asg40
(issf_api
FeatureSet
p4084
(dp4085
g12
(dp4086
S'name'
p4087
g4010
ssbsba(issf_api
Chunk
p4088
(dp4089
g3885
g544
sg34
I5
sg3936
g549
sg35
I1
sg3876
(lp4090
I24
asg40
(issf_api
FeatureSet
p4091
(dp4092
g12
(dp4093
S'name'
p4094
g4015
sS'drel'
p4095
S'rsym:VGF'
p4096
ssbsbasba(issf_api
Sentence
p4097
(dp4098
g3874
(lp4099
sg35
I2
sg3876
(lp4100
I25
aI26
aI27
aI28
aI29
aI30
aI31
aI32
aI33
aI34
aI35
aI36
aI37
aI38
aI39
aI40
aI41
aI42
aI43
aI44
aI45
aI46
aI47
aI48
aI49
aI50
aI51
aI52
aI53
aI54
aI55
aI56
aI57
aI58
aI59
aI60
aI61
aI62
aI63
aI64
aI65
asg3878
(dp4101
S'CCP'
p4102
(issf_api
Node
p4103
(dp4104
g3883
S'k2'
p4105
sg3885
g4102
sg3886
S'VGF'
p4106
sg3887
I-1
sg34
I8
sg3888
(lp4107
S'CCP2'
p4108
asbsS'VGF2'
p4109
(issf_api
Node
p4110
(dp4111
g3883
S'ccof'
p4112
sg3885
g4109
sg3886
S'CCP2'
p4113
sg3887
I-1
sg34
I13
sg3888
(lp4114
S'NP8'
p4115
aS'NP7'
p4116
aS'NP10'
p4117
asbsS'NP9'
p4118
(issf_api
Node
p4119
(dp4120
g3883
S'r6'
p4121
sg3885
g4118
sg3886
S'NP10'
p4122
sg3887
I-1
sg34
I11
sg3888
(lp4123
sbsg4115
(issf_api
Node
p4124
(dp4125
g3883
S'k7t'
p4126
sg3885
g4115
sg3886
S'VGF2'
p4127
sg3887
I-1
sg34
I10
sg3888
(lp4128
sbsS'NP5'
p4129
(issf_api
Node
p4130
(dp4131
g3883
S'r6'
p4132
sg3885
g4129
sg3886
S'NP6'
p4133
sg3887
I-1
sg34
I4
sg3888
(lp4134
sbsS'NP4'
p4135
(issf_api
Node
p4136
(dp4137
g3883
S'k7t'
p4138
sg3885
g4135
sg3886
S'VGF'
p4139
sg3887
I-1
sg34
I3
sg3888
(lp4140
sbsg4116
(issf_api
Node
p4141
(dp4142
g3883
S'k1'
p4143
sg3885
g4116
sg3886
S'VGF2'
p4144
sg3887
I-1
sg34
I9
sg3888
(lp4145
sbsS'NP6'
p4146
(issf_api
Node
p4147
(dp4148
g3883
S'k2'
p4149
sg3885
g4146
sg3886
S'VGNF'
p4150
sg3887
I-1
sg34
I5
sg3888
(lp4151
g4129
asbsg4108
(issf_api
Node
p4152
(dp4153
g3883
S'ccof'
p4154
sg3885
g4108
sg3886
S'CCP'
p4155
sg3887
I-1
sg34
I14
sg3888
(lp4156
g4109
aS'VGF3'
p4157
asbsS'NP3'
p4158
(issf_api
Node
p4159
(dp4160
g3883
S'k1'
p4161
sg3885
g4158
sg3886
S'VGF'
p4162
sg3887
I-1
sg34
I2
sg3888
(lp4163
S'NP2'
p4164
asbsg4164
(issf_api
Node
p4165
(dp4166
g3883
S'nmod'
p4167
sg3885
g4164
sg3886
S'NP3'
p4168
sg3887
I-1
sg34
I1
sg3888
(lp4169
S'NP'
p4170
asbsS'NP11'
p4171
(issf_api
Node
p4172
(dp4173
g3883
S'k7t'
p4174
sg3885
g4171
sg3886
S'VGF3'
p4175
sg3887
I-1
sg34
I15
sg3888
(lp4176
sbsg4117
(issf_api
Node
p4177
(dp4178
g3883
S'k2'
p4179
sg3885
g4117
sg3886
S'VGF2'
p4180
sg3887
I-1
sg34
I12
sg3888
(lp4181
g4118
asbsS'NP13'
p4182
(issf_api
Node
p4183
(dp4184
g3883
S'r6'
p4185
sg3885
g4182
sg3886
S'NP14'
p4186
sg3887
I-1
sg34
I18
sg3888
(lp4187
sbsS'NP12'
p4188
(issf_api
Node
p4189
(dp4190
g3883
S'k2'
p4191
sg3885
g4188
sg3886
S'VGNN'
p4192
sg3887
I-1
sg34
I16
sg3888
(lp4193
sbsg4157
(issf_api
Node
p4194
(dp4195
g3883
S'ccof'
p4196
sg3885
g4157
sg3886
S'CCP2'
p4197
sg3887
I-1
sg34
I21
sg3888
(lp4198
g4171
aS'NP14'
p4199
aS'VGNN'
p4200
aS'JJP'
p4201
asbsg4199
(issf_api
Node
p4202
(dp4203
g3883
S'k2'
p4204
sg3885
g4199
sg3886
S'VGF3'
p4205
sg3887
I-1
sg34
I19
sg3888
(lp4206
g4182
asbsg4170
(issf_api
Node
p4207
(dp4208
g3883
S'r6'
p4209
sg3885
g4170
sg3886
S'NP2'
p4210
sg3887
I-1
sg34
I0
sg3888
(lp4211
sbsS'VGNF'
p4212
(issf_api
Node
p4213
(dp4214
g3883
S'vmod'
p4215
sg3885
g4212
sg3886
S'VGF'
p4216
sg3887
I-1
sg34
I6
sg3888
(lp4217
g4146
asbsg4200
(issf_api
Node
p4218
(dp4219
g3883
S'rt'
p4220
sg3885
g4200
sg3886
S'VGF3'
p4221
sg3887
I-1
sg34
I17
sg3888
(lp4222
g4188
asbsS'VGF'
p4223
(issf_api
Node
p4224
(dp4225
g3883
g3884
sg3885
g4223
sg3886
g3884
sg3887
I-1
sg34
I7
sg3888
(lp4226
g4102
ag4135
ag4158
ag4212
aS'BLK'
p4227
asbsg4227
(issf_api
Node
p4228
(dp4229
g3883
S'rsym'
p4230
sg3885
g4227
sg3886
S'VGF'
p4231
sg3887
I-1
sg34
I22
sg3888
(lp4232
sbsg4201
(issf_api
Node
p4233
(dp4234
g3883
S'pof'
p4235
sg3885
g4201
sg3886
S'VGF3'
p4236
sg3887
I-1
sg34
I20
sg3888
(lp4237
sbssg3932
(lp4238
(issf_api
Chunk
p4239
(dp4240
g3885
g567
sg34
I0
sg3936
g580
sg35
I2
sg3876
(lp4241
I25
aI26
asg40
(issf_api
FeatureSet
p4242
(dp4243
g12
(dp4244
S'name'
p4245
g4170
sS'drel'
p4246
S'r6:NP2'
p4247
ssbsba(issf_api
Chunk
p4248
(dp4249
g3885
g613
sg34
I1
sg3936
g622
sg35
I2
sg3876
(lp4250
I27
asg40
(issf_api
FeatureSet
p4251
(dp4252
g12
(dp4253
S'name'
p4254
g4164
sS'drel'
p4255
S'nmod:NP3'
p4256
ssbsba(issf_api
Chunk
p4257
(dp4258
g3885
g657
sg34
I2
sg3936
g670
sg35
I2
sg3876
(lp4259
I28
aI29
aI30
asg40
(issf_api
FeatureSet
p4260
(dp4261
g12
(dp4262
S'name'
p4263
g4158
sS'drel'
p4264
S'k1:VGF'
p4265
ssbsba(issf_api
Chunk
p4266
(dp4267
g3885
g701
sg34
I3
sg3936
g708
sg35
I2
sg3876
(lp4268
I31
aI32
asg40
(issf_api
FeatureSet
p4269
(dp4270
g12
(dp4271
S'name'
p4272
g4135
sS'drel'
p4273
S'k7t:VGF'
p4274
ssbsba(issf_api
Chunk
p4275
(dp4276
g3885
g741
sg34
I4
sg3936
g750
sg35
I2
sg3876
(lp4277
I33
asg40
(issf_api
FeatureSet
p4278
(dp4279
g12
(dp4280
S'name'
p4281
g4129
sS'drel'
p4282
S'r6:NP6'
p4283
ssbsba(issf_api
Chunk
p4284
(dp4285
g3885
g764
sg34
I5
sg3936
g769
sg35
I2
sg3876
(lp4286
I34
asg40
(issf_api
FeatureSet
p4287
(dp4288
g12
(dp4289
S'name'
p4290
g4146
sS'drel'
p4291
S'k2:VGNF'
p4292
ssbsba(issf_api
Chunk
p4293
(dp4294
g3885
g783
sg34
I6
sg3936
g790
sg35
I2
sg3876
(lp4295
I35
aI36
asg40
(issf_api
FeatureSet
p4296
(dp4297
g12
(dp4298
S'name'
p4299
g4212
sS'drel'
p4300
S'vmod:VGF'
p4301
ssbsba(issf_api
Chunk
p4302
(dp4303
g3885
g821
sg34
I7
sg3936
g828
sg35
I2
sg3876
(lp4304
I37
asg40
(issf_api
FeatureSet
p4305
(dp4306
g12
(dp4307
S'name'
p4308
g4223
ssbsba(issf_api
Chunk
p4309
(dp4310
g3885
g842
sg34
I8
sg3936
g847
sg35
I2
sg3876
(lp4311
I38
asg40
(issf_api
FeatureSet
p4312
(dp4313
g12
(dp4314
S'name'
p4315
g4102
sS'drel'
p4316
S'k2:VGF'
p4317
ssbsba(issf_api
Chunk
p4318
(dp4319
g3885
g901
sg34
I9
sg3936
g912
sg35
I2
sg3876
(lp4320
I39
aI40
aI41
aI42
asg40
(issf_api
FeatureSet
p4321
(dp4322
g12
(dp4323
S'name'
p4324
g4116
sS'drel'
p4325
S'k1:VGF2'
p4326
ssbsba(issf_api
Chunk
p4327
(dp4328
g3885
g964
sg34
I10
sg3936
g973
sg35
I2
sg3876
(lp4329
I43
aI44
aI45
asg40
(issf_api
FeatureSet
p4330
(dp4331
g12
(dp4332
S'name'
p4333
g4115
sS'drel'
p4334
S'k7t:VGF2'
p4335
ssbsba(issf_api
Chunk
p4336
(dp4337
g3885
g1025
sg34
I11
sg3936
g1034
sg35
I2
sg3876
(lp4338
I46
aI47
aI48
asg40
(issf_api
FeatureSet
p4339
(dp4340
g12
(dp4341
S'name'
p4342
g4118
sS'drel'
p4343
S'r6:NP10'
p4344
ssbsba(issf_api
Chunk
p4345
(dp4346
g3885
g1067
sg34
I12
sg3936
g1074
sg35
I2
sg3876
(lp4347
I49
asg40
(issf_api
FeatureSet
p4348
(dp4349
g12
(dp4350
S'name'
p4351
g4117
sS'drel'
p4352
S'k2:VGF2'
p4353
ssbsba(issf_api
Chunk
p4354
(dp4355
g3885
g1090
sg34
I13
sg3936
g1105
sg35
I2
sg3876
(lp4356
I50
aI51
asg40
(issf_api
FeatureSet
p4357
(dp4358
g12
(dp4359
S'name'
p4360
g4109
sS'drel'
p4361
S'ccof:CCP2'
p4362
ssbsba(issf_api
Chunk
p4363
(dp4364
g3885
g1138
sg34
I14
sg3936
g1143
sg35
I2
sg3876
(lp4365
I52
asg40
(issf_api
FeatureSet
p4366
(dp4367
g12
(dp4368
S'name'
p4369
g4108
sS'drel'
p4370
S'ccof:CCP'
p4371
ssbsba(issf_api
Chunk
p4372
(dp4373
g3885
g1159
sg34
I15
sg3936
g1170
sg35
I2
sg3876
(lp4374
I53
aI54
asg40
(issf_api
FeatureSet
p4375
(dp4376
g12
(dp4377
S'name'
p4378
g4171
sS'drel'
p4379
S'k7t:VGF3'
p4380
ssbsba(issf_api
Chunk
p4381
(dp4382
g3885
g1201
sg34
I16
sg3936
g1206
sg35
I2
sg3876
(lp4383
I55
asg40
(issf_api
FeatureSet
p4384
(dp4385
g12
(dp4386
S'name'
p4387
g4188
sS'drel'
p4388
S'k2:VGNN'
p4389
ssbsba(issf_api
Chunk
p4390
(dp4391
g3885
g1220
sg34
I17
sg3936
g1227
sg35
I2
sg3876
(lp4392
I56
aI57
aI58
asg40
(issf_api
FeatureSet
p4393
(dp4394
g12
(dp4395
S'name'
p4396
g4200
sS'drel'
p4397
S'rt:VGF3'
p4398
ssbsba(issf_api
Chunk
p4399
(dp4400
g3885
g1292
sg34
I18
sg3936
g1299
sg35
I2
sg3876
(lp4401
I59
aI60
aI61
asg40
(issf_api
FeatureSet
p4402
(dp4403
g12
(dp4404
S'name'
p4405
g4182
sS'drel'
p4406
S'r6:NP14'
p4407
ssbsba(issf_api
Chunk
p4408
(dp4409
g3885
g1330
sg34
I19
sg3936
g1335
sg35
I2
sg3876
(lp4410
I62
asg40
(issf_api
FeatureSet
p4411
(dp4412
g12
(dp4413
S'name'
p4414
g4199
sS'drel'
p4415
S'k2:VGF3'
p4416
ssbsba(issf_api
Chunk
p4417
(dp4418
g3885
g1349
sg34
I20
sg3936
g1354
sg35
I2
sg3876
(lp4419
I63
asg40
(issf_api
FeatureSet
p4420
(dp4421
g12
(dp4422
S'name'
p4423
g4201
sS'drel'
p4424
S'pof:VGF3'
p4425
ssbsba(issf_api
Chunk
p4426
(dp4427
g3885
g1368
sg34
I21
sg3936
g1377
sg35
I2
sg3876
(lp4428
I64
asg40
(issf_api
FeatureSet
p4429
(dp4430
g12
(dp4431
S'name'
p4432
g4157
sS'drel'
p4433
S'ccof:CCP2'
p4434
ssbsba(issf_api
Chunk
p4435
(dp4436
g3885
g1391
sg34
I22
sg3936
g1396
sg35
I2
sg3876
(lp4437
I65
asg40
(issf_api
FeatureSet
p4438
(dp4439
g12
(dp4440
S'name'
p4441
g4227
sS'drel'
p4442
S'rsym:VGF'
p4443
ssbsbasba(issf_api
Sentence
p4444
(dp4445
g3874
(lp4446
sg35
I3
sg3876
(lp4447
I66
aI67
aI68
aI69
aI70
aI71
aI72
aI73
aI74
aI75
aI76
aI77
aI78
aI79
aI80
aI81
aI82
aI83
aI84
aI85
aI86
aI87
aI88
aI89
aI90
aI91
asg3878
(dp4448
S'VGF'
p4449
(issf_api
Node
p4450
(dp4451
g3883
g3884
sg3885
g4449
sg3886
g3884
sg3887
I-1
sg34
I11
sg3888
(lp4452
S'CCP'
p4453
aS'JJP'
p4454
aS'BLK'
p4455
aS'NP'
p4456
asbsg4453
(issf_api
Node
p4457
(dp4458
g3883
S'k1'
p4459
sg3885
g4453
sg3886
S'VGF'
p4460
sg3887
I-1
sg34
I2
sg3888
(lp4461
S'NP3'
p4462
aS'NP2'
p4463
asbsg4454
(issf_api
Node
p4464
(dp4465
g3883
S'pof'
p4466
sg3885
g4454
sg3886
S'VGF'
p4467
sg3887
I-1
sg34
I10
sg3888
(lp4468
sbsS'NP5'
p4469
(issf_api
Node
p4470
(dp4471
g3883
S'ccof'
p4472
sg3885
g4469
sg3886
S'CCP2'
p4473
sg3887
I-1
sg34
I5
sg3888
(lp4474
sbsS'NP8'
p4475
(issf_api
Node
p4476
(dp4477
g3883
S'ccof'
p4478
sg3885
g4475
sg3886
S'CCP2'
p4479
sg3887
I-1
sg34
I9
sg3888
(lp4480
sbsg4455
(issf_api
Node
p4481
(dp4482
g3883
S'rsym'
p4483
sg3885
g4455
sg3886
S'VGF'
p4484
sg3887
I-1
sg34
I12
sg3888
(lp4485
sbsg4456
(issf_api
Node
p4486
(dp4487
g3883
S'k7t'
p4488
sg3885
g4456
sg3886
S'VGF'
p4489
sg3887
I-1
sg34
I0
sg3888
(lp4490
sbsS'NP4'
p4491
(issf_api
Node
p4492
(dp4493
g3883
S'ccof'
p4494
sg3885
g4491
sg3886
S'CCP2'
p4495
sg3887
I-1
sg34
I4
sg3888
(lp4496
sbsS'NP7'
p4497
(issf_api
Node
p4498
(dp4499
g3883
S'ccof'
p4500
sg3885
g4497
sg3886
S'CCP2'
p4501
sg3887
I-1
sg34
I7
sg3888
(lp4502
sbsS'NP6'
p4503
(issf_api
Node
p4504
(dp4505
g3883
S'ccof'
p4506
sg3885
g4503
sg3886
S'CCP2'
p4507
sg3887
I-1
sg34
I6
sg3888
(lp4508
sbsS'CCP2'
p4509
(issf_api
Node
p4510
(dp4511
g3883
S'rs'
p4512
sg3885
g4509
sg3886
S'NP3'
p4513
sg3887
I-1
sg34
I8
sg3888
(lp4514
g4469
ag4475
ag4491
ag4497
ag4503
asbsg4462
(issf_api
Node
p4515
(dp4516
g3883
S'ccof'
p4517
sg3885
g4462
sg3886
S'CCP'
p4518
sg3887
I-1
sg34
I3
sg3888
(lp4519
g4509
asbsg4463
(issf_api
Node
p4520
(dp4521
g3883
S'ccof'
p4522
sg3885
g4463
sg3886
S'CCP'
p4523
sg3887
I-1
sg34
I1
sg3888
(lp4524
sbssg3932
(lp4525
(issf_api
Chunk
p4526
(dp4527
g3885
g1410
sg34
I0
sg3936
g1415
sg35
I3
sg3876
(lp4528
I66
aI67
asg40
(issf_api
FeatureSet
p4529
(dp4530
g12
(dp4531
S'name'
p4532
g4456
sS'drel'
p4533
S'k7t:VGF'
p4534
ssbsba(issf_api
Chunk
p4535
(dp4536
g3885
g1467
sg34
I1
sg3936
g1476
sg35
I3
sg3876
(lp4537
I68
aI69
asg40
(issf_api
FeatureSet
p4538
(dp4539
g12
(dp4540
S'name'
p4541
g4463
sS'drel'
p4542
S'ccof:CCP'
p4543
ssbsba(issf_api
Chunk
p4544
(dp4545
g3885
g1490
sg34
I2
sg3936
g1495
sg35
I3
sg3876
(lp4546
I70
asg40
(issf_api
FeatureSet
p4547
(dp4548
g12
(dp4549
S'name'
p4550
g4453
sS'drel'
p4551
S'k1:VGF'
p4552
ssbsba(issf_api
Chunk
p4553
(dp4554
g3885
g1549
sg34
I3
sg3936
g1556
sg35
I3
sg3876
(lp4555
I71
aI72
aI73
asg40
(issf_api
FeatureSet
p4556
(dp4557
g12
(dp4558
S'name'
p4559
g4462
sS'drel'
p4560
S'ccof:CCP'
p4561
ssbsba(issf_api
Chunk
p4562
(dp4563
g3885
g1591
sg34
I4
sg3936
g1602
sg35
I3
sg3876
(lp4564
I74
aI75
aI76
asg40
(issf_api
FeatureSet
p4565
(dp4566
g12
(dp4567
S'name'
p4568
g4491
sS'drel'
p4569
S'ccof:CCP2'
p4570
ssbsba(issf_api
Chunk
p4571
(dp4572
g3885
g1654
sg34
I5
sg3936
g1665
sg35
I3
sg3876
(lp4573
I77
aI78
aI79
asg40
(issf_api
FeatureSet
p4574
(dp4575
g12
(dp4576
S'name'
p4577
g4469
sS'drel'
p4578
S'ccof:CCP2'
p4579
ssbsba(issf_api
Chunk
p4580
(dp4581
g3885
g1717
sg34
I6
sg3936
g1728
sg35
I3
sg3876
(lp4582
I80
aI81
aI82
asg40
(issf_api
FeatureSet
p4583
(dp4584
g12
(dp4585
S'name'
p4586
g4503
sS'drel'
p4587
S'ccof:CCP2'
p4588
ssbsba(issf_api
Chunk
p4589
(dp4590
g3885
g1780
sg34
I7
sg3936
g1791
sg35
I3
sg3876
(lp4591
I83
aI84
asg40
(issf_api
FeatureSet
p4592
(dp4593
g12
(dp4594
S'name'
p4595
g4497
sS'drel'
p4596
S'ccof:CCP2'
p4597
ssbsba(issf_api
Chunk
p4598
(dp4599
g3885
g1805
sg34
I8
sg3936
g1810
sg35
I3
sg3876
(lp4600
I85
asg40
(issf_api
FeatureSet
p4601
(dp4602
g12
(dp4603
S'name'
p4604
g4509
sS'drel'
p4605
S'rs:NP3'
p4606
ssbsba(issf_api
Chunk
p4607
(dp4608
g3885
g1845
sg34
I9
sg3936
g1856
sg35
I3
sg3876
(lp4609
I86
aI87
aI88
asg40
(issf_api
FeatureSet
p4610
(dp4611
g12
(dp4612
S'name'
p4613
g4475
sS'drel'
p4614
S'ccof:CCP2'
p4615
ssbsba(issf_api
Chunk
p4616
(dp4617
g3885
g1887
sg34
I10
sg3936
g1892
sg35
I3
sg3876
(lp4618
I89
asg40
(issf_api
FeatureSet
p4619
(dp4620
g12
(dp4621
S'name'
p4622
g4454
sS'drel'
p4623
S'pof:VGF'
p4624
ssbsba(issf_api
Chunk
p4625
(dp4626
g3885
g1906
sg34
I11
sg3936
g1913
sg35
I3
sg3876
(lp4627
I90
asg40
(issf_api
FeatureSet
p4628
(dp4629
g12
(dp4630
S'name'
p4631
g4449
ssbsba(issf_api
Chunk
p4632
(dp4633
g3885
g1927
sg34
I12
sg3936
g1932
sg35
I3
sg3876
(lp4634
I91
asg40
(issf_api
FeatureSet
p4635
(dp4636
g12
(dp4637
S'name'
p4638
g4455
sS'drel'
p4639
S'rsym:VGF'
p4640
ssbsbasba(issf_api
Sentence
p4641
(dp4642
g3874
(lp4643
sg35
I4
sg3876
(lp4644
I92
aI93
aI94
aI95
aI96
aI97
aI98
aI99
aI100
aI101
aI102
aI103
aI104
aI105
aI106
aI107
aI108
aI109
aI110
aI111
aI112
aI113
aI114
aI115
aI116
aI117
aI118
aI119
asg3878
(dp4645
S'VGF'
p4646
(issf_api
Node
p4647
(dp4648
g3883
g3884
sg3885
g4646
sg3886
g3884
sg3887
I-1
sg34
I2
sg3888
(lp4649
S'BLK'
p4650
aS'NP'
p4651
asbsS'CCP'
p4652
(issf_api
Node
p4653
(dp4654
g3883
S'k1'
p4655
sg3885
g4652
sg3886
S'VGF2'
p4656
sg3887
I-1
sg34
I6
sg3888
(lp4657
S'NP5'
p4658
aS'NP6'
p4659
asbsS'VGF2'
p4660
(issf_api
Node
p4661
(dp4662
g3883
S'nmod__relc'
p4663
sg3885
g4660
sg3886
S'NP2'
p4664
sg3887
I-1
sg34
I12
sg3888
(lp4665
g4652
aS'NP4'
p4666
aS'NP7'
p4667
aS'NP3'
p4668
asbsg4658
(issf_api
Node
p4669
(dp4670
g3883
S'ccof'
p4671
sg3885
g4658
sg3886
S'CCP'
p4672
sg3887
I-1
sg34
I5
sg3888
(lp4673
sbsS'NP9'
p4674
(issf_api
Node
p4675
(dp4676
g3883
S'rs'
p4677
sg3885
g4674
sg3886
S'NP7'
p4678
sg3887
I-1
sg34
I10
sg3888
(lp4679
S'NP8'
p4680
asbsg4680
(issf_api
Node
p4681
(dp4682
g3883
S'r6'
p4683
sg3885
g4680
sg3886
S'NP9'
p4684
sg3887
I-1
sg34
I9
sg3888
(lp4685
sbsg4650
(issf_api
Node
p4686
(dp4687
g3883
S'rsym'
p4688
sg3885
g4650
sg3886
S'VGF'
p4689
sg3887
I-1
sg34
I13
sg3888
(lp4690
sbsS'FRAGP'
p4691
(issf_api
Node
p4692
(dp4693
g3883
S'fragof'
p4694
sg3885
g4691
sg3886
S'NP7'
p4695
sg3887
I-1
sg34
I11
sg3888
(lp4696
sbsg4651
(issf_api
Node
p4697
(dp4698
g3883
S'k1'
p4699
sg3885
g4651
sg3886
S'VGF'
p4700
sg3887
I-1
sg34
I0
sg3888
(lp4701
S'NP2'
p4702
asbsg4666
(issf_api
Node
p4703
(dp4704
g3883
S'k7p'
p4705
sg3885
g4666
sg3886
S'VGF2'
p4706
sg3887
I-1
sg34
I4
sg3888
(lp4707
sbsg4667
(issf_api
Node
p4708
(dp4709
g3883
S'k2'
p4710
sg3885
g4667
sg3886
S'VGF2'
p4711
sg3887
I-1
sg34
I8
sg3888
(lp4712
g4674
ag4691
asbsg4659
(issf_api
Node
p4713
(dp4714
g3883
S'ccof'
p4715
sg3885
g4659
sg3886
S'CCP'
p4716
sg3887
I-1
sg34
I7
sg3888
(lp4717
sbsg4668
(issf_api
Node
p4718
(dp4719
g3883
S'k7t'
p4720
sg3885
g4668
sg3886
S'VGF2'
p4721
sg3887
I-1
sg34
I3
sg3888
(lp4722
sbsg4702
(issf_api
Node
p4723
(dp4724
g3883
S'r6'
p4725
sg3885
g4702
sg3886
S'NP'
p4726
sg3887
I-1
sg34
I1
sg3888
(lp4727
g4660
asbssg3932
(lp4728
(issf_api
Chunk
p4729
(dp4730
g3885
g1967
sg34
I0
sg3936
g1976
sg35
I4
sg3876
(lp4731
I92
aI93
asg40
(issf_api
FeatureSet
p4732
(dp4733
g12
(dp4734
S'name'
p4735
g4651
sS'drel'
p4736
S'k1:VGF'
p4737
ssbsba(issf_api
Chunk
p4738
(dp4739
g3885
g2007
sg34
I1
sg3936
g2014
sg35
I4
sg3876
(lp4740
I94
aI95
aI96
asg40
(issf_api
FeatureSet
p4741
(dp4742
g12
(dp4743
S'name'
p4744
g4702
sS'drel'
p4745
S'r6:NP'
p4746
ssbsba(issf_api
Chunk
p4747
(dp4748
g3885
g2045
sg34
I2
sg3936
g2052
sg35
I4
sg3876
(lp4749
I97
asg40
(issf_api
FeatureSet
p4750
(dp4751
g12
(dp4752
S'name'
p4753
g4646
ssbsba(issf_api
Chunk
p4754
(dp4755
g3885
g2070
sg34
I3
sg3936
g2077
sg35
I4
sg3876
(lp4756
I98
asg40
(issf_api
FeatureSet
p4757
(dp4758
g12
(dp4759
S'name'
p4760
g4668
sS'drel'
p4761
S'k7t:VGF2'
p4762
ssbsba(issf_api
Chunk
p4763
(dp4764
g3885
g2110
sg34
I4
sg3936
g2119
sg35
I4
sg3876
(lp4765
I99
aI100
aI101
asg40
(issf_api
FeatureSet
p4766
(dp4767
g12
(dp4768
S'name'
p4769
g4666
sS'drel'
p4770
S'k7p:VGF2'
p4771
ssbsba(issf_api
Chunk
p4772
(dp4773
g3885
g2154
sg34
I5
sg3936
g2163
sg35
I4
sg3876
(lp4774
I102
asg40
(issf_api
FeatureSet
p4775
(dp4776
g12
(dp4777
S'name'
p4778
g4658
sS'drel'
p4779
S'ccof:CCP'
p4780
ssbsba(issf_api
Chunk
p4781
(dp4782
g3885
g2177
sg34
I6
sg3936
g2184
sg35
I4
sg3876
(lp4783
I103
asg40
(issf_api
FeatureSet
p4784
(dp4785
g12
(dp4786
S'name'
p4787
g4652
sS'drel'
p4788
S'k1:VGF2'
p4789
ssbsba(issf_api
Chunk
p4790
(dp4791
g3885
g2219
sg34
I7
sg3936
g2230
sg35
I4
sg3876
(lp4792
I104
aI105
aI106
asg40
(issf_api
FeatureSet
p4793
(dp4794
g12
(dp4795
S'name'
p4796
g4659
sS'drel'
p4797
S'ccof:CCP'
p4798
ssbsba(issf_api
Chunk
p4799
(dp4800
g3885
g2284
sg34
I8
sg3936
g2293
sg35
I4
sg3876
(lp4801
I107
aI108
asg40
(issf_api
FeatureSet
p4802
(dp4803
g12
(dp4804
S'name'
p4805
g4667
sS'drel'
p4806
S'k2:VGF2'
p4807
ssbsba(issf_api
Chunk
p4808
(dp4809
g3885
g2328
sg34
I9
sg3936
g2339
sg35
I4
sg3876
(lp4810
I109
aI110
aI111
asg40
(issf_api
FeatureSet
p4811
(dp4812
g12
(dp4813
S'name'
p4814
g4680
sS'drel'
p4815
S'r6:NP9'
p4816
ssbsba(issf_api
Chunk
p4817
(dp4818
g3885
g2393
sg34
I10
sg3936
g2404
sg35
I4
sg3876
(lp4819
I112
aI113
aI114
asg40
(issf_api
FeatureSet
p4820
(dp4821
g12
(dp4822
S'name'
p4823
g4674
sS'drel'
p4824
S'rs:NP7'
p4825
ssbsba(issf_api
Chunk
p4826
(dp4827
g3885
g2439
sg34
I11
sg3936
g2440
sg35
I4
sg3876
(lp4828
I115
asg40
(issf_api
FeatureSet
p4829
(dp4830
g12
(dp4831
S'name'
p4832
g4691
sS'drel'
p4833
S'fragof:NP7'
p4834
ssbsba(issf_api
Chunk
p4835
(dp4836
g3885
g2456
sg34
I12
sg3936
g2473
sg35
I4
sg3876
(lp4837
I116
aI117
aI118
asg40
(issf_api
FeatureSet
p4838
(dp4839
g12
(dp4840
S'name'
p4841
g4660
sS'drel'
p4842
S'nmod__relc:NP2'
p4843
ssbsba(issf_api
Chunk
p4844
(dp4845
g3885
g2525
sg34
I13
sg3936
g2530
sg35
I4
sg3876
(lp4846
I119
asg40
(issf_api
FeatureSet
p4847
(dp4848
g12
(dp4849
S'name'
p4850
g4650
sS'drel'
p4851
S'rsym:VGF'
p4852
ssbsbasba(issf_api
Sentence
p4853
(dp4854
g3874
(lp4855
sg35
I5
sg3876
(lp4856
I120
aI121
aI122
aI123
aI124
aI125
aI126
aI127
aI128
aI129
aI130
aI131
aI132
aI133
aI134
aI135
aI136
aI137
aI138
aI139
asg3878
(dp4857
S'VGF'
p4858
(issf_api
Node
p4859
(dp4860
g3883
S'ccof'
p4861
sg3885
g4858
sg3886
S'CCP'
p4862
sg3887
I-1
sg34
I2
sg3888
(lp4863
S'NP'
p4864
aS'CCP2'
p4865
asbsS'CCP'
p4866
(issf_api
Node
p4867
(dp4868
g3883
g3884
sg3885
g4866
sg3886
g3884
sg3887
I-1
sg34
I0
sg3888
(lp4869
g4858
aS'BLK'
p4870
asbsS'VGF2'
p4871
(issf_api
Node
p4872
(dp4873
g3883
S'ccof'
p4874
sg3885
g4871
sg3886
S'CCP2'
p4875
sg3887
I-1
sg34
I8
sg3888
(lp4876
S'NP5'
p4877
aS'NP3'
p4878
aS'NP2'
p4879
asbsg4877
(issf_api
Node
p4880
(dp4881
g3883
S'k2'
p4882
sg3885
g4877
sg3886
S'VGF2'
p4883
sg3887
I-1
sg34
I7
sg3888
(lp4884
S'NP4'
p4885
asbsg4870
(issf_api
Node
p4886
(dp4887
g3883
S'rsym'
p4888
sg3885
g4870
sg3886
S'CCP'
p4889
sg3887
I-1
sg34
I9
sg3888
(lp4890
sbsg4864
(issf_api
Node
p4891
(dp4892
g3883
S'k1'
p4893
sg3885
g4864
sg3886
S'VGF'
p4894
sg3887
I-1
sg34
I1
sg3888
(lp4895
sbsg4885
(issf_api
Node
p4896
(dp4897
g3883
S'r6'
p4898
sg3885
g4885
sg3886
S'NP5'
p4899
sg3887
I-1
sg34
I6
sg3888
(lp4900
sbsg4865
(issf_api
Node
p4901
(dp4902
g3883
S'k2'
p4903
sg3885
g4865
sg3886
S'VGF'
p4904
sg3887
I-1
sg34
I3
sg3888
(lp4905
g4871
asbsg4878
(issf_api
Node
p4906
(dp4907
g3883
S'k1'
p4908
sg3885
g4878
sg3886
S'VGF2'
p4909
sg3887
I-1
sg34
I5
sg3888
(lp4910
sbsg4879
(issf_api
Node
p4911
(dp4912
g3883
S'k7t'
p4913
sg3885
g4879
sg3886
S'VGF2'
p4914
sg3887
I-1
sg34
I4
sg3888
(lp4915
sbssg3932
(lp4916
(issf_api
Chunk
p4917
(dp4918
g3885
g2540
sg34
I0
sg3936
g2547
sg35
I5
sg3876
(lp4919
I120
aI121
asg40
(issf_api
FeatureSet
p4920
(dp4921
g12
(dp4922
S'name'
p4923
g4866
ssbsba(issf_api
Chunk
p4924
(dp4925
g3885
g2579
sg34
I1
sg3936
g2590
sg35
I5
sg3876
(lp4926
I122
aI123
asg40
(issf_api
FeatureSet
p4927
(dp4928
g12
(dp4929
S'name'
p4930
g4864
sS'drel'
p4931
S'k1:VGF'
p4932
ssbsba(issf_api
Chunk
p4933
(dp4934
g3885
g2621
sg34
I2
sg3936
g2630
sg35
I5
sg3876
(lp4935
I124
asg40
(issf_api
FeatureSet
p4936
(dp4937
g12
(dp4938
S'name'
p4939
g4858
sS'drel'
p4940
S'ccof:CCP'
p4941
ssbsba(issf_api
Chunk
p4942
(dp4943
g3885
g2644
sg34
I3
sg3936
g2649
sg35
I5
sg3876
(lp4944
I125
asg40
(issf_api
FeatureSet
p4945
(dp4946
g12
(dp4947
S'name'
p4948
g4865
sS'drel'
p4949
S'k2:VGF'
p4950
ssbsba(issf_api
Chunk
p4951
(dp4952
g3885
g2680
sg34
I4
sg3936
g2687
sg35
I5
sg3876
(lp4953
I126
aI127
aI128
asg40
(issf_api
FeatureSet
p4954
(dp4955
g12
(dp4956
S'name'
p4957
g4879
sS'drel'
p4958
S'k7t:VGF2'
p4959
ssbsba(issf_api
Chunk
p4960
(dp4961
g3885
g2758
sg34
I5
sg3936
g2769
sg35
I5
sg3876
(lp4962
I129
aI130
aI131
aI132
asg40
(issf_api
FeatureSet
p4963
(dp4964
g12
(dp4965
S'name'
p4966
g4878
sS'drel'
p4967
S'k1:VGF2'
p4968
ssbsba(issf_api
Chunk
p4969
(dp4970
g3885
g2804
sg34
I6
sg3936
g2817
sg35
I5
sg3876
(lp4971
I133
aI134
asg40
(issf_api
FeatureSet
p4972
(dp4973
g12
(dp4974
S'name'
p4975
g4885
sS'drel'
p4976
S'r6:NP5'
p4977
ssbsba(issf_api
Chunk
p4978
(dp4979
g3885
g2850
sg34
I7
sg3936
g2861
sg35
I5
sg3876
(lp4980
I135
asg40
(issf_api
FeatureSet
p4981
(dp4982
g12
(dp4983
S'name'
p4984
g4877
sS'drel'
p4985
S'k2:VGF2'
p4986
ssbsba(issf_api
Chunk
p4987
(dp4988
g3885
g2875
sg34
I8
sg3936
g2886
sg35
I5
sg3876
(lp4989
I136
aI137
aI138
asg40
(issf_api
FeatureSet
p4990
(dp4991
g12
(dp4992
S'name'
p4993
g4871
sS'drel'
p4994
S'ccof:CCP2'
p4995
ssbsba(issf_api
Chunk
p4996
(dp4997
g3885
g2934
sg34
I9
sg3936
g2939
sg35
I5
sg3876
(lp4998
I139
asg40
(issf_api
FeatureSet
p4999
(dp5000
g12
(dp5001
S'name'
p5002
g4870
sS'drel'
p5003
S'rsym:CCP'
p5004
ssbsbasba(issf_api
Sentence
p5005
(dp5006
g3874
(lp5007
sg35
I6
sg3876
(lp5008
I140
aI141
aI142
aI143
aI144
aI145
aI146
aI147
aI148
aI149
aI150
aI151
aI152
aI153
aI154
aI155
aI156
aI157
asg3878
(dp5009
S'VGNN'
p5010
(issf_api
Node
p5011
(dp5012
g3883
S'r6-k2'
p5013
sg3885
g5010
sg3886
S'NP6'
p5014
sg3887
I-1
sg34
I5
sg3888
(lp5015
S'NP5'
p5016
asbsS'VGF'
p5017
(issf_api
Node
p5018
(dp5019
g3883
g3884
sg3885
g5017
sg3886
g3884
sg3887
I-1
sg34
I7
sg3888
(lp5020
S'BLK'
p5021
aS'NP6'
p5022
aS'NP2'
p5023
asbsg5016
(issf_api
Node
p5024
(dp5025
g3883
S'k2'
p5026
sg3885
g5016
sg3886
S'VGNN'
p5027
sg3887
I-1
sg34
I4
sg3888
(lp5028
S'NP4'
p5029
asbsg5021
(issf_api
Node
p5030
(dp5031
g3883
S'rsym'
p5032
sg3885
g5021
sg3886
S'VGF'
p5033
sg3887
I-1
sg34
I8
sg3888
(lp5034
sbsS'NP'
p5035
(issf_api
Node
p5036
(dp5037
g3883
S'r6'
p5038
sg3885
g5035
sg3886
S'NP2'
p5039
sg3887
I-1
sg34
I0
sg3888
(lp5040
sbsg5029
(issf_api
Node
p5041
(dp5042
g3883
S'nmod'
p5043
sg3885
g5029
sg3886
S'NP5'
p5044
sg3887
I-1
sg34
I3
sg3888
(lp5045
S'NP3'
p5046
asbsg5022
(issf_api
Node
p5047
(dp5048
g3883
S'pof'
p5049
sg3885
g5022
sg3886
S'VGF'
p5050
sg3887
I-1
sg34
I6
sg3888
(lp5051
g5010
asbsg5046
(issf_api
Node
p5052
(dp5053
g3883
S'r6'
p5054
sg3885
g5046
sg3886
S'NP4'
p5055
sg3887
I-1
sg34
I2
sg3888
(lp5056
sbsg5023
(issf_api
Node
p5057
(dp5058
g3883
S'k3'
p5059
sg3885
g5023
sg3886
S'VGF'
p5060
sg3887
I-1
sg34
I1
sg3888
(lp5061
g5035
asbssg3932
(lp5062
(issf_api
Chunk
p5063
(dp5064
g3885
g2955
sg34
I0
sg3936
g2966
sg35
I6
sg3876
(lp5065
I140
aI141
asg40
(issf_api
FeatureSet
p5066
(dp5067
g12
(dp5068
S'name'
p5069
g5035
sS'drel'
p5070
S'r6:NP2'
p5071
ssbsba(issf_api
Chunk
p5072
(dp5073
g3885
g2997
sg34
I1
sg3936
g3004
sg35
I6
sg3876
(lp5074
I142
aI143
asg40
(issf_api
FeatureSet
p5075
(dp5076
g12
(dp5077
S'name'
p5078
g5023
sS'drel'
p5079
S'k3:VGF'
p5080
ssbsba(issf_api
Chunk
p5081
(dp5082
g3885
g3039
sg34
I2
sg3936
g3052
sg35
I6
sg3876
(lp5083
I144
aI145
asg40
(issf_api
FeatureSet
p5084
(dp5085
g12
(dp5086
S'name'
p5087
g5046
sS'drel'
p5088
S'r6:NP4'
p5089
ssbsba(issf_api
Chunk
p5090
(dp5091
g3885
g3104
sg34
I3
sg3936
g3113
sg35
I6
sg3876
(lp5092
I146
aI147
asg40
(issf_api
FeatureSet
p5093
(dp5094
g12
(dp5095
S'name'
p5096
g5029
sS'drel'
p5097
S'nmod:NP5'
p5098
ssbsba(issf_api
Chunk
p5099
(dp5100
g3885
g3148
sg34
I4
sg3936
g3161
sg35
I6
sg3876
(lp5101
I148
aI149
aI150
asg40
(issf_api
FeatureSet
p5102
(dp5103
g12
(dp5104
S'name'
p5105
g5016
sS'drel'
p5106
S'k2:VGNN'
p5107
ssbsba(issf_api
Chunk
p5108
(dp5109
g3885
g3192
sg34
I5
sg3936
g3199
sg35
I6
sg3876
(lp5110
I151
aI152
asg40
(issf_api
FeatureSet
p5111
(dp5112
g12
(dp5113
S'name'
p5114
g5010
sS'drel'
p5115
S'r6-k2:NP6'
p5116
ssbsba(issf_api
Chunk
p5117
(dp5118
g3885
g3230
sg34
I6
sg3936
g3235
sg35
I6
sg3876
(lp5119
I153
asg40
(issf_api
FeatureSet
p5120
(dp5121
g12
(dp5122
S'name'
p5123
g5022
sS'drel'
p5124
S'pof:VGF'
p5125
ssbsba(issf_api
Chunk
p5126
(dp5127
g3885
g3249
sg34
I7
sg3936
g3258
sg35
I6
sg3876
(lp5128
I154
aI155
aI156
asg40
(issf_api
FeatureSet
p5129
(dp5130
g12
(dp5131
S'name'
p5132
g5017
ssbsba(issf_api
Chunk
p5133
(dp5134
g3885
g3306
sg34
I8
sg3936
g3311
sg35
I6
sg3876
(lp5135
I157
asg40
(issf_api
FeatureSet
p5136
(dp5137
g12
(dp5138
S'name'
p5139
g5021
sS'drel'
p5140
S'rsym:VGF'
p5141
ssbsbasba(issf_api
Sentence
p5142
(dp5143
g3874
(lp5144
sg35
I7
sg3876
(lp5145
I158
aI159
aI160
aI161
aI162
aI163
aI164
aI165
aI166
aI167
aI168
aI169
asg3878
(dp5146
S'VGF'
p5147
(issf_api
Node
p5148
(dp5149
g3883
g3884
sg3885
g5147
sg3886
g3884
sg3887
I-1
sg34
I4
sg3888
(lp5150
S'JJP'
p5151
aS'BLK'
p5152
aS'NP'
p5153
aS'NP3'
p5154
aS'NP2'
p5155
asbsg5151
(issf_api
Node
p5156
(dp5157
g3883
S'pof'
p5158
sg3885
g5151
sg3886
S'VGF'
p5159
sg3887
I-1
sg34
I3
sg3888
(lp5160
sbsg5152
(issf_api
Node
p5161
(dp5162
g3883
S'rsym'
p5163
sg3885
g5152
sg3886
S'VGF'
p5164
sg3887
I-1
sg34
I5
sg3888
(lp5165
sbsg5153
(issf_api
Node
p5166
(dp5167
g3883
S'k1'
p5168
sg3885
g5153
sg3886
S'VGF'
p5169
sg3887
I-1
sg34
I0
sg3888
(lp5170
sbsg5154
(issf_api
Node
p5171
(dp5172
g3883
S'k7p'
p5173
sg3885
g5154
sg3886
S'VGF'
p5174
sg3887
I-1
sg34
I2
sg3888
(lp5175
sbsg5155
(issf_api
Node
p5176
(dp5177
g3883
S'k7t'
p5178
sg3885
g5155
sg3886
S'VGF'
p5179
sg3887
I-1
sg34
I1
sg3888
(lp5180
sbssg3932
(lp5181
(issf_api
Chunk
p5182
(dp5183
g3885
g3327
sg34
I0
sg3936
g3336
sg35
I7
sg3876
(lp5184
I158
asg40
(issf_api
FeatureSet
p5185
(dp5186
g12
(dp5187
S'name'
p5188
g5153
sS'drel'
p5189
S'k1:VGF'
p5190
ssbsba(issf_api
Chunk
p5191
(dp5192
g3885
g3367
sg34
I1
sg3936
g3374
sg35
I7
sg3876
(lp5193
I159
aI160
aI161
asg40
(issf_api
FeatureSet
p5194
(dp5195
g12
(dp5196
S'name'
p5197
g5155
sS'drel'
p5198
S'k7t:VGF'
p5199
ssbsba(issf_api
Chunk
p5200
(dp5201
g3885
g3405
sg34
I2
sg3936
g3412
sg35
I7
sg3876
(lp5202
I162
aI163
asg40
(issf_api
FeatureSet
p5203
(dp5204
g12
(dp5205
S'name'
p5206
g5154
sS'drel'
p5207
S'k7p:VGF'
p5208
ssbsba(issf_api
Chunk
p5209
(dp5210
g3885
g3443
sg34
I3
sg3936
g3448
sg35
I7
sg3876
(lp5211
I164
asg40
(issf_api
FeatureSet
p5212
(dp5213
g12
(dp5214
S'name'
p5215
g5151
sS'drel'
p5216
S'pof:VGF'
p5217
ssbsba(issf_api
Chunk
p5218
(dp5219
g3885
g3479
sg34
I4
sg3936
g3488
sg35
I7
sg3876
(lp5220
I165
aI166
aI167
aI168
asg40
(issf_api
FeatureSet
p5221
(dp5222
g12
(dp5223
S'name'
p5224
g5147
ssbsba(issf_api
Chunk
p5225
(dp5226
g3885
g3536
sg34
I5
sg3936
g3541
sg35
I7
sg3876
(lp5227
I169
asg40
(issf_api
FeatureSet
p5228
(dp5229
g12
(dp5230
S'name'
p5231
g5152
sS'drel'
p5232
S'rsym:VGF'
p5233
ssbsbasba(issf_api
Sentence
p5234
(dp5235
g3874
(lp5236
sg35
I8
sg3876
(lp5237
I170
aI171
aI172
aI173
aI174
aI175
aI176
aI177
aI178
aI179
aI180
aI181
aI182
aI183
aI184
aI185
asg3878
(dp5238
S'VGF'
p5239
(issf_api
Node
p5240
(dp5241
g3883
g3884
sg3885
g5239
sg3886
g3884
sg3887
I-1
sg34
I1
sg3888
(lp5242
S'CCP'
p5243
aS'BLK'
p5244
aS'NP'
p5245
asbsg5243
(issf_api
Node
p5246
(dp5247
g3883
S'k2'
p5248
sg3885
g5243
sg3886
S'VGF'
p5249
sg3887
I-1
sg34
I2
sg3888
(lp5250
S'VGF2'
p5251
asbsg5251
(issf_api
Node
p5252
(dp5253
g3883
S'ccof'
p5254
sg3885
g5251
sg3886
S'CCP'
p5255
sg3887
I-1
sg34
I6
sg3888
(lp5256
S'NP4'
p5257
aS'NP3'
p5258
aS'NP2'
p5259
asbsg5244
(issf_api
Node
p5260
(dp5261
g3883
S'rsym'
p5262
sg3885
g5244
sg3886
S'VGF'
p5263
sg3887
I-1
sg34
I7
sg3888
(lp5264
sbsg5245
(issf_api
Node
p5265
(dp5266
g3883
S'k7'
p5267
sg3885
g5245
sg3886
S'VGF'
p5268
sg3887
I-1
sg34
I0
sg3888
(lp5269
sbsg5257
(issf_api
Node
p5270
(dp5271
g3883
S'k1s'
p5272
sg3885
g5257
sg3886
S'VGF2'
p5273
sg3887
I-1
sg34
I5
sg3888
(lp5274
sbsg5258
(issf_api
Node
p5275
(dp5276
g3883
S'k7'
p5277
sg3885
g5258
sg3886
S'VGF2'
p5278
sg3887
I-1
sg34
I4
sg3888
(lp5279
sbsg5259
(issf_api
Node
p5280
(dp5281
g3883
S'k1'
p5282
sg3885
g5259
sg3886
S'VGF2'
p5283
sg3887
I-1
sg34
I3
sg3888
(lp5284
sbssg3932
(lp5285
(issf_api
Chunk
p5286
(dp5287
g3885
g3557
sg34
I0
sg3936
g3568
sg35
I8
sg3876
(lp5288
I170
aI171
aI172
aI173
asg40
(issf_api
FeatureSet
p5289
(dp5290
g12
(dp5291
S'name'
p5292
g5245
sS'drel'
p5293
S'k7:VGF'
p5294
ssbsba(issf_api
Chunk
p5295
(dp5296
g3885
g3633
sg34
I1
sg3936
g3642
sg35
I8
sg3876
(lp5297
I174
aI175
aI176
asg40
(issf_api
FeatureSet
p5298
(dp5299
g12
(dp5300
S'name'
p5301
g5239
ssbsba(issf_api
Chunk
p5302
(dp5303
g3885
g3690
sg34
I2
sg3936
g3695
sg35
I8
sg3876
(lp5304
I177
asg40
(issf_api
FeatureSet
p5305
(dp5306
g12
(dp5307
S'name'
p5308
g5243
sS'drel'
p5309
S'k2:VGF'
p5310
ssbsba(issf_api
Chunk
p5311
(dp5312
g3885
g3711
sg34
I3
sg3936
g3720
sg35
I8
sg3876
(lp5313
I178
asg40
(issf_api
FeatureSet
p5314
(dp5315
g12
(dp5316
S'name'
p5317
g5259
sS'drel'
p5318
S'k1:VGF2'
p5319
ssbsba(issf_api
Chunk
p5320
(dp5321
g3885
g3755
sg34
I4
sg3936
g3766
sg35
I8
sg3876
(lp5322
I179
aI180
aI181
asg40
(issf_api
FeatureSet
p5323
(dp5324
g12
(dp5325
S'name'
p5326
g5258
sS'drel'
p5327
S'k7:VGF2'
p5328
ssbsba(issf_api
Chunk
p5329
(dp5330
g3885
g3818
sg34
I5
sg3936
g3827
sg35
I8
sg3876
(lp5331
I182
aI183
asg40
(issf_api
FeatureSet
p5332
(dp5333
g12
(dp5334
S'name'
p5335
g5257
sS'drel'
p5336
S'k1s:VGF2'
p5337
ssbsba(issf_api
Chunk
p5338
(dp5339
g3885
g3841
sg34
I6
sg3936
g3850
sg35
I8
sg3876
(lp5340
I184
asg40
(issf_api
FeatureSet
p5341
(dp5342
g12
(dp5343
S'name'
p5344
g5251
sS'drel'
p5345
S'ccof:CCP'
p5346
ssbsba(issf_api
Chunk
p5347
(dp5348
g3885
g3864
sg34
I7
sg3936
g3869
sg35
I8
sg3876
(lp5349
I185
asg40
(issf_api
FeatureSet
p5350
(dp5351
g12
(dp5352
S'name'
p5353
g5244
sS'drel'
p5354
S'rsym:VGF'
p5355
ssbsbasbasb.