(issf_api
SSFInfo
p0
(dp1
S'globalWordList'
p2
(lp3
(issf_api
Word
p4
(dp5
S'splitConn'
p6
I00
sS'word'
p7
V\u0938\u094d\u0935\u093e\u092e\u0940
p8
sS'extraFeatureSet'
p9
(issf_api
FeatureSet
p10
(dp11
S'featureDict'
p12
(dp13
S'posn'
p14
S'10'
p15
sS'name'
p16
S'\xe0\xa4\xb8\xe0\xa5\x8d\xe0\xa4\xb5\xe0\xa4\xbe\xe0\xa4\xae\xe0\xa5\x80'
p17
sS'af'
p18
S'\xe0\xa4\xb8\xe0\xa5\x8d\xe0\xa4\xb5\xe0\xa4\xbe\xe0\xa4\xae\xe0\xa5\x80,n,m,sg,3,d,0,0'
p19
sS'drel'
p20
S'pof__cn:NP'
p21
sS'chunktype'
p22
S'child:NP'
p23
sS'cref'
p24
S'i1%0:t1'
p25
ssbsS'arg1'
p26
I00
sS'arg2'
p27
I00
sS'sense'
p28
NsS'arg1Span'
p29
NsS'chunkNum'
p30
I0
sS'sentenceNum'
p31
I0
sS'relationNum'
p32
NsS'arg2Span'
p33
NsS'wordTag'
p34
S'NNC'
p35
sS'featureSet'
p36
g10
sS'conn'
p37
I00
sba(issf_api
Word
p38
(dp39
g6
I00
sg7
V\u0915\u0932\u094d\u092f\u093e\u0923
p40
sg9
(issf_api
FeatureSet
p41
(dp42
g12
(dp43
S'posn'
p44
S'20'
p45
sS'name'
p46
S'\xe0\xa4\x95\xe0\xa4\xb2\xe0\xa5\x8d\xe0\xa4\xaf\xe0\xa4\xbe\xe0\xa4\xa3'
p47
sS'af'
p48
S'\xe0\xa4\x95\xe0\xa4\xb2\xe0\xa5\x8d\xe0\xa4\xaf\xe0\xa4\xbe\xe0\xa4\xa3,n,m,sg,3,d,0,0'
p49
sS'drel'
p50
S'pof__cn:NP'
p51
sS'chunktype'
p52
S'child:NP'
p53
sS'cref'
p54
S'i1%0:t1'
p55
ssbsg26
I00
sg27
I00
sg28
Nsg29
Nsg30
I0
sg31
I0
sg32
Nsg33
Nsg34
S'NNPC'
p56
sg36
g41
sg37
I00
sba(issf_api
Word
p57
(dp58
g6
I00
sg7
V\u0926\u0947\u0935
p59
sg9
(issf_api
FeatureSet
p60
(dp61
g12
(dp62
S'comment'
p63
S'probsent'
p64
sS'crefhead'
p65
S'\xe0\xa4\xa6\xe0\xa5\x87\xe0\xa4\xb5:i1'
p66
sS'name'
p67
S'\xe0\xa4\xa6\xe0\xa5\x87\xe0\xa4\xb5'
p68
sS'af'
p69
S'\xe0\xa4\xa6\xe0\xa5\x87\xe0\xa4\xb5,n,m,sg,3,d,0,0'
p70
sS'chunkid'
p71
S'NP'
p72
sS'chunktype'
p73
S'head:NP'
p74
sS'crefchainhead'
p75
S'i1:t1'
p76
sS'posn'
p77
S'30'
p78
sS'cref'
p79
S'i1%0:t1'
p80
ssbsg26
I00
sg27
I00
sg28
Nsg29
Nsg30
I0
sg31
I0
sg32
Nsg33
Nsg34
S'NNP'
p81
sg36
g60
sg37
I00
sba(issf_api
Word
p82
(dp83
g6
I00
sg7
V\u091c\u0940
p84
sg9
(issf_api
FeatureSet
p85
(dp86
g12
(dp87
S'posn'
p88
S'40'
p89
sS'name'
p90
S'\xe0\xa4\x9c\xe0\xa5\x80'
p91
sS'af'
p92
S'\xe0\xa4\x9c\xe0\xa5\x80,avy,,,,,,'
p93
sS'drel'
p94
S'lwg__rp:NP'
p95
sS'chunktype'
p96
S'child:NP'
p97
sS'cref'
p98
S'i1%1:t1'
p99
ssbsg26
I00
sg27
I00
sg28
Nsg29
Nsg30
I0
sg31
I0
sg32
Nsg33
Nsg34
S'RP'
p100
sg36
g85
sg37
I00
sba(issf_api
Word
p101
(dp102
g6
I00
sg7
V\u0938\u092e\u093e\u0927\u093f\u0938\u094d\u0925
p103
sg9
(issf_api
FeatureSet
p104
(dp105
g12
(dp106
S'posn'
p107
S'50'
p108
sS'chunkid'
p109
S'JJP'
p110
sS'name'
p111
S'\xe0\xa4\xb8\xe0\xa4\xae\xe0\xa4\xbe\xe0\xa4\xa7\xe0\xa4\xbf\xe0\xa4\xb8\xe0\xa5\x8d\xe0\xa4\xa5'
p112
sS'chunktype'
p113
S'head:JJP'
p114
sS'af'
p115
S'\xe0\xa4\xb8\xe0\xa4\xae\xe0\xa4\xbe\xe0\xa4\xa7\xe0\xa4\xbf\xe0\xa4\xb8\xe0\xa5\x8d\xe0\xa4\xa5,adj,any,any,,,,'
p116
ssbsg26
I00
sg27
I00
sg28
Nsg29
Nsg30
I1
sg31
I0
sg32
Nsg33
Nsg34
S'JJ'
p117
sg36
g104
sg37
I00
sba(issf_api
Word
p118
(dp119
g6
I00
sg7
V-
p120
sg9
(issf_api
FeatureSet
p121
(dp122
g12
(dp123
S'posn'
p124
S'60'
p125
sS'name'
p126
S'-'
p127
sS'af'
p128
S'-,punc,,,,,,'
p129
sS'chunkid'
p130
S'BLK'
p131
sS'drel'
p132
S'rsym:JJP'
p133
sS'chunktype'
p134
S'head:BLK'
p135
ssbsg26
I00
sg27
I00
sg28
Nsg29
Nsg30
I2
sg31
I0
sg32
Nsg33
Nsg34
S'SYM'
p136
sg36
g121
sg37
I00
sba(issf_api
Word
p137
(dp138
g6
I00
sg7
V\u092a\u0926\u094d\u092e\u092d\u0942\u0937\u0923
p139
sg9
(issf_api
FeatureSet
p140
(dp141
g12
(dp142
S'posn'
p143
S'10'
p144
sS'name'
p145
S'\xe0\xa4\xaa\xe0\xa4\xa6\xe0\xa5\x8d\xe0\xa4\xae\xe0\xa4\xad\xe0\xa5\x82\xe0\xa4\xb7\xe0\xa4\xa3'
p146
sS'af'
p147
S'\xe0\xa4\xaa\xe0\xa4\xa6\xe0\xa5\x8d\xe0\xa4\xae\xe0\xa4\xad\xe0\xa5\x82\xe0\xa4\xb7\xe0\xa4\xa3,n,m,sg,3,d,0,0'
p148
sS'chunkid'
p149
S'NP'
p150
sS'drel'
p151
S'ccof:CCP'
p152
sS'chunktype'
p153
S'head:NP'
p154
ssbsg26
I00
sg27
I00
sg28
Nsg29
Nsg30
I0
sg31
I1
sg32
Nsg33
Nsg34
S'NNP'
p155
sg36
g140
sg37
I00
sba(issf_api
Word
p156
(dp157
g6
I00
sg7
V\u0914\u0930
p158
sg9
(issf_api
FeatureSet
p159
(dp160
g12
(dp161
S'posn'
p162
S'20'
p163
sS'name'
p164
S'\xe0\xa4\x94\xe0\xa4\xb0'
p165
sS'af'
p166
S'\xe0\xa4\x94\xe0\xa4\xb0,avy,,,,,,'
p167
sS'chunkid'
p168
S'CCP'
p169
sS'drel'
p170
S'nmod:NP3'
p171
sS'chunktype'
p172
S'head:CCP'
p173
ssbsg26
I00
sg27
I00
sg28
Nsg29
Nsg30
I1
sg31
I1
sg32
Nsg33
Nsg34
S'CC'
p174
sg36
g159
sg37
I00
sba(issf_api
Word
p175
(dp176
g6
I00
sg7
V\u092a\u0926\u094d\u092e\u0936\u094d\u0930\u0940
p177
sg9
(issf_api
FeatureSet
p178
(dp179
g12
(dp180
S'posn'
p181
S'30'
p182
sS'name'
p183
S'\xe0\xa4\xaa\xe0\xa4\xa6\xe0\xa5\x8d\xe0\xa4\xae\xe0\xa4\xb6\xe0\xa5\x8d\xe0\xa4\xb0\xe0\xa5\x80'
p184
sS'af'
p185
S'\xe0\xa4\xaa\xe0\xa4\xa6\xe0\xa5\x8d\xe0\xa4\xae\xe0\xa4\xb6\xe0\xa5\x8d\xe0\xa4\xb0\xe0\xa5\x80,n,m,sg,3,d,0,0'
p186
sS'chunkid'
p187
S'NP2'
p188
sS'drel'
p189
S'ccof:CCP'
p190
sS'chunktype'
p191
S'head:NP2'
p192
ssbsg26
I00
sg27
I00
sg28
Nsg29
Nsg30
I2
sg31
I1
sg32
Nsg33
Nsg34
S'NNP'
p193
sg36
g178
sg37
I00
sba(issf_api
Word
p194
(dp195
g6
I00
sg7
V\u0938\u094d\u0935\u093e\u092e\u0940
p196
sg9
(issf_api
FeatureSet
p197
(dp198
g12
(dp199
S'posn'
p200
S'40'
p201
sS'name'
p202
S'\xe0\xa4\xb8\xe0\xa5\x8d\xe0\xa4\xb5\xe0\xa4\xbe\xe0\xa4\xae\xe0\xa5\x80'
p203
sS'af'
p204
S'\xe0\xa4\xb8\xe0\xa5\x8d\xe0\xa4\xb5\xe0\xa4\xbe\xe0\xa4\xae\xe0\xa5\x80,n,m,sg,3,d,0,0'
p205
sS'drel'
p206
S'pof__cn:NP3'
p207
sS'chunktype'
p208
S'child:NP3'
p209
sS'cref'
p210
S'i2%0:t1'
p211
ssbsg26
I00
sg27
I00
sg28
Nsg29
Nsg30
I3
sg31
I1
sg32
Nsg33
Nsg34
S'NNC'
p212
sg36
g197
sg37
I00
sba(issf_api
Word
p213
(dp214
g6
I00
sg7
V\u0915\u0932\u094d\u092f\u093e\u0923
p215
sg9
(issf_api
FeatureSet
p216
(dp217
g12
(dp218
S'posn'
p219
S'50'
p220
sS'name'
p221
S'\xe0\xa4\x95\xe0\xa4\xb2\xe0\xa5\x8d\xe0\xa4\xaf\xe0\xa4\xbe\xe0\xa4\xa3'
p222
sS'af'
p223
S'\xe0\xa4\x95\xe0\xa4\xb2\xe0\xa5\x8d\xe0\xa4\xaf\xe0\xa4\xbe\xe0\xa4\xa3,n,m,sg,3,d,0,0'
p224
sS'drel'
p225
S'pof__cn:NP3'
p226
sS'chunktype'
p227
S'child:NP3'
p228
sS'cref'
p229
S'i2%0:t1'
p230
ssbsg26
I00
sg27
I00
sg28
Nsg29
Nsg30
I3
sg31
I1
sg32
Nsg33
Nsg34
S'NNPC'
p231
sg36
g216
sg37
I00
sba(issf_api
Word
p232
(dp233
g6
I00
sg7
V\u0926\u0947\u0935
p234
sg9
(issf_api
FeatureSet
p235
(dp236
g12
(dp237
S'crefhead'
p238
S'\xe0\xa4\xa6\xe0\xa5\x87\xe0\xa4\xb5:i2'
p239
sS'posn'
p240
S'60'
p241
sS'name'
p242
S'\xe0\xa4\xa6\xe0\xa5\x87\xe0\xa4\xb5'
p243
sS'af'
p244
S'\xe0\xa4\xa6\xe0\xa5\x87\xe0\xa4\xb5,n,m,sg,3,o,0_\xe0\xa4\x95\xe0\xa5\x8b,0'
p245
sS'chunkid'
p246
S'NP3'
p247
sS'creftype'
p248
S'Coreference-Identity:i1'
p249
sS'chunktype'
p250
S'head:NP3'
p251
sS'vpos'
p252
S'vib_RP_5'
p253
sS'cref'
p254
S'i2%0:t1'
p255
sS'drel'
p256
S'k4:VGF'
p257
ssbsg26
I00
sg27
I00
sg28
Nsg29
Nsg30
I3
sg31
I1
sg32
Nsg33
Nsg34
S'NNP'
p258
sg36
g235
sg37
I00
sba(issf_api
Word
p259
(dp260
g6
I00
sg7
V\u091c\u0940
p261
sg9
(issf_api
FeatureSet
p262
(dp263
g12
(dp264
S'posn'
p265
S'70'
p266
sS'name'
p267
S'\xe0\xa4\x9c\xe0\xa5\x80'
p268
sS'af'
p269
S'\xe0\xa4\x9c\xe0\xa5\x80,avy,,,,,,'
p270
sS'drel'
p271
S'lwg__rp:NP3'
p272
sS'chunktype'
p273
S'child:NP3'
p274
sS'cref'
p275
S'i2%1:t1'
p276
ssbsg26
I00
sg27
I00
sg28
Nsg29
Nsg30
I3
sg31
I1
sg32
Nsg33
Nsg34
S'RP'
p277
sg36
g262
sg37
I00
sba(issf_api
Word
p278
(dp279
g6
I00
sg7
V\u0915\u094b
p280
sg9
(issf_api
FeatureSet
p281
(dp282
g12
(dp283
S'posn'
p284
S'80'
p285
sS'name'
p286
S'\xe0\xa4\x95\xe0\xa5\x8b'
p287
sS'drel'
p288
S'lwg__psp:NP3'
p289
sS'chunktype'
p290
S'child:NP3'
p291
sS'af'
p292
S'\xe0\xa4\x95\xe0\xa5\x8b,psp,,,,,,'
p293
ssbsg26
I00
sg27
I00
sg28
Nsg29
Nsg30
I3
sg31
I1
sg32
Nsg33
Nsg34
S'PSP'
p294
sg36
g281
sg37
I00
sba(issf_api
Word
p295
(dp296
g6
I00
sg7
V\u0906\u091c
p297
sg9
(issf_api
FeatureSet
p298
(dp299
g12
(dp300
S'posn'
p301
S'90'
p302
sS'name'
p303
S'\xe0\xa4\x86\xe0\xa4\x9c'
p304
sS'af'
p305
S'\xe0\xa4\x86\xe0\xa4\x9c,n,m,sg,3,d,0,0'
p306
sS'chunkid'
p307
S'NP4'
p308
sS'drel'
p309
S'k7t:VGF'
p310
sS'chunktype'
p311
S'head:NP4'
p312
ssbsg26
I00
sg27
I00
sg28
Nsg29
Nsg30
I4
sg31
I1
sg32
Nsg33
Nsg34
S'NN'
p313
sg36
g298
sg37
I00
sba(issf_api
Word
p314
(dp315
g6
I00
sg7
V\u0935\u0947\u0926
p316
sg9
(issf_api
FeatureSet
p317
(dp318
g12
(dp319
S'posn'
p320
S'100'
p321
sS'name'
p322
S'\xe0\xa4\xb5\xe0\xa5\x87\xe0\xa4\xa6'
p323
sS'drel'
p324
S'pof__cn:NP5'
p325
sS'chunktype'
p326
S'child:NP5'
p327
sS'af'
p328
S'\xe0\xa4\xb5\xe0\xa5\x87\xe0\xa4\xa6,n,m,sg,3,d,0,0'
p329
ssbsg26
I00
sg27
I00
sg28
Nsg29
Nsg30
I5
sg31
I1
sg32
Nsg33
Nsg34
S'NNC'
p330
sg36
g317
sg37
I00
sba(issf_api
Word
p331
(dp332
g6
I00
sg7
V\u092e\u0902\u0924\u094d\u0930\u094b\u091a\u094d\u091a\u093e\u0930\u094b\u0902
p333
sg9
(issf_api
FeatureSet
p334
(dp335
g12
(dp336
S'posn'
p337
S'110'
p338
sS'name'
p339
S'\xe0\xa4\xae\xe0\xa4\x82\xe0\xa4\xa4\xe0\xa5\x8d\xe0\xa4\xb0\xe0\xa5\x8b\xe0\xa4\x9a\xe0\xa5\x8d\xe0\xa4\x9a\xe0\xa4\xbe\xe0\xa4\xb0\xe0\xa5\x8b\xe0\xa4\x82'
p340
sS'af'
p341
S'\xe0\xa4\xae\xe0\xa4\x82\xe0\xa4\xa4\xe0\xa5\x8d\xe0\xa4\xb0\xe0\xa5\x8b\xe0\xa4\x9a\xe0\xa5\x8d\xe0\xa4\x9a\xe0\xa4\xbe\xe0\xa4\xb0,n,m,pl,3,o,0_\xe0\xa4\x95\xe0\xa5\x87_\xe0\xa4\xac\xe0\xa5\x80\xe0\xa4\x9a,0'
p342
sS'chunkid'
p343
S'NP5'
p344
sS'drel'
p345
S'k7:VGF'
p346
sS'vpos'
p347
S'vib_3_4'
p348
sS'chunktype'
p349
S'head:NP5'
p350
ssbsg26
I00
sg27
I00
sg28
Nsg29
Nsg30
I5
sg31
I1
sg32
Nsg33
Nsg34
S'NN'
p351
sg36
g334
sg37
I00
sba(issf_api
Word
p352
(dp353
g6
I00
sg7
V\u0915\u0947
p354
sg9
(issf_api
FeatureSet
p355
(dp356
g12
(dp357
S'posn'
p358
S'120'
p359
sS'name'
p360
S'\xe0\xa4\x95\xe0\xa5\x87'
p361
sS'drel'
p362
S'lwg__psp:NP5'
p363
sS'chunktype'
p364
S'child:NP5'
p365
sS'af'
p366
S'\xe0\xa4\x95\xe0\xa5\x87,psp,,,,,,'
p367
ssbsg26
I00
sg27
I00
sg28
Nsg29
Nsg30
I5
sg31
I1
sg32
Nsg33
Nsg34
S'PSP'
p368
sg36
g355
sg37
I00
sba(issf_api
Word
p369
(dp370
g6
I00
sg7
V\u092c\u0940\u091a
p371
sg9
(issf_api
FeatureSet
p372
(dp373
g12
(dp374
S'posn'
p375
S'130'
p376
sS'name'
p377
S'\xe0\xa4\xac\xe0\xa5\x80\xe0\xa4\x9a'
p378
sS'drel'
p379
S'lwg__psp:NP5'
p380
sS'chunktype'
p381
S'child:NP5'
p382
sS'af'
p383
S'\xe0\xa4\xac\xe0\xa5\x80\xe0\xa4\x9a,nst,m,sg,3,d,,'
p384
ssbsg26
I00
sg27
I00
sg28
Nsg29
Nsg30
I5
sg31
I1
sg32
Nsg33
Nsg34
S'NST'
p385
sg36
g372
sg37
I00
sba(issf_api
Word
p386
(dp387
g6
I00
sg7
V\u0938\u092e\u093e\u0927\u093f
p388
sg9
(issf_api
FeatureSet
p389
(dp390
g12
(dp391
S'posn'
p392
S'140'
p393
sS'name'
p394
S'\xe0\xa4\xb8\xe0\xa4\xae\xe0\xa4\xbe\xe0\xa4\xa7\xe0\xa4\xbf'
p395
sS'af'
p396
S'\xe0\xa4\xb8\xe0\xa4\xae\xe0\xa4\xbe\xe0\xa4\xa7\xe0\xa4\xbf,n,f,sg,3,d,0,0'
p397
sS'chunkid'
p398
S'NP6'
p399
sS'drel'
p400
S'pof:VGF'
p401
sS'chunktype'
p402
S'head:NP6'
p403
ssbsg26
I00
sg27
I00
sg28
Nsg29
Nsg30
I6
sg31
I1
sg32
Nsg33
Nsg34
S'NN'
p404
sg36
g389
sg37
I00
sba(issf_api
Word
p405
(dp406
g6
I00
sg7
V\u0926\u0947
p407
sg9
(issf_api
FeatureSet
p408
(dp409
g12
(dp410
S'posn'
p411
S'150'
p412
sS'name'
p413
S'\xe0\xa4\xa6\xe0\xa5\x87'
p414
sS'af'
p415
S'\xe0\xa4\xa6\xe0\xa5\x87,v,f,sg,any,,0_\xe0\xa4\xa6\xe0\xa5\x87+\xe0\xa4\xaf\xe0\xa4\xbe_\xe0\xa4\x9c\xe0\xa4\xbe+\xe0\xa4\xaf\xe0\xa4\xbe1,0'
p416
sS'chunkid'
p417
S'VGF'
p418
sS'chunktype'
p419
S'head:VGF'
p420
sS'voicetype'
p421
S'passive'
p422
sS'vpos'
p423
S'tam_2_3'
p424
sS'stype'
p425
S'declarative'
p426
ssbsg26
I00
sg27
I00
sg28
Nsg29
Nsg30
I7
sg31
I1
sg32
Nsg33
Nsg34
S'VM'
p427
sg36
g408
sg37
I00
sba(issf_api
Word
p428
(dp429
g6
I00
sg7
V\u0926\u0940
p430
sg9
(issf_api
FeatureSet
p431
(dp432
g12
(dp433
S'posn'
p434
S'160'
p435
sS'name'
p436
S'\xe0\xa4\xa6\xe0\xa5\x80'
p437
sS'drel'
p438
S'lwg__vaux:VGF'
p439
sS'chunktype'
p440
S'child:VGF'
p441
sS'af'
p442
S'\xe0\xa4\xa6\xe0\xa5\x87,v,f,sg,any,,\xe0\xa4\xaf\xe0\xa4\xbe,yA'
p443
ssbsg26
I00
sg27
I00
sg28
Nsg29
Nsg30
I7
sg31
I1
sg32
Nsg33
Nsg34
S'VAUX'
p444
sg36
g431
sg37
I00
sba(issf_api
Word
p445
(dp446
g6
I00
sg7
V\u0917\u0908
p447
sg9
(issf_api
FeatureSet
p448
(dp449
g12
(dp450
S'posn'
p451
S'170'
p452
sS'name'
p453
S'\xe0\xa4\x97\xe0\xa4\x88'
p454
sS'drel'
p455
S'lwg__vaux:VGF'
p456
sS'chunktype'
p457
S'child:VGF'
p458
sS'af'
p459
S'\xe0\xa4\x9c\xe0\xa4\xbe,v,f,sg,any,,\xe0\xa4\xaf\xe0\xa4\xbe1,yA1'
p460
ssbsg26
I00
sg27
I00
sg28
Nsg29
Nsg30
I7
sg31
I1
sg32
Nsg33
Nsg34
S'VAUX'
p461
sg36
g448
sg37
I00
sba(issf_api
Word
p462
(dp463
g6
I00
sg7
V\u0964
p464
sg9
(issf_api
FeatureSet
p465
(dp466
g12
(dp467
S'posn'
p468
S'180'
p469
sS'name'
p470
S'\xe0\xa5\xa4'
p471
sS'af'
p472
S'\xe0\xa5\xa4,punc,,,,,,'
p473
sS'chunkid'
p474
S'BLK'
p475
sS'drel'
p476
S'rsym:VGF'
p477
sS'chunktype'
p478
S'head:BLK'
p479
ssbsg26
I00
sg27
I00
sg28
Nsg29
Nsg30
I8
sg31
I1
sg32
Nsg33
Nsg34
S'SYM'
p480
sg36
g465
sg37
I00
sba(issf_api
Word
p481
(dp482
g6
I00
sg7
V\u0939\u091c\u093e\u0930\u094b\u0902
p483
sg9
(issf_api
FeatureSet
p484
(dp485
g12
(dp486
S'posn'
p487
S'10'
p488
sS'name'
p489
S'\xe0\xa4\xb9\xe0\xa4\x9c\xe0\xa4\xbe\xe0\xa4\xb0\xe0\xa5\x8b\xe0\xa4\x82'
p490
sS'drel'
p491
S'nmod__adj:NP'
p492
sS'chunktype'
p493
S'child:NP'
p494
sS'af'
p495
S'\xe0\xa4\xb9\xe0\xa4\x9c\xe0\xa4\xbe\xe0\xa4\xb0,num,any,pl,,any,,'
p496
ssbsg26
I00
sg27
I00
sg28
Nsg29
Nsg30
I0
sg31
I2
sg32
Nsg33
Nsg34
S'QC'
p497
sg36
g484
sg37
I00
sba(issf_api
Word
p498
(dp499
g6
I00
sg7
V\u0905\u0928\u0941\u092f\u093e\u092f\u093f\u092f\u094b\u0902
p500
sg9
(issf_api
FeatureSet
p501
(dp502
g12
(dp503
S'posn'
p504
S'20'
p505
sS'name'
p506
S'\xe0\xa4\x85\xe0\xa4\xa8\xe0\xa5\x81\xe0\xa4\xaf\xe0\xa4\xbe\xe0\xa4\xaf\xe0\xa4\xbf\xe0\xa4\xaf\xe0\xa5\x8b\xe0\xa4\x82'
p507
sS'af'
p508
S'\xe0\xa4\x85\xe0\xa4\xa8\xe0\xa5\x81\xe0\xa4\xaf\xe0\xa4\xbe\xe0\xa4\xaf\xe0\xa5\x80,n,m,pl,3,o,0_\xe0\xa4\xa8\xe0\xa5\x87,0'
p509
sS'chunkid'
p510
S'NP'
p511
sS'drel'
p512
S'k1:VGF'
p513
sS'vpos'
p514
S'vib_3'
p515
sS'chunktype'
p516
S'head:NP'
p517
ssbsg26
I00
sg27
I00
sg28
Nsg29
Nsg30
I0
sg31
I2
sg32
Nsg33
Nsg34
S'NN'
p518
sg36
g501
sg37
I00
sba(issf_api
Word
p519
(dp520
g6
I00
sg7
V\u0928\u0947
p521
sg9
(issf_api
FeatureSet
p522
(dp523
g12
(dp524
S'posn'
p525
S'30'
p526
sS'name'
p527
S'\xe0\xa4\xa8\xe0\xa5\x87'
p528
sS'drel'
p529
S'lwg__psp:NP'
p530
sS'chunktype'
p531
S'child:NP'
p532
sS'af'
p533
S'\xe0\xa4\xa8\xe0\xa5\x87,psp,,,,,,'
p534
ssbsg26
I00
sg27
I00
sg28
Nsg29
Nsg30
I0
sg31
I2
sg32
Nsg33
Nsg34
S'PSP'
p535
sg36
g522
sg37
I00
sba(issf_api
Word
p536
(dp537
g6
I00
sg7
V\u0928\u092e
p538
sg9
(issf_api
FeatureSet
p539
(dp540
g12
(dp541
S'posn'
p542
S'40'
p543
sS'name'
p544
S'\xe0\xa4\xa8\xe0\xa4\xae'
p545
sS'drel'
p546
S'nmod__adj:NP2'
p547
sS'chunktype'
p548
S'child:NP2'
p549
sS'af'
p550
S'\xe0\xa4\xa8\xe0\xa4\xae,adj,any,any,,o,,'
p551
ssbsg26
I00
sg27
I00
sg28
Nsg29
Nsg30
I1
sg31
I2
sg32
Nsg33
Nsg34
S'JJ'
p552
sg36
g539
sg37
I00
sba(issf_api
Word
p553
(dp554
g6
I00
sg7
V\u0906\u0902\u0916\u094b\u0902
p555
sg9
(issf_api
FeatureSet
p556
(dp557
g12
(dp558
S'posn'
p559
S'50'
p560
sS'name'
p561
S'\xe0\xa4\x86\xe0\xa4\x82\xe0\xa4\x96\xe0\xa5\x8b\xe0\xa4\x82'
p562
sS'af'
p563
S'\xe0\xa4\x86\xe0\xa4\x82\xe0\xa4\x96,n,f,pl,3,o,0_\xe0\xa4\xb8\xe0\xa5\x87,0'
p564
sS'chunkid'
p565
S'NP2'
p566
sS'drel'
p567
S'k3:VGF'
p568
sS'vpos'
p569
S'vib_3'
p570
sS'chunktype'
p571
S'head:NP2'
p572
ssbsg26
I00
sg27
I00
sg28
Nsg29
Nsg30
I1
sg31
I2
sg32
Nsg33
Nsg34
S'NN'
p573
sg36
g556
sg37
I00
sba(issf_api
Word
p574
(dp575
g6
I00
sg7
V\u0938\u0947
p576
sg9
(issf_api
FeatureSet
p577
(dp578
g12
(dp579
S'posn'
p580
S'60'
p581
sS'name'
p582
S'\xe0\xa4\xb8\xe0\xa5\x87'
p583
sS'drel'
p584
S'lwg__psp:NP2'
p585
sS'chunktype'
p586
S'child:NP2'
p587
sS'af'
p588
S'\xe0\xa4\xb8\xe0\xa5\x87,psp,,,,,,'
p589
ssbsg26
I00
sg27
I00
sg28
Nsg29
Nsg30
I1
sg31
I2
sg32
Nsg33
Nsg34
S'PSP'
p590
sg36
g577
sg37
I00
sba(issf_api
Word
p591
(dp592
g6
I00
sg7
V\u0938\u094d\u0935\u093e\u092e\u0940
p593
sg9
(issf_api
FeatureSet
p594
(dp595
g12
(dp596
S'posn'
p597
S'70'
p598
sS'name'
p599
S'\xe0\xa4\xb8\xe0\xa5\x8d\xe0\xa4\xb5\xe0\xa4\xbe\xe0\xa4\xae\xe0\xa5\x80'
p600
sS'af'
p601
S'\xe0\xa4\xb8\xe0\xa5\x8d\xe0\xa4\xb5\xe0\xa4\xbe\xe0\xa4\xae\xe0\xa5\x80,n,m,sg,3,d,0,0'
p602
sS'drel'
p603
S'pof__cn:NP3'
p604
sS'chunktype'
p605
S'child:NP3'
p606
sS'cref'
p607
S'i3%0:t1'
p608
ssbsg26
I00
sg27
I00
sg28
Nsg29
Nsg30
I2
sg31
I2
sg32
Nsg33
Nsg34
S'NNC'
p609
sg36
g594
sg37
I00
sba(issf_api
Word
p610
(dp611
g6
I00
sg7
V\u0915\u0932\u094d\u092f\u093e\u0923
p612
sg9
(issf_api
FeatureSet
p613
(dp614
g12
(dp615
S'posn'
p616
S'80'
p617
sS'name'
p618
S'\xe0\xa4\x95\xe0\xa4\xb2\xe0\xa5\x8d\xe0\xa4\xaf\xe0\xa4\xbe\xe0\xa4\xa3'
p619
sS'af'
p620
S'\xe0\xa4\x95\xe0\xa4\xb2\xe0\xa5\x8d\xe0\xa4\xaf\xe0\xa4\xbe\xe0\xa4\xa3,n,m,sg,3,d,0,0'
p621
sS'drel'
p622
S'pof__cn:NP3'
p623
sS'chunktype'
p624
S'child:NP3'
p625
sS'cref'
p626
S'i3%0:t1'
p627
ssbsg26
I00
sg27
I00
sg28
Nsg29
Nsg30
I2
sg31
I2
sg32
Nsg33
Nsg34
S'NNPC'
p628
sg36
g613
sg37
I00
sba(issf_api
Word
p629
(dp630
g6
I00
sg7
V\u0926\u0947\u0935
p631
sg9
(issf_api
FeatureSet
p632
(dp633
g12
(dp634
S'crefhead'
p635
S'\xe0\xa4\xa6\xe0\xa5\x87\xe0\xa4\xb5:i3'
p636
sS'posn'
p637
S'90'
p638
sS'name'
p639
S'\xe0\xa4\xa6\xe0\xa5\x87\xe0\xa4\xb5'
p640
sS'af'
p641
S'\xe0\xa4\xa6\xe0\xa5\x87\xe0\xa4\xb5,n,m,sg,3,o,0_\xe0\xa4\x95\xe0\xa4\xbe,0'
p642
sS'chunkid'
p643
S'NP3'
p644
sS'creftype'
p645
S'Coreference-Identity:i2'
p646
sS'chunktype'
p647
S'head:NP3'
p648
sS'vpos'
p649
S'vib_RP_5'
p650
sS'cref'
p651
S'i3%0:t1'
p652
sS'drel'
p653
S'r6-k2:NP4'
p654
ssbsg26
I00
sg27
I00
sg28
Nsg29
Nsg30
I2
sg31
I2
sg32
Nsg33
Nsg34
S'NNP'
p655
sg36
g632
sg37
I00
sba(issf_api
Word
p656
(dp657
g6
I00
sg7
V\u091c\u0940
p658
sg9
(issf_api
FeatureSet
p659
(dp660
g12
(dp661
S'posn'
p662
S'100'
p663
sS'name'
p664
S'\xe0\xa4\x9c\xe0\xa5\x80'
p665
sS'af'
p666
S'\xe0\xa4\x9c\xe0\xa5\x80,avy,,,,,,'
p667
sS'drel'
p668
S'lwg__rp:NP3'
p669
sS'chunktype'
p670
S'child:NP3'
p671
sS'cref'
p672
S'i3%1:t1'
p673
ssbsg26
I00
sg27
I00
sg28
Nsg29
Nsg30
I2
sg31
I2
sg32
Nsg33
Nsg34
S'RP'
p674
sg36
g659
sg37
I00
sba(issf_api
Word
p675
(dp676
g6
I00
sg7
V\u0915\u0947
p677
sg9
(issf_api
FeatureSet
p678
(dp679
g12
(dp680
S'posn'
p681
S'110'
p682
sS'name'
p683
S'\xe0\xa4\x95\xe0\xa5\x87'
p684
sS'drel'
p685
S'lwg__psp:NP3'
p686
sS'chunktype'
p687
S'child:NP3'
p688
sS'af'
p689
S'\xe0\xa4\x95\xe0\xa4\xbe,psp,m,sg,3h,d,,'
p690
ssbsg26
I00
sg27
I00
sg28
Nsg29
Nsg30
I2
sg31
I2
sg32
Nsg33
Nsg34
S'PSP'
p691
sg36
g678
sg37
I00
sba(issf_api
Word
p692
(dp693
g6
I00
sg7
V\u0905\u0902\u0924\u093f\u092e
p694
sg9
(issf_api
FeatureSet
p695
(dp696
g12
(dp697
S'posn'
p698
S'120'
p699
sS'name'
p700
S'\xe0\xa4\x85\xe0\xa4\x82\xe0\xa4\xa4\xe0\xa4\xbf\xe0\xa4\xae'
p701
sS'drel'
p702
S'nmod__adj:NP4'
p703
sS'chunktype'
p704
S'child:NP4'
p705
sS'af'
p706
S'\xe0\xa4\x85\xe0\xa4\x82\xe0\xa4\xa4\xe0\xa4\xbf\xe0\xa4\xae,adj,any,any,,d,,'
p707
ssbsg26
I00
sg27
I00
sg28
Nsg29
Nsg30
I3
sg31
I2
sg32
Nsg33
Nsg34
S'JJ'
p708
sg36
g695
sg37
I00
sba(issf_api
Word
p709
(dp710
g6
I00
sg7
V\u0926\u0930\u094d\u0936\u0928
p711
sg9
(issf_api
FeatureSet
p712
(dp713
g12
(dp714
S'posn'
p715
S'130'
p716
sS'name'
p717
S'\xe0\xa4\xa6\xe0\xa4\xb0\xe0\xa5\x8d\xe0\xa4\xb6\xe0\xa4\xa8'
p718
sS'af'
p719
S'\xe0\xa4\xa6\xe0\xa4\xb0\xe0\xa5\x8d\xe0\xa4\xb6\xe0\xa4\xa8,n,m,sg,3,d,0,0'
p720
sS'chunkid'
p721
S'NP4'
p722
sS'drel'
p723
S'pof:VGF'
p724
sS'chunktype'
p725
S'head:NP4'
p726
ssbsg26
I00
sg27
I00
sg28
Nsg29
Nsg30
I3
sg31
I2
sg32
Nsg33
Nsg34
S'NN'
p727
sg36
g712
sg37
I00
sba(issf_api
Word
p728
(dp729
g6
I00
sg7
V\u0915\u093f\u090f
p730
sg9
(issf_api
FeatureSet
p731
(dp732
g12
(dp733
S'posn'
p734
S'140'
p735
sS'name'
p736
S'\xe0\xa4\x95\xe0\xa4\xbf\xe0\xa4\x8f'
p737
sS'af'
p738
S'\xe0\xa4\x95\xe0\xa4\xb0,v,m,sg,3h,,\xe0\xa4\xaf\xe0\xa4\xbe,yA'
p739
sS'chunkid'
p740
S'VGF'
p741
sS'stype'
p742
S'declarative'
p743
sS'drel'
p744
S'ccof:CCP'
p745
sS'voicetype'
p746
S'active'
p747
sS'chunktype'
p748
S'head:VGF'
p749
ssbsg26
I00
sg27
I00
sg28
Nsg29
Nsg30
I4
sg31
I2
sg32
Nsg33
Nsg34
S'VM'
p750
sg36
g731
sg37
I00
sba(issf_api
Word
p751
(dp752
g6
I00
sg7
V\u0914\u0930
p753
sg9
(issf_api
FeatureSet
p754
(dp755
g12
(dp756
S'posn'
p757
S'150'
p758
sS'chunkid'
p759
S'CCP'
p760
sS'name'
p761
S'\xe0\xa4\x94\xe0\xa4\xb0'
p762
sS'chunktype'
p763
S'head:CCP'
p764
sS'af'
p765
S'\xe0\xa4\x94\xe0\xa4\xb0,avy,,,,,,'
p766
ssbsg26
I00
sg27
I00
sg28
Nsg29
Nsg30
I5
sg31
I2
sg32
Nsg33
Nsg34
S'CC'
p767
sg36
g754
sg37
I00
sba(issf_api
Word
p768
(dp769
g6
I00
sg7
V11.50
p770
sg9
(issf_api
FeatureSet
p771
(dp772
g12
(dp773
S'posn'
p774
S'160'
p775
sS'name'
p776
S'11.50'
p777
sS'af'
p778
S'11.50,num,any,any,,o,0_\xe0\xa4\xaa\xe0\xa4\xb0,'
p779
sS'chunkid'
p780
S'NP5'
p781
sS'drel'
p782
S'k7:VGF2'
p783
sS'vpos'
p784
S'2'
p785
sS'chunktype'
p786
S'head:NP5'
p787
ssbsg26
I00
sg27
I00
sg28
Nsg29
Nsg30
I6
sg31
I2
sg32
Nsg33
Nsg34
S'QC'
p788
sg36
g771
sg37
I00
sba(issf_api
Word
p789
(dp790
g6
I00
sg7
V\u092a\u0930
p791
sg9
(issf_api
FeatureSet
p792
(dp793
g12
(dp794
S'posn'
p795
S'170'
p796
sS'name'
p797
S'\xe0\xa4\xaa\xe0\xa4\xb0'
p798
sS'drel'
p799
S'lwg__psp:NP5'
p800
sS'chunktype'
p801
S'child:NP5'
p802
sS'af'
p803
S'\xe0\xa4\xaa\xe0\xa4\xb0,psp,,,,,,'
p804
ssbsg26
I00
sg27
I00
sg28
Nsg29
Nsg30
I6
sg31
I2
sg32
Nsg33
Nsg34
S'PSP'
p805
sg36
g792
sg37
I00
sba(issf_api
Word
p806
(dp807
g6
I00
sg7
V\u0936\u0941\u0915\u094d\u0930\u0924\u093e\u0932
p808
sg9
(issf_api
FeatureSet
p809
(dp810
g12
(dp811
S'posn'
p812
S'180'
p813
sS'name'
p814
S'\xe0\xa4\xb6\xe0\xa5\x81\xe0\xa4\x95\xe0\xa5\x8d\xe0\xa4\xb0\xe0\xa4\xa4\xe0\xa4\xbe\xe0\xa4\xb2'
p815
sS'af'
p816
S'\xe0\xa4\xb6\xe0\xa5\x81\xe0\xa4\x95\xe0\xa5\x8d\xe0\xa4\xb0\xe0\xa4\xa4\xe0\xa4\xbe\xe0\xa4\xb2,n,m,sg,3,o,0_\xe0\xa4\xae\xe0\xa5\x87\xe0\xa4\x82,0'
p817
sS'chunkid'
p818
S'NP6'
p819
sS'drel'
p820
S'k7p:VGF2'
p821
sS'vpos'
p822
S'vib_2'
p823
sS'chunktype'
p824
S'head:NP6'
p825
ssbsg26
I00
sg27
I00
sg28
Nsg29
Nsg30
I7
sg31
I2
sg32
Nsg33
Nsg34
S'NNP'
p826
sg36
g809
sg37
I00
sba(issf_api
Word
p827
(dp828
g6
I00
sg7
V\u092e\u0947\u0902
p829
sg9
(issf_api
FeatureSet
p830
(dp831
g12
(dp832
S'posn'
p833
S'190'
p834
sS'name'
p835
S'\xe0\xa4\xae\xe0\xa5\x87\xe0\xa4\x82'
p836
sS'drel'
p837
S'lwg__psp:NP6'
p838
sS'chunktype'
p839
S'child:NP6'
p840
sS'af'
p841
S'\xe0\xa4\xae\xe0\xa5\x87\xe0\xa4\x82,psp,,,,,,'
p842
ssbsg26
I00
sg27
I00
sg28
Nsg29
Nsg30
I7
sg31
I2
sg32
Nsg33
Nsg34
S'PSP'
p843
sg36
g830
sg37
I00
sba(issf_api
Word
p844
(dp845
g6
I00
sg7
V\u0938\u094d\u0935\u093e\u092e\u0940
p846
sg9
(issf_api
FeatureSet
p847
(dp848
g12
(dp849
S'posn'
p850
S'200'
p851
sS'name'
p852
S'\xe0\xa4\xb8\xe0\xa5\x8d\xe0\xa4\xb5\xe0\xa4\xbe\xe0\xa4\xae\xe0\xa5\x802'
p853
sS'af'
p854
S'\xe0\xa4\xb8\xe0\xa5\x8d\xe0\xa4\xb5\xe0\xa4\xbe\xe0\xa4\xae\xe0\xa5\x80,n,m,sg,3,d,0,0'
p855
sS'drel'
p856
S'pof__cn:NP7'
p857
sS'chunktype'
p858
S'child:NP7'
p859
sS'cref'
p860
S'i4%0:t2'
p861
ssbsg26
I00
sg27
I00
sg28
Nsg29
Nsg30
I8
sg31
I2
sg32
Nsg33
Nsg34
S'NNC'
p862
sg36
g847
sg37
I00
sba(issf_api
Word
p863
(dp864
g6
I00
sg7
V\u0936\u0941\u0915\u0926\u0947\u0935
p865
sg9
(issf_api
FeatureSet
p866
(dp867
g12
(dp868
S'crefhead'
p869
S'\xe0\xa4\xb6\xe0\xa5\x81\xe0\xa4\x95\xe0\xa4\xa6\xe0\xa5\x87\xe0\xa4\xb5:i4'
p870
sS'posn'
p871
S'210'
p872
sS'name'
p873
S'\xe0\xa4\xb6\xe0\xa5\x81\xe0\xa4\x95\xe0\xa4\xa6\xe0\xa5\x87\xe0\xa4\xb5'
p874
sS'af'
p875
S'\xe0\xa4\xb6\xe0\xa5\x81\xe0\xa4\x95\xe0\xa4\xa6\xe0\xa5\x87\xe0\xa4\xb5,n,m,sg,3,o,0_\xe0\xa4\x95\xe0\xa4\xbe,0'
p876
sS'chunkid'
p877
S'NP7'
p878
sS'chunktype'
p879
S'head:NP7'
p880
sS'crefchainhead'
p881
S'i4:t2'
p882
sS'vpos'
p883
S'vib_RP_4'
p884
sS'cref'
p885
S'i4%0:t2'
p886
sS'drel'
p887
S'r6:NP8'
p888
ssbsg26
I00
sg27
I00
sg28
Nsg29
Nsg30
I8
sg31
I2
sg32
Nsg33
Nsg34
S'NNP'
p889
sg36
g866
sg37
I00
sba(issf_api
Word
p890
(dp891
g6
I00
sg7
V\u091c\u0940
p892
sg9
(issf_api
FeatureSet
p893
(dp894
g12
(dp895
S'posn'
p896
S'220'
p897
sS'name'
p898
S'\xe0\xa4\x9c\xe0\xa5\x802'
p899
sS'af'
p900
S'\xe0\xa4\x9c\xe0\xa5\x80,avy,,,,,,'
p901
sS'drel'
p902
S'lwg__rp:NP7'
p903
sS'chunktype'
p904
S'child:NP7'
p905
sS'cref'
p906
S'i4%1:t2'
p907
ssbsg26
I00
sg27
I00
sg28
Nsg29
Nsg30
I8
sg31
I2
sg32
Nsg33
Nsg34
S'RP'
p908
sg36
g893
sg37
I00
sba(issf_api
Word
p909
(dp910
g6
I00
sg7
V\u0915\u0947
p911
sg9
(issf_api
FeatureSet
p912
(dp913
g12
(dp914
S'posn'
p915
S'230'
p916
sS'name'
p917
S'\xe0\xa4\x95\xe0\xa5\x872'
p918
sS'drel'
p919
S'lwg__psp:NP7'
p920
sS'chunktype'
p921
S'child:NP7'
p922
sS'af'
p923
S'\xe0\xa4\x95\xe0\xa4\xbe,psp,m,sg,,o,,'
p924
ssbsg26
I00
sg27
I00
sg28
Nsg29
Nsg30
I8
sg31
I2
sg32
Nsg33
Nsg34
S'PSP'
p925
sg36
g912
sg37
I00
sba(issf_api
Word
p926
(dp927
g6
I00
sg7
V\u0906\u0936\u094d\u0930\u092e
p928
sg9
(issf_api
FeatureSet
p929
(dp930
g12
(dp931
S'posn'
p932
S'240'
p933
sS'name'
p934
S'\xe0\xa4\x86\xe0\xa4\xb6\xe0\xa5\x8d\xe0\xa4\xb0\xe0\xa4\xae'
p935
sS'af'
p936
S'\xe0\xa4\x86\xe0\xa4\xb6\xe0\xa5\x8d\xe0\xa4\xb0\xe0\xa4\xae,n,m,sg,3,o,0_\xe0\xa4\x95\xe0\xa5\x87_\xe0\xa4\xaa\xe0\xa5\x80\xe0\xa4\x9b\xe0\xa5\x87,0'
p937
sS'chunkid'
p938
S'NP8'
p939
sS'drel'
p940
S'k7p:VGF2'
p941
sS'vpos'
p942
S'vib_2_3'
p943
sS'chunktype'
p944
S'head:NP8'
p945
ssbsg26
I00
sg27
I00
sg28
Nsg29
Nsg30
I9
sg31
I2
sg32
Nsg33
Nsg34
S'NN'
p946
sg36
g929
sg37
I00
sba(issf_api
Word
p947
(dp948
g6
I00
sg7
V\u0915\u0947
p949
sg9
(issf_api
FeatureSet
p950
(dp951
g12
(dp952
S'posn'
p953
S'250'
p954
sS'name'
p955
S'\xe0\xa4\x95\xe0\xa5\x873'
p956
sS'drel'
p957
S'lwg__psp:NP8'
p958
sS'chunktype'
p959
S'child:NP8'
p960
sS'af'
p961
S'\xe0\xa4\x95\xe0\xa5\x87,psp,,,,,,'
p962
ssbsg26
I00
sg27
I00
sg28
Nsg29
Nsg30
I9
sg31
I2
sg32
Nsg33
Nsg34
S'PSP'
p963
sg36
g950
sg37
I00
sba(issf_api
Word
p964
(dp965
g6
I00
sg7
V\u092a\u0940\u091b\u0947
p966
sg9
(issf_api
FeatureSet
p967
(dp968
g12
(dp969
S'posn'
p970
S'260'
p971
sS'name'
p972
S'\xe0\xa4\xaa\xe0\xa5\x80\xe0\xa4\x9b\xe0\xa5\x87'
p973
sS'drel'
p974
S'lwg__psp:NP8'
p975
sS'chunktype'
p976
S'child:NP8'
p977
sS'af'
p978
S'\xe0\xa4\xaa\xe0\xa5\x80\xe0\xa4\x9b\xe0\xa5\x87,nst,m,sg,3,d,,'
p979
ssbsg26
I00
sg27
I00
sg28
Nsg29
Nsg30
I9
sg31
I2
sg32
Nsg33
Nsg34
S'NST'
p980
sg36
g967
sg37
I00
sba(issf_api
Word
p981
(dp982
g6
I00
sg7
V\u0926\u0941\u0930\u094d\u0917\u093e
p983
sg9
(issf_api
FeatureSet
p984
(dp985
g12
(dp986
S'posn'
p987
S'270'
p988
sS'name'
p989
S'\xe0\xa4\xa6\xe0\xa5\x81\xe0\xa4\xb0\xe0\xa5\x8d\xe0\xa4\x97\xe0\xa4\xbe'
p990
sS'drel'
p991
S'nmod__adj:NP9'
p992
sS'chunktype'
p993
S'child:NP9'
p994
sS'af'
p995
S'\xe0\xa4\xa6\xe0\xa5\x81\xe0\xa4\xb0\xe0\xa5\x8d\xe0\xa4\x97\xe0\xa4\xbe,n,f,sg,3,d,0,0'
p996
ssbsg26
I00
sg27
I00
sg28
Nsg29
Nsg30
I10
sg31
I2
sg32
Nsg33
Nsg34
S'NNP'
p997
sg36
g984
sg37
I00
sba(issf_api
Word
p998
(dp999
g6
I00
sg7
V\u092e\u0902\u0926\u093f\u0930
p1000
sg9
(issf_api
FeatureSet
p1001
(dp1002
g12
(dp1003
S'posn'
p1004
S'280'
p1005
sS'name'
p1006
S'\xe0\xa4\xae\xe0\xa4\x82\xe0\xa4\xa6\xe0\xa4\xbf\xe0\xa4\xb0'
p1007
sS'af'
p1008
S'\xe0\xa4\xae\xe0\xa4\x82\xe0\xa4\xa6\xe0\xa4\xbf\xe0\xa4\xb0,n,m,sg,3,o,0_\xe0\xa4\x95\xe0\xa5\x87_\xe0\xa4\xb8\xe0\xa4\xae\xe0\xa5\x80\xe0\xa4\xaa,0'
p1009
sS'chunkid'
p1010
S'NP9'
p1011
sS'drel'
p1012
S'k7p:VGF2'
p1013
sS'vpos'
p1014
S'vib_vib_3_4'
p1015
sS'chunktype'
p1016
S'head:NP9'
p1017
ssbsg26
I00
sg27
I00
sg28
Nsg29
Nsg30
I10
sg31
I2
sg32
Nsg33
Nsg34
S'NN'
p1018
sg36
g1001
sg37
I00
sba(issf_api
Word
p1019
(dp1020
g6
I00
sg7
V\u0915\u0947
p1021
sg9
(issf_api
FeatureSet
p1022
(dp1023
g12
(dp1024
S'posn'
p1025
S'290'
p1026
sS'name'
p1027
S'\xe0\xa4\x95\xe0\xa5\x874'
p1028
sS'drel'
p1029
S'lwg__psp:NP9'
p1030
sS'chunktype'
p1031
S'child:NP9'
p1032
sS'af'
p1033
S'\xe0\xa4\x95\xe0\xa5\x87,psp,,,,,,'
p1034
ssbsg26
I00
sg27
I00
sg28
Nsg29
Nsg30
I10
sg31
I2
sg32
Nsg33
Nsg34
S'PSP'
p1035
sg36
g1022
sg37
I00
sba(issf_api
Word
p1036
(dp1037
g6
I00
sg7
V\u0938\u092e\u0940\u092a
p1038
sg9
(issf_api
FeatureSet
p1039
(dp1040
g12
(dp1041
S'posn'
p1042
S'300'
p1043
sS'name'
p1044
S'\xe0\xa4\xb8\xe0\xa4\xae\xe0\xa5\x80\xe0\xa4\xaa'
p1045
sS'drel'
p1046
S'lwg__psp:NP9'
p1047
sS'chunktype'
p1048
S'child:NP9'
p1049
sS'af'
p1050
S'\xe0\xa4\xb8\xe0\xa4\xae\xe0\xa5\x80\xe0\xa4\xaa,nst,m,sg,3,d,,'
p1051
ssbsg26
I00
sg27
I00
sg28
Nsg29
Nsg30
I10
sg31
I2
sg32
Nsg33
Nsg34
S'NST'
p1052
sg36
g1039
sg37
I00
sba(issf_api
Word
p1053
(dp1054
g6
I00
sg7
V\u0909\u0928\u094d\u0939\u0947\u0902
p1055
sg9
(issf_api
FeatureSet
p1056
(dp1057
g12
(dp1058
S'crefhead'
p1059
S'\xe0\xa4\x89\xe0\xa4\xa8\xe0\xa5\x8d\xe0\xa4\xb9\xe0\xa5\x87\xe0\xa4\x82:i5'
p1060
sS'posn'
p1061
S'310'
p1062
sS'name'
p1063
S'\xe0\xa4\x89\xe0\xa4\xa8\xe0\xa5\x8d\xe0\xa4\xb9\xe0\xa5\x87\xe0\xa4\x82'
p1064
sS'af'
p1065
S'\xe0\xa4\xb5\xe0\xa4\xb9,pn,any,sg,3h,o,\xe0\xa4\x95\xe0\xa5\x8b,ko'
p1066
sS'chunkid'
p1067
S'NP10'
p1068
sS'creftype'
p1069
S'Anaphora-C:i3'
p1070
sS'chunktype'
p1071
S'head:NP10'
p1072
sS'cref'
p1073
S'i5%1:t1'
p1074
sS'drel'
p1075
S'k4:VGF2'
p1076
ssbsg26
I00
sg27
I00
sg28
Nsg29
Nsg30
I11
sg31
I2
sg32
Nsg33
Nsg34
S'PRP'
p1077
sg36
g1056
sg37
I00
sba(issf_api
Word
p1078
(dp1079
g6
I00
sg7
V\u0938\u092e\u093e\u0927\u093f
p1080
sg9
(issf_api
FeatureSet
p1081
(dp1082
g12
(dp1083
S'posn'
p1084
S'320'
p1085
sS'name'
p1086
S'\xe0\xa4\xb8\xe0\xa4\xae\xe0\xa4\xbe\xe0\xa4\xa7\xe0\xa4\xbf'
p1087
sS'af'
p1088
S'\xe0\xa4\xb8\xe0\xa4\xae\xe0\xa4\xbe\xe0\xa4\xa7\xe0\xa4\xbf,n,f,sg,3,d,0,0'
p1089
sS'chunkid'
p1090
S'NP11'
p1091
sS'drel'
p1092
S'pof:VGF2'
p1093
sS'chunktype'
p1094
S'head:NP11'
p1095
ssbsg26
I00
sg27
I00
sg28
Nsg29
Nsg30
I12
sg31
I2
sg32
Nsg33
Nsg34
S'NN'
p1096
sg36
g1081
sg37
I00
sba(issf_api
Word
p1097
(dp1098
g6
I00
sg7
V\u0926\u0940
p1099
sg9
(issf_api
FeatureSet
p1100
(dp1101
g12
(dp1102
S'posn'
p1103
S'330'
p1104
sS'name'
p1105
S'\xe0\xa4\xa6\xe0\xa5\x80'
p1106
sS'af'
p1107
S'\xe0\xa4\xa6\xe0\xa5\x87,v,f,sg,any,,\xe0\xa4\xaf\xe0\xa4\xbe_\xe0\xa4\x9c\xe0\xa4\xbe+\xe0\xa4\xaf\xe0\xa4\xbe1,yA'
p1108
sS'chunkid'
p1109
S'VGF2'
p1110
sS'stype'
p1111
S'declarative'
p1112
sS'drel'
p1113
S'ccof:CCP'
p1114
sS'voicetype'
p1115
S'passive'
p1116
sS'vpos'
p1117
S'tam_2'
p1118
sS'chunktype'
p1119
S'head:VGF2'
p1120
ssbsg26
I00
sg27
I00
sg28
Nsg29
Nsg30
I13
sg31
I2
sg32
Nsg33
Nsg34
S'VM'
p1121
sg36
g1100
sg37
I00
sba(issf_api
Word
p1122
(dp1123
g6
I00
sg7
V\u0917\u0908
p1124
sg9
(issf_api
FeatureSet
p1125
(dp1126
g12
(dp1127
S'posn'
p1128
S'340'
p1129
sS'name'
p1130
S'\xe0\xa4\x97\xe0\xa4\x88'
p1131
sS'drel'
p1132
S'lwg__vaux:VGF2'
p1133
sS'chunktype'
p1134
S'child:VGF2'
p1135
sS'af'
p1136
S'\xe0\xa4\x9c\xe0\xa4\xbe,v,f,sg,any,,\xe0\xa4\xaf\xe0\xa4\xbe1,yA1'
p1137
ssbsg26
I00
sg27
I00
sg28
Nsg29
Nsg30
I13
sg31
I2
sg32
Nsg33
Nsg34
S'VAUX'
p1138
sg36
g1125
sg37
I00
sba(issf_api
Word
p1139
(dp1140
g6
I00
sg7
V\u0964
p1141
sg9
(issf_api
FeatureSet
p1142
(dp1143
g12
(dp1144
S'posn'
p1145
S'350'
p1146
sS'name'
p1147
S'\xe0\xa5\xa4'
p1148
sS'af'
p1149
S'\xe0\xa5\xa4,punc,,,,,,'
p1150
sS'chunkid'
p1151
S'BLK'
p1152
sS'drel'
p1153
S'rsym:CCP'
p1154
sS'chunktype'
p1155
S'head:BLK'
p1156
ssbsg26
I00
sg27
I00
sg28
Nsg29
Nsg30
I14
sg31
I2
sg32
Nsg33
Nsg34
S'SYM'
p1157
sg36
g1142
sg37
I00
sba(issf_api
Word
p1158
(dp1159
g6
I00
sg7
V\u0915\u0932
p1160
sg9
(issf_api
FeatureSet
p1161
(dp1162
g12
(dp1163
S'posn'
p1164
S'10'
p1165
sS'name'
p1166
S'\xe0\xa4\x95\xe0\xa4\xb2'
p1167
sS'af'
p1168
S'\xe0\xa4\x95\xe0\xa4\xb2,n,m,sg,3,d,0,0'
p1169
sS'chunkid'
p1170
S'NP'
p1171
sS'drel'
p1172
S'k7t:VGF'
p1173
sS'chunktype'
p1174
S'head:NP'
p1175
ssbsg26
I00
sg27
I00
sg28
Nsg29
Nsg30
I0
sg31
I3
sg32
Nsg33
Nsg34
S'NN'
p1176
sg36
g1161
sg37
I00
sba(issf_api
Word
p1177
(dp1178
g6
I00
sg7
V129
p1179
sg9
(issf_api
FeatureSet
p1180
(dp1181
g12
(dp1182
S'posn'
p1183
S'20'
p1184
sS'name'
p1185
S'129'
p1186
sS'drel'
p1187
S'nmod__adj:NP2'
p1188
sS'chunktype'
p1189
S'child:NP2'
p1190
sS'af'
p1191
S'129,num,any,any,,any,,'
p1192
ssbsg26
I00
sg27
I00
sg28
Nsg29
Nsg30
I1
sg31
I3
sg32
Nsg33
Nsg34
S'QC'
p1193
sg36
g1180
sg37
I00
sba(issf_api
Word
p1194
(dp1195
g6
I00
sg7
V\u0935\u0930\u094d\u0937
p1196
sg9
(issf_api
FeatureSet
p1197
(dp1198
g12
(dp1199
S'posn'
p1200
S'30'
p1201
sS'name'
p1202
S'\xe0\xa4\xb5\xe0\xa4\xb0\xe0\xa5\x8d\xe0\xa4\xb7'
p1203
sS'af'
p1204
S'\xe0\xa4\xb5\xe0\xa4\xb0\xe0\xa5\x8d\xe0\xa4\xb7,n,m,sg,3,o,0_\xe0\xa4\x95\xe0\xa4\xbe,0'
p1205
sS'chunkid'
p1206
S'NP2'
p1207
sS'drel'
p1208
S'r6:NP3'
p1209
sS'vpos'
p1210
S'vib_3'
p1211
sS'chunktype'
p1212
S'head:NP2'
p1213
ssbsg26
I00
sg27
I00
sg28
Nsg29
Nsg30
I1
sg31
I3
sg32
Nsg33
Nsg34
S'NN'
p1214
sg36
g1197
sg37
I00
sba(issf_api
Word
p1215
(dp1216
g6
I00
sg7
V\u0915\u0940
p1217
sg9
(issf_api
FeatureSet
p1218
(dp1219
g12
(dp1220
S'posn'
p1221
S'40'
p1222
sS'name'
p1223
S'\xe0\xa4\x95\xe0\xa5\x80'
p1224
sS'drel'
p1225
S'lwg__psp:NP2'
p1226
sS'chunktype'
p1227
S'child:NP2'
p1228
sS'af'
p1229
S'\xe0\xa4\x95\xe0\xa4\xbe,psp,f,sg,,o,,'
p1230
ssbsg26
I00
sg27
I00
sg28
Nsg29
Nsg30
I1
sg31
I3
sg32
Nsg33
Nsg34
S'PSP'
p1231
sg36
g1218
sg37
I00
sba(issf_api
Word
p1232
(dp1233
g6
I00
sg7
V\u0906\u092f\u0941
p1234
sg9
(issf_api
FeatureSet
p1235
(dp1236
g12
(dp1237
S'posn'
p1238
S'50'
p1239
sS'name'
p1240
S'\xe0\xa4\x86\xe0\xa4\xaf\xe0\xa5\x81'
p1241
sS'af'
p1242
S'\xe0\xa4\x86\xe0\xa4\xaf\xe0\xa5\x81,n,f,sg,3,o,0_\xe0\xa4\xae\xe0\xa5\x87\xe0\xa4\x82,0'
p1243
sS'chunkid'
p1244
S'NP3'
p1245
sS'drel'
p1246
S'k7t:VGF'
p1247
sS'vpos'
p1248
S'vib_2'
p1249
sS'chunktype'
p1250
S'head:NP3'
p1251
ssbsg26
I00
sg27
I00
sg28
Nsg29
Nsg30
I2
sg31
I3
sg32
Nsg33
Nsg34
S'NN'
p1252
sg36
g1235
sg37
I00
sba(issf_api
Word
p1253
(dp1254
g6
I00
sg7
V\u092e\u0947\u0902
p1255
sg9
(issf_api
FeatureSet
p1256
(dp1257
g12
(dp1258
S'posn'
p1259
S'60'
p1260
sS'name'
p1261
S'\xe0\xa4\xae\xe0\xa5\x87\xe0\xa4\x82'
p1262
sS'drel'
p1263
S'lwg__psp:NP3'
p1264
sS'chunktype'
p1265
S'child:NP3'
p1266
sS'af'
p1267
S'\xe0\xa4\xae\xe0\xa5\x87\xe0\xa4\x82,psp,,,,,,'
p1268
ssbsg26
I00
sg27
I00
sg28
Nsg29
Nsg30
I2
sg31
I3
sg32
Nsg33
Nsg34
S'PSP'
p1269
sg36
g1256
sg37
I00
sba(issf_api
Word
p1270
(dp1271
g6
I00
sg7
V\u0938\u094d\u0935\u093e\u092e\u0940
p1272
sg9
(issf_api
FeatureSet
p1273
(dp1274
g12
(dp1275
S'crefhead'
p1276
S'\xe0\xa4\xb8\xe0\xa5\x8d\xe0\xa4\xb5\xe0\xa4\xbe\xe0\xa4\xae\xe0\xa5\x80:i6'
p1277
sS'posn'
p1278
S'70'
p1279
sS'name'
p1280
S'\xe0\xa4\xb8\xe0\xa5\x8d\xe0\xa4\xb5\xe0\xa4\xbe\xe0\xa4\xae\xe0\xa5\x80'
p1281
sS'af'
p1282
S'\xe0\xa4\xb8\xe0\xa5\x8d\xe0\xa4\xb5\xe0\xa4\xbe\xe0\xa4\xae\xe0\xa5\x80,n,m,sg,3,d,0,0'
p1283
sS'chunkid'
p1284
S'NP4'
p1285
sS'creftype'
p1286
S'Coreference-Noun-Noun:i5'
p1287
sS'chunktype'
p1288
S'head:NP4'
p1289
sS'cref'
p1290
S'i6%0:t1'
p1291
sS'drel'
p1292
S'k1:VGF'
p1293
ssbsg26
I00
sg27
I00
sg28
Nsg29
Nsg30
I3
sg31
I3
sg32
Nsg33
Nsg34
S'NN'
p1294
sg36
g1273
sg37
I00
sba(issf_api
Word
p1295
(dp1296
g6
I00
sg7
V\u091c\u0940
p1297
sg9
(issf_api
FeatureSet
p1298
(dp1299
g12
(dp1300
S'posn'
p1301
S'80'
p1302
sS'name'
p1303
S'\xe0\xa4\x9c\xe0\xa5\x80'
p1304
sS'af'
p1305
S'\xe0\xa4\x9c\xe0\xa5\x80,avy,,,,,,'
p1306
sS'drel'
p1307
S'lwg__rp:NP4'
p1308
sS'chunktype'
p1309
S'child:NP4'
p1310
sS'cref'
p1311
S'i6%1:t1'
p1312
ssbsg26
I00
sg27
I00
sg28
Nsg29
Nsg30
I3
sg31
I3
sg32
Nsg33
Nsg34
S'RP'
p1313
sg36
g1298
sg37
I00
sba(issf_api
Word
p1314
(dp1315
g6
I00
sg7
V\u092c\u094d\u0930\u0939\u094d\u092e\u0932\u0940\u0928
p1316
sg9
(issf_api
FeatureSet
p1317
(dp1318
g12
(dp1319
S'posn'
p1320
S'90'
p1321
sS'name'
p1322
S'\xe0\xa4\xac\xe0\xa5\x8d\xe0\xa4\xb0\xe0\xa4\xb9\xe0\xa5\x8d\xe0\xa4\xae\xe0\xa4\xb2\xe0\xa5\x80\xe0\xa4\xa8'
p1323
sS'af'
p1324
S'\xe0\xa4\xac\xe0\xa5\x8d\xe0\xa4\xb0\xe0\xa4\xb9\xe0\xa5\x8d\xe0\xa4\xae\xe0\xa4\xb2\xe0\xa5\x80\xe0\xa4\xa8,adj,any,any,,,,'
p1325
sS'chunkid'
p1326
S'JJP'
p1327
sS'drel'
p1328
S'pof:VGF'
p1329
sS'chunktype'
p1330
S'head:JJP'
p1331
ssbsg26
I00
sg27
I00
sg28
Nsg29
Nsg30
I4
sg31
I3
sg32
Nsg33
Nsg34
S'JJ'
p1332
sg36
g1317
sg37
I00
sba(issf_api
Word
p1333
(dp1334
g6
I00
sg7
V\u0939\u0941\u090f
p1335
sg9
(issf_api
FeatureSet
p1336
(dp1337
g12
(dp1338
S'posn'
p1339
S'100'
p1340
sS'name'
p1341
S'\xe0\xa4\xb9\xe0\xa5\x81\xe0\xa4\x8f'
p1342
sS'af'
p1343
S'\xe0\xa4\xb9\xe0\xa5\x8b,v,m,sg,3h,,\xe0\xa4\xaf\xe0\xa4\xbe_\xe0\xa4\xa5\xe0\xa4\xbe,yA'
p1344
sS'chunkid'
p1345
S'VGF'
p1346
sS'chunktype'
p1347
S'head:VGF'
p1348
sS'voicetype'
p1349
S'active'
p1350
sS'vpos'
p1351
S'tam_2'
p1352
sS'stype'
p1353
S'declarative'
p1354
ssbsg26
I00
sg27
I00
sg28
Nsg29
Nsg30
I5
sg31
I3
sg32
Nsg33
Nsg34
S'VM'
p1355
sg36
g1336
sg37
I00
sba(issf_api
Word
p1356
(dp1357
g6
I00
sg7
V\u0925\u0947
p1358
sg9
(issf_api
FeatureSet
p1359
(dp1360
g12
(dp1361
S'posn'
p1362
S'110'
p1363
sS'name'
p1364
S'\xe0\xa4\xa5\xe0\xa5\x87'
p1365
sS'drel'
p1366
S'lwg__vaux:VGF'
p1367
sS'chunktype'
p1368
S'child:VGF'
p1369
sS'af'
p1370
S'\xe0\xa4\xa5\xe0\xa4\xbe,v,m,sg,3h,,\xe0\xa4\xa5\xe0\xa4\xbe,WA'
p1371
ssbsg26
I00
sg27
I00
sg28
Nsg29
Nsg30
I5
sg31
I3
sg32
Nsg33
Nsg34
S'VAUX'
p1372
sg36
g1359
sg37
I00
sba(issf_api
Word
p1373
(dp1374
g6
I00
sg7
V\u0964
p1375
sg9
(issf_api
FeatureSet
p1376
(dp1377
g12
(dp1378
S'posn'
p1379
S'120'
p1380
sS'name'
p1381
S'\xe0\xa5\xa4'
p1382
sS'af'
p1383
S'\xe0\xa5\xa4,punc,,,,,,'
p1384
sS'chunkid'
p1385
S'BLK'
p1386
sS'drel'
p1387
S'rsym:VGF'
p1388
sS'chunktype'
p1389
S'head:BLK'
p1390
ssbsg26
I00
sg27
I00
sg28
Nsg29
Nsg30
I6
sg31
I3
sg32
Nsg33
Nsg34
S'SYM'
p1391
sg36
g1376
sg37
I00
sba(issf_api
Word
p1392
(dp1393
g6
I00
sg7
V\u0935\u093f\u0921\u0902\u092c\u0928\u093e
p1394
sg9
(issf_api
FeatureSet
p1395
(dp1396
g12
(dp1397
S'posn'
p1398
S'10'
p1399
sS'name'
p1400
S'\xe0\xa4\xb5\xe0\xa4\xbf\xe0\xa4\xa1\xe0\xa4\x82\xe0\xa4\xac\xe0\xa4\xa8\xe0\xa4\xbe'
p1401
sS'af'
p1402
S'\xe0\xa4\xb5\xe0\xa4\xbf\xe0\xa4\xa1\xe0\xa4\x82\xe0\xa4\xac\xe0\xa4\xa8\xe0\xa4\xbe,n,f,sg,3,d,0,0'
p1403
sS'chunkid'
p1404
S'NP'
p1405
sS'drel'
p1406
S'k1:VGF'
p1407
sS'chunktype'
p1408
S'head:NP'
p1409
ssbsg26
I00
sg27
I00
sg28
Nsg29
Nsg30
I0
sg31
I4
sg32
Nsg33
Nsg34
S'NN'
p1410
sg36
g1395
sg37
I00
sba(issf_api
Word
p1411
(dp1412
g6
I00
sg7
V\u0930\u0939\u0940
p1413
sg9
(issf_api
FeatureSet
p1414
(dp1415
g12
(dp1416
S'posn'
p1417
S'20'
p1418
sS'name'
p1419
S'\xe0\xa4\xb0\xe0\xa4\xb9\xe0\xa5\x80'
p1420
sS'af'
p1421
S'\xe0\xa4\xb0\xe0\xa4\xb9,v,f,sg,any,,\xe0\xa4\xaf\xe0\xa4\xbe,yA'
p1422
sS'chunkid'
p1423
S'VGF'
p1424
sS'chunktype'
p1425
S'head:VGF'
p1426
sS'voicetype'
p1427
S'active'
p1428
sS'stype'
p1429
S'declarative'
p1430
ssbsg26
I00
sg27
I00
sg28
Nsg29
Nsg30
I1
sg31
I4
sg32
Nsg33
Nsg34
S'VM'
p1431
sg36
g1414
sg37
I00
sba(issf_api
Word
p1432
(dp1433
g6
I00
sg7
V\u0915\u093f
p1434
sg9
(issf_api
FeatureSet
p1435
(dp1436
g12
(dp1437
S'posn'
p1438
S'30'
p1439
sS'name'
p1440
S'\xe0\xa4\x95\xe0\xa4\xbf'
p1441
sS'af'
p1442
S'\xe0\xa4\x95\xe0\xa4\xbf,avy,,,,,,'
p1443
sS'chunkid'
p1444
S'CCP'
p1445
sS'drel'
p1446
S'k2:VGF'
p1447
sS'chunktype'
p1448
S'head:CCP'
p1449
ssbsg26
I00
sg27
I00
sg28
Nsg29
Nsg30
I2
sg31
I4
sg32
Nsg33
Nsg34
S'CC'
p1450
sg36
g1435
sg37
I00
sba(issf_api
Word
p1451
(dp1452
g6
I00
sg7
V\u0936\u093f\u0915\u094d\u0937\u093e
p1453
sg9
(issf_api
FeatureSet
p1454
(dp1455
g12
(dp1456
S'posn'
p1457
S'40'
p1458
sS'name'
p1459
S'\xe0\xa4\xb6\xe0\xa4\xbf\xe0\xa4\x95\xe0\xa5\x8d\xe0\xa4\xb7\xe0\xa4\xbe'
p1460
sS'af'
p1461
S'\xe0\xa4\xb6\xe0\xa4\xbf\xe0\xa4\x95\xe0\xa5\x8d\xe0\xa4\xb7\xe0\xa4\xbe,n,f,sg,3,o,0,0'
p1462
sS'chunkid'
p1463
S'NP2'
p1464
sS'drel'
p1465
S'ccof:NULL__CCP'
p1466
sS'chunktype'
p1467
S'head:NP2'
p1468
ssbsg26
I00
sg27
I00
sg28
Nsg29
Nsg30
I3
sg31
I4
sg32
Nsg33
Nsg34
S'NN'
p1469
sg36
g1454
sg37
I00
sba(issf_api
Word
p1470
(dp1471
g6
I00
sg7
V,
p1472
sg9
(issf_api
FeatureSet
p1473
(dp1474
g12
(dp1475
S'posn'
p1476
S'50'
p1477
sS'name'
p1478
S','
p1479
sS'drel'
p1480
S'rsym:NP2'
p1481
sS'chunktype'
p1482
S'child:NP2'
p1483
sS'af'
p1484
S'COMMA,punc,,,,,,'
p1485
ssbsg26
I00
sg27
I00
sg28
Nsg29
Nsg30
I3
sg31
I4
sg32
Nsg33
Nsg34
S'SYM'
p1486
sg36
g1473
sg37
I00
sba(issf_api
Word
p1487
(dp1488
g6
I00
sg7
V\u0938\u094d\u0935\u0930\u093e\u091c
p1489
sg9
(issf_api
FeatureSet
p1490
(dp1491
g12
(dp1492
S'posn'
p1493
S'60'
p1494
sS'name'
p1495
S'\xe0\xa4\xb8\xe0\xa5\x8d\xe0\xa4\xb5\xe0\xa4\xb0\xe0\xa4\xbe\xe0\xa4\x9c'
p1496
sS'af'
p1497
S'\xe0\xa4\xb8\xe0\xa5\x8d\xe0\xa4\xb5\xe0\xa4\xb0\xe0\xa4\xbe\xe0\xa4\x9c,n,m,sg,3,o,0,0'
p1498
sS'chunkid'
p1499
S'NP3'
p1500
sS'drel'
p1501
S'ccof:NULL__CCP'
p1502
sS'chunktype'
p1503
S'head:NP3'
p1504
ssbsg26
I00
sg27
I00
sg28
Nsg29
Nsg30
I4
sg31
I4
sg32
Nsg33
Nsg34
S'NN'
p1505
sg36
g1490
sg37
I00
sba(issf_api
Word
p1506
(dp1507
g6
I00
sg7
V,
p1508
sg9
(issf_api
FeatureSet
p1509
(dp1510
g12
(dp1511
S'posn'
p1512
S'70'
p1513
sS'name'
p1514
S',2'
p1515
sS'drel'
p1516
S'rsym:NP3'
p1517
sS'chunktype'
p1518
S'child:NP3'
p1519
sS'af'
p1520
S'COMMA,punc,,,,,,'
p1521
ssbsg26
I00
sg27
I00
sg28
Nsg29
Nsg30
I4
sg31
I4
sg32
Nsg33
Nsg34
S'SYM'
p1522
sg36
g1509
sg37
I00
sba(issf_api
Word
p1523
(dp1524
g6
I00
sg7
V\u092a\u094d\u0930\u092e\u0941\u0916
p1525
sg9
(issf_api
FeatureSet
p1526
(dp1527
g12
(dp1528
S'posn'
p1529
S'80'
p1530
sS'name'
p1531
S'\xe0\xa4\xaa\xe0\xa5\x8d\xe0\xa4\xb0\xe0\xa4\xae\xe0\xa5\x81\xe0\xa4\x96'
p1532
sS'drel'
p1533
S'nmod__adj:NP4'
p1534
sS'chunktype'
p1535
S'child:NP4'
p1536
sS'af'
p1537
S'\xe0\xa4\xaa\xe0\xa5\x8d\xe0\xa4\xb0\xe0\xa4\xae\xe0\xa5\x81\xe0\xa4\x96,adj,any,any,,o,,'
p1538
ssbsg26
I00
sg27
I00
sg28
Nsg29
Nsg30
I5
sg31
I4
sg32
Nsg33
Nsg34
S'JJ'
p1539
sg36
g1526
sg37
I00
sba(issf_api
Word
p1540
(dp1541
g6
I00
sg7
V\u0938\u092e\u093e\u091c
p1542
sg9
(issf_api
FeatureSet
p1543
(dp1544
g12
(dp1545
S'posn'
p1546
S'90'
p1547
sS'name'
p1548
S'\xe0\xa4\xb8\xe0\xa4\xae\xe0\xa4\xbe\xe0\xa4\x9c'
p1549
sS'drel'
p1550
S'pof__cn:NP4'
p1551
sS'chunktype'
p1552
S'child:NP4'
p1553
sS'af'
p1554
S'\xe0\xa4\xb8\xe0\xa4\xae\xe0\xa4\xbe\xe0\xa4\x9c,n,m,sg,3,d,0,0'
p1555
ssbsg26
I00
sg27
I00
sg28
Nsg29
Nsg30
I5
sg31
I4
sg32
Nsg33
Nsg34
S'NNC'
p1556
sg36
g1543
sg37
I00
sba(issf_api
Word
p1557
(dp1558
g6
I00
sg7
V\u0938\u0947\u0935\u093e
p1559
sg9
(issf_api
FeatureSet
p1560
(dp1561
g12
(dp1562
S'posn'
p1563
S'100'
p1564
sS'name'
p1565
S'\xe0\xa4\xb8\xe0\xa5\x87\xe0\xa4\xb5\xe0\xa4\xbe'
p1566
sS'af'
p1567
S'\xe0\xa4\xb8\xe0\xa5\x87\xe0\xa4\xb5\xe0\xa4\xbe,n,f,sg,3,o,0_\xe0\xa4\x95\xe0\xa4\xbe,0'
p1568
sS'chunkid'
p1569
S'NP4'
p1570
sS'drel'
p1571
S'ccof:NULL__CCP'
p1572
sS'vpos'
p1573
S'vib_4'
p1574
sS'chunktype'
p1575
S'head:NP4'
p1576
ssbsg26
I00
sg27
I00
sg28
Nsg29
Nsg30
I5
sg31
I4
sg32
Nsg33
Nsg34
S'NN'
p1577
sg36
g1560
sg37
I00
sba(issf_api
Word
p1578
(dp1579
g6
I00
sg7
V\u0915\u0947
p1580
sg9
(issf_api
FeatureSet
p1581
(dp1582
g12
(dp1583
S'posn'
p1584
S'110'
p1585
sS'name'
p1586
S'\xe0\xa4\x95\xe0\xa5\x87'
p1587
sS'drel'
p1588
S'lwg__psp:NP4'
p1589
sS'chunktype'
p1590
S'child:NP4'
p1591
sS'af'
p1592
S'\xe0\xa4\x95\xe0\xa4\xbe,psp,m,sg,,o,,'
p1593
ssbsg26
I00
sg27
I00
sg28
Nsg29
Nsg30
I5
sg31
I4
sg32
Nsg33
Nsg34
S'PSP'
p1594
sg36
g1581
sg37
I00
sba(issf_api
Word
p1595
(dp1596
g6
I00
sg7
V\u0915\u094d\u0937\u0947\u0924\u094d\u0930
p1597
sg9
(issf_api
FeatureSet
p1598
(dp1599
g12
(dp1600
S'posn'
p1601
S'120'
p1602
sS'name'
p1603
S'\xe0\xa4\x95\xe0\xa5\x8d\xe0\xa4\xb7\xe0\xa5\x87\xe0\xa4\xa4\xe0\xa5\x8d\xe0\xa4\xb0'
p1604
sS'af'
p1605
S'\xe0\xa4\x95\xe0\xa5\x8d\xe0\xa4\xb7\xe0\xa5\x87\xe0\xa4\xa4\xe0\xa5\x8d\xe0\xa4\xb0,n,m,sg,3,o,0_\xe0\xa4\xae\xe0\xa5\x87\xe0\xa4\x82,0'
p1606
sS'chunkid'
p1607
S'NP5'
p1608
sS'drel'
p1609
S'k7:VGNN'
p1610
sS'vpos'
p1611
S'vib_2'
p1612
sS'chunktype'
p1613
S'head:NP5'
p1614
ssbsg26
I00
sg27
I00
sg28
Nsg29
Nsg30
I6
sg31
I4
sg32
Nsg33
Nsg34
S'NN'
p1615
sg36
g1598
sg37
I00
sba(issf_api
Word
p1616
(dp1617
g6
I00
sg7
V\u092e\u0947\u0902
p1618
sg9
(issf_api
FeatureSet
p1619
(dp1620
g12
(dp1621
S'posn'
p1622
S'130'
p1623
sS'name'
p1624
S'\xe0\xa4\xae\xe0\xa5\x87\xe0\xa4\x82'
p1625
sS'drel'
p1626
S'lwg__psp:NP5'
p1627
sS'chunktype'
p1628
S'child:NP5'
p1629
sS'af'
p1630
S'\xe0\xa4\xae\xe0\xa5\x87\xe0\xa4\x82,psp,,,,,,'
p1631
ssbsg26
I00
sg27
I00
sg28
Nsg29
Nsg30
I6
sg31
I4
sg32
Nsg33
Nsg34
S'PSP'
p1632
sg36
g1619
sg37
I00
sba(issf_api
Word
p1633
(dp1634
g6
I00
sg7
V\u0915\u0930\u094d\u092e\u092f\u094b\u0917\u0940
p1635
sg9
(issf_api
FeatureSet
p1636
(dp1637
g12
(dp1638
S'posn'
p1639
S'140'
p1640
sS'name'
p1641
S'\xe0\xa4\x95\xe0\xa4\xb0\xe0\xa5\x8d\xe0\xa4\xae\xe0\xa4\xaf\xe0\xa5\x8b\xe0\xa4\x97\xe0\xa5\x80'
p1642
sS'af'
p1643
S'\xe0\xa4\x95\xe0\xa4\xb0\xe0\xa5\x8d\xe0\xa4\xae\xe0\xa4\xaf\xe0\xa5\x8b\xe0\xa4\x97\xe0\xa5\x80,n,m,sg,3,d,0,0'
p1644
sS'chunkid'
p1645
S'NP6'
p1646
sS'drel'
p1647
S'k2:VGNN'
p1648
sS'chunktype'
p1649
S'head:NP6'
p1650
ssbsg26
I00
sg27
I00
sg28
Nsg29
Nsg30
I7
sg31
I4
sg32
Nsg33
Nsg34
S'NN'
p1651
sg36
g1636
sg37
I00
sba(issf_api
Word
p1652
(dp1653
g6
I00
sg7
V\u0915\u0939\u0947
p1654
sg9
(issf_api
FeatureSet
p1655
(dp1656
g12
(dp1657
S'posn'
p1658
S'150'
p1659
sS'name'
p1660
S'\xe0\xa4\x95\xe0\xa4\xb9\xe0\xa5\x87'
p1661
sS'af'
p1662
S'\xe0\xa4\x95\xe0\xa4\xb9,v,any,sg,3h,,\xe0\xa4\xaf\xe0\xa4\xbe_\xe0\xa4\x9c\xe0\xa4\xbe+\xe0\xa4\xa8\xe0\xa4\xbe_\xe0\xa4\xb5\xe0\xa4\xbe\xe0\xa4\xb2\xe0\xa4\xbe,yA'
p1663
sS'chunkid'
p1664
S'VGNN'
p1665
sS'drel'
p1666
S'nmod:NP7'
p1667
sS'vpos'
p1668
S'tam_2_3'
p1669
sS'chunktype'
p1670
S'head:VGNN'
p1671
ssbsg26
I00
sg27
I00
sg28
Nsg29
Nsg30
I8
sg31
I4
sg32
Nsg33
Nsg34
S'VM'
p1672
sg36
g1655
sg37
I00
sba(issf_api
Word
p1673
(dp1674
g6
I00
sg7
V\u091c\u093e\u0928\u0947
p1675
sg9
(issf_api
FeatureSet
p1676
(dp1677
g12
(dp1678
S'posn'
p1679
S'160'
p1680
sS'name'
p1681
S'\xe0\xa4\x9c\xe0\xa4\xbe\xe0\xa4\xa8\xe0\xa5\x87'
p1682
sS'drel'
p1683
S'lwg__vaux:VGNN'
p1684
sS'chunktype'
p1685
S'child:VGNN'
p1686
sS'af'
p1687
S'\xe0\xa4\x9c\xe0\xa4\xbe,v,any,any,any,o,\xe0\xa4\xa8\xe0\xa4\xbe,nA'
p1688
ssbsg26
I00
sg27
I00
sg28
Nsg29
Nsg30
I8
sg31
I4
sg32
Nsg33
Nsg34
S'VAUX'
p1689
sg36
g1676
sg37
I00
sba(issf_api
Word
p1690
(dp1691
g6
I00
sg7
V\u0935\u093e\u0932\u0947
p1692
sg9
(issf_api
FeatureSet
p1693
(dp1694
g12
(dp1695
S'posn'
p1696
S'170'
p1697
sS'name'
p1698
S'\xe0\xa4\xb5\xe0\xa4\xbe\xe0\xa4\xb2\xe0\xa5\x87'
p1699
sS'drel'
p1700
S'lwg__psp:VGNN'
p1701
sS'chunktype'
p1702
S'child:VGNN'
p1703
sS'af'
p1704
S'\xe0\xa4\xb5\xe0\xa4\xbe\xe0\xa4\xb2\xe0\xa4\xbe,psp,m,sg,,o,,'
p1705
ssbsg26
I00
sg27
I00
sg28
Nsg29
Nsg30
I8
sg31
I4
sg32
Nsg33
Nsg34
S'PSP'
p1706
sg36
g1693
sg37
I00
sba(issf_api
Word
p1707
(dp1708
g6
I00
sg7
V\u0938\u094d\u0935\u093e\u092e\u0940
p1709
sg9
(issf_api
FeatureSet
p1710
(dp1711
g12
(dp1712
S'crefhead'
p1713
S'\xe0\xa4\xb8\xe0\xa5\x8d\xe0\xa4\xb5\xe0\xa4\xbe\xe0\xa4\xae\xe0\xa5\x80:i7'
p1714
sS'posn'
p1715
S'180'
p1716
sS'name'
p1717
S'\xe0\xa4\xb8\xe0\xa5\x8d\xe0\xa4\xb5\xe0\xa4\xbe\xe0\xa4\xae\xe0\xa5\x80'
p1718
sS'af'
p1719
S'\xe0\xa4\xb8\xe0\xa5\x8d\xe0\xa4\xb5\xe0\xa4\xbe\xe0\xa4\xae\xe0\xa5\x80,n,m,sg,3,o,0_\xe0\xa4\x95\xe0\xa4\xbe,0'
p1720
sS'chunkid'
p1721
S'NP7'
p1722
sS'creftype'
p1723
S'Coreference-Identity:i6'
p1724
sS'chunktype'
p1725
S'head:NP7'
p1726
sS'vpos'
p1727
S'vib_RP_3'
p1728
sS'cref'
p1729
S'i7%0:t1'
p1730
sS'drel'
p1731
S'r6:NP8'
p1732
ssbsg26
I00
sg27
I00
sg28
Nsg29
Nsg30
I9
sg31
I4
sg32
Nsg33
Nsg34
S'NN'
p1733
sg36
g1710
sg37
I00
sba(issf_api
Word
p1734
(dp1735
g6
I00
sg7
V\u091c\u0940
p1736
sg9
(issf_api
FeatureSet
p1737
(dp1738
g12
(dp1739
S'posn'
p1740
S'190'
p1741
sS'name'
p1742
S'\xe0\xa4\x9c\xe0\xa5\x80'
p1743
sS'af'
p1744
S'\xe0\xa4\x9c\xe0\xa5\x80,avy,,,,,,'
p1745
sS'drel'
p1746
S'lwg__rp:NP7'
p1747
sS'chunktype'
p1748
S'child:NP7'
p1749
sS'cref'
p1750
S'i7%1:t1'
p1751
ssbsg26
I00
sg27
I00
sg28
Nsg29
Nsg30
I9
sg31
I4
sg32
Nsg33
Nsg34
S'RP'
p1752
sg36
g1737
sg37
I00
sba(issf_api
Word
p1753
(dp1754
g6
I00
sg7
V\u0915\u0940
p1755
sg9
(issf_api
FeatureSet
p1756
(dp1757
g12
(dp1758
S'posn'
p1759
S'200'
p1760
sS'name'
p1761
S'\xe0\xa4\x95\xe0\xa5\x80'
p1762
sS'drel'
p1763
S'lwg__psp:NP7'
p1764
sS'chunktype'
p1765
S'child:NP7'
p1766
sS'af'
p1767
S'\xe0\xa4\x95\xe0\xa4\xbe,psp,f,sg,,o,,'
p1768
ssbsg26
I00
sg27
I00
sg28
Nsg29
Nsg30
I9
sg31
I4
sg32
Nsg33
Nsg34
S'PSP'
p1769
sg36
g1756
sg37
I00
sba(issf_api
Word
p1770
(dp1771
g6
I00
sg7
V\u0905\u0902\u0924\u093f\u092e
p1772
sg9
(issf_api
FeatureSet
p1773
(dp1774
g12
(dp1775
S'posn'
p1776
S'210'
p1777
sS'name'
p1778
S'\xe0\xa4\x85\xe0\xa4\x82\xe0\xa4\xa4\xe0\xa4\xbf\xe0\xa4\xae'
p1779
sS'drel'
p1780
S'nmod__adj:NP8'
p1781
sS'chunktype'
p1782
S'child:NP8'
p1783
sS'af'
p1784
S'\xe0\xa4\x85\xe0\xa4\x82\xe0\xa4\xa4\xe0\xa4\xbf\xe0\xa4\xae,adj,any,any,,o,,'
p1785
ssbsg26
I00
sg27
I00
sg28
Nsg29
Nsg30
I10
sg31
I4
sg32
Nsg33
Nsg34
S'JJ'
p1786
sg36
g1773
sg37
I00
sba(issf_api
Word
p1787
(dp1788
g6
I00
sg7
V\u0915\u094d\u0930\u093f\u092f\u093e
p1789
sg9
(issf_api
FeatureSet
p1790
(dp1791
g12
(dp1792
S'posn'
p1793
S'220'
p1794
sS'name'
p1795
S'\xe0\xa4\x95\xe0\xa5\x8d\xe0\xa4\xb0\xe0\xa4\xbf\xe0\xa4\xaf\xe0\xa4\xbe'
p1796
sS'af'
p1797
S'\xe0\xa4\x95\xe0\xa5\x8d\xe0\xa4\xb0\xe0\xa4\xbf\xe0\xa4\xaf\xe0\xa4\xbe,n,f,sg,3,o,0_\xe0\xa4\xae\xe0\xa5\x87\xe0\xa4\x82,0'
p1798
sS'chunkid'
p1799
S'NP8'
p1800
sS'drel'
p1801
S'k7:VGF2'
p1802
sS'vpos'
p1803
S'vib_3'
p1804
sS'chunktype'
p1805
S'head:NP8'
p1806
ssbsg26
I00
sg27
I00
sg28
Nsg29
Nsg30
I10
sg31
I4
sg32
Nsg33
Nsg34
S'NN'
p1807
sg36
g1790
sg37
I00
sba(issf_api
Word
p1808
(dp1809
g6
I00
sg7
V\u092e\u0947\u0902
p1810
sg9
(issf_api
FeatureSet
p1811
(dp1812
g12
(dp1813
S'posn'
p1814
S'230'
p1815
sS'name'
p1816
S'\xe0\xa4\xae\xe0\xa5\x87\xe0\xa4\x822'
p1817
sS'drel'
p1818
S'lwg__psp:NP8'
p1819
sS'chunktype'
p1820
S'child:NP8'
p1821
sS'af'
p1822
S'\xe0\xa4\xae\xe0\xa5\x87\xe0\xa4\x82,psp,,,,,,'
p1823
ssbsg26
I00
sg27
I00
sg28
Nsg29
Nsg30
I10
sg31
I4
sg32
Nsg33
Nsg34
S'PSP'
p1824
sg36
g1811
sg37
I00
sba(issf_api
Word
p1825
(dp1826
g6
I00
sg7
V\u092d\u093e\u0917
p1827
sg9
(issf_api
FeatureSet
p1828
(dp1829
g12
(dp1830
S'posn'
p1831
S'240'
p1832
sS'name'
p1833
S'\xe0\xa4\xad\xe0\xa4\xbe\xe0\xa4\x97'
p1834
sS'af'
p1835
S'\xe0\xa4\xad\xe0\xa4\xbe\xe0\xa4\x97,n,m,sg,3,d,0,0'
p1836
sS'chunkid'
p1837
S'NP9'
p1838
sS'drel'
p1839
S'pof:VGNN2'
p1840
sS'chunktype'
p1841
S'head:NP9'
p1842
ssbsg26
I00
sg27
I00
sg28
Nsg29
Nsg30
I11
sg31
I4
sg32
Nsg33
Nsg34
S'NN'
p1843
sg36
g1828
sg37
I00
sba(issf_api
Word
p1844
(dp1845
g6
I00
sg7
V\u0932\u0947\u0928\u0947
p1846
sg9
(issf_api
FeatureSet
p1847
(dp1848
g12
(dp1849
S'posn'
p1850
S'250'
p1851
sS'name'
p1852
S'\xe0\xa4\xb2\xe0\xa5\x87\xe0\xa4\xa8\xe0\xa5\x87'
p1853
sS'af'
p1854
S'\xe0\xa4\xb2\xe0\xa5\x87,v,any,any,any,o,\xe0\xa4\xa8\xe0\xa4\xbe_\xe0\xa4\x95\xe0\xa5\x87_\xe0\xa4\xb2\xe0\xa4\xbf\xe0\xa4\x8f,nA'
p1855
sS'chunkid'
p1856
S'VGNN2'
p1857
sS'drel'
p1858
S'rt:VGF2'
p1859
sS'vpos'
p1860
S'tam_2_3'
p1861
sS'chunktype'
p1862
S'head:VGNN2'
p1863
ssbsg26
I00
sg27
I00
sg28
Nsg29
Nsg30
I12
sg31
I4
sg32
Nsg33
Nsg34
S'VM'
p1864
sg36
g1847
sg37
I00
sba(issf_api
Word
p1865
(dp1866
g6
I00
sg7
V\u0915\u0947
p1867
sg9
(issf_api
FeatureSet
p1868
(dp1869
g12
(dp1870
S'posn'
p1871
S'260'
p1872
sS'name'
p1873
S'\xe0\xa4\x95\xe0\xa5\x872'
p1874
sS'drel'
p1875
S'lwg__psp:VGNN2'
p1876
sS'chunktype'
p1877
S'child:VGNN2'
p1878
sS'af'
p1879
S'\xe0\xa4\x95\xe0\xa5\x87,psp,,,,,,'
p1880
ssbsg26
I00
sg27
I00
sg28
Nsg29
Nsg30
I12
sg31
I4
sg32
Nsg33
Nsg34
S'PSP'
p1881
sg36
g1868
sg37
I00
sba(issf_api
Word
p1882
(dp1883
g6
I00
sg7
V\u0932\u093f\u090f
p1884
sg9
(issf_api
FeatureSet
p1885
(dp1886
g12
(dp1887
S'posn'
p1888
S'270'
p1889
sS'name'
p1890
S'\xe0\xa4\xb2\xe0\xa4\xbf\xe0\xa4\x8f'
p1891
sS'drel'
p1892
S'lwg__psp:VGNN2'
p1893
sS'chunktype'
p1894
S'child:VGNN2'
p1895
sS'af'
p1896
S'\xe0\xa4\xb2\xe0\xa4\xbf\xe0\xa4\x8f,psp,,,,,,'
p1897
ssbsg26
I00
sg27
I00
sg28
Nsg29
Nsg30
I12
sg31
I4
sg32
Nsg33
Nsg34
S'PSP'
p1898
sg36
g1885
sg37
I00
sba(issf_api
Word
p1899
(dp1900
g6
I00
sg7
V\u0915\u0947\u0902\u0926\u094d\u0930
p1901
sg9
(issf_api
FeatureSet
p1902
(dp1903
g12
(dp1904
S'posn'
p1905
S'280'
p1906
sS'name'
p1907
S'\xe0\xa4\x95\xe0\xa5\x87\xe0\xa4\x82\xe0\xa4\xa6\xe0\xa5\x8d\xe0\xa4\xb0'
p1908
sS'af'
p1909
S'\xe0\xa4\x95\xe0\xa5\x87\xe0\xa4\x82\xe0\xa4\xa6\xe0\xa5\x8d\xe0\xa4\xb0,n,m,sg,3,d,0,0'
p1910
sS'chunkid'
p1911
S'NP10'
p1912
sS'drel'
p1913
S'ccof:CCP2'
p1914
sS'chunktype'
p1915
S'head:NP10'
p1916
ssbsg26
I00
sg27
I00
sg28
Nsg29
Nsg30
I13
sg31
I4
sg32
Nsg33
Nsg34
S'NNP'
p1917
sg36
g1902
sg37
I00
sba(issf_api
Word
p1918
(dp1919
g6
I00
sg7
V\u0914\u0930
p1920
sg9
(issf_api
FeatureSet
p1921
(dp1922
g12
(dp1923
S'posn'
p1924
S'290'
p1925
sS'name'
p1926
S'\xe0\xa4\x94\xe0\xa4\xb0'
p1927
sS'af'
p1928
S'\xe0\xa4\x94\xe0\xa4\xb0,avy,,,,,,'
p1929
sS'chunkid'
p1930
S'CCP2'
p1931
sS'drel'
p1932
S'rd:VGF2'
p1933
sS'chunktype'
p1934
S'head:CCP2'
p1935
ssbsg26
I00
sg27
I00
sg28
Nsg29
Nsg30
I14
sg31
I4
sg32
Nsg33
Nsg34
S'CC'
p1936
sg36
g1921
sg37
I00
sba(issf_api
Word
p1937
(dp1938
g6
I00
sg7
V\u0930\u093e\u091c\u094d\u092f
p1939
sg9
(issf_api
FeatureSet
p1940
(dp1941
g12
(dp1942
S'posn'
p1943
S'300'
p1944
sS'name'
p1945
S'\xe0\xa4\xb0\xe0\xa4\xbe\xe0\xa4\x9c\xe0\xa5\x8d\xe0\xa4\xaf'
p1946
sS'drel'
p1947
S'pof__cn:NP11'
p1948
sS'chunktype'
p1949
S'child:NP11'
p1950
sS'af'
p1951
S'\xe0\xa4\xb0\xe0\xa4\xbe\xe0\xa4\x9c\xe0\xa5\x8d\xe0\xa4\xaf,n,m,sg,3,d,0,0'
p1952
ssbsg26
I00
sg27
I00
sg28
Nsg29
Nsg30
I15
sg31
I4
sg32
Nsg33
Nsg34
S'NNC'
p1953
sg36
g1940
sg37
I00
sba(issf_api
Word
p1954
(dp1955
g6
I00
sg7
V\u0938\u0930\u0915\u093e\u0930
p1956
sg9
(issf_api
FeatureSet
p1957
(dp1958
g12
(dp1959
S'posn'
p1960
S'310'
p1961
sS'name'
p1962
S'\xe0\xa4\xb8\xe0\xa4\xb0\xe0\xa4\x95\xe0\xa4\xbe\xe0\xa4\xb0'
p1963
sS'af'
p1964
S'\xe0\xa4\xb8\xe0\xa4\xb0\xe0\xa4\x95\xe0\xa4\xbe\xe0\xa4\xb0,n,f,sg,3,o,0_\xe0\xa4\x95\xe0\xa4\xbe_\xe0\xa4\xa4\xe0\xa4\xb0\xe0\xa4\xab_\xe0\xa4\xb8\xe0\xa5\x87,0'
p1965
sS'chunkid'
p1966
S'NP11'
p1967
sS'drel'
p1968
S'ccof:CCP2'
p1969
sS'vpos'
p1970
S'vib_3_4_5'
p1971
sS'chunktype'
p1972
S'head:NP11'
p1973
ssbsg26
I00
sg27
I00
sg28
Nsg29
Nsg30
I15
sg31
I4
sg32
Nsg33
Nsg34
S'NN'
p1974
sg36
g1957
sg37
I00
sba(issf_api
Word
p1975
(dp1976
g6
I00
sg7
V\u0915\u0940
p1977
sg9
(issf_api
FeatureSet
p1978
(dp1979
g12
(dp1980
S'posn'
p1981
S'320'
p1982
sS'name'
p1983
S'\xe0\xa4\x95\xe0\xa5\x802'
p1984
sS'drel'
p1985
S'lwg__psp:NP11'
p1986
sS'chunktype'
p1987
S'child:NP11'
p1988
sS'af'
p1989
S'\xe0\xa4\x95\xe0\xa4\xbe,psp,f,sg,,o,,'
p1990
ssbsg26
I00
sg27
I00
sg28
Nsg29
Nsg30
I15
sg31
I4
sg32
Nsg33
Nsg34
S'PSP'
p1991
sg36
g1978
sg37
I00
sba(issf_api
Word
p1992
(dp1993
g6
I00
sg7
V\u0924\u0930\u092b
p1994
sg9
(issf_api
FeatureSet
p1995
(dp1996
g12
(dp1997
S'posn'
p1998
S'330'
p1999
sS'name'
p2000
S'\xe0\xa4\xa4\xe0\xa4\xb0\xe0\xa4\xab'
p2001
sS'drel'
p2002
S'lwg__psp:NP11'
p2003
sS'chunktype'
p2004
S'child:NP11'
p2005
sS'af'
p2006
S'\xe0\xa4\xa4\xe0\xa4\xb0\xe0\xa4\xab,nst,f,sg,3,o,,'
p2007
ssbsg26
I00
sg27
I00
sg28
Nsg29
Nsg30
I15
sg31
I4
sg32
Nsg33
Nsg34
S'NST'
p2008
sg36
g1995
sg37
I00
sba(issf_api
Word
p2009
(dp2010
g6
I00
sg7
V\u0938\u0947
p2011
sg9
(issf_api
FeatureSet
p2012
(dp2013
g12
(dp2014
S'posn'
p2015
S'340'
p2016
sS'name'
p2017
S'\xe0\xa4\xb8\xe0\xa5\x87'
p2018
sS'drel'
p2019
S'lwg__psp:NP11'
p2020
sS'chunktype'
p2021
S'child:NP11'
p2022
sS'af'
p2023
S'\xe0\xa4\xb8\xe0\xa5\x87,psp,,,,,,'
p2024
ssbsg26
I00
sg27
I00
sg28
Nsg29
Nsg30
I15
sg31
I4
sg32
Nsg33
Nsg34
S'PSP'
p2025
sg36
g2012
sg37
I00
sba(issf_api
Word
p2026
(dp2027
g6
I00
sg7
V\u0915\u094b\u0908
p2028
sg9
(issf_api
FeatureSet
p2029
(dp2030
g12
(dp2031
S'crefhead'
p2032
S'\xe0\xa4\x95\xe0\xa5\x8b\xe0\xa4\x88:i8'
p2033
sS'posn'
p2034
S'350'
p2035
sS'name'
p2036
S'\xe0\xa4\x95\xe0\xa5\x8b\xe0\xa4\x88'
p2037
sS'af'
p2038
S'\xe0\xa4\x95\xe0\xa5\x8b\xe0\xa4\x88,pn,any,sg,3,d,0,0'
p2039
sS'drel'
p2040
S'nmod__adj:NP12'
p2041
sS'crefchainhead'
p2042
S'i8:t3'
p2043
sS'chunktype'
p2044
S'child:NP12'
p2045
sS'cref'
p2046
S'i8%1:t3'
p2047
ssbsg26
I00
sg27
I00
sg28
Nsg29
Nsg30
I16
sg31
I4
sg32
Nsg33
Nsg34
S'PRP'
p2048
sg36
g2029
sg37
I00
sba(issf_api
Word
p2049
(dp2050
g6
I00
sg7
V\u092a\u094d\u0930\u0924\u093f\u0928\u093f\u0927\u093f
p2051
sg9
(issf_api
FeatureSet
p2052
(dp2053
g12
(dp2054
S'posn'
p2055
S'360'
p2056
sS'name'
p2057
S'\xe0\xa4\xaa\xe0\xa5\x8d\xe0\xa4\xb0\xe0\xa4\xa4\xe0\xa4\xbf\xe0\xa4\xa8\xe0\xa4\xbf\xe0\xa4\xa7\xe0\xa4\xbf'
p2058
sS'af'
p2059
S'\xe0\xa4\xaa\xe0\xa5\x8d\xe0\xa4\xb0\xe0\xa4\xa4\xe0\xa4\xbf\xe0\xa4\xa8\xe0\xa4\xbf\xe0\xa4\xa7\xe0\xa4\xbf,n,m,sg,3,d,0,0'
p2060
sS'chunkid'
p2061
S'NP12'
p2062
sS'drel'
p2063
S'k1:VGF2'
p2064
sS'chunktype'
p2065
S'head:NP12'
p2066
ssbsg26
I00
sg27
I00
sg28
Nsg29
Nsg30
I16
sg31
I4
sg32
Nsg33
Nsg34
S'NN'
p2067
sg36
g2052
sg37
I00
sba(issf_api
Word
p2068
(dp2069
g6
I00
sg7
V\u092e\u094c\u091c\u0942\u0926
p2070
sg9
(issf_api
FeatureSet
p2071
(dp2072
g12
(dp2073
S'posn'
p2074
S'370'
p2075
sS'name'
p2076
S'\xe0\xa4\xae\xe0\xa5\x8c\xe0\xa4\x9c\xe0\xa5\x82\xe0\xa4\xa6'
p2077
sS'af'
p2078
S'\xe0\xa4\xae\xe0\xa5\x8c\xe0\xa4\x9c\xe0\xa5\x82\xe0\xa4\xa6,adj,any,any,,,,'
p2079
sS'chunkid'
p2080
S'JJP'
p2081
sS'drel'
p2082
S'k1s:VGF2'
p2083
sS'chunktype'
p2084
S'head:JJP'
p2085
ssbsg26
I00
sg27
I00
sg28
Nsg29
Nsg30
I17
sg31
I4
sg32
Nsg33
Nsg34
S'JJ'
p2086
sg36
g2071
sg37
I00
sba(issf_api
Word
p2087
(dp2088
g6
I00
sg7
V\u0928\u0939\u0940\u0902
p2089
sg9
(issf_api
FeatureSet
p2090
(dp2091
g12
(dp2092
S'posn'
p2093
S'380'
p2094
sS'name'
p2095
S'\xe0\xa4\xa8\xe0\xa4\xb9\xe0\xa5\x80\xe0\xa4\x82'
p2096
sS'drel'
p2097
S'lwg__neg:VGF2'
p2098
sS'chunktype'
p2099
S'child:VGF2'
p2100
sS'af'
p2101
S'\xe0\xa4\xa8\xe0\xa4\xb9\xe0\xa5\x80\xe0\xa4\x82,avy,,,,,,'
p2102
ssbsg26
I00
sg27
I00
sg28
Nsg29
Nsg30
I18
sg31
I4
sg32
Nsg33
Nsg34
S'NEG'
p2103
sg36
g2090
sg37
I00
sba(issf_api
Word
p2104
(dp2105
g6
I00
sg7
V\u0925\u093e
p2106
sg9
(issf_api
FeatureSet
p2107
(dp2108
g12
(dp2109
S'posn'
p2110
S'390'
p2111
sS'name'
p2112
S'\xe0\xa4\xa5\xe0\xa4\xbe'
p2113
sS'af'
p2114
S'\xe0\xa4\xa5\xe0\xa4\xbe,v,m,sg,any,,\xe0\xa4\xa5\xe0\xa4\xbe,WA'
p2115
sS'chunkid'
p2116
S'VGF2'
p2117
sS'stype'
p2118
S'declarative'
p2119
sS'drel'
p2120
S'ccof:CCP'
p2121
sS'voicetype'
p2122
S'active'
p2123
sS'chunktype'
p2124
S'head:VGF2'
p2125
ssbsg26
I00
sg27
I00
sg28
Nsg29
Nsg30
I18
sg31
I4
sg32
Nsg33
Nsg34
S'VM'
p2126
sg36
g2107
sg37
I00
sba(issf_api
Word
p2127
(dp2128
g6
I00
sg7
V\u0964
p2129
sg9
(issf_api
FeatureSet
p2130
(dp2131
g12
(dp2132
S'posn'
p2133
S'400'
p2134
sS'name'
p2135
S'\xe0\xa5\xa4'
p2136
sS'af'
p2137
S'\xe0\xa5\xa4,punc,,,,,,'
p2138
sS'chunkid'
p2139
S'BLK'
p2140
sS'drel'
p2141
S'rsym:VGF'
p2142
sS'chunktype'
p2143
S'head:BLK'
p2144
ssbsg26
I00
sg27
I00
sg28
Nsg29
Nsg30
I19
sg31
I4
sg32
Nsg33
Nsg34
S'SYM'
p2145
sg36
g2130
sg37
I00
sba(issf_api
Word
p2146
(dp2147
g6
I00
sg7
V\u0909\u0924\u094d\u0924\u0930\u093e\u0902\u091a\u0932
p2148
sg9
(issf_api
FeatureSet
p2149
(dp2150
g12
(dp2151
S'posn'
p2152
S'10'
p2153
sS'name'
p2154
S'\xe0\xa4\x89\xe0\xa4\xa4\xe0\xa5\x8d\xe0\xa4\xa4\xe0\xa4\xb0\xe0\xa4\xbe\xe0\xa4\x82\xe0\xa4\x9a\xe0\xa4\xb2'
p2155
sS'af'
p2156
S'\xe0\xa4\x89\xe0\xa4\xa4\xe0\xa5\x8d\xe0\xa4\xa4\xe0\xa4\xb0\xe0\xa4\xbe\xe0\xa4\x82\xe0\xa4\x9a\xe0\xa4\xb2,n,m,sg,3,o,0_\xe0\xa4\x95\xe0\xa4\xbe,0'
p2157
sS'acrefmodhead'
p2158
S'\xe0\xa4\x89\xe0\xa4\xa4\xe0\xa5\x8d\xe0\xa4\xa4\xe0\xa4\xb0\xe0\xa4\xbe\xe0\xa4\x82\xe0\xa4\x9a\xe0\xa4\xb2:m1'
p2159
sS'chunkid'
p2160
S'NP'
p2161
sS'acrefmod'
p2162
S'm1%1:i9'
p2163
sS'drel'
p2164
S'r6:NP2'
p2165
sS'vpos'
p2166
S'vib_2'
p2167
sS'chunktype'
p2168
S'head:NP'
p2169
ssbsg26
I00
sg27
I00
sg28
Nsg29
Nsg30
I0
sg31
I5
sg32
Nsg33
Nsg34
S'NNP'
p2170
sg36
g2149
sg37
I00
sba(issf_api
Word
p2171
(dp2172
g6
I00
sg7
V\u0915\u0947
p2173
sg9
(issf_api
FeatureSet
p2174
(dp2175
g12
(dp2176
S'posn'
p2177
S'20'
p2178
sS'name'
p2179
S'\xe0\xa4\x95\xe0\xa5\x87'
p2180
sS'drel'
p2181
S'lwg__psp:NP'
p2182
sS'chunktype'
p2183
S'child:NP'
p2184
sS'af'
p2185
S'\xe0\xa4\x95\xe0\xa4\xbe,psp,m,pl,,d,,'
p2186
ssbsg26
I00
sg27
I00
sg28
Nsg29
Nsg30
I0
sg31
I5
sg32
Nsg33
Nsg34
S'PSP'
p2187
sg36
g2174
sg37
I00
sba(issf_api
Word
p2188
(dp2189
g6
I00
sg7
V\u092e\u0941\u0916\u094d\u092f\u092e\u0902\u0924\u094d\u0930\u0940
p2190
sg9
(issf_api
FeatureSet
p2191
(dp2192
g12
(dp2193
S'crefhead'
p2194
S'\xe0\xa4\xae\xe0\xa5\x81\xe0\xa4\x96\xe0\xa5\x8d\xe0\xa4\xaf\xe0\xa4\xae\xe0\xa4\x82\xe0\xa4\xa4\xe0\xa5\x8d\xe0\xa4\xb0\xe0\xa5\x80:i9'
p2195
sS'posn'
p2196
S'30'
p2197
sS'name'
p2198
S'\xe0\xa4\xae\xe0\xa5\x81\xe0\xa4\x96\xe0\xa5\x8d\xe0\xa4\xaf\xe0\xa4\xae\xe0\xa4\x82\xe0\xa4\xa4\xe0\xa5\x8d\xe0\xa4\xb0\xe0\xa5\x80'
p2199
sS'af'
p2200
S'\xe0\xa4\xae\xe0\xa5\x81\xe0\xa4\x96\xe0\xa5\x8d\xe0\xa4\xaf\xe0\xa4\xae\xe0\xa4\x82\xe0\xa4\xa4\xe0\xa5\x8d\xe0\xa4\xb0\xe0\xa5\x80,n,m,sg,3,d,0,0'
p2201
sS'chunkid'
p2202
S'NP2'
p2203
sS'crefmod'
p2204
S'm1:i9'
p2205
sS'chunktype'
p2206
S'head:NP2'
p2207
sS'cref'
p2208
S'i9%1:t4'
p2209
sS'drel'
p2210
S'nmod:NP3'
p2211
ssbsg26
I00
sg27
I00
sg28
Nsg29
Nsg30
I1
sg31
I5
sg32
Nsg33
Nsg34
S'NNP'
p2212
sg36
g2191
sg37
I00
sba(issf_api
Word
p2213
(dp2214
g6
I00
sg7
V\u090f\u0928.
p2215
sg9
(issf_api
FeatureSet
p2216
(dp2217
g12
(dp2218
S'posn'
p2219
S'40'
p2220
sS'name'
p2221
S'\xe0\xa4\x8f\xe0\xa4\xa8.'
p2222
sS'af'
p2223
S'\xe0\xa4\x8f\xe0\xa4\xa8,n,m,sg,3,d,0,0'
p2224
sS'drel'
p2225
S'pof__cn:NP3'
p2226
sS'chunktype'
p2227
S'child:NP3'
p2228
sS'cref'
p2229
S'i10%0:t4'
p2230
ssbsg26
I00
sg27
I00
sg28
Nsg29
Nsg30
I2
sg31
I5
sg32
Nsg33
Nsg34
S'NNPC'
p2231
sg36
g2216
sg37
I00
sba(issf_api
Word
p2232
(dp2233
g6
I00
sg7
V\u0921\u0940.
p2234
sg9
(issf_api
FeatureSet
p2235
(dp2236
g12
(dp2237
S'posn'
p2238
S'50'
p2239
sS'name'
p2240
S'\xe0\xa4\xa1\xe0\xa5\x80.'
p2241
sS'af'
p2242
S'\xe0\xa4\xa1\xe0\xa5\x80,n,m,sg,3,d,0,0'
p2243
sS'drel'
p2244
S'pof__cn:NP3'
p2245
sS'chunktype'
p2246
S'child:NP3'
p2247
sS'cref'
p2248
S'i10%0:t4'
p2249
ssbsg26
I00
sg27
I00
sg28
Nsg29
Nsg30
I2
sg31
I5
sg32
Nsg33
Nsg34
S'NNPC'
p2250
sg36
g2235
sg37
I00
sba(issf_api
Word
p2251
(dp2252
g6
I00
sg7
V\u0924\u093f\u0935\u093e\u0930\u0940
p2253
sg9
(issf_api
FeatureSet
p2254
(dp2255
g12
(dp2256
S'crefhead'
p2257
S'\xe0\xa4\xa4\xe0\xa4\xbf\xe0\xa4\xb5\xe0\xa4\xbe\xe0\xa4\xb0\xe0\xa5\x80:i10'
p2258
sS'posn'
p2259
S'60'
p2260
sS'name'
p2261
S'\xe0\xa4\xa4\xe0\xa4\xbf\xe0\xa4\xb5\xe0\xa4\xbe\xe0\xa4\xb0\xe0\xa5\x80'
p2262
sS'af'
p2263
S'\xe0\xa4\xa4\xe0\xa4\xbf\xe0\xa4\xb5\xe0\xa4\xbe\xe0\xa4\xb0\xe0\xa5\x80,n,any,sg,3,d,0,0'
p2264
sS'chunkid'
p2265
S'NP3'
p2266
sS'creftype'
p2267
S'Coreference-NounComplement:i9'
p2268
sS'chunktype'
p2269
S'head:NP3'
p2270
sS'crefchainhead'
p2271
S'i10:t4'
p2272
sS'cref'
p2273
S'i10%1:t4'
p2274
sS'drel'
p2275
S'ccof:CCP'
p2276
ssbsg26
I00
sg27
I00
sg28
Nsg29
Nsg30
I2
sg31
I5
sg32
Nsg33
Nsg34
S'NNP'
p2277
sg36
g2254
sg37
I00
sba(issf_api
Word
p2278
(dp2279
g6
I00
sg7
V\u0914\u0930
p2280
sg9
(issf_api
FeatureSet
p2281
(dp2282
g12
(dp2283
S'posn'
p2284
S'70'
p2285
sS'name'
p2286
S'\xe0\xa4\x94\xe0\xa4\xb0'
p2287
sS'af'
p2288
S'\xe0\xa4\x94\xe0\xa4\xb0,avy,,,,,,'
p2289
sS'chunkid'
p2290
S'CCP'
p2291
sS'drel'
p2292
S'k1:VGF'
p2293
sS'chunktype'
p2294
S'head:CCP'
p2295
ssbsg26
I00
sg27
I00
sg28
Nsg29
Nsg30
I3
sg31
I5
sg32
Nsg33
Nsg34
S'CC'
p2296
sg36
g2281
sg37
I00
sba(issf_api
Word
p2297
(dp2298
g6
I00
sg7
V\u0930\u093e\u091c\u094d\u092f\u0938\u092d\u093e
p2299
sg9
(issf_api
FeatureSet
p2300
(dp2301
g12
(dp2302
S'posn'
p2303
S'80'
p2304
sS'name'
p2305
S'\xe0\xa4\xb0\xe0\xa4\xbe\xe0\xa4\x9c\xe0\xa5\x8d\xe0\xa4\xaf\xe0\xa4\xb8\xe0\xa4\xad\xe0\xa4\xbe'
p2306
sS'af'
p2307
S'\xe0\xa4\xb0\xe0\xa4\xbe\xe0\xa4\x9c\xe0\xa5\x8d\xe0\xa4\xaf\xe0\xa4\xb8\xe0\xa4\xad\xe0\xa4\xbe,n,f,sg,3,d,0,0'
p2308
sS'drel'
p2309
S'pof__cn:NP4'
p2310
sS'chunktype'
p2311
S'child:NP4'
p2312
sS'cref'
p2313
S'i11%0:t5'
p2314
ssbsg26
I00
sg27
I00
sg28
Nsg29
Nsg30
I4
sg31
I5
sg32
Nsg33
Nsg34
S'NNC'
p2315
sg36
g2300
sg37
I00
sba(issf_api
Word
p2316
(dp2317
g6
I00
sg7
V\u0938\u0926\u0938\u094d\u092f
p2318
sg9
(issf_api
FeatureSet
p2319
(dp2320
g12
(dp2321
S'crefhead'
p2322
S'\xe0\xa4\xb8\xe0\xa4\xa6\xe0\xa4\xb8\xe0\xa5\x8d\xe0\xa4\xaf:i11'
p2323
sS'posn'
p2324
S'90'
p2325
sS'name'
p2326
S'\xe0\xa4\xb8\xe0\xa4\xa6\xe0\xa4\xb8\xe0\xa5\x8d\xe0\xa4\xaf'
p2327
sS'af'
p2328
S'\xe0\xa4\xb8\xe0\xa4\xa6\xe0\xa4\xb8\xe0\xa5\x8d\xe0\xa4\xaf,n,m,sg,3,d,0,0'
p2329
sS'chunkid'
p2330
S'NP4'
p2331
sS'drel'
p2332
S'nmod:NP5'
p2333
sS'chunktype'
p2334
S'head:NP4'
p2335
sS'cref'
p2336
S'i11%1:t5'
p2337
ssbsg26
I00
sg27
I00
sg28
Nsg29
Nsg30
I4
sg31
I5
sg32
Nsg33
Nsg34
S'NN'
p2338
sg36
g2319
sg37
I00
sba(issf_api
Word
p2339
(dp2340
g6
I00
sg7
V\u0905\u091c\u092f
p2341
sg9
(issf_api
FeatureSet
p2342
(dp2343
g12
(dp2344
S'posn'
p2345
S'100'
p2346
sS'name'
p2347
S'\xe0\xa4\x85\xe0\xa4\x9c\xe0\xa4\xaf'
p2348
sS'af'
p2349
S'\xe0\xa4\x85\xe0\xa4\x9c\xe0\xa4\xaf,n,m,sg,3,d,0,0'
p2350
sS'drel'
p2351
S'pof__cn:NP5'
p2352
sS'chunktype'
p2353
S'child:NP5'
p2354
sS'cref'
p2355
S'i12%0:t5'
p2356
ssbsg26
I00
sg27
I00
sg28
Nsg29
Nsg30
I5
sg31
I5
sg32
Nsg33
Nsg34
S'NNPC'
p2357
sg36
g2342
sg37
I00
sba(issf_api
Word
p2358
(dp2359
g6
I00
sg7
V\u091a\u094c\u091f\u093e\u0932\u093e
p2360
sg9
(issf_api
FeatureSet
p2361
(dp2362
g12
(dp2363
S'crefhead'
p2364
S'\xe0\xa4\x9a\xe0\xa5\x8c\xe0\xa4\x9f\xe0\xa4\xbe\xe0\xa4\xb2\xe0\xa4\xbe:i12'
p2365
sS'posn'
p2366
S'110'
p2367
sS'name'
p2368
S'\xe0\xa4\x9a\xe0\xa5\x8c\xe0\xa4\x9f\xe0\xa4\xbe\xe0\xa4\xb2\xe0\xa4\xbe'
p2369
sS'af'
p2370
S'\xe0\xa4\x9a\xe0\xa5\x8c\xe0\xa4\x9f\xe0\xa4\xbe\xe0\xa4\xb2\xe0\xa4\xbe,n,any,sg,3,d,0,0'
p2371
sS'chunkid'
p2372
S'NP5'
p2373
sS'creftype'
p2374
S'Coreference-NounComplement:i11'
p2375
sS'chunktype'
p2376
S'head:NP5'
p2377
sS'crefchainhead'
p2378
S'i12:t5'
p2379
sS'cref'
p2380
S'i12%1:t5'
p2381
sS'drel'
p2382
S'ccof:CCP'
p2383
ssbsg26
I00
sg27
I00
sg28
Nsg29
Nsg30
I5
sg31
I5
sg32
Nsg33
Nsg34
S'NNP'
p2384
sg36
g2361
sg37
I00
sba(issf_api
Word
p2385
(dp2386
g6
I00
sg7
V\u0907\u0938
p2387
sg9
(issf_api
FeatureSet
p2388
(dp2389
g12
(dp2390
S'posn'
p2391
S'120'
p2392
sS'name'
p2393
S'\xe0\xa4\x87\xe0\xa4\xb8'
p2394
sS'drel'
p2395
S'nmod__adj:NP6'
p2396
sS'chunktype'
p2397
S'child:NP6'
p2398
sS'af'
p2399
S'\xe0\xa4\xaf\xe0\xa4\xb9,pn,any,sg,3,o,,'
p2400
ssbsg26
I00
sg27
I00
sg28
Nsg29
Nsg30
I6
sg31
I5
sg32
Nsg33
Nsg34
S'DEM'
p2401
sg36
g2388
sg37
I00
sba(issf_api
Word
p2402
(dp2403
g6
I00
sg7
V\u092e\u094c\u0915\u0947
p2404
sg9
(issf_api
FeatureSet
p2405
(dp2406
g12
(dp2407
S'posn'
p2408
S'130'
p2409
sS'name'
p2410
S'\xe0\xa4\xae\xe0\xa5\x8c\xe0\xa4\x95\xe0\xa5\x87'
p2411
sS'af'
p2412
S'\xe0\xa4\xae\xe0\xa5\x8c\xe0\xa4\x95\xe0\xa4\xbe,n,m,sg,3,o,0_\xe0\xa4\xaa\xe0\xa4\xb0,0'
p2413
sS'chunkid'
p2414
S'NP6'
p2415
sS'drel'
p2416
S'k7:VGF'
p2417
sS'vpos'
p2418
S'vib_3'
p2419
sS'chunktype'
p2420
S'head:NP6'
p2421
ssbsg26
I00
sg27
I00
sg28
Nsg29
Nsg30
I6
sg31
I5
sg32
Nsg33
Nsg34
S'NN'
p2422
sg36
g2405
sg37
I00
sba(issf_api
Word
p2423
(dp2424
g6
I00
sg7
V\u092a\u0930
p2425
sg9
(issf_api
FeatureSet
p2426
(dp2427
g12
(dp2428
S'posn'
p2429
S'140'
p2430
sS'name'
p2431
S'\xe0\xa4\xaa\xe0\xa4\xb0'
p2432
sS'drel'
p2433
S'lwg__psp:NP6'
p2434
sS'chunktype'
p2435
S'child:NP6'
p2436
sS'af'
p2437
S'\xe0\xa4\xaa\xe0\xa4\xb0,psp,,,,,,'
p2438
ssbsg26
I00
sg27
I00
sg28
Nsg29
Nsg30
I6
sg31
I5
sg32
Nsg33
Nsg34
S'PSP'
p2439
sg36
g2426
sg37
I00
sba(issf_api
Word
p2440
(dp2441
g6
I00
sg7
V\u092e\u094c\u091c\u0942\u0926
p2442
sg9
(issf_api
FeatureSet
p2443
(dp2444
g12
(dp2445
S'posn'
p2446
S'150'
p2447
sS'name'
p2448
S'\xe0\xa4\xae\xe0\xa5\x8c\xe0\xa4\x9c\xe0\xa5\x82\xe0\xa4\xa6'
p2449
sS'af'
p2450
S'\xe0\xa4\xae\xe0\xa5\x8c\xe0\xa4\x9c\xe0\xa5\x82\xe0\xa4\xa6,adj,any,any,,,,'
p2451
sS'chunkid'
p2452
S'JJP'
p2453
sS'drel'
p2454
S'k1s:VGF'
p2455
sS'chunktype'
p2456
S'head:JJP'
p2457
ssbsg26
I00
sg27
I00
sg28
Nsg29
Nsg30
I7
sg31
I5
sg32
Nsg33
Nsg34
S'JJ'
p2458
sg36
g2443
sg37
I00
sba(issf_api
Word
p2459
(dp2460
g6
I00
sg7
V\u0925\u0947
p2461
sg9
(issf_api
FeatureSet
p2462
(dp2463
g12
(dp2464
S'posn'
p2465
S'160'
p2466
sS'name'
p2467
S'\xe0\xa4\xa5\xe0\xa5\x87'
p2468
sS'af'
p2469
S'\xe0\xa4\xa5\xe0\xa4\xbe,v,m,pl,any,,\xe0\xa4\xa5\xe0\xa4\xbe,WA'
p2470
sS'chunkid'
p2471
S'VGF'
p2472
sS'chunktype'
p2473
S'head:VGF'
p2474
sS'voicetype'
p2475
S'active'
p2476
sS'stype'
p2477
S'declarative'
p2478
ssbsg26
I00
sg27
I00
sg28
Nsg29
Nsg30
I8
sg31
I5
sg32
Nsg33
Nsg34
S'VM'
p2479
sg36
g2462
sg37
I00
sba(issf_api
Word
p2480
(dp2481
g6
I00
sg7
V\u0964
p2482
sg9
(issf_api
FeatureSet
p2483
(dp2484
g12
(dp2485
S'posn'
p2486
S'170'
p2487
sS'name'
p2488
S'\xe0\xa5\xa4'
p2489
sS'af'
p2490
S'\xe0\xa5\xa4,punc,,,,,,'
p2491
sS'chunkid'
p2492
S'BLK'
p2493
sS'drel'
p2494
S'rsym:VGF'
p2495
sS'chunktype'
p2496
S'head:BLK'
p2497
ssbsg26
I00
sg27
I00
sg28
Nsg29
Nsg30
I9
sg31
I5
sg32
Nsg33
Nsg34
S'SYM'
p2498
sg36
g2483
sg37
I00
sba(issf_api
Word
p2499
(dp2500
g6
I00
sg7
V\u0916\u092c\u0930
p2501
sg9
(issf_api
FeatureSet
p2502
(dp2503
g12
(dp2504
S'posn'
p2505
S'10'
p2506
sS'name'
p2507
S'\xe0\xa4\x96\xe0\xa4\xac\xe0\xa4\xb0'
p2508
sS'af'
p2509
S'\xe0\xa4\x96\xe0\xa4\xac\xe0\xa4\xb0,n,f,sg,3,d,0,0'
p2510
sS'chunkid'
p2511
S'NP'
p2512
sS'drel'
p2513
S'k1:VGF'
p2514
sS'chunktype'
p2515
S'head:NP'
p2516
ssbsg26
I00
sg27
I00
sg28
Nsg29
Nsg30
I0
sg31
I6
sg32
Nsg33
Nsg34
S'NN'
p2517
sg36
g2502
sg37
I00
sba(issf_api
Word
p2518
(dp2519
g6
I00
sg7
V\u092e\u093f\u0932\u0940
p2520
sg9
(issf_api
FeatureSet
p2521
(dp2522
g12
(dp2523
S'posn'
p2524
S'20'
p2525
sS'name'
p2526
S'\xe0\xa4\xae\xe0\xa4\xbf\xe0\xa4\xb2\xe0\xa5\x80'
p2527
sS'af'
p2528
S'\xe0\xa4\xae\xe0\xa4\xbf\xe0\xa4\xb2,v,f,sg,any,,\xe0\xa4\xaf\xe0\xa4\xbe,yA'
p2529
sS'chunkid'
p2530
S'VGF'
p2531
sS'chunktype'
p2532
S'head:VGF'
p2533
sS'voicetype'
p2534
S'active'
p2535
sS'stype'
p2536
S'declarative'
p2537
ssbsg26
I00
sg27
I00
sg28
Nsg29
Nsg30
I1
sg31
I6
sg32
Nsg33
Nsg34
S'VM'
p2538
sg36
g2521
sg37
I00
sba(issf_api
Word
p2539
(dp2540
g6
I00
sg7
V\u0915\u093f
p2541
sg9
(issf_api
FeatureSet
p2542
(dp2543
g12
(dp2544
S'posn'
p2545
S'30'
p2546
sS'name'
p2547
S'\xe0\xa4\x95\xe0\xa4\xbf'
p2548
sS'af'
p2549
S'\xe0\xa4\x95\xe0\xa4\xbf,avy,,,,,,'
p2550
sS'chunkid'
p2551
S'CCP'
p2552
sS'drel'
p2553
S'rs:NP'
p2554
sS'chunktype'
p2555
S'head:CCP'
p2556
ssbsg26
I00
sg27
I00
sg28
Nsg29
Nsg30
I2
sg31
I6
sg32
Nsg33
Nsg34
S'CC'
p2557
sg36
g2542
sg37
I00
sba(issf_api
Word
p2558
(dp2559
g6
I00
sg7
V\u0930\u093e\u091c\u094d\u092f
p2560
sg9
(issf_api
FeatureSet
p2561
(dp2562
g12
(dp2563
S'posn'
p2564
S'40'
p2565
sS'name'
p2566
S'\xe0\xa4\xb0\xe0\xa4\xbe\xe0\xa4\x9c\xe0\xa5\x8d\xe0\xa4\xaf'
p2567
sS'af'
p2568
S'\xe0\xa4\xb0\xe0\xa4\xbe\xe0\xa4\x9c\xe0\xa5\x8d\xe0\xa4\xaf,n,m,sg,3,o,0_\xe0\xa4\x95\xe0\xa4\xbe,0'
p2569
sS'acrefmodhead'
p2570
S'\xe0\xa4\xb0\xe0\xa4\xbe\xe0\xa4\x9c\xe0\xa5\x8d\xe0\xa4\xaf:m2'
p2571
sS'chunkid'
p2572
S'NP2'
p2573
sS'acrefmod'
p2574
S'm2%1:i13'
p2575
sS'drel'
p2576
S'r6:NP3'
p2577
sS'vpos'
p2578
S'vib_2'
p2579
sS'chunktype'
p2580
S'head:NP2'
p2581
ssbsg26
I00
sg27
I00
sg28
Nsg29
Nsg30
I3
sg31
I6
sg32
Nsg33
Nsg34
S'NN'
p2582
sg36
g2561
sg37
I00
sba(issf_api
Word
p2583
(dp2584
g6
I00
sg7
V\u0915\u0947
p2585
sg9
(issf_api
FeatureSet
p2586
(dp2587
g12
(dp2588
S'posn'
p2589
S'50'
p2590
sS'name'
p2591
S'\xe0\xa4\x95\xe0\xa5\x87'
p2592
sS'drel'
p2593
S'lwg__psp:NP2'
p2594
sS'chunktype'
p2595
S'child:NP2'
p2596
sS'af'
p2597
S'\xe0\xa4\x95\xe0\xa4\xbe,psp,m,sg,,o,,'
p2598
ssbsg26
I00
sg27
I00
sg28
Nsg29
Nsg30
I3
sg31
I6
sg32
Nsg33
Nsg34
S'PSP'
p2599
sg36
g2586
sg37
I00
sba(issf_api
Word
p2600
(dp2601
g6
I00
sg7
V\u092e\u0941\u0916\u094d\u092f\u092e\u0902\u0924\u094d\u0930\u0940
p2602
sg9
(issf_api
FeatureSet
p2603
(dp2604
g12
(dp2605
S'crefhead'
p2606
S'\xe0\xa4\xae\xe0\xa5\x81\xe0\xa4\x96\xe0\xa5\x8d\xe0\xa4\xaf\xe0\xa4\xae\xe0\xa4\x82\xe0\xa4\xa4\xe0\xa5\x8d\xe0\xa4\xb0\xe0\xa5\x80:i13'
p2607
sS'posn'
p2608
S'60'
p2609
sS'name'
p2610
S'\xe0\xa4\xae\xe0\xa5\x81\xe0\xa4\x96\xe0\xa5\x8d\xe0\xa4\xaf\xe0\xa4\xae\xe0\xa4\x82\xe0\xa4\xa4\xe0\xa5\x8d\xe0\xa4\xb0\xe0\xa5\x80'
p2611
sS'af'
p2612
S'\xe0\xa4\xae\xe0\xa5\x81\xe0\xa4\x96\xe0\xa5\x8d\xe0\xa4\xaf\xe0\xa4\xae\xe0\xa4\x82\xe0\xa4\xa4\xe0\xa5\x8d\xe0\xa4\xb0\xe0\xa5\x80,n,m,sg,3,o,0,0'
p2613
sS'chunkid'
p2614
S'NP3'
p2615
sS'crefmod'
p2616
S'm2:i13'
p2617
sS'chunktype'
p2618
S'head:NP3'
p2619
sS'cref'
p2620
S'i13%1:t6'
p2621
sS'drel'
p2622
S'nmod:NP4'
p2623
ssbsg26
I00
sg27
I00
sg28
Nsg29
Nsg30
I4
sg31
I6
sg32
Nsg33
Nsg34
S'NNP'
p2624
sg36
g2603
sg37
I00
sba(issf_api
Word
p2625
(dp2626
g6
I00
sg7
V\u092e\u0941\u0932\u093e\u092f\u092e
p2627
sg9
(issf_api
FeatureSet
p2628
(dp2629
g12
(dp2630
S'posn'
p2631
S'70'
p2632
sS'name'
p2633
S'\xe0\xa4\xae\xe0\xa5\x81\xe0\xa4\xb2\xe0\xa4\xbe\xe0\xa4\xaf\xe0\xa4\xae'
p2634
sS'af'
p2635
S'\xe0\xa4\xae\xe0\xa5\x81\xe0\xa4\xb2\xe0\xa4\xbe\xe0\xa4\xaf\xe0\xa4\xae,n,m,sg,3,d,0,0'
p2636
sS'drel'
p2637
S'pof__cn:NP4'
p2638
sS'chunktype'
p2639
S'child:NP4'
p2640
sS'cref'
p2641
S'i14%0:t6'
p2642
ssbsg26
I00
sg27
I00
sg28
Nsg29
Nsg30
I5
sg31
I6
sg32
Nsg33
Nsg34
S'NNPC'
p2643
sg36
g2628
sg37
I00
sba(issf_api
Word
p2644
(dp2645
g6
I00
sg7
V\u0938\u093f\u0902\u0939
p2646
sg9
(issf_api
FeatureSet
p2647
(dp2648
g12
(dp2649
S'posn'
p2650
S'80'
p2651
sS'name'
p2652
S'\xe0\xa4\xb8\xe0\xa4\xbf\xe0\xa4\x82\xe0\xa4\xb9'
p2653
sS'af'
p2654
S'\xe0\xa4\xb8\xe0\xa4\xbf\xe0\xa4\x82\xe0\xa4\xb9,n,m,sg,3,d,0,0'
p2655
sS'drel'
p2656
S'pof__cn:NP4'
p2657
sS'chunktype'
p2658
S'child:NP4'
p2659
sS'cref'
p2660
S'i14%0:t6'
p2661
ssbsg26
I00
sg27
I00
sg28
Nsg29
Nsg30
I5
sg31
I6
sg32
Nsg33
Nsg34
S'NNPC'
p2662
sg36
g2647
sg37
I00
sba(issf_api
Word
p2663
(dp2664
g6
I00
sg7
V\u092f\u093e\u0926\u0935
p2665
sg9
(issf_api
FeatureSet
p2666
(dp2667
g12
(dp2668
S'crefhead'
p2669
S'\xe0\xa4\xaf\xe0\xa4\xbe\xe0\xa4\xa6\xe0\xa4\xb5:i14'
p2670
sS'posn'
p2671
S'90'
p2672
sS'name'
p2673
S'\xe0\xa4\xaf\xe0\xa4\xbe\xe0\xa4\xa6\xe0\xa4\xb5'
p2674
sS'af'
p2675
S'\xe0\xa4\xaf\xe0\xa4\xbe\xe0\xa4\xa6\xe0\xa4\xb5,n,any,sg,3,o,0_\xe0\xa4\xa8\xe0\xa5\x87,0'
p2676
sS'chunkid'
p2677
S'NP4'
p2678
sS'creftype'
p2679
S'Coreference-NounComplement:i13'
p2680
sS'chunktype'
p2681
S'head:NP4'
p2682
sS'crefchainhead'
p2683
S'i14:t6'
p2684
sS'vpos'
p2685
S'vib_4'
p2686
sS'cref'
p2687
S'i14%1:t6'
p2688
sS'drel'
p2689
S'k1:VGF2'
p2690
ssbsg26
I00
sg27
I00
sg28
Nsg29
Nsg30
I5
sg31
I6
sg32
Nsg33
Nsg34
S'NNP'
p2691
sg36
g2666
sg37
I00
sba(issf_api
Word
p2692
(dp2693
g6
I00
sg7
V\u0928\u0947
p2694
sg9
(issf_api
FeatureSet
p2695
(dp2696
g12
(dp2697
S'posn'
p2698
S'100'
p2699
sS'name'
p2700
S'\xe0\xa4\xa8\xe0\xa5\x87'
p2701
sS'drel'
p2702
S'lwg__psp:NP4'
p2703
sS'chunktype'
p2704
S'child:NP4'
p2705
sS'af'
p2706
S'\xe0\xa4\xa8\xe0\xa5\x87,psp,,,,,,'
p2707
ssbsg26
I00
sg27
I00
sg28
Nsg29
Nsg30
I5
sg31
I6
sg32
Nsg33
Nsg34
S'PSP'
p2708
sg36
g2695
sg37
I00
sba(issf_api
Word
p2709
(dp2710
g6
I00
sg7
V\u0938\u094d\u0935\u093e\u092e\u0940
p2711
sg9
(issf_api
FeatureSet
p2712
(dp2713
g12
(dp2714
S'crefhead'
p2715
S'\xe0\xa4\xb8\xe0\xa5\x8d\xe0\xa4\xb5\xe0\xa4\xbe\xe0\xa4\xae\xe0\xa5\x80:i15'
p2716
sS'posn'
p2717
S'110'
p2718
sS'name'
p2719
S'\xe0\xa4\xb8\xe0\xa5\x8d\xe0\xa4\xb5\xe0\xa4\xbe\xe0\xa4\xae\xe0\xa5\x80'
p2720
sS'af'
p2721
S'\xe0\xa4\xb8\xe0\xa5\x8d\xe0\xa4\xb5\xe0\xa4\xbe\xe0\xa4\xae\xe0\xa5\x80,n,m,sg,3,o,0_\xe0\xa4\x95\xe0\xa4\xbe,0'
p2722
sS'chunkid'
p2723
S'NP5'
p2724
sS'creftype'
p2725
S'Coreference-Identity:i7'
p2726
sS'chunktype'
p2727
S'head:NP5'
p2728
sS'vpos'
p2729
S'vib_RP_3'
p2730
sS'cref'
p2731
S'i15%0:t1'
p2732
sS'drel'
p2733
S'r6:NP6'
p2734
ssbsg26
I00
sg27
I00
sg28
Nsg29
Nsg30
I6
sg31
I6
sg32
Nsg33
Nsg34
S'NN'
p2735
sg36
g2712
sg37
I00
sba(issf_api
Word
p2736
(dp2737
g6
I00
sg7
V\u091c\u0940
p2738
sg9
(issf_api
FeatureSet
p2739
(dp2740
g12
(dp2741
S'posn'
p2742
S'120'
p2743
sS'name'
p2744
S'\xe0\xa4\x9c\xe0\xa5\x80'
p2745
sS'af'
p2746
S'\xe0\xa4\x9c\xe0\xa5\x80,avy,,,,,,'
p2747
sS'drel'
p2748
S'lwg__rp:NP5'
p2749
sS'chunktype'
p2750
S'child:NP5'
p2751
sS'cref'
p2752
S'i15%1:t1'
p2753
ssbsg26
I00
sg27
I00
sg28
Nsg29
Nsg30
I6
sg31
I6
sg32
Nsg33
Nsg34
S'RP'
p2754
sg36
g2739
sg37
I00
sba(issf_api
Word
p2755
(dp2756
g6
I00
sg7
V\u0915\u0947
p2757
sg9
(issf_api
FeatureSet
p2758
(dp2759
g12
(dp2760
S'posn'
p2761
S'130'
p2762
sS'name'
p2763
S'\xe0\xa4\x95\xe0\xa5\x872'
p2764
sS'drel'
p2765
S'lwg__psp:NP5'
p2766
sS'chunktype'
p2767
S'child:NP5'
p2768
sS'af'
p2769
S'\xe0\xa4\x95\xe0\xa4\xbe,psp,m,sg,,o,,'
p2770
ssbsg26
I00
sg27
I00
sg28
Nsg29
Nsg30
I6
sg31
I6
sg32
Nsg33
Nsg34
S'PSP'
p2771
sg36
g2758
sg37
I00
sba(issf_api
Word
p2772
(dp2773
g6
I00
sg7
V\u0928\u093f\u0927\u0928
p2774
sg9
(issf_api
FeatureSet
p2775
(dp2776
g12
(dp2777
S'posn'
p2778
S'140'
p2779
sS'name'
p2780
S'\xe0\xa4\xa8\xe0\xa4\xbf\xe0\xa4\xa7\xe0\xa4\xa8'
p2781
sS'af'
p2782
S'\xe0\xa4\xa8\xe0\xa4\xbf\xe0\xa4\xa7\xe0\xa4\xa8,n,m,sg,3,o,0_\xe0\xa4\xaa\xe0\xa4\xb0,0'
p2783
sS'chunkid'
p2784
S'NP6'
p2785
sS'drel'
p2786
S'k7:VGF2'
p2787
sS'vpos'
p2788
S'vib_2'
p2789
sS'chunktype'
p2790
S'head:NP6'
p2791
ssbsg26
I00
sg27
I00
sg28
Nsg29
Nsg30
I7
sg31
I6
sg32
Nsg33
Nsg34
S'NN'
p2792
sg36
g2775
sg37
I00
sba(issf_api
Word
p2793
(dp2794
g6
I00
sg7
V\u092a\u0930
p2795
sg9
(issf_api
FeatureSet
p2796
(dp2797
g12
(dp2798
S'posn'
p2799
S'150'
p2800
sS'name'
p2801
S'\xe0\xa4\xaa\xe0\xa4\xb0'
p2802
sS'drel'
p2803
S'lwg__psp:NP6'
p2804
sS'chunktype'
p2805
S'child:NP6'
p2806
sS'af'
p2807
S'\xe0\xa4\xaa\xe0\xa4\xb0,psp,,,,,,'
p2808
ssbsg26
I00
sg27
I00
sg28
Nsg29
Nsg30
I7
sg31
I6
sg32
Nsg33
Nsg34
S'PSP'
p2809
sg36
g2796
sg37
I00
sba(issf_api
Word
p2810
(dp2811
g6
I00
sg7
V\u0936\u094b\u0915
p2812
sg9
(issf_api
FeatureSet
p2813
(dp2814
g12
(dp2815
S'posn'
p2816
S'160'
p2817
sS'name'
p2818
S'\xe0\xa4\xb6\xe0\xa5\x8b\xe0\xa4\x95'
p2819
sS'drel'
p2820
S'pof__cn:NP7'
p2821
sS'chunktype'
p2822
S'child:NP7'
p2823
sS'af'
p2824
S'\xe0\xa4\xb6\xe0\xa5\x8b\xe0\xa4\x95,n,m,sg,3,d,0,0'
p2825
ssbsg26
I00
sg27
I00
sg28
Nsg29
Nsg30
I8
sg31
I6
sg32
Nsg33
Nsg34
S'NNC'
p2826
sg36
g2813
sg37
I00
sba(issf_api
Word
p2827
(dp2828
g6
I00
sg7
V\u0938\u0902\u0935\u0947\u0926\u0928\u093e
p2829
sg9
(issf_api
FeatureSet
p2830
(dp2831
g12
(dp2832
S'posn'
p2833
S'170'
p2834
sS'name'
p2835
S'\xe0\xa4\xb8\xe0\xa4\x82\xe0\xa4\xb5\xe0\xa5\x87\xe0\xa4\xa6\xe0\xa4\xa8\xe0\xa4\xbe'
p2836
sS'af'
p2837
S'\xe0\xa4\xb8\xe0\xa4\x82\xe0\xa4\xb5\xe0\xa5\x87\xe0\xa4\xa6\xe0\xa4\xa8\xe0\xa4\xbe,n,f,sg,3,d,0,0'
p2838
sS'chunkid'
p2839
S'NP7'
p2840
sS'drel'
p2841
S'k2:VGF2'
p2842
sS'chunktype'
p2843
S'head:NP7'
p2844
ssbsg26
I00
sg27
I00
sg28
Nsg29
Nsg30
I8
sg31
I6
sg32
Nsg33
Nsg34
S'NN'
p2845
sg36
g2830
sg37
I00
sba(issf_api
Word
p2846
(dp2847
g6
I00
sg7
V\u0935\u094d\u092f\u0915\u094d\u0924
p2848
sg9
(issf_api
FeatureSet
p2849
(dp2850
g12
(dp2851
S'posn'
p2852
S'180'
p2853
sS'name'
p2854
S'\xe0\xa4\xb5\xe0\xa5\x8d\xe0\xa4\xaf\xe0\xa4\x95\xe0\xa5\x8d\xe0\xa4\xa4'
p2855
sS'af'
p2856
S'\xe0\xa4\xb5\xe0\xa5\x8d\xe0\xa4\xaf\xe0\xa4\x95\xe0\xa5\x8d\xe0\xa4\xa4,adj,any,any,,,,'
p2857
sS'chunkid'
p2858
S'JJP'
p2859
sS'drel'
p2860
S'pof:VGF2'
p2861
sS'chunktype'
p2862
S'head:JJP'
p2863
ssbsg26
I00
sg27
I00
sg28
Nsg29
Nsg30
I9
sg31
I6
sg32
Nsg33
Nsg34
S'JJ'
p2864
sg36
g2849
sg37
I00
sba(issf_api
Word
p2865
(dp2866
g6
I00
sg7
V\u0915\u0940
p2867
sg9
(issf_api
FeatureSet
p2868
(dp2869
g12
(dp2870
S'posn'
p2871
S'190'
p2872
sS'name'
p2873
S'\xe0\xa4\x95\xe0\xa5\x80'
p2874
sS'af'
p2875
S'\xe0\xa4\x95\xe0\xa4\xb0,v,f,sg,3,,\xe0\xa4\xaf\xe0\xa4\xbe_\xe0\xa4\xb9\xe0\xa5\x88,yA'
p2876
sS'chunkid'
p2877
S'VGF2'
p2878
sS'stype'
p2879
S'declarative'
p2880
sS'drel'
p2881
S'ccof:CCP'
p2882
sS'voicetype'
p2883
S'active'
p2884
sS'vpos'
p2885
S'tam_2'
p2886
sS'chunktype'
p2887
S'head:VGF2'
p2888
ssbsg26
I00
sg27
I00
sg28
Nsg29
Nsg30
I10
sg31
I6
sg32
Nsg33
Nsg34
S'VM'
p2889
sg36
g2868
sg37
I00
sba(issf_api
Word
p2890
(dp2891
g6
I00
sg7
V\u0939\u0948
p2892
sg9
(issf_api
FeatureSet
p2893
(dp2894
g12
(dp2895
S'posn'
p2896
S'200'
p2897
sS'name'
p2898
S'\xe0\xa4\xb9\xe0\xa5\x88'
p2899
sS'drel'
p2900
S'lwg__vaux:VGF2'
p2901
sS'chunktype'
p2902
S'child:VGF2'
p2903
sS'af'
p2904
S'\xe0\xa4\xb9\xe0\xa5\x88,v,any,sg,3,,\xe0\xa4\xb9\xe0\xa5\x88,hE'
p2905
ssbsg26
I00
sg27
I00
sg28
Nsg29
Nsg30
I10
sg31
I6
sg32
Nsg33
Nsg34
S'VAUX'
p2906
sg36
g2893
sg37
I00
sba(issf_api
Word
p2907
(dp2908
g6
I00
sg7
V\u0964
p2909
sg9
(issf_api
FeatureSet
p2910
(dp2911
g12
(dp2912
S'posn'
p2913
S'210'
p2914
sS'name'
p2915
S'\xe0\xa5\xa4'
p2916
sS'af'
p2917
S'\xe0\xa5\xa4,punc,,,,,,'
p2918
sS'chunkid'
p2919
S'BLK'
p2920
sS'drel'
p2921
S'rsym:VGF'
p2922
sS'chunktype'
p2923
S'head:BLK'
p2924
ssbsg26
I00
sg27
I00
sg28
Nsg29
Nsg30
I11
sg31
I6
sg32
Nsg33
Nsg34
S'SYM'
p2925
sg36
g2910
sg37
I00
sba(issf_api
Word
p2926
(dp2927
g6
I00
sg7
V\u0938\u092e\u093e\u0927\u093f
p2928
sg9
(issf_api
FeatureSet
p2929
(dp2930
g12
(dp2931
S'posn'
p2932
S'10'
p2933
sS'name'
p2934
S'\xe0\xa4\xb8\xe0\xa4\xae\xe0\xa4\xbe\xe0\xa4\xa7\xe0\xa4\xbf'
p2935
sS'af'
p2936
S'\xe0\xa4\xb8\xe0\xa4\xae\xe0\xa4\xbe\xe0\xa4\xa7\xe0\xa4\xbf,n,f,sg,3,d,0,0'
p2937
sS'chunkid'
p2938
S'NP'
p2939
sS'acrefmod'
p2940
S'm3%0:i16'
p2941
sS'drel'
p2942
S'pof:VGNN'
p2943
sS'chunktype'
p2944
S'head:NP'
p2945
ssbsg26
I00
sg27
I00
sg28
Nsg29
Nsg30
I0
sg31
I7
sg32
Nsg33
Nsg34
S'NN'
p2946
sg36
g2929
sg37
I00
sba(issf_api
Word
p2947
(dp2948
g6
I00
sg7
V\u0926\u0947\u0928\u0947
p2949
sg9
(issf_api
FeatureSet
p2950
(dp2951
g12
(dp2952
S'posn'
p2953
S'20'
p2954
sS'name'
p2955
S'\xe0\xa4\xa6\xe0\xa5\x87\xe0\xa4\xa8\xe0\xa5\x87'
p2956
sS'af'
p2957
S'\xe0\xa4\xa6\xe0\xa5\x87,v,any,sg,any,o,\xe0\xa4\xa8\xe0\xa4\xbe_\xe0\xa4\x95\xe0\xa4\xbe,nA'
p2958
sS'acrefmodhead'
p2959
S'\xe0\xa4\xa6\xe0\xa5\x87\xe0\xa4\xa8\xe0\xa5\x87:m3'
p2960
sS'chunkid'
p2961
S'VGNN'
p2962
sS'acrefmod'
p2963
S'm3%1:i16'
p2964
sS'drel'
p2965
S'r6:NP2'
p2966
sS'vpos'
p2967
S'tam_2'
p2968
sS'chunktype'
p2969
S'head:VGNN'
p2970
ssbsg26
I00
sg27
I00
sg28
Nsg29
Nsg30
I1
sg31
I7
sg32
Nsg33
Nsg34
S'VM'
p2971
sg36
g2950
sg37
I00
sba(issf_api
Word
p2972
(dp2973
g6
I00
sg7
V\u0915\u093e
p2974
sg9
(issf_api
FeatureSet
p2975
(dp2976
g12
(dp2977
S'posn'
p2978
S'30'
p2979
sS'name'
p2980
S'\xe0\xa4\x95\xe0\xa4\xbe'
p2981
sS'drel'
p2982
S'lwg__psp:VGNN'
p2983
sS'chunktype'
p2984
S'child:VGNN'
p2985
sS'af'
p2986
S'\xe0\xa4\x95\xe0\xa4\xbe,psp,m,sg,,d,,'
p2987
ssbsg26
I00
sg27
I00
sg28
Nsg29
Nsg30
I1
sg31
I7
sg32
Nsg33
Nsg34
S'PSP'
p2988
sg36
g2975
sg37
I00
sba(issf_api
Word
p2989
(dp2990
g6
I00
sg7
V\u0915\u093e\u0930\u094d\u092f\u0915\u094d\u0930\u092e
p2991
sg9
(issf_api
FeatureSet
p2992
(dp2993
g12
(dp2994
S'crefhead'
p2995
S'\xe0\xa4\x95\xe0\xa4\xbe\xe0\xa4\xb0\xe0\xa5\x8d\xe0\xa4\xaf\xe0\xa4\x95\xe0\xa5\x8d\xe0\xa4\xb0\xe0\xa4\xae:i16'
p2996
sS'posn'
p2997
S'40'
p2998
sS'name'
p2999
S'\xe0\xa4\x95\xe0\xa4\xbe\xe0\xa4\xb0\xe0\xa5\x8d\xe0\xa4\xaf\xe0\xa4\x95\xe0\xa5\x8d\xe0\xa4\xb0\xe0\xa4\xae'
p3000
sS'af'
p3001
S'\xe0\xa4\x95\xe0\xa4\xbe\xe0\xa4\xb0\xe0\xa5\x8d\xe0\xa4\xaf\xe0\xa4\x95\xe0\xa5\x8d\xe0\xa4\xb0\xe0\xa4\xae,n,m,sg,3,d,0,0'
p3002
sS'chunkid'
p3003
S'NP2'
p3004
sS'crefmod'
p3005
S'm3:i16'
p3006
sS'chunktype'
p3007
S'head:NP2'
p3008
sS'crefchainhead'
p3009
S'i16:t7'
p3010
sS'cref'
p3011
S'i16%1:t7'
p3012
sS'drel'
p3013
S'k1:VGF'
p3014
ssbsg26
I00
sg27
I00
sg28
Nsg29
Nsg30
I2
sg31
I7
sg32
Nsg33
Nsg34
S'NN'
p3015
sg36
g2992
sg37
I00
sba(issf_api
Word
p3016
(dp3017
g6
I00
sg7
V11.20
p3018
sg9
(issf_api
FeatureSet
p3019
(dp3020
g12
(dp3021
S'posn'
p3022
S'50'
p3023
sS'name'
p3024
S'11.20'
p3025
sS'af'
p3026
S'11.20,num,any,any,,o,0_\xe0\xa4\xaa\xe0\xa4\xb0,'
p3027
sS'chunkid'
p3028
S'NP3'
p3029
sS'drel'
p3030
S'k7t:VGF'
p3031
sS'vpos'
p3032
g785
sS'chunktype'
p3033
S'head:NP3'
p3034
ssbsg26
I00
sg27
I00
sg28
Nsg29
Nsg30
I3
sg31
I7
sg32
Nsg33
Nsg34
S'QC'
p3035
sg36
g3019
sg37
I00
sba(issf_api
Word
p3036
(dp3037
g6
I00
sg7
V\u092a\u0930
p3038
sg9
(issf_api
FeatureSet
p3039
(dp3040
g12
(dp3041
S'posn'
p3042
S'60'
p3043
sS'name'
p3044
S'\xe0\xa4\xaa\xe0\xa4\xb0'
p3045
sS'drel'
p3046
S'lwg__psp:NP3'
p3047
sS'chunktype'
p3048
S'child:NP3'
p3049
sS'af'
p3050
S'\xe0\xa4\xaa\xe0\xa4\xb0,psp,,,,,,'
p3051
ssbsg26
I00
sg27
I00
sg28
Nsg29
Nsg30
I3
sg31
I7
sg32
Nsg33
Nsg34
S'PSP'
p3052
sg36
g3039
sg37
I00
sba(issf_api
Word
p3053
(dp3054
g6
I00
sg7
V\u0906\u0930\u0902\u092d
p3055
sg9
(issf_api
FeatureSet
p3056
(dp3057
g12
(dp3058
S'posn'
p3059
S'70'
p3060
sS'name'
p3061
S'\xe0\xa4\x86\xe0\xa4\xb0\xe0\xa4\x82\xe0\xa4\xad'
p3062
sS'af'
p3063
S'\xe0\xa4\x86\xe0\xa4\xb0\xe0\xa4\xae\xe0\xa5\x8d\xe0\xa4\xad,n,m,sg,3,d,0,0'
p3064
sS'chunkid'
p3065
S'NP4'
p3066
sS'drel'
p3067
S'pof:VGF'
p3068
sS'chunktype'
p3069
S'head:NP4'
p3070
ssbsg26
I00
sg27
I00
sg28
Nsg29
Nsg30
I4
sg31
I7
sg32
Nsg33
Nsg34
S'NN'
p3071
sg36
g3056
sg37
I00
sba(issf_api
Word
p3072
(dp3073
g6
I00
sg7
V\u0939\u0941\u0906
p3074
sg9
(issf_api
FeatureSet
p3075
(dp3076
g12
(dp3077
S'posn'
p3078
S'80'
p3079
sS'name'
p3080
S'\xe0\xa4\xb9\xe0\xa5\x81\xe0\xa4\x86'
p3081
sS'af'
p3082
S'\xe0\xa4\xb9\xe0\xa5\x8b,v,m,sg,any,,\xe0\xa4\xaf\xe0\xa4\xbe,yA'
p3083
sS'chunkid'
p3084
S'VGF'
p3085
sS'chunktype'
p3086
S'head:VGF'
p3087
sS'voicetype'
p3088
S'active'
p3089
sS'stype'
p3090
S'declarative'
p3091
ssbsg26
I00
sg27
I00
sg28
Nsg29
Nsg30
I5
sg31
I7
sg32
Nsg33
Nsg34
S'VM'
p3092
sg36
g3075
sg37
I00
sba(issf_api
Word
p3093
(dp3094
g6
I00
sg7
V\u0964
p3095
sg9
(issf_api
FeatureSet
p3096
(dp3097
g12
(dp3098
S'posn'
p3099
S'90'
p3100
sS'name'
p3101
S'\xe0\xa5\xa4'
p3102
sS'af'
p3103
S'\xe0\xa5\xa4,punc,,,,,,'
p3104
sS'chunkid'
p3105
S'BLK'
p3106
sS'drel'
p3107
S'rsym:VGF'
p3108
sS'chunktype'
p3109
S'head:BLK'
p3110
ssbsg26
I00
sg27
I00
sg28
Nsg29
Nsg30
I6
sg31
I7
sg32
Nsg33
Nsg34
S'SYM'
p3111
sg36
g3096
sg37
I00
sba(issf_api
Word
p3112
(dp3113
g6
I00
sg7
V\u0907\u0938\u0938\u0947
p3114
sg9
(issf_api
FeatureSet
p3115
(dp3116
g12
(dp3117
S'crefhead'
p3118
S'\xe0\xa4\x87\xe0\xa4\xb8\xe0\xa4\xb8\xe0\xa5\x87:i17'
p3119
sS'posn'
p3120
S'10'
p3121
sS'name'
p3122
S'\xe0\xa4\x87\xe0\xa4\xb8\xe0\xa4\xb8\xe0\xa5\x87'
p3123
sS'af'
p3124
S'\xe0\xa4\xaf\xe0\xa4\xb9,pn,any,sg,3,o,0_\xe0\xa4\xaa\xe0\xa4\xb9\xe0\xa4\xb2\xe0\xa5\x87,se'
p3125
sS'chunkid'
p3126
S'NP'
p3127
sS'creftype'
p3128
S'Anaphora-C:i16'
p3129
sS'chunktype'
p3130
S'head:NP'
p3131
sS'vpos'
p3132
S'vib_2'
p3133
sS'cref'
p3134
S'i17%1:t7'
p3135
sS'drel'
p3136
S'k7t:VGF'
p3137
ssbsg26
I00
sg27
I00
sg28
Nsg29
Nsg30
I0
sg31
I8
sg32
Nsg33
Nsg34
S'PRP'
p3138
sg36
g3115
sg37
I00
sba(issf_api
Word
p3139
(dp3140
g6
I00
sg7
V\u092a\u0939\u0932\u0947
p3141
sg9
(issf_api
FeatureSet
p3142
(dp3143
g12
(dp3144
S'posn'
p3145
S'20'
p3146
sS'name'
p3147
S'\xe0\xa4\xaa\xe0\xa4\xb9\xe0\xa4\xb2\xe0\xa5\x87'
p3148
sS'drel'
p3149
S'lwg__psp:NP'
p3150
sS'chunktype'
p3151
S'child:NP'
p3152
sS'af'
p3153
S'\xe0\xa4\xaa\xe0\xa4\xb9\xe0\xa4\xb2\xe0\xa5\x87,nst,m,sg,3,d,,'
p3154
ssbsg26
I00
sg27
I00
sg28
Nsg29
Nsg30
I0
sg31
I8
sg32
Nsg33
Nsg34
S'NST'
p3155
sg36
g3142
sg37
I00
sba(issf_api
Word
p3156
(dp3157
g6
I00
sg7
V\u0909\u0928\u0915\u0947
p3158
sg9
(issf_api
FeatureSet
p3159
(dp3160
g12
(dp3161
S'crefhead'
p3162
S'\xe0\xa4\x89\xe0\xa4\xa8\xe0\xa4\x95\xe0\xa5\x87:i18'
p3163
sS'posn'
p3164
S'30'
p3165
sS'name'
p3166
S'\xe0\xa4\x89\xe0\xa4\xa8\xe0\xa4\x95\xe0\xa5\x87'
p3167
sS'af'
p3168
S'\xe0\xa4\xb5\xe0\xa4\xb9,pn,m,sg,3h,o,\xe0\xa4\x95\xe0\xa4\xbe,kA'
p3169
sS'chunkid'
p3170
S'NP2'
p3171
sS'creftype'
p3172
S'Anaphora-C:i15'
p3173
sS'chunktype'
p3174
S'head:NP2'
p3175
sS'cref'
p3176
S'i18%1:t1'
p3177
sS'drel'
p3178
S'r6:NP3'
p3179
ssbsg26
I00
sg27
I00
sg28
Nsg29
Nsg30
I1
sg31
I8
sg32
Nsg33
Nsg34
S'PRP'
p3180
sg36
g3159
sg37
I00
sba(issf_api
Word
p3181
(dp3182
g6
I00
sg7
V\u0905\u0902\u0924\u093f\u092e
p3183
sg9
(issf_api
FeatureSet
p3184
(dp3185
g12
(dp3186
S'posn'
p3187
S'40'
p3188
sS'name'
p3189
S'\xe0\xa4\x85\xe0\xa4\x82\xe0\xa4\xa4\xe0\xa4\xbf\xe0\xa4\xae'
p3190
sS'drel'
p3191
S'nmod__adj:NP3'
p3192
sS'chunktype'
p3193
S'child:NP3'
p3194
sS'af'
p3195
S'\xe0\xa4\x85\xe0\xa4\x82\xe0\xa4\xa4\xe0\xa4\xbf\xe0\xa4\xae,adj,any,any,,o,,'
p3196
ssbsg26
I00
sg27
I00
sg28
Nsg29
Nsg30
I2
sg31
I8
sg32
Nsg33
Nsg34
S'JJ'
p3197
sg36
g3184
sg37
I00
sba(issf_api
Word
p3198
(dp3199
g6
I00
sg7
V\u0926\u0930\u094d\u0936\u0928\u094b\u0902
p3200
sg9
(issf_api
FeatureSet
p3201
(dp3202
g12
(dp3203
S'posn'
p3204
S'50'
p3205
sS'name'
p3206
S'\xe0\xa4\xa6\xe0\xa4\xb0\xe0\xa5\x8d\xe0\xa4\xb6\xe0\xa4\xa8\xe0\xa5\x8b\xe0\xa4\x82'
p3207
sS'af'
p3208
S'\xe0\xa4\xa6\xe0\xa4\xb0\xe0\xa5\x8d\xe0\xa4\xb6\xe0\xa4\xa8,n,m,pl,3,o,0_\xe0\xa4\x95\xe0\xa5\x8b,0'
p3209
sS'chunkid'
p3210
S'NP3'
p3211
sS'drel'
p3212
S'k2:VGF'
p3213
sS'vpos'
p3214
S'vib_3'
p3215
sS'chunktype'
p3216
S'head:NP3'
p3217
ssbsg26
I00
sg27
I00
sg28
Nsg29
Nsg30
I2
sg31
I8
sg32
Nsg33
Nsg34
S'NN'
p3218
sg36
g3201
sg37
I00
sba(issf_api
Word
p3219
(dp3220
g6
I00
sg7
V\u0915\u094b
p3221
sg9
(issf_api
FeatureSet
p3222
(dp3223
g12
(dp3224
S'posn'
p3225
S'60'
p3226
sS'name'
p3227
S'\xe0\xa4\x95\xe0\xa5\x8b'
p3228
sS'drel'
p3229
S'lwg__psp:NP3'
p3230
sS'chunktype'
p3231
S'child:NP3'
p3232
sS'af'
p3233
S'\xe0\xa4\x95\xe0\xa5\x8b,psp,,,,,,'
p3234
ssbsg26
I00
sg27
I00
sg28
Nsg29
Nsg30
I2
sg31
I8
sg32
Nsg33
Nsg34
S'PSP'
p3235
sg36
g3222
sg37
I00
sba(issf_api
Word
p3236
(dp3237
g6
I00
sg7
V\u0932\u0917\u093e\u0924\u093e\u0930
p3238
sg9
(issf_api
FeatureSet
p3239
(dp3240
g12
(dp3241
S'posn'
p3242
S'70'
p3243
sS'name'
p3244
S'\xe0\xa4\xb2\xe0\xa4\x97\xe0\xa4\xbe\xe0\xa4\xa4\xe0\xa4\xbe\xe0\xa4\xb0'
p3245
sS'af'
p3246
S'\xe0\xa4\xb2\xe0\xa4\x97\xe0\xa4\xbe\xe0\xa4\xa4\xe0\xa4\xbe\xe0\xa4\xb0,adv,,,,,,'
p3247
sS'chunkid'
p3248
S'RBP'
p3249
sS'drel'
p3250
S'adv:VGF'
p3251
sS'chunktype'
p3252
S'head:RBP'
p3253
ssbsg26
I00
sg27
I00
sg28
Nsg29
Nsg30
I3
sg31
I8
sg32
Nsg33
Nsg34
S'RB'
p3254
sg36
g3239
sg37
I00
sba(issf_api
Word
p3255
(dp3256
g6
I00
sg7
V\u0939\u091c\u093e\u0930\u094b\u0902
p3257
sg9
(issf_api
FeatureSet
p3258
(dp3259
g12
(dp3260
S'posn'
p3261
S'80'
p3262
sS'name'
p3263
S'\xe0\xa4\xb9\xe0\xa4\x9c\xe0\xa4\xbe\xe0\xa4\xb0\xe0\xa5\x8b\xe0\xa4\x82'
p3264
sS'af'
p3265
S'\xe0\xa4\xb9\xe0\xa4\x9c\xe0\xa4\xbe\xe0\xa4\xb0,n,m,pl,3,o,0_\xe0\xa4\x95\xe0\xa4\xbe,0'
p3266
sS'chunkid'
p3267
S'NP4'
p3268
sS'drel'
p3269
S'r6:NP5'
p3270
sS'vpos'
p3271
S'vib_2'
p3272
sS'chunktype'
p3273
S'head:NP4'
p3274
ssbsg26
I00
sg27
I00
sg28
Nsg29
Nsg30
I4
sg31
I8
sg32
Nsg33
Nsg34
S'NN'
p3275
sg36
g3258
sg37
I00
sba(issf_api
Word
p3276
(dp3277
g6
I00
sg7
V\u0915\u0940
p3278
sg9
(issf_api
FeatureSet
p3279
(dp3280
g12
(dp3281
S'posn'
p3282
S'90'
p3283
sS'name'
p3284
S'\xe0\xa4\x95\xe0\xa5\x80'
p3285
sS'drel'
p3286
S'lwg__psp:NP4'
p3287
sS'chunktype'
p3288
S'child:NP4'
p3289
sS'af'
p3290
S'\xe0\xa4\x95\xe0\xa4\xbe,psp,f,sg,,o,,'
p3291
ssbsg26
I00
sg27
I00
sg28
Nsg29
Nsg30
I4
sg31
I8
sg32
Nsg33
Nsg34
S'PSP'
p3292
sg36
g3279
sg37
I00
sba(issf_api
Word
p3293
(dp3294
g6
I00
sg7
V\u0938\u0902\u0916\u094d\u092f\u093e
p3295
sg9
(issf_api
FeatureSet
p3296
(dp3297
g12
(dp3298
S'posn'
p3299
S'100'
p3300
sS'name'
p3301
S'\xe0\xa4\xb8\xe0\xa4\x82\xe0\xa4\x96\xe0\xa5\x8d\xe0\xa4\xaf\xe0\xa4\xbe'
p3302
sS'af'
p3303
S'\xe0\xa4\xb8\xe0\xa4\x82\xe0\xa4\x96\xe0\xa5\x8d\xe0\xa4\xaf\xe0\xa4\xbe,n,f,sg,3,o,0_\xe0\xa4\xae\xe0\xa5\x87\xe0\xa4\x82,0'
p3304
sS'chunkid'
p3305
S'NP5'
p3306
sS'drel'
p3307
S'k7:VGF'
p3308
sS'vpos'
p3309
S'vib_2'
p3310
sS'chunktype'
p3311
S'head:NP5'
p3312
ssbsg26
I00
sg27
I00
sg28
Nsg29
Nsg30
I5
sg31
I8
sg32
Nsg33
Nsg34
S'NN'
p3313
sg36
g3296
sg37
I00
sba(issf_api
Word
p3314
(dp3315
g6
I00
sg7
V\u092e\u0947\u0902
p3316
sg9
(issf_api
FeatureSet
p3317
(dp3318
g12
(dp3319
S'posn'
p3320
S'110'
p3321
sS'name'
p3322
S'\xe0\xa4\xae\xe0\xa5\x87\xe0\xa4\x82'
p3323
sS'drel'
p3324
S'lwg__psp:NP5'
p3325
sS'chunktype'
p3326
S'child:NP5'
p3327
sS'af'
p3328
S'\xe0\xa4\xae\xe0\xa5\x87\xe0\xa4\x82,psp,,,,,,'
p3329
ssbsg26
I00
sg27
I00
sg28
Nsg29
Nsg30
I5
sg31
I8
sg32
Nsg33
Nsg34
S'PSP'
p3330
sg36
g3317
sg37
I00
sba(issf_api
Word
p3331
(dp3332
g6
I00
sg7
V\u0936\u094d\u0930\u0926\u094d\u0927\u093e\u0932\u0941
p3333
sg9
(issf_api
FeatureSet
p3334
(dp3335
g12
(dp3336
S'posn'
p3337
S'120'
p3338
sS'name'
p3339
S'\xe0\xa4\xb6\xe0\xa5\x8d\xe0\xa4\xb0\xe0\xa4\xa6\xe0\xa5\x8d\xe0\xa4\xa7\xe0\xa4\xbe\xe0\xa4\xb2\xe0\xa5\x81'
p3340
sS'af'
p3341
S'\xe0\xa4\xb6\xe0\xa5\x8d\xe0\xa4\xb0\xe0\xa4\xa6\xe0\xa5\x8d\xe0\xa4\xa7\xe0\xa4\xbe\xe0\xa4\xb2\xe0\xa5\x81,n,m,pl,3,d,0,0'
p3342
sS'chunkid'
p3343
S'NP6'
p3344
sS'drel'
p3345
S'k1:VGF'
p3346
sS'chunktype'
p3347
S'head:NP6'
p3348
ssbsg26
I00
sg27
I00
sg28
Nsg29
Nsg30
I6
sg31
I8
sg32
Nsg33
Nsg34
S'NN'
p3349
sg36
g3334
sg37
I00
sba(issf_api
Word
p3350
(dp3351
g6
I00
sg7
V\u0906\u0924\u0947
p3352
sg9
(issf_api
FeatureSet
p3353
(dp3354
g12
(dp3355
S'posn'
p3356
S'130'
p3357
sS'name'
p3358
S'\xe0\xa4\x86\xe0\xa4\xa4\xe0\xa5\x87'
p3359
sS'af'
p3360
S'\xe0\xa4\x86,v,m,pl,any,,\xe0\xa4\xa4\xe0\xa4\xbe_\xe0\xa4\xb0\xe0\xa4\xb9+\xe0\xa4\xaf\xe0\xa4\xbe,wA'
p3361
sS'chunkid'
p3362
S'VGF'
p3363
sS'chunktype'
p3364
S'head:VGF'
p3365
sS'voicetype'
p3366
S'active'
p3367
sS'vpos'
p3368
S'tam_2'
p3369
sS'stype'
p3370
S'declarative'
p3371
ssbsg26
I00
sg27
I00
sg28
Nsg29
Nsg30
I7
sg31
I8
sg32
Nsg33
Nsg34
S'VM'
p3372
sg36
g3353
sg37
I00
sba(issf_api
Word
p3373
(dp3374
g6
I00
sg7
V\u0930\u0939\u0947
p3375
sg9
(issf_api
FeatureSet
p3376
(dp3377
g12
(dp3378
S'posn'
p3379
S'140'
p3380
sS'name'
p3381
S'\xe0\xa4\xb0\xe0\xa4\xb9\xe0\xa5\x87'
p3382
sS'drel'
p3383
S'lwg__vaux:VGF'
p3384
sS'chunktype'
p3385
S'child:VGF'
p3386
sS'af'
p3387
S'\xe0\xa4\xb0\xe0\xa4\xb9,v,m,pl,any,,\xe0\xa4\xaf\xe0\xa4\xbe,yA'
p3388
ssbsg26
I00
sg27
I00
sg28
Nsg29
Nsg30
I7
sg31
I8
sg32
Nsg33
Nsg34
S'VAUX'
p3389
sg36
g3376
sg37
I00
sba(issf_api
Word
p3390
(dp3391
g6
I00
sg7
V\u0964
p3392
sg9
(issf_api
FeatureSet
p3393
(dp3394
g12
(dp3395
S'posn'
p3396
S'150'
p3397
sS'name'
p3398
S'\xe0\xa5\xa4'
p3399
sS'af'
p3400
S'\xe0\xa5\xa4,punc,,,,,,'
p3401
sS'chunkid'
p3402
S'BLK'
p3403
sS'drel'
p3404
S'rsym:VGF'
p3405
sS'chunktype'
p3406
S'head:BLK'
p3407
ssbsg26
I00
sg27
I00
sg28
Nsg29
Nsg30
I8
sg31
I8
sg32
Nsg33
Nsg34
S'SYM'
p3408
sg36
g3393
sg37
I00
sba(issf_api
Word
p3409
(dp3410
g6
I00
sg7
V\u0936\u093e\u0902\u0924\u093f\u0915\u0941\u0902\u091c
p3411
sg9
(issf_api
FeatureSet
p3412
(dp3413
g12
(dp3414
S'crefhead'
p3415
S'\xe0\xa4\xb6\xe0\xa4\xbe\xe0\xa4\x82\xe0\xa4\xa4\xe0\xa4\xbf\xe0\xa4\x95\xe0\xa5\x81\xe0\xa4\x82\xe0\xa4\x9c:i19'
p3416
sS'posn'
p3417
S'10'
p3418
sS'name'
p3419
S'\xe0\xa4\xb6\xe0\xa4\xbe\xe0\xa4\x82\xe0\xa4\xa4\xe0\xa4\xbf\xe0\xa4\x95\xe0\xa5\x81\xe0\xa4\x82\xe0\xa4\x9c'
p3420
sS'af'
p3421
S'\xe0\xa4\xb6\xe0\xa4\xbe\xe0\xa4\x82\xe0\xa4\xa4\xe0\xa4\xbf\xe0\xa4\x95\xe0\xa5\x81\xe0\xa4\x82\xe0\xa4\x9c,n,m,sg,3,o,0_\xe0\xa4\xb8\xe0\xa5\x87,0'
p3422
sS'chunkid'
p3423
S'NP'
p3424
sS'chunktype'
p3425
S'head:NP'
p3426
sS'crefchainhead'
p3427
S'i19:t8'
p3428
sS'vpos'
p3429
S'vib_2'
p3430
sS'cref'
p3431
S'i19%1:t8'
p3432
sS'drel'
p3433
S'k5:VGNF'
p3434
ssbsg26
I00
sg27
I00
sg28
Nsg29
Nsg30
I0
sg31
I9
sg32
Nsg33
Nsg34
S'NNP'
p3435
sg36
g3412
sg37
I00
sba(issf_api
Word
p3436
(dp3437
g6
I00
sg7
V\u0938\u0947
p3438
sg9
(issf_api
FeatureSet
p3439
(dp3440
g12
(dp3441
S'posn'
p3442
S'20'
p3443
sS'name'
p3444
S'\xe0\xa4\xb8\xe0\xa5\x87'
p3445
sS'drel'
p3446
S'lwg__psp:NP'
p3447
sS'chunktype'
p3448
S'child:NP'
p3449
sS'af'
p3450
S'\xe0\xa4\xb8\xe0\xa5\x87,psp,,,,,,'
p3451
ssbsg26
I00
sg27
I00
sg28
Nsg29
Nsg30
I0
sg31
I9
sg32
Nsg33
Nsg34
S'PSP'
p3452
sg36
g3439
sg37
I00
sba(issf_api
Word
p3453
(dp3454
g6
I00
sg7
V\u0906\u0930\u0902\u092d
p3455
sg9
(issf_api
FeatureSet
p3456
(dp3457
g12
(dp3458
S'posn'
p3459
S'30'
p3460
sS'name'
p3461
S'\xe0\xa4\x86\xe0\xa4\xb0\xe0\xa4\x82\xe0\xa4\xad'
p3462
sS'af'
p3463
S'\xe0\xa4\x86\xe0\xa4\xb0\xe0\xa4\xae\xe0\xa5\x8d\xe0\xa4\xad,n,m,sg,3,d,0,0'
p3464
sS'chunkid'
p3465
S'NP2'
p3466
sS'drel'
p3467
S'pof:VGNF'
p3468
sS'chunktype'
p3469
S'head:NP2'
p3470
ssbsg26
I00
sg27
I00
sg28
Nsg29
Nsg30
I1
sg31
I9
sg32
Nsg33
Nsg34
S'NN'
p3471
sg36
g3456
sg37
I00
sba(issf_api
Word
p3472
(dp3473
g6
I00
sg7
V\u0939\u0941\u0908
p3474
sg9
(issf_api
FeatureSet
p3475
(dp3476
g12
(dp3477
S'posn'
p3478
S'40'
p3479
sS'name'
p3480
S'\xe0\xa4\xb9\xe0\xa5\x81\xe0\xa4\x88'
p3481
sS'af'
p3482
S'\xe0\xa4\xb9\xe0\xa5\x8b,v,f,sg,any,,\xe0\xa4\xaf\xe0\xa4\xbe,yA'
p3483
sS'chunkid'
p3484
S'VGNF'
p3485
sS'drel'
p3486
S'nmod__k1inv:NP3'
p3487
sS'chunktype'
p3488
S'head:VGNF'
p3489
ssbsg26
I00
sg27
I00
sg28
Nsg29
Nsg30
I2
sg31
I9
sg32
Nsg33
Nsg34
S'VM'
p3490
sg36
g3475
sg37
I00
sba(issf_api
Word
p3491
(dp3492
g6
I00
sg7
V\u0936\u0935\u092f\u093e\u0924\u094d\u0930\u093e
p3493
sg9
(issf_api
FeatureSet
p3494
(dp3495
g12
(dp3496
S'posn'
p3497
S'50'
p3498
sS'name'
p3499
S'\xe0\xa4\xb6\xe0\xa4\xb5\xe0\xa4\xaf\xe0\xa4\xbe\xe0\xa4\xa4\xe0\xa5\x8d\xe0\xa4\xb0\xe0\xa4\xbe'
p3500
sS'af'
p3501
S'\xe0\xa4\xb6\xe0\xa4\xb5\xe0\xa4\xaf\xe0\xa4\xbe\xe0\xa4\xa4\xe0\xa5\x8d\xe0\xa4\xb0\xe0\xa4\xbe,n,f,sg,3,d,0,0'
p3502
sS'chunkid'
p3503
S'NP3'
p3504
sS'drel'
p3505
S'k1:VGF'
p3506
sS'chunktype'
p3507
S'head:NP3'
p3508
ssbsg26
I00
sg27
I00
sg28
Nsg29
Nsg30
I3
sg31
I9
sg32
Nsg33
Nsg34
S'NN'
p3509
sg36
g3494
sg37
I00
sba(issf_api
Word
p3510
(dp3511
g6
I00
sg7
V\u0936\u0941\u0915\u0926\u0947\u0935
p3512
sg9
(issf_api
FeatureSet
p3513
(dp3514
g12
(dp3515
S'crefhead'
p3516
S'\xe0\xa4\xb6\xe0\xa5\x81\xe0\xa4\x95\xe0\xa4\xa6\xe0\xa5\x87\xe0\xa4\xb5:i20'
p3517
sS'posn'
p3518
S'60'
p3519
sS'name'
p3520
S'\xe0\xa4\xb6\xe0\xa5\x81\xe0\xa4\x95\xe0\xa4\xa6\xe0\xa5\x87\xe0\xa4\xb5'
p3521
sS'af'
p3522
S'\xe0\xa4\xb6\xe0\xa5\x81\xe0\xa4\x95\xe0\xa4\xa6\xe0\xa5\x87\xe0\xa4\xb5,n,m,sg,3,o,0_\xe0\xa4\x95\xe0\xa4\xbe,0'
p3523
sS'chunkid'
p3524
S'NP4'
p3525
sS'creftype'
p3526
S'Coreference-Identity:i4'
p3527
sS'chunktype'
p3528
S'head:NP4'
p3529
sS'vpos'
p3530
S'vib_RP_3'
p3531
sS'cref'
p3532
S'i20%0:t2'
p3533
sS'drel'
p3534
S'r6:NP5'
p3535
ssbsg26
I00
sg27
I00
sg28
Nsg29
Nsg30
I4
sg31
I9
sg32
Nsg33
Nsg34
S'NNP'
p3536
sg36
g3513
sg37
I00
sba(issf_api
Word
p3537
(dp3538
g6
I00
sg7
V\u091c\u0940
p3539
sg9
(issf_api
FeatureSet
p3540
(dp3541
g12
(dp3542
S'posn'
p3543
S'70'
p3544
sS'name'
p3545
S'\xe0\xa4\x9c\xe0\xa5\x80'
p3546
sS'af'
p3547
S'\xe0\xa4\x9c\xe0\xa5\x80,avy,,,,,,'
p3548
sS'drel'
p3549
S'lwg__rp:NP4'
p3550
sS'chunktype'
p3551
S'child:NP4'
p3552
sS'cref'
p3553
S'i20%1:t2'
p3554
ssbsg26
I00
sg27
I00
sg28
Nsg29
Nsg30
I4
sg31
I9
sg32
Nsg33
Nsg34
S'RP'
p3555
sg36
g3540
sg37
I00
sba(issf_api
Word
p3556
(dp3557
g6
I00
sg7
V\u0915\u0947
p3558
sg9
(issf_api
FeatureSet
p3559
(dp3560
g12
(dp3561
S'posn'
p3562
S'80'
p3563
sS'name'
p3564
S'\xe0\xa4\x95\xe0\xa5\x87'
p3565
sS'drel'
p3566
S'lwg__psp:NP4'
p3567
sS'chunktype'
p3568
S'child:NP4'
p3569
sS'af'
p3570
S'\xe0\xa4\x95\xe0\xa4\xbe,psp,m,sg,,o,,'
p3571
ssbsg26
I00
sg27
I00
sg28
Nsg29
Nsg30
I4
sg31
I9
sg32
Nsg33
Nsg34
S'PSP'
p3572
sg36
g3559
sg37
I00
sba(issf_api
Word
p3573
(dp3574
g6
I00
sg7
V\u0906\u0936\u094d\u0930\u092e
p3575
sg9
(issf_api
FeatureSet
p3576
(dp3577
g12
(dp3578
S'posn'
p3579
S'90'
p3580
sS'name'
p3581
S'\xe0\xa4\x86\xe0\xa4\xb6\xe0\xa5\x8d\xe0\xa4\xb0\xe0\xa4\xae'
p3582
sS'af'
p3583
S'\xe0\xa4\x86\xe0\xa4\xb6\xe0\xa5\x8d\xe0\xa4\xb0\xe0\xa4\xae,n,m,sg,3,o,0_\xe0\xa4\xaa\xe0\xa4\xb0,0'
p3584
sS'chunkid'
p3585
S'NP5'
p3586
sS'drel'
p3587
S'k7p:VGF'
p3588
sS'vpos'
p3589
S'vib_2'
p3590
sS'chunktype'
p3591
S'head:NP5'
p3592
ssbsg26
I00
sg27
I00
sg28
Nsg29
Nsg30
I5
sg31
I9
sg32
Nsg33
Nsg34
S'NN'
p3593
sg36
g3576
sg37
I00
sba(issf_api
Word
p3594
(dp3595
g6
I00
sg7
V\u092a\u0930
p3596
sg9
(issf_api
FeatureSet
p3597
(dp3598
g12
(dp3599
S'posn'
p3600
S'100'
p3601
sS'name'
p3602
S'\xe0\xa4\xaa\xe0\xa4\xb0'
p3603
sS'drel'
p3604
S'lwg__psp:NP5'
p3605
sS'chunktype'
p3606
S'child:NP5'
p3607
sS'af'
p3608
S'\xe0\xa4\xaa\xe0\xa4\xb0,psp,,,,,,'
p3609
ssbsg26
I00
sg27
I00
sg28
Nsg29
Nsg30
I5
sg31
I9
sg32
Nsg33
Nsg34
S'PSP'
p3610
sg36
g3597
sg37
I00
sba(issf_api
Word
p3611
(dp3612
g6
I00
sg7
V\u0938\u0902\u092a\u0928\u094d\u0928
p3613
sg9
(issf_api
FeatureSet
p3614
(dp3615
g12
(dp3616
S'posn'
p3617
S'110'
p3618
sS'name'
p3619
S'\xe0\xa4\xb8\xe0\xa4\x82\xe0\xa4\xaa\xe0\xa4\xa8\xe0\xa5\x8d\xe0\xa4\xa8'
p3620
sS'af'
p3621
S'\xe0\xa4\xb8\xe0\xa4\x82\xe0\xa4\xaa\xe0\xa4\xa8\xe0\xa5\x8d\xe0\xa4\xa8,adj,any,any,,,,'
p3622
sS'chunkid'
p3623
S'JJP'
p3624
sS'drel'
p3625
S'pof:VGF'
p3626
sS'chunktype'
p3627
S'head:JJP'
p3628
ssbsg26
I00
sg27
I00
sg28
Nsg29
Nsg30
I6
sg31
I9
sg32
Nsg33
Nsg34
S'JJ'
p3629
sg36
g3614
sg37
I00
sba(issf_api
Word
p3630
(dp3631
g6
I00
sg7
V\u0939\u0941\u0908
p3632
sg9
(issf_api
FeatureSet
p3633
(dp3634
g12
(dp3635
S'posn'
p3636
S'120'
p3637
sS'name'
p3638
S'\xe0\xa4\xb9\xe0\xa5\x81\xe0\xa4\x882'
p3639
sS'af'
p3640
S'\xe0\xa4\xb9\xe0\xa5\x8b,v,f,sg,any,,\xe0\xa4\xaf\xe0\xa4\xbe,yA'
p3641
sS'chunkid'
p3642
S'VGF'
p3643
sS'stype'
p3644
S'declarative'
p3645
sS'drel'
p3646
S'ccof:CCP'
p3647
sS'voicetype'
p3648
S'active'
p3649
sS'chunktype'
p3650
S'head:VGF'
p3651
ssbsg26
I00
sg27
I00
sg28
Nsg29
Nsg30
I7
sg31
I9
sg32
Nsg33
Nsg34
S'VM'
p3652
sg36
g3633
sg37
I00
sba(issf_api
Word
p3653
(dp3654
g6
I00
sg7
V\u0914\u0930
p3655
sg9
(issf_api
FeatureSet
p3656
(dp3657
g12
(dp3658
S'posn'
p3659
S'130'
p3660
sS'chunkid'
p3661
S'CCP'
p3662
sS'name'
p3663
S'\xe0\xa4\x94\xe0\xa4\xb0'
p3664
sS'chunktype'
p3665
S'head:CCP'
p3666
sS'af'
p3667
S'\xe0\xa4\x94\xe0\xa4\xb0,avy,,,,,,'
p3668
ssbsg26
I00
sg27
I00
sg28
Nsg29
Nsg30
I8
sg31
I9
sg32
Nsg33
Nsg34
S'CC'
p3669
sg36
g3656
sg37
I00
sba(issf_api
Word
p3670
(dp3671
g6
I00
sg7
V\u0936\u093e\u0902\u0924\u093f\u0915\u0941\u0902\u091c
p3672
sg9
(issf_api
FeatureSet
p3673
(dp3674
g12
(dp3675
S'crefhead'
p3676
S'\xe0\xa4\xb6\xe0\xa4\xbe\xe0\xa4\x82\xe0\xa4\xa4\xe0\xa4\xbf\xe0\xa4\x95\xe0\xa5\x81\xe0\xa4\x82\xe0\xa4\x9c:i21'
p3677
sS'posn'
p3678
S'140'
p3679
sS'name'
p3680
S'\xe0\xa4\xb6\xe0\xa4\xbe\xe0\xa4\x82\xe0\xa4\xa4\xe0\xa4\xbf\xe0\xa4\x95\xe0\xa5\x81\xe0\xa4\x82\xe0\xa4\x9c2'
p3681
sS'af'
p3682
S'\xe0\xa4\xb6\xe0\xa4\xbe\xe0\xa4\x82\xe0\xa4\xa4\xe0\xa4\xbf\xe0\xa4\x95\xe0\xa5\x81\xe0\xa4\x82\xe0\xa4\x9c,n,m,sg,3,o,0_\xe0\xa4\x95\xe0\xa4\xbe,0'
p3683
sS'chunkid'
p3684
S'NP6'
p3685
sS'creftype'
p3686
S'Coreference-Identity:i19'
p3687
sS'chunktype'
p3688
S'head:NP6'
p3689
sS'vpos'
p3690
S'vib_2'
p3691
sS'cref'
p3692
S'i21%1:t8'
p3693
sS'drel'
p3694
S'r6:NP7'
p3695
ssbsg26
I00
sg27
I00
sg28
Nsg29
Nsg30
I9
sg31
I9
sg32
Nsg33
Nsg34
S'NNP'
p3696
sg36
g3673
sg37
I00
sba(issf_api
Word
p3697
(dp3698
g6
I00
sg7
V\u0915\u0947
p3699
sg9
(issf_api
FeatureSet
p3700
(dp3701
g12
(dp3702
S'posn'
p3703
S'150'
p3704
sS'name'
p3705
S'\xe0\xa4\x95\xe0\xa5\x872'
p3706
sS'drel'
p3707
S'lwg__psp:NP6'
p3708
sS'chunktype'
p3709
S'child:NP6'
p3710
sS'af'
p3711
S'\xe0\xa4\x95\xe0\xa4\xbe,psp,m,pl,,o,,'
p3712
ssbsg26
I00
sg27
I00
sg28
Nsg29
Nsg30
I9
sg31
I9
sg32
Nsg33
Nsg34
S'PSP'
p3713
sg36
g3700
sg37
I00
sba(issf_api
Word
p3714
(dp3715
g6
I00
sg7
V\u0938\u093e\u0927\u0915\u094b\u0902
p3716
sg9
(issf_api
FeatureSet
p3717
(dp3718
g12
(dp3719
S'posn'
p3720
S'160'
p3721
sS'name'
p3722
S'\xe0\xa4\xb8\xe0\xa4\xbe\xe0\xa4\xa7\xe0\xa4\x95\xe0\xa5\x8b\xe0\xa4\x82'
p3723
sS'af'
p3724
S'\xe0\xa4\xb8\xe0\xa4\xbe\xe0\xa4\xa7\xe0\xa4\x95,n,m,pl,3,o,0_\xe0\xa4\xa8\xe0\xa5\x87,0'
p3725
sS'chunkid'
p3726
S'NP7'
p3727
sS'drel'
p3728
S'k1:VGF2'
p3729
sS'vpos'
p3730
S'vib_2'
p3731
sS'chunktype'
p3732
S'head:NP7'
p3733
ssbsg26
I00
sg27
I00
sg28
Nsg29
Nsg30
I10
sg31
I9
sg32
Nsg33
Nsg34
S'NN'
p3734
sg36
g3717
sg37
I00
sba(issf_api
Word
p3735
(dp3736
g6
I00
sg7
V\u0928\u0947
p3737
sg9
(issf_api
FeatureSet
p3738
(dp3739
g12
(dp3740
S'posn'
p3741
S'170'
p3742
sS'name'
p3743
S'\xe0\xa4\xa8\xe0\xa5\x87'
p3744
sS'drel'
p3745
S'lwg__psp:NP7'
p3746
sS'chunktype'
p3747
S'child:NP7'
p3748
sS'af'
p3749
S'\xe0\xa4\xa8\xe0\xa5\x87,psp,,,,,,'
p3750
ssbsg26
I00
sg27
I00
sg28
Nsg29
Nsg30
I10
sg31
I9
sg32
Nsg33
Nsg34
S'PSP'
p3751
sg36
g3738
sg37
I00
sba(issf_api
Word
p3752
(dp3753
g6
I00
sg7
V\u092e\u0902\u0924\u094d\u0930\u094b\u091a\u094d\u091a\u093e\u0930\u094b\u0902
p3754
sg9
(issf_api
FeatureSet
p3755
(dp3756
g12
(dp3757
S'posn'
p3758
S'180'
p3759
sS'name'
p3760
S'\xe0\xa4\xae\xe0\xa4\x82\xe0\xa4\xa4\xe0\xa5\x8d\xe0\xa4\xb0\xe0\xa5\x8b\xe0\xa4\x9a\xe0\xa5\x8d\xe0\xa4\x9a\xe0\xa4\xbe\xe0\xa4\xb0\xe0\xa5\x8b\xe0\xa4\x82'
p3761
sS'af'
p3762
S'\xe0\xa4\xae\xe0\xa4\x82\xe0\xa4\xa4\xe0\xa5\x8d\xe0\xa4\xb0\xe0\xa5\x8b\xe0\xa4\x9a\xe0\xa5\x8d\xe0\xa4\x9a\xe0\xa4\xbe\xe0\xa4\xb0,n,m,pl,3,o,0,0'
p3763
sS'chunkid'
p3764
S'NP8'
p3765
sS'drel'
p3766
S'ccof:CCP2'
p3767
sS'chunktype'
p3768
S'head:NP8'
p3769
ssbsg26
I00
sg27
I00
sg28
Nsg29
Nsg30
I11
sg31
I9
sg32
Nsg33
Nsg34
S'NN'
p3770
sg36
g3755
sg37
I00
sba(issf_api
Word
p3771
(dp3772
g6
I00
sg7
V\u0914\u0930
p3773
sg9
(issf_api
FeatureSet
p3774
(dp3775
g12
(dp3776
S'posn'
p3777
S'190'
p3778
sS'name'
p3779
S'\xe0\xa4\x94\xe0\xa4\xb02'
p3780
sS'af'
p3781
S'\xe0\xa4\x94\xe0\xa4\xb0,avy,,,,,,'
p3782
sS'chunkid'
p3783
S'CCP2'
p3784
sS'drel'
p3785
S'k7:VGF2'
p3786
sS'chunktype'
p3787
S'head:CCP2'
p3788
ssbsg26
I00
sg27
I00
sg28
Nsg29
Nsg30
I12
sg31
I9
sg32
Nsg33
Nsg34
S'CC'
p3789
sg36
g3774
sg37
I00
sba(issf_api
Word
p3790
(dp3791
g6
I00
sg7
V\u092d\u093e\u0935
p3792
sg9
(issf_api
FeatureSet
p3793
(dp3794
g12
(dp3795
S'posn'
p3796
S'200'
p3797
sS'name'
p3798
S'\xe0\xa4\xad\xe0\xa4\xbe\xe0\xa4\xb5'
p3799
sS'drel'
p3800
S'mod:NP9'
p3801
sS'chunktype'
p3802
S'child:NP9'
p3803
sS'af'
p3804
S'\xe0\xa4\xad\xe0\xa4\xbe\xe0\xa4\xb5,n,m,sg,3,d,0,0'
p3805
ssbsg26
I00
sg27
I00
sg28
Nsg29
Nsg30
I13
sg31
I9
sg32
Nsg33
Nsg34
S'JJC'
p3806
sg36
g3793
sg37
I00
sba(issf_api
Word
p3807
(dp3808
g6
I00
sg7
V\u0935\u093f\u0939\u094d\u0932\u0932
p3809
sg9
(issf_api
FeatureSet
p3810
(dp3811
g12
(dp3812
S'posn'
p3813
S'210'
p3814
sS'name'
p3815
S'\xe0\xa4\xb5\xe0\xa4\xbf\xe0\xa4\xb9\xe0\xa5\x8d\xe0\xa4\xb2\xe0\xa4\xb2'
p3816
sS'drel'
p3817
S'nmod__adj:NP9'
p3818
sS'chunktype'
p3819
S'child:NP9'
p3820
sS'af'
p3821
S'\xe0\xa4\xb5\xe0\xa4\xbf\xe0\xa4\xb9\xe0\xa5\x8d\xe0\xa4\xb2\xe0\xa4\xb2,adj,any,any,,o,,'
p3822
ssbsg26
I00
sg27
I00
sg28
Nsg29
Nsg30
I13
sg31
I9
sg32
Nsg33
Nsg34
S'JJ'
p3823
sg36
g3810
sg37
I00
sba(issf_api
Word
p3824
(dp3825
g6
I00
sg7
V\u092e\u093e\u0939\u094c\u0932
p3826
sg9
(issf_api
FeatureSet
p3827
(dp3828
g12
(dp3829
S'posn'
p3830
S'220'
p3831
sS'name'
p3832
S'\xe0\xa4\xae\xe0\xa4\xbe\xe0\xa4\xb9\xe0\xa5\x8c\xe0\xa4\xb2'
p3833
sS'af'
p3834
S'\xe0\xa4\xae\xe0\xa4\xbe\xe0\xa4\xb9\xe0\xa5\x8c\xe0\xa4\xb2,n,m,sg,3,o,0_\xe0\xa4\xae\xe0\xa5\x87\xe0\xa4\x82,0'
p3835
sS'chunkid'
p3836
S'NP9'
p3837
sS'drel'
p3838
S'ccof:CCP2'
p3839
sS'vpos'
p3840
S'vib_4'
p3841
sS'chunktype'
p3842
S'head:NP9'
p3843
ssbsg26
I00
sg27
I00
sg28
Nsg29
Nsg30
I13
sg31
I9
sg32
Nsg33
Nsg34
S'NN'
p3844
sg36
g3827
sg37
I00
sba(issf_api
Word
p3845
(dp3846
g6
I00
sg7
V\u092e\u0947\u0902
p3847
sg9
(issf_api
FeatureSet
p3848
(dp3849
g12
(dp3850
S'posn'
p3851
S'230'
p3852
sS'name'
p3853
S'\xe0\xa4\xae\xe0\xa5\x87\xe0\xa4\x82'
p3854
sS'drel'
p3855
S'lwg__psp:NP9'
p3856
sS'chunktype'
p3857
S'child:NP9'
p3858
sS'af'
p3859
S'\xe0\xa4\xae\xe0\xa5\x87\xe0\xa4\x82,psp,,,,,,'
p3860
ssbsg26
I00
sg27
I00
sg28
Nsg29
Nsg30
I13
sg31
I9
sg32
Nsg33
Nsg34
S'PSP'
p3861
sg36
g3848
sg37
I00
sba(issf_api
Word
p3862
(dp3863
g6
I00
sg7
V\u0938\u094d\u0935\u093e\u092e\u0940
p3864
sg9
(issf_api
FeatureSet
p3865
(dp3866
g12
(dp3867
S'crefhead'
p3868
S'\xe0\xa4\xb8\xe0\xa5\x8d\xe0\xa4\xb5\xe0\xa4\xbe\xe0\xa4\xae\xe0\xa5\x80:i22'
p3869
sS'posn'
p3870
S'240'
p3871
sS'name'
p3872
S'\xe0\xa4\xb8\xe0\xa5\x8d\xe0\xa4\xb5\xe0\xa4\xbe\xe0\xa4\xae\xe0\xa5\x80'
p3873
sS'af'
p3874
S'\xe0\xa4\xb8\xe0\xa5\x8d\xe0\xa4\xb5\xe0\xa4\xbe\xe0\xa4\xae\xe0\xa5\x80,n,m,sg,3,o,0_\xe0\xa4\x95\xe0\xa5\x8b,0'
p3875
sS'chunkid'
p3876
S'NP10'
p3877
sS'creftype'
p3878
S'Coreference-Identity:i18'
p3879
sS'chunktype'
p3880
S'head:NP10'
p3881
sS'vpos'
p3882
S'vib_RP_3'
p3883
sS'cref'
p3884
S'i22%0:t1'
p3885
sS'drel'
p3886
S'k4:VGF2'
p3887
ssbsg26
I00
sg27
I00
sg28
Nsg29
Nsg30
I14
sg31
I9
sg32
Nsg33
Nsg34
S'NN'
p3888
sg36
g3865
sg37
I00
sba(issf_api
Word
p3889
(dp3890
g6
I00
sg7
V\u091c\u0940
p3891
sg9
(issf_api
FeatureSet
p3892
(dp3893
g12
(dp3894
S'posn'
p3895
S'250'
p3896
sS'name'
p3897
S'\xe0\xa4\x9c\xe0\xa5\x802'
p3898
sS'af'
p3899
S'\xe0\xa4\x9c\xe0\xa5\x80,avy,,,,,,'
p3900
sS'drel'
p3901
S'lwg__rp:NP10'
p3902
sS'chunktype'
p3903
S'child:NP10'
p3904
sS'cref'
p3905
S'i22%1:t1'
p3906
ssbsg26
I00
sg27
I00
sg28
Nsg29
Nsg30
I14
sg31
I9
sg32
Nsg33
Nsg34
S'RP'
p3907
sg36
g3892
sg37
I00
sba(issf_api
Word
p3908
(dp3909
g6
I00
sg7
V\u0915\u094b
p3910
sg9
(issf_api
FeatureSet
p3911
(dp3912
g12
(dp3913
S'posn'
p3914
S'260'
p3915
sS'name'
p3916
S'\xe0\xa4\x95\xe0\xa5\x8b'
p3917
sS'drel'
p3918
S'lwg__psp:NP10'
p3919
sS'chunktype'
p3920
S'child:NP10'
p3921
sS'af'
p3922
S'\xe0\xa4\x95\xe0\xa5\x8b,psp,,,,,,'
p3923
ssbsg26
I00
sg27
I00
sg28
Nsg29
Nsg30
I14
sg31
I9
sg32
Nsg33
Nsg34
S'PSP'
p3924
sg36
g3911
sg37
I00
sba(issf_api
Word
p3925
(dp3926
g6
I00
sg7
V\u0938\u092e\u093e\u0927\u093f
p3927
sg9
(issf_api
FeatureSet
p3928
(dp3929
g12
(dp3930
S'posn'
p3931
S'270'
p3932
sS'name'
p3933
S'\xe0\xa4\xb8\xe0\xa4\xae\xe0\xa4\xbe\xe0\xa4\xa7\xe0\xa4\xbf'
p3934
sS'af'
p3935
S'\xe0\xa4\xb8\xe0\xa4\xae\xe0\xa4\xbe\xe0\xa4\xa7\xe0\xa4\xbf,n,f,sg,3,d,0,0'
p3936
sS'chunkid'
p3937
S'NP11'
p3938
sS'drel'
p3939
S'pof:VGF2'
p3940
sS'chunktype'
p3941
S'head:NP11'
p3942
ssbsg26
I00
sg27
I00
sg28
Nsg29
Nsg30
I15
sg31
I9
sg32
Nsg33
Nsg34
S'NN'
p3943
sg36
g3928
sg37
I00
sba(issf_api
Word
p3944
(dp3945
g6
I00
sg7
V\u0926\u0940
p3946
sg9
(issf_api
FeatureSet
p3947
(dp3948
g12
(dp3949
S'posn'
p3950
S'280'
p3951
sS'name'
p3952
S'\xe0\xa4\xa6\xe0\xa5\x80'
p3953
sS'af'
p3954
S'\xe0\xa4\xa6\xe0\xa5\x87,v,f,sg,any,,\xe0\xa4\xaf\xe0\xa4\xbe,yA'
p3955
sS'chunkid'
p3956
S'VGF2'
p3957
sS'stype'
p3958
S'declarative'
p3959
sS'drel'
p3960
S'ccof:CCP'
p3961
sS'voicetype'
p3962
S'active'
p3963
sS'chunktype'
p3964
S'head:VGF2'
p3965
ssbsg26
I00
sg27
I00
sg28
Nsg29
Nsg30
I16
sg31
I9
sg32
Nsg33
Nsg34
S'VM'
p3966
sg36
g3947
sg37
I00
sba(issf_api
Word
p3967
(dp3968
g6
I00
sg7
V\u0964
p3969
sg9
(issf_api
FeatureSet
p3970
(dp3971
g12
(dp3972
S'posn'
p3973
S'290'
p3974
sS'name'
p3975
S'\xe0\xa5\xa4'
p3976
sS'af'
p3977
S'\xe0\xa5\xa4,punc,,,,,,'
p3978
sS'chunkid'
p3979
S'BLK'
p3980
sS'drel'
p3981
S'rsym:CCP'
p3982
sS'chunktype'
p3983
S'head:BLK'
p3984
ssbsg26
I00
sg27
I00
sg28
Nsg29
Nsg30
I17
sg31
I9
sg32
Nsg33
Nsg34
S'SYM'
p3985
sg36
g3970
sg37
I00
sbasS'sentenceList'
p3986
(lp3987
(issf_api
Sentence
p3988
(dp3989
S'rootNode'
p3990
(lp3991
sg31
I0
sS'wordNumList'
p3992
(lp3993
I0
aI1
aI2
aI3
aI4
aI5
asS'nodeDict'
p3994
(dp3995
S'NP'
p3996
(issf_api
Node
p3997
(dp3998
S'nodeRelation'
p3999
S'None'
p4000
sS'nodeName'
p4001
g3996
sS'nodeParent'
p4002
g4000
sS'nodeLevel'
p4003
I-1
sg30
I0
sS'childList'
p4004
(lp4005
sbsS'BLK'
p4006
(issf_api
Node
p4007
(dp4008
g3999
S'rsym'
p4009
sg4001
g4006
sg4002
S'JJP'
p4010
sg4003
I-1
sg30
I2
sg4004
(lp4011
sbsS'JJP'
p4012
(issf_api
Node
p4013
(dp4014
g3999
g4000
sg4001
g4012
sg4002
g4000
sg4003
I-1
sg30
I1
sg4004
(lp4015
g4006
asbssS'chunkList'
p4016
(lp4017
(issf_api
Chunk
p4018
(dp4019
g4001
g72
sg30
I0
sS'chunkTag'
p4020
g81
sg31
I0
sg3992
(lp4021
I0
aI1
aI2
aI3
asg36
(issf_api
FeatureSet
p4022
(dp4023
g12
(dp4024
S'name'
p4025
g3996
ssbsba(issf_api
Chunk
p4026
(dp4027
g4001
g110
sg30
I1
sg4020
g117
sg31
I0
sg3992
(lp4028
I4
asg36
(issf_api
FeatureSet
p4029
(dp4030
g12
(dp4031
S'name'
p4032
g4012
ssbsba(issf_api
Chunk
p4033
(dp4034
g4001
g131
sg30
I2
sg4020
g136
sg31
I0
sg3992
(lp4035
I5
asg36
(issf_api
FeatureSet
p4036
(dp4037
g12
(dp4038
S'name'
p4039
g4006
sS'drel'
p4040
S'rsym:JJP'
p4041
ssbsbasba(issf_api
Sentence
p4042
(dp4043
g3990
(lp4044
sg31
I1
sg3992
(lp4045
I6
aI7
aI8
aI9
aI10
aI11
aI12
aI13
aI14
aI15
aI16
aI17
aI18
aI19
aI20
aI21
aI22
aI23
asg3994
(dp4046
S'VGF'
p4047
(issf_api
Node
p4048
(dp4049
g3999
g4000
sg4001
g4047
sg4002
g4000
sg4003
I-1
sg30
I7
sg4004
(lp4050
S'NP5'
p4051
aS'BLK'
p4052
aS'NP4'
p4053
aS'NP6'
p4054
aS'NP3'
p4055
asbsS'CCP'
p4056
(issf_api
Node
p4057
(dp4058
g3999
S'nmod'
p4059
sg4001
g4056
sg4002
S'NP3'
p4060
sg4003
I-1
sg30
I1
sg4004
(lp4061
S'NP'
p4062
aS'NP2'
p4063
asbsg4051
(issf_api
Node
p4064
(dp4065
g3999
S'k7'
p4066
sg4001
g4051
sg4002
S'VGF'
p4067
sg4003
I-1
sg30
I5
sg4004
(lp4068
sbsg4052
(issf_api
Node
p4069
(dp4070
g3999
S'rsym'
p4071
sg4001
g4052
sg4002
S'VGF'
p4072
sg4003
I-1
sg30
I8
sg4004
(lp4073
sbsg4062
(issf_api
Node
p4074
(dp4075
g3999
S'ccof'
p4076
sg4001
g4062
sg4002
S'CCP'
p4077
sg4003
I-1
sg30
I0
sg4004
(lp4078
sbsg4053
(issf_api
Node
p4079
(dp4080
g3999
S'k7t'
p4081
sg4001
g4053
sg4002
S'VGF'
p4082
sg4003
I-1
sg30
I4
sg4004
(lp4083
sbsg4054
(issf_api
Node
p4084
(dp4085
g3999
S'pof'
p4086
sg4001
g4054
sg4002
S'VGF'
p4087
sg4003
I-1
sg30
I6
sg4004
(lp4088
sbsg4055
(issf_api
Node
p4089
(dp4090
g3999
S'k4'
p4091
sg4001
g4055
sg4002
S'VGF'
p4092
sg4003
I-1
sg30
I3
sg4004
(lp4093
g4056
asbsg4063
(issf_api
Node
p4094
(dp4095
g3999
S'ccof'
p4096
sg4001
g4063
sg4002
S'CCP'
p4097
sg4003
I-1
sg30
I2
sg4004
(lp4098
sbssg4016
(lp4099
(issf_api
Chunk
p4100
(dp4101
g4001
g150
sg30
I0
sg4020
g155
sg31
I1
sg3992
(lp4102
I6
asg36
(issf_api
FeatureSet
p4103
(dp4104
g12
(dp4105
S'name'
p4106
g4062
sS'drel'
p4107
S'ccof:CCP'
p4108
ssbsba(issf_api
Chunk
p4109
(dp4110
g4001
g169
sg30
I1
sg4020
g174
sg31
I1
sg3992
(lp4111
I7
asg36
(issf_api
FeatureSet
p4112
(dp4113
g12
(dp4114
S'name'
p4115
g4056
sS'drel'
p4116
S'nmod:NP3'
p4117
ssbsba(issf_api
Chunk
p4118
(dp4119
g4001
g188
sg30
I2
sg4020
g193
sg31
I1
sg3992
(lp4120
I8
asg36
(issf_api
FeatureSet
p4121
(dp4122
g12
(dp4123
S'name'
p4124
g4063
sS'drel'
p4125
S'ccof:CCP'
p4126
ssbsba(issf_api
Chunk
p4127
(dp4128
g4001
g247
sg30
I3
sg4020
g258
sg31
I1
sg3992
(lp4129
I9
aI10
aI11
aI12
aI13
asg36
(issf_api
FeatureSet
p4130
(dp4131
g12
(dp4132
S'name'
p4133
g4055
sS'drel'
p4134
S'k4:VGF'
p4135
ssbsba(issf_api
Chunk
p4136
(dp4137
g4001
g308
sg30
I4
sg4020
g313
sg31
I1
sg3992
(lp4138
I14
asg36
(issf_api
FeatureSet
p4139
(dp4140
g12
(dp4141
S'name'
p4142
g4053
sS'drel'
p4143
S'k7t:VGF'
p4144
ssbsba(issf_api
Chunk
p4145
(dp4146
g4001
g344
sg30
I5
sg4020
g351
sg31
I1
sg3992
(lp4147
I15
aI16
aI17
aI18
asg36
(issf_api
FeatureSet
p4148
(dp4149
g12
(dp4150
S'name'
p4151
g4051
sS'drel'
p4152
S'k7:VGF'
p4153
ssbsba(issf_api
Chunk
p4154
(dp4155
g4001
g399
sg30
I6
sg4020
g404
sg31
I1
sg3992
(lp4156
I19
asg36
(issf_api
FeatureSet
p4157
(dp4158
g12
(dp4159
S'name'
p4160
g4054
sS'drel'
p4161
S'pof:VGF'
p4162
ssbsba(issf_api
Chunk
p4163
(dp4164
g4001
g418
sg30
I7
sg4020
g427
sg31
I1
sg3992
(lp4165
I20
aI21
aI22
asg36
(issf_api
FeatureSet
p4166
(dp4167
g12
(dp4168
S'name'
p4169
g4047
ssbsba(issf_api
Chunk
p4170
(dp4171
g4001
g475
sg30
I8
sg4020
g480
sg31
I1
sg3992
(lp4172
I23
asg36
(issf_api
FeatureSet
p4173
(dp4174
g12
(dp4175
S'name'
p4176
g4052
sS'drel'
p4177
S'rsym:VGF'
p4178
ssbsbasba(issf_api
Sentence
p4179
(dp4180
g3990
(lp4181
sg31
I2
sg3992
(lp4182
I24
aI25
aI26
aI27
aI28
aI29
aI30
aI31
aI32
aI33
aI34
aI35
aI36
aI37
aI38
aI39
aI40
aI41
aI42
aI43
aI44
aI45
aI46
aI47
aI48
aI49
aI50
aI51
aI52
aI53
aI54
aI55
aI56
aI57
aI58
asg3994
(dp4183
S'NP11'
p4184
(issf_api
Node
p4185
(dp4186
g3999
S'pof'
p4187
sg4001
g4184
sg4002
S'VGF2'
p4188
sg4003
I-1
sg30
I12
sg4004
(lp4189
sbsS'NP10'
p4190
(issf_api
Node
p4191
(dp4192
g3999
S'k4'
p4193
sg4001
g4190
sg4002
S'VGF2'
p4194
sg4003
I-1
sg30
I11
sg4004
(lp4195
sbsS'VGF'
p4196
(issf_api
Node
p4197
(dp4198
g3999
S'ccof'
p4199
sg4001
g4196
sg4002
S'CCP'
p4200
sg4003
I-1
sg30
I4
sg4004
(lp4201
S'NP'
p4202
aS'NP4'
p4203
aS'NP2'
p4204
asbsS'CCP'
p4205
(issf_api
Node
p4206
(dp4207
g3999
g4000
sg4001
g4205
sg4002
g4000
sg4003
I-1
sg30
I5
sg4004
(lp4208
g4196
aS'VGF2'
p4209
aS'BLK'
p4210
asbsg4209
(issf_api
Node
p4211
(dp4212
g3999
S'ccof'
p4213
sg4001
g4209
sg4002
S'CCP'
p4214
sg4003
I-1
sg30
I13
sg4004
(lp4215
g4184
ag4190
aS'NP5'
p4216
aS'NP9'
p4217
aS'NP8'
p4218
aS'NP6'
p4219
asbsg4216
(issf_api
Node
p4220
(dp4221
g3999
S'k7'
p4222
sg4001
g4216
sg4002
S'VGF2'
p4223
sg4003
I-1
sg30
I6
sg4004
(lp4224
sbsg4217
(issf_api
Node
p4225
(dp4226
g3999
S'k7p'
p4227
sg4001
g4217
sg4002
S'VGF2'
p4228
sg4003
I-1
sg30
I10
sg4004
(lp4229
sbsg4218
(issf_api
Node
p4230
(dp4231
g3999
S'k7p'
p4232
sg4001
g4218
sg4002
S'VGF2'
p4233
sg4003
I-1
sg30
I9
sg4004
(lp4234
S'NP7'
p4235
asbsg4210
(issf_api
Node
p4236
(dp4237
g3999
S'rsym'
p4238
sg4001
g4210
sg4002
S'CCP'
p4239
sg4003
I-1
sg30
I14
sg4004
(lp4240
sbsg4202
(issf_api
Node
p4241
(dp4242
g3999
S'k1'
p4243
sg4001
g4202
sg4002
S'VGF'
p4244
sg4003
I-1
sg30
I0
sg4004
(lp4245
sbsg4203
(issf_api
Node
p4246
(dp4247
g3999
S'pof'
p4248
sg4001
g4203
sg4002
S'VGF'
p4249
sg4003
I-1
sg30
I3
sg4004
(lp4250
S'NP3'
p4251
asbsg4235
(issf_api
Node
p4252
(dp4253
g3999
S'r6'
p4254
sg4001
g4235
sg4002
S'NP8'
p4255
sg4003
I-1
sg30
I8
sg4004
(lp4256
sbsg4219
(issf_api
Node
p4257
(dp4258
g3999
S'k7p'
p4259
sg4001
g4219
sg4002
S'VGF2'
p4260
sg4003
I-1
sg30
I7
sg4004
(lp4261
sbsg4251
(issf_api
Node
p4262
(dp4263
g3999
S'r6-k2'
p4264
sg4001
g4251
sg4002
S'NP4'
p4265
sg4003
I-1
sg30
I2
sg4004
(lp4266
sbsg4204
(issf_api
Node
p4267
(dp4268
g3999
S'k3'
p4269
sg4001
g4204
sg4002
S'VGF'
p4270
sg4003
I-1
sg30
I1
sg4004
(lp4271
sbssg4016
(lp4272
(issf_api
Chunk
p4273
(dp4274
g4001
g511
sg30
I0
sg4020
g518
sg31
I2
sg3992
(lp4275
I24
aI25
aI26
asg36
(issf_api
FeatureSet
p4276
(dp4277
g12
(dp4278
S'name'
p4279
g4202
sS'drel'
p4280
S'k1:VGF'
p4281
ssbsba(issf_api
Chunk
p4282
(dp4283
g4001
g566
sg30
I1
sg4020
g573
sg31
I2
sg3992
(lp4284
I27
aI28
aI29
asg36
(issf_api
FeatureSet
p4285
(dp4286
g12
(dp4287
S'name'
p4288
g4204
sS'drel'
p4289
S'k3:VGF'
p4290
ssbsba(issf_api
Chunk
p4291
(dp4292
g4001
g644
sg30
I2
sg4020
g655
sg31
I2
sg3992
(lp4293
I30
aI31
aI32
aI33
aI34
asg36
(issf_api
FeatureSet
p4294
(dp4295
g12
(dp4296
S'name'
p4297
g4251
sS'drel'
p4298
S'r6-k2:NP4'
p4299
ssbsba(issf_api
Chunk
p4300
(dp4301
g4001
g722
sg30
I3
sg4020
g727
sg31
I2
sg3992
(lp4302
I35
aI36
asg36
(issf_api
FeatureSet
p4303
(dp4304
g12
(dp4305
S'name'
p4306
g4203
sS'drel'
p4307
S'pof:VGF'
p4308
ssbsba(issf_api
Chunk
p4309
(dp4310
g4001
g741
sg30
I4
sg4020
g750
sg31
I2
sg3992
(lp4311
I37
asg36
(issf_api
FeatureSet
p4312
(dp4313
g12
(dp4314
S'name'
p4315
g4196
sS'drel'
p4316
S'ccof:CCP'
p4317
ssbsba(issf_api
Chunk
p4318
(dp4319
g4001
g760
sg30
I5
sg4020
g767
sg31
I2
sg3992
(lp4320
I38
asg36
(issf_api
FeatureSet
p4321
(dp4322
g12
(dp4323
S'name'
p4324
g4205
ssbsba(issf_api
Chunk
p4325
(dp4326
g4001
g781
sg30
I6
sg4020
g788
sg31
I2
sg3992
(lp4327
I39
aI40
asg36
(issf_api
FeatureSet
p4328
(dp4329
g12
(dp4330
S'name'
p4331
g4216
sS'drel'
p4332
S'k7:VGF2'
p4333
ssbsba(issf_api
Chunk
p4334
(dp4335
g4001
g819
sg30
I7
sg4020
g826
sg31
I2
sg3992
(lp4336
I41
aI42
asg36
(issf_api
FeatureSet
p4337
(dp4338
g12
(dp4339
S'name'
p4340
g4219
sS'drel'
p4341
S'k7p:VGF2'
p4342
ssbsba(issf_api
Chunk
p4343
(dp4344
g4001
g878
sg30
I8
sg4020
g889
sg31
I2
sg3992
(lp4345
I43
aI44
aI45
aI46
asg36
(issf_api
FeatureSet
p4346
(dp4347
g12
(dp4348
S'name'
p4349
g4235
sS'drel'
p4350
S'r6:NP8'
p4351
ssbsba(issf_api
Chunk
p4352
(dp4353
g4001
g939
sg30
I9
sg4020
g946
sg31
I2
sg3992
(lp4354
I47
aI48
aI49
asg36
(issf_api
FeatureSet
p4355
(dp4356
g12
(dp4357
S'name'
p4358
g4218
sS'drel'
p4359
S'k7p:VGF2'
p4360
ssbsba(issf_api
Chunk
p4361
(dp4362
g4001
g1011
sg30
I10
sg4020
g1018
sg31
I2
sg3992
(lp4363
I50
aI51
aI52
aI53
asg36
(issf_api
FeatureSet
p4364
(dp4365
g12
(dp4366
S'name'
p4367
g4217
sS'drel'
p4368
S'k7p:VGF2'
p4369
ssbsba(issf_api
Chunk
p4370
(dp4371
g4001
g1068
sg30
I11
sg4020
g1077
sg31
I2
sg3992
(lp4372
I54
asg36
(issf_api
FeatureSet
p4373
(dp4374
g12
(dp4375
S'name'
p4376
g4190
sS'drel'
p4377
S'k4:VGF2'
p4378
ssbsba(issf_api
Chunk
p4379
(dp4380
g4001
g1091
sg30
I12
sg4020
g1096
sg31
I2
sg3992
(lp4381
I55
asg36
(issf_api
FeatureSet
p4382
(dp4383
g12
(dp4384
S'name'
p4385
g4184
sS'drel'
p4386
S'pof:VGF2'
p4387
ssbsba(issf_api
Chunk
p4388
(dp4389
g4001
g1110
sg30
I13
sg4020
g1121
sg31
I2
sg3992
(lp4390
I56
aI57
asg36
(issf_api
FeatureSet
p4391
(dp4392
g12
(dp4393
S'name'
p4394
g4209
sS'drel'
p4395
S'ccof:CCP'
p4396
ssbsba(issf_api
Chunk
p4397
(dp4398
g4001
g1152
sg30
I14
sg4020
g1157
sg31
I2
sg3992
(lp4399
I58
asg36
(issf_api
FeatureSet
p4400
(dp4401
g12
(dp4402
S'name'
p4403
g4210
sS'drel'
p4404
S'rsym:CCP'
p4405
ssbsbasba(issf_api
Sentence
p4406
(dp4407
g3990
(lp4408
sg31
I3
sg3992
(lp4409
I59
aI60
aI61
aI62
aI63
aI64
aI65
aI66
aI67
aI68
aI69
aI70
asg3994
(dp4410
S'VGF'
p4411
(issf_api
Node
p4412
(dp4413
g3999
g4000
sg4001
g4411
sg4002
g4000
sg4003
I-1
sg30
I5
sg4004
(lp4414
S'JJP'
p4415
aS'BLK'
p4416
aS'NP'
p4417
aS'NP4'
p4418
aS'NP3'
p4419
asbsg4415
(issf_api
Node
p4420
(dp4421
g3999
S'pof'
p4422
sg4001
g4415
sg4002
S'VGF'
p4423
sg4003
I-1
sg30
I4
sg4004
(lp4424
sbsg4416
(issf_api
Node
p4425
(dp4426
g3999
S'rsym'
p4427
sg4001
g4416
sg4002
S'VGF'
p4428
sg4003
I-1
sg30
I6
sg4004
(lp4429
sbsg4417
(issf_api
Node
p4430
(dp4431
g3999
S'k7t'
p4432
sg4001
g4417
sg4002
S'VGF'
p4433
sg4003
I-1
sg30
I0
sg4004
(lp4434
sbsg4418
(issf_api
Node
p4435
(dp4436
g3999
S'k1'
p4437
sg4001
g4418
sg4002
S'VGF'
p4438
sg4003
I-1
sg30
I3
sg4004
(lp4439
sbsg4419
(issf_api
Node
p4440
(dp4441
g3999
S'k7t'
p4442
sg4001
g4419
sg4002
S'VGF'
p4443
sg4003
I-1
sg30
I2
sg4004
(lp4444
S'NP2'
p4445
asbsg4445
(issf_api
Node
p4446
(dp4447
g3999
S'r6'
p4448
sg4001
g4445
sg4002
S'NP3'
p4449
sg4003
I-1
sg30
I1
sg4004
(lp4450
sbssg4016
(lp4451
(issf_api
Chunk
p4452
(dp4453
g4001
g1171
sg30
I0
sg4020
g1176
sg31
I3
sg3992
(lp4454
I59
asg36
(issf_api
FeatureSet
p4455
(dp4456
g12
(dp4457
S'name'
p4458
g4417
sS'drel'
p4459
S'k7t:VGF'
p4460
ssbsba(issf_api
Chunk
p4461
(dp4462
g4001
g1207
sg30
I1
sg4020
g1214
sg31
I3
sg3992
(lp4463
I60
aI61
aI62
asg36
(issf_api
FeatureSet
p4464
(dp4465
g12
(dp4466
S'name'
p4467
g4445
sS'drel'
p4468
S'r6:NP3'
p4469
ssbsba(issf_api
Chunk
p4470
(dp4471
g4001
g1245
sg30
I2
sg4020
g1252
sg31
I3
sg3992
(lp4472
I63
aI64
asg36
(issf_api
FeatureSet
p4473
(dp4474
g12
(dp4475
S'name'
p4476
g4419
sS'drel'
p4477
S'k7t:VGF'
p4478
ssbsba(issf_api
Chunk
p4479
(dp4480
g4001
g1285
sg30
I3
sg4020
g1294
sg31
I3
sg3992
(lp4481
I65
aI66
asg36
(issf_api
FeatureSet
p4482
(dp4483
g12
(dp4484
S'name'
p4485
g4418
sS'drel'
p4486
S'k1:VGF'
p4487
ssbsba(issf_api
Chunk
p4488
(dp4489
g4001
g1327
sg30
I4
sg4020
g1332
sg31
I3
sg3992
(lp4490
I67
asg36
(issf_api
FeatureSet
p4491
(dp4492
g12
(dp4493
S'name'
p4494
g4415
sS'drel'
p4495
S'pof:VGF'
p4496
ssbsba(issf_api
Chunk
p4497
(dp4498
g4001
g1346
sg30
I5
sg4020
g1355
sg31
I3
sg3992
(lp4499
I68
aI69
asg36
(issf_api
FeatureSet
p4500
(dp4501
g12
(dp4502
S'name'
p4503
g4411
ssbsba(issf_api
Chunk
p4504
(dp4505
g4001
g1386
sg30
I6
sg4020
g1391
sg31
I3
sg3992
(lp4506
I70
asg36
(issf_api
FeatureSet
p4507
(dp4508
g12
(dp4509
S'name'
p4510
g4416
sS'drel'
p4511
S'rsym:VGF'
p4512
ssbsbasba(issf_api
Sentence
p4513
(dp4514
g3990
(lp4515
sg31
I4
sg3992
(lp4516
I71
aI72
aI73
aI74
aI75
aI76
aI77
aI78
aI79
aI80
aI81
aI82
aI83
aI84
aI85
aI86
aI87
aI88
aI89
aI90
aI91
aI92
aI93
aI94
aI95
aI96
aI97
aI98
aI99
aI100
aI101
aI102
aI103
aI104
aI105
aI106
aI107
aI108
aI109
aI110
asg3994
(dp4517
S'VGF2'
p4518
(issf_api
Node
p4519
(dp4520
g3999
S'ccof'
p4521
sg4001
g4518
sg4002
S'CCP'
p4522
sg4003
I-1
sg30
I18
sg4004
(lp4523
S'NP12'
p4524
aS'JJP'
p4525
aS'VGNN2'
p4526
aS'NP8'
p4527
aS'CCP2'
p4528
asbsS'NP11'
p4529
(issf_api
Node
p4530
(dp4531
g3999
S'ccof'
p4532
sg4001
g4529
sg4002
S'CCP2'
p4533
sg4003
I-1
sg30
I15
sg4004
(lp4534
sbsS'NULL__CCP'
p4535
(issf_api
Node
p4536
(dp4537
g3999
g4000
sg4001
g4535
sg4002
g4000
sg4003
I-1
sg30
I-1
sg4004
(lp4538
S'NP4'
p4539
aS'NP3'
p4540
aS'NP2'
p4541
asbsS'VGNN'
p4542
(issf_api
Node
p4543
(dp4544
g3999
S'nmod'
p4545
sg4001
g4542
sg4002
S'NP7'
p4546
sg4003
I-1
sg30
I8
sg4004
(lp4547
S'NP5'
p4548
aS'NP6'
p4549
asbsS'VGF'
p4550
(issf_api
Node
p4551
(dp4552
g3999
g4000
sg4001
g4550
sg4002
g4000
sg4003
I-1
sg30
I1
sg4004
(lp4553
S'CCP'
p4554
aS'BLK'
p4555
aS'NP'
p4556
asbsg4524
(issf_api
Node
p4557
(dp4558
g3999
S'k1'
p4559
sg4001
g4524
sg4002
S'VGF2'
p4560
sg4003
I-1
sg30
I16
sg4004
(lp4561
sbsg4554
(issf_api
Node
p4562
(dp4563
g3999
S'k2'
p4564
sg4001
g4554
sg4002
S'VGF'
p4565
sg4003
I-1
sg30
I2
sg4004
(lp4566
g4518
asbsg4525
(issf_api
Node
p4567
(dp4568
g3999
S'k1s'
p4569
sg4001
g4525
sg4002
S'VGF2'
p4570
sg4003
I-1
sg30
I17
sg4004
(lp4571
sbsg4526
(issf_api
Node
p4572
(dp4573
g3999
S'rt'
p4574
sg4001
g4526
sg4002
S'VGF2'
p4575
sg4003
I-1
sg30
I12
sg4004
(lp4576
S'NP9'
p4577
asbsg4548
(issf_api
Node
p4578
(dp4579
g3999
S'k7'
p4580
sg4001
g4548
sg4002
S'VGNN'
p4581
sg4003
I-1
sg30
I6
sg4004
(lp4582
sbsg4577
(issf_api
Node
p4583
(dp4584
g3999
S'pof'
p4585
sg4001
g4577
sg4002
S'VGNN2'
p4586
sg4003
I-1
sg30
I11
sg4004
(lp4587
sbsg4527
(issf_api
Node
p4588
(dp4589
g3999
S'k7'
p4590
sg4001
g4527
sg4002
S'VGF2'
p4591
sg4003
I-1
sg30
I10
sg4004
(lp4592
S'NP7'
p4593
asbsg4555
(issf_api
Node
p4594
(dp4595
g3999
S'rsym'
p4596
sg4001
g4555
sg4002
S'VGF'
p4597
sg4003
I-1
sg30
I19
sg4004
(lp4598
sbsS'NP10'
p4599
(issf_api
Node
p4600
(dp4601
g3999
S'ccof'
p4602
sg4001
g4599
sg4002
S'CCP2'
p4603
sg4003
I-1
sg30
I13
sg4004
(lp4604
sbsg4556
(issf_api
Node
p4605
(dp4606
g3999
S'k1'
p4607
sg4001
g4556
sg4002
S'VGF'
p4608
sg4003
I-1
sg30
I0
sg4004
(lp4609
sbsg4539
(issf_api
Node
p4610
(dp4611
g3999
S'ccof'
p4612
sg4001
g4539
sg4002
S'NULL__CCP'
p4613
sg4003
I-1
sg30
I5
sg4004
(lp4614
sbsg4593
(issf_api
Node
p4615
(dp4616
g3999
S'r6'
p4617
sg4001
g4593
sg4002
S'NP8'
p4618
sg4003
I-1
sg30
I9
sg4004
(lp4619
g4542
asbsg4549
(issf_api
Node
p4620
(dp4621
g3999
S'k2'
p4622
sg4001
g4549
sg4002
S'VGNN'
p4623
sg4003
I-1
sg30
I7
sg4004
(lp4624
sbsg4528
(issf_api
Node
p4625
(dp4626
g3999
S'rd'
p4627
sg4001
g4528
sg4002
S'VGF2'
p4628
sg4003
I-1
sg30
I14
sg4004
(lp4629
g4529
ag4599
asbsg4540
(issf_api
Node
p4630
(dp4631
g3999
S'ccof'
p4632
sg4001
g4540
sg4002
S'NULL__CCP'
p4633
sg4003
I-1
sg30
I4
sg4004
(lp4634
sbsg4541
(issf_api
Node
p4635
(dp4636
g3999
S'ccof'
p4637
sg4001
g4541
sg4002
S'NULL__CCP'
p4638
sg4003
I-1
sg30
I3
sg4004
(lp4639
sbssg4016
(lp4640
(issf_api
Chunk
p4641
(dp4642
g4001
g1405
sg30
I0
sg4020
g1410
sg31
I4
sg3992
(lp4643
I71
asg36
(issf_api
FeatureSet
p4644
(dp4645
g12
(dp4646
S'name'
p4647
g4556
sS'drel'
p4648
S'k1:VGF'
p4649
ssbsba(issf_api
Chunk
p4650
(dp4651
g4001
g1424
sg30
I1
sg4020
g1431
sg31
I4
sg3992
(lp4652
I72
asg36
(issf_api
FeatureSet
p4653
(dp4654
g12
(dp4655
S'name'
p4656
g4550
ssbsba(issf_api
Chunk
p4657
(dp4658
g4001
g1445
sg30
I2
sg4020
g1450
sg31
I4
sg3992
(lp4659
I73
asg36
(issf_api
FeatureSet
p4660
(dp4661
g12
(dp4662
S'name'
p4663
g4554
sS'drel'
p4664
S'k2:VGF'
p4665
ssbsba(issf_api
Chunk
p4666
(dp4667
g4001
g1464
sg30
I3
sg4020
g1469
sg31
I4
sg3992
(lp4668
I74
aI75
asg36
(issf_api
FeatureSet
p4669
(dp4670
g12
(dp4671
S'name'
p4672
g4541
sS'drel'
p4673
S'ccof:NULL__CCP'
p4674
ssbsba(issf_api
Chunk
p4675
(dp4676
g4001
g1500
sg30
I4
sg4020
g1505
sg31
I4
sg3992
(lp4677
I76
aI77
asg36
(issf_api
FeatureSet
p4678
(dp4679
g12
(dp4680
S'name'
p4681
g4540
sS'drel'
p4682
S'ccof:NULL__CCP'
p4683
ssbsba(issf_api
Chunk
p4684
(dp4685
g4001
g1570
sg30
I5
sg4020
g1577
sg31
I4
sg3992
(lp4686
I78
aI79
aI80
aI81
asg36
(issf_api
FeatureSet
p4687
(dp4688
g12
(dp4689
S'name'
p4690
g4539
sS'drel'
p4691
S'ccof:NULL__CCP'
p4692
ssbsba(issf_api
Chunk
p4693
(dp4694
g4001
g1608
sg30
I6
sg4020
g1615
sg31
I4
sg3992
(lp4695
I82
aI83
asg36
(issf_api
FeatureSet
p4696
(dp4697
g12
(dp4698
S'name'
p4699
g4548
sS'drel'
p4700
S'k7:VGNN'
p4701
ssbsba(issf_api
Chunk
p4702
(dp4703
g4001
g1646
sg30
I7
sg4020
g1651
sg31
I4
sg3992
(lp4704
I84
asg36
(issf_api
FeatureSet
p4705
(dp4706
g12
(dp4707
S'name'
p4708
g4549
sS'drel'
p4709
S'k2:VGNN'
p4710
ssbsba(issf_api
Chunk
p4711
(dp4712
g4001
g1665
sg30
I8
sg4020
g1672
sg31
I4
sg3992
(lp4713
I85
aI86
aI87
asg36
(issf_api
FeatureSet
p4714
(dp4715
g12
(dp4716
S'name'
p4717
g4542
sS'drel'
p4718
S'nmod:NP7'
p4719
ssbsba(issf_api
Chunk
p4720
(dp4721
g4001
g1722
sg30
I9
sg4020
g1733
sg31
I4
sg3992
(lp4722
I88
aI89
aI90
asg36
(issf_api
FeatureSet
p4723
(dp4724
g12
(dp4725
S'name'
p4726
g4593
sS'drel'
p4727
S'r6:NP8'
p4728
ssbsba(issf_api
Chunk
p4729
(dp4730
g4001
g1800
sg30
I10
sg4020
g1807
sg31
I4
sg3992
(lp4731
I91
aI92
aI93
asg36
(issf_api
FeatureSet
p4732
(dp4733
g12
(dp4734
S'name'
p4735
g4527
sS'drel'
p4736
S'k7:VGF2'
p4737
ssbsba(issf_api
Chunk
p4738
(dp4739
g4001
g1838
sg30
I11
sg4020
g1843
sg31
I4
sg3992
(lp4740
I94
asg36
(issf_api
FeatureSet
p4741
(dp4742
g12
(dp4743
S'name'
p4744
g4577
sS'drel'
p4745
S'pof:VGNN2'
p4746
ssbsba(issf_api
Chunk
p4747
(dp4748
g4001
g1857
sg30
I12
sg4020
g1864
sg31
I4
sg3992
(lp4749
I95
aI96
aI97
asg36
(issf_api
FeatureSet
p4750
(dp4751
g12
(dp4752
S'name'
p4753
g4526
sS'drel'
p4754
S'rt:VGF2'
p4755
ssbsba(issf_api
Chunk
p4756
(dp4757
g4001
g1912
sg30
I13
sg4020
g1917
sg31
I4
sg3992
(lp4758
I98
asg36
(issf_api
FeatureSet
p4759
(dp4760
g12
(dp4761
S'name'
p4762
g4599
sS'drel'
p4763
S'ccof:CCP2'
p4764
ssbsba(issf_api
Chunk
p4765
(dp4766
g4001
g1931
sg30
I14
sg4020
g1936
sg31
I4
sg3992
(lp4767
I99
asg36
(issf_api
FeatureSet
p4768
(dp4769
g12
(dp4770
S'name'
p4771
g4528
sS'drel'
p4772
S'rd:VGF2'
p4773
ssbsba(issf_api
Chunk
p4774
(dp4775
g4001
g1967
sg30
I15
sg4020
g1974
sg31
I4
sg3992
(lp4776
I100
aI101
aI102
aI103
aI104
asg36
(issf_api
FeatureSet
p4777
(dp4778
g12
(dp4779
S'name'
p4780
g4529
sS'drel'
p4781
S'ccof:CCP2'
p4782
ssbsba(issf_api
Chunk
p4783
(dp4784
g4001
g2062
sg30
I16
sg4020
g2067
sg31
I4
sg3992
(lp4785
I105
aI106
asg36
(issf_api
FeatureSet
p4786
(dp4787
g12
(dp4788
S'name'
p4789
g4524
sS'drel'
p4790
S'k1:VGF2'
p4791
ssbsba(issf_api
Chunk
p4792
(dp4793
g4001
g2081
sg30
I17
sg4020
g2086
sg31
I4
sg3992
(lp4794
I107
asg36
(issf_api
FeatureSet
p4795
(dp4796
g12
(dp4797
S'name'
p4798
g4525
sS'drel'
p4799
S'k1s:VGF2'
p4800
ssbsba(issf_api
Chunk
p4801
(dp4802
g4001
g2117
sg30
I18
sg4020
g2126
sg31
I4
sg3992
(lp4803
I108
aI109
asg36
(issf_api
FeatureSet
p4804
(dp4805
g12
(dp4806
S'name'
p4807
g4518
sS'drel'
p4808
S'ccof:CCP'
p4809
ssbsba(issf_api
Chunk
p4810
(dp4811
g4001
g2140
sg30
I19
sg4020
g2145
sg31
I4
sg3992
(lp4812
I110
asg36
(issf_api
FeatureSet
p4813
(dp4814
g12
(dp4815
S'name'
p4816
g4555
sS'drel'
p4817
S'rsym:VGF'
p4818
ssbsbasba(issf_api
Sentence
p4819
(dp4820
g3990
(lp4821
sg31
I5
sg3992
(lp4822
I111
aI112
aI113
aI114
aI115
aI116
aI117
aI118
aI119
aI120
aI121
aI122
aI123
aI124
aI125
aI126
aI127
asg3994
(dp4823
S'VGF'
p4824
(issf_api
Node
p4825
(dp4826
g3999
g4000
sg4001
g4824
sg4002
g4000
sg4003
I-1
sg30
I8
sg4004
(lp4827
S'CCP'
p4828
aS'JJP'
p4829
aS'BLK'
p4830
aS'NP6'
p4831
asbsg4828
(issf_api
Node
p4832
(dp4833
g3999
S'k1'
p4834
sg4001
g4828
sg4002
S'VGF'
p4835
sg4003
I-1
sg30
I3
sg4004
(lp4836
S'NP5'
p4837
aS'NP3'
p4838
asbsg4829
(issf_api
Node
p4839
(dp4840
g3999
S'k1s'
p4841
sg4001
g4829
sg4002
S'VGF'
p4842
sg4003
I-1
sg30
I7
sg4004
(lp4843
sbsg4837
(issf_api
Node
p4844
(dp4845
g3999
S'ccof'
p4846
sg4001
g4837
sg4002
S'CCP'
p4847
sg4003
I-1
sg30
I5
sg4004
(lp4848
S'NP4'
p4849
asbsg4830
(issf_api
Node
p4850
(dp4851
g3999
S'rsym'
p4852
sg4001
g4830
sg4002
S'VGF'
p4853
sg4003
I-1
sg30
I9
sg4004
(lp4854
sbsS'NP'
p4855
(issf_api
Node
p4856
(dp4857
g3999
S'r6'
p4858
sg4001
g4855
sg4002
S'NP2'
p4859
sg4003
I-1
sg30
I0
sg4004
(lp4860
sbsg4849
(issf_api
Node
p4861
(dp4862
g3999
S'nmod'
p4863
sg4001
g4849
sg4002
S'NP5'
p4864
sg4003
I-1
sg30
I4
sg4004
(lp4865
sbsg4831
(issf_api
Node
p4866
(dp4867
g3999
S'k7'
p4868
sg4001
g4831
sg4002
S'VGF'
p4869
sg4003
I-1
sg30
I6
sg4004
(lp4870
sbsg4838
(issf_api
Node
p4871
(dp4872
g3999
S'ccof'
p4873
sg4001
g4838
sg4002
S'CCP'
p4874
sg4003
I-1
sg30
I2
sg4004
(lp4875
S'NP2'
p4876
asbsg4876
(issf_api
Node
p4877
(dp4878
g3999
S'nmod'
p4879
sg4001
g4876
sg4002
S'NP3'
p4880
sg4003
I-1
sg30
I1
sg4004
(lp4881
g4855
asbssg4016
(lp4882
(issf_api
Chunk
p4883
(dp4884
g4001
g2161
sg30
I0
sg4020
g2170
sg31
I5
sg3992
(lp4885
I111
aI112
asg36
(issf_api
FeatureSet
p4886
(dp4887
g12
(dp4888
S'name'
p4889
g4855
sS'drel'
p4890
S'r6:NP2'
p4891
ssbsba(issf_api
Chunk
p4892
(dp4893
g4001
g2203
sg30
I1
sg4020
g2212
sg31
I5
sg3992
(lp4894
I113
asg36
(issf_api
FeatureSet
p4895
(dp4896
g12
(dp4897
S'name'
p4898
g4876
sS'drel'
p4899
S'nmod:NP3'
p4900
ssbsba(issf_api
Chunk
p4901
(dp4902
g4001
g2266
sg30
I2
sg4020
g2277
sg31
I5
sg3992
(lp4903
I114
aI115
aI116
asg36
(issf_api
FeatureSet
p4904
(dp4905
g12
(dp4906
S'name'
p4907
g4838
sS'drel'
p4908
S'ccof:CCP'
p4909
ssbsba(issf_api
Chunk
p4910
(dp4911
g4001
g2291
sg30
I3
sg4020
g2296
sg31
I5
sg3992
(lp4912
I117
asg36
(issf_api
FeatureSet
p4913
(dp4914
g12
(dp4915
S'name'
p4916
g4828
sS'drel'
p4917
S'k1:VGF'
p4918
ssbsba(issf_api
Chunk
p4919
(dp4920
g4001
g2331
sg30
I4
sg4020
g2338
sg31
I5
sg3992
(lp4921
I118
aI119
asg36
(issf_api
FeatureSet
p4922
(dp4923
g12
(dp4924
S'name'
p4925
g4849
sS'drel'
p4926
S'nmod:NP5'
p4927
ssbsba(issf_api
Chunk
p4928
(dp4929
g4001
g2373
sg30
I5
sg4020
g2384
sg31
I5
sg3992
(lp4930
I120
aI121
asg36
(issf_api
FeatureSet
p4931
(dp4932
g12
(dp4933
S'name'
p4934
g4837
sS'drel'
p4935
S'ccof:CCP'
p4936
ssbsba(issf_api
Chunk
p4937
(dp4938
g4001
g2415
sg30
I6
sg4020
g2422
sg31
I5
sg3992
(lp4939
I122
aI123
aI124
asg36
(issf_api
FeatureSet
p4940
(dp4941
g12
(dp4942
S'name'
p4943
g4831
sS'drel'
p4944
S'k7:VGF'
p4945
ssbsba(issf_api
Chunk
p4946
(dp4947
g4001
g2453
sg30
I7
sg4020
g2458
sg31
I5
sg3992
(lp4948
I125
asg36
(issf_api
FeatureSet
p4949
(dp4950
g12
(dp4951
S'name'
p4952
g4829
sS'drel'
p4953
S'k1s:VGF'
p4954
ssbsba(issf_api
Chunk
p4955
(dp4956
g4001
g2472
sg30
I8
sg4020
g2479
sg31
I5
sg3992
(lp4957
I126
asg36
(issf_api
FeatureSet
p4958
(dp4959
g12
(dp4960
S'name'
p4961
g4824
ssbsba(issf_api
Chunk
p4962
(dp4963
g4001
g2493
sg30
I9
sg4020
g2498
sg31
I5
sg3992
(lp4964
I127
asg36
(issf_api
FeatureSet
p4965
(dp4966
g12
(dp4967
S'name'
p4968
g4830
sS'drel'
p4969
S'rsym:VGF'
p4970
ssbsbasba(issf_api
Sentence
p4971
(dp4972
g3990
(lp4973
sg31
I6
sg3992
(lp4974
I128
aI129
aI130
aI131
aI132
aI133
aI134
aI135
aI136
aI137
aI138
aI139
aI140
aI141
aI142
aI143
aI144
aI145
aI146
aI147
aI148
asg3994
(dp4975
S'VGF2'
p4976
(issf_api
Node
p4977
(dp4978
g3999
S'ccof'
p4979
sg4001
g4976
sg4002
S'CCP'
p4980
sg4003
I-1
sg30
I10
sg4004
(lp4981
S'JJP'
p4982
aS'NP4'
p4983
aS'NP7'
p4984
aS'NP6'
p4985
asbsS'VGF'
p4986
(issf_api
Node
p4987
(dp4988
g3999
g4000
sg4001
g4986
sg4002
g4000
sg4003
I-1
sg30
I1
sg4004
(lp4989
S'BLK'
p4990
aS'NP'
p4991
asbsS'CCP'
p4992
(issf_api
Node
p4993
(dp4994
g3999
S'rs'
p4995
sg4001
g4992
sg4002
S'NP'
p4996
sg4003
I-1
sg30
I2
sg4004
(lp4997
g4976
asbsg4982
(issf_api
Node
p4998
(dp4999
g3999
S'pof'
p5000
sg4001
g4982
sg4002
S'VGF2'
p5001
sg4003
I-1
sg30
I9
sg4004
(lp5002
sbsS'NP5'
p5003
(issf_api
Node
p5004
(dp5005
g3999
S'r6'
p5006
sg4001
g5003
sg4002
S'NP6'
p5007
sg4003
I-1
sg30
I6
sg4004
(lp5008
sbsg4990
(issf_api
Node
p5009
(dp5010
g3999
S'rsym'
p5011
sg4001
g4990
sg4002
S'VGF'
p5012
sg4003
I-1
sg30
I11
sg4004
(lp5013
sbsg4991
(issf_api
Node
p5014
(dp5015
g3999
S'k1'
p5016
sg4001
g4991
sg4002
S'VGF'
p5017
sg4003
I-1
sg30
I0
sg4004
(lp5018
g4992
asbsg4983
(issf_api
Node
p5019
(dp5020
g3999
S'k1'
p5021
sg4001
g4983
sg4002
S'VGF2'
p5022
sg4003
I-1
sg30
I5
sg4004
(lp5023
S'NP3'
p5024
asbsg4984
(issf_api
Node
p5025
(dp5026
g3999
S'k2'
p5027
sg4001
g4984
sg4002
S'VGF2'
p5028
sg4003
I-1
sg30
I8
sg4004
(lp5029
sbsg4985
(issf_api
Node
p5030
(dp5031
g3999
S'k7'
p5032
sg4001
g4985
sg4002
S'VGF2'
p5033
sg4003
I-1
sg30
I7
sg4004
(lp5034
g5003
asbsg5024
(issf_api
Node
p5035
(dp5036
g3999
S'nmod'
p5037
sg4001
g5024
sg4002
S'NP4'
p5038
sg4003
I-1
sg30
I4
sg4004
(lp5039
S'NP2'
p5040
asbsg5040
(issf_api
Node
p5041
(dp5042
g3999
S'r6'
p5043
sg4001
g5040
sg4002
S'NP3'
p5044
sg4003
I-1
sg30
I3
sg4004
(lp5045
sbssg4016
(lp5046
(issf_api
Chunk
p5047
(dp5048
g4001
g2512
sg30
I0
sg4020
g2517
sg31
I6
sg3992
(lp5049
I128
asg36
(issf_api
FeatureSet
p5050
(dp5051
g12
(dp5052
S'name'
p5053
g4991
sS'drel'
p5054
S'k1:VGF'
p5055
ssbsba(issf_api
Chunk
p5056
(dp5057
g4001
g2531
sg30
I1
sg4020
g2538
sg31
I6
sg3992
(lp5058
I129
asg36
(issf_api
FeatureSet
p5059
(dp5060
g12
(dp5061
S'name'
p5062
g4986
ssbsba(issf_api
Chunk
p5063
(dp5064
g4001
g2552
sg30
I2
sg4020
g2557
sg31
I6
sg3992
(lp5065
I130
asg36
(issf_api
FeatureSet
p5066
(dp5067
g12
(dp5068
S'name'
p5069
g4992
sS'drel'
p5070
S'rs:NP'
p5071
ssbsba(issf_api
Chunk
p5072
(dp5073
g4001
g2573
sg30
I3
sg4020
g2582
sg31
I6
sg3992
(lp5074
I131
aI132
asg36
(issf_api
FeatureSet
p5075
(dp5076
g12
(dp5077
S'name'
p5078
g5040
sS'drel'
p5079
S'r6:NP3'
p5080
ssbsba(issf_api
Chunk
p5081
(dp5082
g4001
g2615
sg30
I4
sg4020
g2624
sg31
I6
sg3992
(lp5083
I133
asg36
(issf_api
FeatureSet
p5084
(dp5085
g12
(dp5086
S'name'
p5087
g5024
sS'drel'
p5088
S'nmod:NP4'
p5089
ssbsba(issf_api
Chunk
p5090
(dp5091
g4001
g2678
sg30
I5
sg4020
g2691
sg31
I6
sg3992
(lp5092
I134
aI135
aI136
aI137
asg36
(issf_api
FeatureSet
p5093
(dp5094
g12
(dp5095
S'name'
p5096
g4983
sS'drel'
p5097
S'k1:VGF2'
p5098
ssbsba(issf_api
Chunk
p5099
(dp5100
g4001
g2724
sg30
I6
sg4020
g2735
sg31
I6
sg3992
(lp5101
I138
aI139
aI140
asg36
(issf_api
FeatureSet
p5102
(dp5103
g12
(dp5104
S'name'
p5105
g5003
sS'drel'
p5106
S'r6:NP6'
p5107
ssbsba(issf_api
Chunk
p5108
(dp5109
g4001
g2785
sg30
I7
sg4020
g2792
sg31
I6
sg3992
(lp5110
I141
aI142
asg36
(issf_api
FeatureSet
p5111
(dp5112
g12
(dp5113
S'name'
p5114
g4985
sS'drel'
p5115
S'k7:VGF2'
p5116
ssbsba(issf_api
Chunk
p5117
(dp5118
g4001
g2840
sg30
I8
sg4020
g2845
sg31
I6
sg3992
(lp5119
I143
aI144
asg36
(issf_api
FeatureSet
p5120
(dp5121
g12
(dp5122
S'name'
p5123
g4984
sS'drel'
p5124
S'k2:VGF2'
p5125
ssbsba(issf_api
Chunk
p5126
(dp5127
g4001
g2859
sg30
I9
sg4020
g2864
sg31
I6
sg3992
(lp5128
I145
asg36
(issf_api
FeatureSet
p5129
(dp5130
g12
(dp5131
S'name'
p5132
g4982
sS'drel'
p5133
S'pof:VGF2'
p5134
ssbsba(issf_api
Chunk
p5135
(dp5136
g4001
g2878
sg30
I10
sg4020
g2889
sg31
I6
sg3992
(lp5137
I146
aI147
asg36
(issf_api
FeatureSet
p5138
(dp5139
g12
(dp5140
S'name'
p5141
g4976
sS'drel'
p5142
S'ccof:CCP'
p5143
ssbsba(issf_api
Chunk
p5144
(dp5145
g4001
g2920
sg30
I11
sg4020
g2925
sg31
I6
sg3992
(lp5146
I148
asg36
(issf_api
FeatureSet
p5147
(dp5148
g12
(dp5149
S'name'
p5150
g4990
sS'drel'
p5151
S'rsym:VGF'
p5152
ssbsbasba(issf_api
Sentence
p5153
(dp5154
g3990
(lp5155
sg31
I7
sg3992
(lp5156
I149
aI150
aI151
aI152
aI153
aI154
aI155
aI156
aI157
asg3994
(dp5157
S'VGNN'
p5158
(issf_api
Node
p5159
(dp5160
g3999
S'r6'
p5161
sg4001
g5158
sg4002
S'NP2'
p5162
sg4003
I-1
sg30
I1
sg4004
(lp5163
S'NP'
p5164
asbsS'VGF'
p5165
(issf_api
Node
p5166
(dp5167
g3999
g4000
sg4001
g5165
sg4002
g4000
sg4003
I-1
sg30
I5
sg4004
(lp5168
S'BLK'
p5169
aS'NP4'
p5170
aS'NP3'
p5171
aS'NP2'
p5172
asbsg5169
(issf_api
Node
p5173
(dp5174
g3999
S'rsym'
p5175
sg4001
g5169
sg4002
S'VGF'
p5176
sg4003
I-1
sg30
I6
sg4004
(lp5177
sbsg5164
(issf_api
Node
p5178
(dp5179
g3999
S'pof'
p5180
sg4001
g5164
sg4002
S'VGNN'
p5181
sg4003
I-1
sg30
I0
sg4004
(lp5182
sbsg5170
(issf_api
Node
p5183
(dp5184
g3999
S'pof'
p5185
sg4001
g5170
sg4002
S'VGF'
p5186
sg4003
I-1
sg30
I4
sg4004
(lp5187
sbsg5171
(issf_api
Node
p5188
(dp5189
g3999
S'k7t'
p5190
sg4001
g5171
sg4002
S'VGF'
p5191
sg4003
I-1
sg30
I3
sg4004
(lp5192
sbsg5172
(issf_api
Node
p5193
(dp5194
g3999
S'k1'
p5195
sg4001
g5172
sg4002
S'VGF'
p5196
sg4003
I-1
sg30
I2
sg4004
(lp5197
g5158
asbssg4016
(lp5198
(issf_api
Chunk
p5199
(dp5200
g4001
g2939
sg30
I0
sg4020
g2946
sg31
I7
sg3992
(lp5201
I149
asg36
(issf_api
FeatureSet
p5202
(dp5203
g12
(dp5204
S'name'
p5205
g5164
sS'drel'
p5206
S'pof:VGNN'
p5207
ssbsba(issf_api
Chunk
p5208
(dp5209
g4001
g2962
sg30
I1
sg4020
g2971
sg31
I7
sg3992
(lp5210
I150
aI151
asg36
(issf_api
FeatureSet
p5211
(dp5212
g12
(dp5213
S'name'
p5214
g5158
sS'drel'
p5215
S'r6:NP2'
p5216
ssbsba(issf_api
Chunk
p5217
(dp5218
g4001
g3004
sg30
I2
sg4020
g3015
sg31
I7
sg3992
(lp5219
I152
asg36
(issf_api
FeatureSet
p5220
(dp5221
g12
(dp5222
S'name'
p5223
g5172
sS'drel'
p5224
S'k1:VGF'
p5225
ssbsba(issf_api
Chunk
p5226
(dp5227
g4001
g3029
sg30
I3
sg4020
g3035
sg31
I7
sg3992
(lp5228
I153
aI154
asg36
(issf_api
FeatureSet
p5229
(dp5230
g12
(dp5231
S'name'
p5232
g5171
sS'drel'
p5233
S'k7t:VGF'
p5234
ssbsba(issf_api
Chunk
p5235
(dp5236
g4001
g3066
sg30
I4
sg4020
g3071
sg31
I7
sg3992
(lp5237
I155
asg36
(issf_api
FeatureSet
p5238
(dp5239
g12
(dp5240
S'name'
p5241
g5170
sS'drel'
p5242
S'pof:VGF'
p5243
ssbsba(issf_api
Chunk
p5244
(dp5245
g4001
g3085
sg30
I5
sg4020
g3092
sg31
I7
sg3992
(lp5246
I156
asg36
(issf_api
FeatureSet
p5247
(dp5248
g12
(dp5249
S'name'
p5250
g5165
ssbsba(issf_api
Chunk
p5251
(dp5252
g4001
g3106
sg30
I6
sg4020
g3111
sg31
I7
sg3992
(lp5253
I157
asg36
(issf_api
FeatureSet
p5254
(dp5255
g12
(dp5256
S'name'
p5257
g5169
sS'drel'
p5258
S'rsym:VGF'
p5259
ssbsbasba(issf_api
Sentence
p5260
(dp5261
g3990
(lp5262
sg31
I8
sg3992
(lp5263
I158
aI159
aI160
aI161
aI162
aI163
aI164
aI165
aI166
aI167
aI168
aI169
aI170
aI171
aI172
asg3994
(dp5264
S'VGF'
p5265
(issf_api
Node
p5266
(dp5267
g3999
g4000
sg4001
g5265
sg4002
g4000
sg4003
I-1
sg30
I7
sg4004
(lp5268
S'RBP'
p5269
aS'NP5'
p5270
aS'BLK'
p5271
aS'NP'
p5272
aS'NP6'
p5273
aS'NP3'
p5274
asbsg5269
(issf_api
Node
p5275
(dp5276
g3999
S'adv'
p5277
sg4001
g5269
sg4002
S'VGF'
p5278
sg4003
I-1
sg30
I3
sg4004
(lp5279
sbsg5270
(issf_api
Node
p5280
(dp5281
g3999
S'k7'
p5282
sg4001
g5270
sg4002
S'VGF'
p5283
sg4003
I-1
sg30
I5
sg4004
(lp5284
S'NP4'
p5285
asbsg5271
(issf_api
Node
p5286
(dp5287
g3999
S'rsym'
p5288
sg4001
g5271
sg4002
S'VGF'
p5289
sg4003
I-1
sg30
I8
sg4004
(lp5290
sbsg5272
(issf_api
Node
p5291
(dp5292
g3999
S'k7t'
p5293
sg4001
g5272
sg4002
S'VGF'
p5294
sg4003
I-1
sg30
I0
sg4004
(lp5295
sbsg5285
(issf_api
Node
p5296
(dp5297
g3999
S'r6'
p5298
sg4001
g5285
sg4002
S'NP5'
p5299
sg4003
I-1
sg30
I4
sg4004
(lp5300
sbsg5273
(issf_api
Node
p5301
(dp5302
g3999
S'k1'
p5303
sg4001
g5273
sg4002
S'VGF'
p5304
sg4003
I-1
sg30
I6
sg4004
(lp5305
sbsg5274
(issf_api
Node
p5306
(dp5307
g3999
S'k2'
p5308
sg4001
g5274
sg4002
S'VGF'
p5309
sg4003
I-1
sg30
I2
sg4004
(lp5310
S'NP2'
p5311
asbsg5311
(issf_api
Node
p5312
(dp5313
g3999
S'r6'
p5314
sg4001
g5311
sg4002
S'NP3'
p5315
sg4003
I-1
sg30
I1
sg4004
(lp5316
sbssg4016
(lp5317
(issf_api
Chunk
p5318
(dp5319
g4001
g3127
sg30
I0
sg4020
g3138
sg31
I8
sg3992
(lp5320
I158
aI159
asg36
(issf_api
FeatureSet
p5321
(dp5322
g12
(dp5323
S'name'
p5324
g5272
sS'drel'
p5325
S'k7t:VGF'
p5326
ssbsba(issf_api
Chunk
p5327
(dp5328
g4001
g3171
sg30
I1
sg4020
g3180
sg31
I8
sg3992
(lp5329
I160
asg36
(issf_api
FeatureSet
p5330
(dp5331
g12
(dp5332
S'name'
p5333
g5311
sS'drel'
p5334
S'r6:NP3'
p5335
ssbsba(issf_api
Chunk
p5336
(dp5337
g4001
g3211
sg30
I2
sg4020
g3218
sg31
I8
sg3992
(lp5338
I161
aI162
aI163
asg36
(issf_api
FeatureSet
p5339
(dp5340
g12
(dp5341
S'name'
p5342
g5274
sS'drel'
p5343
S'k2:VGF'
p5344
ssbsba(issf_api
Chunk
p5345
(dp5346
g4001
g3249
sg30
I3
sg4020
g3254
sg31
I8
sg3992
(lp5347
I164
asg36
(issf_api
FeatureSet
p5348
(dp5349
g12
(dp5350
S'name'
p5351
g5269
sS'drel'
p5352
S'adv:VGF'
p5353
ssbsba(issf_api
Chunk
p5354
(dp5355
g4001
g3268
sg30
I4
sg4020
g3275
sg31
I8
sg3992
(lp5356
I165
aI166
asg36
(issf_api
FeatureSet
p5357
(dp5358
g12
(dp5359
S'name'
p5360
g5285
sS'drel'
p5361
S'r6:NP5'
p5362
ssbsba(issf_api
Chunk
p5363
(dp5364
g4001
g3306
sg30
I5
sg4020
g3313
sg31
I8
sg3992
(lp5365
I167
aI168
asg36
(issf_api
FeatureSet
p5366
(dp5367
g12
(dp5368
S'name'
p5369
g5270
sS'drel'
p5370
S'k7:VGF'
p5371
ssbsba(issf_api
Chunk
p5372
(dp5373
g4001
g3344
sg30
I6
sg4020
g3349
sg31
I8
sg3992
(lp5374
I169
asg36
(issf_api
FeatureSet
p5375
(dp5376
g12
(dp5377
S'name'
p5378
g5273
sS'drel'
p5379
S'k1:VGF'
p5380
ssbsba(issf_api
Chunk
p5381
(dp5382
g4001
g3363
sg30
I7
sg4020
g3372
sg31
I8
sg3992
(lp5383
I170
aI171
asg36
(issf_api
FeatureSet
p5384
(dp5385
g12
(dp5386
S'name'
p5387
g5265
ssbsba(issf_api
Chunk
p5388
(dp5389
g4001
g3403
sg30
I8
sg4020
g3408
sg31
I8
sg3992
(lp5390
I172
asg36
(issf_api
FeatureSet
p5391
(dp5392
g12
(dp5393
S'name'
p5394
g5271
sS'drel'
p5395
S'rsym:VGF'
p5396
ssbsbasba(issf_api
Sentence
p5397
(dp5398
g3990
(lp5399
sg31
I9
sg3992
(lp5400
I173
aI174
aI175
aI176
aI177
aI178
aI179
aI180
aI181
aI182
aI183
aI184
aI185
aI186
aI187
aI188
aI189
aI190
aI191
aI192
aI193
aI194
aI195
aI196
aI197
aI198
aI199
aI200
aI201
asg3994
(dp5401
S'VGNF'
p5402
(issf_api
Node
p5403
(dp5404
g3999
S'nmod__k1inv'
p5405
sg4001
g5402
sg4002
S'NP3'
p5406
sg4003
I-1
sg30
I2
sg4004
(lp5407
S'NP'
p5408
aS'NP2'
p5409
asbsS'NP11'
p5410
(issf_api
Node
p5411
(dp5412
g3999
S'pof'
p5413
sg4001
g5410
sg4002
S'VGF2'
p5414
sg4003
I-1
sg30
I15
sg4004
(lp5415
sbsS'NP10'
p5416
(issf_api
Node
p5417
(dp5418
g3999
S'k4'
p5419
sg4001
g5416
sg4002
S'VGF2'
p5420
sg4003
I-1
sg30
I14
sg4004
(lp5421
sbsS'VGF'
p5422
(issf_api
Node
p5423
(dp5424
g3999
S'ccof'
p5425
sg4001
g5422
sg4002
S'CCP'
p5426
sg4003
I-1
sg30
I7
sg4004
(lp5427
S'JJP'
p5428
aS'NP5'
p5429
aS'NP3'
p5430
asbsS'CCP'
p5431
(issf_api
Node
p5432
(dp5433
g3999
g4000
sg4001
g5431
sg4002
g4000
sg4003
I-1
sg30
I8
sg4004
(lp5434
g5422
aS'VGF2'
p5435
aS'BLK'
p5436
asbsg5428
(issf_api
Node
p5437
(dp5438
g3999
S'pof'
p5439
sg4001
g5428
sg4002
S'VGF'
p5440
sg4003
I-1
sg30
I6
sg4004
(lp5441
sbsg5435
(issf_api
Node
p5442
(dp5443
g3999
S'ccof'
p5444
sg4001
g5435
sg4002
S'CCP'
p5445
sg4003
I-1
sg30
I16
sg4004
(lp5446
g5410
ag5416
aS'NP7'
p5447
aS'CCP2'
p5448
asbsg5429
(issf_api
Node
p5449
(dp5450
g3999
S'k7p'
p5451
sg4001
g5429
sg4002
S'VGF'
p5452
sg4003
I-1
sg30
I5
sg4004
(lp5453
S'NP4'
p5454
asbsS'NP9'
p5455
(issf_api
Node
p5456
(dp5457
g3999
S'ccof'
p5458
sg4001
g5455
sg4002
S'CCP2'
p5459
sg4003
I-1
sg30
I13
sg4004
(lp5460
sbsS'NP8'
p5461
(issf_api
Node
p5462
(dp5463
g3999
S'ccof'
p5464
sg4001
g5461
sg4002
S'CCP2'
p5465
sg4003
I-1
sg30
I11
sg4004
(lp5466
sbsg5436
(issf_api
Node
p5467
(dp5468
g3999
S'rsym'
p5469
sg4001
g5436
sg4002
S'CCP'
p5470
sg4003
I-1
sg30
I17
sg4004
(lp5471
sbsg5408
(issf_api
Node
p5472
(dp5473
g3999
S'k5'
p5474
sg4001
g5408
sg4002
S'VGNF'
p5475
sg4003
I-1
sg30
I0
sg4004
(lp5476
sbsg5454
(issf_api
Node
p5477
(dp5478
g3999
S'r6'
p5479
sg4001
g5454
sg4002
S'NP5'
p5480
sg4003
I-1
sg30
I4
sg4004
(lp5481
sbsg5447
(issf_api
Node
p5482
(dp5483
g3999
S'k1'
p5484
sg4001
g5447
sg4002
S'VGF2'
p5485
sg4003
I-1
sg30
I10
sg4004
(lp5486
S'NP6'
p5487
asbsg5487
(issf_api
Node
p5488
(dp5489
g3999
S'r6'
p5490
sg4001
g5487
sg4002
S'NP7'
p5491
sg4003
I-1
sg30
I9
sg4004
(lp5492
sbsg5448
(issf_api
Node
p5493
(dp5494
g3999
S'k7'
p5495
sg4001
g5448
sg4002
S'VGF2'
p5496
sg4003
I-1
sg30
I12
sg4004
(lp5497
g5455
ag5461
asbsg5430
(issf_api
Node
p5498
(dp5499
g3999
S'k1'
p5500
sg4001
g5430
sg4002
S'VGF'
p5501
sg4003
I-1
sg30
I3
sg4004
(lp5502
g5402
asbsg5409
(issf_api
Node
p5503
(dp5504
g3999
S'pof'
p5505
sg4001
g5409
sg4002
S'VGNF'
p5506
sg4003
I-1
sg30
I1
sg4004
(lp5507
sbssg4016
(lp5508
(issf_api
Chunk
p5509
(dp5510
g4001
g3424
sg30
I0
sg4020
g3435
sg31
I9
sg3992
(lp5511
I173
aI174
asg36
(issf_api
FeatureSet
p5512
(dp5513
g12
(dp5514
S'name'
p5515
g5408
sS'drel'
p5516
S'k5:VGNF'
p5517
ssbsba(issf_api
Chunk
p5518
(dp5519
g4001
g3466
sg30
I1
sg4020
g3471
sg31
I9
sg3992
(lp5520
I175
asg36
(issf_api
FeatureSet
p5521
(dp5522
g12
(dp5523
S'name'
p5524
g5409
sS'drel'
p5525
S'pof:VGNF'
p5526
ssbsba(issf_api
Chunk
p5527
(dp5528
g4001
g3485
sg30
I2
sg4020
g3490
sg31
I9
sg3992
(lp5529
I176
asg36
(issf_api
FeatureSet
p5530
(dp5531
g12
(dp5532
S'name'
p5533
g5402
sS'drel'
p5534
S'nmod__k1inv:NP3'
p5535
ssbsba(issf_api
Chunk
p5536
(dp5537
g4001
g3504
sg30
I3
sg4020
g3509
sg31
I9
sg3992
(lp5538
I177
asg36
(issf_api
FeatureSet
p5539
(dp5540
g12
(dp5541
S'name'
p5542
g5430
sS'drel'
p5543
S'k1:VGF'
p5544
ssbsba(issf_api
Chunk
p5545
(dp5546
g4001
g3525
sg30
I4
sg4020
g3536
sg31
I9
sg3992
(lp5547
I178
aI179
aI180
asg36
(issf_api
FeatureSet
p5548
(dp5549
g12
(dp5550
S'name'
p5551
g5454
sS'drel'
p5552
S'r6:NP5'
p5553
ssbsba(issf_api
Chunk
p5554
(dp5555
g4001
g3586
sg30
I5
sg4020
g3593
sg31
I9
sg3992
(lp5556
I181
aI182
asg36
(issf_api
FeatureSet
p5557
(dp5558
g12
(dp5559
S'name'
p5560
g5429
sS'drel'
p5561
S'k7p:VGF'
p5562
ssbsba(issf_api
Chunk
p5563
(dp5564
g4001
g3624
sg30
I6
sg4020
g3629
sg31
I9
sg3992
(lp5565
I183
asg36
(issf_api
FeatureSet
p5566
(dp5567
g12
(dp5568
S'name'
p5569
g5428
sS'drel'
p5570
S'pof:VGF'
p5571
ssbsba(issf_api
Chunk
p5572
(dp5573
g4001
g3643
sg30
I7
sg4020
g3652
sg31
I9
sg3992
(lp5574
I184
asg36
(issf_api
FeatureSet
p5575
(dp5576
g12
(dp5577
S'name'
p5578
g5422
sS'drel'
p5579
S'ccof:CCP'
p5580
ssbsba(issf_api
Chunk
p5581
(dp5582
g4001
g3662
sg30
I8
sg4020
g3669
sg31
I9
sg3992
(lp5583
I185
asg36
(issf_api
FeatureSet
p5584
(dp5585
g12
(dp5586
S'name'
p5587
g5431
ssbsba(issf_api
Chunk
p5588
(dp5589
g4001
g3685
sg30
I9
sg4020
g3696
sg31
I9
sg3992
(lp5590
I186
aI187
asg36
(issf_api
FeatureSet
p5591
(dp5592
g12
(dp5593
S'name'
p5594
g5487
sS'drel'
p5595
S'r6:NP7'
p5596
ssbsba(issf_api
Chunk
p5597
(dp5598
g4001
g3727
sg30
I10
sg4020
g3734
sg31
I9
sg3992
(lp5599
I188
aI189
asg36
(issf_api
FeatureSet
p5600
(dp5601
g12
(dp5602
S'name'
p5603
g5447
sS'drel'
p5604
S'k1:VGF2'
p5605
ssbsba(issf_api
Chunk
p5606
(dp5607
g4001
g3765
sg30
I11
sg4020
g3770
sg31
I9
sg3992
(lp5608
I190
asg36
(issf_api
FeatureSet
p5609
(dp5610
g12
(dp5611
S'name'
p5612
g5461
sS'drel'
p5613
S'ccof:CCP2'
p5614
ssbsba(issf_api
Chunk
p5615
(dp5616
g4001
g3784
sg30
I12
sg4020
g3789
sg31
I9
sg3992
(lp5617
I191
asg36
(issf_api
FeatureSet
p5618
(dp5619
g12
(dp5620
S'name'
p5621
g5448
sS'drel'
p5622
S'k7:VGF2'
p5623
ssbsba(issf_api
Chunk
p5624
(dp5625
g4001
g3837
sg30
I13
sg4020
g3844
sg31
I9
sg3992
(lp5626
I192
aI193
aI194
aI195
asg36
(issf_api
FeatureSet
p5627
(dp5628
g12
(dp5629
S'name'
p5630
g5455
sS'drel'
p5631
S'ccof:CCP2'
p5632
ssbsba(issf_api
Chunk
p5633
(dp5634
g4001
g3877
sg30
I14
sg4020
g3888
sg31
I9
sg3992
(lp5635
I196
aI197
aI198
asg36
(issf_api
FeatureSet
p5636
(dp5637
g12
(dp5638
S'name'
p5639
g5416
sS'drel'
p5640
S'k4:VGF2'
p5641
ssbsba(issf_api
Chunk
p5642
(dp5643
g4001
g3938
sg30
I15
sg4020
g3943
sg31
I9
sg3992
(lp5644
I199
asg36
(issf_api
FeatureSet
p5645
(dp5646
g12
(dp5647
S'name'
p5648
g5410
sS'drel'
p5649
S'pof:VGF2'
p5650
ssbsba(issf_api
Chunk
p5651
(dp5652
g4001
g3957
sg30
I16
sg4020
g3966
sg31
I9
sg3992
(lp5653
I200
asg36
(issf_api
FeatureSet
p5654
(dp5655
g12
(dp5656
S'name'
p5657
g5435
sS'drel'
p5658
S'ccof:CCP'
p5659
ssbsba(issf_api
Chunk
p5660
(dp5661
g4001
g3980
sg30
I17
sg4020
g3985
sg31
I9
sg3992
(lp5662
I201
asg36
(issf_api
FeatureSet
p5663
(dp5664
g12
(dp5665
S'name'
p5666
g5436
sS'drel'
p5667
S'rsym:CCP'
p5668
ssbsbasbasb.