(issf_api
SSFInfo
p0
(dp1
S'globalWordList'
p2
(lp3
(issf_api
Word
p4
(dp5
S'splitConn'
p6
I00
sS'word'
p7
V\u0935\u0930\u094d\u0937
p8
sS'extraFeatureSet'
p9
(issf_api
FeatureSet
p10
(dp11
S'featureDict'
p12
(dp13
S'posn'
p14
S'10'
p15
sS'name'
p16
S'\xe0\xa4\xb5\xe0\xa4\xb0\xe0\xa5\x8d\xe0\xa4\xb7'
p17
sS'af'
p18
S'\xe0\xa4\xb5\xe0\xa4\xb0\xe0\xa5\x8d\xe0\xa4\xb7,n,m,sg,3,d,0,0'
p19
sS'drel'
p20
S'nmod:NP'
p21
sS'chunktype'
p22
S'child:NP'
p23
sS'cref'
p24
S'i1%0:t1'
p25
ssbsS'arg1'
p26
I00
sS'arg2'
p27
I00
sS'sense'
p28
NsS'arg1Span'
p29
NsS'chunkNum'
p30
I0
sS'sentenceNum'
p31
I0
sS'relationNum'
p32
NsS'arg2Span'
p33
NsS'wordTag'
p34
S'NN'
p35
sS'featureSet'
p36
g10
sS'conn'
p37
I00
sba(issf_api
Word
p38
(dp39
g6
I00
sg7
V\u0967\u096f\u096f\u096c
p40
sg9
(issf_api
FeatureSet
p41
(dp42
g12
(dp43
S'crefhead'
p44
S'\xe0\xa5\xa7\xe0\xa5\xaf\xe0\xa5\xaf\xe0\xa5\xac:i1'
p45
sS'posn'
p46
S'20'
p47
sS'name'
p48
S'\xe0\xa5\xa7\xe0\xa5\xaf\xe0\xa5\xaf\xe0\xa5\xac'
p49
sS'af'
p50
S'\xe0\xa5\xa7\xe0\xa5\xaf\xe0\xa5\xaf\xe0\xa5\xac,n,any,sg,3,o,0_\xe0\xa4\xae\xe0\xa5\x87\xe0\xa4\x82,0'
p51
sS'chunkid'
p52
S'NP'
p53
sS'chunktype'
p54
S'head:NP'
p55
sS'crefchainhead'
p56
S'i1:t1'
p57
sS'vpos'
p58
S'vib_vib_3'
p59
sS'cref'
p60
S'i1%1:t1'
p61
sS'drel'
p62
S'k7t:VGNN'
p63
ssbsg26
I00
sg27
I00
sg28
Nsg29
Nsg30
I0
sg31
I0
sg32
Nsg33
Nsg34
S'NNP'
p64
sg36
g41
sg37
I00
sba(issf_api
Word
p65
(dp66
g6
I00
sg7
V\u092e\u0947\u0902
p67
sg9
(issf_api
FeatureSet
p68
(dp69
g12
(dp70
S'posn'
p71
S'30'
p72
sS'name'
p73
S'\xe0\xa4\xae\xe0\xa5\x87\xe0\xa4\x82'
p74
sS'drel'
p75
S'lwg__psp:NP'
p76
sS'chunktype'
p77
S'child:NP'
p78
sS'af'
p79
S'\xe0\xa4\xae\xe0\xa5\x87\xe0\xa4\x82,psp,,,,,,'
p80
ssbsg26
I00
sg27
I00
sg28
Nsg29
Nsg30
I0
sg31
I0
sg32
Nsg33
Nsg34
S'PSP'
p81
sg36
g68
sg37
I00
sba(issf_api
Word
p82
(dp83
g6
I00
sg7
V\u090f\u0915
p84
sg9
(issf_api
FeatureSet
p85
(dp86
g12
(dp87
S'posn'
p88
S'40'
p89
sS'name'
p90
S'\xe0\xa4\x8f\xe0\xa4\x95'
p91
sS'af'
p92
S'\xe0\xa4\x8f\xe0\xa4\x95,num,any,any,,any,,'
p93
sS'drel'
p94
S'nmod__adj:NP2'
p95
sS'chunktype'
p96
S'child:NP2'
p97
sS'cref'
p98
S'i2%0:t2'
p99
ssbsg26
I00
sg27
I00
sg28
Nsg29
Nsg30
I1
sg31
I0
sg32
Nsg33
Nsg34
S'QC'
p100
sg36
g85
sg37
I00
sba(issf_api
Word
p101
(dp102
g6
I00
sg7
V\u0928\u094c\u0938\u093f\u0916\u093f\u090f
p103
sg9
(issf_api
FeatureSet
p104
(dp105
g12
(dp106
S'crefhead'
p107
S'\xe0\xa4\xa8\xe0\xa5\x8c\xe0\xa4\xb8\xe0\xa4\xbf\xe0\xa4\x96\xe0\xa4\xbf\xe0\xa4\x8f:i2'
p108
sS'posn'
p109
S'50'
p110
sS'name'
p111
S'\xe0\xa4\xa8\xe0\xa5\x8c\xe0\xa4\xb8\xe0\xa4\xbf\xe0\xa4\x96\xe0\xa4\xbf\xe0\xa4\x8f'
p112
sS'af'
p113
S'\xe0\xa4\xa8\xe0\xa5\x8c\xe0\xa4\xb8\xe0\xa4\xbf\xe0\xa4\x96\xe0\xa4\xbf\xe0\xa4\xaf\xe0\xa4\xbe,n,m,sg,3,o,0_\xe0\xa4\x95\xe0\xa4\xbe_\xe0\xa4\xb9\xe0\xa5\x88\xe0\xa4\xb8\xe0\xa4\xbf\xe0\xa4\xaf\xe0\xa4\xa4_\xe0\xa4\xb8\xe0\xa5\x87,0'
p114
sS'chunkid'
p115
S'NP2'
p116
sS'drel'
p117
S'vmod:VGNN'
p118
sS'chunktype'
p119
S'head:NP2'
p120
sS'vpos'
p121
S'vib_3_4_5'
p122
sS'cref'
p123
S'i2%1:t2'
p124
ssbsg26
I00
sg27
I00
sg28
Nsg29
Nsg30
I1
sg31
I0
sg32
Nsg33
Nsg34
S'NN'
p125
sg36
g104
sg37
I00
sba(issf_api
Word
p126
(dp127
g6
I00
sg7
V\u0915\u0940
p128
sg9
(issf_api
FeatureSet
p129
(dp130
g12
(dp131
S'posn'
p132
S'60'
p133
sS'name'
p134
S'\xe0\xa4\x95\xe0\xa5\x80'
p135
sS'drel'
p136
S'lwg__psp:NP2'
p137
sS'chunktype'
p138
S'child:NP2'
p139
sS'af'
p140
S'\xe0\xa4\x95\xe0\xa4\xbe,psp,f,,,o,,'
p141
ssbsg26
I00
sg27
I00
sg28
Nsg29
Nsg30
I1
sg31
I0
sg32
Nsg33
Nsg34
S'PSP'
p142
sg36
g129
sg37
I00
sba(issf_api
Word
p143
(dp144
g6
I00
sg7
V\u0939\u0948\u0938\u093f\u092f\u0924
p145
sg9
(issf_api
FeatureSet
p146
(dp147
g12
(dp148
S'posn'
p149
S'60'
p150
sS'name'
p151
S'\xe0\xa4\xb9\xe0\xa5\x88\xe0\xa4\xb8\xe0\xa4\xbf\xe0\xa4\xaf\xe0\xa4\xa4'
p152
sS'drel'
p153
S'lwg__psp:NP2'
p154
sS'chunktype'
p155
S'child:NP2'
p156
sS'af'
p157
S'\xe0\xa4\xb9\xe0\xa5\x88\xe0\xa4\xb8\xe0\xa4\xbf\xe0\xa4\xaf\xe0\xa4\xa4,n,f,,,o,,'
p158
ssbsg26
I00
sg27
I00
sg28
Nsg29
Nsg30
I1
sg31
I0
sg32
Nsg33
Nsg34
S'PSP'
p159
sg36
g146
sg37
I00
sba(issf_api
Word
p160
(dp161
g6
I00
sg7
V\u0938\u0947
p162
sg9
(issf_api
FeatureSet
p163
(dp164
g12
(dp165
S'posn'
p166
S'80'
p167
sS'name'
p168
S'\xe0\xa4\xb8\xe0\xa5\x87'
p169
sS'drel'
p170
S'lwg__psp:NP2'
p171
sS'chunktype'
p172
S'child:NP2'
p173
sS'af'
p174
S'\xe0\xa4\xb8\xe0\xa5\x87,psp,,,,,,'
p175
ssbsg26
I00
sg27
I00
sg28
Nsg29
Nsg30
I1
sg31
I0
sg32
Nsg33
Nsg34
S'PSP'
p176
sg36
g163
sg37
I00
sba(issf_api
Word
p177
(dp178
g6
I00
sg7
V\u0930\u093e\u091c\u0928\u0940\u0924\u093f
p179
sg9
(issf_api
FeatureSet
p180
(dp181
g12
(dp182
S'crefhead'
p183
S'\xe0\xa4\xb0\xe0\xa4\xbe\xe0\xa4\x9c\xe0\xa4\xa8\xe0\xa5\x80\xe0\xa4\xa4\xe0\xa4\xbf:i3'
p184
sS'posn'
p185
S'90'
p186
sS'name'
p187
S'\xe0\xa4\xb0\xe0\xa4\xbe\xe0\xa4\x9c\xe0\xa4\xa8\xe0\xa5\x80\xe0\xa4\xa4\xe0\xa4\xbf'
p188
sS'af'
p189
S'\xe0\xa4\xb0\xe0\xa4\xbe\xe0\xa4\x9c\xe0\xa4\xa8\xe0\xa5\x80\xe0\xa4\xa4\xe0\xa4\xbf,n,f,sg,3,d,0,0'
p190
sS'chunkid'
p191
S'NP3'
p192
sS'chunktype'
p193
S'head:NP3'
p194
sS'crefchainhead'
p195
S'i3:t3'
p196
sS'cref'
p197
S'i3%1:t3'
p198
sS'drel'
p199
S'k2:VGNN'
p200
ssbsg26
I00
sg27
I00
sg28
Nsg29
Nsg30
I2
sg31
I0
sg32
Nsg33
Nsg34
S'NN'
p201
sg36
g180
sg37
I00
sba(issf_api
Word
p202
(dp203
g6
I00
sg7
V\u0936\u0941\u0930\u0942
p204
sg9
(issf_api
FeatureSet
p205
(dp206
g12
(dp207
S'posn'
p208
S'100'
p209
sS'name'
p210
S'\xe0\xa4\xb6\xe0\xa5\x81\xe0\xa4\xb0\xe0\xa5\x82'
p211
sS'af'
p212
S'\xe0\xa4\xb6\xe0\xa5\x81\xe0\xa4\xb0\xe0\xa5\x82,n,m,sg,3,d,0,0'
p213
sS'chunkid'
p214
S'NP4'
p215
sS'drel'
p216
S'pof:VGNN'
p217
sS'chunktype'
p218
S'head:NP4'
p219
ssbsg26
I00
sg27
I00
sg28
Nsg29
Nsg30
I3
sg31
I0
sg32
Nsg33
Nsg34
S'NN'
p220
sg36
g205
sg37
I00
sba(issf_api
Word
p221
(dp222
g6
I00
sg7
V\u0915\u0930\u0928\u0947
p223
sg9
(issf_api
FeatureSet
p224
(dp225
g12
(dp226
S'posn'
p227
S'110'
p228
sS'name'
p229
S'\xe0\xa4\x95\xe0\xa4\xb0\xe0\xa4\xa8\xe0\xa5\x87'
p230
sS'af'
p231
S'\xe0\xa4\x95\xe0\xa4\xb0,v,any,sg,3h,o,\xe0\xa4\xa8\xe0\xa4\xbe_\xe0\xa4\xb5\xe0\xa4\xbe\xe0\xa4\xb2\xe0\xa4\xbe,nA'
p232
sS'chunkid'
p233
S'VGNN'
p234
sS'drel'
p235
S'nmod:NP5'
p236
sS'vpos'
p237
S'tam_2'
p238
sS'chunktype'
p239
S'head:VGNN'
p240
ssbsg26
I00
sg27
I00
sg28
Nsg29
Nsg30
I4
sg31
I0
sg32
Nsg33
Nsg34
S'VM'
p241
sg36
g224
sg37
I00
sba(issf_api
Word
p242
(dp243
g6
I00
sg7
V\u0935\u093e\u0932\u0947
p244
sg9
(issf_api
FeatureSet
p245
(dp246
g12
(dp247
S'posn'
p248
S'120'
p249
sS'name'
p250
S'\xe0\xa4\xb5\xe0\xa4\xbe\xe0\xa4\xb2\xe0\xa5\x87'
p251
sS'drel'
p252
S'lwg__psp:VGNN'
p253
sS'chunktype'
p254
S'child:VGNN'
p255
sS'af'
p256
S'\xe0\xa4\xb5\xe0\xa4\xbe\xe0\xa4\xb2\xe0\xa4\xbe,psp,m,sg,3h,d,,'
p257
ssbsg26
I00
sg27
I00
sg28
Nsg29
Nsg30
I4
sg31
I0
sg32
Nsg33
Nsg34
S'PSP'
p258
sg36
g245
sg37
I00
sba(issf_api
Word
p259
(dp260
g6
I00
sg7
V\u090f\u091a.
p261
sg9
(issf_api
FeatureSet
p262
(dp263
g12
(dp264
S'posn'
p265
S'130'
p266
sS'name'
p267
S'\xe0\xa4\x8f\xe0\xa4\x9a.'
p268
sS'af'
p269
S'\xe0\xa4\x8f\xe0\xa4\x9a.,n,m,sg,3,d,0,0'
p270
sS'drel'
p271
S'pof__cn:NP5'
p272
sS'chunktype'
p273
S'child:NP5'
p274
sS'cref'
p275
S'i4%0:t2'
p276
ssbsg26
I00
sg27
I00
sg28
Nsg29
Nsg30
I5
sg31
I0
sg32
Nsg33
Nsg34
S'NNPC'
p277
sg36
g262
sg37
I00
sba(issf_api
Word
p278
(dp279
g6
I00
sg7
V\u0921\u0940.
p280
sg9
(issf_api
FeatureSet
p281
(dp282
g12
(dp283
S'posn'
p284
S'140'
p285
sS'name'
p286
S'\xe0\xa4\xa1\xe0\xa5\x80.'
p287
sS'af'
p288
S'\xe0\xa4\xa1\xe0\xa5\x80.,n,m,sg,3,d,0,0'
p289
sS'drel'
p290
S'pof__cn:NP5'
p291
sS'chunktype'
p292
S'child:NP5'
p293
sS'cref'
p294
S'i4%0:t2'
p295
ssbsg26
I00
sg27
I00
sg28
Nsg29
Nsg30
I5
sg31
I0
sg32
Nsg33
Nsg34
S'NNPC'
p296
sg36
g281
sg37
I00
sba(issf_api
Word
p297
(dp298
g6
I00
sg7
V\u0915\u0941\u092e\u093e\u0930\u0938\u094d\u0935\u093e\u092e\u0940
p299
sg9
(issf_api
FeatureSet
p300
(dp301
g12
(dp302
S'crefhead'
p303
S'\xe0\xa4\x95\xe0\xa5\x81\xe0\xa4\xae\xe0\xa4\xbe\xe0\xa4\xb0\xe0\xa4\xb8\xe0\xa5\x8d\xe0\xa4\xb5\xe0\xa4\xbe\xe0\xa4\xae\xe0\xa5\x80:i4'
p304
sS'posn'
p305
S'150'
p306
sS'name'
p307
S'\xe0\xa4\x95\xe0\xa5\x81\xe0\xa4\xae\xe0\xa4\xbe\xe0\xa4\xb0\xe0\xa4\xb8\xe0\xa5\x8d\xe0\xa4\xb5\xe0\xa4\xbe\xe0\xa4\xae\xe0\xa5\x80'
p308
sS'af'
p309
S'\xe0\xa4\x95\xe0\xa5\x81\xe0\xa4\xae\xe0\xa4\xbe\xe0\xa4\xb0\xe0\xa4\xb8\xe0\xa5\x8d\xe0\xa4\xb5\xe0\xa4\xbe\xe0\xa4\xae\xe0\xa5\x80,n,m,sg,3,d,0,0'
p310
sS'chunkid'
p311
S'NP5'
p312
sS'creftype'
p313
S'Coreference-Noun-Noun:i57:i5'
p314
sS'chunktype'
p315
S'head:NP5'
p316
sS'crefchainhead'
p317
S'i4:t2'
p318
sS'cref'
p319
S'i4%1:t2'
p320
sS'drel'
p321
S'k1:VGF'
p322
ssbsg26
I00
sg27
I00
sg28
Nsg29
Nsg30
I5
sg31
I0
sg32
Nsg33
Nsg34
S'NNP'
p323
sg36
g300
sg37
I00
sba(issf_api
Word
p324
(dp325
g6
I00
sg7
V\u0935\u0930\u094d\u0937
p326
sg9
(issf_api
FeatureSet
p327
(dp328
g12
(dp329
S'posn'
p330
S'160'
p331
sS'name'
p332
S'\xe0\xa4\xb5\xe0\xa4\xb0\xe0\xa5\x8d\xe0\xa4\xb72'
p333
sS'drel'
p334
S'nmod:NP6'
p335
sS'chunktype'
p336
S'child:NP6'
p337
sS'af'
p338
S'\xe0\xa4\xb5\xe0\xa4\xb0\xe0\xa5\x8d\xe0\xa4\xb7,n,m,sg,3,d,0,0'
p339
ssbsg26
I00
sg27
I00
sg28
Nsg29
Nsg30
I6
sg31
I0
sg32
Nsg33
Nsg34
S'NN'
p340
sg36
g327
sg37
I00
sba(issf_api
Word
p341
(dp342
g6
I00
sg7
V\u0968\u0966\u0966\u096c
p343
sg9
(issf_api
FeatureSet
p344
(dp345
g12
(dp346
S'posn'
p347
S'170'
p348
sS'name'
p349
S'\xe0\xa5\xa8\xe0\xa5\xa6\xe0\xa5\xa6\xe0\xa5\xac'
p350
sS'af'
p351
S'\xe0\xa5\xa8\xe0\xa5\xa6\xe0\xa5\xa6\xe0\xa5\xac,n,any,sg,3,o,0_\xe0\xa4\x95\xe0\xa4\xbe,0'
p352
sS'chunkid'
p353
S'NP6'
p354
sS'drel'
p355
S'r6:NP7'
p356
sS'vpos'
p357
S'vib_vib_3'
p358
sS'chunktype'
p359
S'head:NP6'
p360
ssbsg26
I00
sg27
I00
sg28
Nsg29
Nsg30
I6
sg31
I0
sg32
Nsg33
Nsg34
S'NNP'
p361
sg36
g344
sg37
I00
sba(issf_api
Word
p362
(dp363
g6
I00
sg7
V\u0915\u0947
p364
sg9
(issf_api
FeatureSet
p365
(dp366
g12
(dp367
S'posn'
p368
S'180'
p369
sS'name'
p370
S'\xe0\xa4\x95\xe0\xa5\x87'
p371
sS'drel'
p372
S'lwg__psp:NP6'
p373
sS'chunktype'
p374
S'child:NP6'
p375
sS'af'
p376
S'\xe0\xa4\x95\xe0\xa4\xbe,psp,m,sg,,o,,'
p377
ssbsg26
I00
sg27
I00
sg28
Nsg29
Nsg30
I6
sg31
I0
sg32
Nsg33
Nsg34
S'PSP'
p378
sg36
g365
sg37
I00
sba(issf_api
Word
p379
(dp380
g6
I00
sg7
V\u092a\u0939\u0932\u0947
p381
sg9
(issf_api
FeatureSet
p382
(dp383
g12
(dp384
S'posn'
p385
S'190'
p386
sS'name'
p387
S'\xe0\xa4\xaa\xe0\xa4\xb9\xe0\xa4\xb2\xe0\xa5\x87'
p388
sS'drel'
p389
S'nmod__adj:NP7'
p390
sS'chunktype'
p391
S'child:NP7'
p392
sS'af'
p393
S'\xe0\xa4\xaa\xe0\xa4\xb9\xe0\xa4\xb2\xe0\xa4\xbe,num,m,sg,,o,,'
p394
ssbsg26
I00
sg27
I00
sg28
Nsg29
Nsg30
I7
sg31
I0
sg32
Nsg33
Nsg34
S'QO'
p395
sg36
g382
sg37
I00
sba(issf_api
Word
p396
(dp397
g6
I00
sg7
V\u092e\u0939\u0940\u0928\u0947
p398
sg9
(issf_api
FeatureSet
p399
(dp400
g12
(dp401
S'posn'
p402
S'200'
p403
sS'name'
p404
S'\xe0\xa4\xae\xe0\xa4\xb9\xe0\xa5\x80\xe0\xa4\xa8\xe0\xa5\x87'
p405
sS'af'
p406
S'\xe0\xa4\xae\xe0\xa4\xb9\xe0\xa5\x80\xe0\xa4\xa8\xe0\xa4\xbe,n,m,sg,3,o,0_\xe0\xa4\xae\xe0\xa5\x87\xe0\xa4\x82,0'
p407
sS'chunkid'
p408
S'NP7'
p409
sS'drel'
p410
S'k7t:VGF'
p411
sS'vpos'
p412
S'vib_3'
p413
sS'chunktype'
p414
S'head:NP7'
p415
ssbsg26
I00
sg27
I00
sg28
Nsg29
Nsg30
I7
sg31
I0
sg32
Nsg33
Nsg34
S'NN'
p416
sg36
g399
sg37
I00
sba(issf_api
Word
p417
(dp418
g6
I00
sg7
V\u092e\u0947\u0902
p419
sg9
(issf_api
FeatureSet
p420
(dp421
g12
(dp422
S'posn'
p423
S'210'
p424
sS'name'
p425
S'\xe0\xa4\xae\xe0\xa5\x87\xe0\xa4\x822'
p426
sS'drel'
p427
S'lwg__psp:NP7'
p428
sS'chunktype'
p429
S'child:NP7'
p430
sS'af'
p431
S'\xe0\xa4\xae\xe0\xa5\x87\xe0\xa4\x82,psp,,,,,,'
p432
ssbsg26
I00
sg27
I00
sg28
Nsg29
Nsg30
I7
sg31
I0
sg32
Nsg33
Nsg34
S'PSP'
p433
sg36
g420
sg37
I00
sba(issf_api
Word
p434
(dp435
g6
I00
sg7
V\u090f\u0915
p436
sg9
(issf_api
FeatureSet
p437
(dp438
g12
(dp439
S'posn'
p440
S'220'
p441
sS'name'
p442
S'\xe0\xa4\x8f\xe0\xa4\x952'
p443
sS'af'
p444
S'\xe0\xa4\x8f\xe0\xa4\x95,num,any,any,,any,,'
p445
sS'drel'
p446
S'nmod__adj:NP8'
p447
sS'chunktype'
p448
S'child:NP8'
p449
sS'cref'
p450
S'i6%0:t2'
p451
ssbsg26
I00
sg27
I00
sg28
Nsg29
Nsg30
I8
sg31
I0
sg32
Nsg33
Nsg34
S'QC'
p452
sg36
g437
sg37
I00
sba(issf_api
Word
p453
(dp454
g6
I00
sg7
V\u0910\u0938\u0947
p455
sg9
(issf_api
FeatureSet
p456
(dp457
g12
(dp458
S'crefhead'
p459
S'\xe0\xa4\x90\xe0\xa4\xb8\xe0\xa5\x87:i7'
p460
sS'posn'
p461
S'230'
p462
sS'name'
p463
S'\xe0\xa4\x90\xe0\xa4\xb8\xe0\xa5\x87'
p464
sS'af'
p465
S'\xe0\xa4\x90\xe0\xa4\xb8\xe0\xa4\xbe,pn,m,sg,any,o,0,0'
p466
sS'chunkid'
p467
S'NP8'
p468
sS'creftype'
p469
S'Coreference-Noun-Noun:i4'
p470
sS'chunktype'
p471
S'head:NP8'
p472
sS'crefchainhead'
p473
S'i7:t4'
p474
sS'cref'
p475
S'i6%0:t2,i7%1:t4'
p476
sS'drel'
p477
S'fragof:NP9'
p478
ssbsg26
I00
sg27
I00
sg28
Nsg29
Nsg30
I8
sg31
I0
sg32
Nsg33
Nsg34
S'PRP'
p479
sg36
g456
sg37
I00
sba(issf_api
Word
p480
(dp481
g6
I00
sg7
V\u092e\u0902\u091c\u0947
p482
sg9
(issf_api
FeatureSet
p483
(dp484
g12
(dp485
S'posn'
p486
S'240'
p487
sS'name'
p488
S'\xe0\xa4\xae\xe0\xa4\x82\xe0\xa4\x9c\xe0\xa5\x87'
p489
sS'af'
p490
S'\xe0\xa4\xae\xe0\xa4\x82\xe0\xa4\x9d\xe0\xa5\x87,v,m,sg,3h,,\xe0\xa4\xaf\xe0\xa4\xbe_\xe0\xa4\xb9\xe0\xa5\x8b+\xe0\xa4\xaf\xe0\xa4\xbe,yA'
p491
sS'chunkid'
p492
S'VGNF'
p493
sS'drel'
p494
S'nmod__k1inv:NP9'
p495
sS'chunktype'
p496
S'head:VGNF'
p497
sS'vpos'
p498
S'tam_2'
p499
sS'cref'
p500
S'i6%0:t2'
p501
ssbsg26
I00
sg27
I00
sg28
Nsg29
Nsg30
I9
sg31
I0
sg32
Nsg33
Nsg34
S'VM'
p502
sg36
g483
sg37
I00
sba(issf_api
Word
p503
(dp504
g6
I00
sg7
V\u0939\u0941\u090f
p505
sg9
(issf_api
FeatureSet
p506
(dp507
g12
(dp508
S'posn'
p509
S'250'
p510
sS'name'
p511
S'\xe0\xa4\xb9\xe0\xa5\x81\xe0\xa4\x8f'
p512
sS'af'
p513
S'\xe0\xa4\xb9\xe0\xa5\x8b,v,m,sg,3h,,\xe0\xa4\xaf\xe0\xa4\xbe,yA'
p514
sS'drel'
p515
S'lwg__vaux:VGNF'
p516
sS'chunktype'
p517
S'child:VGNF'
p518
sS'cref'
p519
S'i6%0:t2'
p520
ssbsg26
I00
sg27
I00
sg28
Nsg29
Nsg30
I9
sg31
I0
sg32
Nsg33
Nsg34
S'VAUX'
p521
sg36
g506
sg37
I00
sba(issf_api
Word
p522
(dp523
g6
I00
sg7
V\u0928\u0947\u0924\u093e
p524
sg9
(issf_api
FeatureSet
p525
(dp526
g12
(dp527
S'crefhead'
p528
S'\xe0\xa4\xa8\xe0\xa5\x87\xe0\xa4\xa4\xe0\xa4\xbe:i6'
p529
sS'posn'
p530
S'260'
p531
sS'name'
p532
S'\xe0\xa4\xa8\xe0\xa5\x87\xe0\xa4\xa4\xe0\xa4\xbe'
p533
sS'af'
p534
S'\xe0\xa4\xa8\xe0\xa5\x87\xe0\xa4\xa4\xe0\xa4\xbe,n,m,sg,3,o,0_\xe0\xa4\x95\xe0\xa5\x87_\xe0\xa4\xb0\xe0\xa5\x82\xe0\xa4\xaa_\xe0\xa4\xae\xe0\xa5\x87\xe0\xa4\x82,0'
p535
sS'chunkid'
p536
S'NP9'
p537
sS'drel'
p538
S'k7:VGF'
p539
sS'chunktype'
p540
S'head:NP9'
p541
sS'vpos'
p542
S'vib_2_3_4'
p543
sS'cref'
p544
S'i6%1:t2'
p545
ssbsg26
I00
sg27
I00
sg28
Nsg29
Nsg30
I10
sg31
I0
sg32
Nsg33
Nsg34
S'NN'
p546
sg36
g525
sg37
I00
sba(issf_api
Word
p547
(dp548
g6
I00
sg7
V\u0915\u0947
p549
sg9
(issf_api
FeatureSet
p550
(dp551
g12
(dp552
S'posn'
p553
S'270'
p554
sS'name'
p555
S'\xe0\xa4\x95\xe0\xa5\x872'
p556
sS'drel'
p557
S'lwg__psp:NP9'
p558
sS'chunktype'
p559
S'child:NP9'
p560
sS'af'
p561
S'\xe0\xa4\x95\xe0\xa5\x87,psp,m,,,o,,'
p562
ssbsg26
I00
sg27
I00
sg28
Nsg29
Nsg30
I10
sg31
I0
sg32
Nsg33
Nsg34
S'PSP'
p563
sg36
g550
sg37
I00
sba(issf_api
Word
p564
(dp565
g6
I00
sg7
V\u0930\u0942\u092a
p566
sg9
(issf_api
FeatureSet
p567
(dp568
g12
(dp569
S'posn'
p570
S'270'
p571
sS'name'
p572
S'\xe0\xa4\xb0\xe0\xa5\x82\xe0\xa4\xaa'
p573
sS'drel'
p574
S'lwg__psp:NP9'
p575
sS'chunktype'
p576
S'child:NP9'
p577
sS'af'
p578
S'\xe0\xa4\xb0\xe0\xa5\x82\xe0\xa4\xaa,n,m,,,o,,'
p579
ssbsg26
I00
sg27
I00
sg28
Nsg29
Nsg30
I10
sg31
I0
sg32
Nsg33
Nsg34
S'PSP'
p580
sg36
g567
sg37
I00
sba(issf_api
Word
p581
(dp582
g6
I00
sg7
V\u092e\u0947\u0902
p583
sg9
(issf_api
FeatureSet
p584
(dp585
g12
(dp586
S'posn'
p587
S'290'
p588
sS'name'
p589
S'\xe0\xa4\xae\xe0\xa5\x87\xe0\xa4\x823'
p590
sS'drel'
p591
S'lwg__psp:NP9'
p592
sS'chunktype'
p593
S'child:NP9'
p594
sS'af'
p595
S'\xe0\xa4\xae\xe0\xa5\x87\xe0\xa4\x82,psp,,,,,,'
p596
ssbsg26
I00
sg27
I00
sg28
Nsg29
Nsg30
I10
sg31
I0
sg32
Nsg33
Nsg34
S'PSP'
p597
sg36
g584
sg37
I00
sba(issf_api
Word
p598
(dp599
g6
I00
sg7
V\u0938\u093e\u092e\u0928\u0947
p600
sg9
(issf_api
FeatureSet
p601
(dp602
g12
(dp603
S'posn'
p604
S'300'
p605
sS'name'
p606
S'\xe0\xa4\xb8\xe0\xa4\xbe\xe0\xa4\xae\xe0\xa4\xa8\xe0\xa5\x87'
p607
sS'af'
p608
S'\xe0\xa4\xb8\xe0\xa4\xbe\xe0\xa4\xae\xe0\xa4\xa8\xe0\xa5\x87,nst,m,sg,3,d,,'
p609
sS'chunkid'
p610
S'NP10'
p611
sS'drel'
p612
S'k7:VGF'
p613
sS'chunktype'
p614
S'head:NP10'
p615
ssbsg26
I00
sg27
I00
sg28
Nsg29
Nsg30
I11
sg31
I0
sg32
Nsg33
Nsg34
S'NST'
p616
sg36
g601
sg37
I00
sba(issf_api
Word
p617
(dp618
g6
I00
sg7
V\u0906\u090f
p619
sg9
(issf_api
FeatureSet
p620
(dp621
g12
(dp622
S'posn'
p623
S'310'
p624
sS'name'
p625
S'\xe0\xa4\x86\xe0\xa4\x8f'
p626
sS'af'
p627
S'\xe0\xa4\x86,v,m,sg,3h,,\xe0\xa4\xaf\xe0\xa4\xbe,yA'
p628
sS'chunkid'
p629
S'VGF'
p630
sS'chunktype'
p631
S'head:VGF'
p632
sS'voicetype'
p633
S'active'
p634
sS'stype'
p635
S'declarative'
p636
ssbsg26
I00
sg27
I00
sg28
Nsg29
Nsg30
I12
sg31
I0
sg32
Nsg33
Nsg34
S'VM'
p637
sg36
g620
sg37
I00
sba(issf_api
Word
p638
(dp639
g6
I00
sg7
V,
p640
sg9
(issf_api
FeatureSet
p641
(dp642
g12
(dp643
S'posn'
p644
S'320'
p645
sS'name'
p646
S','
p647
sS'drel'
p648
S'rsym:VGF'
p649
sS'chunktype'
p650
S'child:VGF'
p651
sS'af'
p652
S'COMMA,punc,,,,,,'
p653
ssbsg26
I00
sg27
I00
sg28
Nsg29
Nsg30
I12
sg31
I0
sg32
Nsg33
Nsg34
S'SYM'
p654
sg36
g641
sg37
I00
sba(issf_api
Word
p655
(dp656
g6
I00
sg7
V\u091c\u093f\u0938\u0928\u0947
p657
sg9
(issf_api
FeatureSet
p658
(dp659
g12
(dp660
S'crefhead'
p661
S'\xe0\xa4\x9c\xe0\xa4\xbf\xe0\xa4\xb8\xe0\xa4\xa8\xe0\xa5\x87:i8'
p662
sS'posn'
p663
S'330'
p664
sS'name'
p665
S'\xe0\xa4\x9c\xe0\xa4\xbf\xe0\xa4\xb8\xe0\xa4\xa8\xe0\xa5\x87'
p666
sS'af'
p667
S'\xe0\xa4\x9c\xe0\xa5\x8b,pn,any,sg,3,o,\xe0\xa4\xa8\xe0\xa5\x87,ne'
p668
sS'coref'
p669
S':NP9'
p670
sS'chunkid'
p671
S'NP11'
p672
sS'creftype'
p673
S'Anaphora-C:i6'
p674
sS'chunktype'
p675
S'head:NP11'
p676
sS'cref'
p677
S'i8%1:t2'
p678
sS'drel'
p679
S'k1:VGF2'
p680
ssbsg26
I00
sg27
I00
sg28
Nsg29
Nsg30
I13
sg31
I0
sg32
Nsg33
Nsg34
S'PRP'
p681
sg36
g658
sg37
I00
sba(issf_api
Word
p682
(dp683
g6
I00
sg7
V\u0915\u0908
p684
sg9
(issf_api
FeatureSet
p685
(dp686
g12
(dp687
S'posn'
p688
S'340'
p689
sS'name'
p690
S'\xe0\xa4\x95\xe0\xa4\x88'
p691
sS'drel'
p692
S'nmod__adj:NP12'
p693
sS'chunktype'
p694
S'child:NP12'
p695
sS'af'
p696
S'\xe0\xa4\x95\xe0\xa4\x88,avy,,,,,,'
p697
ssbsg26
I00
sg27
I00
sg28
Nsg29
Nsg30
I14
sg31
I0
sg32
Nsg33
Nsg34
S'QF'
p698
sg36
g685
sg37
I00
sba(issf_api
Word
p699
(dp700
g6
I00
sg7
V\u0930\u093e\u091c\u0928\u0940\u0924\u093f\u0915
p701
sg9
(issf_api
FeatureSet
p702
(dp703
g12
(dp704
S'posn'
p705
S'350'
p706
sS'name'
p707
S'\xe0\xa4\xb0\xe0\xa4\xbe\xe0\xa4\x9c\xe0\xa4\xa8\xe0\xa5\x80\xe0\xa4\xa4\xe0\xa4\xbf\xe0\xa4\x95'
p708
sS'drel'
p709
S'nmod__adj:NP12'
p710
sS'chunktype'
p711
S'child:NP12'
p712
sS'af'
p713
S'\xe0\xa4\xb0\xe0\xa4\xbe\xe0\xa4\x9c\xe0\xa4\xa8\xe0\xa5\x80\xe0\xa4\xa4\xe0\xa4\xbf\xe0\xa4\x95,adj,any,any,,o,,'
p714
ssbsg26
I00
sg27
I00
sg28
Nsg29
Nsg30
I14
sg31
I0
sg32
Nsg33
Nsg34
S'JJ'
p715
sg36
g702
sg37
I00
sba(issf_api
Word
p716
(dp717
g6
I00
sg7
V\u0905\u0916\u093e\u0921\u093c\u0947
p718
sg9
(issf_api
FeatureSet
p719
(dp720
g12
(dp721
S'posn'
p722
S'360'
p723
sS'name'
p724
S'\xe0\xa4\x85\xe0\xa4\x96\xe0\xa4\xbe\xe0\xa4\xa1\xe0\xa4\xbc\xe0\xa5\x87'
p725
sS'af'
p726
S'\xe0\xa4\x85\xe0\xa4\x96\xe0\xa4\xbe\xe0\xa4\xa1\xe0\xa4\xbe,n,m,pl,3,o,0_\xe0\xa4\x95\xe0\xa4\xbe,0'
p727
sS'chunkid'
p728
S'NP12'
p729
sS'drel'
p730
S'r6:NP13'
p731
sS'vpos'
p732
S'vib_4'
p733
sS'chunktype'
p734
S'head:NP12'
p735
ssbsg26
I00
sg27
I00
sg28
Nsg29
Nsg30
I14
sg31
I0
sg32
Nsg33
Nsg34
S'NN'
p736
sg36
g719
sg37
I00
sba(issf_api
Word
p737
(dp738
g6
I00
sg7
V\u0915\u0947
p739
sg9
(issf_api
FeatureSet
p740
(dp741
g12
(dp742
S'posn'
p743
S'370'
p744
sS'name'
p745
S'\xe0\xa4\x95\xe0\xa5\x873'
p746
sS'drel'
p747
S'lwg__psp:NP12'
p748
sS'chunktype'
p749
S'child:NP12'
p750
sS'af'
p751
S'\xe0\xa4\x95\xe0\xa4\xbe,psp,m,pl,,o,,'
p752
ssbsg26
I00
sg27
I00
sg28
Nsg29
Nsg30
I14
sg31
I0
sg32
Nsg33
Nsg34
S'PSP'
p753
sg36
g740
sg37
I00
sba(issf_api
Word
p754
(dp755
g6
I00
sg7
V\u0915\u0908
p756
sg9
(issf_api
FeatureSet
p757
(dp758
g12
(dp759
S'posn'
p760
S'380'
p761
sS'name'
p762
S'\xe0\xa4\x95\xe0\xa4\x882'
p763
sS'drel'
p764
S'nmod__adj:NP13'
p765
sS'chunktype'
p766
S'child:NP13'
p767
sS'af'
p768
S'\xe0\xa4\x95\xe0\xa4\x88,avy,,,,,,'
p769
ssbsg26
I00
sg27
I00
sg28
Nsg29
Nsg30
I15
sg31
I0
sg32
Nsg33
Nsg34
S'QF'
p770
sg36
g757
sg37
I00
sba(issf_api
Word
p771
(dp772
g6
I00
sg7
V\u0915\u0926\u094d\u0926\u093e\u0930\u094b\u0902
p773
sg9
(issf_api
FeatureSet
p774
(dp775
g12
(dp776
S'posn'
p777
S'390'
p778
sS'name'
p779
S'\xe0\xa4\x95\xe0\xa4\xa6\xe0\xa5\x8d\xe0\xa4\xa6\xe0\xa4\xbe\xe0\xa4\xb0\xe0\xa5\x8b\xe0\xa4\x82'
p780
sS'af'
p781
S'\xe0\xa4\x95\xe0\xa4\xa6\xe0\xa5\x8d\xe0\xa4\xa6\xe0\xa4\xbe\xe0\xa4\xb0,n,m,pl,3,o,0_\xe0\xa4\x95\xe0\xa5\x8b,0'
p782
sS'chunkid'
p783
S'NP13'
p784
sS'drel'
p785
S'k2:VGF2'
p786
sS'vpos'
p787
S'vib_3'
p788
sS'chunktype'
p789
S'head:NP13'
p790
ssbsg26
I00
sg27
I00
sg28
Nsg29
Nsg30
I15
sg31
I0
sg32
Nsg33
Nsg34
S'NN'
p791
sg36
g774
sg37
I00
sba(issf_api
Word
p792
(dp793
g6
I00
sg7
V\u0915\u094b
p794
sg9
(issf_api
FeatureSet
p795
(dp796
g12
(dp797
S'posn'
p798
S'400'
p799
sS'name'
p800
S'\xe0\xa4\x95\xe0\xa5\x8b'
p801
sS'drel'
p802
S'lwg__psp:NP13'
p803
sS'chunktype'
p804
S'child:NP13'
p805
sS'af'
p806
S'\xe0\xa4\x95\xe0\xa5\x8b,psp,,,,,,'
p807
ssbsg26
I00
sg27
I00
sg28
Nsg29
Nsg30
I15
sg31
I0
sg32
Nsg33
Nsg34
S'PSP'
p808
sg36
g795
sg37
I00
sba(issf_api
Word
p809
(dp810
g6
I00
sg7
V\u091a\u093f\u0924
p811
sg9
(issf_api
FeatureSet
p812
(dp813
g12
(dp814
S'posn'
p815
S'410'
p816
sS'name'
p817
S'\xe0\xa4\x9a\xe0\xa4\xbf\xe0\xa4\xa4'
p818
sS'af'
p819
S'\xe0\xa4\x9a\xe0\xa4\xbf\xe0\xa4\xa4,adj,any,any,,,,'
p820
sS'chunkid'
p821
S'JJP'
p822
sS'drel'
p823
S'pof:VGF2'
p824
sS'chunktype'
p825
S'head:JJP'
p826
ssbsg26
I00
sg27
I00
sg28
Nsg29
Nsg30
I16
sg31
I0
sg32
Nsg33
Nsg34
S'JJ'
p827
sg36
g812
sg37
I00
sba(issf_api
Word
p828
(dp829
g6
I00
sg7
V\u0915\u0930
p830
sg9
(issf_api
FeatureSet
p831
(dp832
g12
(dp833
S'posn'
p834
S'420'
p835
sS'name'
p836
S'\xe0\xa4\x95\xe0\xa4\xb0'
p837
sS'af'
p838
S'\xe0\xa4\x95\xe0\xa4\xb0,v,any,sg,any,,0_\xe0\xa4\xa6\xe0\xa5\x87+\xe0\xa4\xaf\xe0\xa4\xbe,0'
p839
sS'chunkid'
p840
S'VGF2'
p841
sS'stype'
p842
S'declarative'
p843
sS'drel'
p844
S'nmod__relc:NP9'
p845
sS'voicetype'
p846
S'active'
p847
sS'vpos'
p848
S'tam_2'
p849
sS'chunktype'
p850
S'head:VGF2'
p851
ssbsg26
I00
sg27
I00
sg28
Nsg29
Nsg30
I17
sg31
I0
sg32
Nsg33
Nsg34
S'VM'
p852
sg36
g831
sg37
I00
sba(issf_api
Word
p853
(dp854
g6
I00
sg7
V\u0926\u093f\u092f\u093e
p855
sg9
(issf_api
FeatureSet
p856
(dp857
g12
(dp858
S'posn'
p859
S'430'
p860
sS'name'
p861
S'\xe0\xa4\xa6\xe0\xa4\xbf\xe0\xa4\xaf\xe0\xa4\xbe'
p862
sS'drel'
p863
S'lwg__vaux:VGF2'
p864
sS'chunktype'
p865
S'child:VGF2'
p866
sS'af'
p867
S'\xe0\xa4\xa6\xe0\xa5\x87,v,m,sg,any,,\xe0\xa4\xaf\xe0\xa4\xbe,yA'
p868
ssbsg26
I00
sg27
I00
sg28
Nsg29
Nsg30
I17
sg31
I0
sg32
Nsg33
Nsg34
S'VAUX'
p869
sg36
g856
sg37
I00
sba(issf_api
Word
p870
(dp871
g6
I00
sg7
V\u0964
p872
sg9
(issf_api
FeatureSet
p873
(dp874
g12
(dp875
S'posn'
p876
S'440'
p877
sS'name'
p878
S'\xe0\xa5\xa4'
p879
sS'af'
p880
S'\xe0\xa5\xa4,punc,,,,,,'
p881
sS'chunkid'
p882
S'BLK'
p883
sS'drel'
p884
S'rsym:VGF'
p885
sS'chunktype'
p886
S'head:BLK'
p887
ssbsg26
I00
sg27
I00
sg28
Nsg29
Nsg30
I18
sg31
I0
sg32
Nsg33
Nsg34
S'SYM'
p888
sg36
g873
sg37
I00
sba(issf_api
Word
p889
(dp890
g6
I00
sg7
V\u0915\u0941\u092e\u093e\u0930\u0938\u094d\u0935\u093e\u092e\u0940
p891
sg9
(issf_api
FeatureSet
p892
(dp893
g12
(dp894
S'crefhead'
p895
S'\xe0\xa4\x95\xe0\xa5\x81\xe0\xa4\xae\xe0\xa4\xbe\xe0\xa4\xb0\xe0\xa4\xb8\xe0\xa5\x8d\xe0\xa4\xb5\xe0\xa4\xbe\xe0\xa4\xae\xe0\xa5\x80:i9'
p896
sS'posn'
p897
S'10'
p898
sS'name'
p899
S'\xe0\xa4\x95\xe0\xa5\x81\xe0\xa4\xae\xe0\xa4\xbe\xe0\xa4\xb0\xe0\xa4\xb8\xe0\xa5\x8d\xe0\xa4\xb5\xe0\xa4\xbe\xe0\xa4\xae\xe0\xa5\x80'
p900
sS'af'
p901
S'\xe0\xa4\x95\xe0\xa5\x81\xe0\xa4\xae\xe0\xa4\xbe\xe0\xa4\xb0\xe0\xa4\xb8\xe0\xa5\x8d\xe0\xa4\xb5\xe0\xa4\xbe\xe0\xa4\xae\xe0\xa5\x80,n,m,sg,3,d,0,0'
p902
sS'chunkid'
p903
S'NP'
p904
sS'creftype'
p905
S'Coreference-Noun-Noun:i8'
p906
sS'chunktype'
p907
S'head:NP'
p908
sS'cref'
p909
S'i9%1:t2'
p910
sS'drel'
p911
S'k1:VGF'
p912
ssbsg26
I00
sg27
I00
sg28
Nsg29
Nsg30
I0
sg31
I1
sg32
Nsg33
Nsg34
S'NNP'
p913
sg36
g892
sg37
I00
sba(issf_api
Word
p914
(dp915
g6
I00
sg7
V\u0905\u092a\u0928\u0940
p916
sg9
(issf_api
FeatureSet
p917
(dp918
g12
(dp919
S'crefhead'
p920
S'\xe0\xa4\x85\xe0\xa4\xaa\xe0\xa4\xa8\xe0\xa5\x80:i10'
p921
sS'posn'
p922
S'20'
p923
sS'name'
p924
S'\xe0\xa4\x85\xe0\xa4\xaa\xe0\xa4\xa8\xe0\xa5\x80'
p925
sS'af'
p926
S'\xe0\xa4\x85\xe0\xa4\xaa\xe0\xa4\xa8\xe0\xa4\xbe,pn,f,any,any,o,0,0'
p927
sS'acrefmodhead'
p928
S'\xe0\xa4\x85\xe0\xa4\xaa\xe0\xa4\xa8\xe0\xa5\x80:m1'
p929
sS'chunkid'
p930
S'NP2'
p931
sS'acrefmod'
p932
S'm1%1:i11'
p933
sS'creftype'
p934
S'Anaphora-C:i9'
p935
sS'chunktype'
p936
S'head:NP2'
p937
sS'cref'
p938
S'i10%1:t2'
p939
sS'drel'
p940
S'r6:NP3'
p941
ssbsg26
I00
sg27
I00
sg28
Nsg29
Nsg30
I1
sg31
I1
sg32
Nsg33
Nsg34
S'PRP'
p942
sg36
g917
sg37
I00
sba(issf_api
Word
p943
(dp944
g6
I00
sg7
V\u092e\u093e\u0902
p945
sg9
(issf_api
FeatureSet
p946
(dp947
g12
(dp948
S'crefhead'
p949
S'\xe0\xa4\xae\xe0\xa4\xbe\xe0\xa4\x82:i11'
p950
sS'posn'
p951
S'30'
p952
sS'name'
p953
S'\xe0\xa4\xae\xe0\xa4\xbe\xe0\xa4\x82'
p954
sS'af'
p955
S'\xe0\xa4\xae\xe0\xa4\xbe\xe0\xa4\x81,n,f,sg,3,o,0,0'
p956
sS'chunkid'
p957
S'NP3'
p958
sS'crefmod'
p959
S'm1:i11'
p960
sS'chunktype'
p961
S'head:NP3'
p962
sS'cref'
p963
S'i11%1:t5'
p964
sS'drel'
p965
S'nmod:NP4'
p966
ssbsg26
I00
sg27
I00
sg28
Nsg29
Nsg30
I2
sg31
I1
sg32
Nsg33
Nsg34
S'NN'
p967
sg36
g946
sg37
I00
sba(issf_api
Word
p968
(dp969
g6
I00
sg7
V\u091a\u0947\u0928\u094d\u0928\u092e\u093e
p970
sg9
(issf_api
FeatureSet
p971
(dp972
g12
(dp973
S'crefhead'
p974
S'\xe0\xa4\x9a\xe0\xa5\x87\xe0\xa4\xa8\xe0\xa5\x8d\xe0\xa4\xa8\xe0\xa4\xae\xe0\xa4\xbe:i12'
p975
sS'posn'
p976
S'40'
p977
sS'name'
p978
S'\xe0\xa4\x9a\xe0\xa5\x87\xe0\xa4\xa8\xe0\xa5\x8d\xe0\xa4\xa8\xe0\xa4\xae\xe0\xa4\xbe'
p979
sS'af'
p980
S'\xe0\xa4\x9a\xe0\xa5\x87\xe0\xa4\xa8\xe0\xa5\x8d\xe0\xa4\xa8\xe0\xa4\xae\xe0\xa4\xbe,n,f,sg,3,o,0_\xe0\xa4\x95\xe0\xa4\xbe,0'
p981
sS'chunkid'
p982
S'NP4'
p983
sS'creftype'
p984
S'Coreference-NounComplement:i11'
p985
sS'chunktype'
p986
S'head:NP4'
p987
sS'crefchainhead'
p988
S'i12:t5'
p989
sS'vpos'
p990
S'vib_2'
p991
sS'cref'
p992
S'i12%1:t5'
p993
sS'drel'
p994
S'k1:VGNN'
p995
ssbsg26
I00
sg27
I00
sg28
Nsg29
Nsg30
I3
sg31
I1
sg32
Nsg33
Nsg34
S'NNP'
p996
sg36
g971
sg37
I00
sba(issf_api
Word
p997
(dp998
g6
I00
sg7
V\u0915\u0947
p999
sg9
(issf_api
FeatureSet
p1000
(dp1001
g12
(dp1002
S'posn'
p1003
S'50'
p1004
sS'name'
p1005
S'\xe0\xa4\x95\xe0\xa5\x87'
p1006
sS'drel'
p1007
S'lwg__psp:NP4'
p1008
sS'chunktype'
p1009
S'child:NP4'
p1010
sS'af'
p1011
S'\xe0\xa4\x95\xe0\xa4\xbe,psp,m,sg,,o,,'
p1012
ssbsg26
I00
sg27
I00
sg28
Nsg29
Nsg30
I3
sg31
I1
sg32
Nsg33
Nsg34
S'PSP'
p1013
sg36
g1000
sg37
I00
sba(issf_api
Word
p1014
(dp1015
g6
I00
sg7
V\u0915\u0939\u0928\u0947
p1016
sg9
(issf_api
FeatureSet
p1017
(dp1018
g12
(dp1019
S'posn'
p1020
S'60'
p1021
sS'name'
p1022
S'\xe0\xa4\x95\xe0\xa4\xb9\xe0\xa4\xa8\xe0\xa5\x87'
p1023
sS'af'
p1024
S'\xe0\xa4\x95\xe0\xa4\xb9,v,any,any,any,o,\xe0\xa4\xa8\xe0\xa4\xbe_\xe0\xa4\xaa\xe0\xa4\xb0,nA'
p1025
sS'chunkid'
p1026
S'VGNN'
p1027
sS'drel'
p1028
S'k7:VGF'
p1029
sS'vpos'
p1030
S'tam_2'
p1031
sS'chunktype'
p1032
S'head:VGNN'
p1033
ssbsg26
I00
sg27
I00
sg28
Nsg29
Nsg30
I4
sg31
I1
sg32
Nsg33
Nsg34
S'VM'
p1034
sg36
g1017
sg37
I00
sba(issf_api
Word
p1035
(dp1036
g6
I00
sg7
V\u092a\u0930
p1037
sg9
(issf_api
FeatureSet
p1038
(dp1039
g12
(dp1040
S'posn'
p1041
S'70'
p1042
sS'name'
p1043
S'\xe0\xa4\xaa\xe0\xa4\xb0'
p1044
sS'drel'
p1045
S'lwg__psp:VGNN'
p1046
sS'chunktype'
p1047
S'child:VGNN'
p1048
sS'af'
p1049
S'\xe0\xa4\xaa\xe0\xa4\xb0,psp,,,,,,'
p1050
ssbsg26
I00
sg27
I00
sg28
Nsg29
Nsg30
I4
sg31
I1
sg32
Nsg33
Nsg34
S'PSP'
p1051
sg36
g1038
sg37
I00
sba(issf_api
Word
p1052
(dp1053
g6
I00
sg7
V\u092c\u0921\u093c\u0940
p1054
sg9
(issf_api
FeatureSet
p1055
(dp1056
g12
(dp1057
S'posn'
p1058
S'80'
p1059
sS'name'
p1060
S'\xe0\xa4\xac\xe0\xa4\xa1\xe0\xa4\xbc\xe0\xa5\x80'
p1061
sS'drel'
p1062
S'nmod__adj:NP5'
p1063
sS'chunktype'
p1064
S'child:NP5'
p1065
sS'af'
p1066
S'\xe0\xa4\xac\xe0\xa4\xa1\xe0\xa4\xbe,adj,f,sg,,o,,'
p1067
ssbsg26
I00
sg27
I00
sg28
Nsg29
Nsg30
I5
sg31
I1
sg32
Nsg33
Nsg34
S'JJ'
p1068
sg36
g1055
sg37
I00
sba(issf_api
Word
p1069
(dp1070
g6
I00
sg7
V\u0905\u0928\u093f\u091a\u094d\u091b\u093e
p1071
sg9
(issf_api
FeatureSet
p1072
(dp1073
g12
(dp1074
S'posn'
p1075
S'90'
p1076
sS'name'
p1077
S'\xe0\xa4\x85\xe0\xa4\xa8\xe0\xa4\xbf\xe0\xa4\x9a\xe0\xa5\x8d\xe0\xa4\x9b\xe0\xa4\xbe'
p1078
sS'af'
p1079
S'\xe0\xa4\x85\xe0\xa4\xa8\xe0\xa4\xbf\xe0\xa4\x9a\xe0\xa5\x8d\xe0\xa4\x9b\xe0\xa4\xbe,n,f,sg,3,o,0_\xe0\xa4\xb8\xe0\xa5\x87,0'
p1080
sS'chunkid'
p1081
S'NP5'
p1082
sS'drel'
p1083
S'adv:VGF'
p1084
sS'vpos'
p1085
S'vib_3'
p1086
sS'chunktype'
p1087
S'head:NP5'
p1088
ssbsg26
I00
sg27
I00
sg28
Nsg29
Nsg30
I5
sg31
I1
sg32
Nsg33
Nsg34
S'NN'
p1089
sg36
g1072
sg37
I00
sba(issf_api
Word
p1090
(dp1091
g6
I00
sg7
V\u0938\u0947
p1092
sg9
(issf_api
FeatureSet
p1093
(dp1094
g12
(dp1095
S'posn'
p1096
S'100'
p1097
sS'name'
p1098
S'\xe0\xa4\xb8\xe0\xa5\x87'
p1099
sS'drel'
p1100
S'lwg__psp:NP5'
p1101
sS'chunktype'
p1102
S'child:NP5'
p1103
sS'af'
p1104
S'\xe0\xa4\xb8\xe0\xa5\x87,psp,,,,,,'
p1105
ssbsg26
I00
sg27
I00
sg28
Nsg29
Nsg30
I5
sg31
I1
sg32
Nsg33
Nsg34
S'PSP'
p1106
sg36
g1093
sg37
I00
sba(issf_api
Word
p1107
(dp1108
g6
I00
sg7
V\u0930\u093e\u091c\u0928\u0940\u0924\u093f
p1109
sg9
(issf_api
FeatureSet
p1110
(dp1111
g12
(dp1112
S'crefhead'
p1113
S'\xe0\xa4\xb0\xe0\xa4\xbe\xe0\xa4\x9c\xe0\xa4\xa8\xe0\xa5\x80\xe0\xa4\xa4\xe0\xa4\xbf:i13'
p1114
sS'posn'
p1115
S'110'
p1116
sS'name'
p1117
S'\xe0\xa4\xb0\xe0\xa4\xbe\xe0\xa4\x9c\xe0\xa4\xa8\xe0\xa5\x80\xe0\xa4\xa4\xe0\xa4\xbf'
p1118
sS'af'
p1119
S'\xe0\xa4\xb0\xe0\xa4\xbe\xe0\xa4\x9c\xe0\xa4\xa8\xe0\xa5\x80\xe0\xa4\xa4\xe0\xa4\xbf,n,f,sg,3,o,0_\xe0\xa4\xae\xe0\xa5\x87\xe0\xa4\x82,0'
p1120
sS'chunkid'
p1121
S'NP6'
p1122
sS'creftype'
p1123
S'Coreference-Identity:i3'
p1124
sS'chunktype'
p1125
S'head:NP6'
p1126
sS'vpos'
p1127
S'vib_2'
p1128
sS'cref'
p1129
S'i13%1:t3'
p1130
sS'drel'
p1131
S'k7:VGF'
p1132
ssbsg26
I00
sg27
I00
sg28
Nsg29
Nsg30
I6
sg31
I1
sg32
Nsg33
Nsg34
S'NN'
p1133
sg36
g1110
sg37
I00
sba(issf_api
Word
p1134
(dp1135
g6
I00
sg7
V\u092e\u0947\u0902
p1136
sg9
(issf_api
FeatureSet
p1137
(dp1138
g12
(dp1139
S'posn'
p1140
S'120'
p1141
sS'name'
p1142
S'\xe0\xa4\xae\xe0\xa5\x87\xe0\xa4\x82'
p1143
sS'drel'
p1144
S'lwg__psp:NP6'
p1145
sS'chunktype'
p1146
S'child:NP6'
p1147
sS'af'
p1148
S'\xe0\xa4\xae\xe0\xa5\x87\xe0\xa4\x82,psp,,,,,,'
p1149
ssbsg26
I00
sg27
I00
sg28
Nsg29
Nsg30
I6
sg31
I1
sg32
Nsg33
Nsg34
S'PSP'
p1150
sg36
g1137
sg37
I00
sba(issf_api
Word
p1151
(dp1152
g6
I00
sg7
V\u0906\u090f
p1153
sg9
(issf_api
FeatureSet
p1154
(dp1155
g12
(dp1156
S'posn'
p1157
S'130'
p1158
sS'name'
p1159
S'\xe0\xa4\x86\xe0\xa4\x8f'
p1160
sS'af'
p1161
S'\xe0\xa4\x86,v,m,sg,3h,,\xe0\xa4\xaf\xe0\xa4\xbe_\xe0\xa4\xa5\xe0\xa4\xbe,yA'
p1162
sS'chunkid'
p1163
S'VGF'
p1164
sS'chunktype'
p1165
S'head:VGF'
p1166
sS'voicetype'
p1167
S'active'
p1168
sS'vpos'
p1169
S'tam_2'
p1170
sS'stype'
p1171
S'declarative'
p1172
ssbsg26
I00
sg27
I00
sg28
Nsg29
Nsg30
I7
sg31
I1
sg32
Nsg33
Nsg34
S'VM'
p1173
sg36
g1154
sg37
I00
sba(issf_api
Word
p1174
(dp1175
g6
I00
sg7
V\u0925\u0947
p1176
sg9
(issf_api
FeatureSet
p1177
(dp1178
g12
(dp1179
S'posn'
p1180
S'140'
p1181
sS'name'
p1182
S'\xe0\xa4\xa5\xe0\xa5\x87'
p1183
sS'drel'
p1184
S'lwg__vaux:VGF'
p1185
sS'chunktype'
p1186
S'child:VGF'
p1187
sS'af'
p1188
S'\xe0\xa4\xa5\xe0\xa4\xbe,v,m,sg,3h,,\xe0\xa4\xa5\xe0\xa4\xbe,WA'
p1189
ssbsg26
I00
sg27
I00
sg28
Nsg29
Nsg30
I7
sg31
I1
sg32
Nsg33
Nsg34
S'VAUX'
p1190
sg36
g1177
sg37
I00
sba(issf_api
Word
p1191
(dp1192
g6
I00
sg7
V\u0964
p1193
sg9
(issf_api
FeatureSet
p1194
(dp1195
g12
(dp1196
S'posn'
p1197
S'150'
p1198
sS'name'
p1199
S'\xe0\xa5\xa4'
p1200
sS'af'
p1201
S'\xe0\xa5\xa4,punc,,,,,,'
p1202
sS'chunkid'
p1203
S'BLK'
p1204
sS'drel'
p1205
S'rsym:VGF'
p1206
sS'chunktype'
p1207
S'head:BLK'
p1208
ssbsg26
I00
sg27
I00
sg28
Nsg29
Nsg30
I8
sg31
I1
sg32
Nsg33
Nsg34
S'SYM'
p1209
sg36
g1194
sg37
I00
sba(issf_api
Word
p1210
(dp1211
g6
I00
sg7
V\u092a\u0942\u0930\u094d\u0935
p1212
sg9
(issf_api
FeatureSet
p1213
(dp1214
g12
(dp1215
S'posn'
p1216
S'10'
p1217
sS'name'
p1218
S'\xe0\xa4\xaa\xe0\xa5\x82\xe0\xa4\xb0\xe0\xa5\x8d\xe0\xa4\xb5'
p1219
sS'af'
p1220
S'\xe0\xa4\xaa\xe0\xa5\x82\xe0\xa4\xb0\xe0\xa5\x8d\xe0\xa4\xb5,adj,any,any,,d,,'
p1221
sS'drel'
p1222
S'nmod__adj:NP'
p1223
sS'chunktype'
p1224
S'child:NP'
p1225
sS'cref'
p1226
S'i14%0:t6'
p1227
ssbsg26
I00
sg27
I00
sg28
Nsg29
Nsg30
I0
sg31
I2
sg32
Nsg33
Nsg34
S'JJ'
p1228
sg36
g1213
sg37
I00
sba(issf_api
Word
p1229
(dp1230
g6
I00
sg7
V\u092a\u094d\u0930\u0927\u093e\u0928\u092e\u0902\u0924\u094d\u0930\u0940
p1231
sg9
(issf_api
FeatureSet
p1232
(dp1233
g12
(dp1234
S'crefhead'
p1235
S'\xe0\xa4\xaa\xe0\xa5\x8d\xe0\xa4\xb0\xe0\xa4\xa7\xe0\xa4\xbe\xe0\xa4\xa8\xe0\xa4\xae\xe0\xa4\x82\xe0\xa4\xa4\xe0\xa5\x8d\xe0\xa4\xb0\xe0\xa5\x80:i14'
p1236
sS'posn'
p1237
S'20'
p1238
sS'name'
p1239
S'\xe0\xa4\xaa\xe0\xa5\x8d\xe0\xa4\xb0\xe0\xa4\xa7\xe0\xa4\xbe\xe0\xa4\xa8\xe0\xa4\xae\xe0\xa4\x82\xe0\xa4\xa4\xe0\xa5\x8d\xe0\xa4\xb0\xe0\xa5\x80'
p1240
sS'af'
p1241
S'\xe0\xa4\xaa\xe0\xa5\x8d\xe0\xa4\xb0\xe0\xa4\xa7\xe0\xa4\xbe\xe0\xa4\xa8\xe0\xa4\xae\xe0\xa4\x82\xe0\xa4\xa4\xe0\xa5\x8d\xe0\xa4\xb0\xe0\xa5\x80,n,m,sg,3,d,0,0'
p1242
sS'drel'
p1243
S'nmod__adj:NP'
p1244
sS'chunktype'
p1245
S'child:NP'
p1246
sS'cref'
p1247
S'i14%1:t6'
p1248
ssbsg26
I00
sg27
I00
sg28
Nsg29
Nsg30
I0
sg31
I2
sg32
Nsg33
Nsg34
S'NNP'
p1249
sg36
g1232
sg37
I00
sba(issf_api
Word
p1250
(dp1251
g6
I00
sg7
V\u090f\u091a.
p1252
sg9
(issf_api
FeatureSet
p1253
(dp1254
g12
(dp1255
S'posn'
p1256
S'30'
p1257
sS'name'
p1258
S'\xe0\xa4\x8f\xe0\xa4\x9a.'
p1259
sS'af'
p1260
S'\xe0\xa4\x8f\xe0\xa4\x9a.,n,m,sg,3,d,0,0'
p1261
sS'acrefmod'
p1262
S'm2%0:i16'
p1263
sS'drel'
p1264
S'pof__cn:NP'
p1265
sS'chunktype'
p1266
S'child:NP'
p1267
sS'cref'
p1268
S'i15%0:t6'
p1269
ssbsg26
I00
sg27
I00
sg28
Nsg29
Nsg30
I0
sg31
I2
sg32
Nsg33
Nsg34
S'NNPC'
p1270
sg36
g1253
sg37
I00
sba(issf_api
Word
p1271
(dp1272
g6
I00
sg7
V\u0921\u0940.
p1273
sg9
(issf_api
FeatureSet
p1274
(dp1275
g12
(dp1276
S'posn'
p1277
S'40'
p1278
sS'name'
p1279
S'\xe0\xa4\xa1\xe0\xa5\x80.'
p1280
sS'af'
p1281
S'\xe0\xa4\xa1\xe0\xa5\x80.,n,m,sg,3,d,0,0'
p1282
sS'acrefmod'
p1283
S'm2%0:i16'
p1284
sS'drel'
p1285
S'pof__cn:NP'
p1286
sS'chunktype'
p1287
S'child:NP'
p1288
sS'cref'
p1289
S'i15%0:t6'
p1290
ssbsg26
I00
sg27
I00
sg28
Nsg29
Nsg30
I0
sg31
I2
sg32
Nsg33
Nsg34
S'NNPC'
p1291
sg36
g1274
sg37
I00
sba(issf_api
Word
p1292
(dp1293
g6
I00
sg7
V\u0926\u0947\u0935\u0917\u094c\u0921\u093c\u093e
p1294
sg9
(issf_api
FeatureSet
p1295
(dp1296
g12
(dp1297
S'crefhead'
p1298
S'\xe0\xa4\xa6\xe0\xa5\x87\xe0\xa4\xb5\xe0\xa4\x97\xe0\xa5\x8c\xe0\xa4\xa1\xe0\xa4\xbc\xe0\xa4\xbe:i15'
p1299
sS'posn'
p1300
S'50'
p1301
sS'name'
p1302
S'\xe0\xa4\xa6\xe0\xa5\x87\xe0\xa4\xb5\xe0\xa4\x97\xe0\xa5\x8c\xe0\xa4\xa1\xe0\xa4\xbc\xe0\xa4\xbe'
p1303
sS'af'
p1304
S'\xe0\xa4\xa6\xe0\xa5\x87\xe0\xa4\xb5\xe0\xa4\x97\xe0\xa5\x8c\xe0\xa4\xa1\xe0\xa4\xbc\xe0\xa4\xbe,n,m,sg,3,o,0_\xe0\xa4\x95\xe0\xa4\xbe,0'
p1305
sS'acrefmodhead'
p1306
S'\xe0\xa4\xa6\xe0\xa5\x87\xe0\xa4\xb5\xe0\xa4\x97\xe0\xa5\x8c\xe0\xa4\xa1\xe0\xa4\xbc\xe0\xa4\xbe:m2'
p1307
sS'chunkid'
p1308
S'NP'
p1309
sS'acrefmod'
p1310
S'm2%1:i16'
p1311
sS'creftype'
p1312
S'Coreference-NounComplement:i14'
p1313
sS'chunktype'
p1314
S'head:NP'
p1315
sS'crefchainhead'
p1316
S'i15:t6'
p1317
sS'vpos'
p1318
S'vib_vib_6'
p1319
sS'cref'
p1320
S'i15%1:t6'
p1321
sS'drel'
p1322
S'r6:NP2'
p1323
ssbsg26
I00
sg27
I00
sg28
Nsg29
Nsg30
I0
sg31
I2
sg32
Nsg33
Nsg34
S'NNP'
p1324
sg36
g1295
sg37
I00
sba(issf_api
Word
p1325
(dp1326
g6
I00
sg7
V\u0915\u0947
p1327
sg9
(issf_api
FeatureSet
p1328
(dp1329
g12
(dp1330
S'posn'
p1331
S'60'
p1332
sS'name'
p1333
S'\xe0\xa4\x95\xe0\xa5\x87'
p1334
sS'drel'
p1335
S'lwg__psp:NP'
p1336
sS'chunktype'
p1337
S'child:NP'
p1338
sS'af'
p1339
S'\xe0\xa4\x95\xe0\xa4\xbe,psp,m,sg,,o,,'
p1340
ssbsg26
I00
sg27
I00
sg28
Nsg29
Nsg30
I0
sg31
I2
sg32
Nsg33
Nsg34
S'PSP'
p1341
sg36
g1328
sg37
I00
sba(issf_api
Word
p1342
(dp1343
g6
I00
sg7
V\u0907\u0938
p1344
sg9
(issf_api
FeatureSet
p1345
(dp1346
g12
(dp1347
S'posn'
p1348
S'70'
p1349
sS'name'
p1350
S'\xe0\xa4\x87\xe0\xa4\xb8'
p1351
sS'af'
p1352
S'\xe0\xa4\xaf\xe0\xa4\xb9,pn,any,sg,3,o,,'
p1353
sS'drel'
p1354
S'nmod__adj:NP2'
p1355
sS'chunktype'
p1356
S'child:NP2'
p1357
sS'cref'
p1358
S'i16%0:t2'
p1359
ssbsg26
I00
sg27
I00
sg28
Nsg29
Nsg30
I1
sg31
I2
sg32
Nsg33
Nsg34
S'DEM'
p1360
sg36
g1345
sg37
I00
sba(issf_api
Word
p1361
(dp1362
g6
I00
sg7
V\u092c\u0947\u091f\u0947
p1363
sg9
(issf_api
FeatureSet
p1364
(dp1365
g12
(dp1366
S'crefhead'
p1367
S'\xe0\xa4\xac\xe0\xa5\x87\xe0\xa4\x9f\xe0\xa5\x87:i16'
p1368
sS'posn'
p1369
S'80'
p1370
sS'name'
p1371
S'\xe0\xa4\xac\xe0\xa5\x87\xe0\xa4\x9f\xe0\xa5\x87'
p1372
sS'af'
p1373
S'\xe0\xa4\xac\xe0\xa5\x87\xe0\xa4\x9f\xe0\xa4\xbe,n,m,sg,3,o,0_\xe0\xa4\xa8\xe0\xa5\x87,0'
p1374
sS'chunkid'
p1375
S'NP2'
p1376
sS'crefmod'
p1377
S'm2:i16'
p1378
sS'creftype'
p1379
S'Coreference-Noun-Noun:i10'
p1380
sS'chunktype'
p1381
S'head:NP2'
p1382
sS'vpos'
p1383
S'vib_3'
p1384
sS'cref'
p1385
S'i16%1:t2'
p1386
sS'drel'
p1387
S'k1:VGF'
p1388
ssbsg26
I00
sg27
I00
sg28
Nsg29
Nsg30
I1
sg31
I2
sg32
Nsg33
Nsg34
S'NN'
p1389
sg36
g1364
sg37
I00
sba(issf_api
Word
p1390
(dp1391
g6
I00
sg7
V\u0928\u0947
p1392
sg9
(issf_api
FeatureSet
p1393
(dp1394
g12
(dp1395
S'posn'
p1396
S'90'
p1397
sS'name'
p1398
S'\xe0\xa4\xa8\xe0\xa5\x87'
p1399
sS'drel'
p1400
S'lwg__psp:NP2'
p1401
sS'chunktype'
p1402
S'child:NP2'
p1403
sS'af'
p1404
S'\xe0\xa4\xa8\xe0\xa5\x87,psp,,,,,,'
p1405
ssbsg26
I00
sg27
I00
sg28
Nsg29
Nsg30
I1
sg31
I2
sg32
Nsg33
Nsg34
S'PSP'
p1406
sg36
g1393
sg37
I00
sba(issf_api
Word
p1407
(dp1408
g6
I00
sg7
V\u0905\u092c
p1409
sg9
(issf_api
FeatureSet
p1410
(dp1411
g12
(dp1412
S'crefhead'
p1413
S'\xe0\xa4\x85\xe0\xa4\xac:i17'
p1414
sS'posn'
p1415
S'100'
p1416
sS'name'
p1417
S'\xe0\xa4\x85\xe0\xa4\xac'
p1418
sS'af'
p1419
S'\xe0\xa4\x85\xe0\xa4\xac,pn,,,,o,0_\xe0\xa4\xa4\xe0\xa4\x95,'
p1420
sS'chunkid'
p1421
S'NP3'
p1422
sS'creftype'
p1423
S'anaphora-?:i17'
p1424
sS'chunktype'
p1425
S'head:NP3'
p1426
sS'crefchainhead'
p1427
S'i17:t7'
p1428
sS'vpos'
p1429
S'vib_2'
p1430
sS'cref'
p1431
S'i17%1:t7'
p1432
sS'drel'
p1433
S'k7t:VGF'
p1434
ssbsg26
I00
sg27
I00
sg28
Nsg29
Nsg30
I2
sg31
I2
sg32
Nsg33
Nsg34
S'PRP'
p1435
sg36
g1410
sg37
I00
sba(issf_api
Word
p1436
(dp1437
g6
I00
sg7
V\u0924\u0915
p1438
sg9
(issf_api
FeatureSet
p1439
(dp1440
g12
(dp1441
S'posn'
p1442
S'110'
p1443
sS'name'
p1444
S'\xe0\xa4\xa4\xe0\xa4\x95'
p1445
sS'drel'
p1446
S'lwg__psp:NP3'
p1447
sS'chunktype'
p1448
S'child:NP3'
p1449
sS'af'
p1450
S'\xe0\xa4\xa4\xe0\xa4\x95,psp,,,,,,'
p1451
ssbsg26
I00
sg27
I00
sg28
Nsg29
Nsg30
I2
sg31
I2
sg32
Nsg33
Nsg34
S'PSP'
p1452
sg36
g1439
sg37
I00
sba(issf_api
Word
p1453
(dp1454
g6
I00
sg7
V\u0935\u0947
p1455
sg9
(issf_api
FeatureSet
p1456
(dp1457
g12
(dp1458
S'posn'
p1459
S'120'
p1460
sS'name'
p1461
S'\xe0\xa4\xb5\xe0\xa5\x87'
p1462
sS'af'
p1463
S'\xe0\xa4\xb5\xe0\xa4\xb9,pn,any,pl,3,d,,'
p1464
sS'drel'
p1465
S'nmod__adj:NP4'
p1466
sS'chunktype'
p1467
S'child:NP4'
p1468
sS'cref'
p1469
S'i18%0:t8'
p1470
ssbsg26
I00
sg27
I00
sg28
Nsg29
Nsg30
I3
sg31
I2
sg32
Nsg33
Nsg34
S'DEM'
p1471
sg36
g1456
sg37
I00
sba(issf_api
Word
p1472
(dp1473
g6
I00
sg7
V\u092a\u093e\u0902\u091a
p1474
sg9
(issf_api
FeatureSet
p1475
(dp1476
g12
(dp1477
S'posn'
p1478
S'130'
p1479
sS'name'
p1480
S'\xe0\xa4\xaa\xe0\xa4\xbe\xe0\xa4\x82\xe0\xa4\x9a'
p1481
sS'af'
p1482
S'\xe0\xa4\xaa\xe0\xa4\xbe\xe0\xa4\x82\xe0\xa4\x9a,num,any,any,,any,,'
p1483
sS'drel'
p1484
S'nmod__adj:NP4'
p1485
sS'chunktype'
p1486
S'child:NP4'
p1487
sS'cref'
p1488
S'i18%0:t8'
p1489
ssbsg26
I00
sg27
I00
sg28
Nsg29
Nsg30
I3
sg31
I2
sg32
Nsg33
Nsg34
S'QC'
p1490
sg36
g1475
sg37
I00
sba(issf_api
Word
p1491
(dp1492
g6
I00
sg7
V\u091a\u0941\u0928\u093e\u0935
p1493
sg9
(issf_api
FeatureSet
p1494
(dp1495
g12
(dp1496
S'crefhead'
p1497
S'\xe0\xa4\x9a\xe0\xa5\x81\xe0\xa4\xa8\xe0\xa4\xbe\xe0\xa4\xb5:i18'
p1498
sS'posn'
p1499
S'140'
p1500
sS'name'
p1501
S'\xe0\xa4\x9a\xe0\xa5\x81\xe0\xa4\xa8\xe0\xa4\xbe\xe0\xa4\xb5'
p1502
sS'af'
p1503
S'\xe0\xa4\x9a\xe0\xa5\x81\xe0\xa4\xa8\xe0\xa4\xbe\xe0\xa4\xb5,n,m,pl,3,d,0,0'
p1504
sS'chunkid'
p1505
S'NP4'
p1506
sS'chunktype'
p1507
S'head:NP4'
p1508
sS'crefchainhead'
p1509
S'i18:t8'
p1510
sS'cref'
p1511
S'i18%1:t8'
p1512
sS'drel'
p1513
S'k2:VGF'
p1514
ssbsg26
I00
sg27
I00
sg28
Nsg29
Nsg30
I3
sg31
I2
sg32
Nsg33
Nsg34
S'NN'
p1515
sg36
g1494
sg37
I00
sba(issf_api
Word
p1516
(dp1517
g6
I00
sg7
V\u0932\u0921\u093c\u0947
p1518
sg9
(issf_api
FeatureSet
p1519
(dp1520
g12
(dp1521
S'posn'
p1522
S'150'
p1523
sS'name'
p1524
S'\xe0\xa4\xb2\xe0\xa4\xa1\xe0\xa4\xbc\xe0\xa5\x87'
p1525
sS'af'
p1526
S'\xe0\xa4\xb2\xe0\xa4\xa1,v,m,pl,3,,\xe0\xa4\xaf\xe0\xa4\xbe_\xe0\xa4\xb9\xe0\xa5\x88,yA'
p1527
sS'chunkid'
p1528
S'VGF'
p1529
sS'chunktype'
p1530
S'head:VGF'
p1531
sS'voicetype'
p1532
S'active'
p1533
sS'vpos'
p1534
S'tam_2'
p1535
sS'stype'
p1536
S'declarative'
p1537
ssbsg26
I00
sg27
I00
sg28
Nsg29
Nsg30
I4
sg31
I2
sg32
Nsg33
Nsg34
S'VM'
p1538
sg36
g1519
sg37
I00
sba(issf_api
Word
p1539
(dp1540
g6
I00
sg7
V\u0939\u0948\u0902
p1541
sg9
(issf_api
FeatureSet
p1542
(dp1543
g12
(dp1544
S'posn'
p1545
S'160'
p1546
sS'name'
p1547
S'\xe0\xa4\xb9\xe0\xa5\x88\xe0\xa4\x82'
p1548
sS'drel'
p1549
S'lwg__vaux:VGF'
p1550
sS'chunktype'
p1551
S'child:VGF'
p1552
sS'af'
p1553
S'\xe0\xa4\xb9\xe0\xa5\x88,v,any,pl,3,,\xe0\xa4\xb9\xe0\xa5\x88,hE'
p1554
ssbsg26
I00
sg27
I00
sg28
Nsg29
Nsg30
I4
sg31
I2
sg32
Nsg33
Nsg34
S'VAUX'
p1555
sg36
g1542
sg37
I00
sba(issf_api
Word
p1556
(dp1557
g6
I00
sg7
V,
p1558
sg9
(issf_api
FeatureSet
p1559
(dp1560
g12
(dp1561
S'posn'
p1562
S'170'
p1563
sS'name'
p1564
g647
sS'drel'
p1565
S'rsym:VGF'
p1566
sS'chunktype'
p1567
S'child:VGF'
p1568
sS'af'
p1569
S'COMMA,punc,,,,,,'
p1570
ssbsg26
I00
sg27
I00
sg28
Nsg29
Nsg30
I4
sg31
I2
sg32
Nsg33
Nsg34
S'SYM'
p1571
sg36
g1559
sg37
I00
sba(issf_api
Word
p1572
(dp1573
g6
I00
sg7
V\u091c\u093f\u0928\u092e\u0947\u0902
p1574
sg9
(issf_api
FeatureSet
p1575
(dp1576
g12
(dp1577
S'crefhead'
p1578
S'\xe0\xa4\x9c\xe0\xa4\xbf\xe0\xa4\xa8\xe0\xa4\xae\xe0\xa5\x87\xe0\xa4\x82:i19'
p1579
sS'posn'
p1580
S'180'
p1581
sS'name'
p1582
S'\xe0\xa4\x9c\xe0\xa4\xbf\xe0\xa4\xa8\xe0\xa4\xae\xe0\xa5\x87\xe0\xa4\x82'
p1583
sS'af'
p1584
S'\xe0\xa4\x9c\xe0\xa5\x8b,pn,any,pl,3,o,0_\xe0\xa4\xb8\xe0\xa5\x87,meM'
p1585
sS'coref'
p1586
S':NP4'
p1587
sS'chunkid'
p1588
S'NP5'
p1589
sS'creftype'
p1590
S'Anaphora-C:i18'
p1591
sS'chunktype'
p1592
S'head:NP5'
p1593
sS'vpos'
p1594
S'vib_2'
p1595
sS'cref'
p1596
S'i19%1:t8'
p1597
sS'drel'
p1598
S'k5:VGF2'
p1599
ssbsg26
I00
sg27
I00
sg28
Nsg29
Nsg30
I5
sg31
I2
sg32
Nsg33
Nsg34
S'PRP'
p1600
sg36
g1575
sg37
I00
sba(issf_api
Word
p1601
(dp1602
g6
I00
sg7
V\u0938\u0947
p1603
sg9
(issf_api
FeatureSet
p1604
(dp1605
g12
(dp1606
S'posn'
p1607
S'190'
p1608
sS'name'
p1609
S'\xe0\xa4\xb8\xe0\xa5\x87'
p1610
sS'drel'
p1611
S'lwg__psp:NP5'
p1612
sS'chunktype'
p1613
S'child:NP5'
p1614
sS'af'
p1615
S'\xe0\xa4\xb8\xe0\xa5\x87,psp,,,,,,'
p1616
ssbsg26
I00
sg27
I00
sg28
Nsg29
Nsg30
I5
sg31
I2
sg32
Nsg33
Nsg34
S'PSP'
p1617
sg36
g1604
sg37
I00
sba(issf_api
Word
p1618
(dp1619
g6
I00
sg7
V\u0915\u0947\u0935\u0932
p1620
sg9
(issf_api
FeatureSet
p1621
(dp1622
g12
(dp1623
S'posn'
p1624
S'200'
p1625
sS'name'
p1626
S'\xe0\xa4\x95\xe0\xa5\x87\xe0\xa4\xb5\xe0\xa4\xb2'
p1627
sS'af'
p1628
S'\xe0\xa4\x95\xe0\xa5\x87\xe0\xa4\xb5\xe0\xa4\xb2,avy,,,,,0_\xe0\xa4\xae\xe0\xa5\x87\xe0\xa4\x82,'
p1629
sS'chunkid'
p1630
S'NP6'
p1631
sS'drel'
p1632
S'k7:VGF2'
p1633
sS'vpos'
p1634
S'3'
p1635
sS'chunktype'
p1636
S'head:NP6'
p1637
ssbsg26
I00
sg27
I00
sg28
Nsg29
Nsg30
I6
sg31
I2
sg32
Nsg33
Nsg34
S'RP'
p1638
sg36
g1621
sg37
I00
sba(issf_api
Word
p1639
(dp1640
g6
I00
sg7
V\u0926\u094b
p1641
sg9
(issf_api
FeatureSet
p1642
(dp1643
g12
(dp1644
S'posn'
p1645
S'210'
p1646
sS'name'
p1647
S'\xe0\xa4\xa6\xe0\xa5\x8b'
p1648
sS'drel'
p1649
S'mod:NP6'
p1650
sS'chunktype'
p1651
S'child:NP6'
p1652
sS'af'
p1653
S'\xe0\xa4\xa6\xe0\xa5\x8b,num,any,any,,o,,'
p1654
ssbsg26
I00
sg27
I00
sg28
Nsg29
Nsg30
I6
sg31
I2
sg32
Nsg33
Nsg34
S'QC'
p1655
sg36
g1642
sg37
I00
sba(issf_api
Word
p1656
(dp1657
g6
I00
sg7
V\u092e\u0947\u0902
p1658
sg9
(issf_api
FeatureSet
p1659
(dp1660
g12
(dp1661
S'posn'
p1662
S'220'
p1663
sS'name'
p1664
S'\xe0\xa4\xae\xe0\xa5\x87\xe0\xa4\x82'
p1665
sS'drel'
p1666
S'lwg__psp:NP6'
p1667
sS'chunktype'
p1668
S'child:NP6'
p1669
sS'af'
p1670
S'\xe0\xa4\xae\xe0\xa5\x87\xe0\xa4\x82,psp,,,,,,'
p1671
ssbsg26
I00
sg27
I00
sg28
Nsg29
Nsg30
I6
sg31
I2
sg32
Nsg33
Nsg34
S'PSP'
p1672
sg36
g1659
sg37
I00
sba(issf_api
Word
p1673
(dp1674
g6
I00
sg7
V\u0915\u093e\u092e\u092f\u093e\u092c\u0940
p1675
sg9
(issf_api
FeatureSet
p1676
(dp1677
g12
(dp1678
S'posn'
p1679
S'230'
p1680
sS'name'
p1681
S'\xe0\xa4\x95\xe0\xa4\xbe\xe0\xa4\xae\xe0\xa4\xaf\xe0\xa4\xbe\xe0\xa4\xac\xe0\xa5\x80'
p1682
sS'af'
p1683
S'\xe0\xa4\x95\xe0\xa4\xbe\xe0\xa4\xae\xe0\xa4\xaf\xe0\xa4\xbe\xe0\xa4\xac\xe0\xa5\x80,n,f,sg,3,d,0,0'
p1684
sS'chunkid'
p1685
S'NP7'
p1686
sS'drel'
p1687
S'pof:VGF2'
p1688
sS'chunktype'
p1689
S'head:NP7'
p1690
ssbsg26
I00
sg27
I00
sg28
Nsg29
Nsg30
I7
sg31
I2
sg32
Nsg33
Nsg34
S'NN'
p1691
sg36
g1676
sg37
I00
sba(issf_api
Word
p1692
(dp1693
g6
I00
sg7
V\u092e\u093f\u0932\u0940
p1694
sg9
(issf_api
FeatureSet
p1695
(dp1696
g12
(dp1697
S'posn'
p1698
S'240'
p1699
sS'name'
p1700
S'\xe0\xa4\xae\xe0\xa4\xbf\xe0\xa4\xb2\xe0\xa5\x80'
p1701
sS'af'
p1702
S'\xe0\xa4\xae\xe0\xa4\xbf\xe0\xa4\xb2,v,f,sg,any,,\xe0\xa4\xaf\xe0\xa4\xbe,yA'
p1703
sS'chunkid'
p1704
S'VGF2'
p1705
sS'stype'
p1706
S'declarative'
p1707
sS'drel'
p1708
S'nmod__relc:NP4'
p1709
sS'voicetype'
p1710
S'active'
p1711
sS'chunktype'
p1712
S'head:VGF2'
p1713
ssbsg26
I00
sg27
I00
sg28
Nsg29
Nsg30
I8
sg31
I2
sg32
Nsg33
Nsg34
S'VM'
p1714
sg36
g1695
sg37
I00
sba(issf_api
Word
p1715
(dp1716
g6
I00
sg7
V\u0964
p1717
sg9
(issf_api
FeatureSet
p1718
(dp1719
g12
(dp1720
S'posn'
p1721
S'250'
p1722
sS'name'
p1723
S'\xe0\xa5\xa4'
p1724
sS'af'
p1725
S'\xe0\xa5\xa4,punc,,,,,,'
p1726
sS'chunkid'
p1727
S'BLK'
p1728
sS'drel'
p1729
S'rsym:VGF'
p1730
sS'chunktype'
p1731
S'head:BLK'
p1732
ssbsg26
I00
sg27
I00
sg28
Nsg29
Nsg30
I9
sg31
I2
sg32
Nsg33
Nsg34
S'SYM'
p1733
sg36
g1718
sg37
I00
sba(issf_api
Word
p1734
(dp1735
g6
I00
sg7
V\u0915\u0941\u092e\u093e\u0930\u0938\u094d\u0935\u093e\u092e\u0940
p1736
sg9
(issf_api
FeatureSet
p1737
(dp1738
g12
(dp1739
S'crefhead'
p1740
S'\xe0\xa4\x95\xe0\xa5\x81\xe0\xa4\xae\xe0\xa4\xbe\xe0\xa4\xb0\xe0\xa4\xb8\xe0\xa5\x8d\xe0\xa4\xb5\xe0\xa4\xbe\xe0\xa4\xae\xe0\xa5\x80:i21'
p1741
sS'posn'
p1742
S'10'
p1743
sS'name'
p1744
S'\xe0\xa4\x95\xe0\xa5\x81\xe0\xa4\xae\xe0\xa4\xbe\xe0\xa4\xb0\xe0\xa4\xb8\xe0\xa5\x8d\xe0\xa4\xb5\xe0\xa4\xbe\xe0\xa4\xae\xe0\xa5\x80'
p1745
sS'af'
p1746
S'\xe0\xa4\x95\xe0\xa5\x81\xe0\xa4\xae\xe0\xa4\xbe\xe0\xa4\xb0\xe0\xa4\xb8\xe0\xa5\x8d\xe0\xa4\xb5\xe0\xa4\xbe\xe0\xa4\xae\xe0\xa5\x80,n,m,sg,3,o,0_\xe0\xa4\x95\xe0\xa5\x8b,0'
p1747
sS'chunkid'
p1748
S'NP'
p1749
sS'creftype'
p1750
S'Coreference-Noun-Noun:i16'
p1751
sS'chunktype'
p1752
S'head:NP'
p1753
sS'vpos'
p1754
S'vib_2'
p1755
sS'cref'
p1756
S'i21%1:t2'
p1757
sS'drel'
p1758
S'k4:VGF'
p1759
ssbsg26
I00
sg27
I00
sg28
Nsg29
Nsg30
I0
sg31
I3
sg32
Nsg33
Nsg34
S'NNP'
p1760
sg36
g1737
sg37
I00
sba(issf_api
Word
p1761
(dp1762
g6
I00
sg7
V\u0915\u094b
p1763
sg9
(issf_api
FeatureSet
p1764
(dp1765
g12
(dp1766
S'posn'
p1767
S'20'
p1768
sS'name'
p1769
S'\xe0\xa4\x95\xe0\xa5\x8b'
p1770
sS'drel'
p1771
S'lwg__psp:NP'
p1772
sS'chunktype'
p1773
S'child:NP'
p1774
sS'af'
p1775
S'\xe0\xa4\x95\xe0\xa5\x8b,psp,,,,,,'
p1776
ssbsg26
I00
sg27
I00
sg28
Nsg29
Nsg30
I0
sg31
I3
sg32
Nsg33
Nsg34
S'PSP'
p1777
sg36
g1764
sg37
I00
sba(issf_api
Word
p1778
(dp1779
g6
I00
sg7
V\u092a\u0939\u0932\u0940
p1780
sg9
(issf_api
FeatureSet
p1781
(dp1782
g12
(dp1783
S'posn'
p1784
S'30'
p1785
sS'name'
p1786
S'\xe0\xa4\xaa\xe0\xa4\xb9\xe0\xa4\xb2\xe0\xa5\x80'
p1787
sS'drel'
p1788
S'nmod__adj:NP2'
p1789
sS'chunktype'
p1790
S'child:NP2'
p1791
sS'af'
p1792
S'\xe0\xa4\xaa\xe0\xa4\xb9\xe0\xa4\xb2\xe0\xa4\xbe,num,f,sg,,d,,'
p1793
ssbsg26
I00
sg27
I00
sg28
Nsg29
Nsg30
I1
sg31
I3
sg32
Nsg33
Nsg34
S'QO'
p1794
sg36
g1781
sg37
I00
sba(issf_api
Word
p1795
(dp1796
g6
I00
sg7
V\u0938\u092b\u0932\u0924\u093e
p1797
sg9
(issf_api
FeatureSet
p1798
(dp1799
g12
(dp1800
S'posn'
p1801
S'40'
p1802
sS'name'
p1803
S'\xe0\xa4\xb8\xe0\xa4\xab\xe0\xa4\xb2\xe0\xa4\xa4\xe0\xa4\xbe'
p1804
sS'af'
p1805
S'\xe0\xa4\xb8\xe0\xa4\xab\xe0\xa4\xb2\xe0\xa4\xa4\xe0\xa4\xbe,n,f,sg,3,d,0,0'
p1806
sS'chunkid'
p1807
S'NP2'
p1808
sS'drel'
p1809
S'pof:VGF'
p1810
sS'chunktype'
p1811
S'head:NP2'
p1812
ssbsg26
I00
sg27
I00
sg28
Nsg29
Nsg30
I1
sg31
I3
sg32
Nsg33
Nsg34
S'NN'
p1813
sg36
g1798
sg37
I00
sba(issf_api
Word
p1814
(dp1815
g6
I00
sg7
V\u0935\u0930\u094d\u0937
p1816
sg9
(issf_api
FeatureSet
p1817
(dp1818
g12
(dp1819
S'posn'
p1820
S'50'
p1821
sS'name'
p1822
S'\xe0\xa4\xb5\xe0\xa4\xb0\xe0\xa5\x8d\xe0\xa4\xb7'
p1823
sS'af'
p1824
S'\xe0\xa4\xb5\xe0\xa4\xb0\xe0\xa5\x8d\xe0\xa4\xb7,n,m,sg,3,d,0,0'
p1825
sS'drel'
p1826
S'nmod:NP3'
p1827
sS'chunktype'
p1828
S'child:NP3'
p1829
sS'cref'
p1830
S'i22%0:t1'
p1831
ssbsg26
I00
sg27
I00
sg28
Nsg29
Nsg30
I2
sg31
I3
sg32
Nsg33
Nsg34
S'NN'
p1832
sg36
g1817
sg37
I00
sba(issf_api
Word
p1833
(dp1834
g6
I00
sg7
V\u0967\u096f\u096f\u096c
p1835
sg9
(issf_api
FeatureSet
p1836
(dp1837
g12
(dp1838
S'crefhead'
p1839
S'\xe0\xa5\xa7\xe0\xa5\xaf\xe0\xa5\xaf\xe0\xa5\xac:i22'
p1840
sS'posn'
p1841
S'60'
p1842
sS'name'
p1843
S'\xe0\xa5\xa7\xe0\xa5\xaf\xe0\xa5\xaf\xe0\xa5\xac'
p1844
sS'af'
p1845
S'\xe0\xa5\xa7\xe0\xa5\xaf\xe0\xa5\xaf\xe0\xa5\xac,n,any,sg,3,o,0_\xe0\xa4\xae\xe0\xa5\x87\xe0\xa4\x82,0'
p1846
sS'chunkid'
p1847
S'NP3'
p1848
sS'creftype'
p1849
S'Coreference-Identity:i1'
p1850
sS'chunktype'
p1851
S'head:NP3'
p1852
sS'vpos'
p1853
S'vib_vib_3'
p1854
sS'cref'
p1855
S'i22%1:t1'
p1856
sS'drel'
p1857
S'k7t:VGF'
p1858
ssbsg26
I00
sg27
I00
sg28
Nsg29
Nsg30
I2
sg31
I3
sg32
Nsg33
Nsg34
S'NNP'
p1859
sg36
g1836
sg37
I00
sba(issf_api
Word
p1860
(dp1861
g6
I00
sg7
V\u092e\u0947\u0902
p1862
sg9
(issf_api
FeatureSet
p1863
(dp1864
g12
(dp1865
S'posn'
p1866
S'70'
p1867
sS'name'
p1868
S'\xe0\xa4\xae\xe0\xa5\x87\xe0\xa4\x82'
p1869
sS'drel'
p1870
S'lwg__psp:NP3'
p1871
sS'chunktype'
p1872
S'child:NP3'
p1873
sS'af'
p1874
S'\xe0\xa4\xae\xe0\xa5\x87\xe0\xa4\x82,psp,,,,,,'
p1875
ssbsg26
I00
sg27
I00
sg28
Nsg29
Nsg30
I2
sg31
I3
sg32
Nsg33
Nsg34
S'PSP'
p1876
sg36
g1863
sg37
I00
sba(issf_api
Word
p1877
(dp1878
g6
I00
sg7
V\u092e\u093f\u0932\u0940
p1879
sg9
(issf_api
FeatureSet
p1880
(dp1881
g12
(dp1882
S'posn'
p1883
S'80'
p1884
sS'name'
p1885
S'\xe0\xa4\xae\xe0\xa4\xbf\xe0\xa4\xb2\xe0\xa5\x80'
p1886
sS'af'
p1887
S'\xe0\xa4\xae\xe0\xa4\xbf\xe0\xa4\xb2,v,f,sg,any,,\xe0\xa4\xaf\xe0\xa4\xbe,yA'
p1888
sS'chunkid'
p1889
S'VGF'
p1890
sS'chunktype'
p1891
S'head:VGF'
p1892
sS'voicetype'
p1893
S'active'
p1894
sS'stype'
p1895
S'declarative'
p1896
ssbsg26
I00
sg27
I00
sg28
Nsg29
Nsg30
I3
sg31
I3
sg32
Nsg33
Nsg34
S'VM'
p1897
sg36
g1880
sg37
I00
sba(issf_api
Word
p1898
(dp1899
g6
I00
sg7
V,
p1900
sg9
(issf_api
FeatureSet
p1901
(dp1902
g12
(dp1903
S'posn'
p1904
S'90'
p1905
sS'name'
p1906
g647
sS'drel'
p1907
S'rsym:VGF'
p1908
sS'chunktype'
p1909
S'child:VGF'
p1910
sS'af'
p1911
S'COMMA,punc,,,,,,'
p1912
ssbsg26
I00
sg27
I00
sg28
Nsg29
Nsg30
I3
sg31
I3
sg32
Nsg33
Nsg34
S'SYM'
p1913
sg36
g1901
sg37
I00
sba(issf_api
Word
p1914
(dp1915
g6
I00
sg7
V\u091c\u092c
p1916
sg9
(issf_api
FeatureSet
p1917
(dp1918
g12
(dp1919
S'crefhead'
p1920
S'\xe0\xa4\x9c\xe0\xa4\xac:i23'
p1921
sS'posn'
p1922
S'100'
p1923
sS'name'
p1924
S'\xe0\xa4\x9c\xe0\xa4\xac'
p1925
sS'af'
p1926
S'\xe0\xa4\x9c\xe0\xa4\xac,pn,,,,d,,'
p1927
sS'coref'
p1928
S'\xe0\xa5\xa7\xe0\xa5\xaf\xe0\xa5\xaf\xe0\xa5\xac'
p1929
sS'chunkid'
p1930
S'NP4'
p1931
sS'chunktype'
p1932
S'head:NP4'
p1933
sS'cref'
p1934
S'i23%1:t9'
p1935
sS'drel'
p1936
S'k7t:VGF2'
p1937
ssbsg26
I00
sg27
I00
sg28
Nsg29
Nsg30
I4
sg31
I3
sg32
Nsg33
Nsg34
S'PRP'
p1938
sg36
g1917
sg37
I00
sba(issf_api
Word
p1939
(dp1940
g6
I00
sg7
V\u0926\u0947\u0935\u0917\u094c\u0921\u093c\u093e
p1941
sg9
(issf_api
FeatureSet
p1942
(dp1943
g12
(dp1944
S'crefhead'
p1945
S'\xe0\xa4\xa6\xe0\xa5\x87\xe0\xa4\xb5\xe0\xa4\x97\xe0\xa5\x8c\xe0\xa4\xa1\xe0\xa4\xbc\xe0\xa4\xbe:i24'
p1946
sS'posn'
p1947
S'110'
p1948
sS'name'
p1949
S'\xe0\xa4\xa6\xe0\xa5\x87\xe0\xa4\xb5\xe0\xa4\x97\xe0\xa5\x8c\xe0\xa4\xa1\xe0\xa4\xbc\xe0\xa4\xbe'
p1950
sS'af'
p1951
S'\xe0\xa4\xa6\xe0\xa5\x87\xe0\xa4\xb5\xe0\xa4\x97\xe0\xa5\x8c\xe0\xa4\xa1\xe0\xa4\xbc\xe0\xa4\xbe,n,m,sg,3,o,0_\xe0\xa4\xa8\xe0\xa5\x87,0'
p1952
sS'chunkid'
p1953
S'NP5'
p1954
sS'creftype'
p1955
S'Coreference-Identity:i15'
p1956
sS'chunktype'
p1957
S'head:NP5'
p1958
sS'vpos'
p1959
S'vib_2'
p1960
sS'cref'
p1961
S'i24%1:t6,i25%0:t9'
p1962
sS'drel'
p1963
S'k1:VGF2'
p1964
ssbsg26
I00
sg27
I00
sg28
Nsg29
Nsg30
I5
sg31
I3
sg32
Nsg33
Nsg34
S'NNP'
p1965
sg36
g1942
sg37
I00
sba(issf_api
Word
p1966
(dp1967
g6
I00
sg7
V\u0928\u0947
p1968
sg9
(issf_api
FeatureSet
p1969
(dp1970
g12
(dp1971
S'posn'
p1972
S'120'
p1973
sS'name'
p1974
S'\xe0\xa4\xa8\xe0\xa5\x87'
p1975
sS'af'
p1976
S'\xe0\xa4\xa8\xe0\xa5\x87,psp,,,,,,'
p1977
sS'drel'
p1978
S'lwg__psp:NP5'
p1979
sS'chunktype'
p1980
S'child:NP5'
p1981
sS'cref'
p1982
S'i25%0:t9'
p1983
ssbsg26
I00
sg27
I00
sg28
Nsg29
Nsg30
I5
sg31
I3
sg32
Nsg33
Nsg34
S'PSP'
p1984
sg36
g1969
sg37
I00
sba(issf_api
Word
p1985
(dp1986
g6
I00
sg7
V\u0915\u0928\u0915\u092a\u0941\u0930\u093e
p1987
sg9
(issf_api
FeatureSet
p1988
(dp1989
g12
(dp1990
S'crefhead'
p1991
S'\xe0\xa4\x95\xe0\xa4\xa8\xe0\xa4\x95\xe0\xa4\xaa\xe0\xa5\x81\xe0\xa4\xb0\xe0\xa4\xbe:i26'
p1992
sS'posn'
p1993
S'130'
p1994
sS'name'
p1995
S'\xe0\xa4\x95\xe0\xa4\xa8\xe0\xa4\x95\xe0\xa4\xaa\xe0\xa5\x81\xe0\xa4\xb0\xe0\xa4\xbe'
p1996
sS'af'
p1997
S'\xe0\xa4\x95\xe0\xa4\xa8\xe0\xa4\x95\xe0\xa4\xaa\xe0\xa5\x81\xe0\xa4\xb0\xe0\xa4\xbe,n,m,sg,3,d,0,0'
p1998
sS'drel'
p1999
S'nmod__adj:NP6'
p2000
sS'crefchainhead'
p2001
S'i26:t10'
p2002
sS'chunktype'
p2003
S'child:NP6'
p2004
sS'cref'
p2005
S'i26%1:t10,i25%0:t9'
p2006
ssbsg26
I00
sg27
I00
sg28
Nsg29
Nsg30
I6
sg31
I3
sg32
Nsg33
Nsg34
S'NNP'
p2007
sg36
g1988
sg37
I00
sba(issf_api
Word
p2008
(dp2009
g6
I00
sg7
V\u0938\u0902\u0938\u0926\u0940\u092f
p2010
sg9
(issf_api
FeatureSet
p2011
(dp2012
g12
(dp2013
S'posn'
p2014
S'170'
p2015
sS'name'
p2016
S'\xe0\xa4\xb8\xe0\xa4\x82\xe0\xa4\xb8\xe0\xa4\xa6\xe0\xa5\x80\xe0\xa4\xaf'
p2017
sS'af'
p2018
S'\xe0\xa4\xb8\xe0\xa4\x82\xe0\xa4\xb8\xe0\xa4\xa6\xe0\xa5\x80\xe0\xa4\xaf,adj,any,any,,d,,'
p2019
sS'drel'
p2020
S'pof__cn:NP6'
p2021
sS'chunktype'
p2022
S'child:NP6'
p2023
sS'cref'
p2024
S'i25%0:t9'
p2025
ssbsg26
I00
sg27
I00
sg28
Nsg29
Nsg30
I6
sg31
I3
sg32
Nsg33
Nsg34
S'NNC'
p2026
sg36
g2011
sg37
I00
sba(issf_api
Word
p2027
(dp2028
g6
I00
sg7
V\u0915\u094d\u0937\u0947\u0924\u094d\u0930
p2029
sg9
(issf_api
FeatureSet
p2030
(dp2031
g12
(dp2032
S'posn'
p2033
S'150'
p2034
sS'name'
p2035
S'\xe0\xa4\x95\xe0\xa5\x8d\xe0\xa4\xb7\xe0\xa5\x87\xe0\xa4\xa4\xe0\xa5\x8d\xe0\xa4\xb0'
p2036
sS'af'
p2037
S'\xe0\xa4\x95\xe0\xa5\x8d\xe0\xa4\xb7\xe0\xa5\x87\xe0\xa4\xa4\xe0\xa5\x8d\xe0\xa4\xb0,n,m,sg,3,o,0_\xe0\xa4\xb8\xe0\xa5\x87,0'
p2038
sS'chunkid'
p2039
S'NP6'
p2040
sS'drel'
p2041
S'k5:VGF2'
p2042
sS'chunktype'
p2043
S'head:NP6'
p2044
sS'vpos'
p2045
S'vib_vib_4'
p2046
sS'cref'
p2047
S'i25%0:t9'
p2048
ssbsg26
I00
sg27
I00
sg28
Nsg29
Nsg30
I6
sg31
I3
sg32
Nsg33
Nsg34
S'NN'
p2049
sg36
g2030
sg37
I00
sba(issf_api
Word
p2050
(dp2051
g6
I00
sg7
V\u0938\u0947
p2052
sg9
(issf_api
FeatureSet
p2053
(dp2054
g12
(dp2055
S'posn'
p2056
S'160'
p2057
sS'name'
p2058
S'\xe0\xa4\xb8\xe0\xa5\x87'
p2059
sS'af'
p2060
S'\xe0\xa4\xb8\xe0\xa5\x87,psp,,,,,,'
p2061
sS'drel'
p2062
S'lwg__psp:NP6'
p2063
sS'chunktype'
p2064
S'child:NP6'
p2065
sS'cref'
p2066
S'i25%0:t9'
p2067
ssbsg26
I00
sg27
I00
sg28
Nsg29
Nsg30
I6
sg31
I3
sg32
Nsg33
Nsg34
S'PSP'
p2068
sg36
g2053
sg37
I00
sba(issf_api
Word
p2069
(dp2070
g6
I00
sg7
V\u0905\u0935\u093f\u092d\u093e\u091c\u093f\u0924
p2071
sg9
(issf_api
FeatureSet
p2072
(dp2073
g12
(dp2074
S'posn'
p2075
S'170'
p2076
sS'name'
p2077
S'\xe0\xa4\x85\xe0\xa4\xb5\xe0\xa4\xbf\xe0\xa4\xad\xe0\xa4\xbe\xe0\xa4\x9c\xe0\xa4\xbf\xe0\xa4\xa4'
p2078
sS'af'
p2079
S'\xe0\xa4\x85\xe0\xa4\xb5\xe0\xa4\xbf\xe0\xa4\xad\xe0\xa4\xbe\xe0\xa4\x9c\xe0\xa4\xbf\xe0\xa4\xa4,adj,any,any,,d,,'
p2080
sS'chunkid'
p2081
S'JJP'
p2082
sS'drel'
p2083
S'nmod:NP7'
p2084
sS'chunktype'
p2085
S'head:JJP'
p2086
sS'cref'
p2087
S'i25%0:t9'
p2088
ssbsg26
I00
sg27
I00
sg28
Nsg29
Nsg30
I7
sg31
I3
sg32
Nsg33
Nsg34
S'JJ'
p2089
sg36
g2072
sg37
I00
sba(issf_api
Word
p2090
(dp2091
g6
I00
sg7
V\u091c\u0926
p2092
sg9
(issf_api
FeatureSet
p2093
(dp2094
g12
(dp2095
S'posn'
p2096
S'180'
p2097
sS'name'
p2098
S'\xe0\xa4\x9c\xe0\xa4\xa6'
p2099
sS'af'
p2100
S'\xe0\xa4\x9c\xe0\xa4\xa6,n,m,sg,3,d,0,0'
p2101
sS'drel'
p2102
S'pof__cn:NP7'
p2103
sS'chunktype'
p2104
S'child:NP7'
p2105
sS'cref'
p2106
S'i25%0:t9'
p2107
ssbsg26
I00
sg27
I00
sg28
Nsg29
Nsg30
I8
sg31
I3
sg32
Nsg33
Nsg34
S'NNPC'
p2108
sg36
g2093
sg37
I00
sba(issf_api
Word
p2109
(dp2110
g6
I00
sg7
V\u090f\u0938
p2111
sg9
(issf_api
FeatureSet
p2112
(dp2113
g12
(dp2114
S'posn'
p2115
S'190'
p2116
sS'name'
p2117
S'\xe0\xa4\x8f\xe0\xa4\xb8'
p2118
sS'af'
p2119
S'\xe0\xa4\x8f\xe0\xa4\xb8,n,m,sg,3,d,0,0'
p2120
sS'drel'
p2121
S'nmod__adj:NP7'
p2122
sS'chunktype'
p2123
S'child:NP7'
p2124
sS'cref'
p2125
S'i25%0:t9'
p2126
ssbsg26
I00
sg27
I00
sg28
Nsg29
Nsg30
I8
sg31
I3
sg32
Nsg33
Nsg34
S'NNP'
p2127
sg36
g2112
sg37
I00
sba(issf_api
Word
p2128
(dp2129
g6
I00
sg7
V\u092a\u094d\u0930\u0924\u094d\u092f\u093e\u0936\u0940
p2130
sg9
(issf_api
FeatureSet
p2131
(dp2132
g12
(dp2133
S'posn'
p2134
S'200'
p2135
sS'name'
p2136
S'\xe0\xa4\xaa\xe0\xa5\x8d\xe0\xa4\xb0\xe0\xa4\xa4\xe0\xa5\x8d\xe0\xa4\xaf\xe0\xa4\xbe\xe0\xa4\xb6\xe0\xa5\x80'
p2137
sS'af'
p2138
S'\xe0\xa4\xaa\xe0\xa5\x8d\xe0\xa4\xb0\xe0\xa4\xa4\xe0\xa5\x8d\xe0\xa4\xaf\xe0\xa4\xbe\xe0\xa4\xb6\xe0\xa5\x80,n,m,sg,3,o,0_\xe0\xa4\x95\xe0\xa5\x87_\xe0\xa4\xb0\xe0\xa5\x82\xe0\xa4\xaa_\xe0\xa4\xae\xe0\xa5\x87\xe0\xa4\x82,0'
p2139
sS'chunkid'
p2140
S'NP7'
p2141
sS'drel'
p2142
S'k7:VGF3'
p2143
sS'chunktype'
p2144
S'head:NP7'
p2145
sS'vpos'
p2146
S'vib_vib_4_5_6'
p2147
sS'cref'
p2148
S'i25%0:t9'
p2149
ssbsg26
I00
sg27
I00
sg28
Nsg29
Nsg30
I8
sg31
I3
sg32
Nsg33
Nsg34
S'NN'
p2150
sg36
g2131
sg37
I00
sba(issf_api
Word
p2151
(dp2152
g6
I00
sg7
V\u0915\u0947
p2153
sg9
(issf_api
FeatureSet
p2154
(dp2155
g12
(dp2156
S'posn'
p2157
S'210'
p2158
sS'name'
p2159
S'\xe0\xa4\x95\xe0\xa5\x87'
p2160
sS'af'
p2161
S'\xe0\xa4\x95\xe0\xa5\x87,psp,m,,,o,,'
p2162
sS'drel'
p2163
S'lwg__psp:NP7'
p2164
sS'chunktype'
p2165
S'child:NP7'
p2166
sS'cref'
p2167
S'i25%0:t9'
p2168
ssbsg26
I00
sg27
I00
sg28
Nsg29
Nsg30
I8
sg31
I3
sg32
Nsg33
Nsg34
S'PSP'
p2169
sg36
g2154
sg37
I00
sba(issf_api
Word
p2170
(dp2171
g6
I00
sg7
V\u0930\u0942\u092a
p2172
sg9
(issf_api
FeatureSet
p2173
(dp2174
g12
(dp2175
S'posn'
p2176
S'210'
p2177
sS'name'
p2178
S'\xe0\xa4\xb0\xe0\xa5\x82\xe0\xa4\xaa'
p2179
sS'af'
p2180
S'\xe0\xa4\xb0\xe0\xa5\x82\xe0\xa4\xaa,n,m,,,o,,'
p2181
sS'drel'
p2182
S'lwg__psp:NP7'
p2183
sS'chunktype'
p2184
S'child:NP7'
p2185
sS'cref'
p2186
S'i25%0:t9'
p2187
ssbsg26
I00
sg27
I00
sg28
Nsg29
Nsg30
I8
sg31
I3
sg32
Nsg33
Nsg34
S'PSP'
p2188
sg36
g2173
sg37
I00
sba(issf_api
Word
p2189
(dp2190
g6
I00
sg7
V\u092e\u0947\u0902
p2191
sg9
(issf_api
FeatureSet
p2192
(dp2193
g12
(dp2194
S'posn'
p2195
S'230'
p2196
sS'name'
p2197
S'\xe0\xa4\xae\xe0\xa5\x87\xe0\xa4\x822'
p2198
sS'af'
p2199
S'\xe0\xa4\xae\xe0\xa5\x87\xe0\xa4\x82,psp,,,,,,'
p2200
sS'drel'
p2201
S'lwg__psp:NP7'
p2202
sS'chunktype'
p2203
S'child:NP7'
p2204
sS'cref'
p2205
S'i25%0:t9'
p2206
ssbsg26
I00
sg27
I00
sg28
Nsg29
Nsg30
I8
sg31
I3
sg32
Nsg33
Nsg34
S'PSP'
p2207
sg36
g2192
sg37
I00
sba(issf_api
Word
p2208
(dp2209
g6
I00
sg7
V\u0909\u0928\u0915\u093e
p2210
sg9
(issf_api
FeatureSet
p2211
(dp2212
g12
(dp2213
S'crefhead'
p2214
S'\xe0\xa4\x89\xe0\xa4\xa8\xe0\xa4\x95\xe0\xa4\xbe:i27'
p2215
sS'posn'
p2216
S'240'
p2217
sS'name'
p2218
S'\xe0\xa4\x89\xe0\xa4\xa8\xe0\xa4\x95\xe0\xa4\xbe'
p2219
sS'af'
p2220
S'\xe0\xa4\xb5\xe0\xa4\xb9,pn,m,sg,3h,o,\xe0\xa4\x95\xe0\xa4\xbe,kA'
p2221
sS'chunkid'
p2222
S'NP8'
p2223
sS'creftype'
p2224
S'Anaphora-C:i21'
p2225
sS'chunktype'
p2226
S'head:NP8'
p2227
sS'cref'
p2228
S'i27%1:t2,i25%0:t9'
p2229
sS'drel'
p2230
S'r6:NP9'
p2231
ssbsg26
I00
sg27
I00
sg28
Nsg29
Nsg30
I9
sg31
I3
sg32
Nsg33
Nsg34
S'PRP'
p2232
sg36
g2211
sg37
I00
sba(issf_api
Word
p2233
(dp2234
g6
I00
sg7
V\u0928\u093e\u092e
p2235
sg9
(issf_api
FeatureSet
p2236
(dp2237
g12
(dp2238
S'posn'
p2239
S'250'
p2240
sS'name'
p2241
S'\xe0\xa4\xa8\xe0\xa4\xbe\xe0\xa4\xae'
p2242
sS'af'
p2243
S'\xe0\xa4\xa8\xe0\xa4\xbe\xe0\xa4\xae,n,m,sg,3,d,0,0'
p2244
sS'chunkid'
p2245
S'NP9'
p2246
sS'drel'
p2247
S'k2:VGF2'
p2248
sS'chunktype'
p2249
S'head:NP9'
p2250
sS'cref'
p2251
S'i25%0:t9'
p2252
ssbsg26
I00
sg27
I00
sg28
Nsg29
Nsg30
I10
sg31
I3
sg32
Nsg33
Nsg34
S'NN'
p2253
sg36
g2236
sg37
I00
sba(issf_api
Word
p2254
(dp2255
g6
I00
sg7
V\u092a\u094d\u0930\u0938\u094d\u0924\u093e\u0935\u093f\u0924
p2256
sg9
(issf_api
FeatureSet
p2257
(dp2258
g12
(dp2259
S'posn'
p2260
S'260'
p2261
sS'name'
p2262
S'\xe0\xa4\xaa\xe0\xa5\x8d\xe0\xa4\xb0\xe0\xa4\xb8\xe0\xa5\x8d\xe0\xa4\xa4\xe0\xa4\xbe\xe0\xa4\xb5\xe0\xa4\xbf\xe0\xa4\xa4'
p2263
sS'af'
p2264
S'\xe0\xa4\xaa\xe0\xa5\x8d\xe0\xa4\xb0\xe0\xa4\xb8\xe0\xa5\x8d\xe0\xa4\xa4\xe0\xa4\xbe\xe0\xa4\xb5\xe0\xa4\xbf\xe0\xa4\xa4,adj,any,any,,,,'
p2265
sS'chunkid'
p2266
S'JJP2'
p2267
sS'drel'
p2268
S'pof:VGF2'
p2269
sS'chunktype'
p2270
S'head:JJP2'
p2271
sS'cref'
p2272
S'i25%0:t9'
p2273
ssbsg26
I00
sg27
I00
sg28
Nsg29
Nsg30
I11
sg31
I3
sg32
Nsg33
Nsg34
S'JJ'
p2274
sg36
g2257
sg37
I00
sba(issf_api
Word
p2275
(dp2276
g6
I00
sg7
V\u0915\u093f\u092f\u093e
p2277
sg9
(issf_api
FeatureSet
p2278
(dp2279
g12
(dp2280
S'crefhead'
p2281
S'\xe0\xa4\x95\xe0\xa4\xbf\xe0\xa4\xaf\xe0\xa4\xbe:i25'
p2282
sS'posn'
p2283
S'270'
p2284
sS'name'
p2285
S'\xe0\xa4\x95\xe0\xa4\xbf\xe0\xa4\xaf\xe0\xa4\xbe'
p2286
sS'af'
p2287
S'\xe0\xa4\x95\xe0\xa4\xb0,v,m,sg,any,,\xe0\xa4\xaf\xe0\xa4\xbe_\xe0\xa4\xa5\xe0\xa4\xbe,yA'
p2288
sS'chunkid'
p2289
S'VGF2'
p2290
sS'stype'
p2291
S'declarative'
p2292
sS'creftype'
p2293
S'Anaphora-RT:i23'
p2294
sS'chunktype'
p2295
S'head:VGF2'
p2296
sS'crefchainhead'
p2297
S'i25:t9'
p2298
sS'voicetype'
p2299
S'active'
p2300
sS'vpos'
p2301
S'tam_2'
p2302
sS'cref'
p2303
S'i25%0:t9'
p2304
sS'drel'
p2305
S'ccof:CCP'
p2306
ssbsg26
I00
sg27
I00
sg28
Nsg29
Nsg30
I12
sg31
I3
sg32
Nsg33
Nsg34
S'VM'
p2307
sg36
g2278
sg37
I00
sba(issf_api
Word
p2308
(dp2309
g6
I00
sg7
V\u0925\u093e
p2310
sg9
(issf_api
FeatureSet
p2311
(dp2312
g12
(dp2313
S'posn'
p2314
S'280'
p2315
sS'name'
p2316
S'\xe0\xa4\xa5\xe0\xa4\xbe'
p2317
sS'af'
p2318
S'\xe0\xa4\xa5\xe0\xa4\xbe,v,m,sg,any,,\xe0\xa4\xa5\xe0\xa4\xbe,WA'
p2319
sS'drel'
p2320
S'lwg__vaux:VGF2'
p2321
sS'chunktype'
p2322
S'child:VGF2'
p2323
sS'cref'
p2324
S'i25%1:t9'
p2325
ssbsg26
I00
sg27
I00
sg28
Nsg29
Nsg30
I12
sg31
I3
sg32
Nsg33
Nsg34
S'VAUX'
p2326
sg36
g2311
sg37
I00
sba(issf_api
Word
p2327
(dp2328
g6
I00
sg7
V\u0914\u0930
p2329
sg9
(issf_api
FeatureSet
p2330
(dp2331
g12
(dp2332
S'posn'
p2333
S'290'
p2334
sS'name'
p2335
S'\xe0\xa4\x94\xe0\xa4\xb0'
p2336
sS'af'
p2337
S'\xe0\xa4\x94\xe0\xa4\xb0,avy,,,,,,'
p2338
sS'chunkid'
p2339
S'CCP'
p2340
sS'drel'
p2341
S'nmod__relc:NP3'
p2342
sS'chunktype'
p2343
S'head:CCP'
p2344
ssbsg26
I00
sg27
I00
sg28
Nsg29
Nsg30
I13
sg31
I3
sg32
Nsg33
Nsg34
S'CC'
p2345
sg36
g2330
sg37
I00
sba(issf_api
Word
p2346
(dp2347
g6
I00
sg7
V\u0935\u0939
p2348
sg9
(issf_api
FeatureSet
p2349
(dp2350
g12
(dp2351
S'crefhead'
p2352
S'\xe0\xa4\xb5\xe0\xa4\xb9:i28'
p2353
sS'posn'
p2354
S'300'
p2355
sS'name'
p2356
S'\xe0\xa4\xb5\xe0\xa4\xb9'
p2357
sS'af'
p2358
S'\xe0\xa4\xb5\xe0\xa4\xb9,pn,any,sg,3,d,0,0'
p2359
sS'chunkid'
p2360
S'NP10'
p2361
sS'creftype'
p2362
S'Anaphora-C:i27'
p2363
sS'chunktype'
p2364
S'head:NP10'
p2365
sS'cref'
p2366
S'i28%1:t2'
p2367
sS'drel'
p2368
S'k1:VGF3'
p2369
ssbsg26
I00
sg27
I00
sg28
Nsg29
Nsg30
I14
sg31
I3
sg32
Nsg33
Nsg34
S'PRP'
p2370
sg36
g2349
sg37
I00
sba(issf_api
Word
p2371
(dp2372
g6
I00
sg7
V\u091a\u0941\u0928\u093e\u0935
p2373
sg9
(issf_api
FeatureSet
p2374
(dp2375
g12
(dp2376
S'crefhead'
p2377
S'\xe0\xa4\x9a\xe0\xa5\x81\xe0\xa4\xa8\xe0\xa4\xbe\xe0\xa4\xb5:i29'
p2378
sS'posn'
p2379
S'310'
p2380
sS'name'
p2381
S'\xe0\xa4\x9a\xe0\xa5\x81\xe0\xa4\xa8\xe0\xa4\xbe\xe0\xa4\xb5'
p2382
sS'af'
p2383
S'\xe0\xa4\x9a\xe0\xa5\x81\xe0\xa4\xa8\xe0\xa4\xbe\xe0\xa4\xb5,n,m,sg,3,d,0,0'
p2384
sS'chunkid'
p2385
S'NP11'
p2386
sS'creftype'
p2387
S'Coreference-PartOf:i19'
p2388
sS'chunktype'
p2389
S'head:NP11'
p2390
sS'cref'
p2391
S'i29%1:t8'
p2392
sS'drel'
p2393
S'k2:VGF3'
p2394
ssbsg26
I00
sg27
I00
sg28
Nsg29
Nsg30
I15
sg31
I3
sg32
Nsg33
Nsg34
S'NN'
p2395
sg36
g2374
sg37
I00
sba(issf_api
Word
p2396
(dp2397
g6
I00
sg7
V\u091c\u0940\u0924
p2398
sg9
(issf_api
FeatureSet
p2399
(dp2400
g12
(dp2401
S'posn'
p2402
S'320'
p2403
sS'name'
p2404
S'\xe0\xa4\x9c\xe0\xa5\x80\xe0\xa4\xa4'
p2405
sS'af'
p2406
S'\xe0\xa4\x9c\xe0\xa5\x80\xe0\xa4\xa4,v,any,sg,3h,,0_\xe0\xa4\x9c\xe0\xa4\xbe+\xe0\xa4\xaf\xe0\xa4\xbe\xe0\xa5\xa7,0'
p2407
sS'chunkid'
p2408
S'VGF3'
p2409
sS'stype'
p2410
S'declarative'
p2411
sS'drel'
p2412
S'ccof:CCP'
p2413
sS'voicetype'
p2414
S'active'
p2415
sS'vpos'
p2416
S'tam_2'
p2417
sS'chunktype'
p2418
S'head:VGF3'
p2419
ssbsg26
I00
sg27
I00
sg28
Nsg29
Nsg30
I16
sg31
I3
sg32
Nsg33
Nsg34
S'VM'
p2420
sg36
g2399
sg37
I00
sba(issf_api
Word
p2421
(dp2422
g6
I00
sg7
V\u0917\u090f
p2423
sg9
(issf_api
FeatureSet
p2424
(dp2425
g12
(dp2426
S'posn'
p2427
S'330'
p2428
sS'name'
p2429
S'\xe0\xa4\x97\xe0\xa4\x8f'
p2430
sS'drel'
p2431
S'lwg__vaux:VGF3'
p2432
sS'chunktype'
p2433
S'child:VGF3'
p2434
sS'af'
p2435
S'\xe0\xa4\x9c\xe0\xa4\xbe,v,m,sg,3h,,\xe0\xa4\xaf\xe0\xa4\xbe\xe0\xa5\xa7,yA1'
p2436
ssbsg26
I00
sg27
I00
sg28
Nsg29
Nsg30
I16
sg31
I3
sg32
Nsg33
Nsg34
S'VAUX'
p2437
sg36
g2424
sg37
I00
sba(issf_api
Word
p2438
(dp2439
g6
I00
sg7
V\u0964
p2440
sg9
(issf_api
FeatureSet
p2441
(dp2442
g12
(dp2443
S'posn'
p2444
S'340'
p2445
sS'name'
p2446
S'\xe0\xa5\xa4'
p2447
sS'af'
p2448
S'\xe0\xa5\xa4,punc,,,,,,'
p2449
sS'chunkid'
p2450
S'BLK'
p2451
sS'drel'
p2452
S'rsym:VGF'
p2453
sS'chunktype'
p2454
S'head:BLK'
p2455
ssbsg26
I00
sg27
I00
sg28
Nsg29
Nsg30
I17
sg31
I3
sg32
Nsg33
Nsg34
S'SYM'
p2456
sg36
g2441
sg37
I00
sba(issf_api
Word
p2457
(dp2458
g6
I00
sg7
V\u0935\u0930\u094d\u0937
p2459
sg9
(issf_api
FeatureSet
p2460
(dp2461
g12
(dp2462
S'posn'
p2463
S'10'
p2464
sS'name'
p2465
S'\xe0\xa4\xb5\xe0\xa4\xb0\xe0\xa5\x8d\xe0\xa4\xb7'
p2466
sS'drel'
p2467
S'pof__cn:NP'
p2468
sS'chunktype'
p2469
S'child:NP'
p2470
sS'af'
p2471
S'\xe0\xa4\xb5\xe0\xa4\xb0\xe0\xa5\x8d\xe0\xa4\xb7,n,m,sg,3,d,0,0'
p2472
ssbsg26
I00
sg27
I00
sg28
Nsg29
Nsg30
I0
sg31
I4
sg32
Nsg33
Nsg34
S'NNPC'
p2473
sg36
g2460
sg37
I00
sba(issf_api
Word
p2474
(dp2475
g6
I00
sg7
V\u0967\u096f\u096f\u096e
p2476
sg9
(issf_api
FeatureSet
p2477
(dp2478
g12
(dp2479
S'posn'
p2480
S'20'
p2481
sS'name'
p2482
S'\xe0\xa5\xa7\xe0\xa5\xaf\xe0\xa5\xaf\xe0\xa5\xae'
p2483
sS'af'
p2484
S'\xe0\xa5\xa7\xe0\xa5\xaf\xe0\xa5\xaf\xe0\xa5\xae,n,m,sg,3,o,0_\xe0\xa4\xae\xe0\xa5\x87\xe0\xa4\x82,0'
p2485
sS'chunkid'
p2486
S'NP'
p2487
sS'drel'
p2488
S'k7t:VGF'
p2489
sS'vpos'
p2490
S'vib_3'
p2491
sS'chunktype'
p2492
S'head:NP'
p2493
ssbsg26
I00
sg27
I00
sg28
Nsg29
Nsg30
I0
sg31
I4
sg32
Nsg33
Nsg34
S'NNP'
p2494
sg36
g2477
sg37
I00
sba(issf_api
Word
p2495
(dp2496
g6
I00
sg7
V\u092e\u0947\u0902
p2497
sg9
(issf_api
FeatureSet
p2498
(dp2499
g12
(dp2500
S'posn'
p2501
S'30'
p2502
sS'name'
p2503
S'\xe0\xa4\xae\xe0\xa5\x87\xe0\xa4\x82'
p2504
sS'drel'
p2505
S'lwg__psp:NP'
p2506
sS'chunktype'
p2507
S'child:NP'
p2508
sS'af'
p2509
S'\xe0\xa4\xae\xe0\xa5\x87\xe0\xa4\x82,psp,,,,,,'
p2510
ssbsg26
I00
sg27
I00
sg28
Nsg29
Nsg30
I0
sg31
I4
sg32
Nsg33
Nsg34
S'PSP'
p2511
sg36
g2498
sg37
I00
sba(issf_api
Word
p2512
(dp2513
g6
I00
sg7
V\u0915\u0941\u092e\u093e\u0930\u0938\u094d\u0935\u093e\u092e\u0940
p2514
sg9
(issf_api
FeatureSet
p2515
(dp2516
g12
(dp2517
S'crefhead'
p2518
S'\xe0\xa4\x95\xe0\xa5\x81\xe0\xa4\xae\xe0\xa4\xbe\xe0\xa4\xb0\xe0\xa4\xb8\xe0\xa5\x8d\xe0\xa4\xb5\xe0\xa4\xbe\xe0\xa4\xae\xe0\xa5\x80:i30'
p2519
sS'posn'
p2520
S'40'
p2521
sS'name'
p2522
S'\xe0\xa4\x95\xe0\xa5\x81\xe0\xa4\xae\xe0\xa4\xbe\xe0\xa4\xb0\xe0\xa4\xb8\xe0\xa5\x8d\xe0\xa4\xb5\xe0\xa4\xbe\xe0\xa4\xae\xe0\xa5\x80'
p2523
sS'af'
p2524
S'\xe0\xa4\x95\xe0\xa5\x81\xe0\xa4\xae\xe0\xa4\xbe\xe0\xa4\xb0\xe0\xa4\xb8\xe0\xa5\x8d\xe0\xa4\xb5\xe0\xa4\xbe\xe0\xa4\xae\xe0\xa5\x80,n,m,sg,3,d,0,0'
p2525
sS'chunkid'
p2526
S'NP2'
p2527
sS'creftype'
p2528
S'Coreference-Identity:i28'
p2529
sS'chunktype'
p2530
S'head:NP2'
p2531
sS'cref'
p2532
S'i30%1:t2'
p2533
sS'drel'
p2534
S'k1:VGF'
p2535
ssbsg26
I00
sg27
I00
sg28
Nsg29
Nsg30
I1
sg31
I4
sg32
Nsg33
Nsg34
S'NNP'
p2536
sg36
g2515
sg37
I00
sba(issf_api
Word
p2537
(dp2538
g6
I00
sg7
V\u0905\u092a\u0928\u093e
p2539
sg9
(issf_api
FeatureSet
p2540
(dp2541
g12
(dp2542
S'crefhead'
p2543
S'\xe0\xa4\x85\xe0\xa4\xaa\xe0\xa4\xa8\xe0\xa4\xbe:i31'
p2544
sS'posn'
p2545
S'50'
p2546
sS'name'
p2547
S'\xe0\xa4\x85\xe0\xa4\xaa\xe0\xa4\xa8\xe0\xa4\xbe'
p2548
sS'af'
p2549
S'\xe0\xa4\x85\xe0\xa4\xaa\xe0\xa4\xa8\xe0\xa4\xbe,pn,m,any,any,d,0,0'
p2550
sS'chunkid'
p2551
S'NP3'
p2552
sS'creftype'
p2553
S'Anaphora-C:i30'
p2554
sS'chunktype'
p2555
S'head:NP3'
p2556
sS'cref'
p2557
S'i31%1:t2'
p2558
sS'drel'
p2559
S'r6:NP4'
p2560
ssbsg26
I00
sg27
I00
sg28
Nsg29
Nsg30
I2
sg31
I4
sg32
Nsg33
Nsg34
S'PRP'
p2561
sg36
g2540
sg37
I00
sba(issf_api
Word
p2562
(dp2563
g6
I00
sg7
V\u091c\u093e\u0926\u0942
p2564
sg9
(issf_api
FeatureSet
p2565
(dp2566
g12
(dp2567
S'posn'
p2568
S'60'
p2569
sS'name'
p2570
S'\xe0\xa4\x9c\xe0\xa4\xbe\xe0\xa4\xa6\xe0\xa5\x82'
p2571
sS'af'
p2572
S'\xe0\xa4\x9c\xe0\xa4\xbe\xe0\xa4\xa6\xe0\xa5\x82,n,m,sg,3,d,0,0'
p2573
sS'chunkid'
p2574
S'NP4'
p2575
sS'drel'
p2576
S'k2:VGNN'
p2577
sS'chunktype'
p2578
S'head:NP4'
p2579
ssbsg26
I00
sg27
I00
sg28
Nsg29
Nsg30
I3
sg31
I4
sg32
Nsg33
Nsg34
S'NN'
p2580
sg36
g2565
sg37
I00
sba(issf_api
Word
p2581
(dp2582
g6
I00
sg7
V\u0926\u094b\u0939\u0930\u093e\u0928\u0947
p2583
sg9
(issf_api
FeatureSet
p2584
(dp2585
g12
(dp2586
S'posn'
p2587
S'70'
p2588
sS'name'
p2589
S'\xe0\xa4\xa6\xe0\xa5\x8b\xe0\xa4\xb9\xe0\xa4\xb0\xe0\xa4\xbe\xe0\xa4\xa8\xe0\xa5\x87'
p2590
sS'af'
p2591
S'\xe0\xa4\xa6\xe0\xa5\x8b\xe0\xa4\xb9\xe0\xa4\xb0\xe0\xa4\xbe,v,any,any,any,o,\xe0\xa4\xa8\xe0\xa4\xbe_\xe0\xa4\xae\xe0\xa5\x87\xe0\xa4\x82,nA'
p2592
sS'chunkid'
p2593
S'VGNN'
p2594
sS'drel'
p2595
S'k7:VGF'
p2596
sS'vpos'
p2597
S'tam_2'
p2598
sS'chunktype'
p2599
S'head:VGNN'
p2600
ssbsg26
I00
sg27
I00
sg28
Nsg29
Nsg30
I4
sg31
I4
sg32
Nsg33
Nsg34
S'VM'
p2601
sg36
g2584
sg37
I00
sba(issf_api
Word
p2602
(dp2603
g6
I00
sg7
V\u092e\u0947\u0902
p2604
sg9
(issf_api
FeatureSet
p2605
(dp2606
g12
(dp2607
S'posn'
p2608
S'80'
p2609
sS'name'
p2610
S'\xe0\xa4\xae\xe0\xa5\x87\xe0\xa4\x822'
p2611
sS'drel'
p2612
S'lwg__psp:VGNN'
p2613
sS'chunktype'
p2614
S'child:VGNN'
p2615
sS'af'
p2616
S'\xe0\xa4\xae\xe0\xa5\x87\xe0\xa4\x82,psp,,,,,,'
p2617
ssbsg26
I00
sg27
I00
sg28
Nsg29
Nsg30
I4
sg31
I4
sg32
Nsg33
Nsg34
S'PSP'
p2618
sg36
g2605
sg37
I00
sba(issf_api
Word
p2619
(dp2620
g6
I00
sg7
V\u0928\u093e\u0915\u093e\u092e
p2621
sg9
(issf_api
FeatureSet
p2622
(dp2623
g12
(dp2624
S'posn'
p2625
S'90'
p2626
sS'name'
p2627
S'\xe0\xa4\xa8\xe0\xa4\xbe\xe0\xa4\x95\xe0\xa4\xbe\xe0\xa4\xae'
p2628
sS'af'
p2629
S'\xe0\xa4\xa8\xe0\xa4\xbe\xe0\xa4\x95\xe0\xa4\xbe\xe0\xa4\xae,adj,any,any,,,,'
p2630
sS'chunkid'
p2631
S'JJP'
p2632
sS'drel'
p2633
S'k1s:VGF'
p2634
sS'chunktype'
p2635
S'head:JJP'
p2636
ssbsg26
I00
sg27
I00
sg28
Nsg29
Nsg30
I5
sg31
I4
sg32
Nsg33
Nsg34
S'JJ'
p2637
sg36
g2622
sg37
I00
sba(issf_api
Word
p2638
(dp2639
g6
I00
sg7
V\u0930\u0939\u0947
p2640
sg9
(issf_api
FeatureSet
p2641
(dp2642
g12
(dp2643
S'posn'
p2644
S'100'
p2645
sS'name'
p2646
S'\xe0\xa4\xb0\xe0\xa4\xb9\xe0\xa5\x87'
p2647
sS'af'
p2648
S'\xe0\xa4\xb0\xe0\xa4\xb9,v,m,sg,3h,,\xe0\xa4\xaf\xe0\xa4\xbe,yA'
p2649
sS'chunkid'
p2650
S'VGF'
p2651
sS'stype'
p2652
S'declarative'
p2653
sS'drel'
p2654
S'ccof:CCP'
p2655
sS'voicetype'
p2656
S'active'
p2657
sS'chunktype'
p2658
S'head:VGF'
p2659
ssbsg26
I00
sg27
I00
sg28
Nsg29
Nsg30
I6
sg31
I4
sg32
Nsg33
Nsg34
S'VM'
p2660
sg36
g2641
sg37
I00
sba(issf_api
Word
p2661
(dp2662
g6
I00
sg7
V\u0914\u0930
p2663
sg9
(issf_api
FeatureSet
p2664
(dp2665
g12
(dp2666
S'posn'
p2667
S'110'
p2668
sS'chunkid'
p2669
S'CCP'
p2670
sS'name'
p2671
S'\xe0\xa4\x94\xe0\xa4\xb0'
p2672
sS'chunktype'
p2673
S'head:CCP'
p2674
sS'af'
p2675
S'\xe0\xa4\x94\xe0\xa4\xb0,avy,,,,,,'
p2676
ssbsg26
I00
sg27
I00
sg28
Nsg29
Nsg30
I7
sg31
I4
sg32
Nsg33
Nsg34
S'CC'
p2677
sg36
g2664
sg37
I00
sba(issf_api
Word
p2678
(dp2679
g6
I00
sg7
V\u0915\u093e\u0902\u0917\u094d\u0930\u0947\u0938
p2680
sg9
(issf_api
FeatureSet
p2681
(dp2682
g12
(dp2683
S'posn'
p2684
S'120'
p2685
sS'name'
p2686
S'\xe0\xa4\x95\xe0\xa4\xbe\xe0\xa4\x82\xe0\xa4\x97\xe0\xa5\x8d\xe0\xa4\xb0\xe0\xa5\x87\xe0\xa4\xb8'
p2687
sS'af'
p2688
S'\xe0\xa4\x95\xe0\xa4\xbe\xe0\xa4\x82\xe0\xa4\x97\xe0\xa5\x8d\xe0\xa4\xb0\xe0\xa5\x87\xe0\xa4\xb8,n,f,sg,3,o,0_\xe0\xa4\x95\xe0\xa4\xbe,0'
p2689
sS'chunkid'
p2690
S'NP5'
p2691
sS'drel'
p2692
S'r6:NP6'
p2693
sS'vpos'
p2694
S'vib_2'
p2695
sS'chunktype'
p2696
S'head:NP5'
p2697
ssbsg26
I00
sg27
I00
sg28
Nsg29
Nsg30
I8
sg31
I4
sg32
Nsg33
Nsg34
S'NNP'
p2698
sg36
g2681
sg37
I00
sba(issf_api
Word
p2699
(dp2700
g6
I00
sg7
V\u0915\u0947
p2701
sg9
(issf_api
FeatureSet
p2702
(dp2703
g12
(dp2704
S'posn'
p2705
S'130'
p2706
sS'name'
p2707
S'\xe0\xa4\x95\xe0\xa5\x87'
p2708
sS'drel'
p2709
S'lwg__psp:NP5'
p2710
sS'chunktype'
p2711
S'child:NP5'
p2712
sS'af'
p2713
S'\xe0\xa4\x95\xe0\xa4\xbe,psp,m,sg,,o,,'
p2714
ssbsg26
I00
sg27
I00
sg28
Nsg29
Nsg30
I8
sg31
I4
sg32
Nsg33
Nsg34
S'PSP'
p2715
sg36
g2702
sg37
I00
sba(issf_api
Word
p2716
(dp2717
g6
I00
sg7
V\u090f\u092e.
p2718
sg9
(issf_api
FeatureSet
p2719
(dp2720
g12
(dp2721
S'posn'
p2722
S'140'
p2723
sS'name'
p2724
S'\xe0\xa4\x8f\xe0\xa4\xae.'
p2725
sS'drel'
p2726
S'pof__cn:NP6'
p2727
sS'chunktype'
p2728
S'child:NP6'
p2729
sS'af'
p2730
S'\xe0\xa4\x8f\xe0\xa4\xae.,n,m,sg,3,d,0,0'
p2731
ssbsg26
I00
sg27
I00
sg28
Nsg29
Nsg30
I9
sg31
I4
sg32
Nsg33
Nsg34
S'NNPC'
p2732
sg36
g2719
sg37
I00
sba(issf_api
Word
p2733
(dp2734
g6
I00
sg7
V\u091a\u0902\u0926\u094d\u0930\u0936\u0947\u0916\u0930
p2735
sg9
(issf_api
FeatureSet
p2736
(dp2737
g12
(dp2738
S'posn'
p2739
S'150'
p2740
sS'name'
p2741
S'\xe0\xa4\x9a\xe0\xa4\x82\xe0\xa4\xa6\xe0\xa5\x8d\xe0\xa4\xb0\xe0\xa4\xb6\xe0\xa5\x87\xe0\xa4\x96\xe0\xa4\xb0'
p2742
sS'drel'
p2743
S'pof__cn:NP6'
p2744
sS'chunktype'
p2745
S'child:NP6'
p2746
sS'af'
p2747
S'\xe0\xa4\x9a\xe0\xa4\x82\xe0\xa4\xa6\xe0\xa5\x8d\xe0\xa4\xb0\xe0\xa4\xb6\xe0\xa5\x87\xe0\xa4\x96\xe0\xa4\xb0,n,m,sg,3,d,0,0'
p2748
ssbsg26
I00
sg27
I00
sg28
Nsg29
Nsg30
I9
sg31
I4
sg32
Nsg33
Nsg34
S'NNPC'
p2749
sg36
g2736
sg37
I00
sba(issf_api
Word
p2750
(dp2751
g6
I00
sg7
V\u092e\u0942\u0930\u094d\u0924\u093f
p2752
sg9
(issf_api
FeatureSet
p2753
(dp2754
g12
(dp2755
S'posn'
p2756
S'160'
p2757
sS'name'
p2758
S'\xe0\xa4\xae\xe0\xa5\x82\xe0\xa4\xb0\xe0\xa5\x8d\xe0\xa4\xa4\xe0\xa4\xbf'
p2759
sS'af'
p2760
S'\xe0\xa4\xae\xe0\xa5\x82\xe0\xa4\xb0\xe0\xa5\x8d\xe0\xa4\xa4\xe0\xa4\xbf,n,m,sg,3,o,0_\xe0\xa4\x95\xe0\xa4\xbe,0'
p2761
sS'chunkid'
p2762
S'NP6'
p2763
sS'drel'
p2764
S'r6:NP7'
p2765
sS'vpos'
p2766
S'vib_4'
p2767
sS'chunktype'
p2768
S'head:NP6'
p2769
ssbsg26
I00
sg27
I00
sg28
Nsg29
Nsg30
I9
sg31
I4
sg32
Nsg33
Nsg34
S'NNP'
p2770
sg36
g2753
sg37
I00
sba(issf_api
Word
p2771
(dp2772
g6
I00
sg7
V\u0915\u0947
p2773
sg9
(issf_api
FeatureSet
p2774
(dp2775
g12
(dp2776
S'posn'
p2777
S'170'
p2778
sS'name'
p2779
S'\xe0\xa4\x95\xe0\xa5\x872'
p2780
sS'drel'
p2781
S'lwg__psp:NP6'
p2782
sS'chunktype'
p2783
S'child:NP6'
p2784
sS'af'
p2785
S'\xe0\xa4\x95\xe0\xa4\xbe,psp,m,sg,,o,,'
p2786
ssbsg26
I00
sg27
I00
sg28
Nsg29
Nsg30
I9
sg31
I4
sg32
Nsg33
Nsg34
S'PSP'
p2787
sg36
g2774
sg37
I00
sba(issf_api
Word
p2788
(dp2789
g6
I00
sg7
V\u0939\u093e\u0925\u094b\u0902
p2790
sg9
(issf_api
FeatureSet
p2791
(dp2792
g12
(dp2793
S'posn'
p2794
S'180'
p2795
sS'name'
p2796
S'\xe0\xa4\xb9\xe0\xa4\xbe\xe0\xa4\xa5\xe0\xa5\x8b\xe0\xa4\x82'
p2797
sS'af'
p2798
S'\xe0\xa4\xb9\xe0\xa4\xbe\xe0\xa4\xa5,n,m,pl,3,d,0,0'
p2799
sS'chunkid'
p2800
S'NP7'
p2801
sS'drel'
p2802
S'k3:VGF2'
p2803
sS'chunktype'
p2804
S'head:NP7'
p2805
ssbsg26
I00
sg27
I00
sg28
Nsg29
Nsg30
I10
sg31
I4
sg32
Nsg33
Nsg34
S'NN'
p2806
sg36
g2791
sg37
I00
sba(issf_api
Word
p2807
(dp2808
g6
I00
sg7
V\u0909\u0928\u094d\u0939\u0947\u0902
p2809
sg9
(issf_api
FeatureSet
p2810
(dp2811
g12
(dp2812
S'crefhead'
p2813
S'\xe0\xa4\x89\xe0\xa4\xa8\xe0\xa5\x8d\xe0\xa4\xb9\xe0\xa5\x87\xe0\xa4\x82:i32'
p2814
sS'posn'
p2815
S'190'
p2816
sS'name'
p2817
S'\xe0\xa4\x89\xe0\xa4\xa8\xe0\xa5\x8d\xe0\xa4\xb9\xe0\xa5\x87\xe0\xa4\x82'
p2818
sS'af'
p2819
S'\xe0\xa4\xb5\xe0\xa4\xb9,pn,any,sg,3h,o,\xe0\xa4\x95\xe0\xa5\x8b,ko'
p2820
sS'chunkid'
p2821
S'NP8'
p2822
sS'creftype'
p2823
S'Anaphora-C:i31'
p2824
sS'chunktype'
p2825
S'head:NP8'
p2826
sS'cref'
p2827
S'i32%1:t2'
p2828
sS'drel'
p2829
S'k4:VGF2'
p2830
ssbsg26
I00
sg27
I00
sg28
Nsg29
Nsg30
I11
sg31
I4
sg32
Nsg33
Nsg34
S'PRP'
p2831
sg36
g2810
sg37
I00
sba(issf_api
Word
p2832
(dp2833
g6
I00
sg7
V\u092e\u093e\u0924
p2834
sg9
(issf_api
FeatureSet
p2835
(dp2836
g12
(dp2837
S'posn'
p2838
S'200'
p2839
sS'name'
p2840
S'\xe0\xa4\xae\xe0\xa4\xbe\xe0\xa4\xa4'
p2841
sS'af'
p2842
S'\xe0\xa4\xae\xe0\xa4\xbe\xe0\xa4\xa4,n,f,sg,3,d,0,0'
p2843
sS'chunkid'
p2844
S'NP9'
p2845
sS'drel'
p2846
S'pof:VGF2'
p2847
sS'chunktype'
p2848
S'head:NP9'
p2849
ssbsg26
I00
sg27
I00
sg28
Nsg29
Nsg30
I12
sg31
I4
sg32
Nsg33
Nsg34
S'NN'
p2850
sg36
g2835
sg37
I00
sba(issf_api
Word
p2851
(dp2852
g6
I00
sg7
V\u0916\u093e\u0928\u0940
p2853
sg9
(issf_api
FeatureSet
p2854
(dp2855
g12
(dp2856
S'posn'
p2857
S'210'
p2858
sS'name'
p2859
S'\xe0\xa4\x96\xe0\xa4\xbe\xe0\xa4\xa8\xe0\xa5\x80'
p2860
sS'af'
p2861
S'\xe0\xa4\x96\xe0\xa4\xbe,v,f,sg,any,,\xe0\xa4\xa8\xe0\xa4\xbe_\xe0\xa4\xaa\xe0\xa4\xa1+\xe0\xa4\xaf\xe0\xa4\xbe,nA'
p2862
sS'chunkid'
p2863
S'VGF2'
p2864
sS'stype'
p2865
S'declarative'
p2866
sS'drel'
p2867
S'ccof:CCP'
p2868
sS'voicetype'
p2869
S'active'
p2870
sS'vpos'
p2871
S'tam_2'
p2872
sS'chunktype'
p2873
S'head:VGF2'
p2874
ssbsg26
I00
sg27
I00
sg28
Nsg29
Nsg30
I13
sg31
I4
sg32
Nsg33
Nsg34
S'VM'
p2875
sg36
g2854
sg37
I00
sba(issf_api
Word
p2876
(dp2877
g6
I00
sg7
V\u092a\u0921\u093c\u0940
p2878
sg9
(issf_api
FeatureSet
p2879
(dp2880
g12
(dp2881
S'posn'
p2882
S'220'
p2883
sS'name'
p2884
S'\xe0\xa4\xaa\xe0\xa4\xa1\xe0\xa4\xbc\xe0\xa5\x80'
p2885
sS'drel'
p2886
S'lwg__vaux:VGF2'
p2887
sS'chunktype'
p2888
S'child:VGF2'
p2889
sS'af'
p2890
S'\xe0\xa4\xaa\xe0\xa4\xa1,v,f,sg,any,,\xe0\xa4\xaf\xe0\xa4\xbe,yA'
p2891
ssbsg26
I00
sg27
I00
sg28
Nsg29
Nsg30
I13
sg31
I4
sg32
Nsg33
Nsg34
S'VAUX'
p2892
sg36
g2879
sg37
I00
sba(issf_api
Word
p2893
(dp2894
g6
I00
sg7
V\u0964
p2895
sg9
(issf_api
FeatureSet
p2896
(dp2897
g12
(dp2898
S'posn'
p2899
S'230'
p2900
sS'name'
p2901
S'\xe0\xa5\xa4'
p2902
sS'af'
p2903
S'\xe0\xa5\xa4,punc,,,,,,'
p2904
sS'chunkid'
p2905
S'BLK'
p2906
sS'drel'
p2907
S'rsym:CCP'
p2908
sS'chunktype'
p2909
S'head:BLK'
p2910
ssbsg26
I00
sg27
I00
sg28
Nsg29
Nsg30
I14
sg31
I4
sg32
Nsg33
Nsg34
S'SYM'
p2911
sg36
g2896
sg37
I00
sba(issf_api
Word
p2912
(dp2913
g6
I00
sg7
V\u0905\u0917\u0932\u0947
p2914
sg9
(issf_api
FeatureSet
p2915
(dp2916
g12
(dp2917
S'posn'
p2918
S'10'
p2919
sS'name'
p2920
S'\xe0\xa4\x85\xe0\xa4\x97\xe0\xa4\xb2\xe0\xa5\x87'
p2921
sS'drel'
p2922
S'nmod__adj:NP'
p2923
sS'chunktype'
p2924
S'child:NP'
p2925
sS'af'
p2926
S'\xe0\xa4\x85\xe0\xa4\x97\xe0\xa4\xb2\xe0\xa4\xbe,adj,m,sg,,o,,'
p2927
ssbsg26
I00
sg27
I00
sg28
Nsg29
Nsg30
I0
sg31
I5
sg32
Nsg33
Nsg34
S'JJ'
p2928
sg36
g2915
sg37
I00
sba(issf_api
Word
p2929
(dp2930
g6
I00
sg7
V\u0939\u0940
p2931
sg9
(issf_api
FeatureSet
p2932
(dp2933
g12
(dp2934
S'posn'
p2935
S'20'
p2936
sS'name'
p2937
S'\xe0\xa4\xb9\xe0\xa5\x80'
p2938
sS'drel'
p2939
S'lwg__rp:NP'
p2940
sS'chunktype'
p2941
S'child:NP'
p2942
sS'af'
p2943
S'\xe0\xa4\xb9\xe0\xa5\x80,avy,,,,,,'
p2944
ssbsg26
I00
sg27
I00
sg28
Nsg29
Nsg30
I0
sg31
I5
sg32
Nsg33
Nsg34
S'RP'
p2945
sg36
g2932
sg37
I00
sba(issf_api
Word
p2946
(dp2947
g6
I00
sg7
V\u0938\u093e\u0932
p2948
sg9
(issf_api
FeatureSet
p2949
(dp2950
g12
(dp2951
S'posn'
p2952
S'30'
p2953
sS'name'
p2954
S'\xe0\xa4\xb8\xe0\xa4\xbe\xe0\xa4\xb2'
p2955
sS'af'
p2956
S'\xe0\xa4\xb8\xe0\xa4\xbe\xe0\xa4\xb2,n,m,sg,3,o,0,0'
p2957
sS'chunkid'
p2958
S'NP'
p2959
sS'drel'
p2960
S'k7t:VGF'
p2961
sS'chunktype'
p2962
S'head:NP'
p2963
ssbsg26
I00
sg27
I00
sg28
Nsg29
Nsg30
I0
sg31
I5
sg32
Nsg33
Nsg34
S'NN'
p2964
sg36
g2949
sg37
I00
sba(issf_api
Word
p2965
(dp2966
g6
I00
sg7
V\u0909\u0928\u094d\u0939\u0947\u0902
p2967
sg9
(issf_api
FeatureSet
p2968
(dp2969
g12
(dp2970
S'crefhead'
p2971
S'\xe0\xa4\x89\xe0\xa4\xa8\xe0\xa5\x8d\xe0\xa4\xb9\xe0\xa5\x87\xe0\xa4\x82:i33'
p2972
sS'posn'
p2973
S'40'
p2974
sS'name'
p2975
S'\xe0\xa4\x89\xe0\xa4\xa8\xe0\xa5\x8d\xe0\xa4\xb9\xe0\xa5\x87\xe0\xa4\x82'
p2976
sS'af'
p2977
S'\xe0\xa4\xb5\xe0\xa4\xb9,pn,any,sg,3h,o,\xe0\xa4\x95\xe0\xa5\x8b,ko'
p2978
sS'chunkid'
p2979
S'NP2'
p2980
sS'creftype'
p2981
S'Anaphora-C:i32'
p2982
sS'chunktype'
p2983
S'head:NP2'
p2984
sS'cref'
p2985
S'i33%1:t2'
p2986
sS'drel'
p2987
S'k4a:VGF'
p2988
ssbsg26
I00
sg27
I00
sg28
Nsg29
Nsg30
I1
sg31
I5
sg32
Nsg33
Nsg34
S'PRP'
p2989
sg36
g2968
sg37
I00
sba(issf_api
Word
p2990
(dp2991
g6
I00
sg7
V\u0926\u094b\u0939\u0930\u093e
p2992
sg9
(issf_api
FeatureSet
p2993
(dp2994
g12
(dp2995
S'posn'
p2996
S'50'
p2997
sS'name'
p2998
S'\xe0\xa4\xa6\xe0\xa5\x8b\xe0\xa4\xb9\xe0\xa4\xb0\xe0\xa4\xbe'
p2999
sS'drel'
p3000
S'nmod__adj:NP3'
p3001
sS'chunktype'
p3002
S'child:NP3'
p3003
sS'af'
p3004
S'\xe0\xa4\xa6\xe0\xa5\x8b\xe0\xa4\xb9\xe0\xa4\xb0\xe0\xa4\xbe,adj,m,sg,,d,,'
p3005
ssbsg26
I00
sg27
I00
sg28
Nsg29
Nsg30
I2
sg31
I5
sg32
Nsg33
Nsg34
S'JJ'
p3006
sg36
g2993
sg37
I00
sba(issf_api
Word
p3007
(dp3008
g6
I00
sg7
V\u091d\u091f\u0915\u093e
p3009
sg9
(issf_api
FeatureSet
p3010
(dp3011
g12
(dp3012
S'posn'
p3013
S'60'
p3014
sS'name'
p3015
S'\xe0\xa4\x9d\xe0\xa4\x9f\xe0\xa4\x95\xe0\xa4\xbe'
p3016
sS'af'
p3017
S'\xe0\xa4\x9d\xe0\xa4\x9f\xe0\xa4\x95\xe0\xa4\xbe,n,m,sg,3,d,0,0'
p3018
sS'chunkid'
p3019
S'NP3'
p3020
sS'drel'
p3021
S'k1:VGF'
p3022
sS'chunktype'
p3023
S'head:NP3'
p3024
ssbsg26
I00
sg27
I00
sg28
Nsg29
Nsg30
I2
sg31
I5
sg32
Nsg33
Nsg34
S'NN'
p3025
sg36
g3010
sg37
I00
sba(issf_api
Word
p3026
(dp3027
g6
I00
sg7
V\u0932\u0917\u093e
p3028
sg9
(issf_api
FeatureSet
p3029
(dp3030
g12
(dp3031
S'posn'
p3032
S'70'
p3033
sS'name'
p3034
S'\xe0\xa4\xb2\xe0\xa4\x97\xe0\xa4\xbe'
p3035
sS'af'
p3036
S'\xe0\xa4\xb2\xe0\xa4\x97,v,m,sg,any,,\xe0\xa4\xaf\xe0\xa4\xbe,yA'
p3037
sS'chunkid'
p3038
S'VGF'
p3039
sS'chunktype'
p3040
S'head:VGF'
p3041
sS'voicetype'
p3042
S'active'
p3043
sS'stype'
p3044
S'declarative'
p3045
ssbsg26
I00
sg27
I00
sg28
Nsg29
Nsg30
I3
sg31
I5
sg32
Nsg33
Nsg34
S'VM'
p3046
sg36
g3029
sg37
I00
sba(issf_api
Word
p3047
(dp3048
g6
I00
sg7
V,
p3049
sg9
(issf_api
FeatureSet
p3050
(dp3051
g12
(dp3052
S'posn'
p3053
S'80'
p3054
sS'name'
p3055
g647
sS'drel'
p3056
S'rsym:VGF'
p3057
sS'chunktype'
p3058
S'child:VGF'
p3059
sS'af'
p3060
S'COMMA,punc,,,,,,'
p3061
ssbsg26
I00
sg27
I00
sg28
Nsg29
Nsg30
I3
sg31
I5
sg32
Nsg33
Nsg34
S'SYM'
p3062
sg36
g3050
sg37
I00
sba(issf_api
Word
p3063
(dp3064
g6
I00
sg7
V\u091c\u092c
p3065
sg9
(issf_api
FeatureSet
p3066
(dp3067
g12
(dp3068
S'crefhead'
p3069
S'\xe0\xa4\x9c\xe0\xa4\xac:i34'
p3070
sS'posn'
p3071
S'90'
p3072
sS'name'
p3073
S'\xe0\xa4\x9c\xe0\xa4\xac'
p3074
sS'af'
p3075
S'\xe0\xa4\x9c\xe0\xa4\xac,pn,,,,d,,'
p3076
sS'coref'
p3077
S'\xe0\xa4\xb8\xe0\xa4\xbe\xe0\xa4\xb2'
p3078
sS'chunkid'
p3079
S'NP4'
p3080
sS'chunktype'
p3081
S'head:NP4'
p3082
sS'cref'
p3083
S'i34%1:t11'
p3084
sS'drel'
p3085
S'k7t:VGF2'
p3086
ssbsg26
I00
sg27
I00
sg28
Nsg29
Nsg30
I4
sg31
I5
sg32
Nsg33
Nsg34
S'PRP'
p3087
sg36
g3066
sg37
I00
sba(issf_api
Word
p3088
(dp3089
g6
I00
sg7
V\u0938\u0925\u0928\u0941\u0930
p3090
sg9
(issf_api
FeatureSet
p3091
(dp3092
g12
(dp3093
S'posn'
p3094
S'100'
p3095
sS'name'
p3096
S'\xe0\xa4\xb8\xe0\xa4\xa5\xe0\xa4\xa8\xe0\xa5\x81\xe0\xa4\xb0'
p3097
sS'af'
p3098
S'\xe0\xa4\xb8\xe0\xa4\xa5\xe0\xa4\xa8\xe0\xa5\x81\xe0\xa4\xb0,n,m,sg,3,d,0,0'
p3099
sS'drel'
p3100
S'nmod__adj:NP5'
p3101
sS'chunktype'
p3102
S'child:NP5'
p3103
sS'cref'
p3104
S'i35%0:t11'
p3105
ssbsg26
I00
sg27
I00
sg28
Nsg29
Nsg30
I5
sg31
I5
sg32
Nsg33
Nsg34
S'NNP'
p3106
sg36
g3091
sg37
I00
sba(issf_api
Word
p3107
(dp3108
g6
I00
sg7
V\u0935\u093f\u0927\u093e\u0928\u0938\u092d\u093e
p3109
sg9
(issf_api
FeatureSet
p3110
(dp3111
g12
(dp3112
S'posn'
p3113
S'110'
p3114
sS'name'
p3115
S'\xe0\xa4\xb5\xe0\xa4\xbf\xe0\xa4\xa7\xe0\xa4\xbe\xe0\xa4\xa8\xe0\xa4\xb8\xe0\xa4\xad\xe0\xa4\xbe'
p3116
sS'af'
p3117
S'\xe0\xa4\xb5\xe0\xa4\xbf\xe0\xa4\xa7\xe0\xa4\xbe\xe0\xa4\xa8\xe0\xa4\xb8\xe0\xa4\xad\xe0\xa4\xbe,n,f,sg,3,o,0,0'
p3118
sS'chunkid'
p3119
S'NP5'
p3120
sS'drel'
p3121
S'ccof:CCP'
p3122
sS'chunktype'
p3123
S'head:NP5'
p3124
sS'cref'
p3125
S'i35%0:t11'
p3126
ssbsg26
I00
sg27
I00
sg28
Nsg29
Nsg30
I5
sg31
I5
sg32
Nsg33
Nsg34
S'NN'
p3127
sg36
g3110
sg37
I00
sba(issf_api
Word
p3128
(dp3129
g6
I00
sg7
V\u0914\u0930
p3130
sg9
(issf_api
FeatureSet
p3131
(dp3132
g12
(dp3133
S'posn'
p3134
S'120'
p3135
sS'name'
p3136
S'\xe0\xa4\x94\xe0\xa4\xb0'
p3137
sS'af'
p3138
S'\xe0\xa4\x94\xe0\xa4\xb0,avy,,,,,,'
p3139
sS'chunkid'
p3140
S'CCP'
p3141
sS'drel'
p3142
S'k7p:VGF2'
p3143
sS'chunktype'
p3144
S'head:CCP'
p3145
sS'cref'
p3146
S'i35%0:t11'
p3147
ssbsg26
I00
sg27
I00
sg28
Nsg29
Nsg30
I6
sg31
I5
sg32
Nsg33
Nsg34
S'CC'
p3148
sg36
g3131
sg37
I00
sba(issf_api
Word
p3149
(dp3150
g6
I00
sg7
V\u0915\u0928\u0915\u092a\u0941\u0930\u093e
p3151
sg9
(issf_api
FeatureSet
p3152
(dp3153
g12
(dp3154
S'crefhead'
p3155
S'\xe0\xa4\x95\xe0\xa4\xa8\xe0\xa4\x95\xe0\xa4\xaa\xe0\xa5\x81\xe0\xa4\xb0\xe0\xa4\xbe:i36'
p3156
sS'posn'
p3157
S'130'
p3158
sS'name'
p3159
S'\xe0\xa4\x95\xe0\xa4\xa8\xe0\xa4\x95\xe0\xa4\xaa\xe0\xa5\x81\xe0\xa4\xb0\xe0\xa4\xbe'
p3160
sS'af'
p3161
S'\xe0\xa4\x95\xe0\xa4\xa8\xe0\xa4\x95\xe0\xa4\xaa\xe0\xa5\x81\xe0\xa4\xb0\xe0\xa4\xbe,n,m,sg,3,d,0,0'
p3162
sS'creftype'
p3163
S'Coreference-Identity:i26'
p3164
sS'drel'
p3165
S'nmod__adj:NP6'
p3166
sS'chunktype'
p3167
S'child:NP6'
p3168
sS'cref'
p3169
S'i36%1:t10,i35%0:t11'
p3170
ssbsg26
I00
sg27
I00
sg28
Nsg29
Nsg30
I7
sg31
I5
sg32
Nsg33
Nsg34
S'NNP'
p3171
sg36
g3152
sg37
I00
sba(issf_api
Word
p3172
(dp3173
g6
I00
sg7
V\u0938\u0902\u0938\u0926\u0940\u092f
p3174
sg9
(issf_api
FeatureSet
p3175
(dp3176
g12
(dp3177
S'posn'
p3178
S'140'
p3179
sS'name'
p3180
S'\xe0\xa4\xb8\xe0\xa4\x82\xe0\xa4\xb8\xe0\xa4\xa6\xe0\xa5\x80\xe0\xa4\xaf'
p3181
sS'af'
p3182
S'\xe0\xa4\xb8\xe0\xa4\x82\xe0\xa4\xb8\xe0\xa4\xa6\xe0\xa5\x80\xe0\xa4\xaf,adj,any,any,,o,,'
p3183
sS'drel'
p3184
S'pof__cn:NP6'
p3185
sS'chunktype'
p3186
S'child:NP6'
p3187
sS'cref'
p3188
S'i35%0:t11'
p3189
ssbsg26
I00
sg27
I00
sg28
Nsg29
Nsg30
I7
sg31
I5
sg32
Nsg33
Nsg34
S'NNC'
p3190
sg36
g3175
sg37
I00
sba(issf_api
Word
p3191
(dp3192
g6
I00
sg7
V\u0915\u094d\u0937\u0947\u0924\u094d\u0930\u094b\u0902
p3193
sg9
(issf_api
FeatureSet
p3194
(dp3195
g12
(dp3196
S'posn'
p3197
S'150'
p3198
sS'name'
p3199
S'\xe0\xa4\x95\xe0\xa5\x8d\xe0\xa4\xb7\xe0\xa5\x87\xe0\xa4\xa4\xe0\xa5\x8d\xe0\xa4\xb0\xe0\xa5\x8b\xe0\xa4\x82'
p3200
sS'af'
p3201
S'\xe0\xa4\x95\xe0\xa5\x8d\xe0\xa4\xb7\xe0\xa5\x87\xe0\xa4\xa4\xe0\xa5\x8d\xe0\xa4\xb0,n,m,pl,3,o,0_\xe0\xa4\xae\xe0\xa5\x87\xe0\xa4\x82,0'
p3202
sS'chunkid'
p3203
S'NP6'
p3204
sS'drel'
p3205
S'ccof:CCP'
p3206
sS'chunktype'
p3207
S'head:NP6'
p3208
sS'vpos'
p3209
S'vib_vib_4'
p3210
sS'cref'
p3211
S'i35%0:t11'
p3212
ssbsg26
I00
sg27
I00
sg28
Nsg29
Nsg30
I7
sg31
I5
sg32
Nsg33
Nsg34
S'NN'
p3213
sg36
g3194
sg37
I00
sba(issf_api
Word
p3214
(dp3215
g6
I00
sg7
V\u092e\u0947\u0902
p3216
sg9
(issf_api
FeatureSet
p3217
(dp3218
g12
(dp3219
S'posn'
p3220
S'160'
p3221
sS'name'
p3222
S'\xe0\xa4\xae\xe0\xa5\x87\xe0\xa4\x82'
p3223
sS'af'
p3224
S'\xe0\xa4\xae\xe0\xa5\x87\xe0\xa4\x82,psp,,,,,,'
p3225
sS'drel'
p3226
S'lwg__psp:NP6'
p3227
sS'chunktype'
p3228
S'child:NP6'
p3229
sS'cref'
p3230
S'i35%0:t11'
p3231
ssbsg26
I00
sg27
I00
sg28
Nsg29
Nsg30
I7
sg31
I5
sg32
Nsg33
Nsg34
S'PSP'
p3232
sg36
g3217
sg37
I00
sba(issf_api
Word
p3233
(dp3234
g6
I00
sg7
V\u092e\u0924\u0926\u093e\u0924\u093e\u0913\u0902
p3235
sg9
(issf_api
FeatureSet
p3236
(dp3237
g12
(dp3238
S'posn'
p3239
S'170'
p3240
sS'name'
p3241
S'\xe0\xa4\xae\xe0\xa4\xa4\xe0\xa4\xa6\xe0\xa4\xbe\xe0\xa4\xa4\xe0\xa4\xbe\xe0\xa4\x93\xe0\xa4\x82'
p3242
sS'af'
p3243
S'\xe0\xa4\xae\xe0\xa4\xa4\xe0\xa4\xa6\xe0\xa4\xbe\xe0\xa4\xa4\xe0\xa4\xbe,n,m,pl,3,o,0_\xe0\xa4\xa8\xe0\xa5\x87,0'
p3244
sS'chunkid'
p3245
S'NP7'
p3246
sS'drel'
p3247
S'k1:VGF2'
p3248
sS'chunktype'
p3249
S'head:NP7'
p3250
sS'vpos'
p3251
S'vib_2'
p3252
sS'cref'
p3253
S'i35%0:t11'
p3254
ssbsg26
I00
sg27
I00
sg28
Nsg29
Nsg30
I8
sg31
I5
sg32
Nsg33
Nsg34
S'NN'
p3255
sg36
g3236
sg37
I00
sba(issf_api
Word
p3256
(dp3257
g6
I00
sg7
V\u0928\u0947
p3258
sg9
(issf_api
FeatureSet
p3259
(dp3260
g12
(dp3261
S'posn'
p3262
S'180'
p3263
sS'name'
p3264
S'\xe0\xa4\xa8\xe0\xa5\x87'
p3265
sS'af'
p3266
S'\xe0\xa4\xa8\xe0\xa5\x87,psp,,,,,,'
p3267
sS'drel'
p3268
S'lwg__psp:NP7'
p3269
sS'chunktype'
p3270
S'child:NP7'
p3271
sS'cref'
p3272
S'i35%0:t11'
p3273
ssbsg26
I00
sg27
I00
sg28
Nsg29
Nsg30
I8
sg31
I5
sg32
Nsg33
Nsg34
S'PSP'
p3274
sg36
g3259
sg37
I00
sba(issf_api
Word
p3275
(dp3276
g6
I00
sg7
V\u0909\u0928\u094d\u0939\u0947\u0902
p3277
sg9
(issf_api
FeatureSet
p3278
(dp3279
g12
(dp3280
S'crefhead'
p3281
S'\xe0\xa4\x89\xe0\xa4\xa8\xe0\xa5\x8d\xe0\xa4\xb9\xe0\xa5\x87\xe0\xa4\x82:i37'
p3282
sS'posn'
p3283
S'190'
p3284
sS'name'
p3285
S'\xe0\xa4\x89\xe0\xa4\xa8\xe0\xa5\x8d\xe0\xa4\xb9\xe0\xa5\x87\xe0\xa4\x822'
p3286
sS'af'
p3287
S'\xe0\xa4\xb5\xe0\xa4\xb9,pn,any,sg,3h,o,\xe0\xa4\x95\xe0\xa5\x8b,ko'
p3288
sS'chunkid'
p3289
S'NP8'
p3290
sS'creftype'
p3291
S'Anaphora-C:i33'
p3292
sS'chunktype'
p3293
S'head:NP8'
p3294
sS'cref'
p3295
S'i37%1:t2,i35%0:t11'
p3296
sS'drel'
p3297
S'k2:VGF2'
p3298
ssbsg26
I00
sg27
I00
sg28
Nsg29
Nsg30
I9
sg31
I5
sg32
Nsg33
Nsg34
S'PRP'
p3299
sg36
g3278
sg37
I00
sba(issf_api
Word
p3300
(dp3301
g6
I00
sg7
V\u0909\u0916\u093e\u0921\u093c
p3302
sg9
(issf_api
FeatureSet
p3303
(dp3304
g12
(dp3305
S'crefhead'
p3306
S'\xe0\xa4\x89\xe0\xa4\x96\xe0\xa4\xbe\xe0\xa4\xa1\xe0\xa4\xbc:i35'
p3307
sS'posn'
p3308
S'200'
p3309
sS'name'
p3310
S'\xe0\xa4\x89\xe0\xa4\x96\xe0\xa4\xbe\xe0\xa4\xa1\xe0\xa4\xbc'
p3311
sS'af'
p3312
S'\xe0\xa4\x89\xe0\xa4\x96\xe0\xa4\xbe\xe0\xa4\xa1,v,any,sg,any,,0_\xe0\xa4\xab\xe0\xa5\x87\xe0\xa4\x82\xe0\xa4\x95+\xe0\xa4\xaf\xe0\xa4\xbe,0'
p3313
sS'chunkid'
p3314
S'VGF2'
p3315
sS'stype'
p3316
S'declarative'
p3317
sS'creftype'
p3318
S'Anaphora-RT:i34'
p3319
sS'chunktype'
p3320
S'head:VGF2'
p3321
sS'crefchainhead'
p3322
S'i35:t11'
p3323
sS'voicetype'
p3324
S'active'
p3325
sS'vpos'
p3326
S'tam_2'
p3327
sS'cref'
p3328
S'i35%0:t11'
p3329
sS'drel'
p3330
S'nmod__relc:NP'
p3331
ssbsg26
I00
sg27
I00
sg28
Nsg29
Nsg30
I10
sg31
I5
sg32
Nsg33
Nsg34
S'VM'
p3332
sg36
g3303
sg37
I00
sba(issf_api
Word
p3333
(dp3334
g6
I00
sg7
V\u092b\u0947\u0902\u0915\u093e
p3335
sg9
(issf_api
FeatureSet
p3336
(dp3337
g12
(dp3338
S'posn'
p3339
S'210'
p3340
sS'name'
p3341
S'\xe0\xa4\xab\xe0\xa5\x87\xe0\xa4\x82\xe0\xa4\x95\xe0\xa4\xbe'
p3342
sS'af'
p3343
S'\xe0\xa4\xab\xe0\xa5\x87\xe0\xa4\x82\xe0\xa4\x95,v,m,sg,any,,\xe0\xa4\xaf\xe0\xa4\xbe,yA'
p3344
sS'drel'
p3345
S'lwg__vaux:VGF2'
p3346
sS'chunktype'
p3347
S'child:VGF2'
p3348
sS'cref'
p3349
S'i35%1:t11'
p3350
ssbsg26
I00
sg27
I00
sg28
Nsg29
Nsg30
I10
sg31
I5
sg32
Nsg33
Nsg34
S'VAUX'
p3351
sg36
g3336
sg37
I00
sba(issf_api
Word
p3352
(dp3353
g6
I00
sg7
V\u0964
p3354
sg9
(issf_api
FeatureSet
p3355
(dp3356
g12
(dp3357
S'posn'
p3358
S'220'
p3359
sS'name'
p3360
S'\xe0\xa5\xa4'
p3361
sS'af'
p3362
S'\xe0\xa5\xa4,punc,,,,,,'
p3363
sS'chunkid'
p3364
S'BLK'
p3365
sS'drel'
p3366
S'rsym:VGF'
p3367
sS'chunktype'
p3368
S'head:BLK'
p3369
ssbsg26
I00
sg27
I00
sg28
Nsg29
Nsg30
I11
sg31
I5
sg32
Nsg33
Nsg34
S'SYM'
p3370
sg36
g3355
sg37
I00
sba(issf_api
Word
p3371
(dp3372
g6
I00
sg7
V\u0907\u0938
p3373
sg9
(issf_api
FeatureSet
p3374
(dp3375
g12
(dp3376
S'posn'
p3377
S'10'
p3378
sS'name'
p3379
S'\xe0\xa4\x87\xe0\xa4\xb8'
p3380
sS'af'
p3381
S'\xe0\xa4\xaf\xe0\xa4\xb9,pn,any,sg,3,o,,'
p3382
sS'drel'
p3383
S'nmod__adj:NP'
p3384
sS'chunktype'
p3385
S'child:NP'
p3386
sS'cref'
p3387
S'i38%0:t8'
p3388
ssbsg26
I00
sg27
I00
sg28
Nsg29
Nsg30
I0
sg31
I6
sg32
Nsg33
Nsg34
S'DEM'
p3389
sg36
g3374
sg37
I00
sba(issf_api
Word
p3390
(dp3391
g6
I00
sg7
V\u091a\u0941\u0928\u093e\u0935
p3392
sg9
(issf_api
FeatureSet
p3393
(dp3394
g12
(dp3395
S'crefhead'
p3396
S'\xe0\xa4\x9a\xe0\xa5\x81\xe0\xa4\xa8\xe0\xa4\xbe\xe0\xa4\xb5:i38'
p3397
sS'posn'
p3398
S'20'
p3399
sS'name'
p3400
S'\xe0\xa4\x9a\xe0\xa5\x81\xe0\xa4\xa8\xe0\xa4\xbe\xe0\xa4\xb5'
p3401
sS'af'
p3402
S'\xe0\xa4\x9a\xe0\xa5\x81\xe0\xa4\xa8\xe0\xa4\xbe\xe0\xa4\xb5,n,m,sg,3,o,0_\xe0\xa4\xae\xe0\xa5\x87\xe0\xa4\x82,0'
p3403
sS'chunkid'
p3404
S'NP'
p3405
sS'creftype'
p3406
S'Coreference-PartOf-WMain:i29'
p3407
sS'chunktype'
p3408
S'head:NP'
p3409
sS'vpos'
p3410
S'vib_3'
p3411
sS'cref'
p3412
S'i38%1:t8'
p3413
sS'drel'
p3414
S'k7:VGF'
p3415
ssbsg26
I00
sg27
I00
sg28
Nsg29
Nsg30
I0
sg31
I6
sg32
Nsg33
Nsg34
S'NN'
p3416
sg36
g3393
sg37
I00
sba(issf_api
Word
p3417
(dp3418
g6
I00
sg7
V\u092e\u0947\u0902
p3419
sg9
(issf_api
FeatureSet
p3420
(dp3421
g12
(dp3422
S'posn'
p3423
S'30'
p3424
sS'name'
p3425
S'\xe0\xa4\xae\xe0\xa5\x87\xe0\xa4\x82'
p3426
sS'drel'
p3427
S'lwg__psp:NP'
p3428
sS'chunktype'
p3429
S'child:NP'
p3430
sS'af'
p3431
S'\xe0\xa4\xae\xe0\xa5\x87\xe0\xa4\x82,psp,,,,,,'
p3432
ssbsg26
I00
sg27
I00
sg28
Nsg29
Nsg30
I0
sg31
I6
sg32
Nsg33
Nsg34
S'PSP'
p3433
sg36
g3420
sg37
I00
sba(issf_api
Word
p3434
(dp3435
g6
I00
sg7
V\u0926\u0947\u0935\u0917\u094c\u0921\u093c\u093e
p3436
sg9
(issf_api
FeatureSet
p3437
(dp3438
g12
(dp3439
S'crefhead'
p3440
S'\xe0\xa4\xa6\xe0\xa5\x87\xe0\xa4\xb5\xe0\xa4\x97\xe0\xa5\x8c\xe0\xa4\xa1\xe0\xa4\xbc\xe0\xa4\xbe:i39'
p3441
sS'posn'
p3442
S'40'
p3443
sS'name'
p3444
S'\xe0\xa4\xa6\xe0\xa5\x87\xe0\xa4\xb5\xe0\xa4\x97\xe0\xa5\x8c\xe0\xa4\xa1\xe0\xa4\xbc\xe0\xa4\xbe'
p3445
sS'af'
p3446
S'\xe0\xa4\xa6\xe0\xa5\x87\xe0\xa4\xb5\xe0\xa4\x97\xe0\xa5\x8c\xe0\xa4\xa1\xe0\xa4\xbc\xe0\xa4\xbe,n,m,sg,3,d,0,0'
p3447
sS'chunkid'
p3448
S'NP2'
p3449
sS'creftype'
p3450
S'Coreference-Identity:i24'
p3451
sS'chunktype'
p3452
S'head:NP2'
p3453
sS'cref'
p3454
S'i39%1:t6'
p3455
sS'drel'
p3456
S'k1:VGF'
p3457
ssbsg26
I00
sg27
I00
sg28
Nsg29
Nsg30
I1
sg31
I6
sg32
Nsg33
Nsg34
S'NNP'
p3458
sg36
g3437
sg37
I00
sba(issf_api
Word
p3459
(dp3460
g6
I00
sg7
V\u0905\u092a\u0928\u0947
p3461
sg9
(issf_api
FeatureSet
p3462
(dp3463
g12
(dp3464
S'crefhead'
p3465
S'\xe0\xa4\x85\xe0\xa4\xaa\xe0\xa4\xa8\xe0\xa5\x87:i40'
p3466
sS'posn'
p3467
S'50'
p3468
sS'name'
p3469
S'\xe0\xa4\x85\xe0\xa4\xaa\xe0\xa4\xa8\xe0\xa5\x87'
p3470
sS'af'
p3471
S'\xe0\xa4\x85\xe0\xa4\xaa\xe0\xa4\xa8\xe0\xa4\xbe,pn,m,any,any,o,0,0'
p3472
sS'acrefmodhead'
p3473
S'\xe0\xa4\x85\xe0\xa4\xaa\xe0\xa4\xa8\xe0\xa5\x87:m3'
p3474
sS'chunkid'
p3475
S'NP3'
p3476
sS'acrefmod'
p3477
S'm3%1:i41'
p3478
sS'creftype'
p3479
S'Anaphora-C:i39'
p3480
sS'chunktype'
p3481
S'head:NP3'
p3482
sS'cref'
p3483
S'i40%1:t6'
p3484
sS'drel'
p3485
S'r6:NP4'
p3486
ssbsg26
I00
sg27
I00
sg28
Nsg29
Nsg30
I2
sg31
I6
sg32
Nsg33
Nsg34
S'PRP'
p3487
sg36
g3462
sg37
I00
sba(issf_api
Word
p3488
(dp3489
g6
I00
sg7
V\u0918\u0930\u0947\u0932\u0942
p3490
sg9
(issf_api
FeatureSet
p3491
(dp3492
g12
(dp3493
S'posn'
p3494
S'60'
p3495
sS'name'
p3496
S'\xe0\xa4\x98\xe0\xa4\xb0\xe0\xa5\x87\xe0\xa4\xb2\xe0\xa5\x82'
p3497
sS'af'
p3498
S'\xe0\xa4\x98\xe0\xa4\xb0\xe0\xa5\x87\xe0\xa4\xb2\xe0\xa5\x82,adj,any,any,,o,,'
p3499
sS'drel'
p3500
S'nmod__adj:NP4'
p3501
sS'chunktype'
p3502
S'child:NP4'
p3503
sS'cref'
p3504
S'i41%0:t12'
p3505
ssbsg26
I00
sg27
I00
sg28
Nsg29
Nsg30
I3
sg31
I6
sg32
Nsg33
Nsg34
S'JJ'
p3506
sg36
g3491
sg37
I00
sba(issf_api
Word
p3507
(dp3508
g6
I00
sg7
V\u092e\u0948\u0926\u093e\u0928
p3509
sg9
(issf_api
FeatureSet
p3510
(dp3511
g12
(dp3512
S'crefhead'
p3513
S'\xe0\xa4\xae\xe0\xa5\x88\xe0\xa4\xa6\xe0\xa4\xbe\xe0\xa4\xa8:i41'
p3514
sS'posn'
p3515
S'70'
p3516
sS'name'
p3517
S'\xe0\xa4\xae\xe0\xa5\x88\xe0\xa4\xa6\xe0\xa4\xbe\xe0\xa4\xa8'
p3518
sS'af'
p3519
S'\xe0\xa4\xae\xe0\xa5\x88\xe0\xa4\xa6\xe0\xa4\xbe\xe0\xa4\xa8,n,m,sg,3,o,0,0'
p3520
sS'chunkid'
p3521
S'NP4'
p3522
sS'crefmod'
p3523
S'm3:i41'
p3524
sS'chunktype'
p3525
S'head:NP4'
p3526
sS'cref'
p3527
S'i41%1:t12'
p3528
sS'drel'
p3529
S'nmod:NP5'
p3530
ssbsg26
I00
sg27
I00
sg28
Nsg29
Nsg30
I3
sg31
I6
sg32
Nsg33
Nsg34
S'NN'
p3531
sg36
g3510
sg37
I00
sba(issf_api
Word
p3532
(dp3533
g6
I00
sg7
V\u0939\u093e\u0938\u0928
p3534
sg9
(issf_api
FeatureSet
p3535
(dp3536
g12
(dp3537
S'crefhead'
p3538
S'\xe0\xa4\xb9\xe0\xa4\xbe\xe0\xa4\xb8\xe0\xa4\xa8:i42'
p3539
sS'posn'
p3540
S'80'
p3541
sS'name'
p3542
S'\xe0\xa4\xb9\xe0\xa4\xbe\xe0\xa4\xb8\xe0\xa4\xa8'
p3543
sS'af'
p3544
S'\xe0\xa4\xb9\xe0\xa4\xbe\xe0\xa4\xb8\xe0\xa4\xa8,n,m,sg,3,o,0,0'
p3545
sS'chunkid'
p3546
S'NP5'
p3547
sS'creftype'
p3548
S'Coreference-NounComplement:i41'
p3549
sS'chunktype'
p3550
S'head:NP5'
p3551
sS'crefchainhead'
p3552
S'i42:t12'
p3553
sS'cref'
p3554
S'i42%1:t12'
p3555
sS'drel'
p3556
S'ccof:CCP'
p3557
ssbsg26
I00
sg27
I00
sg28
Nsg29
Nsg30
I4
sg31
I6
sg32
Nsg33
Nsg34
S'NNP'
p3558
sg36
g3535
sg37
I00
sba(issf_api
Word
p3559
(dp3560
g6
I00
sg7
V\u0914\u0930
p3561
sg9
(issf_api
FeatureSet
p3562
(dp3563
g12
(dp3564
S'posn'
p3565
S'90'
p3566
sS'name'
p3567
S'\xe0\xa4\x94\xe0\xa4\xb0'
p3568
sS'af'
p3569
S'\xe0\xa4\x94\xe0\xa4\xb0,avy,,,,,,'
p3570
sS'chunkid'
p3571
S'CCP'
p3572
sS'drel'
p3573
S'k5:VGF'
p3574
sS'chunktype'
p3575
S'head:CCP'
p3576
ssbsg26
I00
sg27
I00
sg28
Nsg29
Nsg30
I5
sg31
I6
sg32
Nsg33
Nsg34
S'CC'
p3577
sg36
g3562
sg37
I00
sba(issf_api
Word
p3578
(dp3579
g6
I00
sg7
V\u0909\u0928\u0915\u0947
p3580
sg9
(issf_api
FeatureSet
p3581
(dp3582
g12
(dp3583
S'crefhead'
p3584
S'\xe0\xa4\x89\xe0\xa4\xa8\xe0\xa4\x95\xe0\xa5\x87:i43'
p3585
sS'posn'
p3586
S'100'
p3587
sS'name'
p3588
S'\xe0\xa4\x89\xe0\xa4\xa8\xe0\xa4\x95\xe0\xa5\x87'
p3589
sS'af'
p3590
S'\xe0\xa4\xb5\xe0\xa4\xb9,pn,m,sg,3h,o,\xe0\xa4\x95\xe0\xa4\xbe,kA'
p3591
sS'acrefmodhead'
p3592
S'\xe0\xa4\x89\xe0\xa4\xa8\xe0\xa4\x95\xe0\xa5\x87:m4'
p3593
sS'chunkid'
p3594
S'NP6'
p3595
sS'acrefmod'
p3596
S'm4%1:i44'
p3597
sS'creftype'
p3598
S'Anaphora-C:i40'
p3599
sS'chunktype'
p3600
S'head:NP6'
p3601
sS'cref'
p3602
S'i43%1:t6'
p3603
sS'drel'
p3604
S'r6:NP7'
p3605
ssbsg26
I00
sg27
I00
sg28
Nsg29
Nsg30
I6
sg31
I6
sg32
Nsg33
Nsg34
S'PRP'
p3606
sg36
g3581
sg37
I00
sba(issf_api
Word
p3607
(dp3608
g6
I00
sg7
V\u092c\u0921\u093c\u0947
p3609
sg9
(issf_api
FeatureSet
p3610
(dp3611
g12
(dp3612
S'posn'
p3613
S'110'
p3614
sS'name'
p3615
S'\xe0\xa4\xac\xe0\xa4\xa1\xe0\xa4\xbc\xe0\xa5\x87'
p3616
sS'af'
p3617
S'\xe0\xa4\xac\xe0\xa4\xa1\xe0\xa4\xbe,adj,m,sg,,d,,'
p3618
sS'drel'
p3619
S'nmod__adj:NP7'
p3620
sS'chunktype'
p3621
S'child:NP7'
p3622
sS'cref'
p3623
S'i44%0:t13'
p3624
ssbsg26
I00
sg27
I00
sg28
Nsg29
Nsg30
I7
sg31
I6
sg32
Nsg33
Nsg34
S'JJ'
p3625
sg36
g3610
sg37
I00
sba(issf_api
Word
p3626
(dp3627
g6
I00
sg7
V\u092a\u0941\u0924\u094d\u0930
p3628
sg9
(issf_api
FeatureSet
p3629
(dp3630
g12
(dp3631
S'crefhead'
p3632
S'\xe0\xa4\xaa\xe0\xa5\x81\xe0\xa4\xa4\xe0\xa5\x8d\xe0\xa4\xb0:i44'
p3633
sS'posn'
p3634
S'120'
p3635
sS'name'
p3636
S'\xe0\xa4\xaa\xe0\xa5\x81\xe0\xa4\xa4\xe0\xa5\x8d\xe0\xa4\xb0'
p3637
sS'af'
p3638
S'\xe0\xa4\xaa\xe0\xa5\x81\xe0\xa4\xa4\xe0\xa5\x8d\xe0\xa4\xb0,n,m,sg,3,d,0,0'
p3639
sS'chunkid'
p3640
S'NP7'
p3641
sS'crefmod'
p3642
S'm4:i44'
p3643
sS'chunktype'
p3644
S'head:NP7'
p3645
sS'cref'
p3646
S'i44%1:t13'
p3647
sS'drel'
p3648
S'nmod:NP8'
p3649
ssbsg26
I00
sg27
I00
sg28
Nsg29
Nsg30
I7
sg31
I6
sg32
Nsg33
Nsg34
S'NN'
p3650
sg36
g3629
sg37
I00
sba(issf_api
Word
p3651
(dp3652
g6
I00
sg7
V\u090f\u091a.
p3653
sg9
(issf_api
FeatureSet
p3654
(dp3655
g12
(dp3656
S'posn'
p3657
S'130'
p3658
sS'name'
p3659
S'\xe0\xa4\x8f\xe0\xa4\x9a.'
p3660
sS'af'
p3661
S'\xe0\xa4\x8f\xe0\xa4\x9a.,n,m,sg,3,d,0,0'
p3662
sS'drel'
p3663
S'pof__cn:NP8'
p3664
sS'chunktype'
p3665
S'child:NP8'
p3666
sS'cref'
p3667
S'i45%0:t13'
p3668
ssbsg26
I00
sg27
I00
sg28
Nsg29
Nsg30
I8
sg31
I6
sg32
Nsg33
Nsg34
S'NNPC'
p3669
sg36
g3654
sg37
I00
sba(issf_api
Word
p3670
(dp3671
g6
I00
sg7
V\u0921\u0940.
p3672
sg9
(issf_api
FeatureSet
p3673
(dp3674
g12
(dp3675
S'posn'
p3676
S'140'
p3677
sS'name'
p3678
S'\xe0\xa4\xa1\xe0\xa5\x80.'
p3679
sS'af'
p3680
S'\xe0\xa4\xa1\xe0\xa5\x80.,n,m,sg,3,d,0,0'
p3681
sS'drel'
p3682
S'pof__cn:NP8'
p3683
sS'chunktype'
p3684
S'child:NP8'
p3685
sS'cref'
p3686
S'i45%0:t13'
p3687
ssbsg26
I00
sg27
I00
sg28
Nsg29
Nsg30
I8
sg31
I6
sg32
Nsg33
Nsg34
S'NNPC'
p3688
sg36
g3673
sg37
I00
sba(issf_api
Word
p3689
(dp3690
g6
I00
sg7
V\u0930\u0935\u0928\u094d\u0928\u093e
p3691
sg9
(issf_api
FeatureSet
p3692
(dp3693
g12
(dp3694
S'crefhead'
p3695
S'\xe0\xa4\xb0\xe0\xa4\xb5\xe0\xa4\xa8\xe0\xa5\x8d\xe0\xa4\xa8\xe0\xa4\xbe:i45'
p3696
sS'posn'
p3697
S'150'
p3698
sS'name'
p3699
S'\xe0\xa4\xb0\xe0\xa4\xb5\xe0\xa4\xa8\xe0\xa5\x8d\xe0\xa4\xa8\xe0\xa4\xbe'
p3700
sS'af'
p3701
S'\xe0\xa4\xb0\xe0\xa4\xb5\xe0\xa4\xa8\xe0\xa5\x8d\xe0\xa4\xa8\xe0\xa4\xbe,n,m,sg,3,d,0,0'
p3702
sS'chunkid'
p3703
S'NP8'
p3704
sS'creftype'
p3705
S'Coreference-NounComplement:i44'
p3706
sS'chunktype'
p3707
S'head:NP8'
p3708
sS'crefchainhead'
p3709
S'i45:t13'
p3710
sS'cref'
p3711
S'i45%1:t13'
p3712
sS'drel'
p3713
S'nmod:NP9'
p3714
ssbsg26
I00
sg27
I00
sg28
Nsg29
Nsg30
I8
sg31
I6
sg32
Nsg33
Nsg34
S'NNP'
p3715
sg36
g3692
sg37
I00
sba(issf_api
Word
p3716
(dp3717
g6
I00
sg7
V\u092a\u0930\u093f\u0935\u093e\u0930
p3718
sg9
(issf_api
FeatureSet
p3719
(dp3720
g12
(dp3721
S'posn'
p3722
S'160'
p3723
sS'name'
p3724
S'\xe0\xa4\xaa\xe0\xa4\xb0\xe0\xa4\xbf\xe0\xa4\xb5\xe0\xa4\xbe\xe0\xa4\xb0'
p3725
sS'af'
p3726
S'\xe0\xa4\xaa\xe0\xa4\xb0\xe0\xa4\xbf\xe0\xa4\xb5\xe0\xa4\xbe\xe0\xa4\xb0,n,m,sg,3,o,0_\xe0\xa4\x95\xe0\xa4\xbe,0'
p3727
sS'acrefmodhead'
p3728
S'\xe0\xa4\xaa\xe0\xa4\xb0\xe0\xa4\xbf\xe0\xa4\xb5\xe0\xa4\xbe\xe0\xa4\xb0:m5'
p3729
sS'chunkid'
p3730
S'NP9'
p3731
sS'acrefmod'
p3732
S'm5%1:i46'
p3733
sS'drel'
p3734
S'r6:NP10'
p3735
sS'vpos'
p3736
S'vib_2'
p3737
sS'chunktype'
p3738
S'head:NP9'
p3739
ssbsg26
I00
sg27
I00
sg28
Nsg29
Nsg30
I9
sg31
I6
sg32
Nsg33
Nsg34
S'NN'
p3740
sg36
g3719
sg37
I00
sba(issf_api
Word
p3741
(dp3742
g6
I00
sg7
V\u0915\u0940
p3743
sg9
(issf_api
FeatureSet
p3744
(dp3745
g12
(dp3746
S'posn'
p3747
S'170'
p3748
sS'name'
p3749
S'\xe0\xa4\x95\xe0\xa5\x80'
p3750
sS'drel'
p3751
S'lwg__psp:NP9'
p3752
sS'chunktype'
p3753
S'child:NP9'
p3754
sS'af'
p3755
S'\xe0\xa4\x95\xe0\xa4\xbe,psp,f,sg,,o,,'
p3756
ssbsg26
I00
sg27
I00
sg28
Nsg29
Nsg30
I9
sg31
I6
sg32
Nsg33
Nsg34
S'PSP'
p3757
sg36
g3744
sg37
I00
sba(issf_api
Word
p3758
(dp3759
g6
I00
sg7
V\u092a\u0930\u0902\u092a\u0930\u093e\u0917\u0924
p3760
sg9
(issf_api
FeatureSet
p3761
(dp3762
g12
(dp3763
S'posn'
p3764
S'180'
p3765
sS'name'
p3766
S'\xe0\xa4\xaa\xe0\xa4\xb0\xe0\xa4\x82\xe0\xa4\xaa\xe0\xa4\xb0\xe0\xa4\xbe\xe0\xa4\x97\xe0\xa4\xa4'
p3767
sS'af'
p3768
S'\xe0\xa4\xaa\xe0\xa4\xb0\xe0\xa4\x82\xe0\xa4\xaa\xe0\xa4\xb0\xe0\xa4\xbe\xe0\xa4\x97\xe0\xa4\xa4,adj,any,any,,o,,'
p3769
sS'drel'
p3770
S'nmod__adj:NP10'
p3771
sS'chunktype'
p3772
S'child:NP10'
p3773
sS'cref'
p3774
S'i46%0:t14'
p3775
ssbsg26
I00
sg27
I00
sg28
Nsg29
Nsg30
I10
sg31
I6
sg32
Nsg33
Nsg34
S'JJ'
p3776
sg36
g3761
sg37
I00
sba(issf_api
Word
p3777
(dp3778
g6
I00
sg7
V\u0938\u0940\u091f
p3779
sg9
(issf_api
FeatureSet
p3780
(dp3781
g12
(dp3782
S'crefhead'
p3783
S'\xe0\xa4\xb8\xe0\xa5\x80\xe0\xa4\x9f:i46'
p3784
sS'posn'
p3785
S'190'
p3786
sS'name'
p3787
S'\xe0\xa4\xb8\xe0\xa5\x80\xe0\xa4\x9f'
p3788
sS'af'
p3789
S'\xe0\xa4\xb8\xe0\xa5\x80\xe0\xa4\x9f,n,f,sg,3,o,0,0'
p3790
sS'chunkid'
p3791
S'NP10'
p3792
sS'crefmod'
p3793
S'm5:i46'
p3794
sS'chunktype'
p3795
S'head:NP10'
p3796
sS'cref'
p3797
S'i46%1:t14'
p3798
sS'drel'
p3799
S'nmod:NP11'
p3800
ssbsg26
I00
sg27
I00
sg28
Nsg29
Nsg30
I10
sg31
I6
sg32
Nsg33
Nsg34
S'NN'
p3801
sg36
g3780
sg37
I00
sba(issf_api
Word
p3802
(dp3803
g6
I00
sg7
V\u0939\u094b\u0932\u0928\u0938\u093f\u0902\u092a\u0941\u0930\u093e
p3804
sg9
(issf_api
FeatureSet
p3805
(dp3806
g12
(dp3807
S'posn'
p3808
S'200'
p3809
sS'name'
p3810
S'\xe0\xa4\xb9\xe0\xa5\x8b\xe0\xa4\xb2\xe0\xa4\xa8\xe0\xa4\xb8\xe0\xa4\xbf\xe0\xa4\x82\xe0\xa4\xaa\xe0\xa5\x81\xe0\xa4\xb0\xe0\xa4\xbe'
p3811
sS'af'
p3812
S'\xe0\xa4\xb9\xe0\xa5\x8b\xe0\xa4\xb2\xe0\xa4\xa8\xe0\xa4\xb8\xe0\xa4\xbf\xe0\xa4\x82\xe0\xa4\xaa\xe0\xa5\x81\xe0\xa4\xb0\xe0\xa4\xbe,n,m,sg,3,d,0,0'
p3813
sS'drel'
p3814
S'nmod__adj:NP11'
p3815
sS'chunktype'
p3816
S'child:NP11'
p3817
sS'cref'
p3818
S'i47%0:t14'
p3819
ssbsg26
I00
sg27
I00
sg28
Nsg29
Nsg30
I11
sg31
I6
sg32
Nsg33
Nsg34
S'NNP'
p3820
sg36
g3805
sg37
I00
sba(issf_api
Word
p3821
(dp3822
g6
I00
sg7
V\u0938\u0940\u091f
p3823
sg9
(issf_api
FeatureSet
p3824
(dp3825
g12
(dp3826
S'crefhead'
p3827
S'\xe0\xa4\xb8\xe0\xa5\x80\xe0\xa4\x9f:i47'
p3828
sS'posn'
p3829
S'210'
p3830
sS'name'
p3831
S'\xe0\xa4\xb8\xe0\xa5\x80\xe0\xa4\x9f2'
p3832
sS'af'
p3833
S'\xe0\xa4\xb8\xe0\xa5\x80\xe0\xa4\x9f,n,f,sg,3,o,0_\xe0\xa4\xb8\xe0\xa5\x87,0'
p3834
sS'chunkid'
p3835
S'NP11'
p3836
sS'creftype'
p3837
S'Coreference-NounComplement:i46'
p3838
sS'chunktype'
p3839
S'head:NP11'
p3840
sS'crefchainhead'
p3841
S'i47:t14'
p3842
sS'vpos'
p3843
S'vib_vib_3'
p3844
sS'cref'
p3845
S'i47%1:t14'
p3846
sS'drel'
p3847
S'ccof:CCP'
p3848
ssbsg26
I00
sg27
I00
sg28
Nsg29
Nsg30
I11
sg31
I6
sg32
Nsg33
Nsg34
S'NN'
p3849
sg36
g3824
sg37
I00
sba(issf_api
Word
p3850
(dp3851
g6
I00
sg7
V\u0938\u0947
p3852
sg9
(issf_api
FeatureSet
p3853
(dp3854
g12
(dp3855
S'posn'
p3856
S'220'
p3857
sS'name'
p3858
S'\xe0\xa4\xb8\xe0\xa5\x87'
p3859
sS'drel'
p3860
S'lwg__psp:NP11'
p3861
sS'chunktype'
p3862
S'child:NP11'
p3863
sS'af'
p3864
S'\xe0\xa4\xb8\xe0\xa5\x87,psp,,,,,,'
p3865
ssbsg26
I00
sg27
I00
sg28
Nsg29
Nsg30
I11
sg31
I6
sg32
Nsg33
Nsg34
S'PSP'
p3866
sg36
g3853
sg37
I00
sba(issf_api
Word
p3867
(dp3868
g6
I00
sg7
V\u0939\u093e\u0930
p3869
sg9
(issf_api
FeatureSet
p3870
(dp3871
g12
(dp3872
S'posn'
p3873
S'230'
p3874
sS'name'
p3875
S'\xe0\xa4\xb9\xe0\xa4\xbe\xe0\xa4\xb0'
p3876
sS'af'
p3877
S'\xe0\xa4\xb9\xe0\xa4\xbe\xe0\xa4\xb0,v,m,sg,3h,,0_\xe0\xa4\x9c\xe0\xa4\xbe+\xe0\xa4\xaf\xe0\xa4\xbe\xe0\xa5\xa7_\xe0\xa4\xa5\xe0\xa4\xbe,0'
p3878
sS'chunkid'
p3879
S'VGF'
p3880
sS'chunktype'
p3881
S'head:VGF'
p3882
sS'voicetype'
p3883
S'active'
p3884
sS'vpos'
p3885
S'tam_2_3'
p3886
sS'stype'
p3887
S'declarative'
p3888
ssbsg26
I00
sg27
I00
sg28
Nsg29
Nsg30
I12
sg31
I6
sg32
Nsg33
Nsg34
S'VM'
p3889
sg36
g3870
sg37
I00
sba(issf_api
Word
p3890
(dp3891
g6
I00
sg7
V\u0917\u090f
p3892
sg9
(issf_api
FeatureSet
p3893
(dp3894
g12
(dp3895
S'posn'
p3896
S'240'
p3897
sS'name'
p3898
S'\xe0\xa4\x97\xe0\xa4\x8f'
p3899
sS'drel'
p3900
S'lwg__vaux:VGF'
p3901
sS'chunktype'
p3902
S'child:VGF'
p3903
sS'af'
p3904
S'\xe0\xa4\x9c\xe0\xa4\xbe,v,m,sg,any,,\xe0\xa4\xaf\xe0\xa4\xbe\xe0\xa5\xa7,yA1'
p3905
ssbsg26
I00
sg27
I00
sg28
Nsg29
Nsg30
I12
sg31
I6
sg32
Nsg33
Nsg34
S'VAUX'
p3906
sg36
g3893
sg37
I00
sba(issf_api
Word
p3907
(dp3908
g6
I00
sg7
V\u0925\u0947
p3909
sg9
(issf_api
FeatureSet
p3910
(dp3911
g12
(dp3912
S'posn'
p3913
S'250'
p3914
sS'name'
p3915
S'\xe0\xa4\xa5\xe0\xa5\x87'
p3916
sS'drel'
p3917
S'lwg__vaux:VGF'
p3918
sS'chunktype'
p3919
S'child:VGF'
p3920
sS'af'
p3921
S'\xe0\xa4\xa5\xe0\xa4\xbe,v,m,sg,3h,,\xe0\xa4\xa5\xe0\xa4\xbe,WA'
p3922
ssbsg26
I00
sg27
I00
sg28
Nsg29
Nsg30
I12
sg31
I6
sg32
Nsg33
Nsg34
S'VAUX'
p3923
sg36
g3910
sg37
I00
sba(issf_api
Word
p3924
(dp3925
g6
I00
sg7
V\u0964
p3926
sg9
(issf_api
FeatureSet
p3927
(dp3928
g12
(dp3929
S'posn'
p3930
S'260'
p3931
sS'name'
p3932
S'\xe0\xa5\xa4'
p3933
sS'af'
p3934
S'\xe0\xa5\xa4,punc,,,,,,'
p3935
sS'chunkid'
p3936
S'BLK'
p3937
sS'drel'
p3938
S'rsym:VGF'
p3939
sS'chunktype'
p3940
S'head:BLK'
p3941
ssbsg26
I00
sg27
I00
sg28
Nsg29
Nsg30
I13
sg31
I6
sg32
Nsg33
Nsg34
S'SYM'
p3942
sg36
g3927
sg37
I00
sba(issf_api
Word
p3943
(dp3944
g6
I00
sg7
V\u091c\u094d\u092f\u094b\u0924\u093f\u0937
p3945
sg9
(issf_api
FeatureSet
p3946
(dp3947
g12
(dp3948
S'posn'
p3949
S'10'
p3950
sS'name'
p3951
S'\xe0\xa4\x9c\xe0\xa5\x8d\xe0\xa4\xaf\xe0\xa5\x8b\xe0\xa4\xa4\xe0\xa4\xbf\xe0\xa4\xb7'
p3952
sS'af'
p3953
S'\xe0\xa4\x9c\xe0\xa5\x8d\xe0\xa4\xaf\xe0\xa5\x8b\xe0\xa4\xa4\xe0\xa4\xbf\xe0\xa4\xb7,n,m,sg,3,o,0_\xe0\xa4\xaa\xe0\xa4\xb0,0'
p3954
sS'chunkid'
p3955
S'NP'
p3956
sS'drel'
p3957
S'k7:VGNN'
p3958
sS'vpos'
p3959
S'vib_2'
p3960
sS'chunktype'
p3961
S'head:NP'
p3962
ssbsg26
I00
sg27
I00
sg28
Nsg29
Nsg30
I0
sg31
I7
sg32
Nsg33
Nsg34
S'NN'
p3963
sg36
g3946
sg37
I00
sba(issf_api
Word
p3964
(dp3965
g6
I00
sg7
V\u092a\u0930
p3966
sg9
(issf_api
FeatureSet
p3967
(dp3968
g12
(dp3969
S'posn'
p3970
S'20'
p3971
sS'name'
p3972
S'\xe0\xa4\xaa\xe0\xa4\xb0'
p3973
sS'drel'
p3974
S'lwg__psp:NP'
p3975
sS'chunktype'
p3976
S'child:NP'
p3977
sS'af'
p3978
S'\xe0\xa4\xaa\xe0\xa4\xb0,psp,,,,,,'
p3979
ssbsg26
I00
sg27
I00
sg28
Nsg29
Nsg30
I0
sg31
I7
sg32
Nsg33
Nsg34
S'PSP'
p3980
sg36
g3967
sg37
I00
sba(issf_api
Word
p3981
(dp3982
g6
I00
sg7
V\u092d\u0930\u094b\u0938\u093e
p3983
sg9
(issf_api
FeatureSet
p3984
(dp3985
g12
(dp3986
S'posn'
p3987
S'30'
p3988
sS'name'
p3989
S'\xe0\xa4\xad\xe0\xa4\xb0\xe0\xa5\x8b\xe0\xa4\xb8\xe0\xa4\xbe'
p3990
sS'af'
p3991
S'\xe0\xa4\xad\xe0\xa4\xb0\xe0\xa5\x8b\xe0\xa4\xb8\xe0\xa4\xbe,n,m,sg,3,d,0,0'
p3992
sS'chunkid'
p3993
S'NP2'
p3994
sS'drel'
p3995
S'pof:VGNN'
p3996
sS'chunktype'
p3997
S'head:NP2'
p3998
ssbsg26
I00
sg27
I00
sg28
Nsg29
Nsg30
I1
sg31
I7
sg32
Nsg33
Nsg34
S'NN'
p3999
sg36
g3984
sg37
I00
sba(issf_api
Word
p4000
(dp4001
g6
I00
sg7
V\u0915\u0930\u0928\u0947
p4002
sg9
(issf_api
FeatureSet
p4003
(dp4004
g12
(dp4005
S'posn'
p4006
S'40'
p4007
sS'name'
p4008
S'\xe0\xa4\x95\xe0\xa4\xb0\xe0\xa4\xa8\xe0\xa5\x87'
p4009
sS'af'
p4010
S'\xe0\xa4\x95\xe0\xa4\xb0,v,any,sg,any,o,\xe0\xa4\xa8\xe0\xa4\xbe_\xe0\xa4\xb5\xe0\xa4\xbe\xe0\xa4\xb2\xe0\xa4\xbe,nA'
p4011
sS'chunkid'
p4012
S'VGNN'
p4013
sS'drel'
p4014
S'nmod:NP3'
p4015
sS'vpos'
p4016
S'tam_2'
p4017
sS'chunktype'
p4018
S'head:VGNN'
p4019
ssbsg26
I00
sg27
I00
sg28
Nsg29
Nsg30
I2
sg31
I7
sg32
Nsg33
Nsg34
S'VM'
p4020
sg36
g4003
sg37
I00
sba(issf_api
Word
p4021
(dp4022
g6
I00
sg7
V\u0935\u093e\u0932\u0947
p4023
sg9
(issf_api
FeatureSet
p4024
(dp4025
g12
(dp4026
S'posn'
p4027
S'50'
p4028
sS'name'
p4029
S'\xe0\xa4\xb5\xe0\xa4\xbe\xe0\xa4\xb2\xe0\xa5\x87'
p4030
sS'drel'
p4031
S'lwg__psp:VGNN'
p4032
sS'chunktype'
p4033
S'child:VGNN'
p4034
sS'af'
p4035
S'\xe0\xa4\xb5\xe0\xa4\xbe\xe0\xa4\xb2\xe0\xa4\xbe,psp,m,sg,,o,,'
p4036
ssbsg26
I00
sg27
I00
sg28
Nsg29
Nsg30
I2
sg31
I7
sg32
Nsg33
Nsg34
S'PSP'
p4037
sg36
g4024
sg37
I00
sba(issf_api
Word
p4038
(dp4039
g6
I00
sg7
V\u0915\u0941\u092e\u093e\u0930\u0938\u094d\u0935\u093e\u092e\u0940
p4040
sg9
(issf_api
FeatureSet
p4041
(dp4042
g12
(dp4043
S'crefhead'
p4044
S'\xe0\xa4\x95\xe0\xa5\x81\xe0\xa4\xae\xe0\xa4\xbe\xe0\xa4\xb0\xe0\xa4\xb8\xe0\xa5\x8d\xe0\xa4\xb5\xe0\xa4\xbe\xe0\xa4\xae\xe0\xa5\x80:i48'
p4045
sS'posn'
p4046
S'60'
p4047
sS'name'
p4048
S'\xe0\xa4\x95\xe0\xa5\x81\xe0\xa4\xae\xe0\xa4\xbe\xe0\xa4\xb0\xe0\xa4\xb8\xe0\xa5\x8d\xe0\xa4\xb5\xe0\xa4\xbe\xe0\xa4\xae\xe0\xa5\x80'
p4049
sS'af'
p4050
S'\xe0\xa4\x95\xe0\xa5\x81\xe0\xa4\xae\xe0\xa4\xbe\xe0\xa4\xb0\xe0\xa4\xb8\xe0\xa5\x8d\xe0\xa4\xb5\xe0\xa4\xbe\xe0\xa4\xae\xe0\xa5\x80,n,m,sg,3,o,0_\xe0\xa4\x95\xe0\xa4\xbe,0'
p4051
sS'chunkid'
p4052
S'NP3'
p4053
sS'creftype'
p4054
S'Coreference-Identity:i37'
p4055
sS'chunktype'
p4056
S'head:NP3'
p4057
sS'vpos'
p4058
S'vib_2'
p4059
sS'cref'
p4060
S'i48%1:t2'
p4061
sS'drel'
p4062
S'r6:NP4'
p4063
ssbsg26
I00
sg27
I00
sg28
Nsg29
Nsg30
I3
sg31
I7
sg32
Nsg33
Nsg34
S'NNP'
p4064
sg36
g4041
sg37
I00
sba(issf_api
Word
p4065
(dp4066
g6
I00
sg7
V\u0915\u0947
p4067
sg9
(issf_api
FeatureSet
p4068
(dp4069
g12
(dp4070
S'posn'
p4071
S'70'
p4072
sS'name'
p4073
S'\xe0\xa4\x95\xe0\xa5\x87'
p4074
sS'drel'
p4075
S'lwg__psp:NP3'
p4076
sS'chunktype'
p4077
S'child:NP3'
p4078
sS'af'
p4079
S'\xe0\xa4\x95\xe0\xa4\xbe,psp,m,sg,,o,,'
p4080
ssbsg26
I00
sg27
I00
sg28
Nsg29
Nsg30
I3
sg31
I7
sg32
Nsg33
Nsg34
S'PSP'
p4081
sg36
g4068
sg37
I00
sba(issf_api
Word
p4082
(dp4083
g6
I00
sg7
V\u092d\u093e\u0917\u094d\u092f
p4084
sg9
(issf_api
FeatureSet
p4085
(dp4086
g12
(dp4087
S'posn'
p4088
S'80'
p4089
sS'name'
p4090
S'\xe0\xa4\xad\xe0\xa4\xbe\xe0\xa4\x97\xe0\xa5\x8d\xe0\xa4\xaf'
p4091
sS'af'
p4092
S'\xe0\xa4\xad\xe0\xa4\xbe\xe0\xa4\x97\xe0\xa5\x8d\xe0\xa4\xaf,n,m,sg,3,o,0_\xe0\xa4\xa8\xe0\xa5\x87,0'
p4093
sS'chunkid'
p4094
S'NP4'
p4095
sS'drel'
p4096
S'k1:VGF'
p4097
sS'vpos'
p4098
S'vib_2'
p4099
sS'chunktype'
p4100
S'head:NP4'
p4101
ssbsg26
I00
sg27
I00
sg28
Nsg29
Nsg30
I4
sg31
I7
sg32
Nsg33
Nsg34
S'NN'
p4102
sg36
g4085
sg37
I00
sba(issf_api
Word
p4103
(dp4104
g6
I00
sg7
V\u0928\u0947
p4105
sg9
(issf_api
FeatureSet
p4106
(dp4107
g12
(dp4108
S'posn'
p4109
S'90'
p4110
sS'name'
p4111
S'\xe0\xa4\xa8\xe0\xa5\x87'
p4112
sS'drel'
p4113
S'lwg__psp:NP4'
p4114
sS'chunktype'
p4115
S'child:NP4'
p4116
sS'af'
p4117
S'\xe0\xa4\xa8\xe0\xa5\x87,psp,,,,,,'
p4118
ssbsg26
I00
sg27
I00
sg28
Nsg29
Nsg30
I4
sg31
I7
sg32
Nsg33
Nsg34
S'PSP'
p4119
sg36
g4106
sg37
I00
sba(issf_api
Word
p4120
(dp4121
g6
I00
sg7
V\u0935\u0930\u094d\u0937
p4122
sg9
(issf_api
FeatureSet
p4123
(dp4124
g12
(dp4125
S'posn'
p4126
S'100'
p4127
sS'name'
p4128
S'\xe0\xa4\xb5\xe0\xa4\xb0\xe0\xa5\x8d\xe0\xa4\xb7'
p4129
sS'drel'
p4130
S'pof__cn:NP5'
p4131
sS'chunktype'
p4132
S'child:NP5'
p4133
sS'af'
p4134
S'\xe0\xa4\xb5\xe0\xa4\xb0\xe0\xa5\x8d\xe0\xa4\xb7,n,m,sg,3,d,0,0'
p4135
ssbsg26
I00
sg27
I00
sg28
Nsg29
Nsg30
I5
sg31
I7
sg32
Nsg33
Nsg34
S'NNPC'
p4136
sg36
g4123
sg37
I00
sba(issf_api
Word
p4137
(dp4138
g6
I00
sg7
V\u0968\u0966\u0966\u096a
p4139
sg9
(issf_api
FeatureSet
p4140
(dp4141
g12
(dp4142
S'posn'
p4143
S'110'
p4144
sS'name'
p4145
S'\xe0\xa5\xa8\xe0\xa5\xa6\xe0\xa5\xa6\xe0\xa5\xaa'
p4146
sS'af'
p4147
S'\xe0\xa5\xa8\xe0\xa5\xa6\xe0\xa5\xa6\xe0\xa5\xaa,n,m,sg,3,o,0_\xe0\xa4\xae\xe0\xa5\x87\xe0\xa4\x82,0'
p4148
sS'chunkid'
p4149
S'NP5'
p4150
sS'drel'
p4151
S'k7t:VGF'
p4152
sS'vpos'
p4153
S'vib_3'
p4154
sS'chunktype'
p4155
S'head:NP5'
p4156
ssbsg26
I00
sg27
I00
sg28
Nsg29
Nsg30
I5
sg31
I7
sg32
Nsg33
Nsg34
S'NNP'
p4157
sg36
g4140
sg37
I00
sba(issf_api
Word
p4158
(dp4159
g6
I00
sg7
V\u092e\u0947\u0902
p4160
sg9
(issf_api
FeatureSet
p4161
(dp4162
g12
(dp4163
S'posn'
p4164
S'120'
p4165
sS'name'
p4166
S'\xe0\xa4\xae\xe0\xa5\x87\xe0\xa4\x82'
p4167
sS'drel'
p4168
S'lwg__psp:NP5'
p4169
sS'chunktype'
p4170
S'child:NP5'
p4171
sS'af'
p4172
S'\xe0\xa4\xae\xe0\xa5\x87\xe0\xa4\x82,psp,,,,,,'
p4173
ssbsg26
I00
sg27
I00
sg28
Nsg29
Nsg30
I5
sg31
I7
sg32
Nsg33
Nsg34
S'PSP'
p4174
sg36
g4161
sg37
I00
sba(issf_api
Word
p4175
(dp4176
g6
I00
sg7
V\u092b\u093f\u0930
p4177
sg9
(issf_api
FeatureSet
p4178
(dp4179
g12
(dp4180
S'posn'
p4181
S'130'
p4182
sS'name'
p4183
S'\xe0\xa4\xab\xe0\xa4\xbf\xe0\xa4\xb0'
p4184
sS'af'
p4185
S'\xe0\xa4\xab\xe0\xa4\xbf\xe0\xa4\xb0,adv,,,,,,'
p4186
sS'chunkid'
p4187
S'RBP'
p4188
sS'drel'
p4189
S'adv:VGF'
p4190
sS'chunktype'
p4191
S'head:RBP'
p4192
ssbsg26
I00
sg27
I00
sg28
Nsg29
Nsg30
I6
sg31
I7
sg32
Nsg33
Nsg34
S'RB'
p4193
sg36
g4178
sg37
I00
sba(issf_api
Word
p4194
(dp4195
g6
I00
sg7
V\u091c\u094b\u0930
p4196
sg9
(issf_api
FeatureSet
p4197
(dp4198
g12
(dp4199
S'posn'
p4200
S'140'
p4201
sS'name'
p4202
S'\xe0\xa4\x9c\xe0\xa5\x8b\xe0\xa4\xb0'
p4203
sS'af'
p4204
S'\xe0\xa4\x9c\xe0\xa5\x8b\xe0\xa4\xb0,n,m,sg,3,d,0,0'
p4205
sS'chunkid'
p4206
S'NP6'
p4207
sS'drel'
p4208
S'pof:VGF'
p4209
sS'chunktype'
p4210
S'head:NP6'
p4211
ssbsg26
I00
sg27
I00
sg28
Nsg29
Nsg30
I7
sg31
I7
sg32
Nsg33
Nsg34
S'NN'
p4212
sg36
g4197
sg37
I00
sba(issf_api
Word
p4213
(dp4214
g6
I00
sg7
V\u092e\u093e\u0930\u093e
p4215
sg9
(issf_api
FeatureSet
p4216
(dp4217
g12
(dp4218
S'posn'
p4219
S'150'
p4220
sS'name'
p4221
S'\xe0\xa4\xae\xe0\xa4\xbe\xe0\xa4\xb0\xe0\xa4\xbe'
p4222
sS'af'
p4223
S'\xe0\xa4\xae\xe0\xa4\xbe\xe0\xa4\xb0,v,m,sg,any,,\xe0\xa4\xaf\xe0\xa4\xbe,yA'
p4224
sS'chunkid'
p4225
S'VGF'
p4226
sS'stype'
p4227
S'declarative'
p4228
sS'drel'
p4229
S'ccof:CCP'
p4230
sS'voicetype'
p4231
S'active'
p4232
sS'chunktype'
p4233
S'head:VGF'
p4234
ssbsg26
I00
sg27
I00
sg28
Nsg29
Nsg30
I8
sg31
I7
sg32
Nsg33
Nsg34
S'VM'
p4235
sg36
g4216
sg37
I00
sba(issf_api
Word
p4236
(dp4237
g6
I00
sg7
V\u0914\u0930
p4238
sg9
(issf_api
FeatureSet
p4239
(dp4240
g12
(dp4241
S'posn'
p4242
S'160'
p4243
sS'chunkid'
p4244
S'CCP'
p4245
sS'name'
p4246
S'\xe0\xa4\x94\xe0\xa4\xb0'
p4247
sS'chunktype'
p4248
S'head:CCP'
p4249
sS'af'
p4250
S'\xe0\xa4\x94\xe0\xa4\xb0,avy,,,,,,'
p4251
ssbsg26
I00
sg27
I00
sg28
Nsg29
Nsg30
I9
sg31
I7
sg32
Nsg33
Nsg34
S'CC'
p4252
sg36
g4239
sg37
I00
sba(issf_api
Word
p4253
(dp4254
g6
I00
sg7
V\u0930\u093e\u092e\u0928\u0917\u0930\u092e
p4255
sg9
(issf_api
FeatureSet
p4256
(dp4257
g12
(dp4258
S'posn'
p4259
S'170'
p4260
sS'name'
p4261
S'\xe0\xa4\xb0\xe0\xa4\xbe\xe0\xa4\xae\xe0\xa4\xa8\xe0\xa4\x97\xe0\xa4\xb0\xe0\xa4\xae'
p4262
sS'af'
p4263
S'\xe0\xa4\xb0\xe0\xa4\xbe\xe0\xa4\xae\xe0\xa4\xa8\xe0\xa4\x97\xe0\xa4\xb0\xe0\xa4\xae,n,m,sg,3,d,0,0'
p4264
sS'drel'
p4265
S'nmod__adj:NP7'
p4266
sS'chunktype'
p4267
S'child:NP7'
p4268
sS'cref'
p4269
S'i49%0:t15'
p4270
ssbsg26
I00
sg27
I00
sg28
Nsg29
Nsg30
I10
sg31
I7
sg32
Nsg33
Nsg34
S'NNP'
p4271
sg36
g4256
sg37
I00
sba(issf_api
Word
p4272
(dp4273
g6
I00
sg7
V\u0935\u093f\u0927\u093e\u0928\u0938\u092d\u093e
p4274
sg9
(issf_api
FeatureSet
p4275
(dp4276
g12
(dp4277
S'posn'
p4278
S'180'
p4279
sS'name'
p4280
S'\xe0\xa4\xb5\xe0\xa4\xbf\xe0\xa4\xa7\xe0\xa4\xbe\xe0\xa4\xa8\xe0\xa4\xb8\xe0\xa4\xad\xe0\xa4\xbe'
p4281
sS'af'
p4282
S'\xe0\xa4\xb5\xe0\xa4\xbf\xe0\xa4\xa7\xe0\xa4\xbe\xe0\xa4\xa8\xe0\xa4\xb8\xe0\xa4\xad\xe0\xa4\xbe,n,f,sg,3,d,0,0'
p4283
sS'drel'
p4284
S'pof__cn:NP7'
p4285
sS'chunktype'
p4286
S'child:NP7'
p4287
sS'cref'
p4288
S'i49%0:t15'
p4289
ssbsg26
I00
sg27
I00
sg28
Nsg29
Nsg30
I10
sg31
I7
sg32
Nsg33
Nsg34
S'NNC'
p4290
sg36
g4275
sg37
I00
sba(issf_api
Word
p4291
(dp4292
g6
I00
sg7
V\u0938\u0940\u091f
p4293
sg9
(issf_api
FeatureSet
p4294
(dp4295
g12
(dp4296
S'crefhead'
p4297
S'\xe0\xa4\xb8\xe0\xa5\x80\xe0\xa4\x9f:i49'
p4298
sS'posn'
p4299
S'190'
p4300
sS'name'
p4301
S'\xe0\xa4\xb8\xe0\xa5\x80\xe0\xa4\x9f'
p4302
sS'af'
p4303
S'\xe0\xa4\xb8\xe0\xa5\x80\xe0\xa4\x9f,n,f,sg,3,o,0_\xe0\xa4\xb8\xe0\xa5\x87,0'
p4304
sS'chunkid'
p4305
S'NP7'
p4306
sS'chunktype'
p4307
S'head:NP7'
p4308
sS'crefchainhead'
p4309
S'i49:t15'
p4310
sS'vpos'
p4311
S'vib_vib_4'
p4312
sS'cref'
p4313
S'i49%1:t15'
p4314
sS'drel'
p4315
S'k5:VGF2'
p4316
ssbsg26
I00
sg27
I00
sg28
Nsg29
Nsg30
I10
sg31
I7
sg32
Nsg33
Nsg34
S'NN'
p4317
sg36
g4294
sg37
I00
sba(issf_api
Word
p4318
(dp4319
g6
I00
sg7
V\u0938\u0947
p4320
sg9
(issf_api
FeatureSet
p4321
(dp4322
g12
(dp4323
S'posn'
p4324
S'200'
p4325
sS'name'
p4326
S'\xe0\xa4\xb8\xe0\xa5\x87'
p4327
sS'drel'
p4328
S'lwg__psp:NP7'
p4329
sS'chunktype'
p4330
S'child:NP7'
p4331
sS'af'
p4332
S'\xe0\xa4\xb8\xe0\xa5\x87,psp,,,,,,'
p4333
ssbsg26
I00
sg27
I00
sg28
Nsg29
Nsg30
I10
sg31
I7
sg32
Nsg33
Nsg34
S'PSP'
p4334
sg36
g4321
sg37
I00
sba(issf_api
Word
p4335
(dp4336
g6
I00
sg7
V\u091c\u0940\u0924
p4337
sg9
(issf_api
FeatureSet
p4338
(dp4339
g12
(dp4340
S'posn'
p4341
S'210'
p4342
sS'name'
p4343
S'\xe0\xa4\x9c\xe0\xa5\x80\xe0\xa4\xa4'
p4344
sS'af'
p4345
S'\xe0\xa4\x9c\xe0\xa5\x80\xe0\xa4\xa4,v,any,sg,3h,,0_\xe0\xa4\x9c\xe0\xa4\xbe+\xe0\xa4\xaf\xe0\xa4\xbe\xe0\xa5\xa7,0'
p4346
sS'chunkid'
p4347
S'VGF2'
p4348
sS'stype'
p4349
S'declarative'
p4350
sS'drel'
p4351
S'ccof:CCP'
p4352
sS'voicetype'
p4353
S'active'
p4354
sS'vpos'
p4355
S'tam_2'
p4356
sS'chunktype'
p4357
S'head:VGF2'
p4358
ssbsg26
I00
sg27
I00
sg28
Nsg29
Nsg30
I11
sg31
I7
sg32
Nsg33
Nsg34
S'VM'
p4359
sg36
g4338
sg37
I00
sba(issf_api
Word
p4360
(dp4361
g6
I00
sg7
V\u0917\u090f
p4362
sg9
(issf_api
FeatureSet
p4363
(dp4364
g12
(dp4365
S'posn'
p4366
S'220'
p4367
sS'name'
p4368
S'\xe0\xa4\x97\xe0\xa4\x8f'
p4369
sS'drel'
p4370
S'lwg__vaux:VGF2'
p4371
sS'chunktype'
p4372
S'child:VGF2'
p4373
sS'af'
p4374
S'\xe0\xa4\x9c\xe0\xa4\xbe,v,m,sg,3h,,\xe0\xa4\xaf\xe0\xa4\xbe\xe0\xa5\xa7,yA1'
p4375
ssbsg26
I00
sg27
I00
sg28
Nsg29
Nsg30
I11
sg31
I7
sg32
Nsg33
Nsg34
S'VAUX'
p4376
sg36
g4363
sg37
I00
sba(issf_api
Word
p4377
(dp4378
g6
I00
sg7
V\u0964
p4379
sg9
(issf_api
FeatureSet
p4380
(dp4381
g12
(dp4382
S'posn'
p4383
S'230'
p4384
sS'name'
p4385
S'\xe0\xa5\xa4'
p4386
sS'af'
p4387
S'\xe0\xa5\xa4,punc,,,,,,'
p4388
sS'chunkid'
p4389
S'BLK'
p4390
sS'drel'
p4391
S'rsym:CCP'
p4392
sS'chunktype'
p4393
S'head:BLK'
p4394
ssbsg26
I00
sg27
I00
sg28
Nsg29
Nsg30
I12
sg31
I7
sg32
Nsg33
Nsg34
S'SYM'
p4395
sg36
g4380
sg37
I00
sba(issf_api
Word
p4396
(dp4397
g6
I00
sg7
V\u0935\u0930\u094d\u0924\u092e\u093e\u0928
p4398
sg9
(issf_api
FeatureSet
p4399
(dp4400
g12
(dp4401
S'posn'
p4402
S'10'
p4403
sS'name'
p4404
S'\xe0\xa4\xb5\xe0\xa4\xb0\xe0\xa5\x8d\xe0\xa4\xa4\xe0\xa4\xae\xe0\xa4\xbe\xe0\xa4\xa8'
p4405
sS'af'
p4406
S'\xe0\xa4\xb5\xe0\xa4\xb0\xe0\xa5\x8d\xe0\xa4\xa4\xe0\xa4\xae\xe0\xa4\xbe\xe0\xa4\xa8,n,m,sg,3,o,0_\xe0\xa4\xae\xe0\xa5\x87\xe0\xa4\x82,0'
p4407
sS'chunkid'
p4408
S'NP'
p4409
sS'drel'
p4410
S'k7t:VGF'
p4411
sS'vpos'
p4412
S'vib_2'
p4413
sS'chunktype'
p4414
S'head:NP'
p4415
ssbsg26
I00
sg27
I00
sg28
Nsg29
Nsg30
I0
sg31
I8
sg32
Nsg33
Nsg34
S'NN'
p4416
sg36
g4399
sg37
I00
sba(issf_api
Word
p4417
(dp4418
g6
I00
sg7
V\u092e\u0947\u0902
p4419
sg9
(issf_api
FeatureSet
p4420
(dp4421
g12
(dp4422
S'posn'
p4423
S'20'
p4424
sS'name'
p4425
S'\xe0\xa4\xae\xe0\xa5\x87\xe0\xa4\x82'
p4426
sS'drel'
p4427
S'lwg__psp:NP'
p4428
sS'chunktype'
p4429
S'child:NP'
p4430
sS'af'
p4431
S'\xe0\xa4\xae\xe0\xa5\x87\xe0\xa4\x82,psp,,,,,,'
p4432
ssbsg26
I00
sg27
I00
sg28
Nsg29
Nsg30
I0
sg31
I8
sg32
Nsg33
Nsg34
S'PSP'
p4433
sg36
g4420
sg37
I00
sba(issf_api
Word
p4434
(dp4435
g6
I00
sg7
V\u0935\u0939
p4436
sg9
(issf_api
FeatureSet
p4437
(dp4438
g12
(dp4439
S'crefhead'
p4440
S'\xe0\xa4\xb5\xe0\xa4\xb9:i50'
p4441
sS'posn'
p4442
S'30'
p4443
sS'name'
p4444
S'\xe0\xa4\xb5\xe0\xa4\xb9'
p4445
sS'af'
p4446
S'\xe0\xa4\xb5\xe0\xa4\xb9,pn,any,sg,3,d,0,0'
p4447
sS'chunkid'
p4448
S'NP2'
p4449
sS'creftype'
p4450
S'Anaphora-C:i48'
p4451
sS'chunktype'
p4452
S'head:NP2'
p4453
sS'cref'
p4454
S'i50%1:t2'
p4455
sS'drel'
p4456
S'k1:VGF'
p4457
ssbsg26
I00
sg27
I00
sg28
Nsg29
Nsg30
I1
sg31
I8
sg32
Nsg33
Nsg34
S'PRP'
p4458
sg36
g4437
sg37
I00
sba(issf_api
Word
p4459
(dp4460
g6
I00
sg7
V\u0935\u093f\u0927\u093e\u0928\u0938\u092d\u093e
p4461
sg9
(issf_api
FeatureSet
p4462
(dp4463
g12
(dp4464
S'posn'
p4465
S'40'
p4466
sS'name'
p4467
S'\xe0\xa4\xb5\xe0\xa4\xbf\xe0\xa4\xa7\xe0\xa4\xbe\xe0\xa4\xa8\xe0\xa4\xb8\xe0\xa4\xad\xe0\xa4\xbe'
p4468
sS'af'
p4469
S'\xe0\xa4\xb5\xe0\xa4\xbf\xe0\xa4\xa7\xe0\xa4\xbe\xe0\xa4\xa8\xe0\xa4\xb8\xe0\xa4\xad\xe0\xa4\xbe,n,f,sg,3,o,0_\xe0\xa4\xae\xe0\xa5\x87\xe0\xa4\x82,0'
p4470
sS'chunkid'
p4471
S'NP3'
p4472
sS'drel'
p4473
S'k7:VGF'
p4474
sS'vpos'
p4475
S'vib_2'
p4476
sS'chunktype'
p4477
S'head:NP3'
p4478
ssbsg26
I00
sg27
I00
sg28
Nsg29
Nsg30
I2
sg31
I8
sg32
Nsg33
Nsg34
S'NN'
p4479
sg36
g4462
sg37
I00
sba(issf_api
Word
p4480
(dp4481
g6
I00
sg7
V\u092e\u0947\u0902
p4482
sg9
(issf_api
FeatureSet
p4483
(dp4484
g12
(dp4485
S'posn'
p4486
S'50'
p4487
sS'name'
p4488
S'\xe0\xa4\xae\xe0\xa5\x87\xe0\xa4\x822'
p4489
sS'drel'
p4490
S'lwg__psp:NP3'
p4491
sS'chunktype'
p4492
S'child:NP3'
p4493
sS'af'
p4494
S'\xe0\xa4\xae\xe0\xa5\x87\xe0\xa4\x82,psp,,,,,,'
p4495
ssbsg26
I00
sg27
I00
sg28
Nsg29
Nsg30
I2
sg31
I8
sg32
Nsg33
Nsg34
S'PSP'
p4496
sg36
g4483
sg37
I00
sba(issf_api
Word
p4497
(dp4498
g6
I00
sg7
V\u0907\u0938\u0940
p4499
sg9
(issf_api
FeatureSet
p4500
(dp4501
g12
(dp4502
S'posn'
p4503
S'60'
p4504
sS'name'
p4505
S'\xe0\xa4\x87\xe0\xa4\xb8\xe0\xa5\x80'
p4506
sS'af'
p4507
S'\xe0\xa4\xaf\xe0\xa4\xb9,pn,any,sg,3,o,,'
p4508
sS'drel'
p4509
S'nmod__adj:NP4'
p4510
sS'chunktype'
p4511
S'child:NP4'
p4512
sS'cref'
p4513
S'i51%0:t15'
p4514
ssbsg26
I00
sg27
I00
sg28
Nsg29
Nsg30
I3
sg31
I8
sg32
Nsg33
Nsg34
S'DEM'
p4515
sg36
g4500
sg37
I00
sba(issf_api
Word
p4516
(dp4517
g6
I00
sg7
V\u0938\u0940\u091f
p4518
sg9
(issf_api
FeatureSet
p4519
(dp4520
g12
(dp4521
S'crefhead'
p4522
S'\xe0\xa4\xb8\xe0\xa5\x80\xe0\xa4\x9f:i51'
p4523
sS'posn'
p4524
S'70'
p4525
sS'name'
p4526
S'\xe0\xa4\xb8\xe0\xa5\x80\xe0\xa4\x9f'
p4527
sS'af'
p4528
S'\xe0\xa4\xb8\xe0\xa5\x80\xe0\xa4\x9f,n,f,sg,3,o,0_\xe0\xa4\x95\xe0\xa4\xbe,0'
p4529
sS'chunkid'
p4530
S'NP4'
p4531
sS'creftype'
p4532
S'Coreference-Identity:i49'
p4533
sS'chunktype'
p4534
S'head:NP4'
p4535
sS'vpos'
p4536
S'vib_3'
p4537
sS'cref'
p4538
S'i51%1:t15'
p4539
sS'drel'
p4540
S'r6-k2:NP5'
p4541
ssbsg26
I00
sg27
I00
sg28
Nsg29
Nsg30
I3
sg31
I8
sg32
Nsg33
Nsg34
S'NN'
p4542
sg36
g4519
sg37
I00
sba(issf_api
Word
p4543
(dp4544
g6
I00
sg7
V\u0915\u093e
p4545
sg9
(issf_api
FeatureSet
p4546
(dp4547
g12
(dp4548
S'posn'
p4549
S'80'
p4550
sS'name'
p4551
S'\xe0\xa4\x95\xe0\xa4\xbe'
p4552
sS'drel'
p4553
S'lwg__psp:NP4'
p4554
sS'chunktype'
p4555
S'child:NP4'
p4556
sS'af'
p4557
S'\xe0\xa4\x95\xe0\xa4\xbe,psp,m,sg,,d,,'
p4558
ssbsg26
I00
sg27
I00
sg28
Nsg29
Nsg30
I3
sg31
I8
sg32
Nsg33
Nsg34
S'PSP'
p4559
sg36
g4546
sg37
I00
sba(issf_api
Word
p4560
(dp4561
g6
I00
sg7
V\u092a\u094d\u0930\u0924\u093f\u0928\u093f\u0927\u093f\u0924\u094d\u0935
p4562
sg9
(issf_api
FeatureSet
p4563
(dp4564
g12
(dp4565
S'posn'
p4566
S'90'
p4567
sS'name'
p4568
S'\xe0\xa4\xaa\xe0\xa5\x8d\xe0\xa4\xb0\xe0\xa4\xa4\xe0\xa4\xbf\xe0\xa4\xa8\xe0\xa4\xbf\xe0\xa4\xa7\xe0\xa4\xbf\xe0\xa4\xa4\xe0\xa5\x8d\xe0\xa4\xb5'
p4569
sS'af'
p4570
S'\xe0\xa4\xaa\xe0\xa5\x8d\xe0\xa4\xb0\xe0\xa4\xa4\xe0\xa4\xbf\xe0\xa4\xa8\xe0\xa4\xbf\xe0\xa4\xa7\xe0\xa4\xbf\xe0\xa4\xa4\xe0\xa5\x8d\xe0\xa4\xb5,n,m,sg,3,d,0,0'
p4571
sS'chunkid'
p4572
S'NP5'
p4573
sS'drel'
p4574
S'pof:VGF'
p4575
sS'chunktype'
p4576
S'head:NP5'
p4577
ssbsg26
I00
sg27
I00
sg28
Nsg29
Nsg30
I4
sg31
I8
sg32
Nsg33
Nsg34
S'NN'
p4578
sg36
g4563
sg37
I00
sba(issf_api
Word
p4579
(dp4580
g6
I00
sg7
V\u0915\u0930
p4581
sg9
(issf_api
FeatureSet
p4582
(dp4583
g12
(dp4584
S'posn'
p4585
S'100'
p4586
sS'name'
p4587
S'\xe0\xa4\x95\xe0\xa4\xb0'
p4588
sS'af'
p4589
S'\xe0\xa4\x95\xe0\xa4\xb0,v,m,sg,3h,,0_\xe0\xa4\xb0\xe0\xa4\xb9+\xe0\xa4\xaf\xe0\xa4\xbe_\xe0\xa4\xb9\xe0\xa5\x88,0'
p4590
sS'chunkid'
p4591
S'VGF'
p4592
sS'chunktype'
p4593
S'head:VGF'
p4594
sS'voicetype'
p4595
S'active'
p4596
sS'vpos'
p4597
S'tam_2_3'
p4598
sS'stype'
p4599
S'declarative'
p4600
ssbsg26
I00
sg27
I00
sg28
Nsg29
Nsg30
I5
sg31
I8
sg32
Nsg33
Nsg34
S'VM'
p4601
sg36
g4582
sg37
I00
sba(issf_api
Word
p4602
(dp4603
g6
I00
sg7
V\u0930\u0939\u0947
p4604
sg9
(issf_api
FeatureSet
p4605
(dp4606
g12
(dp4607
S'posn'
p4608
S'110'
p4609
sS'name'
p4610
S'\xe0\xa4\xb0\xe0\xa4\xb9\xe0\xa5\x87'
p4611
sS'drel'
p4612
S'lwg__vaux:VGF'
p4613
sS'chunktype'
p4614
S'child:VGF'
p4615
sS'af'
p4616
S'\xe0\xa4\xb0\xe0\xa4\xb9,v,m,sg,3h,,\xe0\xa4\xaf\xe0\xa4\xbe,yA'
p4617
ssbsg26
I00
sg27
I00
sg28
Nsg29
Nsg30
I5
sg31
I8
sg32
Nsg33
Nsg34
S'VAUX'
p4618
sg36
g4605
sg37
I00
sba(issf_api
Word
p4619
(dp4620
g6
I00
sg7
V\u0939\u0948\u0902
p4621
sg9
(issf_api
FeatureSet
p4622
(dp4623
g12
(dp4624
S'posn'
p4625
S'120'
p4626
sS'name'
p4627
S'\xe0\xa4\xb9\xe0\xa5\x88\xe0\xa4\x82'
p4628
sS'drel'
p4629
S'lwg__vaux:VGF'
p4630
sS'chunktype'
p4631
S'child:VGF'
p4632
sS'af'
p4633
S'\xe0\xa4\xb9\xe0\xa5\x88,v,any,sg,3h,,\xe0\xa4\xb9\xe0\xa5\x88,hE'
p4634
ssbsg26
I00
sg27
I00
sg28
Nsg29
Nsg30
I5
sg31
I8
sg32
Nsg33
Nsg34
S'VAUX'
p4635
sg36
g4622
sg37
I00
sba(issf_api
Word
p4636
(dp4637
g6
I00
sg7
V\u0964
p4638
sg9
(issf_api
FeatureSet
p4639
(dp4640
g12
(dp4641
S'posn'
p4642
S'130'
p4643
sS'name'
p4644
S'\xe0\xa5\xa4'
p4645
sS'af'
p4646
S'\xe0\xa5\xa4,punc,,,,,,'
p4647
sS'chunkid'
p4648
S'BLK'
p4649
sS'drel'
p4650
S'rsym:VGF'
p4651
sS'chunktype'
p4652
S'head:BLK'
p4653
ssbsg26
I00
sg27
I00
sg28
Nsg29
Nsg30
I6
sg31
I8
sg32
Nsg33
Nsg34
S'SYM'
p4654
sg36
g4639
sg37
I00
sbasS'sentenceList'
p4655
(lp4656
(issf_api
Sentence
p4657
(dp4658
S'rootNode'
p4659
(lp4660
sg31
I0
sS'wordNumList'
p4661
(lp4662
I0
aI1
aI2
aI3
aI4
aI5
aI6
aI7
aI8
aI9
aI10
aI11
aI12
aI13
aI14
aI15
aI16
aI17
aI18
aI19
aI20
aI21
aI22
aI23
aI24
aI25
aI26
aI27
aI28
aI29
aI30
aI31
aI32
aI33
aI34
aI35
aI36
aI37
aI38
aI39
aI40
aI41
aI42
aI43
asS'nodeDict'
p4663
(dp4664
S'VGNF'
p4665
(issf_api
Node
p4666
(dp4667
S'nodeRelation'
p4668
S'nmod__k1inv'
p4669
sS'nodeName'
p4670
g4665
sS'nodeParent'
p4671
S'NP9'
p4672
sS'nodeLevel'
p4673
I-1
sg30
I9
sS'childList'
p4674
(lp4675
sbsS'NP11'
p4676
(issf_api
Node
p4677
(dp4678
g4668
S'k1'
p4679
sg4670
g4676
sg4671
S'VGF2'
p4680
sg4673
I-1
sg30
I13
sg4674
(lp4681
sbsS'VGNN'
p4682
(issf_api
Node
p4683
(dp4684
g4668
S'nmod'
p4685
sg4670
g4682
sg4671
S'NP5'
p4686
sg4673
I-1
sg30
I4
sg4674
(lp4687
S'NP'
p4688
aS'NP4'
p4689
aS'NP3'
p4690
aS'NP2'
p4691
asbsS'VGF'
p4692
(issf_api
Node
p4693
(dp4694
g4668
S'None'
p4695
sg4670
g4692
sg4671
g4695
sg4673
I-1
sg30
I12
sg4674
(lp4696
S'NP5'
p4697
aS'NP9'
p4698
aS'BLK'
p4699
aS'NP10'
p4700
aS'NP7'
p4701
asbsS'NP12'
p4702
(issf_api
Node
p4703
(dp4704
g4668
S'r6'
p4705
sg4670
g4702
sg4671
S'NP13'
p4706
sg4673
I-1
sg30
I14
sg4674
(lp4707
sbsS'VGF2'
p4708
(issf_api
Node
p4709
(dp4710
g4668
S'nmod__relc'
p4711
sg4670
g4708
sg4671
S'NP9'
p4712
sg4673
I-1
sg30
I17
sg4674
(lp4713
g4676
aS'JJP'
p4714
aS'NP13'
p4715
asbsg4714
(issf_api
Node
p4716
(dp4717
g4668
S'pof'
p4718
sg4670
g4714
sg4671
S'VGF2'
p4719
sg4673
I-1
sg30
I16
sg4674
(lp4720
sbsg4697
(issf_api
Node
p4721
(dp4722
g4668
S'k1'
p4723
sg4670
g4697
sg4671
S'VGF'
p4724
sg4673
I-1
sg30
I5
sg4674
(lp4725
g4682
asbsg4698
(issf_api
Node
p4726
(dp4727
g4668
S'k7'
p4728
sg4670
g4698
sg4671
S'VGF'
p4729
sg4673
I-1
sg30
I10
sg4674
(lp4730
g4665
ag4708
aS'NP8'
p4731
asbsg4731
(issf_api
Node
p4732
(dp4733
g4668
S'fragof'
p4734
sg4670
g4731
sg4671
S'NP9'
p4735
sg4673
I-1
sg30
I8
sg4674
(lp4736
sbsg4699
(issf_api
Node
p4737
(dp4738
g4668
S'rsym'
p4739
sg4670
g4699
sg4671
S'VGF'
p4740
sg4673
I-1
sg30
I18
sg4674
(lp4741
sbsg4700
(issf_api
Node
p4742
(dp4743
g4668
S'k7'
p4744
sg4670
g4700
sg4671
S'VGF'
p4745
sg4673
I-1
sg30
I11
sg4674
(lp4746
sbsg4688
(issf_api
Node
p4747
(dp4748
g4668
S'k7t'
p4749
sg4670
g4688
sg4671
S'VGNN'
p4750
sg4673
I-1
sg30
I0
sg4674
(lp4751
sbsg4689
(issf_api
Node
p4752
(dp4753
g4668
S'pof'
p4754
sg4670
g4689
sg4671
S'VGNN'
p4755
sg4673
I-1
sg30
I3
sg4674
(lp4756
sbsg4701
(issf_api
Node
p4757
(dp4758
g4668
S'k7t'
p4759
sg4670
g4701
sg4671
S'VGF'
p4760
sg4673
I-1
sg30
I7
sg4674
(lp4761
S'NP6'
p4762
asbsg4762
(issf_api
Node
p4763
(dp4764
g4668
S'r6'
p4765
sg4670
g4762
sg4671
S'NP7'
p4766
sg4673
I-1
sg30
I6
sg4674
(lp4767
sbsg4715
(issf_api
Node
p4768
(dp4769
g4668
S'k2'
p4770
sg4670
g4715
sg4671
S'VGF2'
p4771
sg4673
I-1
sg30
I15
sg4674
(lp4772
g4702
asbsg4690
(issf_api
Node
p4773
(dp4774
g4668
S'k2'
p4775
sg4670
g4690
sg4671
S'VGNN'
p4776
sg4673
I-1
sg30
I2
sg4674
(lp4777
sbsg4691
(issf_api
Node
p4778
(dp4779
g4668
S'vmod'
p4780
sg4670
g4691
sg4671
S'VGNN'
p4781
sg4673
I-1
sg30
I1
sg4674
(lp4782
sbssS'chunkList'
p4783
(lp4784
(issf_api
Chunk
p4785
(dp4786
g4670
g53
sg30
I0
sS'chunkTag'
p4787
g64
sg31
I0
sg4661
(lp4788
I0
aI1
aI2
asg36
(issf_api
FeatureSet
p4789
(dp4790
g12
(dp4791
S'name'
p4792
g4688
sS'drel'
p4793
S'k7t:VGNN'
p4794
ssbsba(issf_api
Chunk
p4795
(dp4796
g4670
g116
sg30
I1
sg4787
g125
sg31
I0
sg4661
(lp4797
I3
aI4
aI5
aI6
aI7
asg36
(issf_api
FeatureSet
p4798
(dp4799
g12
(dp4800
S'name'
p4801
g4691
sS'drel'
p4802
S'vmod:VGNN'
p4803
ssbsba(issf_api
Chunk
p4804
(dp4805
g4670
g192
sg30
I2
sg4787
g201
sg31
I0
sg4661
(lp4806
I8
asg36
(issf_api
FeatureSet
p4807
(dp4808
g12
(dp4809
S'name'
p4810
g4690
sS'drel'
p4811
S'k2:VGNN'
p4812
ssbsba(issf_api
Chunk
p4813
(dp4814
g4670
g215
sg30
I3
sg4787
g220
sg31
I0
sg4661
(lp4815
I9
asg36
(issf_api
FeatureSet
p4816
(dp4817
g12
(dp4818
S'name'
p4819
g4689
sS'drel'
p4820
S'pof:VGNN'
p4821
ssbsba(issf_api
Chunk
p4822
(dp4823
g4670
g234
sg30
I4
sg4787
g241
sg31
I0
sg4661
(lp4824
I10
aI11
asg36
(issf_api
FeatureSet
p4825
(dp4826
g12
(dp4827
S'name'
p4828
g4682
sS'drel'
p4829
S'nmod:NP5'
p4830
ssbsba(issf_api
Chunk
p4831
(dp4832
g4670
g312
sg30
I5
sg4787
g323
sg31
I0
sg4661
(lp4833
I12
aI13
aI14
asg36
(issf_api
FeatureSet
p4834
(dp4835
g12
(dp4836
S'name'
p4837
g4697
sS'drel'
p4838
S'k1:VGF'
p4839
ssbsba(issf_api
Chunk
p4840
(dp4841
g4670
g354
sg30
I6
sg4787
g361
sg31
I0
sg4661
(lp4842
I15
aI16
aI17
asg36
(issf_api
FeatureSet
p4843
(dp4844
g12
(dp4845
S'name'
p4846
g4762
sS'drel'
p4847
S'r6:NP7'
p4848
ssbsba(issf_api
Chunk
p4849
(dp4850
g4670
g409
sg30
I7
sg4787
g416
sg31
I0
sg4661
(lp4851
I18
aI19
aI20
asg36
(issf_api
FeatureSet
p4852
(dp4853
g12
(dp4854
S'name'
p4855
g4701
sS'drel'
p4856
S'k7t:VGF'
p4857
ssbsba(issf_api
Chunk
p4858
(dp4859
g4670
g468
sg30
I8
sg4787
g479
sg31
I0
sg4661
(lp4860
I21
aI22
asg36
(issf_api
FeatureSet
p4861
(dp4862
g12
(dp4863
S'name'
p4864
g4731
sS'drel'
p4865
S'fragof:NP9'
p4866
ssbsba(issf_api
Chunk
p4867
(dp4868
g4670
g493
sg30
I9
sg4787
g502
sg31
I0
sg4661
(lp4869
I23
aI24
asg36
(issf_api
FeatureSet
p4870
(dp4871
g12
(dp4872
S'name'
p4873
g4665
sS'drel'
p4874
S'nmod__k1inv:NP9'
p4875
ssbsba(issf_api
Chunk
p4876
(dp4877
g4670
g537
sg30
I10
sg4787
g546
sg31
I0
sg4661
(lp4878
I25
aI26
aI27
aI28
asg36
(issf_api
FeatureSet
p4879
(dp4880
g12
(dp4881
S'name'
p4882
g4698
sS'drel'
p4883
S'k7:VGF'
p4884
ssbsba(issf_api
Chunk
p4885
(dp4886
g4670
g611
sg30
I11
sg4787
g616
sg31
I0
sg4661
(lp4887
I29
asg36
(issf_api
FeatureSet
p4888
(dp4889
g12
(dp4890
S'name'
p4891
g4700
sS'drel'
p4892
S'k7:VGF'
p4893
ssbsba(issf_api
Chunk
p4894
(dp4895
g4670
g630
sg30
I12
sg4787
g637
sg31
I0
sg4661
(lp4896
I30
aI31
asg36
(issf_api
FeatureSet
p4897
(dp4898
g12
(dp4899
S'name'
p4900
g4692
ssbsba(issf_api
Chunk
p4901
(dp4902
g4670
g672
sg30
I13
sg4787
g681
sg31
I0
sg4661
(lp4903
I32
asg36
(issf_api
FeatureSet
p4904
(dp4905
g12
(dp4906
S'name'
p4907
g4676
sS'drel'
p4908
S'k1:VGF2'
p4909
ssbsba(issf_api
Chunk
p4910
(dp4911
g4670
g729
sg30
I14
sg4787
g736
sg31
I0
sg4661
(lp4912
I33
aI34
aI35
aI36
asg36
(issf_api
FeatureSet
p4913
(dp4914
g12
(dp4915
S'name'
p4916
g4702
sS'drel'
p4917
S'r6:NP13'
p4918
ssbsba(issf_api
Chunk
p4919
(dp4920
g4670
g784
sg30
I15
sg4787
g791
sg31
I0
sg4661
(lp4921
I37
aI38
aI39
asg36
(issf_api
FeatureSet
p4922
(dp4923
g12
(dp4924
S'name'
p4925
g4715
sS'drel'
p4926
S'k2:VGF2'
p4927
ssbsba(issf_api
Chunk
p4928
(dp4929
g4670
g822
sg30
I16
sg4787
g827
sg31
I0
sg4661
(lp4930
I40
asg36
(issf_api
FeatureSet
p4931
(dp4932
g12
(dp4933
S'name'
p4934
g4714
sS'drel'
p4935
S'pof:VGF2'
p4936
ssbsba(issf_api
Chunk
p4937
(dp4938
g4670
g841
sg30
I17
sg4787
g852
sg31
I0
sg4661
(lp4939
I41
aI42
asg36
(issf_api
FeatureSet
p4940
(dp4941
g12
(dp4942
S'name'
p4943
g4708
sS'drel'
p4944
S'nmod__relc:NP9'
p4945
ssbsba(issf_api
Chunk
p4946
(dp4947
g4670
g883
sg30
I18
sg4787
g888
sg31
I0
sg4661
(lp4948
I43
asg36
(issf_api
FeatureSet
p4949
(dp4950
g12
(dp4951
S'name'
p4952
g4699
sS'drel'
p4953
S'rsym:VGF'
p4954
ssbsbasba(issf_api
Sentence
p4955
(dp4956
g4659
(lp4957
sg31
I1
sg4661
(lp4958
I44
aI45
aI46
aI47
aI48
aI49
aI50
aI51
aI52
aI53
aI54
aI55
aI56
aI57
aI58
asg4663
(dp4959
S'VGNN'
p4960
(issf_api
Node
p4961
(dp4962
g4668
S'k7'
p4963
sg4670
g4960
sg4671
S'VGF'
p4964
sg4673
I-1
sg30
I4
sg4674
(lp4965
S'NP4'
p4966
asbsS'VGF'
p4967
(issf_api
Node
p4968
(dp4969
g4668
g4695
sg4670
g4967
sg4671
g4695
sg4673
I-1
sg30
I7
sg4674
(lp4970
g4960
aS'NP5'
p4971
aS'BLK'
p4972
aS'NP'
p4973
aS'NP6'
p4974
asbsg4971
(issf_api
Node
p4975
(dp4976
g4668
S'adv'
p4977
sg4670
g4971
sg4671
S'VGF'
p4978
sg4673
I-1
sg30
I5
sg4674
(lp4979
sbsg4972
(issf_api
Node
p4980
(dp4981
g4668
S'rsym'
p4982
sg4670
g4972
sg4671
S'VGF'
p4983
sg4673
I-1
sg30
I8
sg4674
(lp4984
sbsg4973
(issf_api
Node
p4985
(dp4986
g4668
S'k1'
p4987
sg4670
g4973
sg4671
S'VGF'
p4988
sg4673
I-1
sg30
I0
sg4674
(lp4989
sbsg4966
(issf_api
Node
p4990
(dp4991
g4668
S'k1'
p4992
sg4670
g4966
sg4671
S'VGNN'
p4993
sg4673
I-1
sg30
I3
sg4674
(lp4994
S'NP3'
p4995
asbsg4974
(issf_api
Node
p4996
(dp4997
g4668
S'k7'
p4998
sg4670
g4974
sg4671
S'VGF'
p4999
sg4673
I-1
sg30
I6
sg4674
(lp5000
sbsg4995
(issf_api
Node
p5001
(dp5002
g4668
S'nmod'
p5003
sg4670
g4995
sg4671
S'NP4'
p5004
sg4673
I-1
sg30
I2
sg4674
(lp5005
S'NP2'
p5006
asbsg5006
(issf_api
Node
p5007
(dp5008
g4668
S'r6'
p5009
sg4670
g5006
sg4671
S'NP3'
p5010
sg4673
I-1
sg30
I1
sg4674
(lp5011
sbssg4783
(lp5012
(issf_api
Chunk
p5013
(dp5014
g4670
g904
sg30
I0
sg4787
g913
sg31
I1
sg4661
(lp5015
I44
asg36
(issf_api
FeatureSet
p5016
(dp5017
g12
(dp5018
S'name'
p5019
g4973
sS'drel'
p5020
S'k1:VGF'
p5021
ssbsba(issf_api
Chunk
p5022
(dp5023
g4670
g931
sg30
I1
sg4787
g942
sg31
I1
sg4661
(lp5024
I45
asg36
(issf_api
FeatureSet
p5025
(dp5026
g12
(dp5027
S'name'
p5028
g5006
sS'drel'
p5029
S'r6:NP3'
p5030
ssbsba(issf_api
Chunk
p5031
(dp5032
g4670
g958
sg30
I2
sg4787
g967
sg31
I1
sg4661
(lp5033
I46
asg36
(issf_api
FeatureSet
p5034
(dp5035
g12
(dp5036
S'name'
p5037
g4995
sS'drel'
p5038
S'nmod:NP4'
p5039
ssbsba(issf_api
Chunk
p5040
(dp5041
g4670
g983
sg30
I3
sg4787
g996
sg31
I1
sg4661
(lp5042
I47
aI48
asg36
(issf_api
FeatureSet
p5043
(dp5044
g12
(dp5045
S'name'
p5046
g4966
sS'drel'
p5047
S'k1:VGNN'
p5048
ssbsba(issf_api
Chunk
p5049
(dp5050
g4670
g1027
sg30
I4
sg4787
g1034
sg31
I1
sg4661
(lp5051
I49
aI50
asg36
(issf_api
FeatureSet
p5052
(dp5053
g12
(dp5054
S'name'
p5055
g4960
sS'drel'
p5056
S'k7:VGF'
p5057
ssbsba(issf_api
Chunk
p5058
(dp5059
g4670
g1082
sg30
I5
sg4787
g1089
sg31
I1
sg4661
(lp5060
I51
aI52
aI53
asg36
(issf_api
FeatureSet
p5061
(dp5062
g12
(dp5063
S'name'
p5064
g4971
sS'drel'
p5065
S'adv:VGF'
p5066
ssbsba(issf_api
Chunk
p5067
(dp5068
g4670
g1122
sg30
I6
sg4787
g1133
sg31
I1
sg4661
(lp5069
I54
aI55
asg36
(issf_api
FeatureSet
p5070
(dp5071
g12
(dp5072
S'name'
p5073
g4974
sS'drel'
p5074
S'k7:VGF'
p5075
ssbsba(issf_api
Chunk
p5076
(dp5077
g4670
g1164
sg30
I7
sg4787
g1173
sg31
I1
sg4661
(lp5078
I56
aI57
asg36
(issf_api
FeatureSet
p5079
(dp5080
g12
(dp5081
S'name'
p5082
g4967
ssbsba(issf_api
Chunk
p5083
(dp5084
g4670
g1204
sg30
I8
sg4787
g1209
sg31
I1
sg4661
(lp5085
I58
asg36
(issf_api
FeatureSet
p5086
(dp5087
g12
(dp5088
S'name'
p5089
g4972
sS'drel'
p5090
S'rsym:VGF'
p5091
ssbsbasba(issf_api
Sentence
p5092
(dp5093
g4659
(lp5094
sg31
I2
sg4661
(lp5095
I59
aI60
aI61
aI62
aI63
aI64
aI65
aI66
aI67
aI68
aI69
aI70
aI71
aI72
aI73
aI74
aI75
aI76
aI77
aI78
aI79
aI80
aI81
aI82
aI83
asg4663
(dp5096
S'VGF'
p5097
(issf_api
Node
p5098
(dp5099
g4668
g4695
sg4670
g5097
sg4671
g4695
sg4673
I-1
sg30
I4
sg4674
(lp5100
S'BLK'
p5101
aS'NP4'
p5102
aS'NP3'
p5103
aS'NP2'
p5104
asbsS'VGF2'
p5105
(issf_api
Node
p5106
(dp5107
g4668
S'nmod__relc'
p5108
sg4670
g5105
sg4671
S'NP4'
p5109
sg4673
I-1
sg30
I8
sg4674
(lp5110
S'NP5'
p5111
aS'NP7'
p5112
aS'NP6'
p5113
asbsg5111
(issf_api
Node
p5114
(dp5115
g4668
S'k5'
p5116
sg4670
g5111
sg4671
S'VGF2'
p5117
sg4673
I-1
sg30
I5
sg4674
(lp5118
sbsg5101
(issf_api
Node
p5119
(dp5120
g4668
S'rsym'
p5121
sg4670
g5101
sg4671
S'VGF'
p5122
sg4673
I-1
sg30
I9
sg4674
(lp5123
sbsS'NP'
p5124
(issf_api
Node
p5125
(dp5126
g4668
S'r6'
p5127
sg4670
g5124
sg4671
S'NP2'
p5128
sg4673
I-1
sg30
I0
sg4674
(lp5129
sbsg5102
(issf_api
Node
p5130
(dp5131
g4668
S'k2'
p5132
sg4670
g5102
sg4671
S'VGF'
p5133
sg4673
I-1
sg30
I3
sg4674
(lp5134
g5105
asbsg5112
(issf_api
Node
p5135
(dp5136
g4668
S'pof'
p5137
sg4670
g5112
sg4671
S'VGF2'
p5138
sg4673
I-1
sg30
I7
sg4674
(lp5139
sbsg5113
(issf_api
Node
p5140
(dp5141
g4668
S'k7'
p5142
sg4670
g5113
sg4671
S'VGF2'
p5143
sg4673
I-1
sg30
I6
sg4674
(lp5144
sbsg5103
(issf_api
Node
p5145
(dp5146
g4668
S'k7t'
p5147
sg4670
g5103
sg4671
S'VGF'
p5148
sg4673
I-1
sg30
I2
sg4674
(lp5149
sbsg5104
(issf_api
Node
p5150
(dp5151
g4668
S'k1'
p5152
sg4670
g5104
sg4671
S'VGF'
p5153
sg4673
I-1
sg30
I1
sg4674
(lp5154
g5124
asbssg4783
(lp5155
(issf_api
Chunk
p5156
(dp5157
g4670
g1309
sg30
I0
sg4787
g1324
sg31
I2
sg4661
(lp5158
I59
aI60
aI61
aI62
aI63
aI64
asg36
(issf_api
FeatureSet
p5159
(dp5160
g12
(dp5161
S'name'
p5162
g5124
sS'drel'
p5163
S'r6:NP2'
p5164
ssbsba(issf_api
Chunk
p5165
(dp5166
g4670
g1376
sg30
I1
sg4787
g1389
sg31
I2
sg4661
(lp5167
I65
aI66
aI67
asg36
(issf_api
FeatureSet
p5168
(dp5169
g12
(dp5170
S'name'
p5171
g5104
sS'drel'
p5172
S'k1:VGF'
p5173
ssbsba(issf_api
Chunk
p5174
(dp5175
g4670
g1422
sg30
I2
sg4787
g1435
sg31
I2
sg4661
(lp5176
I68
aI69
asg36
(issf_api
FeatureSet
p5177
(dp5178
g12
(dp5179
S'name'
p5180
g5103
sS'drel'
p5181
S'k7t:VGF'
p5182
ssbsba(issf_api
Chunk
p5183
(dp5184
g4670
g1506
sg30
I3
sg4787
g1515
sg31
I2
sg4661
(lp5185
I70
aI71
aI72
asg36
(issf_api
FeatureSet
p5186
(dp5187
g12
(dp5188
S'name'
p5189
g5102
sS'drel'
p5190
S'k2:VGF'
p5191
ssbsba(issf_api
Chunk
p5192
(dp5193
g4670
g1529
sg30
I4
sg4787
g1538
sg31
I2
sg4661
(lp5194
I73
aI74
aI75
asg36
(issf_api
FeatureSet
p5195
(dp5196
g12
(dp5197
S'name'
p5198
g5097
ssbsba(issf_api
Chunk
p5199
(dp5200
g4670
g1589
sg30
I5
sg4787
g1600
sg31
I2
sg4661
(lp5201
I76
aI77
asg36
(issf_api
FeatureSet
p5202
(dp5203
g12
(dp5204
S'name'
p5205
g5111
sS'drel'
p5206
S'k5:VGF2'
p5207
ssbsba(issf_api
Chunk
p5208
(dp5209
g4670
g1631
sg30
I6
sg4787
g1638
sg31
I2
sg4661
(lp5210
I78
aI79
aI80
asg36
(issf_api
FeatureSet
p5211
(dp5212
g12
(dp5213
S'name'
p5214
g5113
sS'drel'
p5215
S'k7:VGF2'
p5216
ssbsba(issf_api
Chunk
p5217
(dp5218
g4670
g1686
sg30
I7
sg4787
g1691
sg31
I2
sg4661
(lp5219
I81
asg36
(issf_api
FeatureSet
p5220
(dp5221
g12
(dp5222
S'name'
p5223
g5112
sS'drel'
p5224
S'pof:VGF2'
p5225
ssbsba(issf_api
Chunk
p5226
(dp5227
g4670
g1705
sg30
I8
sg4787
g1714
sg31
I2
sg4661
(lp5228
I82
asg36
(issf_api
FeatureSet
p5229
(dp5230
g12
(dp5231
S'name'
p5232
g5105
sS'drel'
p5233
S'nmod__relc:NP4'
p5234
ssbsba(issf_api
Chunk
p5235
(dp5236
g4670
g1728
sg30
I9
sg4787
g1733
sg31
I2
sg4661
(lp5237
I83
asg36
(issf_api
FeatureSet
p5238
(dp5239
g12
(dp5240
S'name'
p5241
g5101
sS'drel'
p5242
S'rsym:VGF'
p5243
ssbsbasba(issf_api
Sentence
p5244
(dp5245
g4659
(lp5246
sg31
I3
sg4661
(lp5247
I84
aI85
aI86
aI87
aI88
aI89
aI90
aI91
aI92
aI93
aI94
aI95
aI96
aI97
aI98
aI99
aI100
aI101
aI102
aI103
aI104
aI105
aI106
aI107
aI108
aI109
aI110
aI111
aI112
aI113
aI114
aI115
aI116
aI117
asg4663
(dp5248
S'NP11'
p5249
(issf_api
Node
p5250
(dp5251
g4668
S'k2'
p5252
sg4670
g5249
sg4671
S'VGF3'
p5253
sg4673
I-1
sg30
I15
sg4674
(lp5254
sbsS'NP10'
p5255
(issf_api
Node
p5256
(dp5257
g4668
S'k1'
p5258
sg4670
g5255
sg4671
S'VGF3'
p5259
sg4673
I-1
sg30
I14
sg4674
(lp5260
sbsS'VGF'
p5261
(issf_api
Node
p5262
(dp5263
g4668
g4695
sg4670
g5261
sg4671
g4695
sg4673
I-1
sg30
I3
sg4674
(lp5264
S'BLK'
p5265
aS'NP'
p5266
aS'NP3'
p5267
aS'NP2'
p5268
asbsS'VGF3'
p5269
(issf_api
Node
p5270
(dp5271
g4668
S'ccof'
p5272
sg4670
g5269
sg4671
S'CCP'
p5273
sg4673
I-1
sg30
I16
sg4674
(lp5274
g5249
ag5255
aS'NP7'
p5275
asbsS'VGF2'
p5276
(issf_api
Node
p5277
(dp5278
g4668
S'ccof'
p5279
sg4670
g5276
sg4671
S'CCP'
p5280
sg4673
I-1
sg30
I12
sg4674
(lp5281
S'NP5'
p5282
aS'JJP2'
p5283
aS'NP9'
p5284
aS'NP4'
p5285
aS'NP6'
p5286
asbsS'JJP'
p5287
(issf_api
Node
p5288
(dp5289
g4668
S'nmod'
p5290
sg4670
g5287
sg4671
S'NP7'
p5291
sg4673
I-1
sg30
I7
sg4674
(lp5292
sbsg5282
(issf_api
Node
p5293
(dp5294
g4668
S'k1'
p5295
sg4670
g5282
sg4671
S'VGF2'
p5296
sg4673
I-1
sg30
I5
sg4674
(lp5297
sbsg5283
(issf_api
Node
p5298
(dp5299
g4668
S'pof'
p5300
sg4670
g5283
sg4671
S'VGF2'
p5301
sg4673
I-1
sg30
I11
sg4674
(lp5302
sbsg5284
(issf_api
Node
p5303
(dp5304
g4668
S'k2'
p5305
sg4670
g5284
sg4671
S'VGF2'
p5306
sg4673
I-1
sg30
I10
sg4674
(lp5307
S'NP8'
p5308
asbsg5308
(issf_api
Node
p5309
(dp5310
g4668
S'r6'
p5311
sg4670
g5308
sg4671
S'NP9'
p5312
sg4673
I-1
sg30
I9
sg4674
(lp5313
sbsg5265
(issf_api
Node
p5314
(dp5315
g4668
S'rsym'
p5316
sg4670
g5265
sg4671
S'VGF'
p5317
sg4673
I-1
sg30
I17
sg4674
(lp5318
sbsg5266
(issf_api
Node
p5319
(dp5320
g4668
S'k4'
p5321
sg4670
g5266
sg4671
S'VGF'
p5322
sg4673
I-1
sg30
I0
sg4674
(lp5323
sbsg5285
(issf_api
Node
p5324
(dp5325
g4668
S'k7t'
p5326
sg4670
g5285
sg4671
S'VGF2'
p5327
sg4673
I-1
sg30
I4
sg4674
(lp5328
sbsg5275
(issf_api
Node
p5329
(dp5330
g4668
S'k7'
p5331
sg4670
g5275
sg4671
S'VGF3'
p5332
sg4673
I-1
sg30
I8
sg4674
(lp5333
g5287
asbsg5286
(issf_api
Node
p5334
(dp5335
g4668
S'k5'
p5336
sg4670
g5286
sg4671
S'VGF2'
p5337
sg4673
I-1
sg30
I6
sg4674
(lp5338
sbsS'CCP'
p5339
(issf_api
Node
p5340
(dp5341
g4668
S'nmod__relc'
p5342
sg4670
g5339
sg4671
S'NP3'
p5343
sg4673
I-1
sg30
I13
sg4674
(lp5344
g5269
ag5276
asbsg5267
(issf_api
Node
p5345
(dp5346
g4668
S'k7t'
p5347
sg4670
g5267
sg4671
S'VGF'
p5348
sg4673
I-1
sg30
I2
sg4674
(lp5349
g5339
asbsg5268
(issf_api
Node
p5350
(dp5351
g4668
S'pof'
p5352
sg4670
g5268
sg4671
S'VGF'
p5353
sg4673
I-1
sg30
I1
sg4674
(lp5354
sbssg4783
(lp5355
(issf_api
Chunk
p5356
(dp5357
g4670
g1749
sg30
I0
sg4787
g1760
sg31
I3
sg4661
(lp5358
I84
aI85
asg36
(issf_api
FeatureSet
p5359
(dp5360
g12
(dp5361
S'name'
p5362
g5266
sS'drel'
p5363
S'k4:VGF'
p5364
ssbsba(issf_api
Chunk
p5365
(dp5366
g4670
g1808
sg30
I1
sg4787
g1813
sg31
I3
sg4661
(lp5367
I86
aI87
asg36
(issf_api
FeatureSet
p5368
(dp5369
g12
(dp5370
S'name'
p5371
g5268
sS'drel'
p5372
S'pof:VGF'
p5373
ssbsba(issf_api
Chunk
p5374
(dp5375
g4670
g1848
sg30
I2
sg4787
g1859
sg31
I3
sg4661
(lp5376
I88
aI89
aI90
asg36
(issf_api
FeatureSet
p5377
(dp5378
g12
(dp5379
S'name'
p5380
g5267
sS'drel'
p5381
S'k7t:VGF'
p5382
ssbsba(issf_api
Chunk
p5383
(dp5384
g4670
g1890
sg30
I3
sg4787
g1897
sg31
I3
sg4661
(lp5385
I91
aI92
asg36
(issf_api
FeatureSet
p5386
(dp5387
g12
(dp5388
S'name'
p5389
g5261
ssbsba(issf_api
Chunk
p5390
(dp5391
g4670
g1931
sg30
I4
sg4787
g1938
sg31
I3
sg4661
(lp5392
I93
asg36
(issf_api
FeatureSet
p5393
(dp5394
g12
(dp5395
S'name'
p5396
g5285
sS'drel'
p5397
S'k7t:VGF2'
p5398
ssbsba(issf_api
Chunk
p5399
(dp5400
g4670
g1954
sg30
I5
sg4787
g1965
sg31
I3
sg4661
(lp5401
I94
aI95
asg36
(issf_api
FeatureSet
p5402
(dp5403
g12
(dp5404
S'name'
p5405
g5282
sS'drel'
p5406
S'k1:VGF2'
p5407
ssbsba(issf_api
Chunk
p5408
(dp5409
g4670
g2040
sg30
I6
sg4787
g2049
sg31
I3
sg4661
(lp5410
I96
aI97
aI98
aI99
asg36
(issf_api
FeatureSet
p5411
(dp5412
g12
(dp5413
S'name'
p5414
g5286
sS'drel'
p5415
S'k5:VGF2'
p5416
ssbsba(issf_api
Chunk
p5417
(dp5418
g4670
g2082
sg30
I7
sg4787
g2089
sg31
I3
sg4661
(lp5419
I100
asg36
(issf_api
FeatureSet
p5420
(dp5421
g12
(dp5422
S'name'
p5423
g5287
sS'drel'
p5424
S'nmod:NP7'
p5425
ssbsba(issf_api
Chunk
p5426
(dp5427
g4670
g2141
sg30
I8
sg4787
g2150
sg31
I3
sg4661
(lp5428
I101
aI102
aI103
aI104
aI105
aI106
asg36
(issf_api
FeatureSet
p5429
(dp5430
g12
(dp5431
S'name'
p5432
g5275
sS'drel'
p5433
S'k7:VGF3'
p5434
ssbsba(issf_api
Chunk
p5435
(dp5436
g4670
g2223
sg30
I9
sg4787
g2232
sg31
I3
sg4661
(lp5437
I107
asg36
(issf_api
FeatureSet
p5438
(dp5439
g12
(dp5440
S'name'
p5441
g5308
sS'drel'
p5442
S'r6:NP9'
p5443
ssbsba(issf_api
Chunk
p5444
(dp5445
g4670
g2246
sg30
I10
sg4787
g2253
sg31
I3
sg4661
(lp5446
I108
asg36
(issf_api
FeatureSet
p5447
(dp5448
g12
(dp5449
S'name'
p5450
g5284
sS'drel'
p5451
S'k2:VGF2'
p5452
ssbsba(issf_api
Chunk
p5453
(dp5454
g4670
g2267
sg30
I11
sg4787
g2274
sg31
I3
sg4661
(lp5455
I109
asg36
(issf_api
FeatureSet
p5456
(dp5457
g12
(dp5458
S'name'
p5459
g5283
sS'drel'
p5460
S'pof:VGF2'
p5461
ssbsba(issf_api
Chunk
p5462
(dp5463
g4670
g2290
sg30
I12
sg4787
g2307
sg31
I3
sg4661
(lp5464
I110
aI111
asg36
(issf_api
FeatureSet
p5465
(dp5466
g12
(dp5467
S'name'
p5468
g5276
sS'drel'
p5469
S'ccof:CCP'
p5470
ssbsba(issf_api
Chunk
p5471
(dp5472
g4670
g2340
sg30
I13
sg4787
g2345
sg31
I3
sg4661
(lp5473
I112
asg36
(issf_api
FeatureSet
p5474
(dp5475
g12
(dp5476
S'name'
p5477
g5339
sS'drel'
p5478
S'nmod__relc:NP3'
p5479
ssbsba(issf_api
Chunk
p5480
(dp5481
g4670
g2361
sg30
I14
sg4787
g2370
sg31
I3
sg4661
(lp5482
I113
asg36
(issf_api
FeatureSet
p5483
(dp5484
g12
(dp5485
S'name'
p5486
g5255
sS'drel'
p5487
S'k1:VGF3'
p5488
ssbsba(issf_api
Chunk
p5489
(dp5490
g4670
g2386
sg30
I15
sg4787
g2395
sg31
I3
sg4661
(lp5491
I114
asg36
(issf_api
FeatureSet
p5492
(dp5493
g12
(dp5494
S'name'
p5495
g5249
sS'drel'
p5496
S'k2:VGF3'
p5497
ssbsba(issf_api
Chunk
p5498
(dp5499
g4670
g2409
sg30
I16
sg4787
g2420
sg31
I3
sg4661
(lp5500
I115
aI116
asg36
(issf_api
FeatureSet
p5501
(dp5502
g12
(dp5503
S'name'
p5504
g5269
sS'drel'
p5505
S'ccof:CCP'
p5506
ssbsba(issf_api
Chunk
p5507
(dp5508
g4670
g2451
sg30
I17
sg4787
g2456
sg31
I3
sg4661
(lp5509
I117
asg36
(issf_api
FeatureSet
p5510
(dp5511
g12
(dp5512
S'name'
p5513
g5265
sS'drel'
p5514
S'rsym:VGF'
p5515
ssbsbasba(issf_api
Sentence
p5516
(dp5517
g4659
(lp5518
sg31
I4
sg4661
(lp5519
I118
aI119
aI120
aI121
aI122
aI123
aI124
aI125
aI126
aI127
aI128
aI129
aI130
aI131
aI132
aI133
aI134
aI135
aI136
aI137
aI138
aI139
aI140
asg4663
(dp5520
S'VGF2'
p5521
(issf_api
Node
p5522
(dp5523
g4668
S'ccof'
p5524
sg4670
g5521
sg4671
S'CCP'
p5525
sg4673
I-1
sg30
I13
sg4674
(lp5526
S'NP9'
p5527
aS'NP8'
p5528
aS'NP7'
p5529
asbsS'VGNN'
p5530
(issf_api
Node
p5531
(dp5532
g4668
S'k7'
p5533
sg4670
g5530
sg4671
S'VGF'
p5534
sg4673
I-1
sg30
I4
sg4674
(lp5535
S'NP4'
p5536
asbsS'VGF'
p5537
(issf_api
Node
p5538
(dp5539
g4668
S'ccof'
p5540
sg4670
g5537
sg4671
S'CCP'
p5541
sg4673
I-1
sg30
I6
sg4674
(lp5542
g5530
aS'JJP'
p5543
aS'NP'
p5544
aS'NP2'
p5545
asbsS'CCP'
p5546
(issf_api
Node
p5547
(dp5548
g4668
g4695
sg4670
g5546
sg4671
g4695
sg4673
I-1
sg30
I7
sg4674
(lp5549
g5521
ag5537
aS'BLK'
p5550
asbsg5543
(issf_api
Node
p5551
(dp5552
g4668
S'k1s'
p5553
sg4670
g5543
sg4671
S'VGF'
p5554
sg4673
I-1
sg30
I5
sg4674
(lp5555
sbsS'NP5'
p5556
(issf_api
Node
p5557
(dp5558
g4668
S'r6'
p5559
sg4670
g5556
sg4671
S'NP6'
p5560
sg4673
I-1
sg30
I8
sg4674
(lp5561
sbsg5527
(issf_api
Node
p5562
(dp5563
g4668
S'pof'
p5564
sg4670
g5527
sg4671
S'VGF2'
p5565
sg4673
I-1
sg30
I12
sg4674
(lp5566
sbsg5528
(issf_api
Node
p5567
(dp5568
g4668
S'k4'
p5569
sg4670
g5528
sg4671
S'VGF2'
p5570
sg4673
I-1
sg30
I11
sg4674
(lp5571
sbsg5550
(issf_api
Node
p5572
(dp5573
g4668
S'rsym'
p5574
sg4670
g5550
sg4671
S'CCP'
p5575
sg4673
I-1
sg30
I14
sg4674
(lp5576
sbsg5544
(issf_api
Node
p5577
(dp5578
g4668
S'k7t'
p5579
sg4670
g5544
sg4671
S'VGF'
p5580
sg4673
I-1
sg30
I0
sg4674
(lp5581
sbsg5536
(issf_api
Node
p5582
(dp5583
g4668
S'k2'
p5584
sg4670
g5536
sg4671
S'VGNN'
p5585
sg4673
I-1
sg30
I3
sg4674
(lp5586
S'NP3'
p5587
asbsg5529
(issf_api
Node
p5588
(dp5589
g4668
S'k3'
p5590
sg4670
g5529
sg4671
S'VGF2'
p5591
sg4673
I-1
sg30
I10
sg4674
(lp5592
S'NP6'
p5593
asbsg5593
(issf_api
Node
p5594
(dp5595
g4668
S'r6'
p5596
sg4670
g5593
sg4671
S'NP7'
p5597
sg4673
I-1
sg30
I9
sg4674
(lp5598
g5556
asbsg5587
(issf_api
Node
p5599
(dp5600
g4668
S'r6'
p5601
sg4670
g5587
sg4671
S'NP4'
p5602
sg4673
I-1
sg30
I2
sg4674
(lp5603
sbsg5545
(issf_api
Node
p5604
(dp5605
g4668
S'k1'
p5606
sg4670
g5545
sg4671
S'VGF'
p5607
sg4673
I-1
sg30
I1
sg4674
(lp5608
sbssg4783
(lp5609
(issf_api
Chunk
p5610
(dp5611
g4670
g2487
sg30
I0
sg4787
g2494
sg31
I4
sg4661
(lp5612
I118
aI119
aI120
asg36
(issf_api
FeatureSet
p5613
(dp5614
g12
(dp5615
S'name'
p5616
g5544
sS'drel'
p5617
S'k7t:VGF'
p5618
ssbsba(issf_api
Chunk
p5619
(dp5620
g4670
g2527
sg30
I1
sg4787
g2536
sg31
I4
sg4661
(lp5621
I121
asg36
(issf_api
FeatureSet
p5622
(dp5623
g12
(dp5624
S'name'
p5625
g5545
sS'drel'
p5626
S'k1:VGF'
p5627
ssbsba(issf_api
Chunk
p5628
(dp5629
g4670
g2552
sg30
I2
sg4787
g2561
sg31
I4
sg4661
(lp5630
I122
asg36
(issf_api
FeatureSet
p5631
(dp5632
g12
(dp5633
S'name'
p5634
g5587
sS'drel'
p5635
S'r6:NP4'
p5636
ssbsba(issf_api
Chunk
p5637
(dp5638
g4670
g2575
sg30
I3
sg4787
g2580
sg31
I4
sg4661
(lp5639
I123
asg36
(issf_api
FeatureSet
p5640
(dp5641
g12
(dp5642
S'name'
p5643
g5536
sS'drel'
p5644
S'k2:VGNN'
p5645
ssbsba(issf_api
Chunk
p5646
(dp5647
g4670
g2594
sg30
I4
sg4787
g2601
sg31
I4
sg4661
(lp5648
I124
aI125
asg36
(issf_api
FeatureSet
p5649
(dp5650
g12
(dp5651
S'name'
p5652
g5530
sS'drel'
p5653
S'k7:VGF'
p5654
ssbsba(issf_api
Chunk
p5655
(dp5656
g4670
g2632
sg30
I5
sg4787
g2637
sg31
I4
sg4661
(lp5657
I126
asg36
(issf_api
FeatureSet
p5658
(dp5659
g12
(dp5660
S'name'
p5661
g5543
sS'drel'
p5662
S'k1s:VGF'
p5663
ssbsba(issf_api
Chunk
p5664
(dp5665
g4670
g2651
sg30
I6
sg4787
g2660
sg31
I4
sg4661
(lp5666
I127
asg36
(issf_api
FeatureSet
p5667
(dp5668
g12
(dp5669
S'name'
p5670
g5537
sS'drel'
p5671
S'ccof:CCP'
p5672
ssbsba(issf_api
Chunk
p5673
(dp5674
g4670
g2670
sg30
I7
sg4787
g2677
sg31
I4
sg4661
(lp5675
I128
asg36
(issf_api
FeatureSet
p5676
(dp5677
g12
(dp5678
S'name'
p5679
g5546
ssbsba(issf_api
Chunk
p5680
(dp5681
g4670
g2691
sg30
I8
sg4787
g2698
sg31
I4
sg4661
(lp5682
I129
aI130
asg36
(issf_api
FeatureSet
p5683
(dp5684
g12
(dp5685
S'name'
p5686
g5556
sS'drel'
p5687
S'r6:NP6'
p5688
ssbsba(issf_api
Chunk
p5689
(dp5690
g4670
g2763
sg30
I9
sg4787
g2770
sg31
I4
sg4661
(lp5691
I131
aI132
aI133
aI134
asg36
(issf_api
FeatureSet
p5692
(dp5693
g12
(dp5694
S'name'
p5695
g5593
sS'drel'
p5696
S'r6:NP7'
p5697
ssbsba(issf_api
Chunk
p5698
(dp5699
g4670
g2801
sg30
I10
sg4787
g2806
sg31
I4
sg4661
(lp5700
I135
asg36
(issf_api
FeatureSet
p5701
(dp5702
g12
(dp5703
S'name'
p5704
g5529
sS'drel'
p5705
S'k3:VGF2'
p5706
ssbsba(issf_api
Chunk
p5707
(dp5708
g4670
g2822
sg30
I11
sg4787
g2831
sg31
I4
sg4661
(lp5709
I136
asg36
(issf_api
FeatureSet
p5710
(dp5711
g12
(dp5712
S'name'
p5713
g5528
sS'drel'
p5714
S'k4:VGF2'
p5715
ssbsba(issf_api
Chunk
p5716
(dp5717
g4670
g2845
sg30
I12
sg4787
g2850
sg31
I4
sg4661
(lp5718
I137
asg36
(issf_api
FeatureSet
p5719
(dp5720
g12
(dp5721
S'name'
p5722
g5527
sS'drel'
p5723
S'pof:VGF2'
p5724
ssbsba(issf_api
Chunk
p5725
(dp5726
g4670
g2864
sg30
I13
sg4787
g2875
sg31
I4
sg4661
(lp5727
I138
aI139
asg36
(issf_api
FeatureSet
p5728
(dp5729
g12
(dp5730
S'name'
p5731
g5521
sS'drel'
p5732
S'ccof:CCP'
p5733
ssbsba(issf_api
Chunk
p5734
(dp5735
g4670
g2906
sg30
I14
sg4787
g2911
sg31
I4
sg4661
(lp5736
I140
asg36
(issf_api
FeatureSet
p5737
(dp5738
g12
(dp5739
S'name'
p5740
g5550
sS'drel'
p5741
S'rsym:CCP'
p5742
ssbsbasba(issf_api
Sentence
p5743
(dp5744
g4659
(lp5745
sg31
I5
sg4661
(lp5746
I141
aI142
aI143
aI144
aI145
aI146
aI147
aI148
aI149
aI150
aI151
aI152
aI153
aI154
aI155
aI156
aI157
aI158
aI159
aI160
aI161
aI162
asg4663
(dp5747
S'VGF'
p5748
(issf_api
Node
p5749
(dp5750
g4668
g4695
sg4670
g5748
sg4671
g4695
sg4673
I-1
sg30
I3
sg4674
(lp5751
S'BLK'
p5752
aS'NP'
p5753
aS'NP3'
p5754
aS'NP2'
p5755
asbsS'CCP'
p5756
(issf_api
Node
p5757
(dp5758
g4668
S'k7p'
p5759
sg4670
g5756
sg4671
S'VGF2'
p5760
sg4673
I-1
sg30
I6
sg4674
(lp5761
S'NP5'
p5762
aS'NP6'
p5763
asbsS'VGF2'
p5764
(issf_api
Node
p5765
(dp5766
g4668
S'nmod__relc'
p5767
sg4670
g5764
sg4671
S'NP'
p5768
sg4673
I-1
sg30
I10
sg4674
(lp5769
g5756
aS'NP8'
p5770
aS'NP4'
p5771
aS'NP7'
p5772
asbsg5762
(issf_api
Node
p5773
(dp5774
g4668
S'ccof'
p5775
sg4670
g5762
sg4671
S'CCP'
p5776
sg4673
I-1
sg30
I5
sg4674
(lp5777
sbsg5770
(issf_api
Node
p5778
(dp5779
g4668
S'k2'
p5780
sg4670
g5770
sg4671
S'VGF2'
p5781
sg4673
I-1
sg30
I9
sg4674
(lp5782
sbsg5752
(issf_api
Node
p5783
(dp5784
g4668
S'rsym'
p5785
sg4670
g5752
sg4671
S'VGF'
p5786
sg4673
I-1
sg30
I11
sg4674
(lp5787
sbsg5753
(issf_api
Node
p5788
(dp5789
g4668
S'k7t'
p5790
sg4670
g5753
sg4671
S'VGF'
p5791
sg4673
I-1
sg30
I0
sg4674
(lp5792
g5764
asbsg5771
(issf_api
Node
p5793
(dp5794
g4668
S'k7t'
p5795
sg4670
g5771
sg4671
S'VGF2'
p5796
sg4673
I-1
sg30
I4
sg4674
(lp5797
sbsg5772
(issf_api
Node
p5798
(dp5799
g4668
S'k1'
p5800
sg4670
g5772
sg4671
S'VGF2'
p5801
sg4673
I-1
sg30
I8
sg4674
(lp5802
sbsg5763
(issf_api
Node
p5803
(dp5804
g4668
S'ccof'
p5805
sg4670
g5763
sg4671
S'CCP'
p5806
sg4673
I-1
sg30
I7
sg4674
(lp5807
sbsg5754
(issf_api
Node
p5808
(dp5809
g4668
S'k1'
p5810
sg4670
g5754
sg4671
S'VGF'
p5811
sg4673
I-1
sg30
I2
sg4674
(lp5812
sbsg5755
(issf_api
Node
p5813
(dp5814
g4668
S'k4a'
p5815
sg4670
g5755
sg4671
S'VGF'
p5816
sg4673
I-1
sg30
I1
sg4674
(lp5817
sbssg4783
(lp5818
(issf_api
Chunk
p5819
(dp5820
g4670
g2959
sg30
I0
sg4787
g2964
sg31
I5
sg4661
(lp5821
I141
aI142
aI143
asg36
(issf_api
FeatureSet
p5822
(dp5823
g12
(dp5824
S'name'
p5825
g5753
sS'drel'
p5826
S'k7t:VGF'
p5827
ssbsba(issf_api
Chunk
p5828
(dp5829
g4670
g2980
sg30
I1
sg4787
g2989
sg31
I5
sg4661
(lp5830
I144
asg36
(issf_api
FeatureSet
p5831
(dp5832
g12
(dp5833
S'name'
p5834
g5755
sS'drel'
p5835
S'k4a:VGF'
p5836
ssbsba(issf_api
Chunk
p5837
(dp5838
g4670
g3020
sg30
I2
sg4787
g3025
sg31
I5
sg4661
(lp5839
I145
aI146
asg36
(issf_api
FeatureSet
p5840
(dp5841
g12
(dp5842
S'name'
p5843
g5754
sS'drel'
p5844
S'k1:VGF'
p5845
ssbsba(issf_api
Chunk
p5846
(dp5847
g4670
g3039
sg30
I3
sg4787
g3046
sg31
I5
sg4661
(lp5848
I147
aI148
asg36
(issf_api
FeatureSet
p5849
(dp5850
g12
(dp5851
S'name'
p5852
g5748
ssbsba(issf_api
Chunk
p5853
(dp5854
g4670
g3080
sg30
I4
sg4787
g3087
sg31
I5
sg4661
(lp5855
I149
asg36
(issf_api
FeatureSet
p5856
(dp5857
g12
(dp5858
S'name'
p5859
g5771
sS'drel'
p5860
S'k7t:VGF2'
p5861
ssbsba(issf_api
Chunk
p5862
(dp5863
g4670
g3120
sg30
I5
sg4787
g3127
sg31
I5
sg4661
(lp5864
I150
aI151
asg36
(issf_api
FeatureSet
p5865
(dp5866
g12
(dp5867
S'name'
p5868
g5762
sS'drel'
p5869
S'ccof:CCP'
p5870
ssbsba(issf_api
Chunk
p5871
(dp5872
g4670
g3141
sg30
I6
sg4787
g3148
sg31
I5
sg4661
(lp5873
I152
asg36
(issf_api
FeatureSet
p5874
(dp5875
g12
(dp5876
S'name'
p5877
g5756
sS'drel'
p5878
S'k7p:VGF2'
p5879
ssbsba(issf_api
Chunk
p5880
(dp5881
g4670
g3204
sg30
I7
sg4787
g3213
sg31
I5
sg4661
(lp5882
I153
aI154
aI155
aI156
asg36
(issf_api
FeatureSet
p5883
(dp5884
g12
(dp5885
S'name'
p5886
g5763
sS'drel'
p5887
S'ccof:CCP'
p5888
ssbsba(issf_api
Chunk
p5889
(dp5890
g4670
g3246
sg30
I8
sg4787
g3255
sg31
I5
sg4661
(lp5891
I157
aI158
asg36
(issf_api
FeatureSet
p5892
(dp5893
g12
(dp5894
S'name'
p5895
g5772
sS'drel'
p5896
S'k1:VGF2'
p5897
ssbsba(issf_api
Chunk
p5898
(dp5899
g4670
g3290
sg30
I9
sg4787
g3299
sg31
I5
sg4661
(lp5900
I159
asg36
(issf_api
FeatureSet
p5901
(dp5902
g12
(dp5903
S'name'
p5904
g5770
sS'drel'
p5905
S'k2:VGF2'
p5906
ssbsba(issf_api
Chunk
p5907
(dp5908
g4670
g3315
sg30
I10
sg4787
g3332
sg31
I5
sg4661
(lp5909
I160
aI161
asg36
(issf_api
FeatureSet
p5910
(dp5911
g12
(dp5912
S'name'
p5913
g5764
sS'drel'
p5914
S'nmod__relc:NP'
p5915
ssbsba(issf_api
Chunk
p5916
(dp5917
g4670
g3365
sg30
I11
sg4787
g3370
sg31
I5
sg4661
(lp5918
I162
asg36
(issf_api
FeatureSet
p5919
(dp5920
g12
(dp5921
S'name'
p5922
g5752
sS'drel'
p5923
S'rsym:VGF'
p5924
ssbsbasba(issf_api
Sentence
p5925
(dp5926
g4659
(lp5927
sg31
I6
sg4661
(lp5928
I163
aI164
aI165
aI166
aI167
aI168
aI169
aI170
aI171
aI172
aI173
aI174
aI175
aI176
aI177
aI178
aI179
aI180
aI181
aI182
aI183
aI184
aI185
aI186
aI187
aI188
asg4663
(dp5929
S'NP11'
p5930
(issf_api
Node
p5931
(dp5932
g4668
S'ccof'
p5933
sg4670
g5930
sg4671
S'CCP'
p5934
sg4673
I-1
sg30
I11
sg4674
(lp5935
S'NP10'
p5936
asbsg5936
(issf_api
Node
p5937
(dp5938
g4668
S'nmod'
p5939
sg4670
g5936
sg4671
S'NP11'
p5940
sg4673
I-1
sg30
I10
sg4674
(lp5941
S'NP9'
p5942
asbsS'VGF'
p5943
(issf_api
Node
p5944
(dp5945
g4668
g4695
sg4670
g5943
sg4671
g4695
sg4673
I-1
sg30
I12
sg4674
(lp5946
S'CCP'
p5947
aS'BLK'
p5948
aS'NP'
p5949
aS'NP2'
p5950
asbsg5947
(issf_api
Node
p5951
(dp5952
g4668
S'k5'
p5953
sg4670
g5947
sg4671
S'VGF'
p5954
sg4673
I-1
sg30
I5
sg4674
(lp5955
g5930
aS'NP5'
p5956
asbsg5956
(issf_api
Node
p5957
(dp5958
g4668
S'ccof'
p5959
sg4670
g5956
sg4671
S'CCP'
p5960
sg4673
I-1
sg30
I4
sg4674
(lp5961
S'NP4'
p5962
asbsg5942
(issf_api
Node
p5963
(dp5964
g4668
S'r6'
p5965
sg4670
g5942
sg4671
S'NP10'
p5966
sg4673
I-1
sg30
I9
sg4674
(lp5967
S'NP8'
p5968
asbsg5968
(issf_api
Node
p5969
(dp5970
g4668
S'nmod'
p5971
sg4670
g5968
sg4671
S'NP9'
p5972
sg4673
I-1
sg30
I8
sg4674
(lp5973
S'NP7'
p5974
asbsg5948
(issf_api
Node
p5975
(dp5976
g4668
S'rsym'
p5977
sg4670
g5948
sg4671
S'VGF'
p5978
sg4673
I-1
sg30
I13
sg4674
(lp5979
sbsg5949
(issf_api
Node
p5980
(dp5981
g4668
S'k7'
p5982
sg4670
g5949
sg4671
S'VGF'
p5983
sg4673
I-1
sg30
I0
sg4674
(lp5984
sbsg5962
(issf_api
Node
p5985
(dp5986
g4668
S'nmod'
p5987
sg4670
g5962
sg4671
S'NP5'
p5988
sg4673
I-1
sg30
I3
sg4674
(lp5989
S'NP3'
p5990
asbsg5974
(issf_api
Node
p5991
(dp5992
g4668
S'nmod'
p5993
sg4670
g5974
sg4671
S'NP8'
p5994
sg4673
I-1
sg30
I7
sg4674
(lp5995
S'NP6'
p5996
asbsg5996
(issf_api
Node
p5997
(dp5998
g4668
S'r6'
p5999
sg4670
g5996
sg4671
S'NP7'
p6000
sg4673
I-1
sg30
I6
sg4674
(lp6001
sbsg5990
(issf_api
Node
p6002
(dp6003
g4668
S'r6'
p6004
sg4670
g5990
sg4671
S'NP4'
p6005
sg4673
I-1
sg30
I2
sg4674
(lp6006
sbsg5950
(issf_api
Node
p6007
(dp6008
g4668
S'k1'
p6009
sg4670
g5950
sg4671
S'VGF'
p6010
sg4673
I-1
sg30
I1
sg4674
(lp6011
sbssg4783
(lp6012
(issf_api
Chunk
p6013
(dp6014
g4670
g3405
sg30
I0
sg4787
g3416
sg31
I6
sg4661
(lp6015
I163
aI164
aI165
asg36
(issf_api
FeatureSet
p6016
(dp6017
g12
(dp6018
S'name'
p6019
g5949
sS'drel'
p6020
S'k7:VGF'
p6021
ssbsba(issf_api
Chunk
p6022
(dp6023
g4670
g3449
sg30
I1
sg4787
g3458
sg31
I6
sg4661
(lp6024
I166
asg36
(issf_api
FeatureSet
p6025
(dp6026
g12
(dp6027
S'name'
p6028
g5950
sS'drel'
p6029
S'k1:VGF'
p6030
ssbsba(issf_api
Chunk
p6031
(dp6032
g4670
g3476
sg30
I2
sg4787
g3487
sg31
I6
sg4661
(lp6033
I167
asg36
(issf_api
FeatureSet
p6034
(dp6035
g12
(dp6036
S'name'
p6037
g5990
sS'drel'
p6038
S'r6:NP4'
p6039
ssbsba(issf_api
Chunk
p6040
(dp6041
g4670
g3522
sg30
I3
sg4787
g3531
sg31
I6
sg4661
(lp6042
I168
aI169
asg36
(issf_api
FeatureSet
p6043
(dp6044
g12
(dp6045
S'name'
p6046
g5962
sS'drel'
p6047
S'nmod:NP5'
p6048
ssbsba(issf_api
Chunk
p6049
(dp6050
g4670
g3547
sg30
I4
sg4787
g3558
sg31
I6
sg4661
(lp6051
I170
asg36
(issf_api
FeatureSet
p6052
(dp6053
g12
(dp6054
S'name'
p6055
g5956
sS'drel'
p6056
S'ccof:CCP'
p6057
ssbsba(issf_api
Chunk
p6058
(dp6059
g4670
g3572
sg30
I5
sg4787
g3577
sg31
I6
sg4661
(lp6060
I171
asg36
(issf_api
FeatureSet
p6061
(dp6062
g12
(dp6063
S'name'
p6064
g5947
sS'drel'
p6065
S'k5:VGF'
p6066
ssbsba(issf_api
Chunk
p6067
(dp6068
g4670
g3595
sg30
I6
sg4787
g3606
sg31
I6
sg4661
(lp6069
I172
asg36
(issf_api
FeatureSet
p6070
(dp6071
g12
(dp6072
S'name'
p6073
g5996
sS'drel'
p6074
S'r6:NP7'
p6075
ssbsba(issf_api
Chunk
p6076
(dp6077
g4670
g3641
sg30
I7
sg4787
g3650
sg31
I6
sg4661
(lp6078
I173
aI174
asg36
(issf_api
FeatureSet
p6079
(dp6080
g12
(dp6081
S'name'
p6082
g5974
sS'drel'
p6083
S'nmod:NP8'
p6084
ssbsba(issf_api
Chunk
p6085
(dp6086
g4670
g3704
sg30
I8
sg4787
g3715
sg31
I6
sg4661
(lp6087
I175
aI176
aI177
asg36
(issf_api
FeatureSet
p6088
(dp6089
g12
(dp6090
S'name'
p6091
g5968
sS'drel'
p6092
S'nmod:NP9'
p6093
ssbsba(issf_api
Chunk
p6094
(dp6095
g4670
g3731
sg30
I9
sg4787
g3740
sg31
I6
sg4661
(lp6096
I178
aI179
asg36
(issf_api
FeatureSet
p6097
(dp6098
g12
(dp6099
S'name'
p6100
g5942
sS'drel'
p6101
S'r6:NP10'
p6102
ssbsba(issf_api
Chunk
p6103
(dp6104
g4670
g3792
sg30
I10
sg4787
g3801
sg31
I6
sg4661
(lp6105
I180
aI181
asg36
(issf_api
FeatureSet
p6106
(dp6107
g12
(dp6108
S'name'
p6109
g5936
sS'drel'
p6110
S'nmod:NP11'
p6111
ssbsba(issf_api
Chunk
p6112
(dp6113
g4670
g3836
sg30
I11
sg4787
g3849
sg31
I6
sg4661
(lp6114
I182
aI183
aI184
asg36
(issf_api
FeatureSet
p6115
(dp6116
g12
(dp6117
S'name'
p6118
g5930
sS'drel'
p6119
S'ccof:CCP'
p6120
ssbsba(issf_api
Chunk
p6121
(dp6122
g4670
g3880
sg30
I12
sg4787
g3889
sg31
I6
sg4661
(lp6123
I185
aI186
aI187
asg36
(issf_api
FeatureSet
p6124
(dp6125
g12
(dp6126
S'name'
p6127
g5943
ssbsba(issf_api
Chunk
p6128
(dp6129
g4670
g3937
sg30
I13
sg4787
g3942
sg31
I6
sg4661
(lp6130
I188
asg36
(issf_api
FeatureSet
p6131
(dp6132
g12
(dp6133
S'name'
p6134
g5948
sS'drel'
p6135
S'rsym:VGF'
p6136
ssbsbasba(issf_api
Sentence
p6137
(dp6138
g4659
(lp6139
sg31
I7
sg4661
(lp6140
I189
aI190
aI191
aI192
aI193
aI194
aI195
aI196
aI197
aI198
aI199
aI200
aI201
aI202
aI203
aI204
aI205
aI206
aI207
aI208
aI209
aI210
aI211
asg4663
(dp6141
S'VGF2'
p6142
(issf_api
Node
p6143
(dp6144
g4668
S'ccof'
p6145
sg4670
g6142
sg4671
S'CCP'
p6146
sg4673
I-1
sg30
I11
sg4674
(lp6147
S'NP7'
p6148
asbsS'VGNN'
p6149
(issf_api
Node
p6150
(dp6151
g4668
S'nmod'
p6152
sg4670
g6149
sg4671
S'NP3'
p6153
sg4673
I-1
sg30
I2
sg4674
(lp6154
S'NP'
p6155
aS'NP2'
p6156
asbsS'VGF'
p6157
(issf_api
Node
p6158
(dp6159
g4668
S'ccof'
p6160
sg4670
g6157
sg4671
S'CCP'
p6161
sg4673
I-1
sg30
I8
sg4674
(lp6162
S'RBP'
p6163
aS'NP5'
p6164
aS'NP4'
p6165
aS'NP6'
p6166
asbsS'CCP'
p6167
(issf_api
Node
p6168
(dp6169
g4668
g4695
sg4670
g6167
sg4671
g4695
sg4673
I-1
sg30
I9
sg4674
(lp6170
g6142
ag6157
aS'BLK'
p6171
asbsg6163
(issf_api
Node
p6172
(dp6173
g4668
S'adv'
p6174
sg4670
g6163
sg4671
S'VGF'
p6175
sg4673
I-1
sg30
I6
sg4674
(lp6176
sbsg6164
(issf_api
Node
p6177
(dp6178
g4668
S'k7t'
p6179
sg4670
g6164
sg4671
S'VGF'
p6180
sg4673
I-1
sg30
I5
sg4674
(lp6181
sbsg6171
(issf_api
Node
p6182
(dp6183
g4668
S'rsym'
p6184
sg4670
g6171
sg4671
S'CCP'
p6185
sg4673
I-1
sg30
I12
sg4674
(lp6186
sbsg6155
(issf_api
Node
p6187
(dp6188
g4668
S'k7'
p6189
sg4670
g6155
sg4671
S'VGNN'
p6190
sg4673
I-1
sg30
I0
sg4674
(lp6191
sbsg6165
(issf_api
Node
p6192
(dp6193
g4668
S'k1'
p6194
sg4670
g6165
sg4671
S'VGF'
p6195
sg4673
I-1
sg30
I4
sg4674
(lp6196
S'NP3'
p6197
asbsg6148
(issf_api
Node
p6198
(dp6199
g4668
S'k5'
p6200
sg4670
g6148
sg4671
S'VGF2'
p6201
sg4673
I-1
sg30
I10
sg4674
(lp6202
sbsg6166
(issf_api
Node
p6203
(dp6204
g4668
S'pof'
p6205
sg4670
g6166
sg4671
S'VGF'
p6206
sg4673
I-1
sg30
I7
sg4674
(lp6207
sbsg6197
(issf_api
Node
p6208
(dp6209
g4668
S'r6'
p6210
sg4670
g6197
sg4671
S'NP4'
p6211
sg4673
I-1
sg30
I3
sg4674
(lp6212
g6149
asbsg6156
(issf_api
Node
p6213
(dp6214
g4668
S'pof'
p6215
sg4670
g6156
sg4671
S'VGNN'
p6216
sg4673
I-1
sg30
I1
sg4674
(lp6217
sbssg4783
(lp6218
(issf_api
Chunk
p6219
(dp6220
g4670
g3956
sg30
I0
sg4787
g3963
sg31
I7
sg4661
(lp6221
I189
aI190
asg36
(issf_api
FeatureSet
p6222
(dp6223
g12
(dp6224
S'name'
p6225
g6155
sS'drel'
p6226
S'k7:VGNN'
p6227
ssbsba(issf_api
Chunk
p6228
(dp6229
g4670
g3994
sg30
I1
sg4787
g3999
sg31
I7
sg4661
(lp6230
I191
asg36
(issf_api
FeatureSet
p6231
(dp6232
g12
(dp6233
S'name'
p6234
g6156
sS'drel'
p6235
S'pof:VGNN'
p6236
ssbsba(issf_api
Chunk
p6237
(dp6238
g4670
g4013
sg30
I2
sg4787
g4020
sg31
I7
sg4661
(lp6239
I192
aI193
asg36
(issf_api
FeatureSet
p6240
(dp6241
g12
(dp6242
S'name'
p6243
g6149
sS'drel'
p6244
S'nmod:NP3'
p6245
ssbsba(issf_api
Chunk
p6246
(dp6247
g4670
g4053
sg30
I3
sg4787
g4064
sg31
I7
sg4661
(lp6248
I194
aI195
asg36
(issf_api
FeatureSet
p6249
(dp6250
g12
(dp6251
S'name'
p6252
g6197
sS'drel'
p6253
S'r6:NP4'
p6254
ssbsba(issf_api
Chunk
p6255
(dp6256
g4670
g4095
sg30
I4
sg4787
g4102
sg31
I7
sg4661
(lp6257
I196
aI197
asg36
(issf_api
FeatureSet
p6258
(dp6259
g12
(dp6260
S'name'
p6261
g6165
sS'drel'
p6262
S'k1:VGF'
p6263
ssbsba(issf_api
Chunk
p6264
(dp6265
g4670
g4150
sg30
I5
sg4787
g4157
sg31
I7
sg4661
(lp6266
I198
aI199
aI200
asg36
(issf_api
FeatureSet
p6267
(dp6268
g12
(dp6269
S'name'
p6270
g6164
sS'drel'
p6271
S'k7t:VGF'
p6272
ssbsba(issf_api
Chunk
p6273
(dp6274
g4670
g4188
sg30
I6
sg4787
g4193
sg31
I7
sg4661
(lp6275
I201
asg36
(issf_api
FeatureSet
p6276
(dp6277
g12
(dp6278
S'name'
p6279
g6163
sS'drel'
p6280
S'adv:VGF'
p6281
ssbsba(issf_api
Chunk
p6282
(dp6283
g4670
g4207
sg30
I7
sg4787
g4212
sg31
I7
sg4661
(lp6284
I202
asg36
(issf_api
FeatureSet
p6285
(dp6286
g12
(dp6287
S'name'
p6288
g6166
sS'drel'
p6289
S'pof:VGF'
p6290
ssbsba(issf_api
Chunk
p6291
(dp6292
g4670
g4226
sg30
I8
sg4787
g4235
sg31
I7
sg4661
(lp6293
I203
asg36
(issf_api
FeatureSet
p6294
(dp6295
g12
(dp6296
S'name'
p6297
g6157
sS'drel'
p6298
S'ccof:CCP'
p6299
ssbsba(issf_api
Chunk
p6300
(dp6301
g4670
g4245
sg30
I9
sg4787
g4252
sg31
I7
sg4661
(lp6302
I204
asg36
(issf_api
FeatureSet
p6303
(dp6304
g12
(dp6305
S'name'
p6306
g6167
ssbsba(issf_api
Chunk
p6307
(dp6308
g4670
g4306
sg30
I10
sg4787
g4317
sg31
I7
sg4661
(lp6309
I205
aI206
aI207
aI208
asg36
(issf_api
FeatureSet
p6310
(dp6311
g12
(dp6312
S'name'
p6313
g6148
sS'drel'
p6314
S'k5:VGF2'
p6315
ssbsba(issf_api
Chunk
p6316
(dp6317
g4670
g4348
sg30
I11
sg4787
g4359
sg31
I7
sg4661
(lp6318
I209
aI210
asg36
(issf_api
FeatureSet
p6319
(dp6320
g12
(dp6321
S'name'
p6322
g6142
sS'drel'
p6323
S'ccof:CCP'
p6324
ssbsba(issf_api
Chunk
p6325
(dp6326
g4670
g4390
sg30
I12
sg4787
g4395
sg31
I7
sg4661
(lp6327
I211
asg36
(issf_api
FeatureSet
p6328
(dp6329
g12
(dp6330
S'name'
p6331
g6171
sS'drel'
p6332
S'rsym:CCP'
p6333
ssbsbasba(issf_api
Sentence
p6334
(dp6335
g4659
(lp6336
sg31
I8
sg4661
(lp6337
I212
aI213
aI214
aI215
aI216
aI217
aI218
aI219
aI220
aI221
aI222
aI223
aI224
asg4663
(dp6338
S'VGF'
p6339
(issf_api
Node
p6340
(dp6341
g4668
g4695
sg4670
g6339
sg4671
g4695
sg4673
I-1
sg30
I5
sg4674
(lp6342
S'NP5'
p6343
aS'BLK'
p6344
aS'NP'
p6345
aS'NP3'
p6346
aS'NP2'
p6347
asbsg6343
(issf_api
Node
p6348
(dp6349
g4668
S'pof'
p6350
sg4670
g6343
sg4671
S'VGF'
p6351
sg4673
I-1
sg30
I4
sg4674
(lp6352
S'NP4'
p6353
asbsg6344
(issf_api
Node
p6354
(dp6355
g4668
S'rsym'
p6356
sg4670
g6344
sg4671
S'VGF'
p6357
sg4673
I-1
sg30
I6
sg4674
(lp6358
sbsg6345
(issf_api
Node
p6359
(dp6360
g4668
S'k7t'
p6361
sg4670
g6345
sg4671
S'VGF'
p6362
sg4673
I-1
sg30
I0
sg4674
(lp6363
sbsg6353
(issf_api
Node
p6364
(dp6365
g4668
S'r6-k2'
p6366
sg4670
g6353
sg4671
S'NP5'
p6367
sg4673
I-1
sg30
I3
sg4674
(lp6368
sbsg6346
(issf_api
Node
p6369
(dp6370
g4668
S'k7'
p6371
sg4670
g6346
sg4671
S'VGF'
p6372
sg4673
I-1
sg30
I2
sg4674
(lp6373
sbsg6347
(issf_api
Node
p6374
(dp6375
g4668
S'k1'
p6376
sg4670
g6347
sg4671
S'VGF'
p6377
sg4673
I-1
sg30
I1
sg4674
(lp6378
sbssg4783
(lp6379
(issf_api
Chunk
p6380
(dp6381
g4670
g4409
sg30
I0
sg4787
g4416
sg31
I8
sg4661
(lp6382
I212
aI213
asg36
(issf_api
FeatureSet
p6383
(dp6384
g12
(dp6385
S'name'
p6386
g6345
sS'drel'
p6387
S'k7t:VGF'
p6388
ssbsba(issf_api
Chunk
p6389
(dp6390
g4670
g4449
sg30
I1
sg4787
g4458
sg31
I8
sg4661
(lp6391
I214
asg36
(issf_api
FeatureSet
p6392
(dp6393
g12
(dp6394
S'name'
p6395
g6347
sS'drel'
p6396
S'k1:VGF'
p6397
ssbsba(issf_api
Chunk
p6398
(dp6399
g4670
g4472
sg30
I2
sg4787
g4479
sg31
I8
sg4661
(lp6400
I215
aI216
asg36
(issf_api
FeatureSet
p6401
(dp6402
g12
(dp6403
S'name'
p6404
g6346
sS'drel'
p6405
S'k7:VGF'
p6406
ssbsba(issf_api
Chunk
p6407
(dp6408
g4670
g4531
sg30
I3
sg4787
g4542
sg31
I8
sg4661
(lp6409
I217
aI218
aI219
asg36
(issf_api
FeatureSet
p6410
(dp6411
g12
(dp6412
S'name'
p6413
g6353
sS'drel'
p6414
S'r6-k2:NP5'
p6415
ssbsba(issf_api
Chunk
p6416
(dp6417
g4670
g4573
sg30
I4
sg4787
g4578
sg31
I8
sg4661
(lp6418
I220
asg36
(issf_api
FeatureSet
p6419
(dp6420
g12
(dp6421
S'name'
p6422
g6343
sS'drel'
p6423
S'pof:VGF'
p6424
ssbsba(issf_api
Chunk
p6425
(dp6426
g4670
g4592
sg30
I5
sg4787
g4601
sg31
I8
sg4661
(lp6427
I221
aI222
aI223
asg36
(issf_api
FeatureSet
p6428
(dp6429
g12
(dp6430
S'name'
p6431
g6339
ssbsba(issf_api
Chunk
p6432
(dp6433
g4670
g4649
sg30
I6
sg4787
g4654
sg31
I8
sg4661
(lp6434
I224
asg36
(issf_api
FeatureSet
p6435
(dp6436
g12
(dp6437
S'name'
p6438
g6344
sS'drel'
p6439
S'rsym:VGF'
p6440
ssbsbasbasb.