(issf_api
SSFInfo
p0
(dp1
S'globalWordList'
p2
(lp3
(issf_api
Word
p4
(dp5
S'splitConn'
p6
I00
sS'word'
p7
V\u0907\u0930\u093e\u0915
p8
sS'extraFeatureSet'
p9
(issf_api
FeatureSet
p10
(dp11
S'featureDict'
p12
(dp13
S'crefhead'
p14
S'\xe0\xa4\x87\xe0\xa4\xb0\xe0\xa4\xbe\xe0\xa4\x95:i1'
p15
sS'posn'
p16
S'10'
p17
sS'name'
p18
S'\xe0\xa4\x87\xe0\xa4\xb0\xe0\xa4\xbe\xe0\xa4\x95'
p19
sS'af'
p20
S'\xe0\xa4\x87\xe0\xa4\xb0\xe0\xa4\xbe\xe0\xa4\x95,n,m,sg,3,o,0_\xe0\xa4\x95\xe0\xa4\xbe,0'
p21
sS'acrefmodhead'
p22
S'\xe0\xa4\x87\xe0\xa4\xb0\xe0\xa4\xbe\xe0\xa4\x95:m1'
p23
sS'chunkid'
p24
S'NP'
p25
sS'acrefmod'
p26
S'm1%1:i2'
p27
sS'chunktype'
p28
S'head:NP'
p29
sS'crefchainhead'
p30
S'i1:t1'
p31
sS'vpos'
p32
S'vib_2'
p33
sS'cref'
p34
S'i1%1:t1'
p35
sS'drel'
p36
S'r6:NP2'
p37
ssbsS'arg1'
p38
I00
sS'arg2'
p39
I00
sS'sense'
p40
NsS'arg1Span'
p41
NsS'chunkNum'
p42
I0
sS'sentenceNum'
p43
I0
sS'relationNum'
p44
NsS'arg2Span'
p45
NsS'wordTag'
p46
S'NNP'
p47
sS'featureSet'
p48
g10
sS'conn'
p49
I00
sba(issf_api
Word
p50
(dp51
g6
I00
sg7
V\u0915\u0947
p52
sg9
(issf_api
FeatureSet
p53
(dp54
g12
(dp55
S'posn'
p56
S'20'
p57
sS'name'
p58
S'\xe0\xa4\x95\xe0\xa5\x87'
p59
sS'drel'
p60
S'lwg__psp:NP'
p61
sS'chunktype'
p62
S'child:NP'
p63
sS'af'
p64
S'\xe0\xa4\x95\xe0\xa4\xbe,psp,m,sg,,o,,'
p65
ssbsg38
I00
sg39
I00
sg40
Nsg41
Nsg42
I0
sg43
I0
sg44
Nsg45
Nsg46
S'PSP'
p66
sg48
g53
sg49
I00
sba(issf_api
Word
p67
(dp68
g6
I00
sg7
V\u092b\u0932\u0941\u091c\u093e
p69
sg9
(issf_api
FeatureSet
p70
(dp71
g12
(dp72
S'crefhead'
p73
S'\xe0\xa4\xab\xe0\xa4\xb2\xe0\xa5\x81\xe0\xa4\x9c\xe0\xa4\xbe:i2'
p74
sS'posn'
p75
S'30'
p76
sS'name'
p77
S'\xe0\xa4\xab\xe0\xa4\xb2\xe0\xa5\x81\xe0\xa4\x9c\xe0\xa4\xbe'
p78
sS'af'
p79
S'\xe0\xa4\xab\xe0\xa4\xb2\xe0\xa5\x81\xe0\xa4\x9c\xe0\xa4\xbe,n,m,sg,3,d,0,0'
p80
sS'chunkid'
p81
S'NP2'
p82
sS'crefmod'
p83
S'm1:i2'
p84
sS'chunktype'
p85
S'head:NP2'
p86
sS'crefchainhead'
p87
S'i2:t2'
p88
sS'cref'
p89
S'i2%1:t2'
p90
sS'drel'
p91
S'jjmod:JJP'
p92
ssbsg38
I00
sg39
I00
sg40
Nsg41
Nsg42
I1
sg43
I0
sg44
Nsg45
Nsg46
S'NNP'
p93
sg48
g70
sg49
I00
sba(issf_api
Word
p94
(dp95
g6
I00
sg7
V\u0938\u094d\u0925\u093f\u0924
p96
sg9
(issf_api
FeatureSet
p97
(dp98
g12
(dp99
S'posn'
p100
S'40'
p101
sS'name'
p102
S'\xe0\xa4\xb8\xe0\xa5\x8d\xe0\xa4\xa5\xe0\xa4\xbf\xe0\xa4\xa4'
p103
sS'af'
p104
S'\xe0\xa4\xb8\xe0\xa5\x8d\xe0\xa4\xa5\xe0\xa4\xbf\xe0\xa4\xa4,adj,any,any,,o,,'
p105
sS'chunkid'
p106
S'JJP'
p107
sS'drel'
p108
S'nmod:NP3'
p109
sS'chunktype'
p110
S'head:JJP'
p111
ssbsg38
I00
sg39
I00
sg40
Nsg41
Nsg42
I2
sg43
I0
sg44
Nsg45
Nsg46
S'JJ'
p112
sg48
g97
sg49
I00
sba(issf_api
Word
p113
(dp114
g6
I00
sg7
V\u0938\u0902\u0926\u093f\u0917\u094d\u0927
p115
sg9
(issf_api
FeatureSet
p116
(dp117
g12
(dp118
S'posn'
p119
S'50'
p120
sS'name'
p121
S'\xe0\xa4\xb8\xe0\xa4\x82\xe0\xa4\xa6\xe0\xa4\xbf\xe0\xa4\x97\xe0\xa5\x8d\xe0\xa4\xa7'
p122
sS'drel'
p123
S'nmod__adj:NP3'
p124
sS'chunktype'
p125
S'child:NP3'
p126
sS'af'
p127
S'\xe0\xa4\xb8\xe0\xa4\x82\xe0\xa4\xa6\xe0\xa4\xbf\xe0\xa4\x97\xe0\xa5\x8d\xe0\xa4\xa7,adj,any,any,,o,,'
p128
ssbsg38
I00
sg39
I00
sg40
Nsg41
Nsg42
I3
sg43
I0
sg44
Nsg45
Nsg46
S'JJ'
p129
sg48
g116
sg49
I00
sba(issf_api
Word
p130
(dp131
g6
I00
sg7
V\u0906\u0924\u0902\u0915\u0940
p132
sg9
(issf_api
FeatureSet
p133
(dp134
g12
(dp135
S'posn'
p136
S'60'
p137
sS'name'
p138
S'\xe0\xa4\x86\xe0\xa4\xa4\xe0\xa4\x82\xe0\xa4\x95\xe0\xa5\x80'
p139
sS'drel'
p140
S'nmod__adj:NP3'
p141
sS'chunktype'
p142
S'child:NP3'
p143
sS'af'
p144
S'\xe0\xa4\x86\xe0\xa4\xa4\xe0\xa4\x82\xe0\xa4\x95\xe0\xa5\x80,adj,any,any,,o,,'
p145
ssbsg38
I00
sg39
I00
sg40
Nsg41
Nsg42
I3
sg43
I0
sg44
Nsg45
Nsg46
S'JJ'
p146
sg48
g133
sg49
I00
sba(issf_api
Word
p147
(dp148
g6
I00
sg7
V\u0920\u093f\u0915\u093e\u0928\u0947
p149
sg9
(issf_api
FeatureSet
p150
(dp151
g12
(dp152
S'posn'
p153
S'70'
p154
sS'name'
p155
S'\xe0\xa4\xa0\xe0\xa4\xbf\xe0\xa4\x95\xe0\xa4\xbe\xe0\xa4\xa8\xe0\xa5\x87'
p156
sS'af'
p157
S'\xe0\xa4\xa0\xe0\xa4\xbf\xe0\xa4\x95\xe0\xa4\xbe\xe0\xa4\xa8\xe0\xa4\xbe,n,m,sg,3,o,0_\xe0\xa4\xaa\xe0\xa4\xb0,0'
p158
sS'chunkid'
p159
S'NP3'
p160
sS'drel'
p161
S'k7p:VGNF'
p162
sS'vpos'
p163
S'vib_4'
p164
sS'chunktype'
p165
S'head:NP3'
p166
ssbsg38
I00
sg39
I00
sg40
Nsg41
Nsg42
I3
sg43
I0
sg44
Nsg45
Nsg46
S'NN'
p167
sg48
g150
sg49
I00
sba(issf_api
Word
p168
(dp169
g6
I00
sg7
V\u092a\u0930
p170
sg9
(issf_api
FeatureSet
p171
(dp172
g12
(dp173
S'posn'
p174
S'80'
p175
sS'name'
p176
S'\xe0\xa4\xaa\xe0\xa4\xb0'
p177
sS'drel'
p178
S'lwg__psp:NP3'
p179
sS'chunktype'
p180
S'child:NP3'
p181
sS'af'
p182
S'\xe0\xa4\xaa\xe0\xa4\xb0,psp,,,,,,'
p183
ssbsg38
I00
sg39
I00
sg40
Nsg41
Nsg42
I3
sg43
I0
sg44
Nsg45
Nsg46
S'PSP'
p184
sg48
g171
sg49
I00
sba(issf_api
Word
p185
(dp186
g6
I00
sg7
V\u0936\u0928\u093f\u0935\u093e\u0930
p187
sg9
(issf_api
FeatureSet
p188
(dp189
g12
(dp190
S'posn'
p191
S'90'
p192
sS'name'
p193
S'\xe0\xa4\xb6\xe0\xa4\xa8\xe0\xa4\xbf\xe0\xa4\xb5\xe0\xa4\xbe\xe0\xa4\xb0'
p194
sS'af'
p195
S'\xe0\xa4\xb6\xe0\xa4\xa8\xe0\xa4\xbf\xe0\xa4\xb5\xe0\xa4\xbe\xe0\xa4\xb0,n,m,sg,3,d,0,0'
p196
sS'drel'
p197
S'nmod__adj:NP4'
p198
sS'chunktype'
p199
S'child:NP4'
p200
sS'cref'
p201
S'i3%0:t3'
p202
ssbsg38
I00
sg39
I00
sg40
Nsg41
Nsg42
I4
sg43
I0
sg44
Nsg45
Nsg46
S'NNP'
p203
sg48
g188
sg49
I00
sba(issf_api
Word
p204
(dp205
g6
I00
sg7
V\u0930\u093e\u0924
p206
sg9
(issf_api
FeatureSet
p207
(dp208
g12
(dp209
S'crefhead'
p210
S'\xe0\xa4\xb0\xe0\xa4\xbe\xe0\xa4\xa4:i3'
p211
sS'posn'
p212
S'100'
p213
sS'name'
p214
S'\xe0\xa4\xb0\xe0\xa4\xbe\xe0\xa4\xa4'
p215
sS'af'
p216
S'\xe0\xa4\xb0\xe0\xa4\xbe\xe0\xa4\xa4,n,f,sg,3,d,0,0'
p217
sS'chunkid'
p218
S'NP4'
p219
sS'chunktype'
p220
S'head:NP4'
p221
sS'crefchainhead'
p222
S'i3:t3'
p223
sS'cref'
p224
S'i3%1:t3'
p225
sS'drel'
p226
S'k7t:VGNF'
p227
ssbsg38
I00
sg39
I00
sg40
Nsg41
Nsg42
I4
sg43
I0
sg44
Nsg45
Nsg46
S'NN'
p228
sg48
g207
sg49
I00
sba(issf_api
Word
p229
(dp230
g6
I00
sg7
V\u0939\u0941\u090f
p231
sg9
(issf_api
FeatureSet
p232
(dp233
g12
(dp234
S'posn'
p235
S'110'
p236
sS'name'
p237
S'\xe0\xa4\xb9\xe0\xa5\x81\xe0\xa4\x8f'
p238
sS'af'
p239
S'\xe0\xa4\xb9\xe0\xa5\x8b,v,m,sg,3,,\xe0\xa4\xaf\xe0\xa4\xbe,yA'
p240
sS'chunkid'
p241
S'VGNF'
p242
sS'drel'
p243
S'nmod__k1inv:NP5'
p244
sS'chunktype'
p245
S'head:VGNF'
p246
ssbsg38
I00
sg39
I00
sg40
Nsg41
Nsg42
I5
sg43
I0
sg44
Nsg45
Nsg46
S'VM'
p247
sg48
g232
sg49
I00
sba(issf_api
Word
p248
(dp249
g6
I00
sg7
V\u0905\u092e\u0947\u0930\u093f\u0915\u0940
p250
sg9
(issf_api
FeatureSet
p251
(dp252
g12
(dp253
S'posn'
p254
S'120'
p255
sS'name'
p256
S'\xe0\xa4\x85\xe0\xa4\xae\xe0\xa5\x87\xe0\xa4\xb0\xe0\xa4\xbf\xe0\xa4\x95\xe0\xa5\x80'
p257
sS'af'
p258
S'\xe0\xa4\x85\xe0\xa4\xae\xe0\xa5\x87\xe0\xa4\xb0\xe0\xa4\xbf\xe0\xa4\x95\xe0\xa5\x80,adj,any,any,,o,,'
p259
sS'drel'
p260
S'nmod__adj:NP5'
p261
sS'chunktype'
p262
S'child:NP5'
p263
sS'cref'
p264
S'i4%0:t4'
p265
ssbsg38
I00
sg39
I00
sg40
Nsg41
Nsg42
I6
sg43
I0
sg44
Nsg45
Nsg46
S'JJ'
p266
sg48
g251
sg49
I00
sba(issf_api
Word
p267
(dp268
g6
I00
sg7
V\u0939\u0935\u093e\u0908
p269
sg9
(issf_api
FeatureSet
p270
(dp271
g12
(dp272
S'posn'
p273
S'130'
p274
sS'name'
p275
S'\xe0\xa4\xb9\xe0\xa4\xb5\xe0\xa4\xbe\xe0\xa4\x88'
p276
sS'af'
p277
S'\xe0\xa4\xb9\xe0\xa4\xb5\xe0\xa4\xbe\xe0\xa4\x88,adj,any,any,,o,,'
p278
sS'drel'
p279
S'nmod__adj:NP5'
p280
sS'chunktype'
p281
S'child:NP5'
p282
sS'cref'
p283
S'i4%0:t4'
p284
ssbsg38
I00
sg39
I00
sg40
Nsg41
Nsg42
I6
sg43
I0
sg44
Nsg45
Nsg46
S'JJ'
p285
sg48
g270
sg49
I00
sba(issf_api
Word
p286
(dp287
g6
I00
sg7
V\u0939\u092e\u0932\u0947
p288
sg9
(issf_api
FeatureSet
p289
(dp290
g12
(dp291
S'crefhead'
p292
S'\xe0\xa4\xb9\xe0\xa4\xae\xe0\xa4\xb2\xe0\xa5\x87:i4'
p293
sS'posn'
p294
S'140'
p295
sS'name'
p296
S'\xe0\xa4\xb9\xe0\xa4\xae\xe0\xa4\xb2\xe0\xa5\x87'
p297
sS'af'
p298
S'\xe0\xa4\xb9\xe0\xa4\xae\xe0\xa4\xb2\xe0\xa4\xbe,n,m,sg,3,o,0_\xe0\xa4\xae\xe0\xa5\x87\xe0\xa4\x82,0'
p299
sS'chunkid'
p300
S'NP5'
p301
sS'chunktype'
p302
S'head:NP5'
p303
sS'crefchainhead'
p304
S'i4:t4'
p305
sS'vpos'
p306
S'vib_4'
p307
sS'cref'
p308
S'i4%1:t4'
p309
sS'drel'
p310
S'k7:VGF'
p311
ssbsg38
I00
sg39
I00
sg40
Nsg41
Nsg42
I6
sg43
I0
sg44
Nsg45
Nsg46
S'NN'
p312
sg48
g289
sg49
I00
sba(issf_api
Word
p313
(dp314
g6
I00
sg7
V\u092e\u0947\u0902
p315
sg9
(issf_api
FeatureSet
p316
(dp317
g12
(dp318
S'posn'
p319
S'150'
p320
sS'name'
p321
S'\xe0\xa4\xae\xe0\xa5\x87\xe0\xa4\x82'
p322
sS'drel'
p323
S'lwg__psp:NP5'
p324
sS'chunktype'
p325
S'child:NP5'
p326
sS'af'
p327
S'\xe0\xa4\xae\xe0\xa5\x87\xe0\xa4\x82,psp,,,,,,'
p328
ssbsg38
I00
sg39
I00
sg40
Nsg41
Nsg42
I6
sg43
I0
sg44
Nsg45
Nsg46
S'PSP'
p329
sg48
g316
sg49
I00
sba(issf_api
Word
p330
(dp331
g6
I00
sg7
V\u0967\u0967
p332
sg9
(issf_api
FeatureSet
p333
(dp334
g12
(dp335
S'posn'
p336
S'160'
p337
sS'name'
p338
S'\xe0\xa5\xa7\xe0\xa5\xa7'
p339
sS'af'
p340
S'\xe0\xa5\xa7\xe0\xa5\xa7,num,any,any,,any,,'
p341
sS'drel'
p342
S'nmod__adj:NP6'
p343
sS'chunktype'
p344
S'child:NP6'
p345
sS'cref'
p346
S'i5%0:t5'
p347
ssbsg38
I00
sg39
I00
sg40
Nsg41
Nsg42
I7
sg43
I0
sg44
Nsg45
Nsg46
S'QC'
p348
sg48
g333
sg49
I00
sba(issf_api
Word
p349
(dp350
g6
I00
sg7
V\u0932\u094b\u0917
p351
sg9
(issf_api
FeatureSet
p352
(dp353
g12
(dp354
S'crefhead'
p355
S'\xe0\xa4\xb2\xe0\xa5\x8b\xe0\xa4\x97:i5'
p356
sS'posn'
p357
S'170'
p358
sS'name'
p359
S'\xe0\xa4\xb2\xe0\xa5\x8b\xe0\xa4\x97'
p360
sS'af'
p361
S'\xe0\xa4\xb2\xe0\xa5\x8b\xe0\xa4\x97,n,m,pl,3,d,0,0'
p362
sS'chunkid'
p363
S'NP6'
p364
sS'chunktype'
p365
S'head:NP6'
p366
sS'crefchainhead'
p367
S'i5:t5'
p368
sS'cref'
p369
S'i5%1:t5'
p370
sS'drel'
p371
S'k1:VGF'
p372
ssbsg38
I00
sg39
I00
sg40
Nsg41
Nsg42
I7
sg43
I0
sg44
Nsg45
Nsg46
S'NN'
p373
sg48
g352
sg49
I00
sba(issf_api
Word
p374
(dp375
g6
I00
sg7
V\u092e\u093e\u0930\u0947
p376
sg9
(issf_api
FeatureSet
p377
(dp378
g12
(dp379
S'posn'
p380
S'180'
p381
sS'name'
p382
S'\xe0\xa4\xae\xe0\xa4\xbe\xe0\xa4\xb0\xe0\xa5\x87'
p383
sS'af'
p384
S'\xe0\xa4\xae\xe0\xa4\xbe\xe0\xa4\xb0,v,m,pl,3,,\xe0\xa4\xaf\xe0\xa4\xbe_\xe0\xa4\x9c\xe0\xa4\xbe+\xe0\xa4\xaf\xe0\xa4\xbe\xe0\xa5\xa7,yA'
p385
sS'chunkid'
p386
S'VGF'
p387
sS'chunktype'
p388
S'head:VGF'
p389
sS'voicetype'
p390
S'active'
p391
sS'vpos'
p392
S'tam_2'
p393
sS'stype'
p394
S'declarative'
p395
ssbsg38
I00
sg39
I00
sg40
Nsg41
Nsg42
I8
sg43
I0
sg44
Nsg45
Nsg46
S'VM'
p396
sg48
g377
sg49
I00
sba(issf_api
Word
p397
(dp398
g6
I00
sg7
V\u0917\u090f
p399
sg9
(issf_api
FeatureSet
p400
(dp401
g12
(dp402
S'posn'
p403
S'190'
p404
sS'name'
p405
S'\xe0\xa4\x97\xe0\xa4\x8f'
p406
sS'drel'
p407
S'lwg__vaux:VGF'
p408
sS'chunktype'
p409
S'child:VGF'
p410
sS'af'
p411
S'\xe0\xa4\x9c\xe0\xa4\xbe,v,m,pl,3,,\xe0\xa4\xaf\xe0\xa4\xbe\xe0\xa5\xa7,yA1'
p412
ssbsg38
I00
sg39
I00
sg40
Nsg41
Nsg42
I8
sg43
I0
sg44
Nsg45
Nsg46
S'VAUX'
p413
sg48
g400
sg49
I00
sba(issf_api
Word
p414
(dp415
g6
I00
sg7
V\u0964
p416
sg9
(issf_api
FeatureSet
p417
(dp418
g12
(dp419
S'posn'
p420
S'200'
p421
sS'name'
p422
S'\xe0\xa5\xa4'
p423
sS'af'
p424
S'\xe0\xa5\xa4,punc,,,,,,'
p425
sS'chunkid'
p426
S'BLK'
p427
sS'drel'
p428
S'rsym:VGF'
p429
sS'chunktype'
p430
S'head:BLK'
p431
ssbsg38
I00
sg39
I00
sg40
Nsg41
Nsg42
I9
sg43
I0
sg44
Nsg45
Nsg46
S'SYM'
p432
sg48
g417
sg49
I00
sba(issf_api
Word
p433
(dp434
g6
I00
sg7
V\u0905\u092e\u0947\u0930\u093f\u0915\u0940
p435
sg9
(issf_api
FeatureSet
p436
(dp437
g12
(dp438
S'posn'
p439
S'10'
p440
sS'name'
p441
S'\xe0\xa4\x85\xe0\xa4\xae\xe0\xa5\x87\xe0\xa4\xb0\xe0\xa4\xbf\xe0\xa4\x95\xe0\xa5\x80'
p442
sS'af'
p443
S'\xe0\xa4\x85\xe0\xa4\xae\xe0\xa5\x87\xe0\xa4\xb0\xe0\xa4\xbf\xe0\xa4\x95\xe0\xa5\x80,adj,any,any,,o,,'
p444
sS'drel'
p445
S'pof__cn:NP'
p446
sS'chunktype'
p447
S'child:NP'
p448
sS'cref'
p449
S'i6%0:t6'
p450
ssbsg38
I00
sg39
I00
sg40
Nsg41
Nsg42
I0
sg43
I1
sg44
Nsg45
Nsg46
S'NNPC'
p451
sg48
g436
sg49
I00
sba(issf_api
Word
p452
(dp453
g6
I00
sg7
V\u0935\u093e\u092f\u0941
p454
sg9
(issf_api
FeatureSet
p455
(dp456
g12
(dp457
S'posn'
p458
S'20'
p459
sS'name'
p460
S'\xe0\xa4\xb5\xe0\xa4\xbe\xe0\xa4\xaf\xe0\xa5\x81'
p461
sS'af'
p462
S'\xe0\xa4\xb5\xe0\xa4\xbe\xe0\xa4\xaf\xe0\xa5\x81,n,f,sg,3,d,0,0'
p463
sS'drel'
p464
S'pof__cn:NP'
p465
sS'chunktype'
p466
S'child:NP'
p467
sS'cref'
p468
S'i6%0:t6'
p469
ssbsg38
I00
sg39
I00
sg40
Nsg41
Nsg42
I0
sg43
I1
sg44
Nsg45
Nsg46
S'NNPC'
p470
sg48
g455
sg49
I00
sba(issf_api
Word
p471
(dp472
g6
I00
sg7
V-
p473
sg9
(issf_api
FeatureSet
p474
(dp475
g12
(dp476
S'posn'
p477
S'30'
p478
sS'name'
p479
S'-'
p480
sS'af'
p481
S'-,punc,,,,,,'
p482
sS'drel'
p483
S'rsym:NP'
p484
sS'chunktype'
p485
S'child:NP'
p486
sS'cref'
p487
S'i6%0:t6'
p488
ssbsg38
I00
sg39
I00
sg40
Nsg41
Nsg42
I0
sg43
I1
sg44
Nsg45
Nsg46
S'SYM'
p489
sg48
g474
sg49
I00
sba(issf_api
Word
p490
(dp491
g6
I00
sg7
V\u0938\u0947\u0928\u093e
p492
sg9
(issf_api
FeatureSet
p493
(dp494
g12
(dp495
S'crefhead'
p496
S'\xe0\xa4\xb8\xe0\xa5\x87\xe0\xa4\xa8\xe0\xa4\xbe:i6'
p497
sS'posn'
p498
S'40'
p499
sS'name'
p500
S'\xe0\xa4\xb8\xe0\xa5\x87\xe0\xa4\xa8\xe0\xa4\xbe'
p501
sS'af'
p502
S'\xe0\xa4\xb8\xe0\xa5\x87\xe0\xa4\xa8\xe0\xa4\xbe,n,f,sg,3,o,0_\xe0\xa4\xa8\xe0\xa5\x87,0'
p503
sS'chunkid'
p504
S'NP'
p505
sS'chunktype'
p506
S'head:NP'
p507
sS'crefchainhead'
p508
S'i6:t6'
p509
sS'vpos'
p510
S'vib_5'
p511
sS'cref'
p512
S'i6%1:t6'
p513
sS'drel'
p514
S'k1:VGF'
p515
ssbsg38
I00
sg39
I00
sg40
Nsg41
Nsg42
I0
sg43
I1
sg44
Nsg45
Nsg46
S'NNP'
p516
sg48
g493
sg49
I00
sba(issf_api
Word
p517
(dp518
g6
I00
sg7
V\u0928\u0947
p519
sg9
(issf_api
FeatureSet
p520
(dp521
g12
(dp522
S'posn'
p523
S'50'
p524
sS'name'
p525
S'\xe0\xa4\xa8\xe0\xa5\x87'
p526
sS'drel'
p527
S'lwg__psp:NP'
p528
sS'chunktype'
p529
S'child:NP'
p530
sS'af'
p531
S'\xe0\xa4\xa8\xe0\xa5\x87,psp,,,,,,'
p532
ssbsg38
I00
sg39
I00
sg40
Nsg41
Nsg42
I0
sg43
I1
sg44
Nsg45
Nsg46
S'PSP'
p533
sg48
g520
sg49
I00
sba(issf_api
Word
p534
(dp535
g6
I00
sg7
V\u092f\u0939
p536
sg9
(issf_api
FeatureSet
p537
(dp538
g12
(dp539
S'posn'
p540
S'60'
p541
sS'name'
p542
S'\xe0\xa4\xaf\xe0\xa4\xb9'
p543
sS'af'
p544
S'\xe0\xa4\xaf\xe0\xa4\xb9,pn,any,sg,3,d,,'
p545
sS'drel'
p546
S'nmod__adj:NP2'
p547
sS'chunktype'
p548
S'child:NP2'
p549
sS'cref'
p550
S'i7%0:t4,i8%0:t4'
p551
ssbsg38
I00
sg39
I00
sg40
Nsg41
Nsg42
I1
sg43
I1
sg44
Nsg45
Nsg46
S'DEM'
p552
sg48
g537
sg49
I00
sba(issf_api
Word
p553
(dp554
g6
I00
sg7
V\u0939\u092e\u0932\u093e
p555
sg9
(issf_api
FeatureSet
p556
(dp557
g12
(dp558
S'crefhead'
p559
S'\xe0\xa4\xb9\xe0\xa4\xae\xe0\xa4\xb2\xe0\xa4\xbe:i7,\xe0\xa4\xb9\xe0\xa4\xae\xe0\xa4\xb2\xe0\xa4\xbe:i8'
p560
sS'posn'
p561
S'70'
p562
sS'name'
p563
S'\xe0\xa4\xb9\xe0\xa4\xae\xe0\xa4\xb2\xe0\xa4\xbe'
p564
sS'af'
p565
S'\xe0\xa4\xb9\xe0\xa4\xae\xe0\xa4\xb2\xe0\xa4\xbe,n,m,sg,3,d,0,0'
p566
sS'chunkid'
p567
S'NP2'
p568
sS'creftype'
p569
S'Coreference-Identity:i4'
p570
sS'chunktype'
p571
S'head:NP2'
p572
sS'cref'
p573
S'i7%1:t4,i8%1:t4'
p574
sS'drel'
p575
S'k2:VGF'
p576
ssbsg38
I00
sg39
I00
sg40
Nsg41
Nsg42
I1
sg43
I1
sg44
Nsg45
Nsg46
S'NN'
p577
sg48
g556
sg49
I00
sba(issf_api
Word
p578
(dp579
g6
I00
sg7
V\u0906\u0924\u0902\u0915\u0940
p580
sg9
(issf_api
FeatureSet
p581
(dp582
g12
(dp583
S'posn'
p584
S'80'
p585
sS'name'
p586
S'\xe0\xa4\x86\xe0\xa4\xa4\xe0\xa4\x82\xe0\xa4\x95\xe0\xa5\x80'
p587
sS'af'
p588
S'\xe0\xa4\x86\xe0\xa4\xa4\xe0\xa4\x82\xe0\xa4\x95\xe0\xa5\x80,adj,any,any,,o,,'
p589
sS'drel'
p590
S'nmod__adj:NP3'
p591
sS'chunktype'
p592
S'child:NP3'
p593
sS'cref'
p594
S'i9%0:t7'
p595
ssbsg38
I00
sg39
I00
sg40
Nsg41
Nsg42
I2
sg43
I1
sg44
Nsg45
Nsg46
S'JJ'
p596
sg48
g581
sg49
I00
sba(issf_api
Word
p597
(dp598
g6
I00
sg7
V\u0905\u092c\u0942
p599
sg9
(issf_api
FeatureSet
p600
(dp601
g12
(dp602
S'posn'
p603
S'90'
p604
sS'name'
p605
S'\xe0\xa4\x85\xe0\xa4\xac\xe0\xa5\x82'
p606
sS'af'
p607
S'\xe0\xa4\x85\xe0\xa4\xac\xe0\xa5\x82,n,m,sg,3,d,0,0'
p608
sS'drel'
p609
S'pof__cn:NP3'
p610
sS'chunktype'
p611
S'child:NP3'
p612
sS'cref'
p613
S'i9%0:t7'
p614
ssbsg38
I00
sg39
I00
sg40
Nsg41
Nsg42
I2
sg43
I1
sg44
Nsg45
Nsg46
S'NNPC'
p615
sg48
g600
sg49
I00
sba(issf_api
Word
p616
(dp617
g6
I00
sg7
V\u092e\u0941\u0938\u093e\u092c
p618
sg9
(issf_api
FeatureSet
p619
(dp620
g12
(dp621
S'posn'
p622
S'100'
p623
sS'name'
p624
S'\xe0\xa4\xae\xe0\xa5\x81\xe0\xa4\xb8\xe0\xa4\xbe\xe0\xa4\xac'
p625
sS'af'
p626
S'\xe0\xa4\xae\xe0\xa5\x81\xe0\xa4\xb8\xe0\xa4\xbe\xe0\xa4\xac,n,m,sg,3,d,0,0'
p627
sS'drel'
p628
S'pof__cn:NP3'
p629
sS'chunktype'
p630
S'child:NP3'
p631
sS'cref'
p632
S'i9%0:t7'
p633
ssbsg38
I00
sg39
I00
sg40
Nsg41
Nsg42
I2
sg43
I1
sg44
Nsg45
Nsg46
S'NNPC'
p634
sg48
g619
sg49
I00
sba(issf_api
Word
p635
(dp636
g6
I00
sg7
V-
p637
sg9
(issf_api
FeatureSet
p638
(dp639
g12
(dp640
S'posn'
p641
S'110'
p642
sS'name'
p643
S'-2'
p644
sS'af'
p645
S'-,punc,,,,,,'
p646
sS'drel'
p647
S'rsym:NP3'
p648
sS'chunktype'
p649
S'child:NP3'
p650
sS'cref'
p651
S'i9%0:t7'
p652
ssbsg38
I00
sg39
I00
sg40
Nsg41
Nsg42
I2
sg43
I1
sg44
Nsg45
Nsg46
S'SYM'
p653
sg48
g638
sg49
I00
sba(issf_api
Word
p654
(dp655
g6
I00
sg7
V\u0905\u0932
p656
sg9
(issf_api
FeatureSet
p657
(dp658
g12
(dp659
S'posn'
p660
S'120'
p661
sS'name'
p662
S'\xe0\xa4\x85\xe0\xa4\xb2'
p663
sS'af'
p664
S'\xe0\xa4\x85\xe0\xa4\xb2,n,m,sg,3,d,0,0'
p665
sS'drel'
p666
S'nmod__adj:NP3'
p667
sS'chunktype'
p668
S'child:NP3'
p669
sS'cref'
p670
S'i9%0:t7'
p671
ssbsg38
I00
sg39
I00
sg40
Nsg41
Nsg42
I2
sg43
I1
sg44
Nsg45
Nsg46
S'NNPC'
p672
sg48
g657
sg49
I00
sba(issf_api
Word
p673
(dp674
g6
I00
sg7
V\u091c\u0930\u0915\u093e\u0935\u0940
p675
sg9
(issf_api
FeatureSet
p676
(dp677
g12
(dp678
S'crefhead'
p679
S'\xe0\xa4\x9c\xe0\xa4\xb0\xe0\xa4\x95\xe0\xa4\xbe\xe0\xa4\xb5\xe0\xa5\x80:i9'
p680
sS'posn'
p681
S'130'
p682
sS'name'
p683
S'\xe0\xa4\x9c\xe0\xa4\xb0\xe0\xa4\x95\xe0\xa4\xbe\xe0\xa4\xb5\xe0\xa5\x80'
p684
sS'af'
p685
S'\xe0\xa4\x9c\xe0\xa4\xb0\xe0\xa4\x95\xe0\xa4\xbe\xe0\xa4\xb5\xe0\xa5\x80,n,m,sg,3,o,0_\xe0\xa4\x95\xe0\xa4\xbe,0'
p686
sS'chunkid'
p687
S'NP3'
p688
sS'chunktype'
p689
S'head:NP3'
p690
sS'crefchainhead'
p691
S'i9:t7'
p692
sS'vpos'
p693
S'vib_7'
p694
sS'cref'
p695
S'i9%1:t7'
p696
sS'drel'
p697
S'r6:NP4'
p698
ssbsg38
I00
sg39
I00
sg40
Nsg41
Nsg42
I2
sg43
I1
sg44
Nsg45
Nsg46
S'NNP'
p699
sg48
g676
sg49
I00
sba(issf_api
Word
p700
(dp701
g6
I00
sg7
V\u0915\u0947
p702
sg9
(issf_api
FeatureSet
p703
(dp704
g12
(dp705
S'posn'
p706
S'140'
p707
sS'name'
p708
S'\xe0\xa4\x95\xe0\xa5\x87'
p709
sS'drel'
p710
S'lwg__psp:NP3'
p711
sS'chunktype'
p712
S'child:NP3'
p713
sS'af'
p714
S'\xe0\xa4\x95\xe0\xa4\xbe,psp,m,sg,,o,,'
p715
ssbsg38
I00
sg39
I00
sg40
Nsg41
Nsg42
I2
sg43
I1
sg44
Nsg45
Nsg46
S'PSP'
p716
sg48
g703
sg49
I00
sba(issf_api
Word
p717
(dp718
g6
I00
sg7
V\u0920\u093f\u0915\u093e\u0928\u0947
p719
sg9
(issf_api
FeatureSet
p720
(dp721
g12
(dp722
S'posn'
p723
S'150'
p724
sS'name'
p725
S'\xe0\xa4\xa0\xe0\xa4\xbf\xe0\xa4\x95\xe0\xa4\xbe\xe0\xa4\xa8\xe0\xa5\x87'
p726
sS'af'
p727
S'\xe0\xa4\xa0\xe0\xa4\xbf\xe0\xa4\x95\xe0\xa4\xbe\xe0\xa4\xa8\xe0\xa4\xbe,n,m,sg,3,o,0_\xe0\xa4\x95\xe0\xa4\xbe,0'
p728
sS'chunkid'
p729
S'NP4'
p730
sS'drel'
p731
S'r6:NP5'
p732
sS'vpos'
p733
S'vib_2'
p734
sS'chunktype'
p735
S'head:NP4'
p736
ssbsg38
I00
sg39
I00
sg40
Nsg41
Nsg42
I3
sg43
I1
sg44
Nsg45
Nsg46
S'NN'
p737
sg48
g720
sg49
I00
sba(issf_api
Word
p738
(dp739
g6
I00
sg7
V\u0915\u0947
p740
sg9
(issf_api
FeatureSet
p741
(dp742
g12
(dp743
S'posn'
p744
S'160'
p745
sS'name'
p746
S'\xe0\xa4\x95\xe0\xa5\x872'
p747
sS'drel'
p748
S'lwg__psp:NP4'
p749
sS'chunktype'
p750
S'child:NP4'
p751
sS'af'
p752
S'\xe0\xa4\x95\xe0\xa4\xbe,psp,m,sg,,o,,'
p753
ssbsg38
I00
sg39
I00
sg40
Nsg41
Nsg42
I3
sg43
I1
sg44
Nsg45
Nsg46
S'PSP'
p754
sg48
g741
sg49
I00
sba(issf_api
Word
p755
(dp756
g6
I00
sg7
V\u0938\u0902\u0926\u0947\u0939
p757
sg9
(issf_api
FeatureSet
p758
(dp759
g12
(dp760
S'posn'
p761
S'170'
p762
sS'name'
p763
S'\xe0\xa4\xb8\xe0\xa4\x82\xe0\xa4\xa6\xe0\xa5\x87\xe0\xa4\xb9'
p764
sS'af'
p765
S'\xe0\xa4\xb8\xe0\xa4\x82\xe0\xa4\xa6\xe0\xa5\x87\xe0\xa4\xb9,n,m,sg,3,o,0_\xe0\xa4\xae\xe0\xa5\x87\xe0\xa4\x82,0'
p766
sS'chunkid'
p767
S'NP5'
p768
sS'drel'
p769
S'k7:VGF'
p770
sS'vpos'
p771
S'vib_2'
p772
sS'chunktype'
p773
S'head:NP5'
p774
ssbsg38
I00
sg39
I00
sg40
Nsg41
Nsg42
I4
sg43
I1
sg44
Nsg45
Nsg46
S'NN'
p775
sg48
g758
sg49
I00
sba(issf_api
Word
p776
(dp777
g6
I00
sg7
V\u092e\u0947\u0902
p778
sg9
(issf_api
FeatureSet
p779
(dp780
g12
(dp781
S'posn'
p782
S'180'
p783
sS'name'
p784
S'\xe0\xa4\xae\xe0\xa5\x87\xe0\xa4\x82'
p785
sS'drel'
p786
S'lwg__psp:NP5'
p787
sS'chunktype'
p788
S'child:NP5'
p789
sS'af'
p790
S'\xe0\xa4\xae\xe0\xa5\x87\xe0\xa4\x82,psp,,,,,,'
p791
ssbsg38
I00
sg39
I00
sg40
Nsg41
Nsg42
I4
sg43
I1
sg44
Nsg45
Nsg46
S'PSP'
p792
sg48
g779
sg49
I00
sba(issf_api
Word
p793
(dp794
g6
I00
sg7
V\u0915\u093f\u092f\u093e
p795
sg9
(issf_api
FeatureSet
p796
(dp797
g12
(dp798
S'posn'
p799
S'190'
p800
sS'name'
p801
S'\xe0\xa4\x95\xe0\xa4\xbf\xe0\xa4\xaf\xe0\xa4\xbe'
p802
sS'af'
p803
S'\xe0\xa4\x95\xe0\xa4\xb0,v,m,sg,any,,\xe0\xa4\xaf\xe0\xa4\xbe,yA'
p804
sS'chunkid'
p805
S'VGF'
p806
sS'chunktype'
p807
S'head:VGF'
p808
sS'voicetype'
p809
S'active'
p810
sS'stype'
p811
S'declarative'
p812
ssbsg38
I00
sg39
I00
sg40
Nsg41
Nsg42
I5
sg43
I1
sg44
Nsg45
Nsg46
S'VM'
p813
sg48
g796
sg49
I00
sba(issf_api
Word
p814
(dp815
g6
I00
sg7
V\u0964
p816
sg9
(issf_api
FeatureSet
p817
(dp818
g12
(dp819
S'posn'
p820
S'200'
p821
sS'name'
p822
S'\xe0\xa5\xa4'
p823
sS'af'
p824
S'\xe0\xa5\xa4,punc,,,,,,'
p825
sS'chunkid'
p826
S'BLK'
p827
sS'drel'
p828
S'rsym:VGF'
p829
sS'chunktype'
p830
S'head:BLK'
p831
ssbsg38
I00
sg39
I00
sg40
Nsg41
Nsg42
I6
sg43
I1
sg44
Nsg45
Nsg46
S'SYM'
p832
sg48
g817
sg49
I00
sba(issf_api
Word
p833
(dp834
g6
I00
sg7
V\u092b\u0932\u0941\u091c\u093e
p835
sg9
(issf_api
FeatureSet
p836
(dp837
g12
(dp838
S'crefhead'
p839
S'\xe0\xa4\xab\xe0\xa4\xb2\xe0\xa5\x81\xe0\xa4\x9c\xe0\xa4\xbe:i10'
p840
sS'posn'
p841
S'10'
p842
sS'name'
p843
S'\xe0\xa4\xab\xe0\xa4\xb2\xe0\xa5\x81\xe0\xa4\x9c\xe0\xa4\xbe'
p844
sS'af'
p845
S'\xe0\xa4\xab\xe0\xa4\xb2\xe0\xa5\x81\xe0\xa4\x9c\xe0\xa4\xbe,n,m,sg,3,d,0,0'
p846
sS'chunkid'
p847
S'NP'
p848
sS'creftype'
p849
S'Coreference-Identity:i2'
p850
sS'chunktype'
p851
S'head:NP'
p852
sS'cref'
p853
S'i10%1:t2'
p854
sS'drel'
p855
S'jjmod:JJP'
p856
ssbsg38
I00
sg39
I00
sg40
Nsg41
Nsg42
I0
sg43
I2
sg44
Nsg45
Nsg46
S'NNP'
p857
sg48
g836
sg49
I00
sba(issf_api
Word
p858
(dp859
g6
I00
sg7
V\u0938\u094d\u0925\u093f\u0924
p860
sg9
(issf_api
FeatureSet
p861
(dp862
g12
(dp863
S'posn'
p864
S'20'
p865
sS'name'
p866
S'\xe0\xa4\xb8\xe0\xa5\x8d\xe0\xa4\xa5\xe0\xa4\xbf\xe0\xa4\xa4'
p867
sS'af'
p868
S'\xe0\xa4\xb8\xe0\xa5\x8d\xe0\xa4\xa5\xe0\xa4\xbf\xe0\xa4\xa4,adj,any,any,,o,,'
p869
sS'chunkid'
p870
S'JJP'
p871
sS'drel'
p872
S'nmod:NP2'
p873
sS'chunktype'
p874
S'head:JJP'
p875
ssbsg38
I00
sg39
I00
sg40
Nsg41
Nsg42
I1
sg43
I2
sg44
Nsg45
Nsg46
S'JJ'
p876
sg48
g861
sg49
I00
sba(issf_api
Word
p877
(dp878
g6
I00
sg7
V\u090f\u0915
p879
sg9
(issf_api
FeatureSet
p880
(dp881
g12
(dp882
S'posn'
p883
S'30'
p884
sS'name'
p885
S'\xe0\xa4\x8f\xe0\xa4\x95'
p886
sS'drel'
p887
S'nmod__adj:NP2'
p888
sS'chunktype'
p889
S'child:NP2'
p890
sS'af'
p891
S'\xe0\xa4\x8f\xe0\xa4\x95,num,any,any,,any,,'
p892
ssbsg38
I00
sg39
I00
sg40
Nsg41
Nsg42
I2
sg43
I2
sg44
Nsg45
Nsg46
S'QC'
p893
sg48
g880
sg49
I00
sba(issf_api
Word
p894
(dp895
g6
I00
sg7
V\u092a\u094d\u0930\u092e\u0941\u0916
p896
sg9
(issf_api
FeatureSet
p897
(dp898
g12
(dp899
S'posn'
p900
S'40'
p901
sS'name'
p902
S'\xe0\xa4\xaa\xe0\xa5\x8d\xe0\xa4\xb0\xe0\xa4\xae\xe0\xa5\x81\xe0\xa4\x96'
p903
sS'drel'
p904
S'nmod__adj:NP2'
p905
sS'chunktype'
p906
S'child:NP2'
p907
sS'af'
p908
S'\xe0\xa4\xaa\xe0\xa5\x8d\xe0\xa4\xb0\xe0\xa4\xae\xe0\xa5\x81\xe0\xa4\x96,adj,any,any,,o,,'
p909
ssbsg38
I00
sg39
I00
sg40
Nsg41
Nsg42
I2
sg43
I2
sg44
Nsg45
Nsg46
S'JJ'
p910
sg48
g897
sg49
I00
sba(issf_api
Word
p911
(dp912
g6
I00
sg7
V\u0905\u0938\u094d\u092a\u0924\u093e\u0932
p913
sg9
(issf_api
FeatureSet
p914
(dp915
g12
(dp916
S'posn'
p917
S'50'
p918
sS'name'
p919
S'\xe0\xa4\x85\xe0\xa4\xb8\xe0\xa5\x8d\xe0\xa4\xaa\xe0\xa4\xa4\xe0\xa4\xbe\xe0\xa4\xb2'
p920
sS'af'
p921
S'\xe0\xa4\x85\xe0\xa4\xb8\xe0\xa5\x8d\xe0\xa4\xaa\xe0\xa4\xa4\xe0\xa4\xbe\xe0\xa4\xb2,n,m,sg,3,o,0_\xe0\xa4\x95\xe0\xa4\xbe,0'
p922
sS'chunkid'
p923
S'NP2'
p924
sS'drel'
p925
S'r6:NP3'
p926
sS'vpos'
p927
S'vib_4'
p928
sS'chunktype'
p929
S'head:NP2'
p930
ssbsg38
I00
sg39
I00
sg40
Nsg41
Nsg42
I2
sg43
I2
sg44
Nsg45
Nsg46
S'NN'
p931
sg48
g914
sg49
I00
sba(issf_api
Word
p932
(dp933
g6
I00
sg7
V\u0915\u0947
p934
sg9
(issf_api
FeatureSet
p935
(dp936
g12
(dp937
S'posn'
p938
S'60'
p939
sS'name'
p940
S'\xe0\xa4\x95\xe0\xa5\x87'
p941
sS'drel'
p942
S'lwg__psp:NP2'
p943
sS'chunktype'
p944
S'child:NP2'
p945
sS'af'
p946
S'\xe0\xa4\x95\xe0\xa4\xbe,psp,m,sg,,o,,'
p947
ssbsg38
I00
sg39
I00
sg40
Nsg41
Nsg42
I2
sg43
I2
sg44
Nsg45
Nsg46
S'PSP'
p948
sg48
g935
sg49
I00
sba(issf_api
Word
p949
(dp950
g6
I00
sg7
V\u0921\u0949\u0915\u094d\u091f\u0930
p951
sg9
(issf_api
FeatureSet
p952
(dp953
g12
(dp954
S'posn'
p955
S'70'
p956
sS'name'
p957
S'\xe0\xa4\xa1\xe0\xa5\x89\xe0\xa4\x95\xe0\xa5\x8d\xe0\xa4\x9f\xe0\xa4\xb0'
p958
sS'af'
p959
S'\xe0\xa4\xa1\xe0\xa5\x89\xe0\xa4\x95\xe0\xa5\x8d\xe0\xa4\x9f\xe0\xa4\xb0,n,m,sg,3,o,0_\xe0\xa4\xa8\xe0\xa5\x87,0'
p960
sS'chunkid'
p961
S'NP3'
p962
sS'drel'
p963
S'k1:VGF'
p964
sS'vpos'
p965
S'vib_2'
p966
sS'chunktype'
p967
S'head:NP3'
p968
ssbsg38
I00
sg39
I00
sg40
Nsg41
Nsg42
I3
sg43
I2
sg44
Nsg45
Nsg46
S'NN'
p969
sg48
g952
sg49
I00
sba(issf_api
Word
p970
(dp971
g6
I00
sg7
V\u0928\u0947
p972
sg9
(issf_api
FeatureSet
p973
(dp974
g12
(dp975
S'posn'
p976
S'80'
p977
sS'name'
p978
S'\xe0\xa4\xa8\xe0\xa5\x87'
p979
sS'drel'
p980
S'lwg__psp:NP3'
p981
sS'chunktype'
p982
S'child:NP3'
p983
sS'af'
p984
S'\xe0\xa4\xa8\xe0\xa5\x87,psp,,,,,,'
p985
ssbsg38
I00
sg39
I00
sg40
Nsg41
Nsg42
I3
sg43
I2
sg44
Nsg45
Nsg46
S'PSP'
p986
sg48
g973
sg49
I00
sba(issf_api
Word
p987
(dp988
g6
I00
sg7
V\u092c\u0924\u093e\u092f\u093e
p989
sg9
(issf_api
FeatureSet
p990
(dp991
g12
(dp992
S'posn'
p993
S'90'
p994
sS'name'
p995
S'\xe0\xa4\xac\xe0\xa4\xa4\xe0\xa4\xbe\xe0\xa4\xaf\xe0\xa4\xbe'
p996
sS'af'
p997
S'\xe0\xa4\xac\xe0\xa4\xa4\xe0\xa4\xbe,v,m,sg,any,,\xe0\xa4\xaf\xe0\xa4\xbe,yA'
p998
sS'chunkid'
p999
S'VGF'
p1000
sS'chunktype'
p1001
S'head:VGF'
p1002
sS'voicetype'
p1003
S'active'
p1004
sS'stype'
p1005
S'declarative'
p1006
ssbsg38
I00
sg39
I00
sg40
Nsg41
Nsg42
I4
sg43
I2
sg44
Nsg45
Nsg46
S'VM'
p1007
sg48
g990
sg49
I00
sba(issf_api
Word
p1008
(dp1009
g6
I00
sg7
V\u0915\u093f
p1010
sg9
(issf_api
FeatureSet
p1011
(dp1012
g12
(dp1013
S'posn'
p1014
S'100'
p1015
sS'name'
p1016
S'\xe0\xa4\x95\xe0\xa4\xbf'
p1017
sS'af'
p1018
S'\xe0\xa4\x95\xe0\xa4\xbf,avy,,,,,,'
p1019
sS'chunkid'
p1020
S'CCP'
p1021
sS'drel'
p1022
S'k2:VGF'
p1023
sS'chunktype'
p1024
S'head:CCP'
p1025
ssbsg38
I00
sg39
I00
sg40
Nsg41
Nsg42
I5
sg43
I2
sg44
Nsg45
Nsg46
S'CC'
p1026
sg48
g1011
sg49
I00
sba(issf_api
Word
p1027
(dp1028
g6
I00
sg7
V\u0907\u0938
p1029
sg9
(issf_api
FeatureSet
p1030
(dp1031
g12
(dp1032
S'posn'
p1033
S'110'
p1034
sS'name'
p1035
S'\xe0\xa4\x87\xe0\xa4\xb8'
p1036
sS'af'
p1037
S'\xe0\xa4\xaf\xe0\xa4\xb9,pn,any,sg,3,o,,'
p1038
sS'drel'
p1039
S'nmod__adj:NP4'
p1040
sS'chunktype'
p1041
S'child:NP4'
p1042
sS'cref'
p1043
S'i11%0:t4'
p1044
ssbsg38
I00
sg39
I00
sg40
Nsg41
Nsg42
I6
sg43
I2
sg44
Nsg45
Nsg46
S'DEM'
p1045
sg48
g1030
sg49
I00
sba(issf_api
Word
p1046
(dp1047
g6
I00
sg7
V\u0939\u092e\u0932\u0947
p1048
sg9
(issf_api
FeatureSet
p1049
(dp1050
g12
(dp1051
S'crefhead'
p1052
S'\xe0\xa4\xb9\xe0\xa4\xae\xe0\xa4\xb2\xe0\xa5\x87:i11'
p1053
sS'posn'
p1054
S'120'
p1055
sS'name'
p1056
S'\xe0\xa4\xb9\xe0\xa4\xae\xe0\xa4\xb2\xe0\xa5\x87'
p1057
sS'af'
p1058
S'\xe0\xa4\xb9\xe0\xa4\xae\xe0\xa4\xb2\xe0\xa4\xbe,n,m,sg,3,o,0_\xe0\xa4\xae\xe0\xa5\x87\xe0\xa4\x82,0'
p1059
sS'chunkid'
p1060
S'NP4'
p1061
sS'creftype'
p1062
S'Coreference-Identity:i8'
p1063
sS'chunktype'
p1064
S'head:NP4'
p1065
sS'vpos'
p1066
S'vib_3'
p1067
sS'cref'
p1068
S'i11%1:t4'
p1069
sS'drel'
p1070
S'k7:VGF2'
p1071
ssbsg38
I00
sg39
I00
sg40
Nsg41
Nsg42
I6
sg43
I2
sg44
Nsg45
Nsg46
S'NN'
p1072
sg48
g1049
sg49
I00
sba(issf_api
Word
p1073
(dp1074
g6
I00
sg7
V\u092e\u0947\u0902
p1075
sg9
(issf_api
FeatureSet
p1076
(dp1077
g12
(dp1078
S'posn'
p1079
S'130'
p1080
sS'name'
p1081
S'\xe0\xa4\xae\xe0\xa5\x87\xe0\xa4\x82'
p1082
sS'drel'
p1083
S'lwg__psp:NP4'
p1084
sS'chunktype'
p1085
S'child:NP4'
p1086
sS'af'
p1087
S'\xe0\xa4\xae\xe0\xa5\x87\xe0\xa4\x82,psp,,,,,,'
p1088
ssbsg38
I00
sg39
I00
sg40
Nsg41
Nsg42
I6
sg43
I2
sg44
Nsg45
Nsg46
S'PSP'
p1089
sg48
g1076
sg49
I00
sba(issf_api
Word
p1090
(dp1091
g6
I00
sg7
V\u0967\u0967
p1092
sg9
(issf_api
FeatureSet
p1093
(dp1094
g12
(dp1095
S'posn'
p1096
S'140'
p1097
sS'name'
p1098
S'\xe0\xa5\xa7\xe0\xa5\xa7'
p1099
sS'af'
p1100
S'\xe0\xa5\xa7\xe0\xa5\xa7,num,any,any,,any,,'
p1101
sS'drel'
p1102
S'nmod__adj:NP5'
p1103
sS'chunktype'
p1104
S'child:NP5'
p1105
sS'cref'
p1106
S'i12%0:t5'
p1107
ssbsg38
I00
sg39
I00
sg40
Nsg41
Nsg42
I7
sg43
I2
sg44
Nsg45
Nsg46
S'QC'
p1108
sg48
g1093
sg49
I00
sba(issf_api
Word
p1109
(dp1110
g6
I00
sg7
V\u0932\u094b\u0917
p1111
sg9
(issf_api
FeatureSet
p1112
(dp1113
g12
(dp1114
S'crefhead'
p1115
S'\xe0\xa4\xb2\xe0\xa5\x8b\xe0\xa4\x97:i12'
p1116
sS'posn'
p1117
S'150'
p1118
sS'name'
p1119
S'\xe0\xa4\xb2\xe0\xa5\x8b\xe0\xa4\x97'
p1120
sS'af'
p1121
S'\xe0\xa4\xb2\xe0\xa5\x8b\xe0\xa4\x97,n,m,pl,3,d,0,0'
p1122
sS'chunkid'
p1123
S'NP5'
p1124
sS'creftype'
p1125
S'Coreference-Identity:i5'
p1126
sS'chunktype'
p1127
S'head:NP5'
p1128
sS'cref'
p1129
S'i12%1:t5'
p1130
sS'drel'
p1131
S'k1:VGF2'
p1132
ssbsg38
I00
sg39
I00
sg40
Nsg41
Nsg42
I7
sg43
I2
sg44
Nsg45
Nsg46
S'NN'
p1133
sg48
g1112
sg49
I00
sba(issf_api
Word
p1134
(dp1135
g6
I00
sg7
V\u092e\u093e\u0930\u0947
p1136
sg9
(issf_api
FeatureSet
p1137
(dp1138
g12
(dp1139
S'posn'
p1140
S'160'
p1141
sS'name'
p1142
S'\xe0\xa4\xae\xe0\xa4\xbe\xe0\xa4\xb0\xe0\xa5\x87'
p1143
sS'af'
p1144
S'\xe0\xa4\xae\xe0\xa4\xbe\xe0\xa4\xb0,v,m,pl,any,,\xe0\xa4\xaf\xe0\xa4\xbe_\xe0\xa4\x9c\xe0\xa4\xbe+\xe0\xa4\xaf\xe0\xa4\xbe\xe0\xa5\xa7,yA'
p1145
sS'chunkid'
p1146
S'VGF2'
p1147
sS'stype'
p1148
S'declarative'
p1149
sS'drel'
p1150
S'ccof:CCP2'
p1151
sS'voicetype'
p1152
S'active'
p1153
sS'vpos'
p1154
S'tam_2'
p1155
sS'chunktype'
p1156
S'head:VGF2'
p1157
ssbsg38
I00
sg39
I00
sg40
Nsg41
Nsg42
I8
sg43
I2
sg44
Nsg45
Nsg46
S'VM'
p1158
sg48
g1137
sg49
I00
sba(issf_api
Word
p1159
(dp1160
g6
I00
sg7
V\u0917\u090f
p1161
sg9
(issf_api
FeatureSet
p1162
(dp1163
g12
(dp1164
S'posn'
p1165
S'170'
p1166
sS'name'
p1167
S'\xe0\xa4\x97\xe0\xa4\x8f'
p1168
sS'drel'
p1169
S'lwg__vaux:VGF2'
p1170
sS'chunktype'
p1171
S'child:VGF2'
p1172
sS'af'
p1173
S'\xe0\xa4\x9c\xe0\xa4\xbe,v,m,pl,any,,\xe0\xa4\xaf\xe0\xa4\xbe\xe0\xa5\xa7,yA1'
p1174
ssbsg38
I00
sg39
I00
sg40
Nsg41
Nsg42
I8
sg43
I2
sg44
Nsg45
Nsg46
S'VAUX'
p1175
sg48
g1162
sg49
I00
sba(issf_api
Word
p1176
(dp1177
g6
I00
sg7
V\u0914\u0930
p1178
sg9
(issf_api
FeatureSet
p1179
(dp1180
g12
(dp1181
S'posn'
p1182
S'180'
p1183
sS'name'
p1184
S'\xe0\xa4\x94\xe0\xa4\xb0'
p1185
sS'af'
p1186
S'\xe0\xa4\x94\xe0\xa4\xb0,avy,,,,,,'
p1187
sS'chunkid'
p1188
S'CCP2'
p1189
sS'drel'
p1190
S'ccof:CCP'
p1191
sS'chunktype'
p1192
S'head:CCP2'
p1193
ssbsg38
I00
sg39
I00
sg40
Nsg41
Nsg42
I9
sg43
I2
sg44
Nsg45
Nsg46
S'CC'
p1194
sg48
g1179
sg49
I00
sba(issf_api
Word
p1195
(dp1196
g6
I00
sg7
V\u0938\u093e\u0924
p1197
sg9
(issf_api
FeatureSet
p1198
(dp1199
g12
(dp1200
S'posn'
p1201
S'190'
p1202
sS'name'
p1203
S'\xe0\xa4\xb8\xe0\xa4\xbe\xe0\xa4\xa4'
p1204
sS'af'
p1205
S'\xe0\xa4\xb8\xe0\xa4\xbe\xe0\xa4\xa4,num,any,any,,any,,'
p1206
sS'chunkid'
p1207
S'NP6'
p1208
sS'drel'
p1209
S'k1:VGF3'
p1210
sS'chunktype'
p1211
S'head:NP6'
p1212
ssbsg38
I00
sg39
I00
sg40
Nsg41
Nsg42
I10
sg43
I2
sg44
Nsg45
Nsg46
S'QC'
p1213
sg48
g1198
sg49
I00
sba(issf_api
Word
p1214
(dp1215
g6
I00
sg7
V\u0918\u093e\u092f\u0932
p1216
sg9
(issf_api
FeatureSet
p1217
(dp1218
g12
(dp1219
S'posn'
p1220
S'200'
p1221
sS'name'
p1222
S'\xe0\xa4\x98\xe0\xa4\xbe\xe0\xa4\xaf\xe0\xa4\xb2'
p1223
sS'af'
p1224
S'\xe0\xa4\x98\xe0\xa4\xbe\xe0\xa4\xaf\xe0\xa4\xb2,adj,any,any,,,,'
p1225
sS'chunkid'
p1226
S'JJP2'
p1227
sS'drel'
p1228
S'pof:VGF3'
p1229
sS'chunktype'
p1230
S'head:JJP2'
p1231
ssbsg38
I00
sg39
I00
sg40
Nsg41
Nsg42
I11
sg43
I2
sg44
Nsg45
Nsg46
S'JJ'
p1232
sg48
g1217
sg49
I00
sba(issf_api
Word
p1233
(dp1234
g6
I00
sg7
V\u0939\u094b
p1235
sg9
(issf_api
FeatureSet
p1236
(dp1237
g12
(dp1238
S'posn'
p1239
S'210'
p1240
sS'name'
p1241
S'\xe0\xa4\xb9\xe0\xa5\x8b'
p1242
sS'af'
p1243
S'\xe0\xa4\xb9\xe0\xa5\x8b,v,any,pl,any,,0_\xe0\xa4\x9c\xe0\xa4\xbe+\xe0\xa4\xaf\xe0\xa4\xbe\xe0\xa5\xa7,0'
p1244
sS'chunkid'
p1245
S'VGF3'
p1246
sS'stype'
p1247
S'declarative'
p1248
sS'drel'
p1249
S'ccof:CCP2'
p1250
sS'voicetype'
p1251
S'active'
p1252
sS'vpos'
p1253
S'tam_2'
p1254
sS'chunktype'
p1255
S'head:VGF3'
p1256
ssbsg38
I00
sg39
I00
sg40
Nsg41
Nsg42
I12
sg43
I2
sg44
Nsg45
Nsg46
S'VM'
p1257
sg48
g1236
sg49
I00
sba(issf_api
Word
p1258
(dp1259
g6
I00
sg7
V\u0917\u090f
p1260
sg9
(issf_api
FeatureSet
p1261
(dp1262
g12
(dp1263
S'posn'
p1264
S'220'
p1265
sS'name'
p1266
S'\xe0\xa4\x97\xe0\xa4\x8f2'
p1267
sS'drel'
p1268
S'lwg__vaux:VGF3'
p1269
sS'chunktype'
p1270
S'child:VGF3'
p1271
sS'af'
p1272
S'\xe0\xa4\x9c\xe0\xa4\xbe,v,m,pl,any,,\xe0\xa4\xaf\xe0\xa4\xbe\xe0\xa5\xa7,yA1'
p1273
ssbsg38
I00
sg39
I00
sg40
Nsg41
Nsg42
I12
sg43
I2
sg44
Nsg45
Nsg46
S'VAUX'
p1274
sg48
g1261
sg49
I00
sba(issf_api
Word
p1275
(dp1276
g6
I00
sg7
V\u0964
p1277
sg9
(issf_api
FeatureSet
p1278
(dp1279
g12
(dp1280
S'posn'
p1281
S'230'
p1282
sS'name'
p1283
S'\xe0\xa5\xa4'
p1284
sS'af'
p1285
S'\xe0\xa5\xa4,punc,,,,,,'
p1286
sS'chunkid'
p1287
S'BLK'
p1288
sS'drel'
p1289
S'rsym:VGF'
p1290
sS'chunktype'
p1291
S'head:BLK'
p1292
ssbsg38
I00
sg39
I00
sg40
Nsg41
Nsg42
I13
sg43
I2
sg44
Nsg45
Nsg46
S'SYM'
p1293
sg48
g1278
sg49
I00
sba(issf_api
Word
p1294
(dp1295
g6
I00
sg7
V\u092e\u0943\u0924\u0915\u094b\u0902
p1296
sg9
(issf_api
FeatureSet
p1297
(dp1298
g12
(dp1299
S'crefhead'
p1300
S'\xe0\xa4\xae\xe0\xa5\x83\xe0\xa4\xa4\xe0\xa4\x95\xe0\xa5\x8b\xe0\xa4\x82:i13'
p1301
sS'posn'
p1302
S'10'
p1303
sS'name'
p1304
S'\xe0\xa4\xae\xe0\xa5\x83\xe0\xa4\xa4\xe0\xa4\x95\xe0\xa5\x8b\xe0\xa4\x82'
p1305
sS'af'
p1306
S'\xe0\xa4\xae\xe0\xa5\x83\xe0\xa4\xa4\xe0\xa4\x95,n,m,pl,3,o,0_\xe0\xa4\xae\xe0\xa5\x87\xe0\xa4\x82,0'
p1307
sS'chunkid'
p1308
S'NP'
p1309
sS'creftype'
p1310
S'Coreference-Noun-Noun:i12'
p1311
sS'chunktype'
p1312
S'head:NP'
p1313
sS'vpos'
p1314
S'vib_2'
p1315
sS'cref'
p1316
S'i13%1:t5'
p1317
sS'drel'
p1318
S'k7:VGF'
p1319
ssbsg38
I00
sg39
I00
sg40
Nsg41
Nsg42
I0
sg43
I3
sg44
Nsg45
Nsg46
S'NN'
p1320
sg48
g1297
sg49
I00
sba(issf_api
Word
p1321
(dp1322
g6
I00
sg7
V\u092e\u0947\u0902
p1323
sg9
(issf_api
FeatureSet
p1324
(dp1325
g12
(dp1326
S'posn'
p1327
S'20'
p1328
sS'name'
p1329
S'\xe0\xa4\xae\xe0\xa5\x87\xe0\xa4\x82'
p1330
sS'drel'
p1331
S'lwg__psp:NP'
p1332
sS'chunktype'
p1333
S'child:NP'
p1334
sS'af'
p1335
S'\xe0\xa4\xae\xe0\xa5\x87\xe0\xa4\x82,psp,,,,,,'
p1336
ssbsg38
I00
sg39
I00
sg40
Nsg41
Nsg42
I0
sg43
I3
sg44
Nsg45
Nsg46
S'PSP'
p1337
sg48
g1324
sg49
I00
sba(issf_api
Word
p1338
(dp1339
g6
I00
sg7
V\u090f\u0915
p1340
sg9
(issf_api
FeatureSet
p1341
(dp1342
g12
(dp1343
S'posn'
p1344
S'30'
p1345
sS'name'
p1346
S'\xe0\xa4\x8f\xe0\xa4\x95'
p1347
sS'drel'
p1348
S'nmod__adj:NP2'
p1349
sS'chunktype'
p1350
S'child:NP2'
p1351
sS'af'
p1352
S'\xe0\xa4\x8f\xe0\xa4\x95,num,any,any,,any,,'
p1353
ssbsg38
I00
sg39
I00
sg40
Nsg41
Nsg42
I1
sg43
I3
sg44
Nsg45
Nsg46
S'QC'
p1354
sg48
g1341
sg49
I00
sba(issf_api
Word
p1355
(dp1356
g6
I00
sg7
V\u092e\u0939\u093f\u0932\u093e
p1357
sg9
(issf_api
FeatureSet
p1358
(dp1359
g12
(dp1360
S'posn'
p1361
S'40'
p1362
sS'name'
p1363
S'\xe0\xa4\xae\xe0\xa4\xb9\xe0\xa4\xbf\xe0\xa4\xb2\xe0\xa4\xbe'
p1364
sS'af'
p1365
S'\xe0\xa4\xae\xe0\xa4\xb9\xe0\xa4\xbf\xe0\xa4\xb2\xe0\xa4\xbe,n,f,sg,3,d,0,0'
p1366
sS'chunkid'
p1367
S'NP2'
p1368
sS'drel'
p1369
S'k1:VGF'
p1370
sS'chunktype'
p1371
S'head:NP2'
p1372
ssbsg38
I00
sg39
I00
sg40
Nsg41
Nsg42
I1
sg43
I3
sg44
Nsg45
Nsg46
S'NN'
p1373
sg48
g1358
sg49
I00
sba(issf_api
Word
p1374
(dp1375
g6
I00
sg7
V\u092d\u0940
p1376
sg9
(issf_api
FeatureSet
p1377
(dp1378
g12
(dp1379
S'posn'
p1380
S'50'
p1381
sS'name'
p1382
S'\xe0\xa4\xad\xe0\xa5\x80'
p1383
sS'drel'
p1384
S'lwg__rp:NP2'
p1385
sS'chunktype'
p1386
S'child:NP2'
p1387
sS'af'
p1388
S'\xe0\xa4\xad\xe0\xa5\x80,avy,,,,,,'
p1389
ssbsg38
I00
sg39
I00
sg40
Nsg41
Nsg42
I1
sg43
I3
sg44
Nsg45
Nsg46
S'RP'
p1390
sg48
g1377
sg49
I00
sba(issf_api
Word
p1391
(dp1392
g6
I00
sg7
V\u0936\u093e\u092e\u093f\u0932
p1393
sg9
(issf_api
FeatureSet
p1394
(dp1395
g12
(dp1396
S'posn'
p1397
S'60'
p1398
sS'name'
p1399
S'\xe0\xa4\xb6\xe0\xa4\xbe\xe0\xa4\xae\xe0\xa4\xbf\xe0\xa4\xb2'
p1400
sS'af'
p1401
S'\xe0\xa4\xb6\xe0\xa4\xbe\xe0\xa4\xae\xe0\xa4\xbf\xe0\xa4\xb2,adj,any,any,,,,'
p1402
sS'chunkid'
p1403
S'JJP'
p1404
sS'drel'
p1405
S'k1s:VGF'
p1406
sS'chunktype'
p1407
S'head:JJP'
p1408
ssbsg38
I00
sg39
I00
sg40
Nsg41
Nsg42
I2
sg43
I3
sg44
Nsg45
Nsg46
S'JJ'
p1409
sg48
g1394
sg49
I00
sba(issf_api
Word
p1410
(dp1411
g6
I00
sg7
V\u0939\u0948
p1412
sg9
(issf_api
FeatureSet
p1413
(dp1414
g12
(dp1415
S'posn'
p1416
S'70'
p1417
sS'name'
p1418
S'\xe0\xa4\xb9\xe0\xa5\x88'
p1419
sS'af'
p1420
S'\xe0\xa4\xb9\xe0\xa5\x88,v,any,sg,3,,\xe0\xa4\xb9\xe0\xa5\x88,hE'
p1421
sS'chunkid'
p1422
S'VGF'
p1423
sS'chunktype'
p1424
S'head:VGF'
p1425
sS'voicetype'
p1426
S'active'
p1427
sS'stype'
p1428
S'declarative'
p1429
ssbsg38
I00
sg39
I00
sg40
Nsg41
Nsg42
I3
sg43
I3
sg44
Nsg45
Nsg46
S'VM'
p1430
sg48
g1413
sg49
I00
sba(issf_api
Word
p1431
(dp1432
g6
I00
sg7
V\u0964
p1433
sg9
(issf_api
FeatureSet
p1434
(dp1435
g12
(dp1436
S'posn'
p1437
S'80'
p1438
sS'name'
p1439
S'\xe0\xa5\xa4'
p1440
sS'af'
p1441
S'\xe0\xa5\xa4,punc,,,,,,'
p1442
sS'chunkid'
p1443
S'BLK'
p1444
sS'drel'
p1445
S'rsym:VGF'
p1446
sS'chunktype'
p1447
S'head:BLK'
p1448
ssbsg38
I00
sg39
I00
sg40
Nsg41
Nsg42
I4
sg43
I3
sg44
Nsg45
Nsg46
S'SYM'
p1449
sg48
g1434
sg49
I00
sba(issf_api
Word
p1450
(dp1451
g6
I00
sg7
V\u0938\u0930\u0915\u093e\u0930\u0940
p1452
sg9
(issf_api
FeatureSet
p1453
(dp1454
g12
(dp1455
S'posn'
p1456
S'10'
p1457
sS'name'
p1458
S'\xe0\xa4\xb8\xe0\xa4\xb0\xe0\xa4\x95\xe0\xa4\xbe\xe0\xa4\xb0\xe0\xa5\x80'
p1459
sS'drel'
p1460
S'nmod__adj:NP'
p1461
sS'chunktype'
p1462
S'child:NP'
p1463
sS'af'
p1464
S'\xe0\xa4\xb8\xe0\xa4\xb0\xe0\xa4\x95\xe0\xa4\xbe\xe0\xa4\xb0\xe0\xa5\x80,adj,any,any,,o,,'
p1465
ssbsg38
I00
sg39
I00
sg40
Nsg41
Nsg42
I0
sg43
I4
sg44
Nsg45
Nsg46
S'JJ'
p1466
sg48
g1453
sg49
I00
sba(issf_api
Word
p1467
(dp1468
g6
I00
sg7
V\u0938\u0942\u0924\u094d\u0930\u094b\u0902
p1469
sg9
(issf_api
FeatureSet
p1470
(dp1471
g12
(dp1472
S'posn'
p1473
S'20'
p1474
sS'name'
p1475
S'\xe0\xa4\xb8\xe0\xa5\x82\xe0\xa4\xa4\xe0\xa5\x8d\xe0\xa4\xb0\xe0\xa5\x8b\xe0\xa4\x82'
p1476
sS'af'
p1477
S'\xe0\xa4\xb8\xe0\xa5\x82\xe0\xa4\xa4\xe0\xa5\x8d\xe0\xa4\xb0,n,m,pl,3,o,0_\xe0\xa4\xa8\xe0\xa5\x87,0'
p1478
sS'chunkid'
p1479
S'NP'
p1480
sS'drel'
p1481
S'k1:VGF'
p1482
sS'vpos'
p1483
S'vib_3'
p1484
sS'chunktype'
p1485
S'head:NP'
p1486
ssbsg38
I00
sg39
I00
sg40
Nsg41
Nsg42
I0
sg43
I4
sg44
Nsg45
Nsg46
S'NN'
p1487
sg48
g1470
sg49
I00
sba(issf_api
Word
p1488
(dp1489
g6
I00
sg7
V\u0928\u0947
p1490
sg9
(issf_api
FeatureSet
p1491
(dp1492
g12
(dp1493
S'posn'
p1494
S'30'
p1495
sS'name'
p1496
S'\xe0\xa4\xa8\xe0\xa5\x87'
p1497
sS'drel'
p1498
S'lwg__psp:NP'
p1499
sS'chunktype'
p1500
S'child:NP'
p1501
sS'af'
p1502
S'\xe0\xa4\xa8\xe0\xa5\x87,psp,,,,,,'
p1503
ssbsg38
I00
sg39
I00
sg40
Nsg41
Nsg42
I0
sg43
I4
sg44
Nsg45
Nsg46
S'PSP'
p1504
sg48
g1491
sg49
I00
sba(issf_api
Word
p1505
(dp1506
g6
I00
sg7
V\u092c\u0924\u093e\u092f\u093e
p1507
sg9
(issf_api
FeatureSet
p1508
(dp1509
g12
(dp1510
S'posn'
p1511
S'40'
p1512
sS'name'
p1513
S'\xe0\xa4\xac\xe0\xa4\xa4\xe0\xa4\xbe\xe0\xa4\xaf\xe0\xa4\xbe'
p1514
sS'af'
p1515
S'\xe0\xa4\xac\xe0\xa4\xa4\xe0\xa4\xbe,v,m,sg,any,,\xe0\xa4\xaf\xe0\xa4\xbe,yA'
p1516
sS'chunkid'
p1517
S'VGF'
p1518
sS'chunktype'
p1519
S'head:VGF'
p1520
sS'voicetype'
p1521
S'active'
p1522
sS'stype'
p1523
S'declarative'
p1524
ssbsg38
I00
sg39
I00
sg40
Nsg41
Nsg42
I1
sg43
I4
sg44
Nsg45
Nsg46
S'VM'
p1525
sg48
g1508
sg49
I00
sba(issf_api
Word
p1526
(dp1527
g6
I00
sg7
V\u0915\u093f
p1528
sg9
(issf_api
FeatureSet
p1529
(dp1530
g12
(dp1531
S'posn'
p1532
S'50'
p1533
sS'name'
p1534
S'\xe0\xa4\x95\xe0\xa4\xbf'
p1535
sS'af'
p1536
S'\xe0\xa4\x95\xe0\xa4\xbf,avy,,,,,,'
p1537
sS'chunkid'
p1538
S'CCP'
p1539
sS'drel'
p1540
S'k2:VGF'
p1541
sS'chunktype'
p1542
S'head:CCP'
p1543
ssbsg38
I00
sg39
I00
sg40
Nsg41
Nsg42
I2
sg43
I4
sg44
Nsg45
Nsg46
S'CC'
p1544
sg48
g1529
sg49
I00
sba(issf_api
Word
p1545
(dp1546
g6
I00
sg7
V\u0907\u0930\u093e\u0915
p1547
sg9
(issf_api
FeatureSet
p1548
(dp1549
g12
(dp1550
S'crefhead'
p1551
S'\xe0\xa4\x87\xe0\xa4\xb0\xe0\xa4\xbe\xe0\xa4\x95:i14'
p1552
sS'posn'
p1553
S'60'
p1554
sS'name'
p1555
S'\xe0\xa4\x87\xe0\xa4\xb0\xe0\xa4\xbe\xe0\xa4\x95'
p1556
sS'af'
p1557
S'\xe0\xa4\x87\xe0\xa4\xb0\xe0\xa4\xbe\xe0\xa4\x95,n,m,sg,3,o,0_\xe0\xa4\x95\xe0\xa4\xbe,0'
p1558
sS'acrefmodhead'
p1559
S'\xe0\xa4\x87\xe0\xa4\xb0\xe0\xa4\xbe\xe0\xa4\x95:m2'
p1560
sS'chunkid'
p1561
S'NP2'
p1562
sS'acrefmod'
p1563
S'm2%1:i15'
p1564
sS'creftype'
p1565
S'Coreference-Identity:i1'
p1566
sS'chunktype'
p1567
S'head:NP2'
p1568
sS'vpos'
p1569
S'vib_2'
p1570
sS'cref'
p1571
S'i14%1:t1'
p1572
sS'drel'
p1573
S'r6:NP3'
p1574
ssbsg38
I00
sg39
I00
sg40
Nsg41
Nsg42
I3
sg43
I4
sg44
Nsg45
Nsg46
S'NNP'
p1575
sg48
g1548
sg49
I00
sba(issf_api
Word
p1576
(dp1577
g6
I00
sg7
V\u0915\u0947
p1578
sg9
(issf_api
FeatureSet
p1579
(dp1580
g12
(dp1581
S'posn'
p1582
S'70'
p1583
sS'name'
p1584
S'\xe0\xa4\x95\xe0\xa5\x87'
p1585
sS'drel'
p1586
S'lwg__psp:NP2'
p1587
sS'chunktype'
p1588
S'child:NP2'
p1589
sS'af'
p1590
S'\xe0\xa4\x95\xe0\xa4\xbe,psp,m,sg,,o,,'
p1591
ssbsg38
I00
sg39
I00
sg40
Nsg41
Nsg42
I3
sg43
I4
sg44
Nsg45
Nsg46
S'PSP'
p1592
sg48
g1579
sg49
I00
sba(issf_api
Word
p1593
(dp1594
g6
I00
sg7
V\u092a\u094d\u0930\u0927\u093e\u0928\u092e\u0902\u0924\u094d\u0930\u0940
p1595
sg9
(issf_api
FeatureSet
p1596
(dp1597
g12
(dp1598
S'crefhead'
p1599
S'\xe0\xa4\xaa\xe0\xa5\x8d\xe0\xa4\xb0\xe0\xa4\xa7\xe0\xa4\xbe\xe0\xa4\xa8\xe0\xa4\xae\xe0\xa4\x82\xe0\xa4\xa4\xe0\xa5\x8d\xe0\xa4\xb0\xe0\xa5\x80:i15'
p1600
sS'posn'
p1601
S'80'
p1602
sS'name'
p1603
S'\xe0\xa4\xaa\xe0\xa5\x8d\xe0\xa4\xb0\xe0\xa4\xa7\xe0\xa4\xbe\xe0\xa4\xa8\xe0\xa4\xae\xe0\xa4\x82\xe0\xa4\xa4\xe0\xa5\x8d\xe0\xa4\xb0\xe0\xa5\x80'
p1604
sS'af'
p1605
S'\xe0\xa4\xaa\xe0\xa5\x8d\xe0\xa4\xb0\xe0\xa4\xa7\xe0\xa4\xbe\xe0\xa4\xa8\xe0\xa4\xae\xe0\xa4\x82\xe0\xa4\xa4\xe0\xa5\x8d\xe0\xa4\xb0\xe0\xa5\x80,n,m,sg,3,o,0,0'
p1606
sS'chunkid'
p1607
S'NP3'
p1608
sS'crefmod'
p1609
S'm2:i15'
p1610
sS'chunktype'
p1611
S'head:NP3'
p1612
sS'cref'
p1613
S'i15%1:t8'
p1614
sS'drel'
p1615
S'nmod:NP4'
p1616
ssbsg38
I00
sg39
I00
sg40
Nsg41
Nsg42
I4
sg43
I4
sg44
Nsg45
Nsg46
S'NNP'
p1617
sg48
g1596
sg49
I00
sba(issf_api
Word
p1618
(dp1619
g6
I00
sg7
V\u0907\u092f\u093e\u0926
p1620
sg9
(issf_api
FeatureSet
p1621
(dp1622
g12
(dp1623
S'posn'
p1624
S'90'
p1625
sS'name'
p1626
S'\xe0\xa4\x87\xe0\xa4\xaf\xe0\xa4\xbe\xe0\xa4\xa6'
p1627
sS'af'
p1628
S'\xe0\xa4\x87\xe0\xa4\xaf\xe0\xa4\xbe\xe0\xa4\xa6,n,m,sg,3,d,0,0'
p1629
sS'drel'
p1630
S'pof__cn:NP4'
p1631
sS'chunktype'
p1632
S'child:NP4'
p1633
sS'cref'
p1634
S'i16%0:t8'
p1635
ssbsg38
I00
sg39
I00
sg40
Nsg41
Nsg42
I5
sg43
I4
sg44
Nsg45
Nsg46
S'NNPC'
p1636
sg48
g1621
sg49
I00
sba(issf_api
Word
p1637
(dp1638
g6
I00
sg7
V\u0905\u0932\u093e\u0935\u0940
p1639
sg9
(issf_api
FeatureSet
p1640
(dp1641
g12
(dp1642
S'crefhead'
p1643
S'\xe0\xa4\x85\xe0\xa4\xb2\xe0\xa4\xbe\xe0\xa4\xb5\xe0\xa5\x80:i16'
p1644
sS'posn'
p1645
S'100'
p1646
sS'name'
p1647
S'\xe0\xa4\x85\xe0\xa4\xb2\xe0\xa4\xbe\xe0\xa4\xb5\xe0\xa5\x80'
p1648
sS'af'
p1649
S'\xe0\xa4\x85\xe0\xa4\xb2\xe0\xa4\xbe\xe0\xa4\xb5\xe0\xa5\x80,n,m,sg,3,o,0_\xe0\xa4\xa8\xe0\xa5\x87,0'
p1650
sS'chunkid'
p1651
S'NP4'
p1652
sS'creftype'
p1653
S'Coreference-NounComplement:i15'
p1654
sS'chunktype'
p1655
S'head:NP4'
p1656
sS'crefchainhead'
p1657
S'i16:t8'
p1658
sS'vpos'
p1659
S'vib_3'
p1660
sS'cref'
p1661
S'i16%1:t8'
p1662
sS'drel'
p1663
S'k1:VGF2'
p1664
ssbsg38
I00
sg39
I00
sg40
Nsg41
Nsg42
I5
sg43
I4
sg44
Nsg45
Nsg46
S'NNP'
p1665
sg48
g1640
sg49
I00
sba(issf_api
Word
p1666
(dp1667
g6
I00
sg7
V\u0928\u0947
p1668
sg9
(issf_api
FeatureSet
p1669
(dp1670
g12
(dp1671
S'posn'
p1672
S'110'
p1673
sS'name'
p1674
S'\xe0\xa4\xa8\xe0\xa5\x872'
p1675
sS'drel'
p1676
S'lwg__psp:NP4'
p1677
sS'chunktype'
p1678
S'child:NP4'
p1679
sS'af'
p1680
S'\xe0\xa4\xa8\xe0\xa5\x87,psp,,,,,,'
p1681
ssbsg38
I00
sg39
I00
sg40
Nsg41
Nsg42
I5
sg43
I4
sg44
Nsg45
Nsg46
S'PSP'
p1682
sg48
g1669
sg49
I00
sba(issf_api
Word
p1683
(dp1684
g6
I00
sg7
V\u0905\u092e\u0947\u0930\u093f\u0915\u093e
p1685
sg9
(issf_api
FeatureSet
p1686
(dp1687
g12
(dp1688
S'posn'
p1689
S'120'
p1690
sS'name'
p1691
S'\xe0\xa4\x85\xe0\xa4\xae\xe0\xa5\x87\xe0\xa4\xb0\xe0\xa4\xbf\xe0\xa4\x95\xe0\xa4\xbe'
p1692
sS'af'
p1693
S'\xe0\xa4\x85\xe0\xa4\xae\xe0\xa5\x87\xe0\xa4\xb0\xe0\xa4\xbf\xe0\xa4\x95\xe0\xa4\xbe,n,m,sg,3,o,0_\xe0\xa4\x95\xe0\xa4\xbe,0'
p1694
sS'chunkid'
p1695
S'NP5'
p1696
sS'drel'
p1697
S'r6:NP6'
p1698
sS'vpos'
p1699
S'vib_2'
p1700
sS'chunktype'
p1701
S'head:NP5'
p1702
ssbsg38
I00
sg39
I00
sg40
Nsg41
Nsg42
I6
sg43
I4
sg44
Nsg45
Nsg46
S'NNP'
p1703
sg48
g1686
sg49
I00
sba(issf_api
Word
p1704
(dp1705
g6
I00
sg7
V\u0915\u0947
p1706
sg9
(issf_api
FeatureSet
p1707
(dp1708
g12
(dp1709
S'posn'
p1710
S'130'
p1711
sS'name'
p1712
S'\xe0\xa4\x95\xe0\xa5\x872'
p1713
sS'drel'
p1714
S'lwg__psp:NP5'
p1715
sS'chunktype'
p1716
S'child:NP5'
p1717
sS'af'
p1718
S'\xe0\xa4\x95\xe0\xa4\xbe,psp,m,sg,,o,,'
p1719
ssbsg38
I00
sg39
I00
sg40
Nsg41
Nsg42
I6
sg43
I4
sg44
Nsg45
Nsg46
S'PSP'
p1720
sg48
g1707
sg49
I00
sba(issf_api
Word
p1721
(dp1722
g6
I00
sg7
V\u0928\u0947\u0924\u0943\u0924\u094d\u0935
p1723
sg9
(issf_api
FeatureSet
p1724
(dp1725
g12
(dp1726
S'posn'
p1727
S'140'
p1728
sS'name'
p1729
S'\xe0\xa4\xa8\xe0\xa5\x87\xe0\xa4\xa4\xe0\xa5\x83\xe0\xa4\xa4\xe0\xa5\x8d\xe0\xa4\xb5'
p1730
sS'af'
p1731
S'\xe0\xa4\xa8\xe0\xa5\x87\xe0\xa4\xa4\xe0\xa5\x83\xe0\xa4\xa4\xe0\xa5\x8d\xe0\xa4\xb5,n,m,sg,3,o,0_\xe0\xa4\xb5\xe0\xa4\xbe\xe0\xa4\xb2\xe0\xa4\xbe,0'
p1732
sS'chunkid'
p1733
S'NP6'
p1734
sS'drel'
p1735
S'nmod:NP7'
p1736
sS'vpos'
p1737
S'vib_2'
p1738
sS'chunktype'
p1739
S'head:NP6'
p1740
ssbsg38
I00
sg39
I00
sg40
Nsg41
Nsg42
I7
sg43
I4
sg44
Nsg45
Nsg46
S'NN'
p1741
sg48
g1724
sg49
I00
sba(issf_api
Word
p1742
(dp1743
g6
I00
sg7
V\u0935\u093e\u0932\u0940
p1744
sg9
(issf_api
FeatureSet
p1745
(dp1746
g12
(dp1747
S'posn'
p1748
S'150'
p1749
sS'name'
p1750
S'\xe0\xa4\xb5\xe0\xa4\xbe\xe0\xa4\xb2\xe0\xa5\x80'
p1751
sS'drel'
p1752
S'lwg__psp:NP6'
p1753
sS'chunktype'
p1754
S'child:NP6'
p1755
sS'af'
p1756
S'\xe0\xa4\xb5\xe0\xa4\xbe\xe0\xa4\xb2\xe0\xa4\xbe,psp,f,sg,,o,,'
p1757
ssbsg38
I00
sg39
I00
sg40
Nsg41
Nsg42
I7
sg43
I4
sg44
Nsg45
Nsg46
S'PSP'
p1758
sg48
g1745
sg49
I00
sba(issf_api
Word
p1759
(dp1760
g6
I00
sg7
V\u0917\u0920\u092c\u0902\u0927\u0928
p1761
sg9
(issf_api
FeatureSet
p1762
(dp1763
g12
(dp1764
S'posn'
p1765
S'160'
p1766
sS'name'
p1767
S'\xe0\xa4\x97\xe0\xa4\xa0\xe0\xa4\xac\xe0\xa4\x82\xe0\xa4\xa7\xe0\xa4\xa8'
p1768
sS'af'
p1769
S'\xe0\xa4\x97\xe0\xa4\xa0\xe0\xa4\xac\xe0\xa4\x82\xe0\xa4\xa7\xe0\xa4\xa8,n,m,sg,3,d,0,0'
p1770
sS'drel'
p1771
S'pof__cn:NP7'
p1772
sS'chunktype'
p1773
S'child:NP7'
p1774
sS'cref'
p1775
S'i17%0:t6'
p1776
ssbsg38
I00
sg39
I00
sg40
Nsg41
Nsg42
I8
sg43
I4
sg44
Nsg45
Nsg46
S'NNC'
p1777
sg48
g1762
sg49
I00
sba(issf_api
Word
p1778
(dp1779
g6
I00
sg7
V\u0938\u0947\u0928\u093e
p1780
sg9
(issf_api
FeatureSet
p1781
(dp1782
g12
(dp1783
S'crefhead'
p1784
S'\xe0\xa4\xb8\xe0\xa5\x87\xe0\xa4\xa8\xe0\xa4\xbe:i17'
p1785
sS'posn'
p1786
S'170'
p1787
sS'name'
p1788
S'\xe0\xa4\xb8\xe0\xa5\x87\xe0\xa4\xa8\xe0\xa4\xbe'
p1789
sS'af'
p1790
S'\xe0\xa4\xb8\xe0\xa5\x87\xe0\xa4\xa8\xe0\xa4\xbe,n,f,sg,3,o,0_\xe0\xa4\x95\xe0\xa5\x8b,0'
p1791
sS'chunkid'
p1792
S'NP7'
p1793
sS'creftype'
p1794
S'Coreference-Identity:i6'
p1795
sS'chunktype'
p1796
S'head:NP7'
p1797
sS'vpos'
p1798
S'vib_3'
p1799
sS'cref'
p1800
S'i17%1:t6'
p1801
sS'drel'
p1802
S'k4:VGF2'
p1803
ssbsg38
I00
sg39
I00
sg40
Nsg41
Nsg42
I8
sg43
I4
sg44
Nsg45
Nsg46
S'NN'
p1804
sg48
g1781
sg49
I00
sba(issf_api
Word
p1805
(dp1806
g6
I00
sg7
V\u0915\u094b
p1807
sg9
(issf_api
FeatureSet
p1808
(dp1809
g12
(dp1810
S'posn'
p1811
S'180'
p1812
sS'name'
p1813
S'\xe0\xa4\x95\xe0\xa5\x8b'
p1814
sS'drel'
p1815
S'lwg__psp:NP7'
p1816
sS'chunktype'
p1817
S'child:NP7'
p1818
sS'af'
p1819
S'\xe0\xa4\x95\xe0\xa5\x8b,psp,,,,,,'
p1820
ssbsg38
I00
sg39
I00
sg40
Nsg41
Nsg42
I8
sg43
I4
sg44
Nsg45
Nsg46
S'PSP'
p1821
sg48
g1808
sg49
I00
sba(issf_api
Word
p1822
(dp1823
g6
I00
sg7
V\u0938\u0902\u0926\u093f\u0917\u094d\u0927
p1824
sg9
(issf_api
FeatureSet
p1825
(dp1826
g12
(dp1827
S'posn'
p1828
S'190'
p1829
sS'name'
p1830
S'\xe0\xa4\xb8\xe0\xa4\x82\xe0\xa4\xa6\xe0\xa4\xbf\xe0\xa4\x97\xe0\xa5\x8d\xe0\xa4\xa7'
p1831
sS'drel'
p1832
S'nmod__adj:NP8'
p1833
sS'chunktype'
p1834
S'child:NP8'
p1835
sS'af'
p1836
S'\xe0\xa4\xb8\xe0\xa4\x82\xe0\xa4\xa6\xe0\xa4\xbf\xe0\xa4\x97\xe0\xa5\x8d\xe0\xa4\xa7,adj,any,any,,o,,'
p1837
ssbsg38
I00
sg39
I00
sg40
Nsg41
Nsg42
I9
sg43
I4
sg44
Nsg45
Nsg46
S'JJ'
p1838
sg48
g1825
sg49
I00
sba(issf_api
Word
p1839
(dp1840
g6
I00
sg7
V\u0906\u0924\u0902\u0915\u093f\u092f\u094b\u0902
p1841
sg9
(issf_api
FeatureSet
p1842
(dp1843
g12
(dp1844
S'posn'
p1845
S'200'
p1846
sS'name'
p1847
S'\xe0\xa4\x86\xe0\xa4\xa4\xe0\xa4\x82\xe0\xa4\x95\xe0\xa4\xbf\xe0\xa4\xaf\xe0\xa5\x8b\xe0\xa4\x82'
p1848
sS'af'
p1849
S'\xe0\xa4\x86\xe0\xa4\xa4\xe0\xa4\x82\xe0\xa4\x95\xe0\xa5\x80,n,m,pl,3,o,0_\xe0\xa4\x95\xe0\xa5\x87_\xe0\xa4\x96\xe0\xa4\xbf\xe0\xa4\xb2\xe0\xa4\xbe\xe0\xa4\xab,0'
p1850
sS'chunkid'
p1851
S'NP8'
p1852
sS'drel'
p1853
S'vmod:VGF2'
p1854
sS'vpos'
p1855
S'vib_3_4'
p1856
sS'chunktype'
p1857
S'head:NP8'
p1858
ssbsg38
I00
sg39
I00
sg40
Nsg41
Nsg42
I9
sg43
I4
sg44
Nsg45
Nsg46
S'NN'
p1859
sg48
g1842
sg49
I00
sba(issf_api
Word
p1860
(dp1861
g6
I00
sg7
V\u0915\u0947
p1862
sg9
(issf_api
FeatureSet
p1863
(dp1864
g12
(dp1865
S'posn'
p1866
S'210'
p1867
sS'name'
p1868
S'\xe0\xa4\x95\xe0\xa5\x873'
p1869
sS'drel'
p1870
S'lwg__psp:NP8'
p1871
sS'chunktype'
p1872
S'child:NP8'
p1873
sS'af'
p1874
S'\xe0\xa4\x95\xe0\xa5\x87,psp,,,,,,'
p1875
ssbsg38
I00
sg39
I00
sg40
Nsg41
Nsg42
I9
sg43
I4
sg44
Nsg45
Nsg46
S'PSP'
p1876
sg48
g1863
sg49
I00
sba(issf_api
Word
p1877
(dp1878
g6
I00
sg7
V\u0916\u093f\u0932\u093e\u092b
p1879
sg9
(issf_api
FeatureSet
p1880
(dp1881
g12
(dp1882
S'posn'
p1883
S'220'
p1884
sS'name'
p1885
S'\xe0\xa4\x96\xe0\xa4\xbf\xe0\xa4\xb2\xe0\xa4\xbe\xe0\xa4\xab'
p1886
sS'drel'
p1887
S'lwg__psp:NP8'
p1888
sS'chunktype'
p1889
S'child:NP8'
p1890
sS'af'
p1891
S'\xe0\xa4\x96\xe0\xa4\xbf\xe0\xa4\xb2\xe0\xa4\xbe\xe0\xa4\xab,adj,,,,,,'
p1892
ssbsg38
I00
sg39
I00
sg40
Nsg41
Nsg42
I9
sg43
I4
sg44
Nsg45
Nsg46
S'PSP'
p1893
sg48
g1880
sg49
I00
sba(issf_api
Word
p1894
(dp1895
g6
I00
sg7
V\u0939\u092e\u0932\u0947
p1896
sg9
(issf_api
FeatureSet
p1897
(dp1898
g12
(dp1899
S'crefhead'
p1900
S'\xe0\xa4\xb9\xe0\xa4\xae\xe0\xa4\xb2\xe0\xa5\x87:i18'
p1901
sS'posn'
p1902
S'230'
p1903
sS'name'
p1904
S'\xe0\xa4\xb9\xe0\xa4\xae\xe0\xa4\xb2\xe0\xa5\x87'
p1905
sS'af'
p1906
S'\xe0\xa4\xb9\xe0\xa4\xae\xe0\xa4\xb2\xe0\xa4\xbe,n,m,sg,3,o,0_\xe0\xa4\x95\xe0\xa4\xbe,0'
p1907
sS'acrefmodhead'
p1908
S'\xe0\xa4\xb9\xe0\xa4\xae\xe0\xa4\xb2\xe0\xa5\x87:m3'
p1909
sS'chunkid'
p1910
S'NP9'
p1911
sS'acrefmod'
p1912
S'm3%1:i19'
p1913
sS'creftype'
p1914
S'Coreference-Identity:i11'
p1915
sS'chunktype'
p1916
S'head:NP9'
p1917
sS'vpos'
p1918
S'vib_2'
p1919
sS'cref'
p1920
S'i18%1:t4'
p1921
sS'drel'
p1922
S'r6:NP10'
p1923
ssbsg38
I00
sg39
I00
sg40
Nsg41
Nsg42
I10
sg43
I4
sg44
Nsg45
Nsg46
S'NN'
p1924
sg48
g1897
sg49
I00
sba(issf_api
Word
p1925
(dp1926
g6
I00
sg7
V\u0915\u0940
p1927
sg9
(issf_api
FeatureSet
p1928
(dp1929
g12
(dp1930
S'posn'
p1931
S'240'
p1932
sS'name'
p1933
S'\xe0\xa4\x95\xe0\xa5\x80'
p1934
sS'drel'
p1935
S'lwg__psp:NP9'
p1936
sS'chunktype'
p1937
S'child:NP9'
p1938
sS'af'
p1939
S'\xe0\xa4\x95\xe0\xa4\xbe,psp,f,sg,,d,,'
p1940
ssbsg38
I00
sg39
I00
sg40
Nsg41
Nsg42
I10
sg43
I4
sg44
Nsg45
Nsg46
S'PSP'
p1941
sg48
g1928
sg49
I00
sba(issf_api
Word
p1942
(dp1943
g6
I00
sg7
V\u0907\u091c\u093e\u091c\u093c\u0924
p1944
sg9
(issf_api
FeatureSet
p1945
(dp1946
g12
(dp1947
S'crefhead'
p1948
S'\xe0\xa4\x87\xe0\xa4\x9c\xe0\xa4\xbe\xe0\xa4\x9c\xe0\xa4\xbc\xe0\xa4\xa4:i19'
p1949
sS'posn'
p1950
S'250'
p1951
sS'name'
p1952
S'\xe0\xa4\x87\xe0\xa4\x9c\xe0\xa4\xbe\xe0\xa4\x9c\xe0\xa4\xbc\xe0\xa4\xa4'
p1953
sS'af'
p1954
S'\xe0\xa4\x87\xe0\xa4\x9c\xe0\xa4\xbe\xe0\xa4\x9c\xe0\xa4\xa4,n,f,sg,3,d,0,0'
p1955
sS'chunkid'
p1956
S'NP10'
p1957
sS'crefmod'
p1958
S'm3:i19'
p1959
sS'chunktype'
p1960
S'head:NP10'
p1961
sS'crefchainhead'
p1962
S'i19:t9'
p1963
sS'cref'
p1964
S'i19%1:t9'
p1965
sS'drel'
p1966
S'k2:VGF2'
p1967
ssbsg38
I00
sg39
I00
sg40
Nsg41
Nsg42
I11
sg43
I4
sg44
Nsg45
Nsg46
S'NN'
p1968
sg48
g1945
sg49
I00
sba(issf_api
Word
p1969
(dp1970
g6
I00
sg7
V\u0926\u0940
p1971
sg9
(issf_api
FeatureSet
p1972
(dp1973
g12
(dp1974
S'posn'
p1975
S'260'
p1976
sS'name'
p1977
S'\xe0\xa4\xa6\xe0\xa5\x80'
p1978
sS'af'
p1979
S'\xe0\xa4\xa6\xe0\xa5\x87,v,f,sg,any,,\xe0\xa4\xaf\xe0\xa4\xbe_\xe0\xa4\xa5\xe0\xa4\xbe,yA'
p1980
sS'chunkid'
p1981
S'VGF2'
p1982
sS'stype'
p1983
S'declarative'
p1984
sS'drel'
p1985
S'ccof:CCP2'
p1986
sS'voicetype'
p1987
S'active'
p1988
sS'vpos'
p1989
S'tam_2'
p1990
sS'chunktype'
p1991
S'head:VGF2'
p1992
ssbsg38
I00
sg39
I00
sg40
Nsg41
Nsg42
I12
sg43
I4
sg44
Nsg45
Nsg46
S'VM'
p1993
sg48
g1972
sg49
I00
sba(issf_api
Word
p1994
(dp1995
g6
I00
sg7
V\u0925\u0940
p1996
sg9
(issf_api
FeatureSet
p1997
(dp1998
g12
(dp1999
S'posn'
p2000
S'270'
p2001
sS'name'
p2002
S'\xe0\xa4\xa5\xe0\xa5\x80'
p2003
sS'drel'
p2004
S'lwg__vaux:VGF2'
p2005
sS'chunktype'
p2006
S'child:VGF2'
p2007
sS'af'
p2008
S'\xe0\xa4\xa5\xe0\xa4\xbe,v,f,sg,any,,\xe0\xa4\xa5\xe0\xa4\xbe,WA'
p2009
ssbsg38
I00
sg39
I00
sg40
Nsg41
Nsg42
I12
sg43
I4
sg44
Nsg45
Nsg46
S'VAUX'
p2010
sg48
g1997
sg49
I00
sba(issf_api
Word
p2011
(dp2012
g6
I00
sg7
V\u0914\u0930
p2013
sg9
(issf_api
FeatureSet
p2014
(dp2015
g12
(dp2016
S'posn'
p2017
S'280'
p2018
sS'name'
p2019
S'\xe0\xa4\x94\xe0\xa4\xb0'
p2020
sS'af'
p2021
S'\xe0\xa4\x94\xe0\xa4\xb0,avy,,,,,,'
p2022
sS'chunkid'
p2023
S'CCP2'
p2024
sS'drel'
p2025
S'ccof:CCP'
p2026
sS'chunktype'
p2027
S'head:CCP2'
p2028
ssbsg38
I00
sg39
I00
sg40
Nsg41
Nsg42
I13
sg43
I4
sg44
Nsg45
Nsg46
S'CC'
p2029
sg48
g2014
sg49
I00
sba(issf_api
Word
p2030
(dp2031
g6
I00
sg7
V\u0907\u0938\u0940
p2032
sg9
(issf_api
FeatureSet
p2033
(dp2034
g12
(dp2035
S'crefhead'
p2036
S'\xe0\xa4\x87\xe0\xa4\xb8\xe0\xa5\x80:i20'
p2037
sS'posn'
p2038
S'290'
p2039
sS'name'
p2040
S'\xe0\xa4\x87\xe0\xa4\xb8\xe0\xa5\x80'
p2041
sS'af'
p2042
S'\xe0\xa4\xaf\xe0\xa4\xb9,pn,any,sg,3,o,0_\xe0\xa4\x95\xe0\xa5\x87_\xe0\xa4\xac\xe0\xa4\xbe\xe0\xa4\xa6,0'
p2043
sS'chunkid'
p2044
S'NP11'
p2045
sS'creftype'
p2046
S'Anaphora-C:i19'
p2047
sS'chunktype'
p2048
S'head:NP11'
p2049
sS'vpos'
p2050
S'vib_2_3'
p2051
sS'cref'
p2052
S'i20%1:t9'
p2053
sS'drel'
p2054
S'k7t:VGF3'
p2055
ssbsg38
I00
sg39
I00
sg40
Nsg41
Nsg42
I14
sg43
I4
sg44
Nsg45
Nsg46
S'PRP'
p2056
sg48
g2033
sg49
I00
sba(issf_api
Word
p2057
(dp2058
g6
I00
sg7
V\u0915\u0947
p2059
sg9
(issf_api
FeatureSet
p2060
(dp2061
g12
(dp2062
S'posn'
p2063
S'300'
p2064
sS'name'
p2065
S'\xe0\xa4\x95\xe0\xa5\x874'
p2066
sS'drel'
p2067
S'lwg__psp:NP11'
p2068
sS'chunktype'
p2069
S'child:NP11'
p2070
sS'af'
p2071
S'\xe0\xa4\x95\xe0\xa5\x87,psp,,,,,,'
p2072
ssbsg38
I00
sg39
I00
sg40
Nsg41
Nsg42
I14
sg43
I4
sg44
Nsg45
Nsg46
S'PSP'
p2073
sg48
g2060
sg49
I00
sba(issf_api
Word
p2074
(dp2075
g6
I00
sg7
V\u092c\u093e\u0926
p2076
sg9
(issf_api
FeatureSet
p2077
(dp2078
g12
(dp2079
S'posn'
p2080
S'310'
p2081
sS'name'
p2082
S'\xe0\xa4\xac\xe0\xa4\xbe\xe0\xa4\xa6'
p2083
sS'drel'
p2084
S'lwg__psp:NP11'
p2085
sS'chunktype'
p2086
S'child:NP11'
p2087
sS'af'
p2088
S'\xe0\xa4\xac\xe0\xa4\xbe\xe0\xa4\xa6,nst,m,sg,3,d,,'
p2089
ssbsg38
I00
sg39
I00
sg40
Nsg41
Nsg42
I14
sg43
I4
sg44
Nsg45
Nsg46
S'NST'
p2090
sg48
g2077
sg49
I00
sba(issf_api
Word
p2091
(dp2092
g6
I00
sg7
V\u0915\u093e\u0930\u094d\u0930\u0935\u093e\u0908
p2093
sg9
(issf_api
FeatureSet
p2094
(dp2095
g12
(dp2096
S'posn'
p2097
S'320'
p2098
sS'name'
p2099
S'\xe0\xa4\x95\xe0\xa4\xbe\xe0\xa4\xb0\xe0\xa5\x8d\xe0\xa4\xb0\xe0\xa4\xb5\xe0\xa4\xbe\xe0\xa4\x88'
p2100
sS'af'
p2101
S'\xe0\xa4\x95\xe0\xa4\xbe\xe0\xa4\xb0\xe0\xa5\x8d\xe0\xa4\xb0\xe0\xa4\xb5\xe0\xa4\xbe\xe0\xa4\x88,n,f,sg,3,d,0,0'
p2102
sS'chunkid'
p2103
S'NP12'
p2104
sS'drel'
p2105
S'pof:VGF3'
p2106
sS'chunktype'
p2107
S'head:NP12'
p2108
ssbsg38
I00
sg39
I00
sg40
Nsg41
Nsg42
I15
sg43
I4
sg44
Nsg45
Nsg46
S'NN'
p2109
sg48
g2094
sg49
I00
sba(issf_api
Word
p2110
(dp2111
g6
I00
sg7
V\u0915\u0940
p2112
sg9
(issf_api
FeatureSet
p2113
(dp2114
g12
(dp2115
S'posn'
p2116
S'330'
p2117
sS'name'
p2118
S'\xe0\xa4\x95\xe0\xa5\x802'
p2119
sS'af'
p2120
S'\xe0\xa4\x95\xe0\xa4\xb0,v,f,sg,any,,\xe0\xa4\xaf\xe0\xa4\xbe_\xe0\xa4\x9c\xe0\xa4\xbe+\xe0\xa4\xaf\xe0\xa4\xbe\xe0\xa5\xa7,yA'
p2121
sS'chunkid'
p2122
S'VGF3'
p2123
sS'stype'
p2124
S'declarative'
p2125
sS'drel'
p2126
S'ccof:CCP2'
p2127
sS'voicetype'
p2128
S'active'
p2129
sS'vpos'
p2130
S'tam_2'
p2131
sS'chunktype'
p2132
S'head:VGF3'
p2133
ssbsg38
I00
sg39
I00
sg40
Nsg41
Nsg42
I16
sg43
I4
sg44
Nsg45
Nsg46
S'VM'
p2134
sg48
g2113
sg49
I00
sba(issf_api
Word
p2135
(dp2136
g6
I00
sg7
V\u0917\u0908
p2137
sg9
(issf_api
FeatureSet
p2138
(dp2139
g12
(dp2140
S'posn'
p2141
S'340'
p2142
sS'name'
p2143
S'\xe0\xa4\x97\xe0\xa4\x88'
p2144
sS'drel'
p2145
S'lwg__vaux:VGF3'
p2146
sS'chunktype'
p2147
S'child:VGF3'
p2148
sS'af'
p2149
S'\xe0\xa4\x9c\xe0\xa4\xbe,v,f,sg,any,,\xe0\xa4\xaf\xe0\xa4\xbe\xe0\xa5\xa7,yA1'
p2150
ssbsg38
I00
sg39
I00
sg40
Nsg41
Nsg42
I16
sg43
I4
sg44
Nsg45
Nsg46
S'VAUX'
p2151
sg48
g2138
sg49
I00
sba(issf_api
Word
p2152
(dp2153
g6
I00
sg7
V\u0964
p2154
sg9
(issf_api
FeatureSet
p2155
(dp2156
g12
(dp2157
S'posn'
p2158
S'350'
p2159
sS'name'
p2160
S'\xe0\xa5\xa4'
p2161
sS'af'
p2162
S'\xe0\xa5\xa4,punc,,,,,,'
p2163
sS'chunkid'
p2164
S'BLK'
p2165
sS'drel'
p2166
S'rsym:VGF'
p2167
sS'chunktype'
p2168
S'head:BLK'
p2169
ssbsg38
I00
sg39
I00
sg40
Nsg41
Nsg42
I17
sg43
I4
sg44
Nsg45
Nsg46
S'SYM'
p2170
sg48
g2155
sg49
I00
sba(issf_api
Word
p2171
(dp2172
g6
I00
sg7
V\u0905\u092e\u0947\u0930\u093f\u0915\u0940
p2173
sg9
(issf_api
FeatureSet
p2174
(dp2175
g12
(dp2176
S'posn'
p2177
S'10'
p2178
sS'name'
p2179
S'\xe0\xa4\x85\xe0\xa4\xae\xe0\xa5\x87\xe0\xa4\xb0\xe0\xa4\xbf\xe0\xa4\x95\xe0\xa5\x80'
p2180
sS'af'
p2181
S'\xe0\xa4\x85\xe0\xa4\xae\xe0\xa5\x87\xe0\xa4\xb0\xe0\xa4\xbf\xe0\xa4\x95\xe0\xa5\x80,adj,any,any,,o,,'
p2182
sS'drel'
p2183
S'nmod__adj:NP'
p2184
sS'chunktype'
p2185
S'child:NP'
p2186
sS'cref'
p2187
S'i21%0:t6'
p2188
ssbsg38
I00
sg39
I00
sg40
Nsg41
Nsg42
I0
sg43
I5
sg44
Nsg45
Nsg46
S'JJ'
p2189
sg48
g2174
sg49
I00
sba(issf_api
Word
p2190
(dp2191
g6
I00
sg7
V\u0938\u0947\u0928\u093e
p2192
sg9
(issf_api
FeatureSet
p2193
(dp2194
g12
(dp2195
S'crefhead'
p2196
S'\xe0\xa4\xb8\xe0\xa5\x87\xe0\xa4\xa8\xe0\xa4\xbe:i21'
p2197
sS'posn'
p2198
S'20'
p2199
sS'name'
p2200
S'\xe0\xa4\xb8\xe0\xa5\x87\xe0\xa4\xa8\xe0\xa4\xbe'
p2201
sS'af'
p2202
S'\xe0\xa4\xb8\xe0\xa5\x87\xe0\xa4\xa8\xe0\xa4\xbe,n,f,sg,3,o,0_\xe0\xa4\xa8\xe0\xa5\x87,0'
p2203
sS'chunkid'
p2204
S'NP'
p2205
sS'creftype'
p2206
S'Coreference-Identity:i17'
p2207
sS'chunktype'
p2208
S'head:NP'
p2209
sS'vpos'
p2210
S'vib_3_RP'
p2211
sS'cref'
p2212
S'i21%1:t6'
p2213
sS'drel'
p2214
S'k1:VGF'
p2215
ssbsg38
I00
sg39
I00
sg40
Nsg41
Nsg42
I0
sg43
I5
sg44
Nsg45
Nsg46
S'NN'
p2216
sg48
g2193
sg49
I00
sba(issf_api
Word
p2217
(dp2218
g6
I00
sg7
V\u0928\u0947
p2219
sg9
(issf_api
FeatureSet
p2220
(dp2221
g12
(dp2222
S'posn'
p2223
S'30'
p2224
sS'name'
p2225
S'\xe0\xa4\xa8\xe0\xa5\x87'
p2226
sS'drel'
p2227
S'lwg__psp:NP'
p2228
sS'chunktype'
p2229
S'child:NP'
p2230
sS'af'
p2231
S'\xe0\xa4\xa8\xe0\xa5\x87,psp,,,,,,'
p2232
ssbsg38
I00
sg39
I00
sg40
Nsg41
Nsg42
I0
sg43
I5
sg44
Nsg45
Nsg46
S'PSP'
p2233
sg48
g2220
sg49
I00
sba(issf_api
Word
p2234
(dp2235
g6
I00
sg7
V\u092d\u0940
p2236
sg9
(issf_api
FeatureSet
p2237
(dp2238
g12
(dp2239
S'posn'
p2240
S'40'
p2241
sS'name'
p2242
S'\xe0\xa4\xad\xe0\xa5\x80'
p2243
sS'drel'
p2244
S'lwg__rp:NP'
p2245
sS'chunktype'
p2246
S'child:NP'
p2247
sS'af'
p2248
S'\xe0\xa4\xad\xe0\xa5\x80,avy,,,,,,'
p2249
ssbsg38
I00
sg39
I00
sg40
Nsg41
Nsg42
I0
sg43
I5
sg44
Nsg45
Nsg46
S'RP'
p2250
sg48
g2237
sg49
I00
sba(issf_api
Word
p2251
(dp2252
g6
I00
sg7
V\u0936\u0928\u093f\u0935\u093e\u0930
p2253
sg9
(issf_api
FeatureSet
p2254
(dp2255
g12
(dp2256
S'posn'
p2257
S'50'
p2258
sS'name'
p2259
S'\xe0\xa4\xb6\xe0\xa4\xa8\xe0\xa4\xbf\xe0\xa4\xb5\xe0\xa4\xbe\xe0\xa4\xb0'
p2260
sS'af'
p2261
S'\xe0\xa4\xb6\xe0\xa4\xa8\xe0\xa4\xbf\xe0\xa4\xb5\xe0\xa4\xbe\xe0\xa4\xb0,n,m,sg,3,d,0,0'
p2262
sS'drel'
p2263
S'nmod__adj:NP2'
p2264
sS'chunktype'
p2265
S'child:NP2'
p2266
sS'cref'
p2267
S'i22%0:t3'
p2268
ssbsg38
I00
sg39
I00
sg40
Nsg41
Nsg42
I1
sg43
I5
sg44
Nsg45
Nsg46
S'NNP'
p2269
sg48
g2254
sg49
I00
sba(issf_api
Word
p2270
(dp2271
g6
I00
sg7
V\u0930\u093e\u0924
p2272
sg9
(issf_api
FeatureSet
p2273
(dp2274
g12
(dp2275
S'crefhead'
p2276
S'\xe0\xa4\xb0\xe0\xa4\xbe\xe0\xa4\xa4:i22'
p2277
sS'posn'
p2278
S'60'
p2279
sS'name'
p2280
S'\xe0\xa4\xb0\xe0\xa4\xbe\xe0\xa4\xa4'
p2281
sS'af'
p2282
S'\xe0\xa4\xb0\xe0\xa4\xbe\xe0\xa4\xa4,n,f,sg,3,d,0,0'
p2283
sS'chunkid'
p2284
S'NP2'
p2285
sS'creftype'
p2286
S'Coreference-Identity:i3'
p2287
sS'chunktype'
p2288
S'head:NP2'
p2289
sS'cref'
p2290
S'i22%1:t3'
p2291
sS'drel'
p2292
S'k7t:VGNF'
p2293
ssbsg38
I00
sg39
I00
sg40
Nsg41
Nsg42
I1
sg43
I5
sg44
Nsg45
Nsg46
S'NN'
p2294
sg48
g2273
sg49
I00
sba(issf_api
Word
p2295
(dp2296
g6
I00
sg7
V\u0939\u0941\u090f
p2297
sg9
(issf_api
FeatureSet
p2298
(dp2299
g12
(dp2300
S'posn'
p2301
S'70'
p2302
sS'name'
p2303
S'\xe0\xa4\xb9\xe0\xa5\x81\xe0\xa4\x8f'
p2304
sS'af'
p2305
S'\xe0\xa4\xb9\xe0\xa5\x8b,v,m,sg,any,,\xe0\xa4\xaf\xe0\xa4\xbe,yA'
p2306
sS'chunkid'
p2307
S'VGNF'
p2308
sS'stype'
p2309
S'declarative'
p2310
sS'drel'
p2311
S'nmod__k1inv:NP3'
p2312
sS'voicetype'
p2313
S'active'
p2314
sS'chunktype'
p2315
S'head:VGNF'
p2316
ssbsg38
I00
sg39
I00
sg40
Nsg41
Nsg42
I2
sg43
I5
sg44
Nsg45
Nsg46
S'VM'
p2317
sg48
g2298
sg49
I00
sba(issf_api
Word
p2318
(dp2319
g6
I00
sg7
V\u0907\u0938
p2320
sg9
(issf_api
FeatureSet
p2321
(dp2322
g12
(dp2323
S'posn'
p2324
S'80'
p2325
sS'name'
p2326
S'\xe0\xa4\x87\xe0\xa4\xb8'
p2327
sS'af'
p2328
S'\xe0\xa4\xaf\xe0\xa4\xb9,pn,any,sg,3,o,,'
p2329
sS'drel'
p2330
S'nmod__adj:NP3'
p2331
sS'chunktype'
p2332
S'child:NP3'
p2333
sS'cref'
p2334
S'i23%0:t4'
p2335
ssbsg38
I00
sg39
I00
sg40
Nsg41
Nsg42
I3
sg43
I5
sg44
Nsg45
Nsg46
S'DEM'
p2336
sg48
g2321
sg49
I00
sba(issf_api
Word
p2337
(dp2338
g6
I00
sg7
V\u0939\u092e\u0932\u0947
p2339
sg9
(issf_api
FeatureSet
p2340
(dp2341
g12
(dp2342
S'crefhead'
p2343
S'\xe0\xa4\xb9\xe0\xa4\xae\xe0\xa4\xb2\xe0\xa5\x87:i23'
p2344
sS'posn'
p2345
S'90'
p2346
sS'name'
p2347
S'\xe0\xa4\xb9\xe0\xa4\xae\xe0\xa4\xb2\xe0\xa5\x87'
p2348
sS'af'
p2349
S'\xe0\xa4\xb9\xe0\xa4\xae\xe0\xa4\xb2\xe0\xa4\xbe,n,m,sg,3,o,0_\xe0\xa4\x95\xe0\xa4\xbe,0'
p2350
sS'chunkid'
p2351
S'NP3'
p2352
sS'creftype'
p2353
S'Coreference-Identity:i18'
p2354
sS'chunktype'
p2355
S'head:NP3'
p2356
sS'vpos'
p2357
S'vib_3'
p2358
sS'cref'
p2359
S'i23%1:t4'
p2360
sS'drel'
p2361
S'r6-k2:NP4'
p2362
ssbsg38
I00
sg39
I00
sg40
Nsg41
Nsg42
I3
sg43
I5
sg44
Nsg45
Nsg46
S'NN'
p2363
sg48
g2340
sg49
I00
sba(issf_api
Word
p2364
(dp2365
g6
I00
sg7
V\u0915\u0940
p2366
sg9
(issf_api
FeatureSet
p2367
(dp2368
g12
(dp2369
S'posn'
p2370
S'100'
p2371
sS'name'
p2372
S'\xe0\xa4\x95\xe0\xa5\x80'
p2373
sS'drel'
p2374
S'lwg__psp:NP3'
p2375
sS'chunktype'
p2376
S'child:NP3'
p2377
sS'af'
p2378
S'\xe0\xa4\x95\xe0\xa4\xbe,psp,f,sg,,d,,'
p2379
ssbsg38
I00
sg39
I00
sg40
Nsg41
Nsg42
I3
sg43
I5
sg44
Nsg45
Nsg46
S'PSP'
p2380
sg48
g2367
sg49
I00
sba(issf_api
Word
p2381
(dp2382
g6
I00
sg7
V\u092a\u0941\u0937\u094d\u091f\u093f
p2383
sg9
(issf_api
FeatureSet
p2384
(dp2385
g12
(dp2386
S'posn'
p2387
S'110'
p2388
sS'name'
p2389
S'\xe0\xa4\xaa\xe0\xa5\x81\xe0\xa4\xb7\xe0\xa5\x8d\xe0\xa4\x9f\xe0\xa4\xbf'
p2390
sS'af'
p2391
S'\xe0\xa4\xaa\xe0\xa5\x81\xe0\xa4\xb7\xe0\xa5\x8d\xe0\xa4\x9f\xe0\xa4\xbf,n,f,sg,3,d,0,0'
p2392
sS'chunkid'
p2393
S'NP4'
p2394
sS'drel'
p2395
S'pof:VGF'
p2396
sS'chunktype'
p2397
S'head:NP4'
p2398
ssbsg38
I00
sg39
I00
sg40
Nsg41
Nsg42
I4
sg43
I5
sg44
Nsg45
Nsg46
S'NN'
p2399
sg48
g2384
sg49
I00
sba(issf_api
Word
p2400
(dp2401
g6
I00
sg7
V\u0915\u0940
p2402
sg9
(issf_api
FeatureSet
p2403
(dp2404
g12
(dp2405
S'posn'
p2406
S'120'
p2407
sS'name'
p2408
S'\xe0\xa4\x95\xe0\xa5\x802'
p2409
sS'af'
p2410
S'\xe0\xa4\x95\xe0\xa4\xb0,v,f,sg,3,,\xe0\xa4\xaf\xe0\xa4\xbe_\xe0\xa4\xb9\xe0\xa5\x88,yA'
p2411
sS'chunkid'
p2412
S'VGF'
p2413
sS'chunktype'
p2414
S'head:VGF'
p2415
sS'voicetype'
p2416
S'active'
p2417
sS'vpos'
p2418
S'tam_2'
p2419
sS'stype'
p2420
S'declarative'
p2421
ssbsg38
I00
sg39
I00
sg40
Nsg41
Nsg42
I5
sg43
I5
sg44
Nsg45
Nsg46
S'VM'
p2422
sg48
g2403
sg49
I00
sba(issf_api
Word
p2423
(dp2424
g6
I00
sg7
V\u0939\u0948
p2425
sg9
(issf_api
FeatureSet
p2426
(dp2427
g12
(dp2428
S'posn'
p2429
S'130'
p2430
sS'name'
p2431
S'\xe0\xa4\xb9\xe0\xa5\x88'
p2432
sS'drel'
p2433
S'lwg__vaux:VGF'
p2434
sS'chunktype'
p2435
S'child:VGF'
p2436
sS'af'
p2437
S'\xe0\xa4\xb9\xe0\xa5\x88,v,any,sg,3,,\xe0\xa4\xb9\xe0\xa5\x88,hE'
p2438
ssbsg38
I00
sg39
I00
sg40
Nsg41
Nsg42
I5
sg43
I5
sg44
Nsg45
Nsg46
S'VAUX'
p2439
sg48
g2426
sg49
I00
sba(issf_api
Word
p2440
(dp2441
g6
I00
sg7
V\u0964
p2442
sg9
(issf_api
FeatureSet
p2443
(dp2444
g12
(dp2445
S'posn'
p2446
S'140'
p2447
sS'name'
p2448
S'\xe0\xa5\xa4'
p2449
sS'af'
p2450
S'\xe0\xa5\xa4,punc,,,,,,'
p2451
sS'chunkid'
p2452
S'BLK'
p2453
sS'drel'
p2454
S'rsym:VGF'
p2455
sS'chunktype'
p2456
S'head:BLK'
p2457
ssbsg38
I00
sg39
I00
sg40
Nsg41
Nsg42
I6
sg43
I5
sg44
Nsg45
Nsg46
S'SYM'
p2458
sg48
g2443
sg49
I00
sba(issf_api
Word
p2459
(dp2460
g6
I00
sg7
V\u0932\u0947\u0915\u093f\u0928
p2461
sg9
(issf_api
FeatureSet
p2462
(dp2463
g12
(dp2464
S'posn'
p2465
S'10'
p2466
sS'chunkid'
p2467
S'CCP'
p2468
sS'name'
p2469
S'\xe0\xa4\xb2\xe0\xa5\x87\xe0\xa4\x95\xe0\xa4\xbf\xe0\xa4\xa8'
p2470
sS'chunktype'
p2471
S'head:CCP'
p2472
sS'af'
p2473
S'\xe0\xa4\xb2\xe0\xa5\x87\xe0\xa4\x95\xe0\xa4\xbf\xe0\xa4\xa8,avy,,,,,,'
p2474
ssbsg38
I00
sg39
I00
sg40
Nsg41
Nsg42
I0
sg43
I6
sg44
Nsg45
Nsg46
S'CC'
p2475
sg48
g2462
sg49
I00
sba(issf_api
Word
p2476
(dp2477
g6
I00
sg7
V\u0939\u0924\u093e\u0939\u0924\u094b\u0902
p2478
sg9
(issf_api
FeatureSet
p2479
(dp2480
g12
(dp2481
S'posn'
p2482
S'20'
p2483
sS'name'
p2484
S'\xe0\xa4\xb9\xe0\xa4\xa4\xe0\xa4\xbe\xe0\xa4\xb9\xe0\xa4\xa4\xe0\xa5\x8b\xe0\xa4\x82'
p2485
sS'af'
p2486
S'\xe0\xa4\xb9\xe0\xa4\xa4\xe0\xa4\xbe\xe0\xa4\xb9\xe0\xa4\xa4,n,m,pl,3,o,0_\xe0\xa4\x95\xe0\xa4\xbe,0'
p2487
sS'acrefmodhead'
p2488
S'\xe0\xa4\xb9\xe0\xa4\xa4\xe0\xa4\xbe\xe0\xa4\xb9\xe0\xa4\xa4\xe0\xa5\x8b\xe0\xa4\x82:m4'
p2489
sS'chunkid'
p2490
S'NP'
p2491
sS'acrefmod'
p2492
S'm4%1:i24'
p2493
sS'drel'
p2494
S'r6:NP2'
p2495
sS'vpos'
p2496
S'vib_2'
p2497
sS'chunktype'
p2498
S'head:NP'
p2499
ssbsg38
I00
sg39
I00
sg40
Nsg41
Nsg42
I1
sg43
I6
sg44
Nsg45
Nsg46
S'NN'
p2500
sg48
g2479
sg49
I00
sba(issf_api
Word
p2501
(dp2502
g6
I00
sg7
V\u0915\u0940
p2503
sg9
(issf_api
FeatureSet
p2504
(dp2505
g12
(dp2506
S'posn'
p2507
S'30'
p2508
sS'name'
p2509
S'\xe0\xa4\x95\xe0\xa5\x80'
p2510
sS'drel'
p2511
S'lwg__psp:NP'
p2512
sS'chunktype'
p2513
S'child:NP'
p2514
sS'af'
p2515
S'\xe0\xa4\x95\xe0\xa4\xbe,psp,f,sg,,o,,'
p2516
ssbsg38
I00
sg39
I00
sg40
Nsg41
Nsg42
I1
sg43
I6
sg44
Nsg45
Nsg46
S'PSP'
p2517
sg48
g2504
sg49
I00
sba(issf_api
Word
p2518
(dp2519
g6
I00
sg7
V\u0938\u0902\u0916\u094d\u092f\u093e
p2520
sg9
(issf_api
FeatureSet
p2521
(dp2522
g12
(dp2523
S'crefhead'
p2524
S'\xe0\xa4\xb8\xe0\xa4\x82\xe0\xa4\x96\xe0\xa5\x8d\xe0\xa4\xaf\xe0\xa4\xbe:i24'
p2525
sS'posn'
p2526
S'40'
p2527
sS'name'
p2528
S'\xe0\xa4\xb8\xe0\xa4\x82\xe0\xa4\x96\xe0\xa5\x8d\xe0\xa4\xaf\xe0\xa4\xbe'
p2529
sS'af'
p2530
S'\xe0\xa4\xb8\xe0\xa4\x82\xe0\xa4\x96\xe0\xa5\x8d\xe0\xa4\xaf\xe0\xa4\xbe,n,f,sg,3,o,0_\xe0\xa4\x95\xe0\xa5\x87_\xe0\xa4\xac\xe0\xa4\xbe\xe0\xa4\xb0\xe0\xa5\x87_\xe0\xa4\xae\xe0\xa5\x87\xe0\xa4\x82,0'
p2531
sS'chunkid'
p2532
S'NP2'
p2533
sS'crefmod'
p2534
S'm4:i24'
p2535
sS'chunktype'
p2536
S'head:NP2'
p2537
sS'crefchainhead'
p2538
S'i24:t10'
p2539
sS'vpos'
p2540
S'vib_2_3_4'
p2541
sS'cref'
p2542
S'i24%1:t10'
p2543
sS'drel'
p2544
S'k7:VGF'
p2545
ssbsg38
I00
sg39
I00
sg40
Nsg41
Nsg42
I2
sg43
I6
sg44
Nsg45
Nsg46
S'NN'
p2546
sg48
g2521
sg49
I00
sba(issf_api
Word
p2547
(dp2548
g6
I00
sg7
V\u0915\u0947
p2549
sg9
(issf_api
FeatureSet
p2550
(dp2551
g12
(dp2552
S'posn'
p2553
S'50'
p2554
sS'name'
p2555
S'\xe0\xa4\x95\xe0\xa5\x87'
p2556
sS'drel'
p2557
S'lwg__psp:NP2'
p2558
sS'chunktype'
p2559
S'child:NP2'
p2560
sS'af'
p2561
S'\xe0\xa4\x95\xe0\xa5\x87,psp,,,,,,'
p2562
ssbsg38
I00
sg39
I00
sg40
Nsg41
Nsg42
I2
sg43
I6
sg44
Nsg45
Nsg46
S'PSP'
p2563
sg48
g2550
sg49
I00
sba(issf_api
Word
p2564
(dp2565
g6
I00
sg7
V\u092c\u093e\u0930\u0947
p2566
sg9
(issf_api
FeatureSet
p2567
(dp2568
g12
(dp2569
S'posn'
p2570
S'60'
p2571
sS'name'
p2572
S'\xe0\xa4\xac\xe0\xa4\xbe\xe0\xa4\xb0\xe0\xa5\x87'
p2573
sS'drel'
p2574
S'lwg__psp:NP2'
p2575
sS'chunktype'
p2576
S'child:NP2'
p2577
sS'af'
p2578
S'\xe0\xa4\xac\xe0\xa4\xbe\xe0\xa4\xb0\xe0\xa5\x87,psp,,,,,,'
p2579
ssbsg38
I00
sg39
I00
sg40
Nsg41
Nsg42
I2
sg43
I6
sg44
Nsg45
Nsg46
S'PSP'
p2580
sg48
g2567
sg49
I00
sba(issf_api
Word
p2581
(dp2582
g6
I00
sg7
V\u092e\u0947\u0902
p2583
sg9
(issf_api
FeatureSet
p2584
(dp2585
g12
(dp2586
S'posn'
p2587
S'70'
p2588
sS'name'
p2589
S'\xe0\xa4\xae\xe0\xa5\x87\xe0\xa4\x82'
p2590
sS'drel'
p2591
S'lwg__psp:NP2'
p2592
sS'chunktype'
p2593
S'child:NP2'
p2594
sS'af'
p2595
S'\xe0\xa4\xae\xe0\xa5\x87\xe0\xa4\x82,psp,,,,,,'
p2596
ssbsg38
I00
sg39
I00
sg40
Nsg41
Nsg42
I2
sg43
I6
sg44
Nsg45
Nsg46
S'PSP'
p2597
sg48
g2584
sg49
I00
sba(issf_api
Word
p2598
(dp2599
g6
I00
sg7
V\u0915\u0941\u091b
p2600
sg9
(issf_api
FeatureSet
p2601
(dp2602
g12
(dp2603
S'crefhead'
p2604
S'\xe0\xa4\x95\xe0\xa5\x81\xe0\xa4\x9b:i25'
p2605
sS'posn'
p2606
S'80'
p2607
sS'name'
p2608
S'\xe0\xa4\x95\xe0\xa5\x81\xe0\xa4\x9b'
p2609
sS'af'
p2610
S'\xe0\xa4\x95\xe0\xa5\x81\xe0\xa4\x9b,pn,,,,,,'
p2611
sS'chunkid'
p2612
S'NP3'
p2613
sS'creftype'
p2614
S'anaphora-?:i25'
p2615
sS'chunktype'
p2616
S'head:NP3'
p2617
sS'crefchainhead'
p2618
S'i25:t11'
p2619
sS'cref'
p2620
S'i25%1:t11'
p2621
sS'drel'
p2622
S'k2:VGF'
p2623
ssbsg38
I00
sg39
I00
sg40
Nsg41
Nsg42
I3
sg43
I6
sg44
Nsg45
Nsg46
S'PRP'
p2624
sg48
g2601
sg49
I00
sba(issf_api
Word
p2625
(dp2626
g6
I00
sg7
V\u0928\u0939\u0940\u0902
p2627
sg9
(issf_api
FeatureSet
p2628
(dp2629
g12
(dp2630
S'posn'
p2631
S'90'
p2632
sS'name'
p2633
S'\xe0\xa4\xa8\xe0\xa4\xb9\xe0\xa5\x80\xe0\xa4\x82'
p2634
sS'drel'
p2635
S'lwg__neg:VGF'
p2636
sS'chunktype'
p2637
S'child:VGF'
p2638
sS'af'
p2639
S'\xe0\xa4\xa8\xe0\xa4\xb9\xe0\xa5\x80\xe0\xa4\x82,avy,,,,,,'
p2640
ssbsg38
I00
sg39
I00
sg40
Nsg41
Nsg42
I4
sg43
I6
sg44
Nsg45
Nsg46
S'NEG'
p2641
sg48
g2628
sg49
I00
sba(issf_api
Word
p2642
(dp2643
g6
I00
sg7
V\u092c\u0924\u093e\u092f\u093e
p2644
sg9
(issf_api
FeatureSet
p2645
(dp2646
g12
(dp2647
S'posn'
p2648
S'100'
p2649
sS'name'
p2650
S'\xe0\xa4\xac\xe0\xa4\xa4\xe0\xa4\xbe\xe0\xa4\xaf\xe0\xa4\xbe'
p2651
sS'af'
p2652
S'\xe0\xa4\xac\xe0\xa4\xa4\xe0\xa4\xbe,v,m,sg,any,,\xe0\xa4\xaf\xe0\xa4\xbe,yA'
p2653
sS'chunkid'
p2654
S'VGF'
p2655
sS'stype'
p2656
S'declarative'
p2657
sS'drel'
p2658
S'ccof:CCP'
p2659
sS'voicetype'
p2660
S'active'
p2661
sS'chunktype'
p2662
S'head:VGF'
p2663
ssbsg38
I00
sg39
I00
sg40
Nsg41
Nsg42
I4
sg43
I6
sg44
Nsg45
Nsg46
S'VM'
p2664
sg48
g2645
sg49
I00
sba(issf_api
Word
p2665
(dp2666
g6
I00
sg7
V\u0964
p2667
sg9
(issf_api
FeatureSet
p2668
(dp2669
g12
(dp2670
S'posn'
p2671
S'110'
p2672
sS'name'
p2673
S'\xe0\xa5\xa4'
p2674
sS'af'
p2675
S'\xe0\xa5\xa4,punc,,,,,,'
p2676
sS'chunkid'
p2677
S'BLK'
p2678
sS'drel'
p2679
S'rsym:CCP'
p2680
sS'chunktype'
p2681
S'head:BLK'
p2682
ssbsg38
I00
sg39
I00
sg40
Nsg41
Nsg42
I5
sg43
I6
sg44
Nsg45
Nsg46
S'SYM'
p2683
sg48
g2668
sg49
I00
sba(issf_api
Word
p2684
(dp2685
g6
I00
sg7
V\u0905\u092e\u0947\u0930\u093f\u0915\u0940
p2686
sg9
(issf_api
FeatureSet
p2687
(dp2688
g12
(dp2689
S'posn'
p2690
S'10'
p2691
sS'name'
p2692
S'\xe0\xa4\x85\xe0\xa4\xae\xe0\xa5\x87\xe0\xa4\xb0\xe0\xa4\xbf\xe0\xa4\x95\xe0\xa5\x80'
p2693
sS'af'
p2694
S'\xe0\xa4\x85\xe0\xa4\xae\xe0\xa5\x87\xe0\xa4\xb0\xe0\xa4\xbf\xe0\xa4\x95\xe0\xa5\x80,adj,any,any,,o,,'
p2695
sS'drel'
p2696
S'nmod__adj:NP'
p2697
sS'chunktype'
p2698
S'child:NP'
p2699
sS'cref'
p2700
S'i26%0:t6'
p2701
ssbsg38
I00
sg39
I00
sg40
Nsg41
Nsg42
I0
sg43
I7
sg44
Nsg45
Nsg46
S'JJ'
p2702
sg48
g2687
sg49
I00
sba(issf_api
Word
p2703
(dp2704
g6
I00
sg7
V\u0938\u0947\u0928\u093e
p2705
sg9
(issf_api
FeatureSet
p2706
(dp2707
g12
(dp2708
S'crefhead'
p2709
S'\xe0\xa4\xb8\xe0\xa5\x87\xe0\xa4\xa8\xe0\xa4\xbe:i26'
p2710
sS'posn'
p2711
S'20'
p2712
sS'name'
p2713
S'\xe0\xa4\xb8\xe0\xa5\x87\xe0\xa4\xa8\xe0\xa4\xbe'
p2714
sS'af'
p2715
S'\xe0\xa4\xb8\xe0\xa5\x87\xe0\xa4\xa8\xe0\xa4\xbe,n,f,sg,3,o,0_\xe0\xa4\x95\xe0\xa5\x87_\xe0\xa4\xb9\xe0\xa4\xb5\xe0\xa4\xbe\xe0\xa4\xb2\xe0\xa4\xbe_\xe0\xa4\xb8\xe0\xa5\x87,0'
p2716
sS'chunkid'
p2717
S'NP'
p2718
sS'creftype'
p2719
S'Coreference-Identity:i21'
p2720
sS'chunktype'
p2721
S'head:NP'
p2722
sS'vpos'
p2723
S'vib_3_4_5'
p2724
sS'cref'
p2725
S'i26%1:t6'
p2726
sS'drel'
p2727
S'k5:VGF'
p2728
ssbsg38
I00
sg39
I00
sg40
Nsg41
Nsg42
I0
sg43
I7
sg44
Nsg45
Nsg46
S'NN'
p2729
sg48
g2706
sg49
I00
sba(issf_api
Word
p2730
(dp2731
g6
I00
sg7
V\u0915\u0947
p2732
sg9
(issf_api
FeatureSet
p2733
(dp2734
g12
(dp2735
S'posn'
p2736
S'30'
p2737
sS'name'
p2738
S'\xe0\xa4\x95\xe0\xa5\x87'
p2739
sS'drel'
p2740
S'lwg__psp:NP'
p2741
sS'chunktype'
p2742
S'child:NP'
p2743
sS'af'
p2744
S'\xe0\xa4\x95\xe0\xa5\x87,psp,m,,,o,,'
p2745
ssbsg38
I00
sg39
I00
sg40
Nsg41
Nsg42
I0
sg43
I7
sg44
Nsg45
Nsg46
S'PSP'
p2746
sg48
g2733
sg49
I00
sba(issf_api
Word
p2747
(dp2748
g6
I00
sg7
V\u0939\u0935\u093e\u0932\u0947
p2749
sg9
(issf_api
FeatureSet
p2750
(dp2751
g12
(dp2752
S'posn'
p2753
S'40'
p2754
sS'name'
p2755
S'\xe0\xa4\xb9\xe0\xa4\xb5\xe0\xa4\xbe\xe0\xa4\xb2\xe0\xa5\x87'
p2756
sS'drel'
p2757
S'lwg__psp:NP'
p2758
sS'chunktype'
p2759
S'child:NP'
p2760
sS'af'
p2761
S'\xe0\xa4\xb9\xe0\xa4\xb5\xe0\xa4\xbe\xe0\xa4\xb2\xe0\xa4\xbe,n,m,,,o,,'
p2762
ssbsg38
I00
sg39
I00
sg40
Nsg41
Nsg42
I0
sg43
I7
sg44
Nsg45
Nsg46
S'PSP'
p2763
sg48
g2750
sg49
I00
sba(issf_api
Word
p2764
(dp2765
g6
I00
sg7
V\u0938\u0947
p2766
sg9
(issf_api
FeatureSet
p2767
(dp2768
g12
(dp2769
S'posn'
p2770
S'50'
p2771
sS'name'
p2772
S'\xe0\xa4\xb8\xe0\xa5\x87'
p2773
sS'drel'
p2774
S'lwg__psp:NP'
p2775
sS'chunktype'
p2776
S'child:NP'
p2777
sS'af'
p2778
S'\xe0\xa4\xb8\xe0\xa5\x87,psp,,,,,,'
p2779
ssbsg38
I00
sg39
I00
sg40
Nsg41
Nsg42
I0
sg43
I7
sg44
Nsg45
Nsg46
S'PSP'
p2780
sg48
g2767
sg49
I00
sba(issf_api
Word
p2781
(dp2782
g6
I00
sg7
V\u0915\u0939\u093e
p2783
sg9
(issf_api
FeatureSet
p2784
(dp2785
g12
(dp2786
S'posn'
p2787
S'60'
p2788
sS'name'
p2789
S'\xe0\xa4\x95\xe0\xa4\xb9\xe0\xa4\xbe'
p2790
sS'af'
p2791
S'\xe0\xa4\x95\xe0\xa4\xb9,v,m,sg,any,,\xe0\xa4\xaf\xe0\xa4\xbe_\xe0\xa4\x9c\xe0\xa4\xbe+\xe0\xa4\xaf\xe0\xa4\xbe\xe0\xa5\xa7,yA'
p2792
sS'chunkid'
p2793
S'VGF'
p2794
sS'chunktype'
p2795
S'head:VGF'
p2796
sS'voicetype'
p2797
S'active'
p2798
sS'vpos'
p2799
S'tam_2'
p2800
sS'stype'
p2801
S'declarative'
p2802
ssbsg38
I00
sg39
I00
sg40
Nsg41
Nsg42
I1
sg43
I7
sg44
Nsg45
Nsg46
S'VM'
p2803
sg48
g2784
sg49
I00
sba(issf_api
Word
p2804
(dp2805
g6
I00
sg7
V\u0917\u092f\u093e
p2806
sg9
(issf_api
FeatureSet
p2807
(dp2808
g12
(dp2809
S'posn'
p2810
S'70'
p2811
sS'name'
p2812
S'\xe0\xa4\x97\xe0\xa4\xaf\xe0\xa4\xbe'
p2813
sS'drel'
p2814
S'lwg__vaux:VGF'
p2815
sS'chunktype'
p2816
S'child:VGF'
p2817
sS'af'
p2818
S'\xe0\xa4\x9c\xe0\xa4\xbe,v,m,sg,any,,\xe0\xa4\xaf\xe0\xa4\xbe\xe0\xa5\xa7,yA1'
p2819
ssbsg38
I00
sg39
I00
sg40
Nsg41
Nsg42
I1
sg43
I7
sg44
Nsg45
Nsg46
S'VAUX'
p2820
sg48
g2807
sg49
I00
sba(issf_api
Word
p2821
(dp2822
g6
I00
sg7
V\u0915\u093f
p2823
sg9
(issf_api
FeatureSet
p2824
(dp2825
g12
(dp2826
S'posn'
p2827
S'80'
p2828
sS'name'
p2829
S'\xe0\xa4\x95\xe0\xa4\xbf'
p2830
sS'af'
p2831
S'\xe0\xa4\x95\xe0\xa4\xbf,avy,,,,,,'
p2832
sS'chunkid'
p2833
S'CCP'
p2834
sS'drel'
p2835
S'k2:VGF'
p2836
sS'chunktype'
p2837
S'head:CCP'
p2838
ssbsg38
I00
sg39
I00
sg40
Nsg41
Nsg42
I2
sg43
I7
sg44
Nsg45
Nsg46
S'CC'
p2839
sg48
g2824
sg49
I00
sba(issf_api
Word
p2840
(dp2841
g6
I00
sg7
V\u0907\u0938
p2842
sg9
(issf_api
FeatureSet
p2843
(dp2844
g12
(dp2845
S'posn'
p2846
S'90'
p2847
sS'name'
p2848
S'\xe0\xa4\x87\xe0\xa4\xb8'
p2849
sS'af'
p2850
S'\xe0\xa4\xaf\xe0\xa4\xb9,pn,any,sg,3,o,,'
p2851
sS'drel'
p2852
S'nmod__adj:NP2'
p2853
sS'chunktype'
p2854
S'child:NP2'
p2855
sS'cref'
p2856
S'i27%0:t10'
p2857
ssbsg38
I00
sg39
I00
sg40
Nsg41
Nsg42
I3
sg43
I7
sg44
Nsg45
Nsg46
S'DEM'
p2858
sg48
g2843
sg49
I00
sba(issf_api
Word
p2859
(dp2860
g6
I00
sg7
V\u0938\u093f\u0932\u0938\u093f\u0932\u0947
p2861
sg9
(issf_api
FeatureSet
p2862
(dp2863
g12
(dp2864
S'crefhead'
p2865
S'\xe0\xa4\xb8\xe0\xa4\xbf\xe0\xa4\xb2\xe0\xa4\xb8\xe0\xa4\xbf\xe0\xa4\xb2\xe0\xa5\x87:i27'
p2866
sS'posn'
p2867
S'100'
p2868
sS'name'
p2869
S'\xe0\xa4\xb8\xe0\xa4\xbf\xe0\xa4\xb2\xe0\xa4\xb8\xe0\xa4\xbf\xe0\xa4\xb2\xe0\xa5\x87'
p2870
sS'af'
p2871
S'\xe0\xa4\xb8\xe0\xa4\xbf\xe0\xa4\xb2\xe0\xa4\xb8\xe0\xa4\xbf\xe0\xa4\xb2\xe0\xa4\xbe,n,m,sg,3,o,0_\xe0\xa4\xae\xe0\xa5\x87\xe0\xa4\x82,0'
p2872
sS'chunkid'
p2873
S'NP2'
p2874
sS'creftype'
p2875
S'Coreference-Noun-Noun:i24'
p2876
sS'chunktype'
p2877
S'head:NP2'
p2878
sS'vpos'
p2879
S'vib_3'
p2880
sS'cref'
p2881
S'i27%1:t10'
p2882
sS'drel'
p2883
S'k7:VGF2'
p2884
ssbsg38
I00
sg39
I00
sg40
Nsg41
Nsg42
I3
sg43
I7
sg44
Nsg45
Nsg46
S'NN'
p2885
sg48
g2862
sg49
I00
sba(issf_api
Word
p2886
(dp2887
g6
I00
sg7
V\u092e\u0947\u0902
p2888
sg9
(issf_api
FeatureSet
p2889
(dp2890
g12
(dp2891
S'posn'
p2892
S'110'
p2893
sS'name'
p2894
S'\xe0\xa4\xae\xe0\xa5\x87\xe0\xa4\x82'
p2895
sS'drel'
p2896
S'lwg__psp:NP2'
p2897
sS'chunktype'
p2898
S'child:NP2'
p2899
sS'af'
p2900
S'\xe0\xa4\xae\xe0\xa5\x87\xe0\xa4\x82,psp,,,,,,'
p2901
ssbsg38
I00
sg39
I00
sg40
Nsg41
Nsg42
I3
sg43
I7
sg44
Nsg45
Nsg46
S'PSP'
p2902
sg48
g2889
sg49
I00
sba(issf_api
Word
p2903
(dp2904
g6
I00
sg7
V\u0907\u0930\u093e\u0915\u0940
p2905
sg9
(issf_api
FeatureSet
p2906
(dp2907
g12
(dp2908
S'posn'
p2909
S'120'
p2910
sS'name'
p2911
S'\xe0\xa4\x87\xe0\xa4\xb0\xe0\xa4\xbe\xe0\xa4\x95\xe0\xa5\x80'
p2912
sS'drel'
p2913
S'pof__cn:NP3'
p2914
sS'chunktype'
p2915
S'child:NP3'
p2916
sS'af'
p2917
S'\xe0\xa4\x87\xe0\xa4\xb0\xe0\xa4\xbe\xe0\xa4\x95\xe0\xa5\x80,adj,any,any,,o,,'
p2918
ssbsg38
I00
sg39
I00
sg40
Nsg41
Nsg42
I4
sg43
I7
sg44
Nsg45
Nsg46
S'NNPC'
p2919
sg48
g2906
sg49
I00
sba(issf_api
Word
p2920
(dp2921
g6
I00
sg7
V\u0930\u0915\u094d\u0937\u093e
p2922
sg9
(issf_api
FeatureSet
p2923
(dp2924
g12
(dp2925
S'posn'
p2926
S'130'
p2927
sS'name'
p2928
S'\xe0\xa4\xb0\xe0\xa4\x95\xe0\xa5\x8d\xe0\xa4\xb7\xe0\xa4\xbe'
p2929
sS'drel'
p2930
S'pof__cn:NP3'
p2931
sS'chunktype'
p2932
S'child:NP3'
p2933
sS'af'
p2934
S'\xe0\xa4\xb0\xe0\xa4\x95\xe0\xa5\x8d\xe0\xa4\xb7\xe0\xa4\xbe,n,f,sg,3,d,0,0'
p2935
ssbsg38
I00
sg39
I00
sg40
Nsg41
Nsg42
I4
sg43
I7
sg44
Nsg45
Nsg46
S'NNPC'
p2936
sg48
g2923
sg49
I00
sba(issf_api
Word
p2937
(dp2938
g6
I00
sg7
V\u092e\u0902\u0924\u094d\u0930\u093e\u0932\u092f
p2939
sg9
(issf_api
FeatureSet
p2940
(dp2941
g12
(dp2942
S'posn'
p2943
S'140'
p2944
sS'name'
p2945
S'\xe0\xa4\xae\xe0\xa4\x82\xe0\xa4\xa4\xe0\xa5\x8d\xe0\xa4\xb0\xe0\xa4\xbe\xe0\xa4\xb2\xe0\xa4\xaf'
p2946
sS'af'
p2947
S'\xe0\xa4\xae\xe0\xa4\x82\xe0\xa4\xa4\xe0\xa5\x8d\xe0\xa4\xb0\xe0\xa4\xbe\xe0\xa4\xb2\xe0\xa4\xaf,n,m,sg,3,o,0_\xe0\xa4\x95\xe0\xa4\xbe_\xe0\xa4\x93\xe0\xa4\xb0_\xe0\xa4\xb8\xe0\xa5\x87,0'
p2948
sS'chunkid'
p2949
S'NP3'
p2950
sS'drel'
p2951
S'rd:VGF2'
p2952
sS'vpos'
p2953
S'vib_4_5_6'
p2954
sS'chunktype'
p2955
S'head:NP3'
p2956
ssbsg38
I00
sg39
I00
sg40
Nsg41
Nsg42
I4
sg43
I7
sg44
Nsg45
Nsg46
S'NNP'
p2957
sg48
g2940
sg49
I00
sba(issf_api
Word
p2958
(dp2959
g6
I00
sg7
V\u0915\u0940
p2960
sg9
(issf_api
FeatureSet
p2961
(dp2962
g12
(dp2963
S'posn'
p2964
S'150'
p2965
sS'name'
p2966
S'\xe0\xa4\x95\xe0\xa5\x80'
p2967
sS'drel'
p2968
S'lwg__psp:NP3'
p2969
sS'chunktype'
p2970
S'child:NP3'
p2971
sS'af'
p2972
S'\xe0\xa4\x95\xe0\xa4\xbe,psp,f,sg,,o,,'
p2973
ssbsg38
I00
sg39
I00
sg40
Nsg41
Nsg42
I4
sg43
I7
sg44
Nsg45
Nsg46
S'PSP'
p2974
sg48
g2961
sg49
I00
sba(issf_api
Word
p2975
(dp2976
g6
I00
sg7
V\u0913\u0930
p2977
sg9
(issf_api
FeatureSet
p2978
(dp2979
g12
(dp2980
S'posn'
p2981
S'160'
p2982
sS'name'
p2983
S'\xe0\xa4\x93\xe0\xa4\xb0'
p2984
sS'drel'
p2985
S'lwg__psp:NP3'
p2986
sS'chunktype'
p2987
S'child:NP3'
p2988
sS'af'
p2989
S'\xe0\xa4\x93\xe0\xa4\xb0,nst,f,sg,3,o,,'
p2990
ssbsg38
I00
sg39
I00
sg40
Nsg41
Nsg42
I4
sg43
I7
sg44
Nsg45
Nsg46
S'NST'
p2991
sg48
g2978
sg49
I00
sba(issf_api
Word
p2992
(dp2993
g6
I00
sg7
V\u0938\u0947
p2994
sg9
(issf_api
FeatureSet
p2995
(dp2996
g12
(dp2997
S'posn'
p2998
S'170'
p2999
sS'name'
p3000
S'\xe0\xa4\xb8\xe0\xa5\x872'
p3001
sS'drel'
p3002
S'lwg__psp:NP3'
p3003
sS'chunktype'
p3004
S'child:NP3'
p3005
sS'af'
p3006
S'\xe0\xa4\xb8\xe0\xa5\x87,psp,,,,,,'
p3007
ssbsg38
I00
sg39
I00
sg40
Nsg41
Nsg42
I4
sg43
I7
sg44
Nsg45
Nsg46
S'PSP'
p3008
sg48
g2995
sg49
I00
sba(issf_api
Word
p3009
(dp3010
g6
I00
sg7
V\u092c\u093e\u0926
p3011
sg9
(issf_api
FeatureSet
p3012
(dp3013
g12
(dp3014
S'posn'
p3015
S'180'
p3016
sS'name'
p3017
S'\xe0\xa4\xac\xe0\xa4\xbe\xe0\xa4\xa6'
p3018
sS'af'
p3019
S'\xe0\xa4\xac\xe0\xa4\xbe\xe0\xa4\xa6,nst,m,sg,3,o,0_\xe0\xa4\xae\xe0\xa5\x87\xe0\xa4\x82,'
p3020
sS'chunkid'
p3021
S'NP4'
p3022
sS'drel'
p3023
S'k7t:VGF2'
p3024
sS'vpos'
p3025
S'2'
p3026
sS'chunktype'
p3027
S'head:NP4'
p3028
ssbsg38
I00
sg39
I00
sg40
Nsg41
Nsg42
I5
sg43
I7
sg44
Nsg45
Nsg46
S'NST'
p3029
sg48
g3012
sg49
I00
sba(issf_api
Word
p3030
(dp3031
g6
I00
sg7
V\u092e\u0947\u0902
p3032
sg9
(issf_api
FeatureSet
p3033
(dp3034
g12
(dp3035
S'posn'
p3036
S'190'
p3037
sS'name'
p3038
S'\xe0\xa4\xae\xe0\xa5\x87\xe0\xa4\x822'
p3039
sS'drel'
p3040
S'lwg__psp:NP4'
p3041
sS'chunktype'
p3042
S'child:NP4'
p3043
sS'af'
p3044
S'\xe0\xa4\xae\xe0\xa5\x87\xe0\xa4\x82,psp,,,,,,'
p3045
ssbsg38
I00
sg39
I00
sg40
Nsg41
Nsg42
I5
sg43
I7
sg44
Nsg45
Nsg46
S'PSP'
p3046
sg48
g3033
sg49
I00
sba(issf_api
Word
p3047
(dp3048
g6
I00
sg7
V\u092c\u092f\u093e\u0928
p3049
sg9
(issf_api
FeatureSet
p3050
(dp3051
g12
(dp3052
S'posn'
p3053
S'200'
p3054
sS'name'
p3055
S'\xe0\xa4\xac\xe0\xa4\xaf\xe0\xa4\xbe\xe0\xa4\xa8'
p3056
sS'af'
p3057
S'\xe0\xa4\xac\xe0\xa4\xaf\xe0\xa4\xbe\xe0\xa4\xa8,n,m,sg,3,d,0,0'
p3058
sS'chunkid'
p3059
S'NP5'
p3060
sS'drel'
p3061
S'k2:VGF2'
p3062
sS'chunktype'
p3063
S'head:NP5'
p3064
ssbsg38
I00
sg39
I00
sg40
Nsg41
Nsg42
I6
sg43
I7
sg44
Nsg45
Nsg46
S'NN'
p3065
sg48
g3050
sg49
I00
sba(issf_api
Word
p3066
(dp3067
g6
I00
sg7
V\u091c\u093e\u0930\u0940
p3068
sg9
(issf_api
FeatureSet
p3069
(dp3070
g12
(dp3071
S'posn'
p3072
S'210'
p3073
sS'name'
p3074
S'\xe0\xa4\x9c\xe0\xa4\xbe\xe0\xa4\xb0\xe0\xa5\x80'
p3075
sS'af'
p3076
S'\xe0\xa4\x9c\xe0\xa4\xbe\xe0\xa4\xb0\xe0\xa5\x80,adj,any,any,,,,'
p3077
sS'chunkid'
p3078
S'JJP'
p3079
sS'drel'
p3080
S'pof:VGF2'
p3081
sS'chunktype'
p3082
S'head:JJP'
p3083
ssbsg38
I00
sg39
I00
sg40
Nsg41
Nsg42
I7
sg43
I7
sg44
Nsg45
Nsg46
S'JJ'
p3084
sg48
g3069
sg49
I00
sba(issf_api
Word
p3085
(dp3086
g6
I00
sg7
V\u0915\u093f\u092f\u093e
p3087
sg9
(issf_api
FeatureSet
p3088
(dp3089
g12
(dp3090
S'posn'
p3091
S'220'
p3092
sS'name'
p3093
S'\xe0\xa4\x95\xe0\xa4\xbf\xe0\xa4\xaf\xe0\xa4\xbe'
p3094
sS'af'
p3095
S'\xe0\xa4\x95\xe0\xa4\xb0,v,m,sg,3,,\xe0\xa4\xaf\xe0\xa4\xbe_\xe0\xa4\x9c\xe0\xa4\xbe+\xe0\xa4\x97\xe0\xa4\xbe,yA'
p3096
sS'chunkid'
p3097
S'VGF2'
p3098
sS'stype'
p3099
S'declarative'
p3100
sS'drel'
p3101
S'ccof:CCP'
p3102
sS'voicetype'
p3103
S'active'
p3104
sS'vpos'
p3105
S'tam_2'
p3106
sS'chunktype'
p3107
S'head:VGF2'
p3108
ssbsg38
I00
sg39
I00
sg40
Nsg41
Nsg42
I8
sg43
I7
sg44
Nsg45
Nsg46
S'VM'
p3109
sg48
g3088
sg49
I00
sba(issf_api
Word
p3110
(dp3111
g6
I00
sg7
V\u091c\u093e\u090f\u0917\u093e
p3112
sg9
(issf_api
FeatureSet
p3113
(dp3114
g12
(dp3115
S'posn'
p3116
S'230'
p3117
sS'name'
p3118
S'\xe0\xa4\x9c\xe0\xa4\xbe\xe0\xa4\x8f\xe0\xa4\x97\xe0\xa4\xbe'
p3119
sS'drel'
p3120
S'lwg__vaux:VGF2'
p3121
sS'chunktype'
p3122
S'child:VGF2'
p3123
sS'af'
p3124
S'\xe0\xa4\x9c\xe0\xa4\xbe,v,m,sg,3,,\xe0\xa4\x97\xe0\xa4\xbe,gA'
p3125
ssbsg38
I00
sg39
I00
sg40
Nsg41
Nsg42
I8
sg43
I7
sg44
Nsg45
Nsg46
S'VAUX'
p3126
sg48
g3113
sg49
I00
sba(issf_api
Word
p3127
(dp3128
g6
I00
sg7
V\u0964
p3129
sg9
(issf_api
FeatureSet
p3130
(dp3131
g12
(dp3132
S'posn'
p3133
S'240'
p3134
sS'name'
p3135
S'\xe0\xa5\xa4'
p3136
sS'af'
p3137
S'\xe0\xa5\xa4,punc,,,,,,'
p3138
sS'chunkid'
p3139
S'BLK'
p3140
sS'drel'
p3141
S'rsym:VGF'
p3142
sS'chunktype'
p3143
S'head:BLK'
p3144
ssbsg38
I00
sg39
I00
sg40
Nsg41
Nsg42
I9
sg43
I7
sg44
Nsg45
Nsg46
S'SYM'
p3145
sg48
g3130
sg49
I00
sba(issf_api
Word
p3146
(dp3147
g6
I00
sg7
V\u0905\u092e\u0947\u0930\u093f\u0915\u0940
p3148
sg9
(issf_api
FeatureSet
p3149
(dp3150
g12
(dp3151
S'posn'
p3152
S'10'
p3153
sS'name'
p3154
S'\xe0\xa4\x85\xe0\xa4\xae\xe0\xa5\x87\xe0\xa4\xb0\xe0\xa4\xbf\xe0\xa4\x95\xe0\xa5\x80'
p3155
sS'af'
p3156
S'\xe0\xa4\x85\xe0\xa4\xae\xe0\xa5\x87\xe0\xa4\xb0\xe0\xa4\xbf\xe0\xa4\x95\xe0\xa5\x80,n,m,sg,3,d,0,0'
p3157
sS'drel'
p3158
S'pof__cn:NP'
p3159
sS'chunktype'
p3160
S'child:NP'
p3161
sS'cref'
p3162
S'i28%0:t6'
p3163
ssbsg38
I00
sg39
I00
sg40
Nsg41
Nsg42
I0
sg43
I8
sg44
Nsg45
Nsg46
S'NNPC'
p3164
sg48
g3149
sg49
I00
sba(issf_api
Word
p3165
(dp3166
g6
I00
sg7
V\u0935\u093e\u092f\u0941
p3167
sg9
(issf_api
FeatureSet
p3168
(dp3169
g12
(dp3170
S'posn'
p3171
S'20'
p3172
sS'name'
p3173
S'\xe0\xa4\xb5\xe0\xa4\xbe\xe0\xa4\xaf\xe0\xa5\x81'
p3174
sS'af'
p3175
S'\xe0\xa4\xb5\xe0\xa4\xbe\xe0\xa4\xaf\xe0\xa5\x81,n,f,sg,3,d,0,0'
p3176
sS'drel'
p3177
S'pof__cn:NP'
p3178
sS'chunktype'
p3179
S'child:NP'
p3180
sS'cref'
p3181
S'i28%0:t6'
p3182
ssbsg38
I00
sg39
I00
sg40
Nsg41
Nsg42
I0
sg43
I8
sg44
Nsg45
Nsg46
S'NNPC'
p3183
sg48
g3168
sg49
I00
sba(issf_api
Word
p3184
(dp3185
g6
I00
sg7
V-
p3186
sg9
(issf_api
FeatureSet
p3187
(dp3188
g12
(dp3189
S'posn'
p3190
S'30'
p3191
sS'name'
p3192
g480
sS'af'
p3193
S'-,punc,,,,,,'
p3194
sS'drel'
p3195
S'rsym:NP'
p3196
sS'chunktype'
p3197
S'child:NP'
p3198
sS'cref'
p3199
S'i28%0:t6'
p3200
ssbsg38
I00
sg39
I00
sg40
Nsg41
Nsg42
I0
sg43
I8
sg44
Nsg45
Nsg46
S'SYM'
p3201
sg48
g3187
sg49
I00
sba(issf_api
Word
p3202
(dp3203
g6
I00
sg7
V\u0938\u0947\u0928\u093e
p3204
sg9
(issf_api
FeatureSet
p3205
(dp3206
g12
(dp3207
S'crefhead'
p3208
S'\xe0\xa4\xb8\xe0\xa5\x87\xe0\xa4\xa8\xe0\xa4\xbe:i28'
p3209
sS'posn'
p3210
S'40'
p3211
sS'name'
p3212
S'\xe0\xa4\xb8\xe0\xa5\x87\xe0\xa4\xa8\xe0\xa4\xbe'
p3213
sS'af'
p3214
S'\xe0\xa4\xb8\xe0\xa5\x87\xe0\xa4\xa8\xe0\xa4\xbe,n,f,sg,3,o,0_\xe0\xa4\xa8\xe0\xa5\x87,0'
p3215
sS'chunkid'
p3216
S'NP'
p3217
sS'creftype'
p3218
S'Coreference-Identity:i26'
p3219
sS'chunktype'
p3220
S'head:NP'
p3221
sS'vpos'
p3222
S'vib_5'
p3223
sS'cref'
p3224
S'i28%1:t6'
p3225
sS'drel'
p3226
S'k1:VGF'
p3227
ssbsg38
I00
sg39
I00
sg40
Nsg41
Nsg42
I0
sg43
I8
sg44
Nsg45
Nsg46
S'NNP'
p3228
sg48
g3205
sg49
I00
sba(issf_api
Word
p3229
(dp3230
g6
I00
sg7
V\u0928\u0947
p3231
sg9
(issf_api
FeatureSet
p3232
(dp3233
g12
(dp3234
S'posn'
p3235
S'50'
p3236
sS'name'
p3237
S'\xe0\xa4\xa8\xe0\xa5\x87'
p3238
sS'drel'
p3239
S'lwg__psp:NP'
p3240
sS'chunktype'
p3241
S'child:NP'
p3242
sS'af'
p3243
S'\xe0\xa4\xa8\xe0\xa5\x87,psp,,,,,,'
p3244
ssbsg38
I00
sg39
I00
sg40
Nsg41
Nsg42
I0
sg43
I8
sg44
Nsg45
Nsg46
S'PSP'
p3245
sg48
g3232
sg49
I00
sba(issf_api
Word
p3246
(dp3247
g6
I00
sg7
V\u0905\u0932
p3248
sg9
(issf_api
FeatureSet
p3249
(dp3250
g12
(dp3251
S'posn'
p3252
S'60'
p3253
sS'name'
p3254
S'\xe0\xa4\x85\xe0\xa4\xb2'
p3255
sS'drel'
p3256
S'pof__cn:NP2'
p3257
sS'chunktype'
p3258
S'child:NP2'
p3259
sS'af'
p3260
S'\xe0\xa4\x85\xe0\xa4\xb2,n,m,sg,3,d,0,0'
p3261
ssbsg38
I00
sg39
I00
sg40
Nsg41
Nsg42
I1
sg43
I8
sg44
Nsg45
Nsg46
S'NNPC'
p3262
sg48
g3249
sg49
I00
sba(issf_api
Word
p3263
(dp3264
g6
I00
sg7
V\u0915\u093c\u093e\u092f\u0926\u093e
p3265
sg9
(issf_api
FeatureSet
p3266
(dp3267
g12
(dp3268
S'posn'
p3269
S'70'
p3270
sS'name'
p3271
S'\xe0\xa4\x95\xe0\xa4\xbc\xe0\xa4\xbe\xe0\xa4\xaf\xe0\xa4\xa6\xe0\xa4\xbe'
p3272
sS'af'
p3273
S'\xe0\xa4\x95\xe0\xa4\xbc\xe0\xa4\xbe\xe0\xa4\xaf\xe0\xa4\xa6\xe0\xa4\xbe,n,m,sg,3,o,0_\xe0\xa4\xb8\xe0\xa5\x87,0'
p3274
sS'chunkid'
p3275
S'NP2'
p3276
sS'drel'
p3277
S'jjmod:JJP'
p3278
sS'vpos'
p3279
S'vib_3'
p3280
sS'chunktype'
p3281
S'head:NP2'
p3282
ssbsg38
I00
sg39
I00
sg40
Nsg41
Nsg42
I1
sg43
I8
sg44
Nsg45
Nsg46
S'NNP'
p3283
sg48
g3266
sg49
I00
sba(issf_api
Word
p3284
(dp3285
g6
I00
sg7
V\u0938\u0947
p3286
sg9
(issf_api
FeatureSet
p3287
(dp3288
g12
(dp3289
S'posn'
p3290
S'80'
p3291
sS'name'
p3292
S'\xe0\xa4\xb8\xe0\xa5\x87'
p3293
sS'drel'
p3294
S'lwg__psp:NP2'
p3295
sS'chunktype'
p3296
S'child:NP2'
p3297
sS'af'
p3298
S'\xe0\xa4\xb8\xe0\xa5\x87,psp,,,,,,'
p3299
ssbsg38
I00
sg39
I00
sg40
Nsg41
Nsg42
I1
sg43
I8
sg44
Nsg45
Nsg46
S'PSP'
p3300
sg48
g3287
sg49
I00
sba(issf_api
Word
p3301
(dp3302
g6
I00
sg7
V\u0938\u0902\u092c\u0926\u094d\u0927
p3303
sg9
(issf_api
FeatureSet
p3304
(dp3305
g12
(dp3306
S'posn'
p3307
S'90'
p3308
sS'name'
p3309
S'\xe0\xa4\xb8\xe0\xa4\x82\xe0\xa4\xac\xe0\xa4\xa6\xe0\xa5\x8d\xe0\xa4\xa7'
p3310
sS'af'
p3311
S'\xe0\xa4\xb8\xe0\xa4\x82\xe0\xa4\xac\xe0\xa4\xa6\xe0\xa5\x8d\xe0\xa4\xa7,adj,any,any,,o,,'
p3312
sS'chunkid'
p3313
S'JJP'
p3314
sS'drel'
p3315
S'nmod:NP3'
p3316
sS'chunktype'
p3317
S'head:JJP'
p3318
ssbsg38
I00
sg39
I00
sg40
Nsg41
Nsg42
I2
sg43
I8
sg44
Nsg45
Nsg46
S'JJ'
p3319
sg48
g3304
sg49
I00
sba(issf_api
Word
p3320
(dp3321
g6
I00
sg7
V\u0906\u0924\u0902\u0915\u0940
p3322
sg9
(issf_api
FeatureSet
p3323
(dp3324
g12
(dp3325
S'posn'
p3326
S'100'
p3327
sS'name'
p3328
S'\xe0\xa4\x86\xe0\xa4\xa4\xe0\xa4\x82\xe0\xa4\x95\xe0\xa5\x80'
p3329
sS'af'
p3330
S'\xe0\xa4\x86\xe0\xa4\xa4\xe0\xa4\x82\xe0\xa4\x95\xe0\xa5\x80,adj,any,any,,o,,'
p3331
sS'drel'
p3332
S'nmod__adj:NP3'
p3333
sS'chunktype'
p3334
S'child:NP3'
p3335
sS'cref'
p3336
S'i29%0:t7'
p3337
ssbsg38
I00
sg39
I00
sg40
Nsg41
Nsg42
I3
sg43
I8
sg44
Nsg45
Nsg46
S'JJ'
p3338
sg48
g3323
sg49
I00
sba(issf_api
Word
p3339
(dp3340
g6
I00
sg7
V\u091c\u0930\u0915\u093e\u0935\u0940
p3341
sg9
(issf_api
FeatureSet
p3342
(dp3343
g12
(dp3344
S'crefhead'
p3345
S'\xe0\xa4\x9c\xe0\xa4\xb0\xe0\xa4\x95\xe0\xa4\xbe\xe0\xa4\xb5\xe0\xa5\x80:i29'
p3346
sS'posn'
p3347
S'110'
p3348
sS'name'
p3349
S'\xe0\xa4\x9c\xe0\xa4\xb0\xe0\xa4\x95\xe0\xa4\xbe\xe0\xa4\xb5\xe0\xa5\x80'
p3350
sS'af'
p3351
S'\xe0\xa4\x9c\xe0\xa4\xb0\xe0\xa4\x95\xe0\xa4\xbe\xe0\xa4\xb5\xe0\xa5\x80,n,m,sg,3,o,0_\xe0\xa4\x95\xe0\xa5\x8b,0'
p3352
sS'chunkid'
p3353
S'NP3'
p3354
sS'creftype'
p3355
S'Coreference-Identity:i9'
p3356
sS'chunktype'
p3357
S'head:NP3'
p3358
sS'vpos'
p3359
S'vib_3'
p3360
sS'cref'
p3361
S'i29%1:t7'
p3362
sS'drel'
p3363
S'k2:VGNF'
p3364
ssbsg38
I00
sg39
I00
sg40
Nsg41
Nsg42
I3
sg43
I8
sg44
Nsg45
Nsg46
S'NNP'
p3365
sg48
g3342
sg49
I00
sba(issf_api
Word
p3366
(dp3367
g6
I00
sg7
V\u0915\u094b
p3368
sg9
(issf_api
FeatureSet
p3369
(dp3370
g12
(dp3371
S'posn'
p3372
S'120'
p3373
sS'name'
p3374
S'\xe0\xa4\x95\xe0\xa5\x8b'
p3375
sS'drel'
p3376
S'lwg__psp:NP3'
p3377
sS'chunktype'
p3378
S'child:NP3'
p3379
sS'af'
p3380
S'\xe0\xa4\x95\xe0\xa5\x8b,psp,,,,,,'
p3381
ssbsg38
I00
sg39
I00
sg40
Nsg41
Nsg42
I3
sg43
I8
sg44
Nsg45
Nsg46
S'PSP'
p3382
sg48
g3369
sg49
I00
sba(issf_api
Word
p3383
(dp3384
g6
I00
sg7
V\u0928\u093f\u0936\u093e\u0928\u093e
p3385
sg9
(issf_api
FeatureSet
p3386
(dp3387
g12
(dp3388
S'posn'
p3389
S'130'
p3390
sS'name'
p3391
S'\xe0\xa4\xa8\xe0\xa4\xbf\xe0\xa4\xb6\xe0\xa4\xbe\xe0\xa4\xa8\xe0\xa4\xbe'
p3392
sS'af'
p3393
S'\xe0\xa4\xa8\xe0\xa4\xbf\xe0\xa4\xb6\xe0\xa4\xbe\xe0\xa4\xa8\xe0\xa4\xbe,n,m,sg,3,d,0,0'
p3394
sS'chunkid'
p3395
S'NP4'
p3396
sS'drel'
p3397
S'k2s:VGNF'
p3398
sS'chunktype'
p3399
S'head:NP4'
p3400
ssbsg38
I00
sg39
I00
sg40
Nsg41
Nsg42
I4
sg43
I8
sg44
Nsg45
Nsg46
S'NN'
p3401
sg48
g3386
sg49
I00
sba(issf_api
Word
p3402
(dp3403
g6
I00
sg7
V\u092c\u0928\u093e
p3404
sg9
(issf_api
FeatureSet
p3405
(dp3406
g12
(dp3407
S'posn'
p3408
S'140'
p3409
sS'name'
p3410
S'\xe0\xa4\xac\xe0\xa4\xa8\xe0\xa4\xbe'
p3411
sS'af'
p3412
S'\xe0\xa4\xac\xe0\xa4\xa8\xe0\xa4\xbe,v,any,any,any,,0_\xe0\xa4\x95\xe0\xa4\xb0,0'
p3413
sS'chunkid'
p3414
S'VGNF'
p3415
sS'drel'
p3416
S'vmod:VGF'
p3417
sS'vpos'
p3418
S'tam_2'
p3419
sS'chunktype'
p3420
S'head:VGNF'
p3421
ssbsg38
I00
sg39
I00
sg40
Nsg41
Nsg42
I5
sg43
I8
sg44
Nsg45
Nsg46
S'VM'
p3422
sg48
g3405
sg49
I00
sba(issf_api
Word
p3423
(dp3424
g6
I00
sg7
V\u0915\u0930
p3425
sg9
(issf_api
FeatureSet
p3426
(dp3427
g12
(dp3428
S'posn'
p3429
S'150'
p3430
sS'name'
p3431
S'\xe0\xa4\x95\xe0\xa4\xb0'
p3432
sS'drel'
p3433
S'lwg__vaux:VGNF'
p3434
sS'chunktype'
p3435
S'child:VGNF'
p3436
sS'af'
p3437
S'\xe0\xa4\x95\xe0\xa4\xb0,v,any,any,any,,0,0'
p3438
ssbsg38
I00
sg39
I00
sg40
Nsg41
Nsg42
I5
sg43
I8
sg44
Nsg45
Nsg46
S'VAUX'
p3439
sg48
g3426
sg49
I00
sba(issf_api
Word
p3440
(dp3441
g6
I00
sg7
V\u0936\u0928\u093f\u0935\u093e\u0930
p3442
sg9
(issf_api
FeatureSet
p3443
(dp3444
g12
(dp3445
S'posn'
p3446
S'160'
p3447
sS'name'
p3448
S'\xe0\xa4\xb6\xe0\xa4\xa8\xe0\xa4\xbf\xe0\xa4\xb5\xe0\xa4\xbe\xe0\xa4\xb0'
p3449
sS'af'
p3450
S'\xe0\xa4\xb6\xe0\xa4\xa8\xe0\xa4\xbf\xe0\xa4\xb5\xe0\xa4\xbe\xe0\xa4\xb0,n,m,sg,3,d,0,0'
p3451
sS'drel'
p3452
S'nmod__adj:NP5'
p3453
sS'chunktype'
p3454
S'child:NP5'
p3455
sS'cref'
p3456
S'i30%0:t3'
p3457
ssbsg38
I00
sg39
I00
sg40
Nsg41
Nsg42
I6
sg43
I8
sg44
Nsg45
Nsg46
S'NNP'
p3458
sg48
g3443
sg49
I00
sba(issf_api
Word
p3459
(dp3460
g6
I00
sg7
V\u0930\u093e\u0924
p3461
sg9
(issf_api
FeatureSet
p3462
(dp3463
g12
(dp3464
S'crefhead'
p3465
S'\xe0\xa4\xb0\xe0\xa4\xbe\xe0\xa4\xa4:i30'
p3466
sS'posn'
p3467
S'170'
p3468
sS'name'
p3469
S'\xe0\xa4\xb0\xe0\xa4\xbe\xe0\xa4\xa4'
p3470
sS'af'
p3471
S'\xe0\xa4\xb0\xe0\xa4\xbe\xe0\xa4\xa4,n,f,sg,3,d,0,0'
p3472
sS'chunkid'
p3473
S'NP5'
p3474
sS'creftype'
p3475
S'Coreference-Identity:i22'
p3476
sS'chunktype'
p3477
S'head:NP5'
p3478
sS'cref'
p3479
S'i30%1:t3'
p3480
sS'drel'
p3481
S'k7t:VGF'
p3482
ssbsg38
I00
sg39
I00
sg40
Nsg41
Nsg42
I6
sg43
I8
sg44
Nsg45
Nsg46
S'NN'
p3483
sg48
g3462
sg49
I00
sba(issf_api
Word
p3484
(dp3485
g6
I00
sg7
V\u0905\u0928\u0947\u0915
p3486
sg9
(issf_api
FeatureSet
p3487
(dp3488
g12
(dp3489
S'posn'
p3490
S'180'
p3491
sS'name'
p3492
S'\xe0\xa4\x85\xe0\xa4\xa8\xe0\xa5\x87\xe0\xa4\x95'
p3493
sS'af'
p3494
S'\xe0\xa4\x85\xe0\xa4\xa8\xe0\xa5\x87\xe0\xa4\x95,avy,,,,,,'
p3495
sS'drel'
p3496
S'nmod__adj:NP6'
p3497
sS'chunktype'
p3498
S'child:NP6'
p3499
sS'cref'
p3500
S'i31%0:t4'
p3501
ssbsg38
I00
sg39
I00
sg40
Nsg41
Nsg42
I7
sg43
I8
sg44
Nsg45
Nsg46
S'QF'
p3502
sg48
g3487
sg49
I00
sba(issf_api
Word
p3503
(dp3504
g6
I00
sg7
V\u0939\u092e\u0932\u0947
p3505
sg9
(issf_api
FeatureSet
p3506
(dp3507
g12
(dp3508
S'crefhead'
p3509
S'\xe0\xa4\xb9\xe0\xa4\xae\xe0\xa4\xb2\xe0\xa5\x87:i31'
p3510
sS'posn'
p3511
S'190'
p3512
sS'name'
p3513
S'\xe0\xa4\xb9\xe0\xa4\xae\xe0\xa4\xb2\xe0\xa5\x87'
p3514
sS'af'
p3515
S'\xe0\xa4\xb9\xe0\xa4\xae\xe0\xa4\xb2\xe0\xa4\xbe,n,m,pl,3,d,0,0'
p3516
sS'chunkid'
p3517
S'NP6'
p3518
sS'creftype'
p3519
S'Coreference-Identity:i23'
p3520
sS'chunktype'
p3521
S'head:NP6'
p3522
sS'cref'
p3523
S'i31%1:t4'
p3524
sS'drel'
p3525
S'pof:VGF'
p3526
ssbsg38
I00
sg39
I00
sg40
Nsg41
Nsg42
I7
sg43
I8
sg44
Nsg45
Nsg46
S'NN'
p3527
sg48
g3506
sg49
I00
sba(issf_api
Word
p3528
(dp3529
g6
I00
sg7
V\u0915\u093f\u090f
p3530
sg9
(issf_api
FeatureSet
p3531
(dp3532
g12
(dp3533
S'posn'
p3534
S'200'
p3535
sS'name'
p3536
S'\xe0\xa4\x95\xe0\xa4\xbf\xe0\xa4\x8f'
p3537
sS'af'
p3538
S'\xe0\xa4\x95\xe0\xa4\xb0,v,m,pl,any,,\xe0\xa4\xaf\xe0\xa4\xbe,yA'
p3539
sS'chunkid'
p3540
S'VGF'
p3541
sS'chunktype'
p3542
S'head:VGF'
p3543
sS'voicetype'
p3544
S'active'
p3545
sS'stype'
p3546
S'declarative'
p3547
ssbsg38
I00
sg39
I00
sg40
Nsg41
Nsg42
I8
sg43
I8
sg44
Nsg45
Nsg46
S'VM'
p3548
sg48
g3531
sg49
I00
sba(issf_api
Word
p3549
(dp3550
g6
I00
sg7
V\u0964
p3551
sg9
(issf_api
FeatureSet
p3552
(dp3553
g12
(dp3554
S'posn'
p3555
S'210'
p3556
sS'name'
p3557
S'\xe0\xa5\xa4'
p3558
sS'af'
p3559
S'\xe0\xa5\xa4,punc,,,,,,'
p3560
sS'chunkid'
p3561
S'BLK'
p3562
sS'drel'
p3563
S'rsym:VGF'
p3564
sS'chunktype'
p3565
S'head:BLK'
p3566
ssbsg38
I00
sg39
I00
sg40
Nsg41
Nsg42
I9
sg43
I8
sg44
Nsg45
Nsg46
S'SYM'
p3567
sg48
g3552
sg49
I00
sba(issf_api
Word
p3568
(dp3569
g6
I00
sg7
V\u0917\u094c\u0930\u0924\u0932\u092c
p3570
sg9
(issf_api
FeatureSet
p3571
(dp3572
g12
(dp3573
S'posn'
p3574
S'10'
p3575
sS'name'
p3576
S'\xe0\xa4\x97\xe0\xa5\x8c\xe0\xa4\xb0\xe0\xa4\xa4\xe0\xa4\xb2\xe0\xa4\xac'
p3577
sS'af'
p3578
S'\xe0\xa4\x97\xe0\xa5\x8c\xe0\xa4\xb0\xe0\xa4\xa4\xe0\xa4\xb2\xe0\xa4\xac,adj,any,any,,,,'
p3579
sS'chunkid'
p3580
S'JJP'
p3581
sS'drel'
p3582
S'k1s:VGF'
p3583
sS'chunktype'
p3584
S'head:JJP'
p3585
ssbsg38
I00
sg39
I00
sg40
Nsg41
Nsg42
I0
sg43
I9
sg44
Nsg45
Nsg46
S'JJ'
p3586
sg48
g3571
sg49
I00
sba(issf_api
Word
p3587
(dp3588
g6
I00
sg7
V\u0939\u0948
p3589
sg9
(issf_api
FeatureSet
p3590
(dp3591
g12
(dp3592
S'posn'
p3593
S'20'
p3594
sS'name'
p3595
S'\xe0\xa4\xb9\xe0\xa5\x88'
p3596
sS'af'
p3597
S'\xe0\xa4\xb9\xe0\xa5\x88,v,any,sg,3,,\xe0\xa4\xb9\xe0\xa5\x88,hE'
p3598
sS'chunkid'
p3599
S'VGF'
p3600
sS'chunktype'
p3601
S'head:VGF'
p3602
sS'voicetype'
p3603
S'active'
p3604
sS'stype'
p3605
S'declarative'
p3606
ssbsg38
I00
sg39
I00
sg40
Nsg41
Nsg42
I1
sg43
I9
sg44
Nsg45
Nsg46
S'VM'
p3607
sg48
g3590
sg49
I00
sba(issf_api
Word
p3608
(dp3609
g6
I00
sg7
V\u0915\u093f
p3610
sg9
(issf_api
FeatureSet
p3611
(dp3612
g12
(dp3613
S'posn'
p3614
S'30'
p3615
sS'name'
p3616
S'\xe0\xa4\x95\xe0\xa4\xbf'
p3617
sS'af'
p3618
S'\xe0\xa4\x95\xe0\xa4\xbf,avy,,,,,,'
p3619
sS'chunkid'
p3620
S'CCP'
p3621
sS'drel'
p3622
S'rs:NULL__NP'
p3623
sS'chunktype'
p3624
S'head:CCP'
p3625
ssbsg38
I00
sg39
I00
sg40
Nsg41
Nsg42
I2
sg43
I9
sg44
Nsg45
Nsg46
S'CC'
p3626
sg48
g3611
sg49
I00
sba(issf_api
Word
p3627
(dp3628
g6
I00
sg7
V\u091c\u0930\u0915\u093e\u0935\u0940
p3629
sg9
(issf_api
FeatureSet
p3630
(dp3631
g12
(dp3632
S'crefhead'
p3633
S'\xe0\xa4\x9c\xe0\xa4\xb0\xe0\xa4\x95\xe0\xa4\xbe\xe0\xa4\xb5\xe0\xa5\x80:i32'
p3634
sS'posn'
p3635
S'40'
p3636
sS'name'
p3637
S'\xe0\xa4\x9c\xe0\xa4\xb0\xe0\xa4\x95\xe0\xa4\xbe\xe0\xa4\xb5\xe0\xa5\x80'
p3638
sS'af'
p3639
S'\xe0\xa4\x9c\xe0\xa4\xb0\xe0\xa4\x95\xe0\xa4\xbe\xe0\xa4\xb5\xe0\xa5\x80,n,m,sg,3,o,0_\xe0\xa4\xa8\xe0\xa5\x87,0'
p3640
sS'chunkid'
p3641
S'NP'
p3642
sS'creftype'
p3643
S'Coreference-Identity:i29'
p3644
sS'chunktype'
p3645
S'head:NP'
p3646
sS'vpos'
p3647
S'vib_2'
p3648
sS'cref'
p3649
S'i32%1:t7'
p3650
sS'drel'
p3651
S'k1:VGF2'
p3652
ssbsg38
I00
sg39
I00
sg40
Nsg41
Nsg42
I3
sg43
I9
sg44
Nsg45
Nsg46
S'NNP'
p3653
sg48
g3630
sg49
I00
sba(issf_api
Word
p3654
(dp3655
g6
I00
sg7
V\u0928\u0947
p3656
sg9
(issf_api
FeatureSet
p3657
(dp3658
g12
(dp3659
S'posn'
p3660
S'50'
p3661
sS'name'
p3662
S'\xe0\xa4\xa8\xe0\xa5\x87'
p3663
sS'drel'
p3664
S'lwg__psp:NP'
p3665
sS'chunktype'
p3666
S'child:NP'
p3667
sS'af'
p3668
S'\xe0\xa4\xa8\xe0\xa5\x87,psp,,,,,,'
p3669
ssbsg38
I00
sg39
I00
sg40
Nsg41
Nsg42
I3
sg43
I9
sg44
Nsg45
Nsg46
S'PSP'
p3670
sg48
g3657
sg49
I00
sba(issf_api
Word
p3671
(dp3672
g6
I00
sg7
V\u0907\u0930\u093e\u0915
p3673
sg9
(issf_api
FeatureSet
p3674
(dp3675
g12
(dp3676
S'crefhead'
p3677
S'\xe0\xa4\x87\xe0\xa4\xb0\xe0\xa4\xbe\xe0\xa4\x95:i33'
p3678
sS'posn'
p3679
S'60'
p3680
sS'name'
p3681
S'\xe0\xa4\x87\xe0\xa4\xb0\xe0\xa4\xbe\xe0\xa4\x95'
p3682
sS'af'
p3683
S'\xe0\xa4\x87\xe0\xa4\xb0\xe0\xa4\xbe\xe0\xa4\x95,n,m,sg,3,o,0_\xe0\xa4\x95\xe0\xa4\xbe,0'
p3684
sS'acrefmodhead'
p3685
S'\xe0\xa4\x87\xe0\xa4\xb0\xe0\xa4\xbe\xe0\xa4\x95:m5'
p3686
sS'chunkid'
p3687
S'NP2'
p3688
sS'acrefmod'
p3689
S'm5%1:i34'
p3690
sS'creftype'
p3691
S'Coreference-Identity:i14'
p3692
sS'chunktype'
p3693
S'head:NP2'
p3694
sS'vpos'
p3695
S'vib_2'
p3696
sS'cref'
p3697
S'i33%1:t1'
p3698
sS'drel'
p3699
S'r6:NP3'
p3700
ssbsg38
I00
sg39
I00
sg40
Nsg41
Nsg42
I4
sg43
I9
sg44
Nsg45
Nsg46
S'NNP'
p3701
sg48
g3674
sg49
I00
sba(issf_api
Word
p3702
(dp3703
g6
I00
sg7
V\u0915\u0947
p3704
sg9
(issf_api
FeatureSet
p3705
(dp3706
g12
(dp3707
S'posn'
p3708
S'70'
p3709
sS'name'
p3710
S'\xe0\xa4\x95\xe0\xa5\x87'
p3711
sS'drel'
p3712
S'lwg__psp:NP2'
p3713
sS'chunktype'
p3714
S'child:NP2'
p3715
sS'af'
p3716
S'\xe0\xa4\x95\xe0\xa4\xbe,psp,m,sg,,o,,'
p3717
ssbsg38
I00
sg39
I00
sg40
Nsg41
Nsg42
I4
sg43
I9
sg44
Nsg45
Nsg46
S'PSP'
p3718
sg48
g3705
sg49
I00
sba(issf_api
Word
p3719
(dp3720
g6
I00
sg7
V\u0928\u094d\u092f\u093e\u092f
p3721
sg9
(issf_api
FeatureSet
p3722
(dp3723
g12
(dp3724
S'posn'
p3725
S'80'
p3726
sS'name'
p3727
S'\xe0\xa4\xa8\xe0\xa5\x8d\xe0\xa4\xaf\xe0\xa4\xbe\xe0\xa4\xaf'
p3728
sS'af'
p3729
S'\xe0\xa4\xa8\xe0\xa5\x8d\xe0\xa4\xaf\xe0\xa4\xbe\xe0\xa4\xaf,n,m,sg,3,d,0,0'
p3730
sS'drel'
p3731
S'pof__cn:NP3'
p3732
sS'chunktype'
p3733
S'child:NP3'
p3734
sS'cref'
p3735
S'i34%0:t12'
p3736
ssbsg38
I00
sg39
I00
sg40
Nsg41
Nsg42
I5
sg43
I9
sg44
Nsg45
Nsg46
S'NNPC'
p3737
sg48
g3722
sg49
I00
sba(issf_api
Word
p3738
(dp3739
g6
I00
sg7
V\u092e\u0902\u0924\u094d\u0930\u0940
p3740
sg9
(issf_api
FeatureSet
p3741
(dp3742
g12
(dp3743
S'crefhead'
p3744
S'\xe0\xa4\xae\xe0\xa4\x82\xe0\xa4\xa4\xe0\xa5\x8d\xe0\xa4\xb0\xe0\xa5\x80:i34'
p3745
sS'posn'
p3746
S'90'
p3747
sS'name'
p3748
S'\xe0\xa4\xae\xe0\xa4\x82\xe0\xa4\xa4\xe0\xa5\x8d\xe0\xa4\xb0\xe0\xa5\x80'
p3749
sS'af'
p3750
S'\xe0\xa4\xae\xe0\xa4\x82\xe0\xa4\xa4\xe0\xa5\x8d\xe0\xa4\xb0\xe0\xa5\x80,n,m,sg,3,o,0,0'
p3751
sS'chunkid'
p3752
S'NP3'
p3753
sS'crefmod'
p3754
S'm5:i34'
p3755
sS'chunktype'
p3756
S'head:NP3'
p3757
sS'cref'
p3758
S'i34%1:t12'
p3759
sS'drel'
p3760
S'nmod:NP4'
p3761
ssbsg38
I00
sg39
I00
sg40
Nsg41
Nsg42
I5
sg43
I9
sg44
Nsg45
Nsg46
S'NNP'
p3762
sg48
g3741
sg49
I00
sba(issf_api
Word
p3763
(dp3764
g6
I00
sg7
V\u092e\u0932\u0947\u0915
p3765
sg9
(issf_api
FeatureSet
p3766
(dp3767
g12
(dp3768
S'posn'
p3769
S'100'
p3770
sS'name'
p3771
S'\xe0\xa4\xae\xe0\xa4\xb2\xe0\xa5\x87\xe0\xa4\x95'
p3772
sS'af'
p3773
S'\xe0\xa4\xae\xe0\xa4\xb2\xe0\xa5\x87\xe0\xa4\x95,n,m,sg,3,d,0,0'
p3774
sS'drel'
p3775
S'pof__cn:NP4'
p3776
sS'chunktype'
p3777
S'child:NP4'
p3778
sS'cref'
p3779
S'i35%0:t12'
p3780
ssbsg38
I00
sg39
I00
sg40
Nsg41
Nsg42
I6
sg43
I9
sg44
Nsg45
Nsg46
S'NNPC'
p3781
sg48
g3766
sg49
I00
sba(issf_api
Word
p3782
(dp3783
g6
I00
sg7
V\u0926\u094b\u0939\u093e\u0928
p3784
sg9
(issf_api
FeatureSet
p3785
(dp3786
g12
(dp3787
S'crefhead'
p3788
S'\xe0\xa4\xa6\xe0\xa5\x8b\xe0\xa4\xb9\xe0\xa4\xbe\xe0\xa4\xa8:i35'
p3789
sS'posn'
p3790
S'110'
p3791
sS'name'
p3792
S'\xe0\xa4\xa6\xe0\xa5\x8b\xe0\xa4\xb9\xe0\xa4\xbe\xe0\xa4\xa8'
p3793
sS'af'
p3794
S'\xe0\xa4\xa6\xe0\xa5\x8b\xe0\xa4\xb9\xe0\xa4\xbe\xe0\xa4\xa8,n,m,sg,3,o,0_\xe0\xa4\x95\xe0\xa5\x87_\xe0\xa4\x96\xe0\xa4\xbf\xe0\xa4\xb2\xe0\xa4\xbe\xe0\xa4\xab,0'
p3795
sS'chunkid'
p3796
S'NP4'
p3797
sS'creftype'
p3798
S'Coreference-NounComplement:i34'
p3799
sS'chunktype'
p3800
S'head:NP4'
p3801
sS'crefchainhead'
p3802
S'i35:t12'
p3803
sS'vpos'
p3804
S'vib_3_4'
p3805
sS'cref'
p3806
S'i35%1:t12'
p3807
sS'drel'
p3808
S'vmod:VGF2'
p3809
ssbsg38
I00
sg39
I00
sg40
Nsg41
Nsg42
I6
sg43
I9
sg44
Nsg45
Nsg46
S'NNP'
p3810
sg48
g3785
sg49
I00
sba(issf_api
Word
p3811
(dp3812
g6
I00
sg7
V\u0915\u0947
p3813
sg9
(issf_api
FeatureSet
p3814
(dp3815
g12
(dp3816
S'posn'
p3817
S'120'
p3818
sS'name'
p3819
S'\xe0\xa4\x95\xe0\xa5\x872'
p3820
sS'drel'
p3821
S'lwg__psp:NP4'
p3822
sS'chunktype'
p3823
S'child:NP4'
p3824
sS'af'
p3825
S'\xe0\xa4\x95\xe0\xa5\x87,psp,,,,,,'
p3826
ssbsg38
I00
sg39
I00
sg40
Nsg41
Nsg42
I6
sg43
I9
sg44
Nsg45
Nsg46
S'PSP'
p3827
sg48
g3814
sg49
I00
sba(issf_api
Word
p3828
(dp3829
g6
I00
sg7
V\u0916\u093f\u0932\u093e\u092b
p3830
sg9
(issf_api
FeatureSet
p3831
(dp3832
g12
(dp3833
S'posn'
p3834
S'130'
p3835
sS'name'
p3836
S'\xe0\xa4\x96\xe0\xa4\xbf\xe0\xa4\xb2\xe0\xa4\xbe\xe0\xa4\xab'
p3837
sS'drel'
p3838
S'lwg__psp:NP4'
p3839
sS'chunktype'
p3840
S'child:NP4'
p3841
sS'af'
p3842
S'\xe0\xa4\x96\xe0\xa4\xbf\xe0\xa4\xb2\xe0\xa4\xbe\xe0\xa4\xab,adj,,,,,,'
p3843
ssbsg38
I00
sg39
I00
sg40
Nsg41
Nsg42
I6
sg43
I9
sg44
Nsg45
Nsg46
S'PSP'
p3844
sg48
g3831
sg49
I00
sba(issf_api
Word
p3845
(dp3846
g6
I00
sg7
V\u0906\u0924\u094d\u092e\u0918\u093e\u0924\u0940
p3847
sg9
(issf_api
FeatureSet
p3848
(dp3849
g12
(dp3850
S'posn'
p3851
S'140'
p3852
sS'name'
p3853
S'\xe0\xa4\x86\xe0\xa4\xa4\xe0\xa5\x8d\xe0\xa4\xae\xe0\xa4\x98\xe0\xa4\xbe\xe0\xa4\xa4\xe0\xa5\x80'
p3854
sS'af'
p3855
S'\xe0\xa4\x86\xe0\xa4\xa4\xe0\xa5\x8d\xe0\xa4\xae\xe0\xa4\x98\xe0\xa4\xbe\xe0\xa4\xa4\xe0\xa5\x80,adj,any,any,,o,,'
p3856
sS'drel'
p3857
S'nmod__adj:NP5'
p3858
sS'chunktype'
p3859
S'child:NP5'
p3860
sS'cref'
p3861
S'i36%0:t13'
p3862
ssbsg38
I00
sg39
I00
sg40
Nsg41
Nsg42
I7
sg43
I9
sg44
Nsg45
Nsg46
S'JJ'
p3863
sg48
g3848
sg49
I00
sba(issf_api
Word
p3864
(dp3865
g6
I00
sg7
V\u0939\u092e\u0932\u0947
p3866
sg9
(issf_api
FeatureSet
p3867
(dp3868
g12
(dp3869
S'crefhead'
p3870
S'\xe0\xa4\xb9\xe0\xa4\xae\xe0\xa4\xb2\xe0\xa5\x87:i36'
p3871
sS'posn'
p3872
S'150'
p3873
sS'name'
p3874
S'\xe0\xa4\xb9\xe0\xa4\xae\xe0\xa4\xb2\xe0\xa5\x87'
p3875
sS'af'
p3876
S'\xe0\xa4\xb9\xe0\xa4\xae\xe0\xa4\xb2\xe0\xa4\xbe,n,m,sg,3,o,0_\xe0\xa4\x95\xe0\xa4\xbe,0'
p3877
sS'chunkid'
p3878
S'NP5'
p3879
sS'chunktype'
p3880
S'head:NP5'
p3881
sS'crefchainhead'
p3882
S'i36:t13'
p3883
sS'vpos'
p3884
S'vib_3'
p3885
sS'cref'
p3886
S'i36%1:t13'
p3887
sS'drel'
p3888
S'r6:NP6'
p3889
ssbsg38
I00
sg39
I00
sg40
Nsg41
Nsg42
I7
sg43
I9
sg44
Nsg45
Nsg46
S'NN'
p3890
sg48
g3867
sg49
I00
sba(issf_api
Word
p3891
(dp3892
g6
I00
sg7
V\u0915\u0940
p3893
sg9
(issf_api
FeatureSet
p3894
(dp3895
g12
(dp3896
S'posn'
p3897
S'160'
p3898
sS'name'
p3899
S'\xe0\xa4\x95\xe0\xa5\x80'
p3900
sS'drel'
p3901
S'lwg__psp:NP5'
p3902
sS'chunktype'
p3903
S'child:NP5'
p3904
sS'af'
p3905
S'\xe0\xa4\x95\xe0\xa4\xbe,psp,f,sg,,d,,'
p3906
ssbsg38
I00
sg39
I00
sg40
Nsg41
Nsg42
I7
sg43
I9
sg44
Nsg45
Nsg46
S'PSP'
p3907
sg48
g3894
sg49
I00
sba(issf_api
Word
p3908
(dp3909
g6
I00
sg7
V\u091c\u093f\u092e\u094d\u092e\u0947\u0926\u093e\u0930\u0940
p3910
sg9
(issf_api
FeatureSet
p3911
(dp3912
g12
(dp3913
S'posn'
p3914
S'170'
p3915
sS'name'
p3916
S'\xe0\xa4\x9c\xe0\xa4\xbf\xe0\xa4\xae\xe0\xa5\x8d\xe0\xa4\xae\xe0\xa5\x87\xe0\xa4\xa6\xe0\xa4\xbe\xe0\xa4\xb0\xe0\xa5\x80'
p3917
sS'af'
p3918
S'\xe0\xa4\x9c\xe0\xa4\xbf\xe0\xa4\xae\xe0\xa5\x8d\xe0\xa4\xae\xe0\xa5\x87\xe0\xa4\xa6\xe0\xa4\xbe\xe0\xa4\xb0\xe0\xa5\x80,n,f,sg,3,d,0,0'
p3919
sS'chunkid'
p3920
S'NP6'
p3921
sS'drel'
p3922
S'k2:VGF2'
p3923
sS'chunktype'
p3924
S'head:NP6'
p3925
ssbsg38
I00
sg39
I00
sg40
Nsg41
Nsg42
I8
sg43
I9
sg44
Nsg45
Nsg46
S'NN'
p3926
sg48
g3911
sg49
I00
sba(issf_api
Word
p3927
(dp3928
g6
I00
sg7
V\u0932\u0940
p3929
sg9
(issf_api
FeatureSet
p3930
(dp3931
g12
(dp3932
S'posn'
p3933
S'180'
p3934
sS'name'
p3935
S'\xe0\xa4\xb2\xe0\xa5\x80'
p3936
sS'af'
p3937
S'\xe0\xa4\xb2\xe0\xa5\x87,v,f,sg,any,,\xe0\xa4\xaf\xe0\xa4\xbe_\xe0\xa4\xa5\xe0\xa4\xbe,yA'
p3938
sS'chunkid'
p3939
S'VGF2'
p3940
sS'stype'
p3941
S'declarative'
p3942
sS'drel'
p3943
S'ccof:CCP'
p3944
sS'voicetype'
p3945
S'active'
p3946
sS'vpos'
p3947
S'tam_2'
p3948
sS'chunktype'
p3949
S'head:VGF2'
p3950
ssbsg38
I00
sg39
I00
sg40
Nsg41
Nsg42
I9
sg43
I9
sg44
Nsg45
Nsg46
S'VM'
p3951
sg48
g3930
sg49
I00
sba(issf_api
Word
p3952
(dp3953
g6
I00
sg7
V\u0925\u0940
p3954
sg9
(issf_api
FeatureSet
p3955
(dp3956
g12
(dp3957
S'posn'
p3958
S'190'
p3959
sS'name'
p3960
S'\xe0\xa4\xa5\xe0\xa5\x80'
p3961
sS'drel'
p3962
S'lwg__vaux:VGF2'
p3963
sS'chunktype'
p3964
S'child:VGF2'
p3965
sS'af'
p3966
S'\xe0\xa4\xa5\xe0\xa4\xbe,v,f,sg,any,,\xe0\xa4\xa5\xe0\xa4\xbe,WA'
p3967
ssbsg38
I00
sg39
I00
sg40
Nsg41
Nsg42
I9
sg43
I9
sg44
Nsg45
Nsg46
S'VAUX'
p3968
sg48
g3955
sg49
I00
sba(issf_api
Word
p3969
(dp3970
g6
I00
sg7
V\u0964
p3971
sg9
(issf_api
FeatureSet
p3972
(dp3973
g12
(dp3974
S'posn'
p3975
S'200'
p3976
sS'name'
p3977
S'\xe0\xa5\xa4'
p3978
sS'af'
p3979
S'\xe0\xa5\xa4,punc,,,,,,'
p3980
sS'chunkid'
p3981
S'BLK'
p3982
sS'drel'
p3983
S'rsym:VGF'
p3984
sS'chunktype'
p3985
S'head:BLK'
p3986
ssbsg38
I00
sg39
I00
sg40
Nsg41
Nsg42
I10
sg43
I9
sg44
Nsg45
Nsg46
S'SYM'
p3987
sg48
g3972
sg49
I00
sba(issf_api
Word
p3988
(dp3989
g6
I00
sg7
V\u0907\u0938
p3990
sg9
(issf_api
FeatureSet
p3991
(dp3992
g12
(dp3993
S'posn'
p3994
S'10'
p3995
sS'name'
p3996
S'\xe0\xa4\x87\xe0\xa4\xb8'
p3997
sS'af'
p3998
S'\xe0\xa4\xaf\xe0\xa4\xb9,pn,any,sg,3,o,,'
p3999
sS'drel'
p4000
S'nmod__adj:NP'
p4001
sS'chunktype'
p4002
S'child:NP'
p4003
sS'cref'
p4004
S'i37%0:t13'
p4005
ssbsg38
I00
sg39
I00
sg40
Nsg41
Nsg42
I0
sg43
I10
sg44
Nsg45
Nsg46
S'DEM'
p4006
sg48
g3991
sg49
I00
sba(issf_api
Word
p4007
(dp4008
g6
I00
sg7
V\u0939\u092e\u0932\u0947
p4009
sg9
(issf_api
FeatureSet
p4010
(dp4011
g12
(dp4012
S'crefhead'
p4013
S'\xe0\xa4\xb9\xe0\xa4\xae\xe0\xa4\xb2\xe0\xa5\x87:i37'
p4014
sS'posn'
p4015
S'20'
p4016
sS'name'
p4017
S'\xe0\xa4\xb9\xe0\xa4\xae\xe0\xa4\xb2\xe0\xa5\x87'
p4018
sS'af'
p4019
S'\xe0\xa4\xb9\xe0\xa4\xae\xe0\xa4\xb2\xe0\xa4\xbe,n,m,sg,3,o,0_\xe0\xa4\xae\xe0\xa5\x87\xe0\xa4\x82,0'
p4020
sS'chunkid'
p4021
S'NP'
p4022
sS'creftype'
p4023
S'Coreference-Identity:i36'
p4024
sS'chunktype'
p4025
S'head:NP'
p4026
sS'vpos'
p4027
S'vib_3'
p4028
sS'cref'
p4029
S'i37%1:t13'
p4030
sS'drel'
p4031
S'k7:VGF'
p4032
ssbsg38
I00
sg39
I00
sg40
Nsg41
Nsg42
I0
sg43
I10
sg44
Nsg45
Nsg46
S'NN'
p4033
sg48
g4010
sg49
I00
sba(issf_api
Word
p4034
(dp4035
g6
I00
sg7
V\u092e\u0947\u0902
p4036
sg9
(issf_api
FeatureSet
p4037
(dp4038
g12
(dp4039
S'posn'
p4040
S'30'
p4041
sS'name'
p4042
S'\xe0\xa4\xae\xe0\xa5\x87\xe0\xa4\x82'
p4043
sS'drel'
p4044
S'lwg__psp:NP'
p4045
sS'chunktype'
p4046
S'child:NP'
p4047
sS'af'
p4048
S'\xe0\xa4\xae\xe0\xa5\x87\xe0\xa4\x82,psp,,,,,,'
p4049
ssbsg38
I00
sg39
I00
sg40
Nsg41
Nsg42
I0
sg43
I10
sg44
Nsg45
Nsg46
S'PSP'
p4050
sg48
g4037
sg49
I00
sba(issf_api
Word
p4051
(dp4052
g6
I00
sg7
V\u0926\u094b\u0939\u093e\u0928
p4053
sg9
(issf_api
FeatureSet
p4054
(dp4055
g12
(dp4056
S'crefhead'
p4057
S'\xe0\xa4\xa6\xe0\xa5\x8b\xe0\xa4\xb9\xe0\xa4\xbe\xe0\xa4\xa8:i38'
p4058
sS'posn'
p4059
S'40'
p4060
sS'name'
p4061
S'\xe0\xa4\xa6\xe0\xa5\x8b\xe0\xa4\xb9\xe0\xa4\xbe\xe0\xa4\xa8'
p4062
sS'af'
p4063
S'\xe0\xa4\xa6\xe0\xa5\x8b\xe0\xa4\xb9\xe0\xa4\xbe\xe0\xa4\xa8,n,m,sg,3,d,0,0'
p4064
sS'chunkid'
p4065
S'NP2'
p4066
sS'creftype'
p4067
S'Coreference-Identity:i35'
p4068
sS'chunktype'
p4069
S'head:NP2'
p4070
sS'cref'
p4071
S'i38%1:t12'
p4072
sS'drel'
p4073
S'k1:VGF'
p4074
ssbsg38
I00
sg39
I00
sg40
Nsg41
Nsg42
I1
sg43
I10
sg44
Nsg45
Nsg46
S'NNP'
p4075
sg48
g4054
sg49
I00
sba(issf_api
Word
p4076
(dp4077
g6
I00
sg7
V\u0924\u094b
p4078
sg9
(issf_api
FeatureSet
p4079
(dp4080
g12
(dp4081
S'posn'
p4082
S'50'
p4083
sS'name'
p4084
S'\xe0\xa4\xa4\xe0\xa5\x8b'
p4085
sS'drel'
p4086
S'lwg__rp:NP2'
p4087
sS'chunktype'
p4088
S'child:NP2'
p4089
sS'af'
p4090
S'\xe0\xa4\xa4\xe0\xa5\x8b,avy,,,,,,'
p4091
ssbsg38
I00
sg39
I00
sg40
Nsg41
Nsg42
I1
sg43
I10
sg44
Nsg45
Nsg46
S'RP'
p4092
sg48
g4079
sg49
I00
sba(issf_api
Word
p4093
(dp4094
g6
I00
sg7
V\u092c\u091a
p4095
sg9
(issf_api
FeatureSet
p4096
(dp4097
g12
(dp4098
S'posn'
p4099
S'60'
p4100
sS'name'
p4101
S'\xe0\xa4\xac\xe0\xa4\x9a'
p4102
sS'af'
p4103
S'\xe0\xa4\xac\xe0\xa4\x9a,v,any,sg,3h,,0_\xe0\xa4\x9c\xe0\xa4\xbe+\xe0\xa4\xaf\xe0\xa4\xbe\xe0\xa5\xa7,0'
p4104
sS'chunkid'
p4105
S'VGF'
p4106
sS'stype'
p4107
S'declarative'
p4108
sS'drel'
p4109
S'ccof:CCP'
p4110
sS'voicetype'
p4111
S'active'
p4112
sS'vpos'
p4113
S'tam_2'
p4114
sS'chunktype'
p4115
S'head:VGF'
p4116
ssbsg38
I00
sg39
I00
sg40
Nsg41
Nsg42
I2
sg43
I10
sg44
Nsg45
Nsg46
S'VM'
p4117
sg48
g4096
sg49
I00
sba(issf_api
Word
p4118
(dp4119
g6
I00
sg7
V\u0917\u090f
p4120
sg9
(issf_api
FeatureSet
p4121
(dp4122
g12
(dp4123
S'posn'
p4124
S'70'
p4125
sS'name'
p4126
S'\xe0\xa4\x97\xe0\xa4\x8f'
p4127
sS'drel'
p4128
S'lwg__vaux:VGF'
p4129
sS'chunktype'
p4130
S'child:VGF'
p4131
sS'af'
p4132
S'\xe0\xa4\x9c\xe0\xa4\xbe,v,m,sg,3h,,\xe0\xa4\xaf\xe0\xa4\xbe\xe0\xa5\xa7,yA1'
p4133
ssbsg38
I00
sg39
I00
sg40
Nsg41
Nsg42
I2
sg43
I10
sg44
Nsg45
Nsg46
S'VAUX'
p4134
sg48
g4121
sg49
I00
sba(issf_api
Word
p4135
(dp4136
g6
I00
sg7
V\u0932\u0947\u0915\u093f\u0928
p4137
sg9
(issf_api
FeatureSet
p4138
(dp4139
g12
(dp4140
S'posn'
p4141
S'80'
p4142
sS'chunkid'
p4143
S'CCP'
p4144
sS'name'
p4145
S'\xe0\xa4\xb2\xe0\xa5\x87\xe0\xa4\x95\xe0\xa4\xbf\xe0\xa4\xa8'
p4146
sS'chunktype'
p4147
S'head:CCP'
p4148
sS'af'
p4149
S'\xe0\xa4\xb2\xe0\xa5\x87\xe0\xa4\x95\xe0\xa4\xbf\xe0\xa4\xa8,avy,,,,,,'
p4150
ssbsg38
I00
sg39
I00
sg40
Nsg41
Nsg42
I3
sg43
I10
sg44
Nsg45
Nsg46
S'CC'
p4151
sg48
g4138
sg49
I00
sba(issf_api
Word
p4152
(dp4153
g6
I00
sg7
V\u0909\u0928\u0915\u0947
p4154
sg9
(issf_api
FeatureSet
p4155
(dp4156
g12
(dp4157
S'crefhead'
p4158
S'\xe0\xa4\x89\xe0\xa4\xa8\xe0\xa4\x95\xe0\xa5\x87:i39'
p4159
sS'posn'
p4160
S'90'
p4161
sS'name'
p4162
S'\xe0\xa4\x89\xe0\xa4\xa8\xe0\xa4\x95\xe0\xa5\x87'
p4163
sS'af'
p4164
S'\xe0\xa4\xb5\xe0\xa4\xb9,pn,m,sg,3h,o,\xe0\xa4\x95\xe0\xa4\xbe,kA'
p4165
sS'chunkid'
p4166
S'NP3'
p4167
sS'creftype'
p4168
S'Anaphora-C:i38'
p4169
sS'chunktype'
p4170
S'head:NP3'
p4171
sS'cref'
p4172
S'i39%1:t12'
p4173
sS'drel'
p4174
S'r6:NP4'
p4175
ssbsg38
I00
sg39
I00
sg40
Nsg41
Nsg42
I4
sg43
I10
sg44
Nsg45
Nsg46
S'PRP'
p4176
sg48
g4155
sg49
I00
sba(issf_api
Word
p4177
(dp4178
g6
I00
sg7
V\u092d\u0924\u0940\u091c\u0947
p4179
sg9
(issf_api
FeatureSet
p4180
(dp4181
g12
(dp4182
S'posn'
p4183
S'100'
p4184
sS'name'
p4185
S'\xe0\xa4\xad\xe0\xa4\xa4\xe0\xa5\x80\xe0\xa4\x9c\xe0\xa5\x87'
p4186
sS'af'
p4187
S'\xe0\xa4\xad\xe0\xa4\xa4\xe0\xa5\x80\xe0\xa4\x9c\xe0\xa4\xbe,n,m,sg,3,o,0_\xe0\xa4\xb8\xe0\xa4\xb9\xe0\xa4\xbf\xe0\xa4\xa4,0'
p4188
sS'chunkid'
p4189
S'NP4'
p4190
sS'drel'
p4191
S'ras-k1:VGF2'
p4192
sS'vpos'
p4193
S'vib_2'
p4194
sS'chunktype'
p4195
S'head:NP4'
p4196
ssbsg38
I00
sg39
I00
sg40
Nsg41
Nsg42
I5
sg43
I10
sg44
Nsg45
Nsg46
S'NN'
p4197
sg48
g4180
sg49
I00
sba(issf_api
Word
p4198
(dp4199
g6
I00
sg7
V\u0938\u0939\u093f\u0924
p4200
sg9
(issf_api
FeatureSet
p4201
(dp4202
g12
(dp4203
S'posn'
p4204
S'110'
p4205
sS'name'
p4206
S'\xe0\xa4\xb8\xe0\xa4\xb9\xe0\xa4\xbf\xe0\xa4\xa4'
p4207
sS'drel'
p4208
S'lwg__psp:NP4'
p4209
sS'chunktype'
p4210
S'child:NP4'
p4211
sS'af'
p4212
S'\xe0\xa4\xb8\xe0\xa4\xb9\xe0\xa4\xbf\xe0\xa4\xa4,psp,,,,,,'
p4213
ssbsg38
I00
sg39
I00
sg40
Nsg41
Nsg42
I5
sg43
I10
sg44
Nsg45
Nsg46
S'PSP'
p4214
sg48
g4201
sg49
I00
sba(issf_api
Word
p4215
(dp4216
g6
I00
sg7
V\u0924\u0940\u0928
p4217
sg9
(issf_api
FeatureSet
p4218
(dp4219
g12
(dp4220
S'posn'
p4221
S'120'
p4222
sS'name'
p4223
S'\xe0\xa4\xa4\xe0\xa5\x80\xe0\xa4\xa8'
p4224
sS'drel'
p4225
S'nmod__adj:NP5'
p4226
sS'chunktype'
p4227
S'child:NP5'
p4228
sS'af'
p4229
S'\xe0\xa4\xa4\xe0\xa5\x80\xe0\xa4\xa8,num,any,any,,any,,'
p4230
ssbsg38
I00
sg39
I00
sg40
Nsg41
Nsg42
I6
sg43
I10
sg44
Nsg45
Nsg46
S'QC'
p4231
sg48
g4218
sg49
I00
sba(issf_api
Word
p4232
(dp4233
g6
I00
sg7
V\u0932\u094b\u0917
p4234
sg9
(issf_api
FeatureSet
p4235
(dp4236
g12
(dp4237
S'posn'
p4238
S'130'
p4239
sS'name'
p4240
S'\xe0\xa4\xb2\xe0\xa5\x8b\xe0\xa4\x97'
p4241
sS'af'
p4242
S'\xe0\xa4\xb2\xe0\xa5\x8b\xe0\xa4\x97,n,m,pl,3,d,0,0'
p4243
sS'chunkid'
p4244
S'NP5'
p4245
sS'drel'
p4246
S'k1:VGF2'
p4247
sS'chunktype'
p4248
S'head:NP5'
p4249
ssbsg38
I00
sg39
I00
sg40
Nsg41
Nsg42
I6
sg43
I10
sg44
Nsg45
Nsg46
S'NN'
p4250
sg48
g4235
sg49
I00
sba(issf_api
Word
p4251
(dp4252
g6
I00
sg7
V\u092e\u093e\u0930\u0947
p4253
sg9
(issf_api
FeatureSet
p4254
(dp4255
g12
(dp4256
S'posn'
p4257
S'140'
p4258
sS'name'
p4259
S'\xe0\xa4\xae\xe0\xa4\xbe\xe0\xa4\xb0\xe0\xa5\x87'
p4260
sS'af'
p4261
S'\xe0\xa4\xae\xe0\xa4\xbe\xe0\xa4\xb0,v,m,pl,3,,\xe0\xa4\xaf\xe0\xa4\xbe_\xe0\xa4\x9c\xe0\xa4\xbe+\xe0\xa4\xaf\xe0\xa4\xbe\xe0\xa5\xa7_\xe0\xa4\xa5\xe0\xa4\xbe,yA'
p4262
sS'chunkid'
p4263
S'VGF2'
p4264
sS'stype'
p4265
S'declarative'
p4266
sS'drel'
p4267
S'ccof:CCP'
p4268
sS'voicetype'
p4269
S'active'
p4270
sS'vpos'
p4271
S'tam_2_3'
p4272
sS'chunktype'
p4273
S'head:VGF2'
p4274
ssbsg38
I00
sg39
I00
sg40
Nsg41
Nsg42
I7
sg43
I10
sg44
Nsg45
Nsg46
S'VM'
p4275
sg48
g4254
sg49
I00
sba(issf_api
Word
p4276
(dp4277
g6
I00
sg7
V\u0917\u090f
p4278
sg9
(issf_api
FeatureSet
p4279
(dp4280
g12
(dp4281
S'posn'
p4282
S'150'
p4283
sS'name'
p4284
S'\xe0\xa4\x97\xe0\xa4\x8f2'
p4285
sS'drel'
p4286
S'lwg__vaux:VGF2'
p4287
sS'chunktype'
p4288
S'child:VGF2'
p4289
sS'af'
p4290
S'\xe0\xa4\x9c\xe0\xa4\xbe,v,m,pl,3,,\xe0\xa4\xaf\xe0\xa4\xbe\xe0\xa5\xa7,yA1'
p4291
ssbsg38
I00
sg39
I00
sg40
Nsg41
Nsg42
I7
sg43
I10
sg44
Nsg45
Nsg46
S'VAUX'
p4292
sg48
g4279
sg49
I00
sba(issf_api
Word
p4293
(dp4294
g6
I00
sg7
V\u0925\u0947
p4295
sg9
(issf_api
FeatureSet
p4296
(dp4297
g12
(dp4298
S'posn'
p4299
S'160'
p4300
sS'name'
p4301
S'\xe0\xa4\xa5\xe0\xa5\x87'
p4302
sS'drel'
p4303
S'lwg__vaux:VGF2'
p4304
sS'chunktype'
p4305
S'child:VGF2'
p4306
sS'af'
p4307
S'\xe0\xa4\xa5\xe0\xa4\xbe,v,m,pl,3,,\xe0\xa4\xa5\xe0\xa4\xbe,WA'
p4308
ssbsg38
I00
sg39
I00
sg40
Nsg41
Nsg42
I7
sg43
I10
sg44
Nsg45
Nsg46
S'VAUX'
p4309
sg48
g4296
sg49
I00
sba(issf_api
Word
p4310
(dp4311
g6
I00
sg7
V\u0964
p4312
sg9
(issf_api
FeatureSet
p4313
(dp4314
g12
(dp4315
S'posn'
p4316
S'170'
p4317
sS'name'
p4318
S'\xe0\xa5\xa4'
p4319
sS'af'
p4320
S'\xe0\xa5\xa4,punc,,,,,,'
p4321
sS'chunkid'
p4322
S'BLK'
p4323
sS'drel'
p4324
S'rsym:CCP'
p4325
sS'chunktype'
p4326
S'head:BLK'
p4327
ssbsg38
I00
sg39
I00
sg40
Nsg41
Nsg42
I8
sg43
I10
sg44
Nsg45
Nsg46
S'SYM'
p4328
sg48
g4313
sg49
I00
sba(issf_api
Word
p4329
(dp4330
g6
I00
sg7
V\u091c\u0930\u0915\u093e\u0935\u0940
p4331
sg9
(issf_api
FeatureSet
p4332
(dp4333
g12
(dp4334
S'crefhead'
p4335
S'\xe0\xa4\x9c\xe0\xa4\xb0\xe0\xa4\x95\xe0\xa4\xbe\xe0\xa4\xb5\xe0\xa5\x80:i40'
p4336
sS'posn'
p4337
S'10'
p4338
sS'name'
p4339
S'\xe0\xa4\x9c\xe0\xa4\xb0\xe0\xa4\x95\xe0\xa4\xbe\xe0\xa4\xb5\xe0\xa5\x80'
p4340
sS'af'
p4341
S'\xe0\xa4\x9c\xe0\xa4\xb0\xe0\xa4\x95\xe0\xa4\xbe\xe0\xa4\xb5\xe0\xa5\x80,n,m,sg,3,o,0_\xe0\xa4\x95\xe0\xa4\xbe,0'
p4342
sS'chunkid'
p4343
S'NP'
p4344
sS'creftype'
p4345
S'Coreference-Identity:i32'
p4346
sS'chunktype'
p4347
S'head:NP'
p4348
sS'vpos'
p4349
S'vib_2'
p4350
sS'cref'
p4351
S'i40%1:t7'
p4352
sS'drel'
p4353
S'r6:NP2'
p4354
ssbsg38
I00
sg39
I00
sg40
Nsg41
Nsg42
I0
sg43
I11
sg44
Nsg45
Nsg46
S'NNP'
p4355
sg48
g4332
sg49
I00
sba(issf_api
Word
p4356
(dp4357
g6
I00
sg7
V\u0915\u0947
p4358
sg9
(issf_api
FeatureSet
p4359
(dp4360
g12
(dp4361
S'posn'
p4362
S'20'
p4363
sS'name'
p4364
S'\xe0\xa4\x95\xe0\xa5\x87'
p4365
sS'drel'
p4366
S'lwg__psp:NP'
p4367
sS'chunktype'
p4368
S'child:NP'
p4369
sS'af'
p4370
S'\xe0\xa4\x95\xe0\xa4\xbe,psp,m,sg,,o,,'
p4371
ssbsg38
I00
sg39
I00
sg40
Nsg41
Nsg42
I0
sg43
I11
sg44
Nsg45
Nsg46
S'PSP'
p4372
sg48
g4359
sg49
I00
sba(issf_api
Word
p4373
(dp4374
g6
I00
sg7
V\u0938\u093f\u0930
p4375
sg9
(issf_api
FeatureSet
p4376
(dp4377
g12
(dp4378
S'posn'
p4379
S'30'
p4380
sS'name'
p4381
S'\xe0\xa4\xb8\xe0\xa4\xbf\xe0\xa4\xb0'
p4382
sS'af'
p4383
S'\xe0\xa4\xb8\xe0\xa4\xbf\xe0\xa4\xb0,n,m,sg,3,o,0_\xe0\xa4\xaa\xe0\xa4\xb0,0'
p4384
sS'chunkid'
p4385
S'NP2'
p4386
sS'drel'
p4387
S'k7:VGF'
p4388
sS'vpos'
p4389
S'vib_2'
p4390
sS'chunktype'
p4391
S'head:NP2'
p4392
ssbsg38
I00
sg39
I00
sg40
Nsg41
Nsg42
I1
sg43
I11
sg44
Nsg45
Nsg46
S'NN'
p4393
sg48
g4376
sg49
I00
sba(issf_api
Word
p4394
(dp4395
g6
I00
sg7
V\u092a\u0930
p4396
sg9
(issf_api
FeatureSet
p4397
(dp4398
g12
(dp4399
S'posn'
p4400
S'40'
p4401
sS'name'
p4402
S'\xe0\xa4\xaa\xe0\xa4\xb0'
p4403
sS'drel'
p4404
S'lwg__psp:NP2'
p4405
sS'chunktype'
p4406
S'child:NP2'
p4407
sS'af'
p4408
S'\xe0\xa4\xaa\xe0\xa4\xb0,psp,,,,,,'
p4409
ssbsg38
I00
sg39
I00
sg40
Nsg41
Nsg42
I1
sg43
I11
sg44
Nsg45
Nsg46
S'PSP'
p4410
sg48
g4397
sg49
I00
sba(issf_api
Word
p4411
(dp4412
g6
I00
sg7
V\u0922\u093e\u0908
p4413
sg9
(issf_api
FeatureSet
p4414
(dp4415
g12
(dp4416
S'posn'
p4417
S'50'
p4418
sS'name'
p4419
S'\xe0\xa4\xa2\xe0\xa4\xbe\xe0\xa4\x88'
p4420
sS'drel'
p4421
S'mod:NP3'
p4422
sS'chunktype'
p4423
S'child:NP3'
p4424
sS'af'
p4425
S'\xe0\xa4\xa2\xe0\xa4\xbe\xe0\xa4\x88,num,any,any,,any,,'
p4426
ssbsg38
I00
sg39
I00
sg40
Nsg41
Nsg42
I2
sg43
I11
sg44
Nsg45
Nsg46
S'QCC'
p4427
sg48
g4414
sg49
I00
sba(issf_api
Word
p4428
(dp4429
g6
I00
sg7
V\u0915\u0930\u094b\u0921\u093c
p4430
sg9
(issf_api
FeatureSet
p4431
(dp4432
g12
(dp4433
S'posn'
p4434
S'60'
p4435
sS'name'
p4436
S'\xe0\xa4\x95\xe0\xa4\xb0\xe0\xa5\x8b\xe0\xa4\xa1\xe0\xa4\xbc'
p4437
sS'drel'
p4438
S'nmod__adj:NP3'
p4439
sS'chunktype'
p4440
S'child:NP3'
p4441
sS'af'
p4442
S'\xe0\xa4\x95\xe0\xa4\xb0\xe0\xa5\x8b\xe0\xa4\xa1,num,any,any,,any,,'
p4443
ssbsg38
I00
sg39
I00
sg40
Nsg41
Nsg42
I2
sg43
I11
sg44
Nsg45
Nsg46
S'QC'
p4444
sg48
g4431
sg49
I00
sba(issf_api
Word
p4445
(dp4446
g6
I00
sg7
V\u0921\u0949\u0932\u0930
p4447
sg9
(issf_api
FeatureSet
p4448
(dp4449
g12
(dp4450
S'posn'
p4451
S'70'
p4452
sS'name'
p4453
S'\xe0\xa4\xa1\xe0\xa5\x89\xe0\xa4\xb2\xe0\xa4\xb0'
p4454
sS'af'
p4455
S'\xe0\xa4\xa1\xe0\xa5\x89\xe0\xa4\xb2\xe0\xa4\xb0,n,m,sg,3,o,0_\xe0\xa4\x95\xe0\xa4\xbe,0'
p4456
sS'chunkid'
p4457
S'NP3'
p4458
sS'drel'
p4459
S'r6:NP4'
p4460
sS'vpos'
p4461
S'vib_4'
p4462
sS'chunktype'
p4463
S'head:NP3'
p4464
ssbsg38
I00
sg39
I00
sg40
Nsg41
Nsg42
I2
sg43
I11
sg44
Nsg45
Nsg46
S'NN'
p4465
sg48
g4448
sg49
I00
sba(issf_api
Word
p4466
(dp4467
g6
I00
sg7
V\u0915\u093e
p4468
sg9
(issf_api
FeatureSet
p4469
(dp4470
g12
(dp4471
S'posn'
p4472
S'80'
p4473
sS'name'
p4474
S'\xe0\xa4\x95\xe0\xa4\xbe'
p4475
sS'drel'
p4476
S'lwg__psp:NP3'
p4477
sS'chunktype'
p4478
S'child:NP3'
p4479
sS'af'
p4480
S'\xe0\xa4\x95\xe0\xa4\xbe,psp,m,sg,,d,,'
p4481
ssbsg38
I00
sg39
I00
sg40
Nsg41
Nsg42
I2
sg43
I11
sg44
Nsg45
Nsg46
S'PSP'
p4482
sg48
g4469
sg49
I00
sba(issf_api
Word
p4483
(dp4484
g6
I00
sg7
V\u0907\u0928\u093e\u092e
p4485
sg9
(issf_api
FeatureSet
p4486
(dp4487
g12
(dp4488
S'posn'
p4489
S'90'
p4490
sS'name'
p4491
S'\xe0\xa4\x87\xe0\xa4\xa8\xe0\xa4\xbe\xe0\xa4\xae'
p4492
sS'af'
p4493
S'\xe0\xa4\x87\xe0\xa4\xa8\xe0\xa4\xbe\xe0\xa4\xae,n,m,sg,3,d,0,0'
p4494
sS'chunkid'
p4495
S'NP4'
p4496
sS'drel'
p4497
S'k1:VGF'
p4498
sS'chunktype'
p4499
S'head:NP4'
p4500
ssbsg38
I00
sg39
I00
sg40
Nsg41
Nsg42
I3
sg43
I11
sg44
Nsg45
Nsg46
S'NN'
p4501
sg48
g4486
sg49
I00
sba(issf_api
Word
p4502
(dp4503
g6
I00
sg7
V\u0918\u094b\u0937\u093f\u0924
p4504
sg9
(issf_api
FeatureSet
p4505
(dp4506
g12
(dp4507
S'posn'
p4508
S'100'
p4509
sS'name'
p4510
S'\xe0\xa4\x98\xe0\xa5\x8b\xe0\xa4\xb7\xe0\xa4\xbf\xe0\xa4\xa4'
p4511
sS'af'
p4512
S'\xe0\xa4\x98\xe0\xa5\x8b\xe0\xa4\xb7\xe0\xa4\xbf\xe0\xa4\xa4,adj,any,any,,,,'
p4513
sS'chunkid'
p4514
S'JJP'
p4515
sS'drel'
p4516
S'k1s:VGF'
p4517
sS'chunktype'
p4518
S'head:JJP'
p4519
ssbsg38
I00
sg39
I00
sg40
Nsg41
Nsg42
I4
sg43
I11
sg44
Nsg45
Nsg46
S'JJ'
p4520
sg48
g4505
sg49
I00
sba(issf_api
Word
p4521
(dp4522
g6
I00
sg7
V\u0939\u0948
p4523
sg9
(issf_api
FeatureSet
p4524
(dp4525
g12
(dp4526
S'posn'
p4527
S'110'
p4528
sS'name'
p4529
S'\xe0\xa4\xb9\xe0\xa5\x88'
p4530
sS'af'
p4531
S'\xe0\xa4\xb9\xe0\xa5\x88,v,any,sg,3,,\xe0\xa4\xb9\xe0\xa5\x88,hE'
p4532
sS'chunkid'
p4533
S'VGF'
p4534
sS'chunktype'
p4535
S'head:VGF'
p4536
sS'voicetype'
p4537
S'active'
p4538
sS'stype'
p4539
S'declarative'
p4540
ssbsg38
I00
sg39
I00
sg40
Nsg41
Nsg42
I5
sg43
I11
sg44
Nsg45
Nsg46
S'VM'
p4541
sg48
g4524
sg49
I00
sba(issf_api
Word
p4542
(dp4543
g6
I00
sg7
V\u0964
p4544
sg9
(issf_api
FeatureSet
p4545
(dp4546
g12
(dp4547
S'posn'
p4548
S'120'
p4549
sS'name'
p4550
S'\xe0\xa5\xa4'
p4551
sS'af'
p4552
S'\xe0\xa5\xa4,punc,,,,,,'
p4553
sS'chunkid'
p4554
S'BLK'
p4555
sS'drel'
p4556
S'rsym:VGF'
p4557
sS'chunktype'
p4558
S'head:BLK'
p4559
ssbsg38
I00
sg39
I00
sg40
Nsg41
Nsg42
I6
sg43
I11
sg44
Nsg45
Nsg46
S'SYM'
p4560
sg48
g4545
sg49
I00
sbasS'sentenceList'
p4561
(lp4562
(issf_api
Sentence
p4563
(dp4564
S'rootNode'
p4565
(lp4566
sg43
I0
sS'wordNumList'
p4567
(lp4568
I0
aI1
aI2
aI3
aI4
aI5
aI6
aI7
aI8
aI9
aI10
aI11
aI12
aI13
aI14
aI15
aI16
aI17
aI18
aI19
asS'nodeDict'
p4569
(dp4570
S'VGNF'
p4571
(issf_api
Node
p4572
(dp4573
S'nodeRelation'
p4574
S'nmod__k1inv'
p4575
sS'nodeName'
p4576
g4571
sS'nodeParent'
p4577
S'NP5'
p4578
sS'nodeLevel'
p4579
I-1
sg42
I5
sS'childList'
p4580
(lp4581
S'NP4'
p4582
aS'NP3'
p4583
asbsS'VGF'
p4584
(issf_api
Node
p4585
(dp4586
g4574
S'None'
p4587
sg4576
g4584
sg4577
g4587
sg4579
I-1
sg42
I8
sg4580
(lp4588
S'NP5'
p4589
aS'BLK'
p4590
aS'NP6'
p4591
asbsS'JJP'
p4592
(issf_api
Node
p4593
(dp4594
g4574
S'nmod'
p4595
sg4576
g4592
sg4577
S'NP3'
p4596
sg4579
I-1
sg42
I2
sg4580
(lp4597
S'NP2'
p4598
asbsg4589
(issf_api
Node
p4599
(dp4600
g4574
S'k7'
p4601
sg4576
g4589
sg4577
S'VGF'
p4602
sg4579
I-1
sg42
I6
sg4580
(lp4603
g4571
asbsg4590
(issf_api
Node
p4604
(dp4605
g4574
S'rsym'
p4606
sg4576
g4590
sg4577
S'VGF'
p4607
sg4579
I-1
sg42
I9
sg4580
(lp4608
sbsS'NP'
p4609
(issf_api
Node
p4610
(dp4611
g4574
S'r6'
p4612
sg4576
g4609
sg4577
S'NP2'
p4613
sg4579
I-1
sg42
I0
sg4580
(lp4614
sbsg4582
(issf_api
Node
p4615
(dp4616
g4574
S'k7t'
p4617
sg4576
g4582
sg4577
S'VGNF'
p4618
sg4579
I-1
sg42
I4
sg4580
(lp4619
sbsg4591
(issf_api
Node
p4620
(dp4621
g4574
S'k1'
p4622
sg4576
g4591
sg4577
S'VGF'
p4623
sg4579
I-1
sg42
I7
sg4580
(lp4624
sbsg4583
(issf_api
Node
p4625
(dp4626
g4574
S'k7p'
p4627
sg4576
g4583
sg4577
S'VGNF'
p4628
sg4579
I-1
sg42
I3
sg4580
(lp4629
g4592
asbsg4598
(issf_api
Node
p4630
(dp4631
g4574
S'jjmod'
p4632
sg4576
g4598
sg4577
S'JJP'
p4633
sg4579
I-1
sg42
I1
sg4580
(lp4634
g4609
asbssS'chunkList'
p4635
(lp4636
(issf_api
Chunk
p4637
(dp4638
g4576
g25
sg42
I0
sS'chunkTag'
p4639
g47
sg43
I0
sg4567
(lp4640
I0
aI1
asg48
(issf_api
FeatureSet
p4641
(dp4642
g12
(dp4643
S'name'
p4644
g4609
sS'drel'
p4645
S'r6:NP2'
p4646
ssbsba(issf_api
Chunk
p4647
(dp4648
g4576
g82
sg42
I1
sg4639
g93
sg43
I0
sg4567
(lp4649
I2
asg48
(issf_api
FeatureSet
p4650
(dp4651
g12
(dp4652
S'name'
p4653
g4598
sS'drel'
p4654
S'jjmod:JJP'
p4655
ssbsba(issf_api
Chunk
p4656
(dp4657
g4576
g107
sg42
I2
sg4639
g112
sg43
I0
sg4567
(lp4658
I3
asg48
(issf_api
FeatureSet
p4659
(dp4660
g12
(dp4661
S'name'
p4662
g4592
sS'drel'
p4663
S'nmod:NP3'
p4664
ssbsba(issf_api
Chunk
p4665
(dp4666
g4576
g160
sg42
I3
sg4639
g167
sg43
I0
sg4567
(lp4667
I4
aI5
aI6
aI7
asg48
(issf_api
FeatureSet
p4668
(dp4669
g12
(dp4670
S'name'
p4671
g4583
sS'drel'
p4672
S'k7p:VGNF'
p4673
ssbsba(issf_api
Chunk
p4674
(dp4675
g4576
g219
sg42
I4
sg4639
g228
sg43
I0
sg4567
(lp4676
I8
aI9
asg48
(issf_api
FeatureSet
p4677
(dp4678
g12
(dp4679
S'name'
p4680
g4582
sS'drel'
p4681
S'k7t:VGNF'
p4682
ssbsba(issf_api
Chunk
p4683
(dp4684
g4576
g242
sg42
I5
sg4639
g247
sg43
I0
sg4567
(lp4685
I10
asg48
(issf_api
FeatureSet
p4686
(dp4687
g12
(dp4688
S'name'
p4689
g4571
sS'drel'
p4690
S'nmod__k1inv:NP5'
p4691
ssbsba(issf_api
Chunk
p4692
(dp4693
g4576
g301
sg42
I6
sg4639
g312
sg43
I0
sg4567
(lp4694
I11
aI12
aI13
aI14
asg48
(issf_api
FeatureSet
p4695
(dp4696
g12
(dp4697
S'name'
p4698
g4589
sS'drel'
p4699
S'k7:VGF'
p4700
ssbsba(issf_api
Chunk
p4701
(dp4702
g4576
g364
sg42
I7
sg4639
g373
sg43
I0
sg4567
(lp4703
I15
aI16
asg48
(issf_api
FeatureSet
p4704
(dp4705
g12
(dp4706
S'name'
p4707
g4591
sS'drel'
p4708
S'k1:VGF'
p4709
ssbsba(issf_api
Chunk
p4710
(dp4711
g4576
g387
sg42
I8
sg4639
g396
sg43
I0
sg4567
(lp4712
I17
aI18
asg48
(issf_api
FeatureSet
p4713
(dp4714
g12
(dp4715
S'name'
p4716
g4584
ssbsba(issf_api
Chunk
p4717
(dp4718
g4576
g427
sg42
I9
sg4639
g432
sg43
I0
sg4567
(lp4719
I19
asg48
(issf_api
FeatureSet
p4720
(dp4721
g12
(dp4722
S'name'
p4723
g4590
sS'drel'
p4724
S'rsym:VGF'
p4725
ssbsbasba(issf_api
Sentence
p4726
(dp4727
g4565
(lp4728
sg43
I1
sg4567
(lp4729
I20
aI21
aI22
aI23
aI24
aI25
aI26
aI27
aI28
aI29
aI30
aI31
aI32
aI33
aI34
aI35
aI36
aI37
aI38
aI39
asg4569
(dp4730
S'VGF'
p4731
(issf_api
Node
p4732
(dp4733
g4574
g4587
sg4576
g4731
sg4577
g4587
sg4579
I-1
sg42
I5
sg4580
(lp4734
S'NP5'
p4735
aS'BLK'
p4736
aS'NP'
p4737
aS'NP2'
p4738
asbsg4735
(issf_api
Node
p4739
(dp4740
g4574
S'k7'
p4741
sg4576
g4735
sg4577
S'VGF'
p4742
sg4579
I-1
sg42
I4
sg4580
(lp4743
S'NP4'
p4744
asbsg4736
(issf_api
Node
p4745
(dp4746
g4574
S'rsym'
p4747
sg4576
g4736
sg4577
S'VGF'
p4748
sg4579
I-1
sg42
I6
sg4580
(lp4749
sbsg4737
(issf_api
Node
p4750
(dp4751
g4574
S'k1'
p4752
sg4576
g4737
sg4577
S'VGF'
p4753
sg4579
I-1
sg42
I0
sg4580
(lp4754
sbsg4744
(issf_api
Node
p4755
(dp4756
g4574
S'r6'
p4757
sg4576
g4744
sg4577
S'NP5'
p4758
sg4579
I-1
sg42
I3
sg4580
(lp4759
S'NP3'
p4760
asbsg4760
(issf_api
Node
p4761
(dp4762
g4574
S'r6'
p4763
sg4576
g4760
sg4577
S'NP4'
p4764
sg4579
I-1
sg42
I2
sg4580
(lp4765
sbsg4738
(issf_api
Node
p4766
(dp4767
g4574
S'k2'
p4768
sg4576
g4738
sg4577
S'VGF'
p4769
sg4579
I-1
sg42
I1
sg4580
(lp4770
sbssg4635
(lp4771
(issf_api
Chunk
p4772
(dp4773
g4576
g505
sg42
I0
sg4639
g516
sg43
I1
sg4567
(lp4774
I20
aI21
aI22
aI23
aI24
asg48
(issf_api
FeatureSet
p4775
(dp4776
g12
(dp4777
S'name'
p4778
g4737
sS'drel'
p4779
S'k1:VGF'
p4780
ssbsba(issf_api
Chunk
p4781
(dp4782
g4576
g568
sg42
I1
sg4639
g577
sg43
I1
sg4567
(lp4783
I25
aI26
asg48
(issf_api
FeatureSet
p4784
(dp4785
g12
(dp4786
S'name'
p4787
g4738
sS'drel'
p4788
S'k2:VGF'
p4789
ssbsba(issf_api
Chunk
p4790
(dp4791
g4576
g688
sg42
I2
sg4639
g699
sg43
I1
sg4567
(lp4792
I27
aI28
aI29
aI30
aI31
aI32
aI33
asg48
(issf_api
FeatureSet
p4793
(dp4794
g12
(dp4795
S'name'
p4796
g4760
sS'drel'
p4797
S'r6:NP4'
p4798
ssbsba(issf_api
Chunk
p4799
(dp4800
g4576
g730
sg42
I3
sg4639
g737
sg43
I1
sg4567
(lp4801
I34
aI35
asg48
(issf_api
FeatureSet
p4802
(dp4803
g12
(dp4804
S'name'
p4805
g4744
sS'drel'
p4806
S'r6:NP5'
p4807
ssbsba(issf_api
Chunk
p4808
(dp4809
g4576
g768
sg42
I4
sg4639
g775
sg43
I1
sg4567
(lp4810
I36
aI37
asg48
(issf_api
FeatureSet
p4811
(dp4812
g12
(dp4813
S'name'
p4814
g4735
sS'drel'
p4815
S'k7:VGF'
p4816
ssbsba(issf_api
Chunk
p4817
(dp4818
g4576
g806
sg42
I5
sg4639
g813
sg43
I1
sg4567
(lp4819
I38
asg48
(issf_api
FeatureSet
p4820
(dp4821
g12
(dp4822
S'name'
p4823
g4731
ssbsba(issf_api
Chunk
p4824
(dp4825
g4576
g827
sg42
I6
sg4639
g832
sg43
I1
sg4567
(lp4826
I39
asg48
(issf_api
FeatureSet
p4827
(dp4828
g12
(dp4829
S'name'
p4830
g4736
sS'drel'
p4831
S'rsym:VGF'
p4832
ssbsbasba(issf_api
Sentence
p4833
(dp4834
g4565
(lp4835
sg43
I2
sg4567
(lp4836
I40
aI41
aI42
aI43
aI44
aI45
aI46
aI47
aI48
aI49
aI50
aI51
aI52
aI53
aI54
aI55
aI56
aI57
aI58
aI59
aI60
aI61
aI62
asg4569
(dp4837
S'VGF2'
p4838
(issf_api
Node
p4839
(dp4840
g4574
S'ccof'
p4841
sg4576
g4838
sg4577
S'CCP2'
p4842
sg4579
I-1
sg42
I8
sg4580
(lp4843
S'NP5'
p4844
aS'NP4'
p4845
asbsS'VGF'
p4846
(issf_api
Node
p4847
(dp4848
g4574
g4587
sg4576
g4846
sg4577
g4587
sg4579
I-1
sg42
I4
sg4580
(lp4849
S'CCP'
p4850
aS'BLK'
p4851
aS'NP3'
p4852
asbsS'VGF3'
p4853
(issf_api
Node
p4854
(dp4855
g4574
S'ccof'
p4856
sg4576
g4853
sg4577
S'CCP2'
p4857
sg4579
I-1
sg42
I12
sg4580
(lp4858
S'JJP2'
p4859
aS'NP6'
p4860
asbsg4850
(issf_api
Node
p4861
(dp4862
g4574
S'k2'
p4863
sg4576
g4850
sg4577
S'VGF'
p4864
sg4579
I-1
sg42
I5
sg4580
(lp4865
S'CCP2'
p4866
asbsS'JJP'
p4867
(issf_api
Node
p4868
(dp4869
g4574
S'nmod'
p4870
sg4576
g4867
sg4577
S'NP2'
p4871
sg4579
I-1
sg42
I1
sg4580
(lp4872
S'NP'
p4873
asbsg4844
(issf_api
Node
p4874
(dp4875
g4574
S'k1'
p4876
sg4576
g4844
sg4577
S'VGF2'
p4877
sg4579
I-1
sg42
I7
sg4580
(lp4878
sbsg4859
(issf_api
Node
p4879
(dp4880
g4574
S'pof'
p4881
sg4576
g4859
sg4577
S'VGF3'
p4882
sg4579
I-1
sg42
I11
sg4580
(lp4883
sbsg4851
(issf_api
Node
p4884
(dp4885
g4574
S'rsym'
p4886
sg4576
g4851
sg4577
S'VGF'
p4887
sg4579
I-1
sg42
I13
sg4580
(lp4888
sbsg4873
(issf_api
Node
p4889
(dp4890
g4574
S'jjmod'
p4891
sg4576
g4873
sg4577
S'JJP'
p4892
sg4579
I-1
sg42
I0
sg4580
(lp4893
sbsg4845
(issf_api
Node
p4894
(dp4895
g4574
S'k7'
p4896
sg4576
g4845
sg4577
S'VGF2'
p4897
sg4579
I-1
sg42
I6
sg4580
(lp4898
sbsg4860
(issf_api
Node
p4899
(dp4900
g4574
S'k1'
p4901
sg4576
g4860
sg4577
S'VGF3'
p4902
sg4579
I-1
sg42
I10
sg4580
(lp4903
sbsg4866
(issf_api
Node
p4904
(dp4905
g4574
S'ccof'
p4906
sg4576
g4866
sg4577
S'CCP'
p4907
sg4579
I-1
sg42
I9
sg4580
(lp4908
g4838
ag4853
asbsg4852
(issf_api
Node
p4909
(dp4910
g4574
S'k1'
p4911
sg4576
g4852
sg4577
S'VGF'
p4912
sg4579
I-1
sg42
I3
sg4580
(lp4913
S'NP2'
p4914
asbsg4914
(issf_api
Node
p4915
(dp4916
g4574
S'r6'
p4917
sg4576
g4914
sg4577
S'NP3'
p4918
sg4579
I-1
sg42
I2
sg4580
(lp4919
g4867
asbssg4635
(lp4920
(issf_api
Chunk
p4921
(dp4922
g4576
g848
sg42
I0
sg4639
g857
sg43
I2
sg4567
(lp4923
I40
asg48
(issf_api
FeatureSet
p4924
(dp4925
g12
(dp4926
S'name'
p4927
g4873
sS'drel'
p4928
S'jjmod:JJP'
p4929
ssbsba(issf_api
Chunk
p4930
(dp4931
g4576
g871
sg42
I1
sg4639
g876
sg43
I2
sg4567
(lp4932
I41
asg48
(issf_api
FeatureSet
p4933
(dp4934
g12
(dp4935
S'name'
p4936
g4867
sS'drel'
p4937
S'nmod:NP2'
p4938
ssbsba(issf_api
Chunk
p4939
(dp4940
g4576
g924
sg42
I2
sg4639
g931
sg43
I2
sg4567
(lp4941
I42
aI43
aI44
aI45
asg48
(issf_api
FeatureSet
p4942
(dp4943
g12
(dp4944
S'name'
p4945
g4914
sS'drel'
p4946
S'r6:NP3'
p4947
ssbsba(issf_api
Chunk
p4948
(dp4949
g4576
g962
sg42
I3
sg4639
g969
sg43
I2
sg4567
(lp4950
I46
aI47
asg48
(issf_api
FeatureSet
p4951
(dp4952
g12
(dp4953
S'name'
p4954
g4852
sS'drel'
p4955
S'k1:VGF'
p4956
ssbsba(issf_api
Chunk
p4957
(dp4958
g4576
g1000
sg42
I4
sg4639
g1007
sg43
I2
sg4567
(lp4959
I48
asg48
(issf_api
FeatureSet
p4960
(dp4961
g12
(dp4962
S'name'
p4963
g4846
ssbsba(issf_api
Chunk
p4964
(dp4965
g4576
g1021
sg42
I5
sg4639
g1026
sg43
I2
sg4567
(lp4966
I49
asg48
(issf_api
FeatureSet
p4967
(dp4968
g12
(dp4969
S'name'
p4970
g4850
sS'drel'
p4971
S'k2:VGF'
p4972
ssbsba(issf_api
Chunk
p4973
(dp4974
g4576
g1061
sg42
I6
sg4639
g1072
sg43
I2
sg4567
(lp4975
I50
aI51
aI52
asg48
(issf_api
FeatureSet
p4976
(dp4977
g12
(dp4978
S'name'
p4979
g4845
sS'drel'
p4980
S'k7:VGF2'
p4981
ssbsba(issf_api
Chunk
p4982
(dp4983
g4576
g1124
sg42
I7
sg4639
g1133
sg43
I2
sg4567
(lp4984
I53
aI54
asg48
(issf_api
FeatureSet
p4985
(dp4986
g12
(dp4987
S'name'
p4988
g4844
sS'drel'
p4989
S'k1:VGF2'
p4990
ssbsba(issf_api
Chunk
p4991
(dp4992
g4576
g1147
sg42
I8
sg4639
g1158
sg43
I2
sg4567
(lp4993
I55
aI56
asg48
(issf_api
FeatureSet
p4994
(dp4995
g12
(dp4996
S'name'
p4997
g4838
sS'drel'
p4998
S'ccof:CCP2'
p4999
ssbsba(issf_api
Chunk
p5000
(dp5001
g4576
g1189
sg42
I9
sg4639
g1194
sg43
I2
sg4567
(lp5002
I57
asg48
(issf_api
FeatureSet
p5003
(dp5004
g12
(dp5005
S'name'
p5006
g4866
sS'drel'
p5007
S'ccof:CCP'
p5008
ssbsba(issf_api
Chunk
p5009
(dp5010
g4576
g1208
sg42
I10
sg4639
g1213
sg43
I2
sg4567
(lp5011
I58
asg48
(issf_api
FeatureSet
p5012
(dp5013
g12
(dp5014
S'name'
p5015
g4860
sS'drel'
p5016
S'k1:VGF3'
p5017
ssbsba(issf_api
Chunk
p5018
(dp5019
g4576
g1227
sg42
I11
sg4639
g1232
sg43
I2
sg4567
(lp5020
I59
asg48
(issf_api
FeatureSet
p5021
(dp5022
g12
(dp5023
S'name'
p5024
g4859
sS'drel'
p5025
S'pof:VGF3'
p5026
ssbsba(issf_api
Chunk
p5027
(dp5028
g4576
g1246
sg42
I12
sg4639
g1257
sg43
I2
sg4567
(lp5029
I60
aI61
asg48
(issf_api
FeatureSet
p5030
(dp5031
g12
(dp5032
S'name'
p5033
g4853
sS'drel'
p5034
S'ccof:CCP2'
p5035
ssbsba(issf_api
Chunk
p5036
(dp5037
g4576
g1288
sg42
I13
sg4639
g1293
sg43
I2
sg4567
(lp5038
I62
asg48
(issf_api
FeatureSet
p5039
(dp5040
g12
(dp5041
S'name'
p5042
g4851
sS'drel'
p5043
S'rsym:VGF'
p5044
ssbsbasba(issf_api
Sentence
p5045
(dp5046
g4565
(lp5047
sg43
I3
sg4567
(lp5048
I63
aI64
aI65
aI66
aI67
aI68
aI69
aI70
asg4569
(dp5049
S'NP'
p5050
(issf_api
Node
p5051
(dp5052
g4574
S'k7'
p5053
sg4576
g5050
sg4577
S'VGF'
p5054
sg4579
I-1
sg42
I0
sg4580
(lp5055
sbsS'VGF'
p5056
(issf_api
Node
p5057
(dp5058
g4574
g4587
sg4576
g5056
sg4577
g4587
sg4579
I-1
sg42
I3
sg4580
(lp5059
g5050
aS'JJP'
p5060
aS'BLK'
p5061
aS'NP2'
p5062
asbsg5060
(issf_api
Node
p5063
(dp5064
g4574
S'k1s'
p5065
sg4576
g5060
sg4577
S'VGF'
p5066
sg4579
I-1
sg42
I2
sg4580
(lp5067
sbsg5061
(issf_api
Node
p5068
(dp5069
g4574
S'rsym'
p5070
sg4576
g5061
sg4577
S'VGF'
p5071
sg4579
I-1
sg42
I4
sg4580
(lp5072
sbsg5062
(issf_api
Node
p5073
(dp5074
g4574
S'k1'
p5075
sg4576
g5062
sg4577
S'VGF'
p5076
sg4579
I-1
sg42
I1
sg4580
(lp5077
sbssg4635
(lp5078
(issf_api
Chunk
p5079
(dp5080
g4576
g1309
sg42
I0
sg4639
g1320
sg43
I3
sg4567
(lp5081
I63
aI64
asg48
(issf_api
FeatureSet
p5082
(dp5083
g12
(dp5084
S'name'
p5085
g5050
sS'drel'
p5086
S'k7:VGF'
p5087
ssbsba(issf_api
Chunk
p5088
(dp5089
g4576
g1368
sg42
I1
sg4639
g1373
sg43
I3
sg4567
(lp5090
I65
aI66
aI67
asg48
(issf_api
FeatureSet
p5091
(dp5092
g12
(dp5093
S'name'
p5094
g5062
sS'drel'
p5095
S'k1:VGF'
p5096
ssbsba(issf_api
Chunk
p5097
(dp5098
g4576
g1404
sg42
I2
sg4639
g1409
sg43
I3
sg4567
(lp5099
I68
asg48
(issf_api
FeatureSet
p5100
(dp5101
g12
(dp5102
S'name'
p5103
g5060
sS'drel'
p5104
S'k1s:VGF'
p5105
ssbsba(issf_api
Chunk
p5106
(dp5107
g4576
g1423
sg42
I3
sg4639
g1430
sg43
I3
sg4567
(lp5108
I69
asg48
(issf_api
FeatureSet
p5109
(dp5110
g12
(dp5111
S'name'
p5112
g5056
ssbsba(issf_api
Chunk
p5113
(dp5114
g4576
g1444
sg42
I4
sg4639
g1449
sg43
I3
sg4567
(lp5115
I70
asg48
(issf_api
FeatureSet
p5116
(dp5117
g12
(dp5118
S'name'
p5119
g5061
sS'drel'
p5120
S'rsym:VGF'
p5121
ssbsbasba(issf_api
Sentence
p5122
(dp5123
g4565
(lp5124
sg43
I4
sg4567
(lp5125
I71
aI72
aI73
aI74
aI75
aI76
aI77
aI78
aI79
aI80
aI81
aI82
aI83
aI84
aI85
aI86
aI87
aI88
aI89
aI90
aI91
aI92
aI93
aI94
aI95
aI96
aI97
aI98
aI99
aI100
aI101
aI102
aI103
aI104
aI105
asg4569
(dp5126
S'NP11'
p5127
(issf_api
Node
p5128
(dp5129
g4574
S'k7t'
p5130
sg4576
g5127
sg4577
S'VGF3'
p5131
sg4579
I-1
sg42
I14
sg4580
(lp5132
sbsS'NP10'
p5133
(issf_api
Node
p5134
(dp5135
g4574
S'k2'
p5136
sg4576
g5133
sg4577
S'VGF2'
p5137
sg4579
I-1
sg42
I11
sg4580
(lp5138
S'NP9'
p5139
asbsS'VGF'
p5140
(issf_api
Node
p5141
(dp5142
g4574
g4587
sg4576
g5140
sg4577
g4587
sg4579
I-1
sg42
I1
sg4580
(lp5143
S'CCP'
p5144
aS'BLK'
p5145
aS'NP'
p5146
asbsS'NP12'
p5147
(issf_api
Node
p5148
(dp5149
g4574
S'pof'
p5150
sg4576
g5147
sg4577
S'VGF3'
p5151
sg4579
I-1
sg42
I15
sg4580
(lp5152
sbsS'VGF3'
p5153
(issf_api
Node
p5154
(dp5155
g4574
S'ccof'
p5156
sg4576
g5153
sg4577
S'CCP2'
p5157
sg4579
I-1
sg42
I16
sg4580
(lp5158
g5127
ag5147
asbsg5144
(issf_api
Node
p5159
(dp5160
g4574
S'k2'
p5161
sg4576
g5144
sg4577
S'VGF'
p5162
sg4579
I-1
sg42
I2
sg4580
(lp5163
S'CCP2'
p5164
asbsS'VGF2'
p5165
(issf_api
Node
p5166
(dp5167
g4574
S'ccof'
p5168
sg4576
g5165
sg4577
S'CCP2'
p5169
sg4579
I-1
sg42
I12
sg4580
(lp5170
g5133
aS'NP8'
p5171
aS'NP4'
p5172
aS'NP7'
p5173
asbsS'NP5'
p5174
(issf_api
Node
p5175
(dp5176
g4574
S'r6'
p5177
sg4576
g5174
sg4577
S'NP6'
p5178
sg4579
I-1
sg42
I6
sg4580
(lp5179
sbsg5139
(issf_api
Node
p5180
(dp5181
g4574
S'r6'
p5182
sg4576
g5139
sg4577
S'NP10'
p5183
sg4579
I-1
sg42
I10
sg4580
(lp5184
sbsg5171
(issf_api
Node
p5185
(dp5186
g4574
S'vmod'
p5187
sg4576
g5171
sg4577
S'VGF2'
p5188
sg4579
I-1
sg42
I9
sg4580
(lp5189
sbsg5145
(issf_api
Node
p5190
(dp5191
g4574
S'rsym'
p5192
sg4576
g5145
sg4577
S'VGF'
p5193
sg4579
I-1
sg42
I17
sg4580
(lp5194
sbsg5146
(issf_api
Node
p5195
(dp5196
g4574
S'k1'
p5197
sg4576
g5146
sg4577
S'VGF'
p5198
sg4579
I-1
sg42
I0
sg4580
(lp5199
sbsg5172
(issf_api
Node
p5200
(dp5201
g4574
S'k1'
p5202
sg4576
g5172
sg4577
S'VGF2'
p5203
sg4579
I-1
sg42
I5
sg4580
(lp5204
S'NP3'
p5205
asbsg5173
(issf_api
Node
p5206
(dp5207
g4574
S'k4'
p5208
sg4576
g5173
sg4577
S'VGF2'
p5209
sg4579
I-1
sg42
I8
sg4580
(lp5210
S'NP6'
p5211
asbsg5211
(issf_api
Node
p5212
(dp5213
g4574
S'nmod'
p5214
sg4576
g5211
sg4577
S'NP7'
p5215
sg4579
I-1
sg42
I7
sg4580
(lp5216
g5174
asbsg5164
(issf_api
Node
p5217
(dp5218
g4574
S'ccof'
p5219
sg4576
g5164
sg4577
S'CCP'
p5220
sg4579
I-1
sg42
I13
sg4580
(lp5221
g5153
ag5165
asbsg5205
(issf_api
Node
p5222
(dp5223
g4574
S'nmod'
p5224
sg4576
g5205
sg4577
S'NP4'
p5225
sg4579
I-1
sg42
I4
sg4580
(lp5226
S'NP2'
p5227
asbsg5227
(issf_api
Node
p5228
(dp5229
g4574
S'r6'
p5230
sg4576
g5227
sg4577
S'NP3'
p5231
sg4579
I-1
sg42
I3
sg4580
(lp5232
sbssg4635
(lp5233
(issf_api
Chunk
p5234
(dp5235
g4576
g1480
sg42
I0
sg4639
g1487
sg43
I4
sg4567
(lp5236
I71
aI72
aI73
asg48
(issf_api
FeatureSet
p5237
(dp5238
g12
(dp5239
S'name'
p5240
g5146
sS'drel'
p5241
S'k1:VGF'
p5242
ssbsba(issf_api
Chunk
p5243
(dp5244
g4576
g1518
sg42
I1
sg4639
g1525
sg43
I4
sg4567
(lp5245
I74
asg48
(issf_api
FeatureSet
p5246
(dp5247
g12
(dp5248
S'name'
p5249
g5140
ssbsba(issf_api
Chunk
p5250
(dp5251
g4576
g1539
sg42
I2
sg4639
g1544
sg43
I4
sg4567
(lp5252
I75
asg48
(issf_api
FeatureSet
p5253
(dp5254
g12
(dp5255
S'name'
p5256
g5144
sS'drel'
p5257
S'k2:VGF'
p5258
ssbsba(issf_api
Chunk
p5259
(dp5260
g4576
g1562
sg42
I3
sg4639
g1575
sg43
I4
sg4567
(lp5261
I76
aI77
asg48
(issf_api
FeatureSet
p5262
(dp5263
g12
(dp5264
S'name'
p5265
g5227
sS'drel'
p5266
S'r6:NP3'
p5267
ssbsba(issf_api
Chunk
p5268
(dp5269
g4576
g1608
sg42
I4
sg4639
g1617
sg43
I4
sg4567
(lp5270
I78
asg48
(issf_api
FeatureSet
p5271
(dp5272
g12
(dp5273
S'name'
p5274
g5205
sS'drel'
p5275
S'nmod:NP4'
p5276
ssbsba(issf_api
Chunk
p5277
(dp5278
g4576
g1652
sg42
I5
sg4639
g1665
sg43
I4
sg4567
(lp5279
I79
aI80
aI81
asg48
(issf_api
FeatureSet
p5280
(dp5281
g12
(dp5282
S'name'
p5283
g5172
sS'drel'
p5284
S'k1:VGF2'
p5285
ssbsba(issf_api
Chunk
p5286
(dp5287
g4576
g1696
sg42
I6
sg4639
g1703
sg43
I4
sg4567
(lp5288
I82
aI83
asg48
(issf_api
FeatureSet
p5289
(dp5290
g12
(dp5291
S'name'
p5292
g5174
sS'drel'
p5293
S'r6:NP6'
p5294
ssbsba(issf_api
Chunk
p5295
(dp5296
g4576
g1734
sg42
I7
sg4639
g1741
sg43
I4
sg4567
(lp5297
I84
aI85
asg48
(issf_api
FeatureSet
p5298
(dp5299
g12
(dp5300
S'name'
p5301
g5211
sS'drel'
p5302
S'nmod:NP7'
p5303
ssbsba(issf_api
Chunk
p5304
(dp5305
g4576
g1793
sg42
I8
sg4639
g1804
sg43
I4
sg4567
(lp5306
I86
aI87
aI88
asg48
(issf_api
FeatureSet
p5307
(dp5308
g12
(dp5309
S'name'
p5310
g5173
sS'drel'
p5311
S'k4:VGF2'
p5312
ssbsba(issf_api
Chunk
p5313
(dp5314
g4576
g1852
sg42
I9
sg4639
g1859
sg43
I4
sg4567
(lp5315
I89
aI90
aI91
aI92
asg48
(issf_api
FeatureSet
p5316
(dp5317
g12
(dp5318
S'name'
p5319
g5171
sS'drel'
p5320
S'vmod:VGF2'
p5321
ssbsba(issf_api
Chunk
p5322
(dp5323
g4576
g1911
sg42
I10
sg4639
g1924
sg43
I4
sg4567
(lp5324
I93
aI94
asg48
(issf_api
FeatureSet
p5325
(dp5326
g12
(dp5327
S'name'
p5328
g5139
sS'drel'
p5329
S'r6:NP10'
p5330
ssbsba(issf_api
Chunk
p5331
(dp5332
g4576
g1957
sg42
I11
sg4639
g1968
sg43
I4
sg4567
(lp5333
I95
asg48
(issf_api
FeatureSet
p5334
(dp5335
g12
(dp5336
S'name'
p5337
g5133
sS'drel'
p5338
S'k2:VGF2'
p5339
ssbsba(issf_api
Chunk
p5340
(dp5341
g4576
g1982
sg42
I12
sg4639
g1993
sg43
I4
sg4567
(lp5342
I96
aI97
asg48
(issf_api
FeatureSet
p5343
(dp5344
g12
(dp5345
S'name'
p5346
g5165
sS'drel'
p5347
S'ccof:CCP2'
p5348
ssbsba(issf_api
Chunk
p5349
(dp5350
g4576
g2024
sg42
I13
sg4639
g2029
sg43
I4
sg4567
(lp5351
I98
asg48
(issf_api
FeatureSet
p5352
(dp5353
g12
(dp5354
S'name'
p5355
g5164
sS'drel'
p5356
S'ccof:CCP'
p5357
ssbsba(issf_api
Chunk
p5358
(dp5359
g4576
g2045
sg42
I14
sg4639
g2056
sg43
I4
sg4567
(lp5360
I99
aI100
aI101
asg48
(issf_api
FeatureSet
p5361
(dp5362
g12
(dp5363
S'name'
p5364
g5127
sS'drel'
p5365
S'k7t:VGF3'
p5366
ssbsba(issf_api
Chunk
p5367
(dp5368
g4576
g2104
sg42
I15
sg4639
g2109
sg43
I4
sg4567
(lp5369
I102
asg48
(issf_api
FeatureSet
p5370
(dp5371
g12
(dp5372
S'name'
p5373
g5147
sS'drel'
p5374
S'pof:VGF3'
p5375
ssbsba(issf_api
Chunk
p5376
(dp5377
g4576
g2123
sg42
I16
sg4639
g2134
sg43
I4
sg4567
(lp5378
I103
aI104
asg48
(issf_api
FeatureSet
p5379
(dp5380
g12
(dp5381
S'name'
p5382
g5153
sS'drel'
p5383
S'ccof:CCP2'
p5384
ssbsba(issf_api
Chunk
p5385
(dp5386
g4576
g2165
sg42
I17
sg4639
g2170
sg43
I4
sg4567
(lp5387
I105
asg48
(issf_api
FeatureSet
p5388
(dp5389
g12
(dp5390
S'name'
p5391
g5145
sS'drel'
p5392
S'rsym:VGF'
p5393
ssbsbasba(issf_api
Sentence
p5394
(dp5395
g4565
(lp5396
sg43
I5
sg4567
(lp5397
I106
aI107
aI108
aI109
aI110
aI111
aI112
aI113
aI114
aI115
aI116
aI117
aI118
aI119
asg4569
(dp5398
S'VGNF'
p5399
(issf_api
Node
p5400
(dp5401
g4574
S'nmod__k1inv'
p5402
sg4576
g5399
sg4577
S'NP3'
p5403
sg4579
I-1
sg42
I2
sg4580
(lp5404
S'NP2'
p5405
asbsS'VGF'
p5406
(issf_api
Node
p5407
(dp5408
g4574
g4587
sg4576
g5406
sg4577
g4587
sg4579
I-1
sg42
I5
sg4580
(lp5409
S'BLK'
p5410
aS'NP'
p5411
aS'NP4'
p5412
asbsg5410
(issf_api
Node
p5413
(dp5414
g4574
S'rsym'
p5415
sg4576
g5410
sg4577
S'VGF'
p5416
sg4579
I-1
sg42
I6
sg4580
(lp5417
sbsg5411
(issf_api
Node
p5418
(dp5419
g4574
S'k1'
p5420
sg4576
g5411
sg4577
S'VGF'
p5421
sg4579
I-1
sg42
I0
sg4580
(lp5422
sbsg5412
(issf_api
Node
p5423
(dp5424
g4574
S'pof'
p5425
sg4576
g5412
sg4577
S'VGF'
p5426
sg4579
I-1
sg42
I4
sg4580
(lp5427
S'NP3'
p5428
asbsg5428
(issf_api
Node
p5429
(dp5430
g4574
S'r6-k2'
p5431
sg4576
g5428
sg4577
S'NP4'
p5432
sg4579
I-1
sg42
I3
sg4580
(lp5433
g5399
asbsg5405
(issf_api
Node
p5434
(dp5435
g4574
S'k7t'
p5436
sg4576
g5405
sg4577
S'VGNF'
p5437
sg4579
I-1
sg42
I1
sg4580
(lp5438
sbssg4635
(lp5439
(issf_api
Chunk
p5440
(dp5441
g4576
g2205
sg42
I0
sg4639
g2216
sg43
I5
sg4567
(lp5442
I106
aI107
aI108
aI109
asg48
(issf_api
FeatureSet
p5443
(dp5444
g12
(dp5445
S'name'
p5446
g5411
sS'drel'
p5447
S'k1:VGF'
p5448
ssbsba(issf_api
Chunk
p5449
(dp5450
g4576
g2285
sg42
I1
sg4639
g2294
sg43
I5
sg4567
(lp5451
I110
aI111
asg48
(issf_api
FeatureSet
p5452
(dp5453
g12
(dp5454
S'name'
p5455
g5405
sS'drel'
p5456
S'k7t:VGNF'
p5457
ssbsba(issf_api
Chunk
p5458
(dp5459
g4576
g2308
sg42
I2
sg4639
g2317
sg43
I5
sg4567
(lp5460
I112
asg48
(issf_api
FeatureSet
p5461
(dp5462
g12
(dp5463
S'name'
p5464
g5399
sS'drel'
p5465
S'nmod__k1inv:NP3'
p5466
ssbsba(issf_api
Chunk
p5467
(dp5468
g4576
g2352
sg42
I3
sg4639
g2363
sg43
I5
sg4567
(lp5469
I113
aI114
aI115
asg48
(issf_api
FeatureSet
p5470
(dp5471
g12
(dp5472
S'name'
p5473
g5428
sS'drel'
p5474
S'r6-k2:NP4'
p5475
ssbsba(issf_api
Chunk
p5476
(dp5477
g4576
g2394
sg42
I4
sg4639
g2399
sg43
I5
sg4567
(lp5478
I116
asg48
(issf_api
FeatureSet
p5479
(dp5480
g12
(dp5481
S'name'
p5482
g5412
sS'drel'
p5483
S'pof:VGF'
p5484
ssbsba(issf_api
Chunk
p5485
(dp5486
g4576
g2413
sg42
I5
sg4639
g2422
sg43
I5
sg4567
(lp5487
I117
aI118
asg48
(issf_api
FeatureSet
p5488
(dp5489
g12
(dp5490
S'name'
p5491
g5406
ssbsba(issf_api
Chunk
p5492
(dp5493
g4576
g2453
sg42
I6
sg4639
g2458
sg43
I5
sg4567
(lp5494
I119
asg48
(issf_api
FeatureSet
p5495
(dp5496
g12
(dp5497
S'name'
p5498
g5410
sS'drel'
p5499
S'rsym:VGF'
p5500
ssbsbasba(issf_api
Sentence
p5501
(dp5502
g4565
(lp5503
sg43
I6
sg4567
(lp5504
I120
aI121
aI122
aI123
aI124
aI125
aI126
aI127
aI128
aI129
aI130
asg4569
(dp5505
S'VGF'
p5506
(issf_api
Node
p5507
(dp5508
g4574
S'ccof'
p5509
sg4576
g5506
sg4577
S'CCP'
p5510
sg4579
I-1
sg42
I4
sg4580
(lp5511
S'NP3'
p5512
aS'NP2'
p5513
asbsS'CCP'
p5514
(issf_api
Node
p5515
(dp5516
g4574
g4587
sg4576
g5514
sg4577
g4587
sg4579
I-1
sg42
I0
sg4580
(lp5517
g5506
aS'BLK'
p5518
asbsg5518
(issf_api
Node
p5519
(dp5520
g4574
S'rsym'
p5521
sg4576
g5518
sg4577
S'CCP'
p5522
sg4579
I-1
sg42
I5
sg4580
(lp5523
sbsS'NP'
p5524
(issf_api
Node
p5525
(dp5526
g4574
S'r6'
p5527
sg4576
g5524
sg4577
S'NP2'
p5528
sg4579
I-1
sg42
I1
sg4580
(lp5529
sbsg5512
(issf_api
Node
p5530
(dp5531
g4574
S'k2'
p5532
sg4576
g5512
sg4577
S'VGF'
p5533
sg4579
I-1
sg42
I3
sg4580
(lp5534
sbsg5513
(issf_api
Node
p5535
(dp5536
g4574
S'k7'
p5537
sg4576
g5513
sg4577
S'VGF'
p5538
sg4579
I-1
sg42
I2
sg4580
(lp5539
g5524
asbssg4635
(lp5540
(issf_api
Chunk
p5541
(dp5542
g4576
g2468
sg42
I0
sg4639
g2475
sg43
I6
sg4567
(lp5543
I120
asg48
(issf_api
FeatureSet
p5544
(dp5545
g12
(dp5546
S'name'
p5547
g5514
ssbsba(issf_api
Chunk
p5548
(dp5549
g4576
g2491
sg42
I1
sg4639
g2500
sg43
I6
sg4567
(lp5550
I121
aI122
asg48
(issf_api
FeatureSet
p5551
(dp5552
g12
(dp5553
S'name'
p5554
g5524
sS'drel'
p5555
S'r6:NP2'
p5556
ssbsba(issf_api
Chunk
p5557
(dp5558
g4576
g2533
sg42
I2
sg4639
g2546
sg43
I6
sg4567
(lp5559
I123
aI124
aI125
aI126
asg48
(issf_api
FeatureSet
p5560
(dp5561
g12
(dp5562
S'name'
p5563
g5513
sS'drel'
p5564
S'k7:VGF'
p5565
ssbsba(issf_api
Chunk
p5566
(dp5567
g4576
g2613
sg42
I3
sg4639
g2624
sg43
I6
sg4567
(lp5568
I127
asg48
(issf_api
FeatureSet
p5569
(dp5570
g12
(dp5571
S'name'
p5572
g5512
sS'drel'
p5573
S'k2:VGF'
p5574
ssbsba(issf_api
Chunk
p5575
(dp5576
g4576
g2655
sg42
I4
sg4639
g2664
sg43
I6
sg4567
(lp5577
I128
aI129
asg48
(issf_api
FeatureSet
p5578
(dp5579
g12
(dp5580
S'name'
p5581
g5506
sS'drel'
p5582
S'ccof:CCP'
p5583
ssbsba(issf_api
Chunk
p5584
(dp5585
g4576
g2678
sg42
I5
sg4639
g2683
sg43
I6
sg4567
(lp5586
I130
asg48
(issf_api
FeatureSet
p5587
(dp5588
g12
(dp5589
S'name'
p5590
g5518
sS'drel'
p5591
S'rsym:CCP'
p5592
ssbsbasba(issf_api
Sentence
p5593
(dp5594
g4565
(lp5595
sg43
I7
sg4567
(lp5596
I131
aI132
aI133
aI134
aI135
aI136
aI137
aI138
aI139
aI140
aI141
aI142
aI143
aI144
aI145
aI146
aI147
aI148
aI149
aI150
aI151
aI152
aI153
aI154
asg4569
(dp5597
S'VGF2'
p5598
(issf_api
Node
p5599
(dp5600
g4574
S'ccof'
p5601
sg4576
g5598
sg4577
S'CCP'
p5602
sg4579
I-1
sg42
I8
sg4580
(lp5603
S'JJP'
p5604
aS'NP5'
p5605
aS'NP4'
p5606
aS'NP3'
p5607
aS'NP2'
p5608
asbsS'VGF'
p5609
(issf_api
Node
p5610
(dp5611
g4574
g4587
sg4576
g5609
sg4577
g4587
sg4579
I-1
sg42
I1
sg4580
(lp5612
S'CCP'
p5613
aS'BLK'
p5614
aS'NP'
p5615
asbsg5613
(issf_api
Node
p5616
(dp5617
g4574
S'k2'
p5618
sg4576
g5613
sg4577
S'VGF'
p5619
sg4579
I-1
sg42
I2
sg4580
(lp5620
g5598
asbsg5604
(issf_api
Node
p5621
(dp5622
g4574
S'pof'
p5623
sg4576
g5604
sg4577
S'VGF2'
p5624
sg4579
I-1
sg42
I7
sg4580
(lp5625
sbsg5605
(issf_api
Node
p5626
(dp5627
g4574
S'k2'
p5628
sg4576
g5605
sg4577
S'VGF2'
p5629
sg4579
I-1
sg42
I6
sg4580
(lp5630
sbsg5614
(issf_api
Node
p5631
(dp5632
g4574
S'rsym'
p5633
sg4576
g5614
sg4577
S'VGF'
p5634
sg4579
I-1
sg42
I9
sg4580
(lp5635
sbsg5615
(issf_api
Node
p5636
(dp5637
g4574
S'k5'
p5638
sg4576
g5615
sg4577
S'VGF'
p5639
sg4579
I-1
sg42
I0
sg4580
(lp5640
sbsg5606
(issf_api
Node
p5641
(dp5642
g4574
S'k7t'
p5643
sg4576
g5606
sg4577
S'VGF2'
p5644
sg4579
I-1
sg42
I5
sg4580
(lp5645
sbsg5607
(issf_api
Node
p5646
(dp5647
g4574
S'rd'
p5648
sg4576
g5607
sg4577
S'VGF2'
p5649
sg4579
I-1
sg42
I4
sg4580
(lp5650
sbsg5608
(issf_api
Node
p5651
(dp5652
g4574
S'k7'
p5653
sg4576
g5608
sg4577
S'VGF2'
p5654
sg4579
I-1
sg42
I3
sg4580
(lp5655
sbssg4635
(lp5656
(issf_api
Chunk
p5657
(dp5658
g4576
g2718
sg42
I0
sg4639
g2729
sg43
I7
sg4567
(lp5659
I131
aI132
aI133
aI134
aI135
asg48
(issf_api
FeatureSet
p5660
(dp5661
g12
(dp5662
S'name'
p5663
g5615
sS'drel'
p5664
S'k5:VGF'
p5665
ssbsba(issf_api
Chunk
p5666
(dp5667
g4576
g2794
sg42
I1
sg4639
g2803
sg43
I7
sg4567
(lp5668
I136
aI137
asg48
(issf_api
FeatureSet
p5669
(dp5670
g12
(dp5671
S'name'
p5672
g5609
ssbsba(issf_api
Chunk
p5673
(dp5674
g4576
g2834
sg42
I2
sg4639
g2839
sg43
I7
sg4567
(lp5675
I138
asg48
(issf_api
FeatureSet
p5676
(dp5677
g12
(dp5678
S'name'
p5679
g5613
sS'drel'
p5680
S'k2:VGF'
p5681
ssbsba(issf_api
Chunk
p5682
(dp5683
g4576
g2874
sg42
I3
sg4639
g2885
sg43
I7
sg4567
(lp5684
I139
aI140
aI141
asg48
(issf_api
FeatureSet
p5685
(dp5686
g12
(dp5687
S'name'
p5688
g5608
sS'drel'
p5689
S'k7:VGF2'
p5690
ssbsba(issf_api
Chunk
p5691
(dp5692
g4576
g2950
sg42
I4
sg4639
g2957
sg43
I7
sg4567
(lp5693
I142
aI143
aI144
aI145
aI146
aI147
asg48
(issf_api
FeatureSet
p5694
(dp5695
g12
(dp5696
S'name'
p5697
g5607
sS'drel'
p5698
S'rd:VGF2'
p5699
ssbsba(issf_api
Chunk
p5700
(dp5701
g4576
g3022
sg42
I5
sg4639
g3029
sg43
I7
sg4567
(lp5702
I148
aI149
asg48
(issf_api
FeatureSet
p5703
(dp5704
g12
(dp5705
S'name'
p5706
g5606
sS'drel'
p5707
S'k7t:VGF2'
p5708
ssbsba(issf_api
Chunk
p5709
(dp5710
g4576
g3060
sg42
I6
sg4639
g3065
sg43
I7
sg4567
(lp5711
I150
asg48
(issf_api
FeatureSet
p5712
(dp5713
g12
(dp5714
S'name'
p5715
g5605
sS'drel'
p5716
S'k2:VGF2'
p5717
ssbsba(issf_api
Chunk
p5718
(dp5719
g4576
g3079
sg42
I7
sg4639
g3084
sg43
I7
sg4567
(lp5720
I151
asg48
(issf_api
FeatureSet
p5721
(dp5722
g12
(dp5723
S'name'
p5724
g5604
sS'drel'
p5725
S'pof:VGF2'
p5726
ssbsba(issf_api
Chunk
p5727
(dp5728
g4576
g3098
sg42
I8
sg4639
g3109
sg43
I7
sg4567
(lp5729
I152
aI153
asg48
(issf_api
FeatureSet
p5730
(dp5731
g12
(dp5732
S'name'
p5733
g5598
sS'drel'
p5734
S'ccof:CCP'
p5735
ssbsba(issf_api
Chunk
p5736
(dp5737
g4576
g3140
sg42
I9
sg4639
g3145
sg43
I7
sg4567
(lp5738
I154
asg48
(issf_api
FeatureSet
p5739
(dp5740
g12
(dp5741
S'name'
p5742
g5614
sS'drel'
p5743
S'rsym:VGF'
p5744
ssbsbasba(issf_api
Sentence
p5745
(dp5746
g4565
(lp5747
sg43
I8
sg4567
(lp5748
I155
aI156
aI157
aI158
aI159
aI160
aI161
aI162
aI163
aI164
aI165
aI166
aI167
aI168
aI169
aI170
aI171
aI172
aI173
aI174
aI175
asg4569
(dp5749
S'VGNF'
p5750
(issf_api
Node
p5751
(dp5752
g4574
S'vmod'
p5753
sg4576
g5750
sg4577
S'VGF'
p5754
sg4579
I-1
sg42
I5
sg4580
(lp5755
S'NP4'
p5756
aS'NP3'
p5757
asbsS'VGF'
p5758
(issf_api
Node
p5759
(dp5760
g4574
g4587
sg4576
g5758
sg4577
g4587
sg4579
I-1
sg42
I8
sg4580
(lp5761
g5750
aS'NP5'
p5762
aS'BLK'
p5763
aS'NP'
p5764
aS'NP6'
p5765
asbsS'JJP'
p5766
(issf_api
Node
p5767
(dp5768
g4574
S'nmod'
p5769
sg4576
g5766
sg4577
S'NP3'
p5770
sg4579
I-1
sg42
I2
sg4580
(lp5771
S'NP2'
p5772
asbsg5762
(issf_api
Node
p5773
(dp5774
g4574
S'k7t'
p5775
sg4576
g5762
sg4577
S'VGF'
p5776
sg4579
I-1
sg42
I6
sg4580
(lp5777
sbsg5763
(issf_api
Node
p5778
(dp5779
g4574
S'rsym'
p5780
sg4576
g5763
sg4577
S'VGF'
p5781
sg4579
I-1
sg42
I9
sg4580
(lp5782
sbsg5764
(issf_api
Node
p5783
(dp5784
g4574
S'k1'
p5785
sg4576
g5764
sg4577
S'VGF'
p5786
sg4579
I-1
sg42
I0
sg4580
(lp5787
sbsg5756
(issf_api
Node
p5788
(dp5789
g4574
S'k2s'
p5790
sg4576
g5756
sg4577
S'VGNF'
p5791
sg4579
I-1
sg42
I4
sg4580
(lp5792
sbsg5765
(issf_api
Node
p5793
(dp5794
g4574
S'pof'
p5795
sg4576
g5765
sg4577
S'VGF'
p5796
sg4579
I-1
sg42
I7
sg4580
(lp5797
sbsg5757
(issf_api
Node
p5798
(dp5799
g4574
S'k2'
p5800
sg4576
g5757
sg4577
S'VGNF'
p5801
sg4579
I-1
sg42
I3
sg4580
(lp5802
g5766
asbsg5772
(issf_api
Node
p5803
(dp5804
g4574
S'jjmod'
p5805
sg4576
g5772
sg4577
S'JJP'
p5806
sg4579
I-1
sg42
I1
sg4580
(lp5807
sbssg4635
(lp5808
(issf_api
Chunk
p5809
(dp5810
g4576
g3217
sg42
I0
sg4639
g3228
sg43
I8
sg4567
(lp5811
I155
aI156
aI157
aI158
aI159
asg48
(issf_api
FeatureSet
p5812
(dp5813
g12
(dp5814
S'name'
p5815
g5764
sS'drel'
p5816
S'k1:VGF'
p5817
ssbsba(issf_api
Chunk
p5818
(dp5819
g4576
g3276
sg42
I1
sg4639
g3283
sg43
I8
sg4567
(lp5820
I160
aI161
aI162
asg48
(issf_api
FeatureSet
p5821
(dp5822
g12
(dp5823
S'name'
p5824
g5772
sS'drel'
p5825
S'jjmod:JJP'
p5826
ssbsba(issf_api
Chunk
p5827
(dp5828
g4576
g3314
sg42
I2
sg4639
g3319
sg43
I8
sg4567
(lp5829
I163
asg48
(issf_api
FeatureSet
p5830
(dp5831
g12
(dp5832
S'name'
p5833
g5766
sS'drel'
p5834
S'nmod:NP3'
p5835
ssbsba(issf_api
Chunk
p5836
(dp5837
g4576
g3354
sg42
I3
sg4639
g3365
sg43
I8
sg4567
(lp5838
I164
aI165
aI166
asg48
(issf_api
FeatureSet
p5839
(dp5840
g12
(dp5841
S'name'
p5842
g5757
sS'drel'
p5843
S'k2:VGNF'
p5844
ssbsba(issf_api
Chunk
p5845
(dp5846
g4576
g3396
sg42
I4
sg4639
g3401
sg43
I8
sg4567
(lp5847
I167
asg48
(issf_api
FeatureSet
p5848
(dp5849
g12
(dp5850
S'name'
p5851
g5756
sS'drel'
p5852
S'k2s:VGNF'
p5853
ssbsba(issf_api
Chunk
p5854
(dp5855
g4576
g3415
sg42
I5
sg4639
g3422
sg43
I8
sg4567
(lp5856
I168
aI169
asg48
(issf_api
FeatureSet
p5857
(dp5858
g12
(dp5859
S'name'
p5860
g5750
sS'drel'
p5861
S'vmod:VGF'
p5862
ssbsba(issf_api
Chunk
p5863
(dp5864
g4576
g3474
sg42
I6
sg4639
g3483
sg43
I8
sg4567
(lp5865
I170
aI171
asg48
(issf_api
FeatureSet
p5866
(dp5867
g12
(dp5868
S'name'
p5869
g5762
sS'drel'
p5870
S'k7t:VGF'
p5871
ssbsba(issf_api
Chunk
p5872
(dp5873
g4576
g3518
sg42
I7
sg4639
g3527
sg43
I8
sg4567
(lp5874
I172
aI173
asg48
(issf_api
FeatureSet
p5875
(dp5876
g12
(dp5877
S'name'
p5878
g5765
sS'drel'
p5879
S'pof:VGF'
p5880
ssbsba(issf_api
Chunk
p5881
(dp5882
g4576
g3541
sg42
I8
sg4639
g3548
sg43
I8
sg4567
(lp5883
I174
asg48
(issf_api
FeatureSet
p5884
(dp5885
g12
(dp5886
S'name'
p5887
g5758
ssbsba(issf_api
Chunk
p5888
(dp5889
g4576
g3562
sg42
I9
sg4639
g3567
sg43
I8
sg4567
(lp5890
I175
asg48
(issf_api
FeatureSet
p5891
(dp5892
g12
(dp5893
S'name'
p5894
g5763
sS'drel'
p5895
S'rsym:VGF'
p5896
ssbsbasba(issf_api
Sentence
p5897
(dp5898
g4565
(lp5899
sg43
I9
sg4567
(lp5900
I176
aI177
aI178
aI179
aI180
aI181
aI182
aI183
aI184
aI185
aI186
aI187
aI188
aI189
aI190
aI191
aI192
aI193
aI194
aI195
asg4569
(dp5901
S'VGF2'
p5902
(issf_api
Node
p5903
(dp5904
g4574
S'ccof'
p5905
sg4576
g5902
sg4577
S'CCP'
p5906
sg4579
I-1
sg42
I9
sg4580
(lp5907
S'NP'
p5908
aS'NP4'
p5909
aS'NP6'
p5910
asbsS'VGF'
p5911
(issf_api
Node
p5912
(dp5913
g4574
g4587
sg4576
g5911
sg4577
g4587
sg4579
I-1
sg42
I1
sg4580
(lp5914
S'JJP'
p5915
aS'BLK'
p5916
asbsS'CCP'
p5917
(issf_api
Node
p5918
(dp5919
g4574
S'rs'
p5920
sg4576
g5917
sg4577
S'NULL__NP'
p5921
sg4579
I-1
sg42
I2
sg4580
(lp5922
g5902
asbsg5915
(issf_api
Node
p5923
(dp5924
g4574
S'k1s'
p5925
sg4576
g5915
sg4577
S'VGF'
p5926
sg4579
I-1
sg42
I0
sg4580
(lp5927
sbsS'NP5'
p5928
(issf_api
Node
p5929
(dp5930
g4574
S'r6'
p5931
sg4576
g5928
sg4577
S'NP6'
p5932
sg4579
I-1
sg42
I7
sg4580
(lp5933
sbsg5916
(issf_api
Node
p5934
(dp5935
g4574
S'rsym'
p5936
sg4576
g5916
sg4577
S'VGF'
p5937
sg4579
I-1
sg42
I10
sg4580
(lp5938
sbsS'NULL__NP'
p5939
(issf_api
Node
p5940
(dp5941
g4574
g4587
sg4576
g5939
sg4577
g4587
sg4579
I-1
sg42
I-1
sg4580
(lp5942
g5917
asbsg5908
(issf_api
Node
p5943
(dp5944
g4574
S'k1'
p5945
sg4576
g5908
sg4577
S'VGF2'
p5946
sg4579
I-1
sg42
I3
sg4580
(lp5947
sbsg5909
(issf_api
Node
p5948
(dp5949
g4574
S'vmod'
p5950
sg4576
g5909
sg4577
S'VGF2'
p5951
sg4579
I-1
sg42
I6
sg4580
(lp5952
S'NP3'
p5953
asbsg5910
(issf_api
Node
p5954
(dp5955
g4574
S'k2'
p5956
sg4576
g5910
sg4577
S'VGF2'
p5957
sg4579
I-1
sg42
I8
sg4580
(lp5958
g5928
asbsg5953
(issf_api
Node
p5959
(dp5960
g4574
S'nmod'
p5961
sg4576
g5953
sg4577
S'NP4'
p5962
sg4579
I-1
sg42
I5
sg4580
(lp5963
S'NP2'
p5964
asbsg5964
(issf_api
Node
p5965
(dp5966
g4574
S'r6'
p5967
sg4576
g5964
sg4577
S'NP3'
p5968
sg4579
I-1
sg42
I4
sg4580
(lp5969
sbssg4635
(lp5970
(issf_api
Chunk
p5971
(dp5972
g4576
g3581
sg42
I0
sg4639
g3586
sg43
I9
sg4567
(lp5973
I176
asg48
(issf_api
FeatureSet
p5974
(dp5975
g12
(dp5976
S'name'
p5977
g5915
sS'drel'
p5978
S'k1s:VGF'
p5979
ssbsba(issf_api
Chunk
p5980
(dp5981
g4576
g3600
sg42
I1
sg4639
g3607
sg43
I9
sg4567
(lp5982
I177
asg48
(issf_api
FeatureSet
p5983
(dp5984
g12
(dp5985
S'name'
p5986
g5911
ssbsba(issf_api
Chunk
p5987
(dp5988
g4576
g3621
sg42
I2
sg4639
g3626
sg43
I9
sg4567
(lp5989
I178
asg48
(issf_api
FeatureSet
p5990
(dp5991
g12
(dp5992
S'name'
p5993
g5917
sS'drel'
p5994
S'rs:NULL__NP'
p5995
ssbsba(issf_api
Chunk
p5996
(dp5997
g4576
g3642
sg42
I3
sg4639
g3653
sg43
I9
sg4567
(lp5998
I179
aI180
asg48
(issf_api
FeatureSet
p5999
(dp6000
g12
(dp6001
S'name'
p6002
g5908
sS'drel'
p6003
S'k1:VGF2'
p6004
ssbsba(issf_api
Chunk
p6005
(dp6006
g4576
g3688
sg42
I4
sg4639
g3701
sg43
I9
sg4567
(lp6007
I181
aI182
asg48
(issf_api
FeatureSet
p6008
(dp6009
g12
(dp6010
S'name'
p6011
g5964
sS'drel'
p6012
S'r6:NP3'
p6013
ssbsba(issf_api
Chunk
p6014
(dp6015
g4576
g3753
sg42
I5
sg4639
g3762
sg43
I9
sg4567
(lp6016
I183
aI184
asg48
(issf_api
FeatureSet
p6017
(dp6018
g12
(dp6019
S'name'
p6020
g5953
sS'drel'
p6021
S'nmod:NP4'
p6022
ssbsba(issf_api
Chunk
p6023
(dp6024
g4576
g3797
sg42
I6
sg4639
g3810
sg43
I9
sg4567
(lp6025
I185
aI186
aI187
aI188
asg48
(issf_api
FeatureSet
p6026
(dp6027
g12
(dp6028
S'name'
p6029
g5909
sS'drel'
p6030
S'vmod:VGF2'
p6031
ssbsba(issf_api
Chunk
p6032
(dp6033
g4576
g3879
sg42
I7
sg4639
g3890
sg43
I9
sg4567
(lp6034
I189
aI190
aI191
asg48
(issf_api
FeatureSet
p6035
(dp6036
g12
(dp6037
S'name'
p6038
g5928
sS'drel'
p6039
S'r6:NP6'
p6040
ssbsba(issf_api
Chunk
p6041
(dp6042
g4576
g3921
sg42
I8
sg4639
g3926
sg43
I9
sg4567
(lp6043
I192
asg48
(issf_api
FeatureSet
p6044
(dp6045
g12
(dp6046
S'name'
p6047
g5910
sS'drel'
p6048
S'k2:VGF2'
p6049
ssbsba(issf_api
Chunk
p6050
(dp6051
g4576
g3940
sg42
I9
sg4639
g3951
sg43
I9
sg4567
(lp6052
I193
aI194
asg48
(issf_api
FeatureSet
p6053
(dp6054
g12
(dp6055
S'name'
p6056
g5902
sS'drel'
p6057
S'ccof:CCP'
p6058
ssbsba(issf_api
Chunk
p6059
(dp6060
g4576
g3982
sg42
I10
sg4639
g3987
sg43
I9
sg4567
(lp6061
I195
asg48
(issf_api
FeatureSet
p6062
(dp6063
g12
(dp6064
S'name'
p6065
g5916
sS'drel'
p6066
S'rsym:VGF'
p6067
ssbsbasba(issf_api
Sentence
p6068
(dp6069
g4565
(lp6070
sg43
I10
sg4567
(lp6071
I196
aI197
aI198
aI199
aI200
aI201
aI202
aI203
aI204
aI205
aI206
aI207
aI208
aI209
aI210
aI211
aI212
asg4569
(dp6072
S'VGF'
p6073
(issf_api
Node
p6074
(dp6075
g4574
S'ccof'
p6076
sg4576
g6073
sg4577
S'CCP'
p6077
sg4579
I-1
sg42
I2
sg4580
(lp6078
S'NP'
p6079
aS'NP2'
p6080
asbsS'CCP'
p6081
(issf_api
Node
p6082
(dp6083
g4574
g4587
sg4576
g6081
sg4577
g4587
sg4579
I-1
sg42
I3
sg4580
(lp6084
g6073
aS'VGF2'
p6085
aS'BLK'
p6086
asbsg6085
(issf_api
Node
p6087
(dp6088
g4574
S'ccof'
p6089
sg4576
g6085
sg4577
S'CCP'
p6090
sg4579
I-1
sg42
I7
sg4580
(lp6091
S'NP5'
p6092
aS'NP4'
p6093
asbsg6092
(issf_api
Node
p6094
(dp6095
g4574
S'k1'
p6096
sg4576
g6092
sg4577
S'VGF2'
p6097
sg4579
I-1
sg42
I6
sg4580
(lp6098
sbsg6086
(issf_api
Node
p6099
(dp6100
g4574
S'rsym'
p6101
sg4576
g6086
sg4577
S'CCP'
p6102
sg4579
I-1
sg42
I8
sg4580
(lp6103
sbsg6079
(issf_api
Node
p6104
(dp6105
g4574
S'k7'
p6106
sg4576
g6079
sg4577
S'VGF'
p6107
sg4579
I-1
sg42
I0
sg4580
(lp6108
sbsg6093
(issf_api
Node
p6109
(dp6110
g4574
S'ras-k1'
p6111
sg4576
g6093
sg4577
S'VGF2'
p6112
sg4579
I-1
sg42
I5
sg4580
(lp6113
S'NP3'
p6114
asbsg6114
(issf_api
Node
p6115
(dp6116
g4574
S'r6'
p6117
sg4576
g6114
sg4577
S'NP4'
p6118
sg4579
I-1
sg42
I4
sg4580
(lp6119
sbsg6080
(issf_api
Node
p6120
(dp6121
g4574
S'k1'
p6122
sg4576
g6080
sg4577
S'VGF'
p6123
sg4579
I-1
sg42
I1
sg4580
(lp6124
sbssg4635
(lp6125
(issf_api
Chunk
p6126
(dp6127
g4576
g4022
sg42
I0
sg4639
g4033
sg43
I10
sg4567
(lp6128
I196
aI197
aI198
asg48
(issf_api
FeatureSet
p6129
(dp6130
g12
(dp6131
S'name'
p6132
g6079
sS'drel'
p6133
S'k7:VGF'
p6134
ssbsba(issf_api
Chunk
p6135
(dp6136
g4576
g4066
sg42
I1
sg4639
g4075
sg43
I10
sg4567
(lp6137
I199
aI200
asg48
(issf_api
FeatureSet
p6138
(dp6139
g12
(dp6140
S'name'
p6141
g6080
sS'drel'
p6142
S'k1:VGF'
p6143
ssbsba(issf_api
Chunk
p6144
(dp6145
g4576
g4106
sg42
I2
sg4639
g4117
sg43
I10
sg4567
(lp6146
I201
aI202
asg48
(issf_api
FeatureSet
p6147
(dp6148
g12
(dp6149
S'name'
p6150
g6073
sS'drel'
p6151
S'ccof:CCP'
p6152
ssbsba(issf_api
Chunk
p6153
(dp6154
g4576
g4144
sg42
I3
sg4639
g4151
sg43
I10
sg4567
(lp6155
I203
asg48
(issf_api
FeatureSet
p6156
(dp6157
g12
(dp6158
S'name'
p6159
g6081
ssbsba(issf_api
Chunk
p6160
(dp6161
g4576
g4167
sg42
I4
sg4639
g4176
sg43
I10
sg4567
(lp6162
I204
asg48
(issf_api
FeatureSet
p6163
(dp6164
g12
(dp6165
S'name'
p6166
g6114
sS'drel'
p6167
S'r6:NP4'
p6168
ssbsba(issf_api
Chunk
p6169
(dp6170
g4576
g4190
sg42
I5
sg4639
g4197
sg43
I10
sg4567
(lp6171
I205
aI206
asg48
(issf_api
FeatureSet
p6172
(dp6173
g12
(dp6174
S'name'
p6175
g6093
sS'drel'
p6176
S'ras-k1:VGF2'
p6177
ssbsba(issf_api
Chunk
p6178
(dp6179
g4576
g4245
sg42
I6
sg4639
g4250
sg43
I10
sg4567
(lp6180
I207
aI208
asg48
(issf_api
FeatureSet
p6181
(dp6182
g12
(dp6183
S'name'
p6184
g6092
sS'drel'
p6185
S'k1:VGF2'
p6186
ssbsba(issf_api
Chunk
p6187
(dp6188
g4576
g4264
sg42
I7
sg4639
g4275
sg43
I10
sg4567
(lp6189
I209
aI210
aI211
asg48
(issf_api
FeatureSet
p6190
(dp6191
g12
(dp6192
S'name'
p6193
g6085
sS'drel'
p6194
S'ccof:CCP'
p6195
ssbsba(issf_api
Chunk
p6196
(dp6197
g4576
g4323
sg42
I8
sg4639
g4328
sg43
I10
sg4567
(lp6198
I212
asg48
(issf_api
FeatureSet
p6199
(dp6200
g12
(dp6201
S'name'
p6202
g6086
sS'drel'
p6203
S'rsym:CCP'
p6204
ssbsbasba(issf_api
Sentence
p6205
(dp6206
g4565
(lp6207
sg43
I11
sg4567
(lp6208
I213
aI214
aI215
aI216
aI217
aI218
aI219
aI220
aI221
aI222
aI223
aI224
asg4569
(dp6209
S'VGF'
p6210
(issf_api
Node
p6211
(dp6212
g4574
g4587
sg4576
g6210
sg4577
g4587
sg4579
I-1
sg42
I5
sg4580
(lp6213
S'JJP'
p6214
aS'BLK'
p6215
aS'NP4'
p6216
aS'NP2'
p6217
asbsg6214
(issf_api
Node
p6218
(dp6219
g4574
S'k1s'
p6220
sg4576
g6214
sg4577
S'VGF'
p6221
sg4579
I-1
sg42
I4
sg4580
(lp6222
sbsg6215
(issf_api
Node
p6223
(dp6224
g4574
S'rsym'
p6225
sg4576
g6215
sg4577
S'VGF'
p6226
sg4579
I-1
sg42
I6
sg4580
(lp6227
sbsS'NP'
p6228
(issf_api
Node
p6229
(dp6230
g4574
S'r6'
p6231
sg4576
g6228
sg4577
S'NP2'
p6232
sg4579
I-1
sg42
I0
sg4580
(lp6233
sbsg6216
(issf_api
Node
p6234
(dp6235
g4574
S'k1'
p6236
sg4576
g6216
sg4577
S'VGF'
p6237
sg4579
I-1
sg42
I3
sg4580
(lp6238
S'NP3'
p6239
asbsg6239
(issf_api
Node
p6240
(dp6241
g4574
S'r6'
p6242
sg4576
g6239
sg4577
S'NP4'
p6243
sg4579
I-1
sg42
I2
sg4580
(lp6244
sbsg6217
(issf_api
Node
p6245
(dp6246
g4574
S'k7'
p6247
sg4576
g6217
sg4577
S'VGF'
p6248
sg4579
I-1
sg42
I1
sg4580
(lp6249
g6228
asbssg4635
(lp6250
(issf_api
Chunk
p6251
(dp6252
g4576
g4344
sg42
I0
sg4639
g4355
sg43
I11
sg4567
(lp6253
I213
aI214
asg48
(issf_api
FeatureSet
p6254
(dp6255
g12
(dp6256
S'name'
p6257
g6228
sS'drel'
p6258
S'r6:NP2'
p6259
ssbsba(issf_api
Chunk
p6260
(dp6261
g4576
g4386
sg42
I1
sg4639
g4393
sg43
I11
sg4567
(lp6262
I215
aI216
asg48
(issf_api
FeatureSet
p6263
(dp6264
g12
(dp6265
S'name'
p6266
g6217
sS'drel'
p6267
S'k7:VGF'
p6268
ssbsba(issf_api
Chunk
p6269
(dp6270
g4576
g4458
sg42
I2
sg4639
g4465
sg43
I11
sg4567
(lp6271
I217
aI218
aI219
aI220
asg48
(issf_api
FeatureSet
p6272
(dp6273
g12
(dp6274
S'name'
p6275
g6239
sS'drel'
p6276
S'r6:NP4'
p6277
ssbsba(issf_api
Chunk
p6278
(dp6279
g4576
g4496
sg42
I3
sg4639
g4501
sg43
I11
sg4567
(lp6280
I221
asg48
(issf_api
FeatureSet
p6281
(dp6282
g12
(dp6283
S'name'
p6284
g6216
sS'drel'
p6285
S'k1:VGF'
p6286
ssbsba(issf_api
Chunk
p6287
(dp6288
g4576
g4515
sg42
I4
sg4639
g4520
sg43
I11
sg4567
(lp6289
I222
asg48
(issf_api
FeatureSet
p6290
(dp6291
g12
(dp6292
S'name'
p6293
g6214
sS'drel'
p6294
S'k1s:VGF'
p6295
ssbsba(issf_api
Chunk
p6296
(dp6297
g4576
g4534
sg42
I5
sg4639
g4541
sg43
I11
sg4567
(lp6298
I223
asg48
(issf_api
FeatureSet
p6299
(dp6300
g12
(dp6301
S'name'
p6302
g6210
ssbsba(issf_api
Chunk
p6303
(dp6304
g4576
g4555
sg42
I6
sg4639
g4560
sg43
I11
sg4567
(lp6305
I224
asg48
(issf_api
FeatureSet
p6306
(dp6307
g12
(dp6308
S'name'
p6309
g6215
sS'drel'
p6310
S'rsym:VGF'
p6311
ssbsbasbasb.