(issf_api
SSFInfo
p0
(dp1
S'globalWordList'
p2
(lp3
(issf_api
Word
p4
(dp5
S'splitConn'
p6
I00
sS'word'
p7
V\u092a\u093e\u0915\u093f\u0938\u094d\u0924\u093e\u0928
p8
sS'extraFeatureSet'
p9
(issf_api
FeatureSet
p10
(dp11
S'featureDict'
p12
(dp13
S'posn'
p14
S'10'
p15
sS'name'
p16
S'\xe0\xa4\xaa\xe0\xa4\xbe\xe0\xa4\x95\xe0\xa4\xbf\xe0\xa4\xb8\xe0\xa5\x8d\xe0\xa4\xa4\xe0\xa4\xbe\xe0\xa4\xa8'
p17
sS'af'
p18
S'\xe0\xa4\xaa\xe0\xa4\xbe\xe0\xa4\x95\xe0\xa4\xbf\xe0\xa4\xb8\xe0\xa5\x8d\xe0\xa4\xa4\xe0\xa4\xbe\xe0\xa4\xa8,n,m,sg,3,d,0,0'
p19
sS'acrefmod'
p20
S'm1%0:i2'
p21
sS'drel'
p22
S'pof__cn:NP'
p23
sS'chunktype'
p24
S'child:NP'
p25
sS'cref'
p26
S'i1%0:t1'
p27
ssbsS'arg1'
p28
I00
sS'arg2'
p29
I00
sS'sense'
p30
NsS'arg1Span'
p31
NsS'chunkNum'
p32
I0
sS'sentenceNum'
p33
I0
sS'relationNum'
p34
NsS'arg2Span'
p35
NsS'wordTag'
p36
S'NNPC'
p37
sS'featureSet'
p38
g10
sS'conn'
p39
I00
sba(issf_api
Word
p40
(dp41
g6
I00
sg7
V\u0915\u094d\u0930\u093f\u0915\u0947\u091f
p42
sg9
(issf_api
FeatureSet
p43
(dp44
g12
(dp45
S'posn'
p46
S'20'
p47
sS'name'
p48
S'\xe0\xa4\x95\xe0\xa5\x8d\xe0\xa4\xb0\xe0\xa4\xbf\xe0\xa4\x95\xe0\xa5\x87\xe0\xa4\x9f'
p49
sS'af'
p50
S'\xe0\xa4\x95\xe0\xa5\x8d\xe0\xa4\xb0\xe0\xa4\xbf\xe0\xa4\x95\xe0\xa5\x87\xe0\xa4\x9f,n,m,sg,3,d,0,0'
p51
sS'acrefmod'
p52
S'm1%0:i2'
p53
sS'drel'
p54
S'pof__cn:NP'
p55
sS'chunktype'
p56
S'child:NP'
p57
sS'cref'
p58
S'i1%0:t1'
p59
ssbsg28
I00
sg29
I00
sg30
Nsg31
Nsg32
I0
sg33
I0
sg34
Nsg35
Nsg36
S'NNPC'
p60
sg38
g43
sg39
I00
sba(issf_api
Word
p61
(dp62
g6
I00
sg7
V\u092c\u094b\u0930\u094d\u0921
p63
sg9
(issf_api
FeatureSet
p64
(dp65
g12
(dp66
S'crefhead'
p67
S'\xe0\xa4\xac\xe0\xa5\x8b\xe0\xa4\xb0\xe0\xa5\x8d\xe0\xa4\xa1:i1'
p68
sS'posn'
p69
S'30'
p70
sS'name'
p71
S'\xe0\xa4\xac\xe0\xa5\x8b\xe0\xa4\xb0\xe0\xa5\x8d\xe0\xa4\xa1'
p72
sS'af'
p73
S'\xe0\xa4\xac\xe0\xa5\x8b\xe0\xa4\xb0\xe0\xa5\x8d\xe0\xa4\xa1,n,m,sg,3,o,0_\xe0\xa4\x95\xe0\xa4\xbe,0'
p74
sS'acrefmodhead'
p75
S'\xe0\xa4\xac\xe0\xa5\x8b\xe0\xa4\xb0\xe0\xa5\x8d\xe0\xa4\xa1:m1'
p76
sS'chunkid'
p77
S'NP'
p78
sS'acrefmod'
p79
S'm1%1:i2'
p80
sS'chunktype'
p81
S'head:NP'
p82
sS'crefchainhead'
p83
S'i1:t1'
p84
sS'vpos'
p85
S'vib_4'
p86
sS'cref'
p87
S'i1%1:t1'
p88
sS'drel'
p89
S'r6:NP2'
p90
ssbsg28
I00
sg29
I00
sg30
Nsg31
Nsg32
I0
sg33
I0
sg34
Nsg35
Nsg36
S'NNP'
p91
sg38
g64
sg39
I00
sba(issf_api
Word
p92
(dp93
g6
I00
sg7
V\u0915\u0947
p94
sg9
(issf_api
FeatureSet
p95
(dp96
g12
(dp97
S'posn'
p98
S'40'
p99
sS'name'
p100
S'\xe0\xa4\x95\xe0\xa5\x87'
p101
sS'drel'
p102
S'lwg__psp:NP'
p103
sS'chunktype'
p104
S'child:NP'
p105
sS'af'
p106
S'\xe0\xa4\x95\xe0\xa4\xbe,psp,m,sg,,o,,'
p107
ssbsg28
I00
sg29
I00
sg30
Nsg31
Nsg32
I0
sg33
I0
sg34
Nsg35
Nsg36
S'PSP'
p108
sg38
g95
sg39
I00
sba(issf_api
Word
p109
(dp110
g6
I00
sg7
V\u092e\u0941\u0916\u094d\u092f
p111
sg9
(issf_api
FeatureSet
p112
(dp113
g12
(dp114
S'posn'
p115
S'50'
p116
sS'name'
p117
S'\xe0\xa4\xae\xe0\xa5\x81\xe0\xa4\x96\xe0\xa5\x8d\xe0\xa4\xaf'
p118
sS'af'
p119
S'\xe0\xa4\xae\xe0\xa5\x81\xe0\xa4\x96\xe0\xa5\x8d\xe0\xa4\xaf,adj,any,any,,o,,'
p120
sS'drel'
p121
S'pof__cn:NP2'
p122
sS'chunktype'
p123
S'child:NP2'
p124
sS'cref'
p125
S'i2%0:t2'
p126
ssbsg28
I00
sg29
I00
sg30
Nsg31
Nsg32
I1
sg33
I0
sg34
Nsg35
Nsg36
S'NNC'
p127
sg38
g112
sg39
I00
sba(issf_api
Word
p128
(dp129
g6
I00
sg7
V\u0915\u093e\u0930\u094d\u092f\u0915\u093e\u0930\u0940
p130
sg9
(issf_api
FeatureSet
p131
(dp132
g12
(dp133
S'posn'
p134
S'60'
p135
sS'name'
p136
S'\xe0\xa4\x95\xe0\xa4\xbe\xe0\xa4\xb0\xe0\xa5\x8d\xe0\xa4\xaf\xe0\xa4\x95\xe0\xa4\xbe\xe0\xa4\xb0\xe0\xa5\x80'
p137
sS'af'
p138
S'\xe0\xa4\x95\xe0\xa4\xbe\xe0\xa4\xb0\xe0\xa5\x8d\xe0\xa4\xaf\xe0\xa4\x95\xe0\xa4\xbe\xe0\xa4\xb0\xe0\xa5\x80,n,m,sg,3,d,0,0'
p139
sS'drel'
p140
S'pof__cn:NP2'
p141
sS'chunktype'
p142
S'child:NP2'
p143
sS'cref'
p144
S'i2%0:t2'
p145
ssbsg28
I00
sg29
I00
sg30
Nsg31
Nsg32
I1
sg33
I0
sg34
Nsg35
Nsg36
S'NNC'
p146
sg38
g131
sg39
I00
sba(issf_api
Word
p147
(dp148
g6
I00
sg7
V\u0905\u0927\u093f\u0915\u093e\u0930\u0940
p149
sg9
(issf_api
FeatureSet
p150
(dp151
g12
(dp152
S'crefhead'
p153
S'\xe0\xa4\x85\xe0\xa4\xa7\xe0\xa4\xbf\xe0\xa4\x95\xe0\xa4\xbe\xe0\xa4\xb0\xe0\xa5\x80:i2'
p154
sS'posn'
p155
S'70'
p156
sS'name'
p157
S'\xe0\xa4\x85\xe0\xa4\xa7\xe0\xa4\xbf\xe0\xa4\x95\xe0\xa4\xbe\xe0\xa4\xb0\xe0\xa5\x80'
p158
sS'af'
p159
S'\xe0\xa4\x85\xe0\xa4\xa7\xe0\xa4\xbf\xe0\xa4\x95\xe0\xa4\xbe\xe0\xa4\xb0\xe0\xa5\x80,n,m,sg,3,d,0,0'
p160
sS'chunkid'
p161
S'NP2'
p162
sS'crefmod'
p163
S'm1:i2'
p164
sS'chunktype'
p165
S'head:NP2'
p166
sS'cref'
p167
S'i2%1:t2'
p168
sS'drel'
p169
S'nmod:NP3'
p170
ssbsg28
I00
sg29
I00
sg30
Nsg31
Nsg32
I1
sg33
I0
sg34
Nsg35
Nsg36
S'NN'
p171
sg38
g150
sg39
I00
sba(issf_api
Word
p172
(dp173
g6
I00
sg7
V\u0930\u092e\u0940\u091c
p174
sg9
(issf_api
FeatureSet
p175
(dp176
g12
(dp177
S'posn'
p178
S'80'
p179
sS'name'
p180
S'\xe0\xa4\xb0\xe0\xa4\xae\xe0\xa5\x80\xe0\xa4\x9c'
p181
sS'af'
p182
S'\xe0\xa4\xb0\xe0\xa4\xae\xe0\xa5\x80\xe0\xa4\x9c,n,m,sg,3,d,0,0'
p183
sS'drel'
p184
S'pof__cn:NP3'
p185
sS'chunktype'
p186
S'child:NP3'
p187
sS'cref'
p188
S'i3%0:t2'
p189
ssbsg28
I00
sg29
I00
sg30
Nsg31
Nsg32
I2
sg33
I0
sg34
Nsg35
Nsg36
S'NNPC'
p190
sg38
g175
sg39
I00
sba(issf_api
Word
p191
(dp192
g6
I00
sg7
V\u0930\u093e\u091c\u093e
p193
sg9
(issf_api
FeatureSet
p194
(dp195
g12
(dp196
S'crefhead'
p197
S'\xe0\xa4\xb0\xe0\xa4\xbe\xe0\xa4\x9c\xe0\xa4\xbe:i3'
p198
sS'posn'
p199
S'90'
p200
sS'name'
p201
S'\xe0\xa4\xb0\xe0\xa4\xbe\xe0\xa4\x9c\xe0\xa4\xbe'
p202
sS'af'
p203
S'\xe0\xa4\xb0\xe0\xa4\xbe\xe0\xa4\x9c\xe0\xa4\xbe,n,m,sg,3,o,0_\xe0\xa4\xa8\xe0\xa5\x87,0'
p204
sS'chunkid'
p205
S'NP3'
p206
sS'creftype'
p207
S'Coreference-NounComplement:i2'
p208
sS'chunktype'
p209
S'head:NP3'
p210
sS'crefchainhead'
p211
S'i3:t2'
p212
sS'vpos'
p213
S'vib_3'
p214
sS'cref'
p215
S'i3%1:t2'
p216
sS'drel'
p217
S'k1:VGF'
p218
ssbsg28
I00
sg29
I00
sg30
Nsg31
Nsg32
I2
sg33
I0
sg34
Nsg35
Nsg36
S'NNP'
p219
sg38
g194
sg39
I00
sba(issf_api
Word
p220
(dp221
g6
I00
sg7
V\u0928\u0947
p222
sg9
(issf_api
FeatureSet
p223
(dp224
g12
(dp225
S'posn'
p226
S'100'
p227
sS'name'
p228
S'\xe0\xa4\xa8\xe0\xa5\x87'
p229
sS'drel'
p230
S'lwg__psp:NP3'
p231
sS'chunktype'
p232
S'child:NP3'
p233
sS'af'
p234
S'\xe0\xa4\xa8\xe0\xa5\x87,psp,,,,,,'
p235
ssbsg28
I00
sg29
I00
sg30
Nsg31
Nsg32
I2
sg33
I0
sg34
Nsg35
Nsg36
S'PSP'
p236
sg38
g223
sg39
I00
sba(issf_api
Word
p237
(dp238
g6
I00
sg7
V\u0905\u092a\u0928\u0947
p239
sg9
(issf_api
FeatureSet
p240
(dp241
g12
(dp242
S'crefhead'
p243
S'\xe0\xa4\x85\xe0\xa4\xaa\xe0\xa4\xa8\xe0\xa5\x87:i4'
p244
sS'posn'
p245
S'110'
p246
sS'name'
p247
S'\xe0\xa4\x85\xe0\xa4\xaa\xe0\xa4\xa8\xe0\xa5\x87'
p248
sS'af'
p249
S'\xe0\xa4\x85\xe0\xa4\xaa\xe0\xa4\xa8\xe0\xa4\xbe,pn,m,any,any,o,0,0'
p250
sS'acrefmodhead'
p251
S'\xe0\xa4\x85\xe0\xa4\xaa\xe0\xa4\xa8\xe0\xa5\x87:m2'
p252
sS'chunkid'
p253
S'NP4'
p254
sS'acrefmod'
p255
S'm2%1:i5'
p256
sS'creftype'
p257
S'Anaphora-C:i3'
p258
sS'chunktype'
p259
S'head:NP4'
p260
sS'cref'
p261
S'i4%1:t2'
p262
sS'drel'
p263
S'r6:NP5'
p264
ssbsg28
I00
sg29
I00
sg30
Nsg31
Nsg32
I3
sg33
I0
sg34
Nsg35
Nsg36
S'PRP'
p265
sg38
g240
sg39
I00
sba(issf_api
Word
p266
(dp267
g6
I00
sg7
V\u092a\u0926
p268
sg9
(issf_api
FeatureSet
p269
(dp270
g12
(dp271
S'crefhead'
p272
S'\xe0\xa4\xaa\xe0\xa4\xa6:i5'
p273
sS'posn'
p274
S'120'
p275
sS'name'
p276
S'\xe0\xa4\xaa\xe0\xa4\xa6'
p277
sS'af'
p278
S'\xe0\xa4\xaa\xe0\xa4\xa6,n,m,sg,3,o,0_\xe0\xa4\xb8\xe0\xa5\x87,0'
p279
sS'chunkid'
p280
S'NP5'
p281
sS'crefmod'
p282
S'm2:i5'
p283
sS'chunktype'
p284
S'head:NP5'
p285
sS'vpos'
p286
S'vib_2'
p287
sS'cref'
p288
S'i5%1:t3'
p289
sS'drel'
p290
S'k5:VGF'
p291
ssbsg28
I00
sg29
I00
sg30
Nsg31
Nsg32
I4
sg33
I0
sg34
Nsg35
Nsg36
S'NN'
p292
sg38
g269
sg39
I00
sba(issf_api
Word
p293
(dp294
g6
I00
sg7
V\u0938\u0947
p295
sg9
(issf_api
FeatureSet
p296
(dp297
g12
(dp298
S'posn'
p299
S'130'
p300
sS'name'
p301
S'\xe0\xa4\xb8\xe0\xa5\x87'
p302
sS'drel'
p303
S'lwg__psp:NP5'
p304
sS'chunktype'
p305
S'child:NP5'
p306
sS'af'
p307
S'\xe0\xa4\xb8\xe0\xa5\x87,psp,,,,,,'
p308
ssbsg28
I00
sg29
I00
sg30
Nsg31
Nsg32
I4
sg33
I0
sg34
Nsg35
Nsg36
S'PSP'
p309
sg38
g296
sg39
I00
sba(issf_api
Word
p310
(dp311
g6
I00
sg7
V\u0907\u0938\u094d\u0924\u0940\u095e\u093e
p312
sg9
(issf_api
FeatureSet
p313
(dp314
g12
(dp315
S'crefhead'
p316
S'\xe0\xa4\x87\xe0\xa4\xb8\xe0\xa5\x8d\xe0\xa4\xa4\xe0\xa5\x80\xe0\xa5\x9e\xe0\xa4\xbe:i6'
p317
sS'posn'
p318
S'140'
p319
sS'name'
p320
S'\xe0\xa4\x87\xe0\xa4\xb8\xe0\xa5\x8d\xe0\xa4\xa4\xe0\xa5\x80\xe0\xa5\x9e\xe0\xa4\xbe'
p321
sS'af'
p322
S'\xe0\xa4\x87\xe0\xa4\xb8\xe0\xa5\x8d\xe0\xa4\xa4\xe0\xa5\x80\xe0\xa4\xab\xe0\xa4\xbe,n,m,sg,3,d,0,0'
p323
sS'chunkid'
p324
S'NP6'
p325
sS'drel'
p326
S'pof:VGF'
p327
sS'chunktype'
p328
S'head:NP6'
p329
sS'cref'
p330
S'i6%1:t4'
p331
ssbsg28
I00
sg29
I00
sg30
Nsg31
Nsg32
I5
sg33
I0
sg34
Nsg35
Nsg36
S'NN'
p332
sg38
g313
sg39
I00
sba(issf_api
Word
p333
(dp334
g6
I00
sg7
V\u0926\u0947
p335
sg9
(issf_api
FeatureSet
p336
(dp337
g12
(dp338
S'posn'
p339
S'150'
p340
sS'name'
p341
S'\xe0\xa4\xa6\xe0\xa5\x87'
p342
sS'af'
p343
S'\xe0\xa4\xa6\xe0\xa5\x87,v,m,sg,3,,0_\xe0\xa4\xa6\xe0\xa5\x87+\xe0\xa4\xaf\xe0\xa4\xbe_\xe0\xa4\xb9\xe0\xa5\x88,0'
p344
sS'chunkid'
p345
S'VGF'
p346
sS'chunktype'
p347
S'head:VGF'
p348
sS'voicetype'
p349
S'active'
p350
sS'vpos'
p351
S'tam_2_3'
p352
sS'stype'
p353
S'declarative'
p354
ssbsg28
I00
sg29
I00
sg30
Nsg31
Nsg32
I6
sg33
I0
sg34
Nsg35
Nsg36
S'VM'
p355
sg38
g336
sg39
I00
sba(issf_api
Word
p356
(dp357
g6
I00
sg7
V\u0926\u093f\u092f\u093e
p358
sg9
(issf_api
FeatureSet
p359
(dp360
g12
(dp361
S'posn'
p362
S'160'
p363
sS'name'
p364
S'\xe0\xa4\xa6\xe0\xa4\xbf\xe0\xa4\xaf\xe0\xa4\xbe'
p365
sS'drel'
p366
S'lwg__vaux:VGF'
p367
sS'chunktype'
p368
S'child:VGF'
p369
sS'af'
p370
S'\xe0\xa4\xa6\xe0\xa5\x87,v,m,sg,any,,\xe0\xa4\xaf\xe0\xa4\xbe,yA'
p371
ssbsg28
I00
sg29
I00
sg30
Nsg31
Nsg32
I6
sg33
I0
sg34
Nsg35
Nsg36
S'VAUX'
p372
sg38
g359
sg39
I00
sba(issf_api
Word
p373
(dp374
g6
I00
sg7
V\u0939\u0948
p375
sg9
(issf_api
FeatureSet
p376
(dp377
g12
(dp378
S'posn'
p379
S'170'
p380
sS'name'
p381
S'\xe0\xa4\xb9\xe0\xa5\x88'
p382
sS'drel'
p383
S'lwg__vaux:VGF'
p384
sS'chunktype'
p385
S'child:VGF'
p386
sS'af'
p387
S'\xe0\xa4\xb9\xe0\xa5\x88,v,any,sg,3,,\xe0\xa4\xb9\xe0\xa5\x88,hE'
p388
ssbsg28
I00
sg29
I00
sg30
Nsg31
Nsg32
I6
sg33
I0
sg34
Nsg35
Nsg36
S'VAUX'
p389
sg38
g376
sg39
I00
sba(issf_api
Word
p390
(dp391
g6
I00
sg7
V\u0964
p392
sg9
(issf_api
FeatureSet
p393
(dp394
g12
(dp395
S'posn'
p396
S'180'
p397
sS'name'
p398
S'\xe0\xa5\xa4'
p399
sS'af'
p400
S'\xe0\xa5\xa4,punc,,,,,,'
p401
sS'chunkid'
p402
S'BLK'
p403
sS'drel'
p404
S'rsym:VGF'
p405
sS'chunktype'
p406
S'head:BLK'
p407
ssbsg28
I00
sg29
I00
sg30
Nsg31
Nsg32
I7
sg33
I0
sg34
Nsg35
Nsg36
S'SYM'
p408
sg38
g393
sg39
I00
sba(issf_api
Word
p409
(dp410
g6
I00
sg7
V\u092a\u0942\u0930\u094d\u0935
p411
sg9
(issf_api
FeatureSet
p412
(dp413
g12
(dp414
S'posn'
p415
S'10'
p416
sS'name'
p417
S'\xe0\xa4\xaa\xe0\xa5\x82\xe0\xa4\xb0\xe0\xa5\x8d\xe0\xa4\xb5'
p418
sS'af'
p419
S'\xe0\xa4\xaa\xe0\xa5\x82\xe0\xa4\xb0\xe0\xa5\x8d\xe0\xa4\xb5,adj,any,any,,o,,'
p420
sS'drel'
p421
S'nmod__adj:NP'
p422
sS'chunktype'
p423
S'child:NP'
p424
sS'cref'
p425
S'i7%0:t2'
p426
ssbsg28
I00
sg29
I00
sg30
Nsg31
Nsg32
I0
sg33
I1
sg34
Nsg35
Nsg36
S'JJ'
p427
sg38
g412
sg39
I00
sba(issf_api
Word
p428
(dp429
g6
I00
sg7
V\u0938\u0932\u093e\u092e\u0940
p430
sg9
(issf_api
FeatureSet
p431
(dp432
g12
(dp433
S'posn'
p434
S'10'
p435
sS'name'
p436
S'\xe0\xa4\xb8\xe0\xa4\xb2\xe0\xa4\xbe\xe0\xa4\xae\xe0\xa5\x80'
p437
sS'af'
p438
S'\xe0\xa4\xb8\xe0\xa4\xb2\xe0\xa4\xbe\xe0\xa4\xae\xe0\xa5\x80,adj,any,any,,o,,'
p439
sS'drel'
p440
S'nmod__adj:NP'
p441
sS'chunktype'
p442
S'child:NP'
p443
sS'cref'
p444
S'i7%0:t2'
p445
ssbsg28
I00
sg29
I00
sg30
Nsg31
Nsg32
I0
sg33
I1
sg34
Nsg35
Nsg36
S'JJ'
p446
sg38
g431
sg39
I00
sba(issf_api
Word
p447
(dp448
g6
I00
sg7
V\u092c\u0932\u094d\u0932\u0947\u092c\u093e\u091c
p449
sg9
(issf_api
FeatureSet
p450
(dp451
g12
(dp452
S'crefhead'
p453
S'\xe0\xa4\xac\xe0\xa4\xb2\xe0\xa5\x8d\xe0\xa4\xb2\xe0\xa5\x87\xe0\xa4\xac\xe0\xa4\xbe\xe0\xa4\x9c:i7'
p454
sS'posn'
p455
S'30'
p456
sS'name'
p457
S'\xe0\xa4\xac\xe0\xa4\xb2\xe0\xa5\x8d\xe0\xa4\xb2\xe0\xa5\x87\xe0\xa4\xac\xe0\xa4\xbe\xe0\xa4\x9c'
p458
sS'af'
p459
S'\xe0\xa4\xac\xe0\xa4\xb2\xe0\xa5\x8d\xe0\xa4\xb2\xe0\xa5\x87\xe0\xa4\xac\xe0\xa4\xbe\xe0\xa4\x9c,n,m,sg,3,o,0,0'
p460
sS'chunkid'
p461
S'NP'
p462
sS'creftype'
p463
S'Coreference-Noun-Noun:i4'
p464
sS'chunktype'
p465
S'head:NP'
p466
sS'cref'
p467
S'i7%1:t2'
p468
sS'drel'
p469
S'nmod:NP2'
p470
ssbsg28
I00
sg29
I00
sg30
Nsg31
Nsg32
I0
sg33
I1
sg34
Nsg35
Nsg36
S'NN'
p471
sg38
g450
sg39
I00
sba(issf_api
Word
p472
(dp473
g6
I00
sg7
V\u0930\u092e\u0940\u091c
p474
sg9
(issf_api
FeatureSet
p475
(dp476
g12
(dp477
S'crefhead'
p478
S'\xe0\xa4\xb0\xe0\xa4\xae\xe0\xa5\x80\xe0\xa4\x9c:i8'
p479
sS'posn'
p480
S'40'
p481
sS'name'
p482
S'\xe0\xa4\xb0\xe0\xa4\xae\xe0\xa5\x80\xe0\xa4\x9c'
p483
sS'af'
p484
S'\xe0\xa4\xb0\xe0\xa4\xae\xe0\xa5\x80\xe0\xa4\x9c,n,m,sg,3,o,0_\xe0\xa4\x95\xe0\xa4\xbe,0'
p485
sS'chunkid'
p486
S'NP2'
p487
sS'creftype'
p488
S'Coreference-NounComplement:i7'
p489
sS'chunktype'
p490
S'head:NP2'
p491
sS'vpos'
p492
S'vib_2'
p493
sS'cref'
p494
S'i8%1:t2'
p495
sS'drel'
p496
S'r6:NP3'
p497
ssbsg28
I00
sg29
I00
sg30
Nsg31
Nsg32
I1
sg33
I1
sg34
Nsg35
Nsg36
S'NNP'
p498
sg38
g475
sg39
I00
sba(issf_api
Word
p499
(dp500
g6
I00
sg7
V\u0915\u093e
p501
sg9
(issf_api
FeatureSet
p502
(dp503
g12
(dp504
S'posn'
p505
S'50'
p506
sS'name'
p507
S'\xe0\xa4\x95\xe0\xa4\xbe'
p508
sS'drel'
p509
S'lwg__psp:NP2'
p510
sS'chunktype'
p511
S'child:NP2'
p512
sS'af'
p513
S'\xe0\xa4\x95\xe0\xa4\xbe,psp,f,sg,,o,,'
p514
ssbsg28
I00
sg29
I00
sg30
Nsg31
Nsg32
I1
sg33
I1
sg34
Nsg35
Nsg36
S'PSP'
p515
sg38
g502
sg39
I00
sba(issf_api
Word
p516
(dp517
g6
I00
sg7
V\u092c\u094b\u0930\u094d\u0921
p518
sg9
(issf_api
FeatureSet
p519
(dp520
g12
(dp521
S'crefhead'
p522
S'\xe0\xa4\xac\xe0\xa5\x8b\xe0\xa4\xb0\xe0\xa5\x8d\xe0\xa4\xa1:i9'
p523
sS'posn'
p524
S'60'
p525
sS'name'
p526
S'\xe0\xa4\xac\xe0\xa5\x8b\xe0\xa4\xb0\xe0\xa5\x8d\xe0\xa4\xa1'
p527
sS'af'
p528
S'\xe0\xa4\xac\xe0\xa5\x8b\xe0\xa4\xb0\xe0\xa5\x8d\xe0\xa4\xa1,n,m,sg,3,o,0_\xe0\xa4\xae\xe0\xa5\x87\xe0\xa4\x82,0'
p529
sS'chunkid'
p530
S'NP3'
p531
sS'creftype'
p532
S'Coreference-Identity:i1'
p533
sS'chunktype'
p534
S'head:NP3'
p535
sS'vpos'
p536
S'vib_2'
p537
sS'cref'
p538
S'i9%1:t1'
p539
sS'drel'
p540
S'k7:VGNF'
p541
ssbsg28
I00
sg29
I00
sg30
Nsg31
Nsg32
I2
sg33
I1
sg34
Nsg35
Nsg36
S'NN'
p542
sg38
g519
sg39
I00
sba(issf_api
Word
p543
(dp544
g6
I00
sg7
V\u092e\u0947\u0902
p545
sg9
(issf_api
FeatureSet
p546
(dp547
g12
(dp548
S'posn'
p549
S'70'
p550
sS'name'
p551
S'\xe0\xa4\xae\xe0\xa5\x87\xe0\xa4\x82'
p552
sS'drel'
p553
S'lwg__psp:NP3'
p554
sS'chunktype'
p555
S'child:NP3'
p556
sS'af'
p557
S'\xe0\xa4\xae\xe0\xa5\x87\xe0\xa4\x82,psp,,,,,,'
p558
ssbsg28
I00
sg29
I00
sg30
Nsg31
Nsg32
I2
sg33
I1
sg34
Nsg35
Nsg36
S'PSP'
p559
sg38
g546
sg39
I00
sba(issf_api
Word
p560
(dp561
g6
I00
sg7
V\u0938\u0940\u0908\u0913
p562
sg9
(issf_api
FeatureSet
p563
(dp564
g12
(dp565
S'crefhead'
p566
S'\xe0\xa4\xb8\xe0\xa5\x80\xe0\xa4\x88\xe0\xa4\x93:i10'
p567
sS'posn'
p568
S'80'
p569
sS'name'
p570
S'\xe0\xa4\xb8\xe0\xa5\x80\xe0\xa4\x88\xe0\xa4\x93'
p571
sS'af'
p572
S'\xe0\xa4\xb8\xe0\xa5\x80\xe0\xa4\x88\xe0\xa4\x93,n,m,sg,3,d,0,0'
p573
sS'chunkid'
p574
S'NP4'
p575
sS'chunktype'
p576
S'head:NP4'
p577
sS'crefchainhead'
p578
S'i10:t5'
p579
sS'cref'
p580
S'i10%1:t5'
p581
sS'drel'
p582
S'nmod__k1inv:VGNF'
p583
ssbsg28
I00
sg29
I00
sg30
Nsg31
Nsg32
I3
sg33
I1
sg34
Nsg35
Nsg36
S'NN'
p584
sg38
g563
sg39
I00
sba(issf_api
Word
p585
(dp586
g6
I00
sg7
V\u0930\u0939\u0924\u0947
p587
sg9
(issf_api
FeatureSet
p588
(dp589
g12
(dp590
S'posn'
p591
S'90'
p592
sS'name'
p593
S'\xe0\xa4\xb0\xe0\xa4\xb9\xe0\xa4\xa4\xe0\xa5\x87'
p594
sS'af'
p595
S'\xe0\xa4\xb0\xe0\xa4\xb9,v,m,sg,3,,\xe0\xa4\xa4\xe0\xa4\xbe_\xe0\xa4\xb9\xe0\xa5\x8b+\xe0\xa4\xaf\xe0\xa4\xbe,wA'
p596
sS'chunkid'
p597
S'VGNF'
p598
sS'drel'
p599
S'vmod:VGF'
p600
sS'vpos'
p601
S'tam_2'
p602
sS'chunktype'
p603
S'head:VGNF'
p604
ssbsg28
I00
sg29
I00
sg30
Nsg31
Nsg32
I4
sg33
I1
sg34
Nsg35
Nsg36
S'VM'
p605
sg38
g588
sg39
I00
sba(issf_api
Word
p606
(dp607
g6
I00
sg7
V\u0939\u0941\u090f
p608
sg9
(issf_api
FeatureSet
p609
(dp610
g12
(dp611
S'posn'
p612
S'100'
p613
sS'name'
p614
S'\xe0\xa4\xb9\xe0\xa5\x81\xe0\xa4\x8f'
p615
sS'drel'
p616
S'lwg__vaux:VGNF'
p617
sS'chunktype'
p618
S'child:VGNF'
p619
sS'af'
p620
S'\xe0\xa4\xb9\xe0\xa5\x8b,v,m,sg,3,,\xe0\xa4\xaf\xe0\xa4\xbe,yA'
p621
ssbsg28
I00
sg29
I00
sg30
Nsg31
Nsg32
I4
sg33
I1
sg34
Nsg35
Nsg36
S'VAUX'
p622
sg38
g609
sg39
I00
sba(issf_api
Word
p623
(dp624
g6
I00
sg7
V\u091f\u0940\u0935\u0940
p625
sg9
(issf_api
FeatureSet
p626
(dp627
g12
(dp628
S'posn'
p629
S'110'
p630
sS'name'
p631
S'\xe0\xa4\x9f\xe0\xa5\x80\xe0\xa4\xb5\xe0\xa5\x80'
p632
sS'drel'
p633
S'pof__cn:NP5'
p634
sS'chunktype'
p635
S'child:NP5'
p636
sS'af'
p637
S'\xe0\xa4\x9f\xe0\xa5\x80\xe0\xa4\xb5\xe0\xa5\x80,n,m,sg,3,d,0,0'
p638
ssbsg28
I00
sg29
I00
sg30
Nsg31
Nsg32
I5
sg33
I1
sg34
Nsg35
Nsg36
S'NNC'
p639
sg38
g626
sg39
I00
sba(issf_api
Word
p640
(dp641
g6
I00
sg7
V\u0915\u092e\u0947\u0902\u091f\u0930\u0940
p642
sg9
(issf_api
FeatureSet
p643
(dp644
g12
(dp645
S'posn'
p646
S'120'
p647
sS'name'
p648
S'\xe0\xa4\x95\xe0\xa4\xae\xe0\xa5\x87\xe0\xa4\x82\xe0\xa4\x9f\xe0\xa4\xb0\xe0\xa5\x80'
p649
sS'af'
p650
S'\xe0\xa4\x95\xe0\xa4\xae\xe0\xa5\x87\xe0\xa4\x82\xe0\xa4\x9f\xe0\xa4\xb0\xe0\xa5\x80,n,f,sg,3,d,0,0'
p651
sS'chunkid'
p652
S'NP5'
p653
sS'drel'
p654
S'k2:VGNN'
p655
sS'chunktype'
p656
S'head:NP5'
p657
ssbsg28
I00
sg29
I00
sg30
Nsg31
Nsg32
I5
sg33
I1
sg34
Nsg35
Nsg36
S'NN'
p658
sg38
g643
sg39
I00
sba(issf_api
Word
p659
(dp660
g6
I00
sg7
V\u0915\u0930\u0928\u0947
p661
sg9
(issf_api
FeatureSet
p662
(dp663
g12
(dp664
S'posn'
p665
S'130'
p666
sS'name'
p667
S'\xe0\xa4\x95\xe0\xa4\xb0\xe0\xa4\xa8\xe0\xa5\x87'
p668
sS'af'
p669
S'\xe0\xa4\x95\xe0\xa4\xb0,v,any,sg,any,o,\xe0\xa4\xa8\xe0\xa4\xbe_\xe0\xa4\x95\xe0\xa4\xbe,nA'
p670
sS'chunkid'
p671
S'VGNN'
p672
sS'drel'
p673
S'r6-k1:NP6'
p674
sS'vpos'
p675
S'tam_2'
p676
sS'chunktype'
p677
S'head:VGNN'
p678
ssbsg28
I00
sg29
I00
sg30
Nsg31
Nsg32
I6
sg33
I1
sg34
Nsg35
Nsg36
S'VM'
p679
sg38
g662
sg39
I00
sba(issf_api
Word
p680
(dp681
g6
I00
sg7
V\u0915\u0940
p682
sg9
(issf_api
FeatureSet
p683
(dp684
g12
(dp685
S'posn'
p686
S'140'
p687
sS'name'
p688
S'\xe0\xa4\x95\xe0\xa5\x80'
p689
sS'drel'
p690
S'lwg__psp:VGNN'
p691
sS'chunktype'
p692
S'child:VGNN'
p693
sS'af'
p694
S'\xe0\xa4\x95\xe0\xa4\xbe,psp,f,sg,,d,,'
p695
ssbsg28
I00
sg29
I00
sg30
Nsg31
Nsg32
I6
sg33
I1
sg34
Nsg35
Nsg36
S'PSP'
p696
sg38
g683
sg39
I00
sba(issf_api
Word
p697
(dp698
g6
I00
sg7
V\u0915\u093e\u095e\u0940
p699
sg9
(issf_api
FeatureSet
p700
(dp701
g12
(dp702
S'posn'
p703
S'150'
p704
sS'name'
p705
S'\xe0\xa4\x95\xe0\xa4\xbe\xe0\xa5\x9e\xe0\xa5\x80'
p706
sS'drel'
p707
S'nmod__adj:NP6'
p708
sS'chunktype'
p709
S'child:NP6'
p710
sS'af'
p711
S'\xe0\xa4\x95\xe0\xa4\xbe\xe0\xa4\xab\xe0\xa5\x80,avy,,,,,,'
p712
ssbsg28
I00
sg29
I00
sg30
Nsg31
Nsg32
I7
sg33
I1
sg34
Nsg35
Nsg36
S'QF'
p713
sg38
g700
sg39
I00
sba(issf_api
Word
p714
(dp715
g6
I00
sg7
V\u0906\u0932\u094b\u091a\u0928\u093e
p716
sg9
(issf_api
FeatureSet
p717
(dp718
g12
(dp719
S'posn'
p720
S'160'
p721
sS'name'
p722
S'\xe0\xa4\x86\xe0\xa4\xb2\xe0\xa5\x8b\xe0\xa4\x9a\xe0\xa4\xa8\xe0\xa4\xbe'
p723
sS'af'
p724
S'\xe0\xa4\x86\xe0\xa4\xb2\xe0\xa5\x8b\xe0\xa4\x9a\xe0\xa4\xa8\xe0\xa4\xbe,n,f,sg,3,d,0,0'
p725
sS'chunkid'
p726
S'NP6'
p727
sS'drel'
p728
S'pof:VGF'
p729
sS'chunktype'
p730
S'head:NP6'
p731
ssbsg28
I00
sg29
I00
sg30
Nsg31
Nsg32
I7
sg33
I1
sg34
Nsg35
Nsg36
S'NN'
p732
sg38
g717
sg39
I00
sba(issf_api
Word
p733
(dp734
g6
I00
sg7
V\u0939\u094b
p735
sg9
(issf_api
FeatureSet
p736
(dp737
g12
(dp738
S'posn'
p739
S'170'
p740
sS'name'
p741
S'\xe0\xa4\xb9\xe0\xa5\x8b'
p742
sS'af'
p743
S'\xe0\xa4\xb9\xe0\xa5\x8b,v,f,sg,3,,0_\xe0\xa4\xb0\xe0\xa4\xb9+\xe0\xa4\xaf\xe0\xa4\xbe_\xe0\xa4\xa5\xe0\xa4\xbe,0'
p744
sS'chunkid'
p745
S'VGF'
p746
sS'chunktype'
p747
S'head:VGF'
p748
sS'voicetype'
p749
S'active'
p750
sS'vpos'
p751
S'tam_2_3'
p752
sS'stype'
p753
S'declarative'
p754
ssbsg28
I00
sg29
I00
sg30
Nsg31
Nsg32
I8
sg33
I1
sg34
Nsg35
Nsg36
S'VM'
p755
sg38
g736
sg39
I00
sba(issf_api
Word
p756
(dp757
g6
I00
sg7
V\u0930\u0939\u0940
p758
sg9
(issf_api
FeatureSet
p759
(dp760
g12
(dp761
S'posn'
p762
S'180'
p763
sS'name'
p764
S'\xe0\xa4\xb0\xe0\xa4\xb9\xe0\xa5\x80'
p765
sS'drel'
p766
S'lwg__vaux:VGF'
p767
sS'chunktype'
p768
S'child:VGF'
p769
sS'af'
p770
S'\xe0\xa4\xb0\xe0\xa4\xb9,v,f,sg,3,,\xe0\xa4\xaf\xe0\xa4\xbe,yA'
p771
ssbsg28
I00
sg29
I00
sg30
Nsg31
Nsg32
I8
sg33
I1
sg34
Nsg35
Nsg36
S'VAUX'
p772
sg38
g759
sg39
I00
sba(issf_api
Word
p773
(dp774
g6
I00
sg7
V\u0925\u0940
p775
sg9
(issf_api
FeatureSet
p776
(dp777
g12
(dp778
S'posn'
p779
S'190'
p780
sS'name'
p781
S'\xe0\xa4\xa5\xe0\xa5\x80'
p782
sS'drel'
p783
S'lwg__vaux:VGF'
p784
sS'chunktype'
p785
S'child:VGF'
p786
sS'af'
p787
S'\xe0\xa4\xa5\xe0\xa4\xbe,v,f,sg,3,,\xe0\xa4\xa5\xe0\xa4\xbe,WA'
p788
ssbsg28
I00
sg29
I00
sg30
Nsg31
Nsg32
I8
sg33
I1
sg34
Nsg35
Nsg36
S'VAUX'
p789
sg38
g776
sg39
I00
sba(issf_api
Word
p790
(dp791
g6
I00
sg7
V\u0964
p792
sg9
(issf_api
FeatureSet
p793
(dp794
g12
(dp795
S'posn'
p796
S'200'
p797
sS'name'
p798
S'\xe0\xa5\xa4'
p799
sS'af'
p800
S'\xe0\xa5\xa4,punc,,,,,,'
p801
sS'chunkid'
p802
S'BLK'
p803
sS'drel'
p804
S'rsym:VGF'
p805
sS'chunktype'
p806
S'head:BLK'
p807
ssbsg28
I00
sg29
I00
sg30
Nsg31
Nsg32
I9
sg33
I1
sg34
Nsg35
Nsg36
S'SYM'
p808
sg38
g793
sg39
I00
sba(issf_api
Word
p809
(dp810
g6
I00
sg7
V\u0930\u092e\u0940\u091c
p811
sg9
(issf_api
FeatureSet
p812
(dp813
g12
(dp814
S'crefhead'
p815
S'\xe0\xa4\xb0\xe0\xa4\xae\xe0\xa5\x80\xe0\xa4\x9c:i11'
p816
sS'posn'
p817
S'10'
p818
sS'name'
p819
S'\xe0\xa4\xb0\xe0\xa4\xae\xe0\xa5\x80\xe0\xa4\x9c'
p820
sS'af'
p821
S'\xe0\xa4\xb0\xe0\xa4\xae\xe0\xa5\x80\xe0\xa4\x9c,n,m,sg,3,o,0_\xe0\xa4\xa8\xe0\xa5\x87,0'
p822
sS'chunkid'
p823
S'NP'
p824
sS'creftype'
p825
S'Coreference-Identity:i8'
p826
sS'chunktype'
p827
S'head:NP'
p828
sS'vpos'
p829
S'vib_2'
p830
sS'cref'
p831
S'i11%1:t2'
p832
sS'drel'
p833
S'k1:VGF'
p834
ssbsg28
I00
sg29
I00
sg30
Nsg31
Nsg32
I0
sg33
I2
sg34
Nsg35
Nsg36
S'NNP'
p835
sg38
g812
sg39
I00
sba(issf_api
Word
p836
(dp837
g6
I00
sg7
V\u0928\u0947
p838
sg9
(issf_api
FeatureSet
p839
(dp840
g12
(dp841
S'posn'
p842
S'20'
p843
sS'name'
p844
S'\xe0\xa4\xa8\xe0\xa5\x87'
p845
sS'drel'
p846
S'lwg__psp:NP'
p847
sS'chunktype'
p848
S'child:NP'
p849
sS'af'
p850
S'\xe0\xa4\xa8\xe0\xa5\x87,psp,,,,,,'
p851
ssbsg28
I00
sg29
I00
sg30
Nsg31
Nsg32
I0
sg33
I2
sg34
Nsg35
Nsg36
S'PSP'
p852
sg38
g839
sg39
I00
sba(issf_api
Word
p853
(dp854
g6
I00
sg7
V\u0915\u0939\u093e
p855
sg9
(issf_api
FeatureSet
p856
(dp857
g12
(dp858
S'posn'
p859
S'30'
p860
sS'name'
p861
S'\xe0\xa4\x95\xe0\xa4\xb9\xe0\xa4\xbe'
p862
sS'af'
p863
S'\xe0\xa4\x95\xe0\xa4\xb9,v,m,sg,any,,\xe0\xa4\xaf\xe0\xa4\xbe,yA'
p864
sS'chunkid'
p865
S'VGF'
p866
sS'chunktype'
p867
S'head:VGF'
p868
sS'voicetype'
p869
S'active'
p870
sS'stype'
p871
S'declarative'
p872
ssbsg28
I00
sg29
I00
sg30
Nsg31
Nsg32
I1
sg33
I2
sg34
Nsg35
Nsg36
S'VM'
p873
sg38
g856
sg39
I00
sba(issf_api
Word
p874
(dp875
g6
I00
sg7
V\u0915\u093f
p876
sg9
(issf_api
FeatureSet
p877
(dp878
g12
(dp879
S'posn'
p880
S'40'
p881
sS'name'
p882
S'\xe0\xa4\x95\xe0\xa4\xbf'
p883
sS'af'
p884
S'\xe0\xa4\x95\xe0\xa4\xbf,avy,,,,,,'
p885
sS'chunkid'
p886
S'CCP'
p887
sS'drel'
p888
S'k2:VGF'
p889
sS'chunktype'
p890
S'head:CCP'
p891
ssbsg28
I00
sg29
I00
sg30
Nsg31
Nsg32
I2
sg33
I2
sg34
Nsg35
Nsg36
S'CC'
p892
sg38
g877
sg39
I00
sba(issf_api
Word
p893
(dp894
g6
I00
sg7
V\u0909\u0928\u0915\u0947
p895
sg9
(issf_api
FeatureSet
p896
(dp897
g12
(dp898
S'crefhead'
p899
S'\xe0\xa4\x89\xe0\xa4\xa8\xe0\xa4\x95\xe0\xa5\x87:i12'
p900
sS'posn'
p901
S'50'
p902
sS'name'
p903
S'\xe0\xa4\x89\xe0\xa4\xa8\xe0\xa4\x95\xe0\xa5\x87'
p904
sS'af'
p905
S'\xe0\xa4\xb5\xe0\xa4\xb9,pn,any,sg,3h,o,0_\xe0\xa4\xb2\xe0\xa4\xbf\xe0\xa4\x8f,ke'
p906
sS'chunkid'
p907
S'NP2'
p908
sS'creftype'
p909
S'Anaphora-C:i11'
p910
sS'chunktype'
p911
S'head:NP2'
p912
sS'vpos'
p913
S'vib_2'
p914
sS'cref'
p915
S'i12%1:t2'
p916
sS'drel'
p917
S'rt:VGNN'
p918
ssbsg28
I00
sg29
I00
sg30
Nsg31
Nsg32
I3
sg33
I2
sg34
Nsg35
Nsg36
S'PRP'
p919
sg38
g896
sg39
I00
sba(issf_api
Word
p920
(dp921
g6
I00
sg7
V\u0932\u093f\u090f
p922
sg9
(issf_api
FeatureSet
p923
(dp924
g12
(dp925
S'posn'
p926
S'60'
p927
sS'name'
p928
S'\xe0\xa4\xb2\xe0\xa4\xbf\xe0\xa4\x8f'
p929
sS'drel'
p930
S'lwg__psp:NP2'
p931
sS'chunktype'
p932
S'child:NP2'
p933
sS'af'
p934
S'\xe0\xa4\xb2\xe0\xa4\xbf\xe0\xa4\x8f,psp,,,,,,'
p935
ssbsg28
I00
sg29
I00
sg30
Nsg31
Nsg32
I3
sg33
I2
sg34
Nsg35
Nsg36
S'PSP'
p936
sg38
g923
sg39
I00
sba(issf_api
Word
p937
(dp938
g6
I00
sg7
V\u092a\u0940\u0938\u0940\u092c\u0940
p939
sg9
(issf_api
FeatureSet
p940
(dp941
g12
(dp942
S'crefhead'
p943
S'\xe0\xa4\xaa\xe0\xa5\x80\xe0\xa4\xb8\xe0\xa5\x80\xe0\xa4\xac\xe0\xa5\x80:i13'
p944
sS'posn'
p945
S'70'
p946
sS'name'
p947
S'\xe0\xa4\xaa\xe0\xa5\x80\xe0\xa4\xb8\xe0\xa5\x80\xe0\xa4\xac\xe0\xa5\x80'
p948
sS'af'
p949
S'\xe0\xa4\xaa\xe0\xa5\x80\xe0\xa4\xb8\xe0\xa5\x80\xe0\xa4\xac\xe0\xa5\x80,n,m,sg,3,d,0,0'
p950
sS'creftype'
p951
S'Coreference-Noun-Noun:i9'
p952
sS'drel'
p953
S'pof__cn:NP3'
p954
sS'chunktype'
p955
S'child:NP3'
p956
sS'cref'
p957
S'i13%1:t1,i14%0:t3'
p958
ssbsg28
I00
sg29
I00
sg30
Nsg31
Nsg32
I4
sg33
I2
sg34
Nsg35
Nsg36
S'NNC'
p959
sg38
g940
sg39
I00
sba(issf_api
Word
p960
(dp961
g6
I00
sg7
V\u0938\u0940\u0908\u0913
p962
sg9
(issf_api
FeatureSet
p963
(dp964
g12
(dp965
S'crefhead'
p966
S'\xe0\xa4\xb8\xe0\xa5\x80\xe0\xa4\x88\xe0\xa4\x93:i15'
p967
sS'posn'
p968
S'80'
p969
sS'name'
p970
S'\xe0\xa4\xb8\xe0\xa5\x80\xe0\xa4\x88\xe0\xa4\x93'
p971
sS'af'
p972
S'\xe0\xa4\xb8\xe0\xa5\x80\xe0\xa4\x88\xe0\xa4\x93,n,m,sg,3,d,0,0'
p973
sS'creftype'
p974
S'Coreference-Identity:i10'
p975
sS'drel'
p976
S'pof__cn:NP3'
p977
sS'chunktype'
p978
S'child:NP3'
p979
sS'cref'
p980
S'i15%1:t5,i14%0:t3'
p981
ssbsg28
I00
sg29
I00
sg30
Nsg31
Nsg32
I4
sg33
I2
sg34
Nsg35
Nsg36
S'NNC'
p982
sg38
g963
sg39
I00
sba(issf_api
Word
p983
(dp984
g6
I00
sg7
V\u092a\u0926
p985
sg9
(issf_api
FeatureSet
p986
(dp987
g12
(dp988
S'crefhead'
p989
S'\xe0\xa4\xaa\xe0\xa4\xa6:i14'
p990
sS'posn'
p991
S'90'
p992
sS'name'
p993
S'\xe0\xa4\xaa\xe0\xa4\xa6'
p994
sS'af'
p995
S'\xe0\xa4\xaa\xe0\xa4\xa6,n,m,sg,3,d,0,0'
p996
sS'chunkid'
p997
S'NP3'
p998
sS'creftype'
p999
S'Coreference-Identity:i5'
p1000
sS'chunktype'
p1001
S'head:NP3'
p1002
sS'crefchainhead'
p1003
S'i14:t3'
p1004
sS'cref'
p1005
S'i14%1:t3'
p1006
sS'drel'
p1007
S'k2:VGNN'
p1008
ssbsg28
I00
sg29
I00
sg30
Nsg31
Nsg32
I4
sg33
I2
sg34
Nsg35
Nsg36
S'NN'
p1009
sg38
g986
sg39
I00
sba(issf_api
Word
p1010
(dp1011
g6
I00
sg7
V\u091b\u094b\u095c\u0928\u0947
p1012
sg9
(issf_api
FeatureSet
p1013
(dp1014
g12
(dp1015
S'posn'
p1016
S'100'
p1017
sS'name'
p1018
S'\xe0\xa4\x9b\xe0\xa5\x8b\xe0\xa5\x9c\xe0\xa4\xa8\xe0\xa5\x87'
p1019
sS'af'
p1020
S'\xe0\xa4\x9b\xe0\xa5\x8b\xe0\xa4\xa1,v,any,sg,any,o,\xe0\xa4\xa8\xe0\xa4\xbe_\xe0\xa4\x95\xe0\xa4\xbe,nA'
p1021
sS'chunkid'
p1022
S'VGNN'
p1023
sS'drel'
p1024
S'r6:NP4'
p1025
sS'vpos'
p1026
S'tam_2'
p1027
sS'chunktype'
p1028
S'head:VGNN'
p1029
ssbsg28
I00
sg29
I00
sg30
Nsg31
Nsg32
I5
sg33
I2
sg34
Nsg35
Nsg36
S'VM'
p1030
sg38
g1013
sg39
I00
sba(issf_api
Word
p1031
(dp1032
g6
I00
sg7
V\u0915\u093e
p1033
sg9
(issf_api
FeatureSet
p1034
(dp1035
g12
(dp1036
S'posn'
p1037
S'110'
p1038
sS'name'
p1039
S'\xe0\xa4\x95\xe0\xa4\xbe'
p1040
sS'drel'
p1041
S'lwg__psp:VGNN'
p1042
sS'chunktype'
p1043
S'child:VGNN'
p1044
sS'af'
p1045
S'\xe0\xa4\x95\xe0\xa4\xbe,psp,m,sg,,d,,'
p1046
ssbsg28
I00
sg29
I00
sg30
Nsg31
Nsg32
I5
sg33
I2
sg34
Nsg35
Nsg36
S'PSP'
p1047
sg38
g1034
sg39
I00
sba(issf_api
Word
p1048
(dp1049
g6
I00
sg7
V\u092f\u0939
p1050
sg9
(issf_api
FeatureSet
p1051
(dp1052
g12
(dp1053
S'posn'
p1054
S'120'
p1055
sS'name'
p1056
S'\xe0\xa4\xaf\xe0\xa4\xb9'
p1057
sS'drel'
p1058
S'nmod__adj:NP4'
p1059
sS'chunktype'
p1060
S'child:NP4'
p1061
sS'af'
p1062
S'\xe0\xa4\xaf\xe0\xa4\xb9,pn,any,sg,3,d,,'
p1063
ssbsg28
I00
sg29
I00
sg30
Nsg31
Nsg32
I6
sg33
I2
sg34
Nsg35
Nsg36
S'DEM'
p1064
sg38
g1051
sg39
I00
sba(issf_api
Word
p1065
(dp1066
g6
I00
sg7
V\u0909\u091a\u093f\u0924
p1067
sg9
(issf_api
FeatureSet
p1068
(dp1069
g12
(dp1070
S'posn'
p1071
S'130'
p1072
sS'name'
p1073
S'\xe0\xa4\x89\xe0\xa4\x9a\xe0\xa4\xbf\xe0\xa4\xa4'
p1074
sS'drel'
p1075
S'nmod__adj:NP4'
p1076
sS'chunktype'
p1077
S'child:NP4'
p1078
sS'af'
p1079
S'\xe0\xa4\x89\xe0\xa4\x9a\xe0\xa4\xbf\xe0\xa4\xa4,adj,any,any,,d,,'
p1080
ssbsg28
I00
sg29
I00
sg30
Nsg31
Nsg32
I6
sg33
I2
sg34
Nsg35
Nsg36
S'JJ'
p1081
sg38
g1068
sg39
I00
sba(issf_api
Word
p1082
(dp1083
g6
I00
sg7
V\u0938\u092e\u092f
p1084
sg9
(issf_api
FeatureSet
p1085
(dp1086
g12
(dp1087
S'posn'
p1088
S'140'
p1089
sS'name'
p1090
S'\xe0\xa4\xb8\xe0\xa4\xae\xe0\xa4\xaf'
p1091
sS'af'
p1092
S'\xe0\xa4\xb8\xe0\xa4\xae\xe0\xa4\xaf,n,m,sg,3,d,0,0'
p1093
sS'chunkid'
p1094
S'NP4'
p1095
sS'drel'
p1096
S'k1:VGF2'
p1097
sS'chunktype'
p1098
S'head:NP4'
p1099
ssbsg28
I00
sg29
I00
sg30
Nsg31
Nsg32
I6
sg33
I2
sg34
Nsg35
Nsg36
S'NN'
p1100
sg38
g1085
sg39
I00
sba(issf_api
Word
p1101
(dp1102
g6
I00
sg7
V\u0939\u0948
p1103
sg9
(issf_api
FeatureSet
p1104
(dp1105
g12
(dp1106
S'posn'
p1107
S'150'
p1108
sS'name'
p1109
S'\xe0\xa4\xb9\xe0\xa5\x88'
p1110
sS'af'
p1111
S'\xe0\xa4\xb9\xe0\xa5\x88,v,any,sg,3,,\xe0\xa4\xb9\xe0\xa5\x88,hE'
p1112
sS'chunkid'
p1113
S'VGF2'
p1114
sS'stype'
p1115
S'declarative'
p1116
sS'drel'
p1117
S'ccof:CCP'
p1118
sS'voicetype'
p1119
S'active'
p1120
sS'chunktype'
p1121
S'head:VGF2'
p1122
ssbsg28
I00
sg29
I00
sg30
Nsg31
Nsg32
I7
sg33
I2
sg34
Nsg35
Nsg36
S'VM'
p1123
sg38
g1104
sg39
I00
sba(issf_api
Word
p1124
(dp1125
g6
I00
sg7
V\u0964
p1126
sg9
(issf_api
FeatureSet
p1127
(dp1128
g12
(dp1129
S'posn'
p1130
S'160'
p1131
sS'name'
p1132
S'\xe0\xa5\xa4'
p1133
sS'af'
p1134
S'\xe0\xa5\xa4,punc,,,,,,'
p1135
sS'chunkid'
p1136
S'BLK'
p1137
sS'drel'
p1138
S'rsym:VGF'
p1139
sS'chunktype'
p1140
S'head:BLK'
p1141
ssbsg28
I00
sg29
I00
sg30
Nsg31
Nsg32
I8
sg33
I2
sg34
Nsg35
Nsg36
S'SYM'
p1142
sg38
g1127
sg39
I00
sba(issf_api
Word
p1143
(dp1144
g6
I00
sg7
V\u0930\u092e\u0940\u091c
p1145
sg9
(issf_api
FeatureSet
p1146
(dp1147
g12
(dp1148
S'crefhead'
p1149
S'\xe0\xa4\xb0\xe0\xa4\xae\xe0\xa5\x80\xe0\xa4\x9c:i16'
p1150
sS'posn'
p1151
S'10'
p1152
sS'name'
p1153
S'\xe0\xa4\xb0\xe0\xa4\xae\xe0\xa5\x80\xe0\xa4\x9c'
p1154
sS'af'
p1155
S'\xe0\xa4\xb0\xe0\xa4\xae\xe0\xa5\x80\xe0\xa4\x9c,n,m,sg,3,o,0_\xe0\xa4\xa8\xe0\xa5\x87,0'
p1156
sS'chunkid'
p1157
S'NP'
p1158
sS'creftype'
p1159
S'Coreference-Identity:i12'
p1160
sS'chunktype'
p1161
S'head:NP'
p1162
sS'vpos'
p1163
S'vib_2'
p1164
sS'cref'
p1165
S'i16%1:t2'
p1166
sS'drel'
p1167
S'k1:VGF'
p1168
ssbsg28
I00
sg29
I00
sg30
Nsg31
Nsg32
I0
sg33
I3
sg34
Nsg35
Nsg36
S'NNP'
p1169
sg38
g1146
sg39
I00
sba(issf_api
Word
p1170
(dp1171
g6
I00
sg7
V\u0928\u0947
p1172
sg9
(issf_api
FeatureSet
p1173
(dp1174
g12
(dp1175
S'posn'
p1176
S'20'
p1177
sS'name'
p1178
S'\xe0\xa4\xa8\xe0\xa5\x87'
p1179
sS'drel'
p1180
S'lwg__psp:NP'
p1181
sS'chunktype'
p1182
S'child:NP'
p1183
sS'af'
p1184
S'\xe0\xa4\xa8\xe0\xa5\x87,psp,,,,,,'
p1185
ssbsg28
I00
sg29
I00
sg30
Nsg31
Nsg32
I0
sg33
I3
sg34
Nsg35
Nsg36
S'PSP'
p1186
sg38
g1173
sg39
I00
sba(issf_api
Word
p1187
(dp1188
g6
I00
sg7
V\u0915\u0939\u093e
p1189
sg9
(issf_api
FeatureSet
p1190
(dp1191
g12
(dp1192
S'posn'
p1193
S'30'
p1194
sS'name'
p1195
S'\xe0\xa4\x95\xe0\xa4\xb9\xe0\xa4\xbe'
p1196
sS'af'
p1197
S'\xe0\xa4\x95\xe0\xa4\xb9,v,m,sg,any,,\xe0\xa4\xaf\xe0\xa4\xbe,yA'
p1198
sS'chunkid'
p1199
S'VGF'
p1200
sS'chunktype'
p1201
S'head:VGF'
p1202
sS'voicetype'
p1203
S'active'
p1204
sS'stype'
p1205
S'declarative'
p1206
ssbsg28
I00
sg29
I00
sg30
Nsg31
Nsg32
I1
sg33
I3
sg34
Nsg35
Nsg36
S'VM'
p1207
sg38
g1190
sg39
I00
sba(issf_api
Word
p1208
(dp1209
g6
I00
sg7
V\u0915\u093f
p1210
sg9
(issf_api
FeatureSet
p1211
(dp1212
g12
(dp1213
S'posn'
p1214
S'40'
p1215
sS'name'
p1216
S'\xe0\xa4\x95\xe0\xa4\xbf'
p1217
sS'af'
p1218
S'\xe0\xa4\x95\xe0\xa4\xbf,avy,,,,,,'
p1219
sS'chunkid'
p1220
S'CCP'
p1221
sS'drel'
p1222
S'k2:VGF'
p1223
sS'chunktype'
p1224
S'head:CCP'
p1225
ssbsg28
I00
sg29
I00
sg30
Nsg31
Nsg32
I2
sg33
I3
sg34
Nsg35
Nsg36
S'CC'
p1226
sg38
g1211
sg39
I00
sba(issf_api
Word
p1227
(dp1228
g6
I00
sg7
V\u0909\u0928\u094d\u0939\u094b\u0902\u0928\u0947
p1229
sg9
(issf_api
FeatureSet
p1230
(dp1231
g12
(dp1232
S'crefhead'
p1233
S'\xe0\xa4\x89\xe0\xa4\xa8\xe0\xa5\x8d\xe0\xa4\xb9\xe0\xa5\x8b\xe0\xa4\x82\xe0\xa4\xa8\xe0\xa5\x87:i17'
p1234
sS'posn'
p1235
S'50'
p1236
sS'name'
p1237
S'\xe0\xa4\x89\xe0\xa4\xa8\xe0\xa5\x8d\xe0\xa4\xb9\xe0\xa5\x8b\xe0\xa4\x82\xe0\xa4\xa8\xe0\xa5\x87'
p1238
sS'af'
p1239
S'\xe0\xa4\xb5\xe0\xa4\xb9,pn,any,sg,3h,o,\xe0\xa4\xa8\xe0\xa5\x87,ne'
p1240
sS'chunkid'
p1241
S'NP2'
p1242
sS'creftype'
p1243
S'Anaphora-C:i16'
p1244
sS'chunktype'
p1245
S'head:NP2'
p1246
sS'cref'
p1247
S'i17%1:t2'
p1248
sS'drel'
p1249
S'k1:VGF2'
p1250
ssbsg28
I00
sg29
I00
sg30
Nsg31
Nsg32
I3
sg33
I3
sg34
Nsg35
Nsg36
S'PRP'
p1251
sg38
g1230
sg39
I00
sba(issf_api
Word
p1252
(dp1253
g6
I00
sg7
V\u092c\u094b\u0930\u094d\u0921
p1254
sg9
(issf_api
FeatureSet
p1255
(dp1256
g12
(dp1257
S'crefhead'
p1258
S'\xe0\xa4\xac\xe0\xa5\x8b\xe0\xa4\xb0\xe0\xa5\x8d\xe0\xa4\xa1:i18'
p1259
sS'posn'
p1260
S'60'
p1261
sS'name'
p1262
S'\xe0\xa4\xac\xe0\xa5\x8b\xe0\xa4\xb0\xe0\xa5\x8d\xe0\xa4\xa1'
p1263
sS'af'
p1264
S'\xe0\xa4\xac\xe0\xa5\x8b\xe0\xa4\xb0\xe0\xa5\x8d\xe0\xa4\xa1,n,m,sg,3,o,0_\xe0\xa4\x95\xe0\xa5\x8b,0'
p1265
sS'chunkid'
p1266
S'NP3'
p1267
sS'creftype'
p1268
S'Coreference-Noun-Noun:i13'
p1269
sS'chunktype'
p1270
S'head:NP3'
p1271
sS'vpos'
p1272
S'vib_2'
p1273
sS'cref'
p1274
S'i18%1:t1'
p1275
sS'drel'
p1276
S'k4:VGF2'
p1277
ssbsg28
I00
sg29
I00
sg30
Nsg31
Nsg32
I4
sg33
I3
sg34
Nsg35
Nsg36
S'NN'
p1278
sg38
g1255
sg39
I00
sba(issf_api
Word
p1279
(dp1280
g6
I00
sg7
V\u0915\u094b
p1281
sg9
(issf_api
FeatureSet
p1282
(dp1283
g12
(dp1284
S'posn'
p1285
S'70'
p1286
sS'name'
p1287
S'\xe0\xa4\x95\xe0\xa5\x8b'
p1288
sS'drel'
p1289
S'lwg__psp:NP3'
p1290
sS'chunktype'
p1291
S'child:NP3'
p1292
sS'af'
p1293
S'\xe0\xa4\x95\xe0\xa5\x8b,psp,,,,,,'
p1294
ssbsg28
I00
sg29
I00
sg30
Nsg31
Nsg32
I4
sg33
I3
sg34
Nsg35
Nsg36
S'PSP'
p1295
sg38
g1282
sg39
I00
sba(issf_api
Word
p1296
(dp1297
g6
I00
sg7
V\u0938\u093e\u095e
p1298
sg9
(issf_api
FeatureSet
p1299
(dp1300
g12
(dp1301
S'posn'
p1302
S'80'
p1303
sS'name'
p1304
S'\xe0\xa4\xb8\xe0\xa4\xbe\xe0\xa5\x9e'
p1305
sS'af'
p1306
S'\xe0\xa4\xb8\xe0\xa4\xbe\xe0\xa4\xab,adj,any,any,,,,'
p1307
sS'chunkid'
p1308
S'JJP'
p1309
sS'drel'
p1310
S'pof:VGF2'
p1311
sS'chunktype'
p1312
S'head:JJP'
p1313
ssbsg28
I00
sg29
I00
sg30
Nsg31
Nsg32
I5
sg33
I3
sg34
Nsg35
Nsg36
S'JJ'
p1314
sg38
g1299
sg39
I00
sba(issf_api
Word
p1315
(dp1316
g6
I00
sg7
V\u0915\u0930
p1317
sg9
(issf_api
FeatureSet
p1318
(dp1319
g12
(dp1320
S'posn'
p1321
S'90'
p1322
sS'name'
p1323
S'\xe0\xa4\x95\xe0\xa4\xb0'
p1324
sS'af'
p1325
S'\xe0\xa4\x95\xe0\xa4\xb0,v,m,sg,3,,0_\xe0\xa4\xa6\xe0\xa5\x87+\xe0\xa4\xaf\xe0\xa4\xbe_\xe0\xa4\xb9\xe0\xa5\x88,0'
p1326
sS'chunkid'
p1327
S'VGF2'
p1328
sS'stype'
p1329
S'declarative'
p1330
sS'drel'
p1331
S'ccof:CCP'
p1332
sS'voicetype'
p1333
S'active'
p1334
sS'vpos'
p1335
S'tam_2_3'
p1336
sS'chunktype'
p1337
S'head:VGF2'
p1338
ssbsg28
I00
sg29
I00
sg30
Nsg31
Nsg32
I6
sg33
I3
sg34
Nsg35
Nsg36
S'VM'
p1339
sg38
g1318
sg39
I00
sba(issf_api
Word
p1340
(dp1341
g6
I00
sg7
V\u0926\u093f\u092f\u093e
p1342
sg9
(issf_api
FeatureSet
p1343
(dp1344
g12
(dp1345
S'posn'
p1346
S'100'
p1347
sS'name'
p1348
S'\xe0\xa4\xa6\xe0\xa4\xbf\xe0\xa4\xaf\xe0\xa4\xbe'
p1349
sS'drel'
p1350
S'lwg__vaux:VGF2'
p1351
sS'chunktype'
p1352
S'child:VGF2'
p1353
sS'af'
p1354
S'\xe0\xa4\xa6\xe0\xa5\x87,v,m,sg,any,,\xe0\xa4\xaf\xe0\xa4\xbe,yA'
p1355
ssbsg28
I00
sg29
I00
sg30
Nsg31
Nsg32
I6
sg33
I3
sg34
Nsg35
Nsg36
S'VAUX'
p1356
sg38
g1343
sg39
I00
sba(issf_api
Word
p1357
(dp1358
g6
I00
sg7
V\u0939\u0948
p1359
sg9
(issf_api
FeatureSet
p1360
(dp1361
g12
(dp1362
S'posn'
p1363
S'110'
p1364
sS'name'
p1365
S'\xe0\xa4\xb9\xe0\xa5\x88'
p1366
sS'drel'
p1367
S'lwg__vaux:VGF2'
p1368
sS'chunktype'
p1369
S'child:VGF2'
p1370
sS'af'
p1371
S'\xe0\xa4\xb9\xe0\xa5\x88,v,any,sg,3,,\xe0\xa4\xb9\xe0\xa5\x88,hE'
p1372
ssbsg28
I00
sg29
I00
sg30
Nsg31
Nsg32
I6
sg33
I3
sg34
Nsg35
Nsg36
S'VAUX'
p1373
sg38
g1360
sg39
I00
sba(issf_api
Word
p1374
(dp1375
g6
I00
sg7
V\u0915\u093f
p1376
sg9
(issf_api
FeatureSet
p1377
(dp1378
g12
(dp1379
S'posn'
p1380
S'120'
p1381
sS'name'
p1382
S'\xe0\xa4\x95\xe0\xa4\xbf2'
p1383
sS'af'
p1384
S'\xe0\xa4\x95\xe0\xa4\xbf,avy,,,,,,'
p1385
sS'chunkid'
p1386
S'CCP2'
p1387
sS'drel'
p1388
S'rs:NULL__NP'
p1389
sS'chunktype'
p1390
S'head:CCP2'
p1391
ssbsg28
I00
sg29
I00
sg30
Nsg31
Nsg32
I7
sg33
I3
sg34
Nsg35
Nsg36
S'CC'
p1392
sg38
g1377
sg39
I00
sba(issf_api
Word
p1393
(dp1394
g6
I00
sg7
V\u0909\u0928\u0915\u0947
p1395
sg9
(issf_api
FeatureSet
p1396
(dp1397
g12
(dp1398
S'crefhead'
p1399
S'\xe0\xa4\x89\xe0\xa4\xa8\xe0\xa4\x95\xe0\xa5\x87:i19'
p1400
sS'posn'
p1401
S'130'
p1402
sS'name'
p1403
S'\xe0\xa4\x89\xe0\xa4\xa8\xe0\xa4\x95\xe0\xa5\x87'
p1404
sS'af'
p1405
S'\xe0\xa4\xb5\xe0\xa4\xb9,pn,any,sg,3h,o,0_\xe0\xa4\xb2\xe0\xa4\xbf\xe0\xa4\x8f,ke'
p1406
sS'chunkid'
p1407
S'NP4'
p1408
sS'creftype'
p1409
S'Anaphora-C:i17'
p1410
sS'chunktype'
p1411
S'head:NP4'
p1412
sS'vpos'
p1413
S'vib_2'
p1414
sS'cref'
p1415
S'i19%1:t2'
p1416
sS'drel'
p1417
S'rt:VGF3'
p1418
ssbsg28
I00
sg29
I00
sg30
Nsg31
Nsg32
I8
sg33
I3
sg34
Nsg35
Nsg36
S'PRP'
p1419
sg38
g1396
sg39
I00
sba(issf_api
Word
p1420
(dp1421
g6
I00
sg7
V\u0932\u093f\u090f
p1422
sg9
(issf_api
FeatureSet
p1423
(dp1424
g12
(dp1425
S'posn'
p1426
S'140'
p1427
sS'name'
p1428
S'\xe0\xa4\xb2\xe0\xa4\xbf\xe0\xa4\x8f'
p1429
sS'drel'
p1430
S'lwg__psp:NP4'
p1431
sS'chunktype'
p1432
S'child:NP4'
p1433
sS'af'
p1434
S'\xe0\xa4\xb2\xe0\xa4\xbf\xe0\xa4\x8f,psp,,,,,,'
p1435
ssbsg28
I00
sg29
I00
sg30
Nsg31
Nsg32
I8
sg33
I3
sg34
Nsg35
Nsg36
S'PSP'
p1436
sg38
g1423
sg39
I00
sba(issf_api
Word
p1437
(dp1438
g6
I00
sg7
V\u092e\u0940\u0921\u093f\u092f\u093e
p1439
sg9
(issf_api
FeatureSet
p1440
(dp1441
g12
(dp1442
S'crefhead'
p1443
S'\xe0\xa4\xae\xe0\xa5\x80\xe0\xa4\xa1\xe0\xa4\xbf\xe0\xa4\xaf\xe0\xa4\xbe:i20'
p1444
sS'posn'
p1445
S'160'
p1446
sS'name'
p1447
S'\xe0\xa4\xae\xe0\xa5\x80\xe0\xa4\xa1\xe0\xa4\xbf\xe0\xa4\xaf\xe0\xa4\xbe'
p1448
sS'af'
p1449
S'\xe0\xa4\xae\xe0\xa5\x80\xe0\xa4\xa1\xe0\xa4\xbf\xe0\xa4\xaf\xe0\xa4\xbe,n,m,sg,3,d,0,0'
p1450
sS'drel'
p1451
S'pof__cn:NP5'
p1452
sS'crefchainhead'
p1453
S'i20:t6'
p1454
sS'chunktype'
p1455
S'child:NP5'
p1456
sS'cref'
p1457
S'i20%1:t6'
p1458
ssbsg28
I00
sg29
I00
sg30
Nsg31
Nsg32
I9
sg33
I3
sg34
Nsg35
Nsg36
S'NNC'
p1459
sg38
g1440
sg39
I00
sba(issf_api
Word
p1460
(dp1461
g6
I00
sg7
V\u0915\u094d\u0937\u0947\u0924\u094d\u0930
p1462
sg9
(issf_api
FeatureSet
p1463
(dp1464
g12
(dp1465
S'posn'
p1466
S'160'
p1467
sS'name'
p1468
S'\xe0\xa4\x95\xe0\xa5\x8d\xe0\xa4\xb7\xe0\xa5\x87\xe0\xa4\xa4\xe0\xa5\x8d\xe0\xa4\xb0'
p1469
sS'af'
p1470
S'\xe0\xa4\x95\xe0\xa5\x8d\xe0\xa4\xb7\xe0\xa5\x87\xe0\xa4\xa4\xe0\xa5\x8d\xe0\xa4\xb0,n,m,sg,3,d,0,0'
p1471
sS'chunkid'
p1472
S'NP5'
p1473
sS'drel'
p1474
S'k1:VGF3'
p1475
sS'chunktype'
p1476
S'head:NP5'
p1477
ssbsg28
I00
sg29
I00
sg30
Nsg31
Nsg32
I9
sg33
I3
sg34
Nsg35
Nsg36
S'NN'
p1478
sg38
g1463
sg39
I00
sba(issf_api
Word
p1479
(dp1480
g6
I00
sg7
V\u092c\u0947\u0939\u0926
p1481
sg9
(issf_api
FeatureSet
p1482
(dp1483
g12
(dp1484
S'posn'
p1485
S'170'
p1486
sS'name'
p1487
S'\xe0\xa4\xac\xe0\xa5\x87\xe0\xa4\xb9\xe0\xa4\xa6'
p1488
sS'drel'
p1489
S'jjmod__intf:JJP2'
p1490
sS'chunktype'
p1491
S'child:JJP2'
p1492
sS'af'
p1493
S'\xe0\xa4\xac\xe0\xa5\x87\xe0\xa4\xb9\xe0\xa4\xa6,avy,,,,,,'
p1494
ssbsg28
I00
sg29
I00
sg30
Nsg31
Nsg32
I10
sg33
I3
sg34
Nsg35
Nsg36
S'INTF'
p1495
sg38
g1482
sg39
I00
sba(issf_api
Word
p1496
(dp1497
g6
I00
sg7
V\u092e\u0939\u0924\u094d\u0935\u092a\u0942\u0930\u094d\u0923
p1498
sg9
(issf_api
FeatureSet
p1499
(dp1500
g12
(dp1501
S'posn'
p1502
S'180'
p1503
sS'name'
p1504
S'\xe0\xa4\xae\xe0\xa4\xb9\xe0\xa4\xa4\xe0\xa5\x8d\xe0\xa4\xb5\xe0\xa4\xaa\xe0\xa5\x82\xe0\xa4\xb0\xe0\xa5\x8d\xe0\xa4\xa3'
p1505
sS'af'
p1506
S'\xe0\xa4\xae\xe0\xa4\xb9\xe0\xa4\xa4\xe0\xa5\x8d\xe0\xa4\xb5\xe0\xa4\xaa\xe0\xa5\x82\xe0\xa4\xb0\xe0\xa5\x8d\xe0\xa4\xa3,adj,any,any,,,,'
p1507
sS'chunkid'
p1508
S'JJP2'
p1509
sS'drel'
p1510
S'k1s:VGF3'
p1511
sS'chunktype'
p1512
S'head:JJP2'
p1513
ssbsg28
I00
sg29
I00
sg30
Nsg31
Nsg32
I10
sg33
I3
sg34
Nsg35
Nsg36
S'JJ'
p1514
sg38
g1499
sg39
I00
sba(issf_api
Word
p1515
(dp1516
g6
I00
sg7
V\u0939\u0948
p1517
sg9
(issf_api
FeatureSet
p1518
(dp1519
g12
(dp1520
S'posn'
p1521
S'190'
p1522
sS'name'
p1523
S'\xe0\xa4\xb9\xe0\xa5\x882'
p1524
sS'af'
p1525
S'\xe0\xa4\xb9\xe0\xa5\x88,v,any,sg,3,,\xe0\xa4\xb9\xe0\xa5\x88,hE'
p1526
sS'chunkid'
p1527
S'VGF3'
p1528
sS'stype'
p1529
S'declarative'
p1530
sS'drel'
p1531
S'ccof:CCP2'
p1532
sS'voicetype'
p1533
S'active'
p1534
sS'chunktype'
p1535
S'head:VGF3'
p1536
ssbsg28
I00
sg29
I00
sg30
Nsg31
Nsg32
I11
sg33
I3
sg34
Nsg35
Nsg36
S'VM'
p1537
sg38
g1518
sg39
I00
sba(issf_api
Word
p1538
(dp1539
g6
I00
sg7
V\u0964
p1540
sg9
(issf_api
FeatureSet
p1541
(dp1542
g12
(dp1543
S'posn'
p1544
S'200'
p1545
sS'name'
p1546
S'\xe0\xa5\xa4'
p1547
sS'af'
p1548
S'\xe0\xa5\xa4,punc,,,,,,'
p1549
sS'chunkid'
p1550
S'BLK'
p1551
sS'drel'
p1552
S'rsym:VGF'
p1553
sS'chunktype'
p1554
S'head:BLK'
p1555
ssbsg28
I00
sg29
I00
sg30
Nsg31
Nsg32
I12
sg33
I3
sg34
Nsg35
Nsg36
S'SYM'
p1556
sg38
g1541
sg39
I00
sba(issf_api
Word
p1557
(dp1558
g6
I00
sg7
V\u0939\u093e\u0932\u093e\u0902\u0915\u093f
p1559
sg9
(issf_api
FeatureSet
p1560
(dp1561
g12
(dp1562
S'posn'
p1563
S'10'
p1564
sS'chunkid'
p1565
S'CCP'
p1566
sS'name'
p1567
S'\xe0\xa4\xb9\xe0\xa4\xbe\xe0\xa4\xb2\xe0\xa4\xbe\xe0\xa4\x82\xe0\xa4\x95\xe0\xa4\xbf'
p1568
sS'chunktype'
p1569
S'head:CCP'
p1570
sS'af'
p1571
S'\xe0\xa4\xb9\xe0\xa4\xbe\xe0\xa4\xb2\xe0\xa4\xbe\xe0\xa4\x82\xe0\xa4\x95\xe0\xa4\xbf,avy,,,,,,'
p1572
ssbsg28
I00
sg29
I00
sg30
Nsg31
Nsg32
I0
sg33
I4
sg34
Nsg35
Nsg36
S'CC'
p1573
sg38
g1560
sg39
I00
sba(issf_api
Word
p1574
(dp1575
g6
I00
sg7
V\u0909\u0928\u094d\u0939\u094b\u0902\u0928\u0947
p1576
sg9
(issf_api
FeatureSet
p1577
(dp1578
g12
(dp1579
S'crefhead'
p1580
S'\xe0\xa4\x89\xe0\xa4\xa8\xe0\xa5\x8d\xe0\xa4\xb9\xe0\xa5\x8b\xe0\xa4\x82\xe0\xa4\xa8\xe0\xa5\x87:i21'
p1581
sS'posn'
p1582
S'20'
p1583
sS'name'
p1584
S'\xe0\xa4\x89\xe0\xa4\xa8\xe0\xa5\x8d\xe0\xa4\xb9\xe0\xa5\x8b\xe0\xa4\x82\xe0\xa4\xa8\xe0\xa5\x87'
p1585
sS'af'
p1586
S'\xe0\xa4\xb5\xe0\xa4\xb9,pn,any,sg,3h,o,\xe0\xa4\xa8\xe0\xa5\x87,ne'
p1587
sS'chunkid'
p1588
S'NP'
p1589
sS'creftype'
p1590
S'Anaphora-C:i19'
p1591
sS'chunktype'
p1592
S'head:NP'
p1593
sS'cref'
p1594
S'i21%1:t2'
p1595
sS'drel'
p1596
S'k1:VGF'
p1597
ssbsg28
I00
sg29
I00
sg30
Nsg31
Nsg32
I1
sg33
I4
sg34
Nsg35
Nsg36
S'PRP'
p1598
sg38
g1577
sg39
I00
sba(issf_api
Word
p1599
(dp1600
g6
I00
sg7
V\u0907\u0938
p1601
sg9
(issf_api
FeatureSet
p1602
(dp1603
g12
(dp1604
S'posn'
p1605
S'30'
p1606
sS'name'
p1607
S'\xe0\xa4\x87\xe0\xa4\xb8'
p1608
sS'drel'
p1609
S'nmod__adj:NP2'
p1610
sS'chunktype'
p1611
S'child:NP2'
p1612
sS'af'
p1613
S'\xe0\xa4\xaf\xe0\xa4\xb9,pn,any,sg,3,o,,'
p1614
ssbsg28
I00
sg29
I00
sg30
Nsg31
Nsg32
I2
sg33
I4
sg34
Nsg35
Nsg36
S'DEM'
p1615
sg38
g1602
sg39
I00
sba(issf_api
Word
p1616
(dp1617
g6
I00
sg7
V\u092c\u093e\u0924
p1618
sg9
(issf_api
FeatureSet
p1619
(dp1620
g12
(dp1621
S'posn'
p1622
S'40'
p1623
sS'name'
p1624
S'\xe0\xa4\xac\xe0\xa4\xbe\xe0\xa4\xa4'
p1625
sS'af'
p1626
S'\xe0\xa4\xac\xe0\xa4\xbe\xe0\xa4\xa4,n,f,sg,3,o,0_\xe0\xa4\xb8\xe0\xa5\x87,0'
p1627
sS'chunkid'
p1628
S'NP2'
p1629
sS'drel'
p1630
S'k2:VGF'
p1631
sS'vpos'
p1632
S'vib_3'
p1633
sS'chunktype'
p1634
S'head:NP2'
p1635
ssbsg28
I00
sg29
I00
sg30
Nsg31
Nsg32
I2
sg33
I4
sg34
Nsg35
Nsg36
S'NN'
p1636
sg38
g1619
sg39
I00
sba(issf_api
Word
p1637
(dp1638
g6
I00
sg7
V\u0938\u0947
p1639
sg9
(issf_api
FeatureSet
p1640
(dp1641
g12
(dp1642
S'posn'
p1643
S'50'
p1644
sS'name'
p1645
S'\xe0\xa4\xb8\xe0\xa5\x87'
p1646
sS'drel'
p1647
S'lwg__psp:NP2'
p1648
sS'chunktype'
p1649
S'child:NP2'
p1650
sS'af'
p1651
S'\xe0\xa4\xb8\xe0\xa5\x87,psp,,,,,,'
p1652
ssbsg28
I00
sg29
I00
sg30
Nsg31
Nsg32
I2
sg33
I4
sg34
Nsg35
Nsg36
S'PSP'
p1653
sg38
g1640
sg39
I00
sba(issf_api
Word
p1654
(dp1655
g6
I00
sg7
V\u0907\u0928\u0915\u093e\u0930
p1656
sg9
(issf_api
FeatureSet
p1657
(dp1658
g12
(dp1659
S'posn'
p1660
S'60'
p1661
sS'name'
p1662
S'\xe0\xa4\x87\xe0\xa4\xa8\xe0\xa4\x95\xe0\xa4\xbe\xe0\xa4\xb0'
p1663
sS'af'
p1664
S'\xe0\xa4\x87\xe0\xa4\xa8\xe0\xa4\x95\xe0\xa4\xbe\xe0\xa4\xb0,n,m,sg,3,d,0,0'
p1665
sS'chunkid'
p1666
S'NP3'
p1667
sS'drel'
p1668
S'pof:VGF'
p1669
sS'chunktype'
p1670
S'head:NP3'
p1671
ssbsg28
I00
sg29
I00
sg30
Nsg31
Nsg32
I3
sg33
I4
sg34
Nsg35
Nsg36
S'NN'
p1672
sg38
g1657
sg39
I00
sba(issf_api
Word
p1673
(dp1674
g6
I00
sg7
V\u0915\u093f\u092f\u093e
p1675
sg9
(issf_api
FeatureSet
p1676
(dp1677
g12
(dp1678
S'posn'
p1679
S'70'
p1680
sS'name'
p1681
S'\xe0\xa4\x95\xe0\xa4\xbf\xe0\xa4\xaf\xe0\xa4\xbe'
p1682
sS'af'
p1683
S'\xe0\xa4\x95\xe0\xa4\xb0,v,m,sg,any,,\xe0\xa4\xaf\xe0\xa4\xbe,yA'
p1684
sS'chunkid'
p1685
S'VGF'
p1686
sS'stype'
p1687
S'declarative'
p1688
sS'drel'
p1689
S'ccof:CCP'
p1690
sS'voicetype'
p1691
S'active'
p1692
sS'chunktype'
p1693
S'head:VGF'
p1694
ssbsg28
I00
sg29
I00
sg30
Nsg31
Nsg32
I4
sg33
I4
sg34
Nsg35
Nsg36
S'VM'
p1695
sg38
g1676
sg39
I00
sba(issf_api
Word
p1696
(dp1697
g6
I00
sg7
V\u0915\u093f
p1698
sg9
(issf_api
FeatureSet
p1699
(dp1700
g12
(dp1701
S'posn'
p1702
S'80'
p1703
sS'name'
p1704
S'\xe0\xa4\x95\xe0\xa4\xbf'
p1705
sS'af'
p1706
S'\xe0\xa4\x95\xe0\xa4\xbf,avy,,,,,,'
p1707
sS'chunkid'
p1708
S'CCP2'
p1709
sS'drel'
p1710
S'rs:NP2'
p1711
sS'chunktype'
p1712
S'head:CCP2'
p1713
ssbsg28
I00
sg29
I00
sg30
Nsg31
Nsg32
I5
sg33
I4
sg34
Nsg35
Nsg36
S'CC'
p1714
sg38
g1699
sg39
I00
sba(issf_api
Word
p1715
(dp1716
g6
I00
sg7
V\u0909\u0928\u094d\u0939\u094b\u0902\u0928\u0947
p1717
sg9
(issf_api
FeatureSet
p1718
(dp1719
g12
(dp1720
S'crefhead'
p1721
S'\xe0\xa4\x89\xe0\xa4\xa8\xe0\xa5\x8d\xe0\xa4\xb9\xe0\xa5\x8b\xe0\xa4\x82\xe0\xa4\xa8\xe0\xa5\x87:i22'
p1722
sS'posn'
p1723
S'90'
p1724
sS'name'
p1725
S'\xe0\xa4\x89\xe0\xa4\xa8\xe0\xa5\x8d\xe0\xa4\xb9\xe0\xa5\x8b\xe0\xa4\x82\xe0\xa4\xa8\xe0\xa5\x872'
p1726
sS'af'
p1727
S'\xe0\xa4\xb5\xe0\xa4\xb9,pn,any,sg,3h,o,\xe0\xa4\xa8\xe0\xa5\x87,ne'
p1728
sS'chunkid'
p1729
S'NP4'
p1730
sS'creftype'
p1731
S'Anaphora-C:i21'
p1732
sS'chunktype'
p1733
S'head:NP4'
p1734
sS'cref'
p1735
S'i22%1:t2'
p1736
sS'drel'
p1737
S'k1:VGF2'
p1738
ssbsg28
I00
sg29
I00
sg30
Nsg31
Nsg32
I6
sg33
I4
sg34
Nsg35
Nsg36
S'PRP'
p1739
sg38
g1718
sg39
I00
sba(issf_api
Word
p1740
(dp1741
g6
I00
sg7
V\u0907\u0938\u094d\u0924\u0940\u095e\u093e
p1742
sg9
(issf_api
FeatureSet
p1743
(dp1744
g12
(dp1745
S'crefhead'
p1746
S'\xe0\xa4\x87\xe0\xa4\xb8\xe0\xa5\x8d\xe0\xa4\xa4\xe0\xa5\x80\xe0\xa5\x9e\xe0\xa4\xbe:i23'
p1747
sS'posn'
p1748
S'100'
p1749
sS'name'
p1750
S'\xe0\xa4\x87\xe0\xa4\xb8\xe0\xa5\x8d\xe0\xa4\xa4\xe0\xa5\x80\xe0\xa5\x9e\xe0\xa4\xbe'
p1751
sS'af'
p1752
S'\xe0\xa4\x87\xe0\xa4\xb8\xe0\xa5\x8d\xe0\xa4\xa4\xe0\xa5\x80\xe0\xa4\xab\xe0\xa4\xbe,n,m,sg,3,d,0,0'
p1753
sS'chunkid'
p1754
S'NP5'
p1755
sS'creftype'
p1756
S'Coreference-Identity:i6'
p1757
sS'chunktype'
p1758
S'head:NP5'
p1759
sS'cref'
p1760
S'i23%1:t4'
p1761
sS'drel'
p1762
S'k2:VGF2'
p1763
ssbsg28
I00
sg29
I00
sg30
Nsg31
Nsg32
I7
sg33
I4
sg34
Nsg35
Nsg36
S'NN'
p1764
sg38
g1743
sg39
I00
sba(issf_api
Word
p1765
(dp1766
g6
I00
sg7
V\u0906\u0932\u094b\u091a\u0928\u093e\u0913\u0902
p1767
sg9
(issf_api
FeatureSet
p1768
(dp1769
g12
(dp1770
S'posn'
p1771
S'110'
p1772
sS'name'
p1773
S'\xe0\xa4\x86\xe0\xa4\xb2\xe0\xa5\x8b\xe0\xa4\x9a\xe0\xa4\xa8\xe0\xa4\xbe\xe0\xa4\x93\xe0\xa4\x82'
p1774
sS'af'
p1775
S'\xe0\xa4\x86\xe0\xa4\xb2\xe0\xa5\x8b\xe0\xa4\x9a\xe0\xa4\xa8\xe0\xa4\xbe,n,f,pl,3,o,0_\xe0\xa4\x95\xe0\xa4\xbe_\xe0\xa4\xb5\xe0\xa4\x9c\xe0\xa4\xb9_\xe0\xa4\xb8\xe0\xa5\x87,0'
p1776
sS'chunkid'
p1777
S'NP6'
p1778
sS'drel'
p1779
S'rh:VGF2'
p1780
sS'vpos'
p1781
S'vib_2_3_4'
p1782
sS'chunktype'
p1783
S'head:NP6'
p1784
ssbsg28
I00
sg29
I00
sg30
Nsg31
Nsg32
I8
sg33
I4
sg34
Nsg35
Nsg36
S'NN'
p1785
sg38
g1768
sg39
I00
sba(issf_api
Word
p1786
(dp1787
g6
I00
sg7
V\u0915\u0940
p1788
sg9
(issf_api
FeatureSet
p1789
(dp1790
g12
(dp1791
S'posn'
p1792
S'120'
p1793
sS'name'
p1794
S'\xe0\xa4\x95\xe0\xa5\x80'
p1795
sS'drel'
p1796
S'lwg__psp:NP6'
p1797
sS'chunktype'
p1798
S'child:NP6'
p1799
sS'af'
p1800
S'\xe0\xa4\x95\xe0\xa4\xbe,psp,f,,,o,,'
p1801
ssbsg28
I00
sg29
I00
sg30
Nsg31
Nsg32
I8
sg33
I4
sg34
Nsg35
Nsg36
S'PSP'
p1802
sg38
g1789
sg39
I00
sba(issf_api
Word
p1803
(dp1804
g6
I00
sg7
V\u0935\u091c\u0939
p1805
sg9
(issf_api
FeatureSet
p1806
(dp1807
g12
(dp1808
S'posn'
p1809
S'120'
p1810
sS'name'
p1811
S'\xe0\xa4\xb5\xe0\xa4\x9c\xe0\xa4\xb9'
p1812
sS'drel'
p1813
S'lwg__psp:NP6'
p1814
sS'chunktype'
p1815
S'child:NP6'
p1816
sS'af'
p1817
S'\xe0\xa4\xb5\xe0\xa4\x9c\xe0\xa4\xb9,n,f,,,o,,'
p1818
ssbsg28
I00
sg29
I00
sg30
Nsg31
Nsg32
I8
sg33
I4
sg34
Nsg35
Nsg36
S'PSP'
p1819
sg38
g1806
sg39
I00
sba(issf_api
Word
p1820
(dp1821
g6
I00
sg7
V\u0938\u0947
p1822
sg9
(issf_api
FeatureSet
p1823
(dp1824
g12
(dp1825
S'posn'
p1826
S'140'
p1827
sS'name'
p1828
S'\xe0\xa4\xb8\xe0\xa5\x872'
p1829
sS'drel'
p1830
S'lwg__psp:NP6'
p1831
sS'chunktype'
p1832
S'child:NP6'
p1833
sS'af'
p1834
S'\xe0\xa4\xb8\xe0\xa5\x87,psp,,,,,,'
p1835
ssbsg28
I00
sg29
I00
sg30
Nsg31
Nsg32
I8
sg33
I4
sg34
Nsg35
Nsg36
S'PSP'
p1836
sg38
g1823
sg39
I00
sba(issf_api
Word
p1837
(dp1838
g6
I00
sg7
V\u0926\u093f\u092f\u093e
p1839
sg9
(issf_api
FeatureSet
p1840
(dp1841
g12
(dp1842
S'posn'
p1843
S'150'
p1844
sS'name'
p1845
S'\xe0\xa4\xa6\xe0\xa4\xbf\xe0\xa4\xaf\xe0\xa4\xbe'
p1846
sS'af'
p1847
S'\xe0\xa4\xa6\xe0\xa5\x87,v,m,sg,any,,\xe0\xa4\xaf\xe0\xa4\xbe,yA'
p1848
sS'chunkid'
p1849
S'VGF2'
p1850
sS'stype'
p1851
S'declarative'
p1852
sS'drel'
p1853
S'ccof:CCP2'
p1854
sS'voicetype'
p1855
S'active'
p1856
sS'chunktype'
p1857
S'head:VGF2'
p1858
ssbsg28
I00
sg29
I00
sg30
Nsg31
Nsg32
I9
sg33
I4
sg34
Nsg35
Nsg36
S'VM'
p1859
sg38
g1840
sg39
I00
sba(issf_api
Word
p1860
(dp1861
g6
I00
sg7
V\u0964
p1862
sg9
(issf_api
FeatureSet
p1863
(dp1864
g12
(dp1865
S'posn'
p1866
S'160'
p1867
sS'name'
p1868
S'\xe0\xa5\xa4'
p1869
sS'af'
p1870
S'\xe0\xa5\xa4,punc,,,,,,'
p1871
sS'chunkid'
p1872
S'BLK'
p1873
sS'drel'
p1874
S'rsym:CCP'
p1875
sS'chunktype'
p1876
S'head:BLK'
p1877
ssbsg28
I00
sg29
I00
sg30
Nsg31
Nsg32
I10
sg33
I4
sg34
Nsg35
Nsg36
S'SYM'
p1878
sg38
g1863
sg39
I00
sba(issf_api
Word
p1879
(dp1880
g6
I00
sg7
V\u0930\u093e\u091c\u093e
p1881
sg9
(issf_api
FeatureSet
p1882
(dp1883
g12
(dp1884
S'crefhead'
p1885
S'\xe0\xa4\xb0\xe0\xa4\xbe\xe0\xa4\x9c\xe0\xa4\xbe:i24'
p1886
sS'posn'
p1887
S'10'
p1888
sS'name'
p1889
S'\xe0\xa4\xb0\xe0\xa4\xbe\xe0\xa4\x9c\xe0\xa4\xbe'
p1890
sS'af'
p1891
S'\xe0\xa4\xb0\xe0\xa4\xbe\xe0\xa4\x9c\xe0\xa4\xbe,n,m,sg,3,o,0_\xe0\xa4\xa8\xe0\xa5\x87,0'
p1892
sS'chunkid'
p1893
S'NP'
p1894
sS'creftype'
p1895
S'Coreference-Noun-Noun:i22'
p1896
sS'chunktype'
p1897
S'head:NP'
p1898
sS'vpos'
p1899
S'vib_2'
p1900
sS'cref'
p1901
S'i24%1:t2'
p1902
sS'drel'
p1903
S'k1:VGF'
p1904
ssbsg28
I00
sg29
I00
sg30
Nsg31
Nsg32
I0
sg33
I5
sg34
Nsg35
Nsg36
S'NNP'
p1905
sg38
g1882
sg39
I00
sba(issf_api
Word
p1906
(dp1907
g6
I00
sg7
V\u0928\u0947
p1908
sg9
(issf_api
FeatureSet
p1909
(dp1910
g12
(dp1911
S'posn'
p1912
S'20'
p1913
sS'name'
p1914
S'\xe0\xa4\xa8\xe0\xa5\x87'
p1915
sS'drel'
p1916
S'lwg__psp:NP'
p1917
sS'chunktype'
p1918
S'child:NP'
p1919
sS'af'
p1920
S'\xe0\xa4\xa8\xe0\xa5\x87,psp,,,,,,'
p1921
ssbsg28
I00
sg29
I00
sg30
Nsg31
Nsg32
I0
sg33
I5
sg34
Nsg35
Nsg36
S'PSP'
p1922
sg38
g1909
sg39
I00
sba(issf_api
Word
p1923
(dp1924
g6
I00
sg7
V\u0915\u0939\u093e
p1925
sg9
(issf_api
FeatureSet
p1926
(dp1927
g12
(dp1928
S'posn'
p1929
S'30'
p1930
sS'name'
p1931
S'\xe0\xa4\x95\xe0\xa4\xb9\xe0\xa4\xbe'
p1932
sS'af'
p1933
S'\xe0\xa4\x95\xe0\xa4\xb9,v,m,sg,any,,\xe0\xa4\xaf\xe0\xa4\xbe,yA'
p1934
sS'chunkid'
p1935
S'VGF'
p1936
sS'chunktype'
p1937
S'head:VGF'
p1938
sS'voicetype'
p1939
S'active'
p1940
sS'stype'
p1941
S'declarative'
p1942
ssbsg28
I00
sg29
I00
sg30
Nsg31
Nsg32
I1
sg33
I5
sg34
Nsg35
Nsg36
S'VM'
p1943
sg38
g1926
sg39
I00
sba(issf_api
Word
p1944
(dp1945
g6
I00
sg7
V\u0915\u093f
p1946
sg9
(issf_api
FeatureSet
p1947
(dp1948
g12
(dp1949
S'posn'
p1950
S'40'
p1951
sS'name'
p1952
S'\xe0\xa4\x95\xe0\xa4\xbf'
p1953
sS'af'
p1954
S'\xe0\xa4\x95\xe0\xa4\xbf,avy,,,,,,'
p1955
sS'chunkid'
p1956
S'CCP'
p1957
sS'drel'
p1958
S'k2:VGF'
p1959
sS'chunktype'
p1960
S'head:CCP'
p1961
ssbsg28
I00
sg29
I00
sg30
Nsg31
Nsg32
I2
sg33
I5
sg34
Nsg35
Nsg36
S'CC'
p1962
sg38
g1947
sg39
I00
sba(issf_api
Word
p1963
(dp1964
g6
I00
sg7
V\u0909\u0928\u094d\u0939\u094b\u0902\u0928\u0947
p1965
sg9
(issf_api
FeatureSet
p1966
(dp1967
g12
(dp1968
S'crefhead'
p1969
S'\xe0\xa4\x89\xe0\xa4\xa8\xe0\xa5\x8d\xe0\xa4\xb9\xe0\xa5\x8b\xe0\xa4\x82\xe0\xa4\xa8\xe0\xa5\x87:i25'
p1970
sS'posn'
p1971
S'50'
p1972
sS'name'
p1973
S'\xe0\xa4\x89\xe0\xa4\xa8\xe0\xa5\x8d\xe0\xa4\xb9\xe0\xa5\x8b\xe0\xa4\x82\xe0\xa4\xa8\xe0\xa5\x87'
p1974
sS'af'
p1975
S'\xe0\xa4\xb5\xe0\xa4\xb9,pn,any,sg,3h,o,\xe0\xa4\xa8\xe0\xa5\x87,ne'
p1976
sS'chunkid'
p1977
S'NP2'
p1978
sS'creftype'
p1979
S'Anaphora-C:i24'
p1980
sS'chunktype'
p1981
S'head:NP2'
p1982
sS'cref'
p1983
S'i25%1:t2'
p1984
sS'drel'
p1985
S'k1:VGNN'
p1986
ssbsg28
I00
sg29
I00
sg30
Nsg31
Nsg32
I3
sg33
I5
sg34
Nsg35
Nsg36
S'PRP'
p1987
sg38
g1966
sg39
I00
sba(issf_api
Word
p1988
(dp1989
g6
I00
sg7
V\u092c\u094b\u0930\u094d\u0921
p1990
sg9
(issf_api
FeatureSet
p1991
(dp1992
g12
(dp1993
S'crefhead'
p1994
S'\xe0\xa4\xac\xe0\xa5\x8b\xe0\xa4\xb0\xe0\xa5\x8d\xe0\xa4\xa1:i26'
p1995
sS'posn'
p1996
S'60'
p1997
sS'name'
p1998
S'\xe0\xa4\xac\xe0\xa5\x8b\xe0\xa4\xb0\xe0\xa5\x8d\xe0\xa4\xa1'
p1999
sS'af'
p2000
S'\xe0\xa4\xac\xe0\xa5\x8b\xe0\xa4\xb0\xe0\xa5\x8d\xe0\xa4\xa1,n,m,sg,3,o,0_\xe0\xa4\x95\xe0\xa5\x8b,0'
p2001
sS'chunkid'
p2002
S'NP3'
p2003
sS'creftype'
p2004
S'Coreference-Identity:i18'
p2005
sS'chunktype'
p2006
S'head:NP3'
p2007
sS'vpos'
p2008
S'vib_2'
p2009
sS'cref'
p2010
S'i26%1:t1'
p2011
sS'drel'
p2012
S'k4:VGNN'
p2013
ssbsg28
I00
sg29
I00
sg30
Nsg31
Nsg32
I4
sg33
I5
sg34
Nsg35
Nsg36
S'NN'
p2014
sg38
g1991
sg39
I00
sba(issf_api
Word
p2015
(dp2016
g6
I00
sg7
V\u0915\u094b
p2017
sg9
(issf_api
FeatureSet
p2018
(dp2019
g12
(dp2020
S'posn'
p2021
S'70'
p2022
sS'name'
p2023
S'\xe0\xa4\x95\xe0\xa5\x8b'
p2024
sS'drel'
p2025
S'lwg__psp:NP3'
p2026
sS'chunktype'
p2027
S'child:NP3'
p2028
sS'af'
p2029
S'\xe0\xa4\x95\xe0\xa5\x8b,psp,,,,,,'
p2030
ssbsg28
I00
sg29
I00
sg30
Nsg31
Nsg32
I4
sg33
I5
sg34
Nsg35
Nsg36
S'PSP'
p2031
sg38
g2018
sg39
I00
sba(issf_api
Word
p2032
(dp2033
g6
I00
sg7
V\u0907\u0938
p2034
sg9
(issf_api
FeatureSet
p2035
(dp2036
g12
(dp2037
S'posn'
p2038
S'80'
p2039
sS'name'
p2040
S'\xe0\xa4\x87\xe0\xa4\xb8'
p2041
sS'af'
p2042
S'\xe0\xa4\xaf\xe0\xa4\xb9,pn,any,sg,3,o,,'
p2043
sS'drel'
p2044
S'nmod__adj:NP4'
p2045
sS'chunktype'
p2046
S'child:NP4'
p2047
sS'cref'
p2048
S'i27%0:t3'
p2049
ssbsg28
I00
sg29
I00
sg30
Nsg31
Nsg32
I5
sg33
I5
sg34
Nsg35
Nsg36
S'DEM'
p2050
sg38
g2035
sg39
I00
sba(issf_api
Word
p2051
(dp2052
g6
I00
sg7
V\u092a\u0926
p2053
sg9
(issf_api
FeatureSet
p2054
(dp2055
g12
(dp2056
S'crefhead'
p2057
S'\xe0\xa4\xaa\xe0\xa4\xa6:i27'
p2058
sS'posn'
p2059
S'90'
p2060
sS'name'
p2061
S'\xe0\xa4\xaa\xe0\xa4\xa6'
p2062
sS'af'
p2063
S'\xe0\xa4\xaa\xe0\xa4\xa6,n,m,sg,3,o,0_\xe0\xa4\x95\xe0\xa5\x8b,0'
p2064
sS'chunkid'
p2065
S'NP4'
p2066
sS'creftype'
p2067
S'Coreference-Identity:i14'
p2068
sS'chunktype'
p2069
S'head:NP4'
p2070
sS'vpos'
p2071
S'vib_3'
p2072
sS'cref'
p2073
S'i27%1:t3'
p2074
sS'drel'
p2075
S'k2:VGNN'
p2076
ssbsg28
I00
sg29
I00
sg30
Nsg31
Nsg32
I5
sg33
I5
sg34
Nsg35
Nsg36
S'NN'
p2077
sg38
g2054
sg39
I00
sba(issf_api
Word
p2078
(dp2079
g6
I00
sg7
V\u0915\u094b
p2080
sg9
(issf_api
FeatureSet
p2081
(dp2082
g12
(dp2083
S'posn'
p2084
S'100'
p2085
sS'name'
p2086
S'\xe0\xa4\x95\xe0\xa5\x8b2'
p2087
sS'drel'
p2088
S'lwg__psp:NP4'
p2089
sS'chunktype'
p2090
S'child:NP4'
p2091
sS'af'
p2092
S'\xe0\xa4\x95\xe0\xa5\x8b,psp,,,,,,'
p2093
ssbsg28
I00
sg29
I00
sg30
Nsg31
Nsg32
I5
sg33
I5
sg34
Nsg35
Nsg36
S'PSP'
p2094
sg38
g2081
sg39
I00
sba(issf_api
Word
p2095
(dp2096
g6
I00
sg7
V\u092d\u0930\u0928\u0947
p2097
sg9
(issf_api
FeatureSet
p2098
(dp2099
g12
(dp2100
S'posn'
p2101
S'110'
p2102
sS'name'
p2103
S'\xe0\xa4\xad\xe0\xa4\xb0\xe0\xa4\xa8\xe0\xa5\x87'
p2104
sS'af'
p2105
S'\xe0\xa4\xad\xe0\xa4\xb0,v,any,any,any,o,\xe0\xa4\xa8\xe0\xa4\xbe_\xe0\xa4\x95\xe0\xa5\x87_\xe0\xa4\xb2\xe0\xa4\xbf\xe0\xa4\x8f,nA'
p2106
sS'chunkid'
p2107
S'VGNN'
p2108
sS'drel'
p2109
S'rt:VGNN2'
p2110
sS'vpos'
p2111
S'tam_2_3'
p2112
sS'chunktype'
p2113
S'head:VGNN'
p2114
ssbsg28
I00
sg29
I00
sg30
Nsg31
Nsg32
I6
sg33
I5
sg34
Nsg35
Nsg36
S'VM'
p2115
sg38
g2098
sg39
I00
sba(issf_api
Word
p2116
(dp2117
g6
I00
sg7
V\u0915\u0947
p2118
sg9
(issf_api
FeatureSet
p2119
(dp2120
g12
(dp2121
S'posn'
p2122
S'120'
p2123
sS'name'
p2124
S'\xe0\xa4\x95\xe0\xa5\x87'
p2125
sS'drel'
p2126
S'lwg__psp:VGNN'
p2127
sS'chunktype'
p2128
S'child:VGNN'
p2129
sS'af'
p2130
S'\xe0\xa4\x95\xe0\xa5\x87,psp,,,,,,'
p2131
ssbsg28
I00
sg29
I00
sg30
Nsg31
Nsg32
I6
sg33
I5
sg34
Nsg35
Nsg36
S'PSP'
p2132
sg38
g2119
sg39
I00
sba(issf_api
Word
p2133
(dp2134
g6
I00
sg7
V\u0932\u093f\u090f
p2135
sg9
(issf_api
FeatureSet
p2136
(dp2137
g12
(dp2138
S'posn'
p2139
S'130'
p2140
sS'name'
p2141
S'\xe0\xa4\xb2\xe0\xa4\xbf\xe0\xa4\x8f'
p2142
sS'drel'
p2143
S'lwg__psp:VGNN'
p2144
sS'chunktype'
p2145
S'child:VGNN'
p2146
sS'af'
p2147
S'\xe0\xa4\xb2\xe0\xa4\xbf\xe0\xa4\x8f,psp,,,,,,'
p2148
ssbsg28
I00
sg29
I00
sg30
Nsg31
Nsg32
I6
sg33
I5
sg34
Nsg35
Nsg36
S'PSP'
p2149
sg38
g2136
sg39
I00
sba(issf_api
Word
p2150
(dp2151
g6
I00
sg7
V\u0915\u093f\u0938\u0940
p2152
sg9
(issf_api
FeatureSet
p2153
(dp2154
g12
(dp2155
S'crefhead'
p2156
S'\xe0\xa4\x95\xe0\xa4\xbf\xe0\xa4\xb8\xe0\xa5\x80:i28'
p2157
sS'posn'
p2158
S'140'
p2159
sS'name'
p2160
S'\xe0\xa4\x95\xe0\xa4\xbf\xe0\xa4\xb8\xe0\xa5\x80'
p2161
sS'af'
p2162
S'\xe0\xa4\x95\xe0\xa5\x8b\xe0\xa4\x88,pn,any,sg,3,o,0,0'
p2163
sS'drel'
p2164
S'nmod__adj:NP5'
p2165
sS'crefchainhead'
p2166
S'i28:t7'
p2167
sS'chunktype'
p2168
S'child:NP5'
p2169
sS'cref'
p2170
S'i28%1:t7'
p2171
ssbsg28
I00
sg29
I00
sg30
Nsg31
Nsg32
I7
sg33
I5
sg34
Nsg35
Nsg36
S'PRP'
p2172
sg38
g2153
sg39
I00
sba(issf_api
Word
p2173
(dp2174
g6
I00
sg7
V\u0905\u0928\u094d\u092f
p2175
sg9
(issf_api
FeatureSet
p2176
(dp2177
g12
(dp2178
S'posn'
p2179
S'150'
p2180
sS'name'
p2181
S'\xe0\xa4\x85\xe0\xa4\xa8\xe0\xa5\x8d\xe0\xa4\xaf'
p2182
sS'af'
p2183
S'\xe0\xa4\x85\xe0\xa4\xa8\xe0\xa5\x8d\xe0\xa4\xaf,n,m,sg,3,o,0_\xe0\xa4\x95\xe0\xa5\x8b,0'
p2184
sS'chunkid'
p2185
S'NP5'
p2186
sS'drel'
p2187
S'k2:VGNN2'
p2188
sS'vpos'
p2189
S'vib_vib_3'
p2190
sS'chunktype'
p2191
S'head:NP5'
p2192
ssbsg28
I00
sg29
I00
sg30
Nsg31
Nsg32
I7
sg33
I5
sg34
Nsg35
Nsg36
S'NN'
p2193
sg38
g2176
sg39
I00
sba(issf_api
Word
p2194
(dp2195
g6
I00
sg7
V\u0915\u094b
p2196
sg9
(issf_api
FeatureSet
p2197
(dp2198
g12
(dp2199
S'posn'
p2200
S'160'
p2201
sS'name'
p2202
S'\xe0\xa4\x95\xe0\xa5\x8b3'
p2203
sS'drel'
p2204
S'lwg__psp:NP5'
p2205
sS'chunktype'
p2206
S'child:NP5'
p2207
sS'af'
p2208
S'\xe0\xa4\x95\xe0\xa5\x8b,psp,,,,,,'
p2209
ssbsg28
I00
sg29
I00
sg30
Nsg31
Nsg32
I7
sg33
I5
sg34
Nsg35
Nsg36
S'PSP'
p2210
sg38
g2197
sg39
I00
sba(issf_api
Word
p2211
(dp2212
g6
I00
sg7
V\u0922\u0942\u0922\u0928\u0947
p2213
sg9
(issf_api
FeatureSet
p2214
(dp2215
g12
(dp2216
S'posn'
p2217
S'170'
p2218
sS'name'
p2219
S'\xe0\xa4\xa2\xe0\xa5\x82\xe0\xa4\xa2\xe0\xa4\xa8\xe0\xa5\x87'
p2220
sS'af'
p2221
S'\xe0\xa4\xa2\xe0\xa5\x82\xe0\xa4\xa2,v,any,sg,any,o,\xe0\xa4\xa8\xe0\xa4\xbe_\xe0\xa4\x95\xe0\xa4\xbe,nA'
p2222
sS'chunkid'
p2223
S'VGNN2'
p2224
sS'drel'
p2225
S'r6-k2:NP6'
p2226
sS'vpos'
p2227
S'tam_2'
p2228
sS'chunktype'
p2229
S'head:VGNN2'
p2230
ssbsg28
I00
sg29
I00
sg30
Nsg31
Nsg32
I8
sg33
I5
sg34
Nsg35
Nsg36
S'VM'
p2231
sg38
g2214
sg39
I00
sba(issf_api
Word
p2232
(dp2233
g6
I00
sg7
V\u0915\u0940
p2234
sg9
(issf_api
FeatureSet
p2235
(dp2236
g12
(dp2237
S'posn'
p2238
S'180'
p2239
sS'name'
p2240
S'\xe0\xa4\x95\xe0\xa5\x80'
p2241
sS'drel'
p2242
S'lwg__psp:VGNN2'
p2243
sS'chunktype'
p2244
S'child:VGNN2'
p2245
sS'af'
p2246
S'\xe0\xa4\x95\xe0\xa4\xbe,psp,f,sg,,d,,'
p2247
ssbsg28
I00
sg29
I00
sg30
Nsg31
Nsg32
I8
sg33
I5
sg34
Nsg35
Nsg36
S'PSP'
p2248
sg38
g2235
sg39
I00
sba(issf_api
Word
p2249
(dp2250
g6
I00
sg7
V\u0938\u0932\u093e\u0939
p2251
sg9
(issf_api
FeatureSet
p2252
(dp2253
g12
(dp2254
S'posn'
p2255
S'190'
p2256
sS'name'
p2257
S'\xe0\xa4\xb8\xe0\xa4\xb2\xe0\xa4\xbe\xe0\xa4\xb9'
p2258
sS'af'
p2259
S'\xe0\xa4\xb8\xe0\xa4\xb2\xe0\xa4\xbe\xe0\xa4\xb9,n,f,sg,3,d,0,0'
p2260
sS'chunkid'
p2261
S'NP6'
p2262
sS'drel'
p2263
S'pof:VGF2'
p2264
sS'chunktype'
p2265
S'head:NP6'
p2266
ssbsg28
I00
sg29
I00
sg30
Nsg31
Nsg32
I9
sg33
I5
sg34
Nsg35
Nsg36
S'NN'
p2267
sg38
g2252
sg39
I00
sba(issf_api
Word
p2268
(dp2269
g6
I00
sg7
V\u0926\u0940
p2270
sg9
(issf_api
FeatureSet
p2271
(dp2272
g12
(dp2273
S'posn'
p2274
S'200'
p2275
sS'name'
p2276
S'\xe0\xa4\xa6\xe0\xa5\x80'
p2277
sS'af'
p2278
S'\xe0\xa4\xa6\xe0\xa5\x87,v,f,sg,3,,\xe0\xa4\xaf\xe0\xa4\xbe_\xe0\xa4\xb9\xe0\xa5\x88,yA'
p2279
sS'chunkid'
p2280
S'VGF2'
p2281
sS'stype'
p2282
S'declarative'
p2283
sS'drel'
p2284
S'ccof:CCP2'
p2285
sS'voicetype'
p2286
S'active'
p2287
sS'vpos'
p2288
S'tam_2'
p2289
sS'chunktype'
p2290
S'head:VGF2'
p2291
ssbsg28
I00
sg29
I00
sg30
Nsg31
Nsg32
I10
sg33
I5
sg34
Nsg35
Nsg36
S'VM'
p2292
sg38
g2271
sg39
I00
sba(issf_api
Word
p2293
(dp2294
g6
I00
sg7
V\u0939\u0948
p2295
sg9
(issf_api
FeatureSet
p2296
(dp2297
g12
(dp2298
S'posn'
p2299
S'210'
p2300
sS'name'
p2301
S'\xe0\xa4\xb9\xe0\xa5\x88'
p2302
sS'drel'
p2303
S'lwg__vaux:VGF2'
p2304
sS'chunktype'
p2305
S'child:VGF2'
p2306
sS'af'
p2307
S'\xe0\xa4\xb9\xe0\xa5\x88,v,any,sg,3,,\xe0\xa4\xb9\xe0\xa5\x88,hE'
p2308
ssbsg28
I00
sg29
I00
sg30
Nsg31
Nsg32
I10
sg33
I5
sg34
Nsg35
Nsg36
S'VAUX'
p2309
sg38
g2296
sg39
I00
sba(issf_api
Word
p2310
(dp2311
g6
I00
sg7
V\u0914\u0930
p2312
sg9
(issf_api
FeatureSet
p2313
(dp2314
g12
(dp2315
S'posn'
p2316
S'220'
p2317
sS'name'
p2318
S'\xe0\xa4\x94\xe0\xa4\xb0'
p2319
sS'af'
p2320
S'\xe0\xa4\x94\xe0\xa4\xb0,avy,,,,,,'
p2321
sS'chunkid'
p2322
S'CCP2'
p2323
sS'drel'
p2324
S'ccof:CCP'
p2325
sS'chunktype'
p2326
S'head:CCP2'
p2327
ssbsg28
I00
sg29
I00
sg30
Nsg31
Nsg32
I11
sg33
I5
sg34
Nsg35
Nsg36
S'CC'
p2328
sg38
g2313
sg39
I00
sba(issf_api
Word
p2329
(dp2330
g6
I00
sg7
V\u0909\u0928\u0915\u0947
p2331
sg9
(issf_api
FeatureSet
p2332
(dp2333
g12
(dp2334
S'crefhead'
p2335
S'\xe0\xa4\x89\xe0\xa4\xa8\xe0\xa4\x95\xe0\xa5\x87:i29'
p2336
sS'posn'
p2337
S'230'
p2338
sS'name'
p2339
S'\xe0\xa4\x89\xe0\xa4\xa8\xe0\xa4\x95\xe0\xa5\x87'
p2340
sS'af'
p2341
S'\xe0\xa4\xb5\xe0\xa4\xb9,pn,m,sg,3h,o,\xe0\xa4\x95\xe0\xa4\xbe,kA'
p2342
sS'chunkid'
p2343
S'NP7'
p2344
sS'creftype'
p2345
S'Anaphora-C:i25'
p2346
sS'chunktype'
p2347
S'head:NP7'
p2348
sS'cref'
p2349
S'i29%1:t2'
p2350
sS'drel'
p2351
S'r6:NP8'
p2352
ssbsg28
I00
sg29
I00
sg30
Nsg31
Nsg32
I12
sg33
I5
sg34
Nsg35
Nsg36
S'PRP'
p2353
sg38
g2332
sg39
I00
sba(issf_api
Word
p2354
(dp2355
g6
I00
sg7
V\u092b\u0948\u0938\u0932\u0947
p2356
sg9
(issf_api
FeatureSet
p2357
(dp2358
g12
(dp2359
S'posn'
p2360
S'240'
p2361
sS'name'
p2362
S'\xe0\xa4\xab\xe0\xa5\x88\xe0\xa4\xb8\xe0\xa4\xb2\xe0\xa5\x87'
p2363
sS'af'
p2364
S'\xe0\xa4\xab\xe0\xa5\x88\xe0\xa4\xb8\xe0\xa4\xb2\xe0\xa4\xbe,n,m,sg,3,o,0_\xe0\xa4\x95\xe0\xa5\x8b,0'
p2365
sS'chunkid'
p2366
S'NP8'
p2367
sS'drel'
p2368
S'k2:VGF3'
p2369
sS'vpos'
p2370
S'vib_2'
p2371
sS'chunktype'
p2372
S'head:NP8'
p2373
ssbsg28
I00
sg29
I00
sg30
Nsg31
Nsg32
I13
sg33
I5
sg34
Nsg35
Nsg36
S'NN'
p2374
sg38
g2357
sg39
I00
sba(issf_api
Word
p2375
(dp2376
g6
I00
sg7
V\u0915\u094b
p2377
sg9
(issf_api
FeatureSet
p2378
(dp2379
g12
(dp2380
S'posn'
p2381
S'250'
p2382
sS'name'
p2383
S'\xe0\xa4\x95\xe0\xa5\x8b4'
p2384
sS'drel'
p2385
S'lwg__psp:NP8'
p2386
sS'chunktype'
p2387
S'child:NP8'
p2388
sS'af'
p2389
S'\xe0\xa4\x95\xe0\xa5\x8b,psp,,,,,,'
p2390
ssbsg28
I00
sg29
I00
sg30
Nsg31
Nsg32
I13
sg33
I5
sg34
Nsg35
Nsg36
S'PSP'
p2391
sg38
g2378
sg39
I00
sba(issf_api
Word
p2392
(dp2393
g6
I00
sg7
V\u0938\u094d\u0935\u0940\u0915\u093e\u0930
p2394
sg9
(issf_api
FeatureSet
p2395
(dp2396
g12
(dp2397
S'posn'
p2398
S'260'
p2399
sS'name'
p2400
S'\xe0\xa4\xb8\xe0\xa5\x8d\xe0\xa4\xb5\xe0\xa5\x80\xe0\xa4\x95\xe0\xa4\xbe\xe0\xa4\xb0'
p2401
sS'af'
p2402
S'\xe0\xa4\xb8\xe0\xa5\x8d\xe0\xa4\xb5\xe0\xa5\x80\xe0\xa4\x95\xe0\xa4\xbe\xe0\xa4\xb0,n,m,sg,3,d,0,0'
p2403
sS'chunkid'
p2404
S'NP9'
p2405
sS'drel'
p2406
S'pof:VGF3'
p2407
sS'chunktype'
p2408
S'head:NP9'
p2409
ssbsg28
I00
sg29
I00
sg30
Nsg31
Nsg32
I14
sg33
I5
sg34
Nsg35
Nsg36
S'NN'
p2410
sg38
g2395
sg39
I00
sba(issf_api
Word
p2411
(dp2412
g6
I00
sg7
V\u0915\u0930
p2413
sg9
(issf_api
FeatureSet
p2414
(dp2415
g12
(dp2416
S'posn'
p2417
S'270'
p2418
sS'name'
p2419
S'\xe0\xa4\x95\xe0\xa4\xb0'
p2420
sS'af'
p2421
S'\xe0\xa4\x95\xe0\xa4\xb0,v,m,sg,3,,0_\xe0\xa4\xb2\xe0\xa5\x87+\xe0\xa4\xaf\xe0\xa4\xbe_\xe0\xa4\x9c\xe0\xa4\xbe+\xe0\xa4\xaf\xe0\xa4\xbe\xe0\xa5\xa7_\xe0\xa4\xb9\xe0\xa5\x88,0'
p2422
sS'chunkid'
p2423
S'VGF3'
p2424
sS'stype'
p2425
S'declarative'
p2426
sS'drel'
p2427
S'ccof:CCP2'
p2428
sS'voicetype'
p2429
S'passive'
p2430
sS'vpos'
p2431
S'tam_2_3_4'
p2432
sS'chunktype'
p2433
S'head:VGF3'
p2434
ssbsg28
I00
sg29
I00
sg30
Nsg31
Nsg32
I15
sg33
I5
sg34
Nsg35
Nsg36
S'VM'
p2435
sg38
g2414
sg39
I00
sba(issf_api
Word
p2436
(dp2437
g6
I00
sg7
V\u0932\u093f\u092f\u093e
p2438
sg9
(issf_api
FeatureSet
p2439
(dp2440
g12
(dp2441
S'posn'
p2442
S'280'
p2443
sS'name'
p2444
S'\xe0\xa4\xb2\xe0\xa4\xbf\xe0\xa4\xaf\xe0\xa4\xbe'
p2445
sS'drel'
p2446
S'lwg__vaux:VGF3'
p2447
sS'chunktype'
p2448
S'child:VGF3'
p2449
sS'af'
p2450
S'\xe0\xa4\xb2\xe0\xa5\x87,v,m,sg,any,,\xe0\xa4\xaf\xe0\xa4\xbe,yA'
p2451
ssbsg28
I00
sg29
I00
sg30
Nsg31
Nsg32
I15
sg33
I5
sg34
Nsg35
Nsg36
S'VAUX'
p2452
sg38
g2439
sg39
I00
sba(issf_api
Word
p2453
(dp2454
g6
I00
sg7
V\u0917\u092f\u093e
p2455
sg9
(issf_api
FeatureSet
p2456
(dp2457
g12
(dp2458
S'posn'
p2459
S'290'
p2460
sS'name'
p2461
S'\xe0\xa4\x97\xe0\xa4\xaf\xe0\xa4\xbe'
p2462
sS'drel'
p2463
S'lwg__vaux:VGF3'
p2464
sS'chunktype'
p2465
S'child:VGF3'
p2466
sS'af'
p2467
S'\xe0\xa4\x9c\xe0\xa4\xbe,v,m,sg,any,,\xe0\xa4\xaf\xe0\xa4\xbe\xe0\xa5\xa7,yA1'
p2468
ssbsg28
I00
sg29
I00
sg30
Nsg31
Nsg32
I15
sg33
I5
sg34
Nsg35
Nsg36
S'VAUX'
p2469
sg38
g2456
sg39
I00
sba(issf_api
Word
p2470
(dp2471
g6
I00
sg7
V\u0939\u0948
p2472
sg9
(issf_api
FeatureSet
p2473
(dp2474
g12
(dp2475
S'posn'
p2476
S'300'
p2477
sS'name'
p2478
S'\xe0\xa4\xb9\xe0\xa5\x882'
p2479
sS'drel'
p2480
S'lwg__vaux:VGF3'
p2481
sS'chunktype'
p2482
S'child:VGF3'
p2483
sS'af'
p2484
S'\xe0\xa4\xb9\xe0\xa5\x88,v,any,sg,3,,\xe0\xa4\xb9\xe0\xa5\x88,hE'
p2485
ssbsg28
I00
sg29
I00
sg30
Nsg31
Nsg32
I15
sg33
I5
sg34
Nsg35
Nsg36
S'VAUX'
p2486
sg38
g2473
sg39
I00
sba(issf_api
Word
p2487
(dp2488
g6
I00
sg7
V\u0964
p2489
sg9
(issf_api
FeatureSet
p2490
(dp2491
g12
(dp2492
S'posn'
p2493
S'310'
p2494
sS'name'
p2495
S'\xe0\xa5\xa4'
p2496
sS'af'
p2497
S'\xe0\xa5\xa4,punc,,,,,,'
p2498
sS'chunkid'
p2499
S'BLK'
p2500
sS'drel'
p2501
S'rsym:VGF'
p2502
sS'chunktype'
p2503
S'head:BLK'
p2504
ssbsg28
I00
sg29
I00
sg30
Nsg31
Nsg32
I16
sg33
I5
sg34
Nsg35
Nsg36
S'SYM'
p2505
sg38
g2490
sg39
I00
sba(issf_api
Word
p2506
(dp2507
g6
I00
sg7
V\u0930\u092e\u0940\u091c
p2508
sg9
(issf_api
FeatureSet
p2509
(dp2510
g12
(dp2511
S'crefhead'
p2512
S'\xe0\xa4\xb0\xe0\xa4\xae\xe0\xa5\x80\xe0\xa4\x9c:i30'
p2513
sS'posn'
p2514
S'10'
p2515
sS'name'
p2516
S'\xe0\xa4\xb0\xe0\xa4\xae\xe0\xa5\x80\xe0\xa4\x9c'
p2517
sS'af'
p2518
S'\xe0\xa4\xb0\xe0\xa4\xae\xe0\xa5\x80\xe0\xa4\x9c,n,m,sg,3,o,0_\xe0\xa4\xa8\xe0\xa5\x87,0'
p2519
sS'chunkid'
p2520
S'NP'
p2521
sS'creftype'
p2522
S'Coreference-Noun-Noun:i29'
p2523
sS'chunktype'
p2524
S'head:NP'
p2525
sS'vpos'
p2526
S'vib_2'
p2527
sS'cref'
p2528
S'i30%1:t2'
p2529
sS'drel'
p2530
S'k1:VGF'
p2531
ssbsg28
I00
sg29
I00
sg30
Nsg31
Nsg32
I0
sg33
I6
sg34
Nsg35
Nsg36
S'NNP'
p2532
sg38
g2509
sg39
I00
sba(issf_api
Word
p2533
(dp2534
g6
I00
sg7
V\u0928\u0947
p2535
sg9
(issf_api
FeatureSet
p2536
(dp2537
g12
(dp2538
S'posn'
p2539
S'20'
p2540
sS'name'
p2541
S'\xe0\xa4\xa8\xe0\xa5\x87'
p2542
sS'drel'
p2543
S'lwg__psp:NP'
p2544
sS'chunktype'
p2545
S'child:NP'
p2546
sS'af'
p2547
S'\xe0\xa4\xa8\xe0\xa5\x87,psp,,,,,,'
p2548
ssbsg28
I00
sg29
I00
sg30
Nsg31
Nsg32
I0
sg33
I6
sg34
Nsg35
Nsg36
S'PSP'
p2549
sg38
g2536
sg39
I00
sba(issf_api
Word
p2550
(dp2551
g6
I00
sg7
V\u0915\u0939\u093e
p2552
sg9
(issf_api
FeatureSet
p2553
(dp2554
g12
(dp2555
S'posn'
p2556
S'30'
p2557
sS'name'
p2558
S'\xe0\xa4\x95\xe0\xa4\xb9\xe0\xa4\xbe'
p2559
sS'af'
p2560
S'\xe0\xa4\x95\xe0\xa4\xb9,v,m,sg,3,,\xe0\xa4\xaf\xe0\xa4\xbe,yA'
p2561
sS'chunkid'
p2562
S'VGF'
p2563
sS'chunktype'
p2564
S'head:VGF'
p2565
sS'voicetype'
p2566
S'active'
p2567
sS'stype'
p2568
S'declarative'
p2569
ssbsg28
I00
sg29
I00
sg30
Nsg31
Nsg32
I1
sg33
I6
sg34
Nsg35
Nsg36
S'VM'
p2570
sg38
g2553
sg39
I00
sba(issf_api
Word
p2571
(dp2572
g6
I00
sg7
V\u0915\u093f
p2573
sg9
(issf_api
FeatureSet
p2574
(dp2575
g12
(dp2576
S'posn'
p2577
S'40'
p2578
sS'name'
p2579
S'\xe0\xa4\x95\xe0\xa4\xbf'
p2580
sS'af'
p2581
S'\xe0\xa4\x95\xe0\xa4\xbf,avy,,,,,,'
p2582
sS'chunkid'
p2583
S'CCP'
p2584
sS'drel'
p2585
S'k2:VGF'
p2586
sS'chunktype'
p2587
S'head:CCP'
p2588
ssbsg28
I00
sg29
I00
sg30
Nsg31
Nsg32
I2
sg33
I6
sg34
Nsg35
Nsg36
S'CC'
p2589
sg38
g2574
sg39
I00
sba(issf_api
Word
p2590
(dp2591
g6
I00
sg7
V\u0909\u0928\u094d\u0939\u094b\u0902\u0928\u0947
p2592
sg9
(issf_api
FeatureSet
p2593
(dp2594
g12
(dp2595
S'crefhead'
p2596
S'\xe0\xa4\x89\xe0\xa4\xa8\xe0\xa5\x8d\xe0\xa4\xb9\xe0\xa5\x8b\xe0\xa4\x82\xe0\xa4\xa8\xe0\xa5\x87:i31'
p2597
sS'posn'
p2598
S'50'
p2599
sS'name'
p2600
S'\xe0\xa4\x89\xe0\xa4\xa8\xe0\xa5\x8d\xe0\xa4\xb9\xe0\xa5\x8b\xe0\xa4\x82\xe0\xa4\xa8\xe0\xa5\x87'
p2601
sS'af'
p2602
S'\xe0\xa4\xb5\xe0\xa4\xb9,pn,any,sg,3h,o,\xe0\xa4\xa8\xe0\xa5\x87,ne'
p2603
sS'chunkid'
p2604
S'NP2'
p2605
sS'creftype'
p2606
S'Anaphora-C:i30'
p2607
sS'chunktype'
p2608
S'head:NP2'
p2609
sS'cref'
p2610
S'i31%1:t2'
p2611
sS'drel'
p2612
S'k1:VGF2'
p2613
ssbsg28
I00
sg29
I00
sg30
Nsg31
Nsg32
I3
sg33
I6
sg34
Nsg35
Nsg36
S'PRP'
p2614
sg38
g2593
sg39
I00
sba(issf_api
Word
p2615
(dp2616
g6
I00
sg7
V\u0905\u092a\u0928\u0947
p2617
sg9
(issf_api
FeatureSet
p2618
(dp2619
g12
(dp2620
S'crefhead'
p2621
S'\xe0\xa4\x85\xe0\xa4\xaa\xe0\xa4\xa8\xe0\xa5\x87:i32'
p2622
sS'posn'
p2623
S'60'
p2624
sS'name'
p2625
S'\xe0\xa4\x85\xe0\xa4\xaa\xe0\xa4\xa8\xe0\xa5\x87'
p2626
sS'af'
p2627
S'\xe0\xa4\x85\xe0\xa4\xaa\xe0\xa4\xa8\xe0\xa4\xbe,pn,m,any,any,o,0,0'
p2628
sS'acrefmodhead'
p2629
S'\xe0\xa4\x85\xe0\xa4\xaa\xe0\xa4\xa8\xe0\xa5\x87:m3'
p2630
sS'chunkid'
p2631
S'NP3'
p2632
sS'acrefmod'
p2633
S'm3%1:i33'
p2634
sS'creftype'
p2635
S'Anaphora-C:i31'
p2636
sS'chunktype'
p2637
S'head:NP3'
p2638
sS'cref'
p2639
S'i32%1:t2'
p2640
sS'drel'
p2641
S'r6:NP4'
p2642
ssbsg28
I00
sg29
I00
sg30
Nsg31
Nsg32
I4
sg33
I6
sg34
Nsg35
Nsg36
S'PRP'
p2643
sg38
g2618
sg39
I00
sba(issf_api
Word
p2644
(dp2645
g6
I00
sg7
V\u0907\u0938\u094d\u0924\u0940\u095e\u0947
p2646
sg9
(issf_api
FeatureSet
p2647
(dp2648
g12
(dp2649
S'crefhead'
p2650
S'\xe0\xa4\x87\xe0\xa4\xb8\xe0\xa5\x8d\xe0\xa4\xa4\xe0\xa5\x80\xe0\xa5\x9e\xe0\xa5\x87:i33'
p2651
sS'posn'
p2652
S'70'
p2653
sS'name'
p2654
S'\xe0\xa4\x87\xe0\xa4\xb8\xe0\xa5\x8d\xe0\xa4\xa4\xe0\xa5\x80\xe0\xa5\x9e\xe0\xa5\x87'
p2655
sS'af'
p2656
S'\xe0\xa4\x87\xe0\xa4\xb8\xe0\xa5\x8d\xe0\xa4\xa4\xe0\xa5\x80\xe0\xa4\xab\xe0\xa4\xbe,n,m,sg,3,o,0_\xe0\xa4\x95\xe0\xa4\xbe,0'
p2657
sS'chunkid'
p2658
S'NP4'
p2659
sS'crefmod'
p2660
S'm3:i33'
p2661
sS'creftype'
p2662
S'Coreference-Identity:i23'
p2663
sS'chunktype'
p2664
S'head:NP4'
p2665
sS'crefchainhead'
p2666
S'i33:t4'
p2667
sS'vpos'
p2668
S'vib_2'
p2669
sS'cref'
p2670
S'i33%1:t4'
p2671
sS'drel'
p2672
S'r6:NP5'
p2673
ssbsg28
I00
sg29
I00
sg30
Nsg31
Nsg32
I5
sg33
I6
sg34
Nsg35
Nsg36
S'NN'
p2674
sg38
g2647
sg39
I00
sba(issf_api
Word
p2675
(dp2676
g6
I00
sg7
V\u0915\u0947
p2677
sg9
(issf_api
FeatureSet
p2678
(dp2679
g12
(dp2680
S'posn'
p2681
S'80'
p2682
sS'name'
p2683
S'\xe0\xa4\x95\xe0\xa5\x87'
p2684
sS'drel'
p2685
S'lwg__psp:NP4'
p2686
sS'chunktype'
p2687
S'child:NP4'
p2688
sS'af'
p2689
S'\xe0\xa4\x95\xe0\xa4\xbe,psp,m,sg,,o,,'
p2690
ssbsg28
I00
sg29
I00
sg30
Nsg31
Nsg32
I5
sg33
I6
sg34
Nsg35
Nsg36
S'PSP'
p2691
sg38
g2678
sg39
I00
sba(issf_api
Word
p2692
(dp2693
g6
I00
sg7
V\u0938\u093f\u0932\u0938\u093f\u0932\u0947
p2694
sg9
(issf_api
FeatureSet
p2695
(dp2696
g12
(dp2697
S'posn'
p2698
S'90'
p2699
sS'name'
p2700
S'\xe0\xa4\xb8\xe0\xa4\xbf\xe0\xa4\xb2\xe0\xa4\xb8\xe0\xa4\xbf\xe0\xa4\xb2\xe0\xa5\x87'
p2701
sS'af'
p2702
S'\xe0\xa4\xb8\xe0\xa4\xbf\xe0\xa4\xb2\xe0\xa4\xb8\xe0\xa4\xbf\xe0\xa4\xb2\xe0\xa4\xbe,n,m,sg,3,o,0_\xe0\xa4\xae\xe0\xa5\x87\xe0\xa4\x82,0'
p2703
sS'chunkid'
p2704
S'NP5'
p2705
sS'drel'
p2706
S'k7:VGF2'
p2707
sS'vpos'
p2708
S'vib_2'
p2709
sS'chunktype'
p2710
S'head:NP5'
p2711
ssbsg28
I00
sg29
I00
sg30
Nsg31
Nsg32
I6
sg33
I6
sg34
Nsg35
Nsg36
S'NN'
p2712
sg38
g2695
sg39
I00
sba(issf_api
Word
p2713
(dp2714
g6
I00
sg7
V\u092e\u0947\u0902
p2715
sg9
(issf_api
FeatureSet
p2716
(dp2717
g12
(dp2718
S'posn'
p2719
S'100'
p2720
sS'name'
p2721
S'\xe0\xa4\xae\xe0\xa5\x87\xe0\xa4\x82'
p2722
sS'drel'
p2723
S'lwg__psp:NP5'
p2724
sS'chunktype'
p2725
S'child:NP5'
p2726
sS'af'
p2727
S'\xe0\xa4\xae\xe0\xa5\x87\xe0\xa4\x82,psp,,,,,,'
p2728
ssbsg28
I00
sg29
I00
sg30
Nsg31
Nsg32
I6
sg33
I6
sg34
Nsg35
Nsg36
S'PSP'
p2729
sg38
g2716
sg39
I00
sba(issf_api
Word
p2730
(dp2731
g6
I00
sg7
V\u092c\u094b\u0930\u094d\u0921
p2732
sg9
(issf_api
FeatureSet
p2733
(dp2734
g12
(dp2735
S'crefhead'
p2736
S'\xe0\xa4\xac\xe0\xa5\x8b\xe0\xa4\xb0\xe0\xa5\x8d\xe0\xa4\xa1:i34'
p2737
sS'posn'
p2738
S'110'
p2739
sS'name'
p2740
S'\xe0\xa4\xac\xe0\xa5\x8b\xe0\xa4\xb0\xe0\xa5\x8d\xe0\xa4\xa1'
p2741
sS'af'
p2742
S'\xe0\xa4\xac\xe0\xa5\x8b\xe0\xa4\xb0\xe0\xa5\x8d\xe0\xa4\xa1,n,m,sg,3,d,0,0'
p2743
sS'creftype'
p2744
S'Coreference-Identity:i26'
p2745
sS'drel'
p2746
S'pof__cn:NP6'
p2747
sS'chunktype'
p2748
S'child:NP6'
p2749
sS'cref'
p2750
S'i34%1:t1,i35%0:t8'
p2751
ssbsg28
I00
sg29
I00
sg30
Nsg31
Nsg32
I7
sg33
I6
sg34
Nsg35
Nsg36
S'NNC'
p2752
sg38
g2733
sg39
I00
sba(issf_api
Word
p2753
(dp2754
g6
I00
sg7
V\u0905\u0927\u094d\u092f\u0915\u094d\u0937
p2755
sg9
(issf_api
FeatureSet
p2756
(dp2757
g12
(dp2758
S'crefhead'
p2759
S'\xe0\xa4\x85\xe0\xa4\xa7\xe0\xa5\x8d\xe0\xa4\xaf\xe0\xa4\x95\xe0\xa5\x8d\xe0\xa4\xb7:i35'
p2760
sS'posn'
p2761
S'120'
p2762
sS'name'
p2763
S'\xe0\xa4\x85\xe0\xa4\xa7\xe0\xa5\x8d\xe0\xa4\xaf\xe0\xa4\x95\xe0\xa5\x8d\xe0\xa4\xb7'
p2764
sS'af'
p2765
S'\xe0\xa4\x85\xe0\xa4\xa7\xe0\xa5\x8d\xe0\xa4\xaf\xe0\xa4\x95\xe0\xa5\x8d\xe0\xa4\xb7,n,m,sg,3,d,0,0'
p2766
sS'drel'
p2767
S'nmod:NP6'
p2768
sS'chunktype'
p2769
S'child:NP6'
p2770
sS'cref'
p2771
S'i35%1:t8'
p2772
ssbsg28
I00
sg29
I00
sg30
Nsg31
Nsg32
I7
sg33
I6
sg34
Nsg35
Nsg36
S'NN'
p2773
sg38
g2756
sg39
I00
sba(issf_api
Word
p2774
(dp2775
g6
I00
sg7
V\u0936\u0939\u0930\u092f\u093e\u0930
p2776
sg9
(issf_api
FeatureSet
p2777
(dp2778
g12
(dp2779
S'posn'
p2780
S'130'
p2781
sS'name'
p2782
S'\xe0\xa4\xb6\xe0\xa4\xb9\xe0\xa4\xb0\xe0\xa4\xaf\xe0\xa4\xbe\xe0\xa4\xb0'
p2783
sS'af'
p2784
S'\xe0\xa4\xb6\xe0\xa4\xb9\xe0\xa4\xb0\xe0\xa4\xaf\xe0\xa4\xbe\xe0\xa4\xb0,n,m,sg,3,d,0,0'
p2785
sS'drel'
p2786
S'pof__cn:NP6'
p2787
sS'chunktype'
p2788
S'child:NP6'
p2789
sS'cref'
p2790
S'i36%0:t8'
p2791
ssbsg28
I00
sg29
I00
sg30
Nsg31
Nsg32
I7
sg33
I6
sg34
Nsg35
Nsg36
S'NNPC'
p2792
sg38
g2777
sg39
I00
sba(issf_api
Word
p2793
(dp2794
g6
I00
sg7
V\u0916\u093e\u0928
p2795
sg9
(issf_api
FeatureSet
p2796
(dp2797
g12
(dp2798
S'crefhead'
p2799
S'\xe0\xa4\x96\xe0\xa4\xbe\xe0\xa4\xa8:i36'
p2800
sS'posn'
p2801
S'140'
p2802
sS'name'
p2803
S'\xe0\xa4\x96\xe0\xa4\xbe\xe0\xa4\xa8'
p2804
sS'af'
p2805
S'\xe0\xa4\x96\xe0\xa4\xbe\xe0\xa4\xa8,n,m,sg,3,o,0_\xe0\xa4\xb8\xe0\xa5\x87,0'
p2806
sS'chunkid'
p2807
S'NP6'
p2808
sS'creftype'
p2809
S'Coreference-NounComplement:i35'
p2810
sS'chunktype'
p2811
S'head:NP6'
p2812
sS'crefchainhead'
p2813
S'i36:t8'
p2814
sS'vpos'
p2815
S'vib_vib_5_RP'
p2816
sS'cref'
p2817
S'i36%1:t8'
p2818
sS'drel'
p2819
S'k2:VGF2'
p2820
ssbsg28
I00
sg29
I00
sg30
Nsg31
Nsg32
I7
sg33
I6
sg34
Nsg35
Nsg36
S'NNP'
p2821
sg38
g2796
sg39
I00
sba(issf_api
Word
p2822
(dp2823
g6
I00
sg7
V\u0938\u0947
p2824
sg9
(issf_api
FeatureSet
p2825
(dp2826
g12
(dp2827
S'posn'
p2828
S'150'
p2829
sS'name'
p2830
S'\xe0\xa4\xb8\xe0\xa5\x87'
p2831
sS'drel'
p2832
S'lwg__psp:NP6'
p2833
sS'chunktype'
p2834
S'child:NP6'
p2835
sS'af'
p2836
S'\xe0\xa4\xb8\xe0\xa5\x87,psp,,,,,,'
p2837
ssbsg28
I00
sg29
I00
sg30
Nsg31
Nsg32
I7
sg33
I6
sg34
Nsg35
Nsg36
S'PSP'
p2838
sg38
g2825
sg39
I00
sba(issf_api
Word
p2839
(dp2840
g6
I00
sg7
V\u092d\u0940
p2841
sg9
(issf_api
FeatureSet
p2842
(dp2843
g12
(dp2844
S'posn'
p2845
S'160'
p2846
sS'name'
p2847
S'\xe0\xa4\xad\xe0\xa5\x80'
p2848
sS'drel'
p2849
S'lwg__rp:NP6'
p2850
sS'chunktype'
p2851
S'child:NP6'
p2852
sS'af'
p2853
S'\xe0\xa4\xad\xe0\xa5\x80,avy,,,,,,'
p2854
ssbsg28
I00
sg29
I00
sg30
Nsg31
Nsg32
I7
sg33
I6
sg34
Nsg35
Nsg36
S'RP'
p2855
sg38
g2842
sg39
I00
sba(issf_api
Word
p2856
(dp2857
g6
I00
sg7
V\u092c\u093e\u0924
p2858
sg9
(issf_api
FeatureSet
p2859
(dp2860
g12
(dp2861
S'posn'
p2862
S'170'
p2863
sS'name'
p2864
S'\xe0\xa4\xac\xe0\xa4\xbe\xe0\xa4\xa4'
p2865
sS'af'
p2866
S'\xe0\xa4\xac\xe0\xa4\xbe\xe0\xa4\xa4,n,f,sg,3,d,0,0'
p2867
sS'chunkid'
p2868
S'NP7'
p2869
sS'drel'
p2870
S'pof:VGF2'
p2871
sS'chunktype'
p2872
S'head:NP7'
p2873
ssbsg28
I00
sg29
I00
sg30
Nsg31
Nsg32
I8
sg33
I6
sg34
Nsg35
Nsg36
S'NN'
p2874
sg38
g2859
sg39
I00
sba(issf_api
Word
p2875
(dp2876
g6
I00
sg7
V\u0915\u0940
p2877
sg9
(issf_api
FeatureSet
p2878
(dp2879
g12
(dp2880
S'posn'
p2881
S'180'
p2882
sS'name'
p2883
S'\xe0\xa4\x95\xe0\xa5\x80'
p2884
sS'af'
p2885
S'\xe0\xa4\x95\xe0\xa4\xb0,v,f,sg,any,,\xe0\xa4\xaf\xe0\xa4\xbe,yA'
p2886
sS'chunkid'
p2887
S'VGF2'
p2888
sS'stype'
p2889
S'declarative'
p2890
sS'drel'
p2891
S'ccof:CCP'
p2892
sS'voicetype'
p2893
S'active'
p2894
sS'chunktype'
p2895
S'head:VGF2'
p2896
ssbsg28
I00
sg29
I00
sg30
Nsg31
Nsg32
I9
sg33
I6
sg34
Nsg35
Nsg36
S'VM'
p2897
sg38
g2878
sg39
I00
sba(issf_api
Word
p2898
(dp2899
g6
I00
sg7
V\u0964
p2900
sg9
(issf_api
FeatureSet
p2901
(dp2902
g12
(dp2903
S'posn'
p2904
S'190'
p2905
sS'name'
p2906
S'\xe0\xa5\xa4'
p2907
sS'af'
p2908
S'\xe0\xa5\xa4,punc,,,,,,'
p2909
sS'chunkid'
p2910
S'BLK'
p2911
sS'drel'
p2912
S'rsym:VGF'
p2913
sS'chunktype'
p2914
S'head:BLK'
p2915
ssbsg28
I00
sg29
I00
sg30
Nsg31
Nsg32
I10
sg33
I6
sg34
Nsg35
Nsg36
S'SYM'
p2916
sg38
g2901
sg39
I00
sba(issf_api
Word
p2917
(dp2918
g6
I00
sg7
V\u0909\u0928\u094d\u0939\u094b\u0902\u0928\u0947
p2919
sg9
(issf_api
FeatureSet
p2920
(dp2921
g12
(dp2922
S'crefhead'
p2923
S'\xe0\xa4\x89\xe0\xa4\xa8\xe0\xa5\x8d\xe0\xa4\xb9\xe0\xa5\x8b\xe0\xa4\x82\xe0\xa4\xa8\xe0\xa5\x87:i37'
p2924
sS'posn'
p2925
S'10'
p2926
sS'name'
p2927
S'\xe0\xa4\x89\xe0\xa4\xa8\xe0\xa5\x8d\xe0\xa4\xb9\xe0\xa5\x8b\xe0\xa4\x82\xe0\xa4\xa8\xe0\xa5\x87'
p2928
sS'af'
p2929
S'\xe0\xa4\xb5\xe0\xa4\xb9,pn,any,sg,3h,o,\xe0\xa4\xa8\xe0\xa5\x87,ne'
p2930
sS'chunkid'
p2931
S'NP'
p2932
sS'creftype'
p2933
S'Anaphora-C:i32'
p2934
sS'chunktype'
p2935
S'head:NP'
p2936
sS'cref'
p2937
S'i37%1:t2'
p2938
sS'drel'
p2939
S'k1:VGF'
p2940
ssbsg28
I00
sg29
I00
sg30
Nsg31
Nsg32
I0
sg33
I7
sg34
Nsg35
Nsg36
S'PRP'
p2941
sg38
g2920
sg39
I00
sba(issf_api
Word
p2942
(dp2943
g6
I00
sg7
V\u092c\u0924\u093e\u092f\u093e
p2944
sg9
(issf_api
FeatureSet
p2945
(dp2946
g12
(dp2947
S'posn'
p2948
S'20'
p2949
sS'name'
p2950
S'\xe0\xa4\xac\xe0\xa4\xa4\xe0\xa4\xbe\xe0\xa4\xaf\xe0\xa4\xbe'
p2951
sS'af'
p2952
S'\xe0\xa4\xac\xe0\xa4\xa4\xe0\xa4\xbe,v,m,sg,any,,\xe0\xa4\xaf\xe0\xa4\xbe,yA'
p2953
sS'chunkid'
p2954
S'VGF'
p2955
sS'chunktype'
p2956
S'head:VGF'
p2957
sS'voicetype'
p2958
S'active'
p2959
sS'stype'
p2960
S'declarative'
p2961
ssbsg28
I00
sg29
I00
sg30
Nsg31
Nsg32
I1
sg33
I7
sg34
Nsg35
Nsg36
S'VM'
p2962
sg38
g2945
sg39
I00
sba(issf_api
Word
p2963
(dp2964
g6
I00
sg7
V\u0915\u093f
p2965
sg9
(issf_api
FeatureSet
p2966
(dp2967
g12
(dp2968
S'posn'
p2969
S'30'
p2970
sS'name'
p2971
S'\xe0\xa4\x95\xe0\xa4\xbf'
p2972
sS'af'
p2973
S'\xe0\xa4\x95\xe0\xa4\xbf,avy,,,,,,'
p2974
sS'chunkid'
p2975
S'CCP'
p2976
sS'drel'
p2977
S'k2:VGF'
p2978
sS'chunktype'
p2979
S'head:CCP'
p2980
ssbsg28
I00
sg29
I00
sg30
Nsg31
Nsg32
I2
sg33
I7
sg34
Nsg35
Nsg36
S'CC'
p2981
sg38
g2966
sg39
I00
sba(issf_api
Word
p2982
(dp2983
g6
I00
sg7
V\u0935\u0947
p2984
sg9
(issf_api
FeatureSet
p2985
(dp2986
g12
(dp2987
S'crefhead'
p2988
S'\xe0\xa4\xb5\xe0\xa5\x87:i38'
p2989
sS'posn'
p2990
S'40'
p2991
sS'name'
p2992
S'\xe0\xa4\xb5\xe0\xa5\x87'
p2993
sS'af'
p2994
S'\xe0\xa4\xb5\xe0\xa4\xb9,pn,any,sg,3h,d,0,0'
p2995
sS'chunkid'
p2996
S'NP2'
p2997
sS'creftype'
p2998
S'Anaphora-C:i37'
p2999
sS'chunktype'
p3000
S'head:NP2'
p3001
sS'cref'
p3002
S'i38%1:t2,i39%0:t9'
p3003
sS'drel'
p3004
S'k1:VGF2'
p3005
ssbsg28
I00
sg29
I00
sg30
Nsg31
Nsg32
I3
sg33
I7
sg34
Nsg35
Nsg36
S'PRP'
p3006
sg38
g2985
sg39
I00
sba(issf_api
Word
p3007
(dp3008
g6
I00
sg7
V\u0905\u0915\u094d\u091f\u0942\u092c\u0930
p3009
sg9
(issf_api
FeatureSet
p3010
(dp3011
g12
(dp3012
S'posn'
p3013
S'50'
p3014
sS'name'
p3015
S'\xe0\xa4\x85\xe0\xa4\x95\xe0\xa5\x8d\xe0\xa4\x9f\xe0\xa5\x82\xe0\xa4\xac\xe0\xa4\xb0'
p3016
sS'af'
p3017
S'\xe0\xa4\x85\xe0\xa4\x95\xe0\xa5\x8d\xe0\xa4\x9f\xe0\xa5\x82\xe0\xa4\xac\xe0\xa4\xb0,n,m,sg,3,o,0_\xe0\xa4\xa4\xe0\xa4\x95,0'
p3018
sS'chunkid'
p3019
S'NP3'
p3020
sS'drel'
p3021
S'k7t:VGF2'
p3022
sS'chunktype'
p3023
S'head:NP3'
p3024
sS'vpos'
p3025
S'vib_2'
p3026
sS'cref'
p3027
S'i39%0:t9'
p3028
ssbsg28
I00
sg29
I00
sg30
Nsg31
Nsg32
I4
sg33
I7
sg34
Nsg35
Nsg36
S'NNP'
p3029
sg38
g3010
sg39
I00
sba(issf_api
Word
p3030
(dp3031
g6
I00
sg7
V\u0924\u0915
p3032
sg9
(issf_api
FeatureSet
p3033
(dp3034
g12
(dp3035
S'posn'
p3036
S'60'
p3037
sS'name'
p3038
S'\xe0\xa4\xa4\xe0\xa4\x95'
p3039
sS'af'
p3040
S'\xe0\xa4\xa4\xe0\xa4\x95,psp,,,,,,'
p3041
sS'drel'
p3042
S'lwg__psp:NP3'
p3043
sS'chunktype'
p3044
S'child:NP3'
p3045
sS'cref'
p3046
S'i39%0:t9'
p3047
ssbsg28
I00
sg29
I00
sg30
Nsg31
Nsg32
I4
sg33
I7
sg34
Nsg35
Nsg36
S'PSP'
p3048
sg38
g3033
sg39
I00
sba(issf_api
Word
p3049
(dp3050
g6
I00
sg7
V\u092e\u0940\u0921\u093f\u092f\u093e
p3051
sg9
(issf_api
FeatureSet
p3052
(dp3053
g12
(dp3054
S'crefhead'
p3055
S'\xe0\xa4\xae\xe0\xa5\x80\xe0\xa4\xa1\xe0\xa4\xbf\xe0\xa4\xaf\xe0\xa4\xbe:i40'
p3056
sS'posn'
p3057
S'80'
p3058
sS'name'
p3059
S'\xe0\xa4\xae\xe0\xa5\x80\xe0\xa4\xa1\xe0\xa4\xbf\xe0\xa4\xaf\xe0\xa4\xbe'
p3060
sS'af'
p3061
S'\xe0\xa4\xae\xe0\xa5\x80\xe0\xa4\xa1\xe0\xa4\xbf\xe0\xa4\xaf\xe0\xa4\xbe,n,m,sg,3,d,0,0'
p3062
sS'creftype'
p3063
S'Coreference-Identity:i20'
p3064
sS'drel'
p3065
S'pof__cn:NP4'
p3066
sS'chunktype'
p3067
S'child:NP4'
p3068
sS'cref'
p3069
S'i40%1:t6,i39%0:t9'
p3070
ssbsg28
I00
sg29
I00
sg30
Nsg31
Nsg32
I5
sg33
I7
sg34
Nsg35
Nsg36
S'NNC'
p3071
sg38
g3052
sg39
I00
sba(issf_api
Word
p3072
(dp3073
g6
I00
sg7
V\u0915\u093e\u0930\u094d\u092f
p3074
sg9
(issf_api
FeatureSet
p3075
(dp3076
g12
(dp3077
S'posn'
p3078
S'80'
p3079
sS'name'
p3080
S'\xe0\xa4\x95\xe0\xa4\xbe\xe0\xa4\xb0\xe0\xa5\x8d\xe0\xa4\xaf'
p3081
sS'af'
p3082
S'\xe0\xa4\x95\xe0\xa4\xbe\xe0\xa4\xb0\xe0\xa5\x8d\xe0\xa4\xaf,n,m,sg,3,o,0_\xe0\xa4\xae\xe0\xa5\x87\xe0\xa4\x82,0'
p3083
sS'chunkid'
p3084
S'NP4'
p3085
sS'drel'
p3086
S'k7:VGF2'
p3087
sS'chunktype'
p3088
S'head:NP4'
p3089
sS'vpos'
p3090
S'vib_3'
p3091
sS'cref'
p3092
S'i39%0:t9'
p3093
ssbsg28
I00
sg29
I00
sg30
Nsg31
Nsg32
I5
sg33
I7
sg34
Nsg35
Nsg36
S'NN'
p3094
sg38
g3075
sg39
I00
sba(issf_api
Word
p3095
(dp3096
g6
I00
sg7
V\u092e\u0947\u0902
p3097
sg9
(issf_api
FeatureSet
p3098
(dp3099
g12
(dp3100
S'posn'
p3101
S'90'
p3102
sS'name'
p3103
S'\xe0\xa4\xae\xe0\xa5\x87\xe0\xa4\x82'
p3104
sS'af'
p3105
S'\xe0\xa4\xae\xe0\xa5\x87\xe0\xa4\x82,psp,,,,,,'
p3106
sS'drel'
p3107
S'lwg__psp:NP4'
p3108
sS'chunktype'
p3109
S'child:NP4'
p3110
sS'cref'
p3111
S'i39%0:t9'
p3112
ssbsg28
I00
sg29
I00
sg30
Nsg31
Nsg32
I5
sg33
I7
sg34
Nsg35
Nsg36
S'PSP'
p3113
sg38
g3098
sg39
I00
sba(issf_api
Word
p3114
(dp3115
g6
I00
sg7
V\u0935\u094d\u092f\u0938\u094d\u0924
p3116
sg9
(issf_api
FeatureSet
p3117
(dp3118
g12
(dp3119
S'posn'
p3120
S'100'
p3121
sS'name'
p3122
S'\xe0\xa4\xb5\xe0\xa5\x8d\xe0\xa4\xaf\xe0\xa4\xb8\xe0\xa5\x8d\xe0\xa4\xa4'
p3123
sS'af'
p3124
S'\xe0\xa4\xb5\xe0\xa5\x8d\xe0\xa4\xaf\xe0\xa4\xb8\xe0\xa5\x8d\xe0\xa4\xa4,adj,any,any,,,,'
p3125
sS'chunkid'
p3126
S'JJP'
p3127
sS'drel'
p3128
S'pof:VGF2'
p3129
sS'chunktype'
p3130
S'head:JJP'
p3131
sS'cref'
p3132
S'i39%0:t9'
p3133
ssbsg28
I00
sg29
I00
sg30
Nsg31
Nsg32
I6
sg33
I7
sg34
Nsg35
Nsg36
S'JJ'
p3134
sg38
g3117
sg39
I00
sba(issf_api
Word
p3135
(dp3136
g6
I00
sg7
V\u0930\u0939\u0947\u0902\u0917\u0947
p3137
sg9
(issf_api
FeatureSet
p3138
(dp3139
g12
(dp3140
S'crefhead'
p3141
S'\xe0\xa4\xb0\xe0\xa4\xb9\xe0\xa5\x87\xe0\xa4\x82\xe0\xa4\x97\xe0\xa5\x87:i39'
p3142
sS'posn'
p3143
S'110'
p3144
sS'name'
p3145
S'\xe0\xa4\xb0\xe0\xa4\xb9\xe0\xa5\x87\xe0\xa4\x82\xe0\xa4\x97\xe0\xa5\x87'
p3146
sS'af'
p3147
S'\xe0\xa4\xb0\xe0\xa4\xb9,v,m,sg,3h,,\xe0\xa4\x97\xe0\xa4\xbe,gA'
p3148
sS'chunkid'
p3149
S'VGF2'
p3150
sS'stype'
p3151
S'declarative'
p3152
sS'chunktype'
p3153
S'head:VGF2'
p3154
sS'crefchainhead'
p3155
S'i39:t9'
p3156
sS'voicetype'
p3157
S'active'
p3158
sS'cref'
p3159
S'i39%1:t9'
p3160
sS'drel'
p3161
S'ccof:CCP'
p3162
ssbsg28
I00
sg29
I00
sg30
Nsg31
Nsg32
I7
sg33
I7
sg34
Nsg35
Nsg36
S'VM'
p3163
sg38
g3138
sg39
I00
sba(issf_api
Word
p3164
(dp3165
g6
I00
sg7
V\u0964
p3166
sg9
(issf_api
FeatureSet
p3167
(dp3168
g12
(dp3169
S'posn'
p3170
S'120'
p3171
sS'name'
p3172
S'\xe0\xa5\xa4'
p3173
sS'af'
p3174
S'\xe0\xa5\xa4,punc,,,,,,'
p3175
sS'chunkid'
p3176
S'BLK'
p3177
sS'drel'
p3178
S'rsym:VGF'
p3179
sS'chunktype'
p3180
S'head:BLK'
p3181
ssbsg28
I00
sg29
I00
sg30
Nsg31
Nsg32
I8
sg33
I7
sg34
Nsg35
Nsg36
S'SYM'
p3182
sg38
g3167
sg39
I00
sba(issf_api
Word
p3183
(dp3184
g6
I00
sg7
V\u0907\u0938\u0932\u093f\u090f
p3185
sg9
(issf_api
FeatureSet
p3186
(dp3187
g12
(dp3188
S'crefhead'
p3189
S'\xe0\xa4\x87\xe0\xa4\xb8\xe0\xa4\xb2\xe0\xa4\xbf\xe0\xa4\x8f:i41'
p3190
sS'posn'
p3191
S'10'
p3192
sS'name'
p3193
S'\xe0\xa4\x87\xe0\xa4\xb8\xe0\xa4\xb2\xe0\xa4\xbf\xe0\xa4\x8f'
p3194
sS'af'
p3195
S'\xe0\xa4\x87\xe0\xa4\xb8\xe0\xa4\xb2\xe0\xa4\xbf\xe0\xa4\xaf\xe0\xa5\x87,pn,,,,,,'
p3196
sS'chunkid'
p3197
S'NP'
p3198
sS'creftype'
p3199
S'Anaphora-C:i39'
p3200
sS'chunktype'
p3201
S'head:NP'
p3202
sS'cref'
p3203
S'i41%1:t9'
p3204
sS'drel'
p3205
S'rh:VGF'
p3206
ssbsg28
I00
sg29
I00
sg30
Nsg31
Nsg32
I0
sg33
I8
sg34
Nsg35
Nsg36
S'PRP'
p3207
sg38
g3186
sg39
I00
sba(issf_api
Word
p3208
(dp3209
g6
I00
sg7
V\u0926\u094b\u0928\u094b\u0902
p3210
sg9
(issf_api
FeatureSet
p3211
(dp3212
g12
(dp3213
S'posn'
p3214
S'20'
p3215
sS'name'
p3216
S'\xe0\xa4\xa6\xe0\xa5\x8b\xe0\xa4\xa8\xe0\xa5\x8b\xe0\xa4\x82'
p3217
sS'af'
p3218
S'\xe0\xa4\xa6\xe0\xa5\x8b,num,any,any,,any,,'
p3219
sS'chunkid'
p3220
S'NP2'
p3221
sS'drel'
p3222
S'rd:VGF'
p3223
sS'chunktype'
p3224
S'head:NP2'
p3225
ssbsg28
I00
sg29
I00
sg30
Nsg31
Nsg32
I1
sg33
I8
sg34
Nsg35
Nsg36
S'QC'
p3226
sg38
g3211
sg39
I00
sba(issf_api
Word
p3227
(dp3228
g6
I00
sg7
V\u0913\u0930
p3229
sg9
(issf_api
FeatureSet
p3230
(dp3231
g12
(dp3232
S'posn'
p3233
S'30'
p3234
sS'name'
p3235
S'\xe0\xa4\x93\xe0\xa4\xb0'
p3236
sS'drel'
p3237
S'lwg__psp:NP2'
p3238
sS'chunktype'
p3239
S'child:NP2'
p3240
sS'af'
p3241
S'\xe0\xa4\x93\xe0\xa4\xb0,nst,f,sg,3,d,,'
p3242
ssbsg28
I00
sg29
I00
sg30
Nsg31
Nsg32
I1
sg33
I8
sg34
Nsg35
Nsg36
S'NST'
p3243
sg38
g3230
sg39
I00
sba(issf_api
Word
p3244
(dp3245
g6
I00
sg7
V\u092a\u0930\u094d\u092f\u093e\u092a\u094d\u0924
p3246
sg9
(issf_api
FeatureSet
p3247
(dp3248
g12
(dp3249
S'posn'
p3250
S'40'
p3251
sS'name'
p3252
S'\xe0\xa4\xaa\xe0\xa4\xb0\xe0\xa5\x8d\xe0\xa4\xaf\xe0\xa4\xbe\xe0\xa4\xaa\xe0\xa5\x8d\xe0\xa4\xa4'
p3253
sS'drel'
p3254
S'nmod__adj:NP3'
p3255
sS'chunktype'
p3256
S'child:NP3'
p3257
sS'af'
p3258
S'\xe0\xa4\xaa\xe0\xa4\xb0\xe0\xa5\x8d\xe0\xa4\xaf\xe0\xa4\xbe\xe0\xa4\xaa\xe0\xa5\x8d\xe0\xa4\xa4,adj,any,any,,d,,'
p3259
ssbsg28
I00
sg29
I00
sg30
Nsg31
Nsg32
I2
sg33
I8
sg34
Nsg35
Nsg36
S'JJ'
p3260
sg38
g3247
sg39
I00
sba(issf_api
Word
p3261
(dp3262
g6
I00
sg7
V\u0927\u094d\u092f\u093e\u0928
p3263
sg9
(issf_api
FeatureSet
p3264
(dp3265
g12
(dp3266
S'posn'
p3267
S'50'
p3268
sS'name'
p3269
S'\xe0\xa4\xa7\xe0\xa5\x8d\xe0\xa4\xaf\xe0\xa4\xbe\xe0\xa4\xa8'
p3270
sS'af'
p3271
S'\xe0\xa4\xa7\xe0\xa5\x8d\xe0\xa4\xaf\xe0\xa4\xbe\xe0\xa4\xa8,n,m,sg,3,d,0,0'
p3272
sS'chunkid'
p3273
S'NP3'
p3274
sS'drel'
p3275
S'pof:VGF'
p3276
sS'chunktype'
p3277
S'head:NP3'
p3278
ssbsg28
I00
sg29
I00
sg30
Nsg31
Nsg32
I2
sg33
I8
sg34
Nsg35
Nsg36
S'NN'
p3279
sg38
g3264
sg39
I00
sba(issf_api
Word
p3280
(dp3281
g6
I00
sg7
V\u0928\u0939\u0940\u0902
p3282
sg9
(issf_api
FeatureSet
p3283
(dp3284
g12
(dp3285
S'posn'
p3286
S'60'
p3287
sS'name'
p3288
S'\xe0\xa4\xa8\xe0\xa4\xb9\xe0\xa5\x80\xe0\xa4\x82'
p3289
sS'drel'
p3290
S'lwg__neg:VGF'
p3291
sS'chunktype'
p3292
S'child:VGF'
p3293
sS'af'
p3294
S'\xe0\xa4\xa8\xe0\xa4\xb9\xe0\xa5\x80\xe0\xa4\x82,avy,,,,,,'
p3295
ssbsg28
I00
sg29
I00
sg30
Nsg31
Nsg32
I3
sg33
I8
sg34
Nsg35
Nsg36
S'NEG'
p3296
sg38
g3283
sg39
I00
sba(issf_api
Word
p3297
(dp3298
g6
I00
sg7
V\u0926\u0947
p3299
sg9
(issf_api
FeatureSet
p3300
(dp3301
g12
(dp3302
S'posn'
p3303
S'70'
p3304
sS'name'
p3305
S'\xe0\xa4\xa6\xe0\xa5\x87'
p3306
sS'af'
p3307
S'\xe0\xa4\xa6\xe0\xa5\x87,v,any,sg,3h,,0_\xe0\xa4\xaa\xe0\xa4\xbe+\xe0\xa4\x97\xe0\xa4\xbe,0'
p3308
sS'chunkid'
p3309
S'VGF'
p3310
sS'chunktype'
p3311
S'head:VGF'
p3312
sS'voicetype'
p3313
S'active'
p3314
sS'vpos'
p3315
S'tam_3'
p3316
sS'stype'
p3317
S'declarative'
p3318
ssbsg28
I00
sg29
I00
sg30
Nsg31
Nsg32
I3
sg33
I8
sg34
Nsg35
Nsg36
S'VM'
p3319
sg38
g3300
sg39
I00
sba(issf_api
Word
p3320
(dp3321
g6
I00
sg7
V\u092a\u093e\u090f\u0902\u0917\u0947
p3322
sg9
(issf_api
FeatureSet
p3323
(dp3324
g12
(dp3325
S'posn'
p3326
S'80'
p3327
sS'name'
p3328
S'\xe0\xa4\xaa\xe0\xa4\xbe\xe0\xa4\x8f\xe0\xa4\x82\xe0\xa4\x97\xe0\xa5\x87'
p3329
sS'drel'
p3330
S'lwg__vaux:VGF'
p3331
sS'chunktype'
p3332
S'child:VGF'
p3333
sS'af'
p3334
S'\xe0\xa4\xaa\xe0\xa4\xbe,v,m,sg,3h,,\xe0\xa4\x97\xe0\xa4\xbe,gA'
p3335
ssbsg28
I00
sg29
I00
sg30
Nsg31
Nsg32
I3
sg33
I8
sg34
Nsg35
Nsg36
S'VAUX'
p3336
sg38
g3323
sg39
I00
sba(issf_api
Word
p3337
(dp3338
g6
I00
sg7
V\u0964
p3339
sg9
(issf_api
FeatureSet
p3340
(dp3341
g12
(dp3342
S'posn'
p3343
S'90'
p3344
sS'name'
p3345
S'\xe0\xa5\xa4'
p3346
sS'af'
p3347
S'\xe0\xa5\xa4,punc,,,,,,'
p3348
sS'chunkid'
p3349
S'BLK'
p3350
sS'drel'
p3351
S'rsym:VGF'
p3352
sS'chunktype'
p3353
S'head:BLK'
p3354
ssbsg28
I00
sg29
I00
sg30
Nsg31
Nsg32
I4
sg33
I8
sg34
Nsg35
Nsg36
S'SYM'
p3355
sg38
g3340
sg39
I00
sba(issf_api
Word
p3356
(dp3357
g6
I00
sg7
V\u0930\u092e\u0940\u091c
p3358
sg9
(issf_api
FeatureSet
p3359
(dp3360
g12
(dp3361
S'crefhead'
p3362
S'\xe0\xa4\xb0\xe0\xa4\xae\xe0\xa5\x80\xe0\xa4\x9c:i42'
p3363
sS'posn'
p3364
S'10'
p3365
sS'name'
p3366
S'\xe0\xa4\xb0\xe0\xa4\xae\xe0\xa5\x80\xe0\xa4\x9c'
p3367
sS'af'
p3368
S'\xe0\xa4\xb0\xe0\xa4\xae\xe0\xa5\x80\xe0\xa4\x9c,n,m,sg,3,o,0_\xe0\xa4\xa8\xe0\xa5\x87,0'
p3369
sS'chunkid'
p3370
S'NP'
p3371
sS'creftype'
p3372
S'Coreference-Identity:i38'
p3373
sS'chunktype'
p3374
S'head:NP'
p3375
sS'vpos'
p3376
S'vib_2'
p3377
sS'cref'
p3378
S'i42%1:t2'
p3379
sS'drel'
p3380
S'k1:VGF'
p3381
ssbsg28
I00
sg29
I00
sg30
Nsg31
Nsg32
I0
sg33
I9
sg34
Nsg35
Nsg36
S'NNP'
p3382
sg38
g3359
sg39
I00
sba(issf_api
Word
p3383
(dp3384
g6
I00
sg7
V\u0928\u0947
p3385
sg9
(issf_api
FeatureSet
p3386
(dp3387
g12
(dp3388
S'posn'
p3389
S'20'
p3390
sS'name'
p3391
S'\xe0\xa4\xa8\xe0\xa5\x87'
p3392
sS'drel'
p3393
S'lwg__psp:NP'
p3394
sS'chunktype'
p3395
S'child:NP'
p3396
sS'af'
p3397
S'\xe0\xa4\xa8\xe0\xa5\x87,psp,,,,,,'
p3398
ssbsg28
I00
sg29
I00
sg30
Nsg31
Nsg32
I0
sg33
I9
sg34
Nsg35
Nsg36
S'PSP'
p3399
sg38
g3386
sg39
I00
sba(issf_api
Word
p3400
(dp3401
g6
I00
sg7
V\u0915\u0939\u093e
p3402
sg9
(issf_api
FeatureSet
p3403
(dp3404
g12
(dp3405
S'posn'
p3406
S'30'
p3407
sS'name'
p3408
S'\xe0\xa4\x95\xe0\xa4\xb9\xe0\xa4\xbe'
p3409
sS'af'
p3410
S'\xe0\xa4\x95\xe0\xa4\xb9,v,m,sg,any,,\xe0\xa4\xaf\xe0\xa4\xbe,yA'
p3411
sS'chunkid'
p3412
S'VGF'
p3413
sS'chunktype'
p3414
S'head:VGF'
p3415
sS'voicetype'
p3416
S'active'
p3417
sS'stype'
p3418
S'declarative'
p3419
ssbsg28
I00
sg29
I00
sg30
Nsg31
Nsg32
I1
sg33
I9
sg34
Nsg35
Nsg36
S'VM'
p3420
sg38
g3403
sg39
I00
sba(issf_api
Word
p3421
(dp3422
g6
I00
sg7
V\u0915\u093f
p3423
sg9
(issf_api
FeatureSet
p3424
(dp3425
g12
(dp3426
S'posn'
p3427
S'40'
p3428
sS'name'
p3429
S'\xe0\xa4\x95\xe0\xa4\xbf'
p3430
sS'af'
p3431
S'\xe0\xa4\x95\xe0\xa4\xbf,avy,,,,,,'
p3432
sS'chunkid'
p3433
S'CCP'
p3434
sS'drel'
p3435
S'k2:VGF'
p3436
sS'chunktype'
p3437
S'head:CCP'
p3438
ssbsg28
I00
sg29
I00
sg30
Nsg31
Nsg32
I2
sg33
I9
sg34
Nsg35
Nsg36
S'CC'
p3439
sg38
g3424
sg39
I00
sba(issf_api
Word
p3440
(dp3441
g6
I00
sg7
V\u0909\u0928\u094d\u0939\u094b\u0902\u0928\u0947
p3442
sg9
(issf_api
FeatureSet
p3443
(dp3444
g12
(dp3445
S'crefhead'
p3446
S'\xe0\xa4\x89\xe0\xa4\xa8\xe0\xa5\x8d\xe0\xa4\xb9\xe0\xa5\x8b\xe0\xa4\x82\xe0\xa4\xa8\xe0\xa5\x87:i43'
p3447
sS'posn'
p3448
S'50'
p3449
sS'name'
p3450
S'\xe0\xa4\x89\xe0\xa4\xa8\xe0\xa5\x8d\xe0\xa4\xb9\xe0\xa5\x8b\xe0\xa4\x82\xe0\xa4\xa8\xe0\xa5\x87'
p3451
sS'af'
p3452
S'\xe0\xa4\xb5\xe0\xa4\xb9,pn,any,sg,3h,o,\xe0\xa4\xa8\xe0\xa5\x87,ne'
p3453
sS'chunkid'
p3454
S'NP2'
p3455
sS'creftype'
p3456
S'Anaphora-C:i42'
p3457
sS'chunktype'
p3458
S'head:NP2'
p3459
sS'cref'
p3460
S'i43%1:t2'
p3461
sS'drel'
p3462
S'k1:VGF2'
p3463
ssbsg28
I00
sg29
I00
sg30
Nsg31
Nsg32
I3
sg33
I9
sg34
Nsg35
Nsg36
S'PRP'
p3464
sg38
g3443
sg39
I00
sba(issf_api
Word
p3465
(dp3466
g6
I00
sg7
V\u0907\u0938
p3467
sg9
(issf_api
FeatureSet
p3468
(dp3469
g12
(dp3470
S'posn'
p3471
S'60'
p3472
sS'name'
p3473
S'\xe0\xa4\x87\xe0\xa4\xb8'
p3474
sS'af'
p3475
S'\xe0\xa4\xaf\xe0\xa4\xb9,pn,any,sg,3,o,,'
p3476
sS'drel'
p3477
S'nmod__adj:NP3'
p3478
sS'chunktype'
p3479
S'child:NP3'
p3480
sS'cref'
p3481
S'i44%0:t3'
p3482
ssbsg28
I00
sg29
I00
sg30
Nsg31
Nsg32
I4
sg33
I9
sg34
Nsg35
Nsg36
S'DEM'
p3483
sg38
g3468
sg39
I00
sba(issf_api
Word
p3484
(dp3485
g6
I00
sg7
V\u092a\u0926
p3486
sg9
(issf_api
FeatureSet
p3487
(dp3488
g12
(dp3489
S'crefhead'
p3490
S'\xe0\xa4\xaa\xe0\xa4\xa6:i44'
p3491
sS'posn'
p3492
S'70'
p3493
sS'name'
p3494
S'\xe0\xa4\xaa\xe0\xa4\xa6'
p3495
sS'af'
p3496
S'\xe0\xa4\xaa\xe0\xa4\xa6,n,m,sg,3,o,0_\xe0\xa4\xaa\xe0\xa4\xb0,0'
p3497
sS'chunkid'
p3498
S'NP3'
p3499
sS'creftype'
p3500
S'Coreference-Identity:i27'
p3501
sS'chunktype'
p3502
S'head:NP3'
p3503
sS'vpos'
p3504
S'vib_3'
p3505
sS'cref'
p3506
S'i44%1:t3'
p3507
sS'drel'
p3508
S'k7:VGF2'
p3509
ssbsg28
I00
sg29
I00
sg30
Nsg31
Nsg32
I4
sg33
I9
sg34
Nsg35
Nsg36
S'NN'
p3510
sg38
g3487
sg39
I00
sba(issf_api
Word
p3511
(dp3512
g6
I00
sg7
V\u092a\u0930
p3513
sg9
(issf_api
FeatureSet
p3514
(dp3515
g12
(dp3516
S'posn'
p3517
S'80'
p3518
sS'name'
p3519
S'\xe0\xa4\xaa\xe0\xa4\xb0'
p3520
sS'drel'
p3521
S'lwg__psp:NP3'
p3522
sS'chunktype'
p3523
S'child:NP3'
p3524
sS'af'
p3525
S'\xe0\xa4\xaa\xe0\xa4\xb0,psp,,,,,,'
p3526
ssbsg28
I00
sg29
I00
sg30
Nsg31
Nsg32
I4
sg33
I9
sg34
Nsg35
Nsg36
S'PSP'
p3527
sg38
g3514
sg39
I00
sba(issf_api
Word
p3528
(dp3529
g6
I00
sg7
V\u092c\u0947\u0939\u0926
p3530
sg9
(issf_api
FeatureSet
p3531
(dp3532
g12
(dp3533
S'posn'
p3534
S'90'
p3535
sS'name'
p3536
S'\xe0\xa4\xac\xe0\xa5\x87\xe0\xa4\xb9\xe0\xa4\xa6'
p3537
sS'drel'
p3538
S'nmod__adj:NP4'
p3539
sS'chunktype'
p3540
S'child:NP4'
p3541
sS'af'
p3542
S'\xe0\xa4\xac\xe0\xa5\x87\xe0\xa4\xb9\xe0\xa4\xa6,adj,any,any,,o,,'
p3543
ssbsg28
I00
sg29
I00
sg30
Nsg31
Nsg32
I5
sg33
I9
sg34
Nsg35
Nsg36
S'JJ'
p3544
sg38
g3531
sg39
I00
sba(issf_api
Word
p3545
(dp3546
g6
I00
sg7
V\u0909\u0924\u094d\u0938\u093e\u0939
p3547
sg9
(issf_api
FeatureSet
p3548
(dp3549
g12
(dp3550
S'posn'
p3551
S'100'
p3552
sS'name'
p3553
S'\xe0\xa4\x89\xe0\xa4\xa4\xe0\xa5\x8d\xe0\xa4\xb8\xe0\xa4\xbe\xe0\xa4\xb9'
p3554
sS'af'
p3555
S'\xe0\xa4\x89\xe0\xa4\xa4\xe0\xa5\x8d\xe0\xa4\xb8\xe0\xa4\xbe\xe0\xa4\xb9,n,m,sg,3,o,0_\xe0\xa4\xb8\xe0\xa5\x87,0'
p3556
sS'chunkid'
p3557
S'NP4'
p3558
sS'drel'
p3559
S'adv:VGF2'
p3560
sS'vpos'
p3561
S'vib_3'
p3562
sS'chunktype'
p3563
S'head:NP4'
p3564
ssbsg28
I00
sg29
I00
sg30
Nsg31
Nsg32
I5
sg33
I9
sg34
Nsg35
Nsg36
S'NN'
p3565
sg38
g3548
sg39
I00
sba(issf_api
Word
p3566
(dp3567
g6
I00
sg7
V\u0938\u0947
p3568
sg9
(issf_api
FeatureSet
p3569
(dp3570
g12
(dp3571
S'posn'
p3572
S'110'
p3573
sS'name'
p3574
S'\xe0\xa4\xb8\xe0\xa5\x87'
p3575
sS'drel'
p3576
S'lwg__psp:NP4'
p3577
sS'chunktype'
p3578
S'child:NP4'
p3579
sS'af'
p3580
S'\xe0\xa4\xb8\xe0\xa5\x87,psp,,,,,,'
p3581
ssbsg28
I00
sg29
I00
sg30
Nsg31
Nsg32
I5
sg33
I9
sg34
Nsg35
Nsg36
S'PSP'
p3582
sg38
g3569
sg39
I00
sba(issf_api
Word
p3583
(dp3584
g6
I00
sg7
V\u0915\u093e\u092e
p3585
sg9
(issf_api
FeatureSet
p3586
(dp3587
g12
(dp3588
S'posn'
p3589
S'120'
p3590
sS'name'
p3591
S'\xe0\xa4\x95\xe0\xa4\xbe\xe0\xa4\xae'
p3592
sS'af'
p3593
S'\xe0\xa4\x95\xe0\xa4\xbe\xe0\xa4\xae,n,m,sg,3,d,0,0'
p3594
sS'chunkid'
p3595
S'NP5'
p3596
sS'drel'
p3597
S'k2:VGF2'
p3598
sS'chunktype'
p3599
S'head:NP5'
p3600
ssbsg28
I00
sg29
I00
sg30
Nsg31
Nsg32
I6
sg33
I9
sg34
Nsg35
Nsg36
S'NN'
p3601
sg38
g3586
sg39
I00
sba(issf_api
Word
p3602
(dp3603
g6
I00
sg7
V\u0915\u093f\u092f\u093e
p3604
sg9
(issf_api
FeatureSet
p3605
(dp3606
g12
(dp3607
S'posn'
p3608
S'130'
p3609
sS'name'
p3610
S'\xe0\xa4\x95\xe0\xa4\xbf\xe0\xa4\xaf\xe0\xa4\xbe'
p3611
sS'af'
p3612
S'\xe0\xa4\x95\xe0\xa4\xb0,v,m,sg,any,,\xe0\xa4\xaf\xe0\xa4\xbe,yA'
p3613
sS'chunkid'
p3614
S'VGF2'
p3615
sS'stype'
p3616
S'declarative'
p3617
sS'drel'
p3618
S'ccof:CCP2'
p3619
sS'voicetype'
p3620
S'active'
p3621
sS'chunktype'
p3622
S'head:VGF2'
p3623
ssbsg28
I00
sg29
I00
sg30
Nsg31
Nsg32
I7
sg33
I9
sg34
Nsg35
Nsg36
S'VM'
p3624
sg38
g3605
sg39
I00
sba(issf_api
Word
p3625
(dp3626
g6
I00
sg7
V\u0914\u0930
p3627
sg9
(issf_api
FeatureSet
p3628
(dp3629
g12
(dp3630
S'posn'
p3631
S'140'
p3632
sS'name'
p3633
S'\xe0\xa4\x94\xe0\xa4\xb0'
p3634
sS'af'
p3635
S'\xe0\xa4\x94\xe0\xa4\xb0,avy,,,,,,'
p3636
sS'chunkid'
p3637
S'CCP2'
p3638
sS'drel'
p3639
S'ccof:CCP'
p3640
sS'chunktype'
p3641
S'head:CCP2'
p3642
ssbsg28
I00
sg29
I00
sg30
Nsg31
Nsg32
I8
sg33
I9
sg34
Nsg35
Nsg36
S'CC'
p3643
sg38
g3628
sg39
I00
sba(issf_api
Word
p3644
(dp3645
g6
I00
sg7
V\u092a\u0926
p3646
sg9
(issf_api
FeatureSet
p3647
(dp3648
g12
(dp3649
S'crefhead'
p3650
S'\xe0\xa4\xaa\xe0\xa4\xa6:i45'
p3651
sS'posn'
p3652
S'150'
p3653
sS'name'
p3654
S'\xe0\xa4\xaa\xe0\xa4\xa62'
p3655
sS'af'
p3656
S'\xe0\xa4\xaa\xe0\xa4\xa6,n,m,sg,3,d,0,0'
p3657
sS'chunkid'
p3658
S'NP6'
p3659
sS'creftype'
p3660
S'Coreference-Identity:i44'
p3661
sS'chunktype'
p3662
S'head:NP6'
p3663
sS'cref'
p3664
S'i45%1:t3'
p3665
sS'drel'
p3666
S'k2:VGNF'
p3667
ssbsg28
I00
sg29
I00
sg30
Nsg31
Nsg32
I9
sg33
I9
sg34
Nsg35
Nsg36
S'NN'
p3668
sg38
g3647
sg39
I00
sba(issf_api
Word
p3669
(dp3670
g6
I00
sg7
V\u091b\u094b\u095c\u0924\u0947
p3671
sg9
(issf_api
FeatureSet
p3672
(dp3673
g12
(dp3674
S'posn'
p3675
S'160'
p3676
sS'name'
p3677
S'\xe0\xa4\x9b\xe0\xa5\x8b\xe0\xa5\x9c\xe0\xa4\xa4\xe0\xa5\x87'
p3678
sS'af'
p3679
S'\xe0\xa4\x9b\xe0\xa5\x8b\xe0\xa4\xa1,v,m,sg,any,,\xe0\xa4\xa4\xe0\xa4\xbe_\xe0\xa4\xb9\xe0\xa5\x8b+\xe0\xa4\xaf\xe0\xa4\xbe,wA'
p3680
sS'chunkid'
p3681
S'VGNF'
p3682
sS'drel'
p3683
S'vmod:VGF3'
p3684
sS'vpos'
p3685
S'tam_2'
p3686
sS'chunktype'
p3687
S'head:VGNF'
p3688
ssbsg28
I00
sg29
I00
sg30
Nsg31
Nsg32
I10
sg33
I9
sg34
Nsg35
Nsg36
S'VM'
p3689
sg38
g3672
sg39
I00
sba(issf_api
Word
p3690
(dp3691
g6
I00
sg7
V\u0939\u0941\u090f
p3692
sg9
(issf_api
FeatureSet
p3693
(dp3694
g12
(dp3695
S'posn'
p3696
S'170'
p3697
sS'name'
p3698
S'\xe0\xa4\xb9\xe0\xa5\x81\xe0\xa4\x8f'
p3699
sS'drel'
p3700
S'lwg__vaux:VGNF'
p3701
sS'chunktype'
p3702
S'child:VGNF'
p3703
sS'af'
p3704
S'\xe0\xa4\xb9\xe0\xa5\x8b,v,m,sg,any,,\xe0\xa4\xaf\xe0\xa4\xbe,yA'
p3705
ssbsg28
I00
sg29
I00
sg30
Nsg31
Nsg32
I10
sg33
I9
sg34
Nsg35
Nsg36
S'VAUX'
p3706
sg38
g3693
sg39
I00
sba(issf_api
Word
p3707
(dp3708
g6
I00
sg7
V\u0905\u095e\u0938\u094b\u0938
p3709
sg9
(issf_api
FeatureSet
p3710
(dp3711
g12
(dp3712
S'posn'
p3713
S'180'
p3714
sS'name'
p3715
S'\xe0\xa4\x85\xe0\xa5\x9e\xe0\xa4\xb8\xe0\xa5\x8b\xe0\xa4\xb8'
p3716
sS'af'
p3717
S'\xe0\xa4\x85\xe0\xa4\xab\xe0\xa4\xb8\xe0\xa5\x8b\xe0\xa4\xb8,n,m,sg,3,d,0,0'
p3718
sS'chunkid'
p3719
S'NP7'
p3720
sS'drel'
p3721
S'pof:VGF3'
p3722
sS'chunktype'
p3723
S'head:NP7'
p3724
ssbsg28
I00
sg29
I00
sg30
Nsg31
Nsg32
I11
sg33
I9
sg34
Nsg35
Nsg36
S'NN'
p3725
sg38
g3710
sg39
I00
sba(issf_api
Word
p3726
(dp3727
g6
I00
sg7
V\u0939\u0941\u0906
p3728
sg9
(issf_api
FeatureSet
p3729
(dp3730
g12
(dp3731
S'posn'
p3732
S'190'
p3733
sS'name'
p3734
S'\xe0\xa4\xb9\xe0\xa5\x81\xe0\xa4\x86'
p3735
sS'af'
p3736
S'\xe0\xa4\xb9\xe0\xa5\x8b,v,m,sg,any,,\xe0\xa4\xaf\xe0\xa4\xbe,yA'
p3737
sS'chunkid'
p3738
S'VGF3'
p3739
sS'stype'
p3740
S'declarative'
p3741
sS'drel'
p3742
S'ccof:CCP2'
p3743
sS'voicetype'
p3744
S'active'
p3745
sS'chunktype'
p3746
S'head:VGF3'
p3747
ssbsg28
I00
sg29
I00
sg30
Nsg31
Nsg32
I12
sg33
I9
sg34
Nsg35
Nsg36
S'VM'
p3748
sg38
g3729
sg39
I00
sba(issf_api
Word
p3749
(dp3750
g6
I00
sg7
V\u0964
p3751
sg9
(issf_api
FeatureSet
p3752
(dp3753
g12
(dp3754
S'posn'
p3755
S'200'
p3756
sS'name'
p3757
S'\xe0\xa5\xa4'
p3758
sS'af'
p3759
S'\xe0\xa5\xa4,punc,,,,,,'
p3760
sS'chunkid'
p3761
S'BLK'
p3762
sS'drel'
p3763
S'rsym:VGF'
p3764
sS'chunktype'
p3765
S'head:BLK'
p3766
ssbsg28
I00
sg29
I00
sg30
Nsg31
Nsg32
I13
sg33
I9
sg34
Nsg35
Nsg36
S'SYM'
p3767
sg38
g3752
sg39
I00
sba(issf_api
Word
p3768
(dp3769
g6
I00
sg7
V\u0930\u093e\u091c\u093e
p3770
sg9
(issf_api
FeatureSet
p3771
(dp3772
g12
(dp3773
S'crefhead'
p3774
S'\xe0\xa4\xb0\xe0\xa4\xbe\xe0\xa4\x9c\xe0\xa4\xbe:i46'
p3775
sS'posn'
p3776
S'10'
p3777
sS'name'
p3778
S'\xe0\xa4\xb0\xe0\xa4\xbe\xe0\xa4\x9c\xe0\xa4\xbe'
p3779
sS'af'
p3780
S'\xe0\xa4\xb0\xe0\xa4\xbe\xe0\xa4\x9c\xe0\xa4\xbe,n,m,sg,3,o,0_\xe0\xa4\xa8\xe0\xa5\x87,0'
p3781
sS'chunkid'
p3782
S'NP'
p3783
sS'creftype'
p3784
S'Coreference-Noun-Noun:i43'
p3785
sS'chunktype'
p3786
S'head:NP'
p3787
sS'vpos'
p3788
S'vib_2'
p3789
sS'cref'
p3790
S'i46%1:t2'
p3791
sS'drel'
p3792
S'k1:VGF'
p3793
ssbsg28
I00
sg29
I00
sg30
Nsg31
Nsg32
I0
sg33
I10
sg34
Nsg35
Nsg36
S'NNP'
p3794
sg38
g3771
sg39
I00
sba(issf_api
Word
p3795
(dp3796
g6
I00
sg7
V\u0928\u0947
p3797
sg9
(issf_api
FeatureSet
p3798
(dp3799
g12
(dp3800
S'posn'
p3801
S'20'
p3802
sS'name'
p3803
S'\xe0\xa4\xa8\xe0\xa5\x87'
p3804
sS'drel'
p3805
S'lwg__psp:NP'
p3806
sS'chunktype'
p3807
S'child:NP'
p3808
sS'af'
p3809
S'\xe0\xa4\xa8\xe0\xa5\x87,psp,,,,,,'
p3810
ssbsg28
I00
sg29
I00
sg30
Nsg31
Nsg32
I0
sg33
I10
sg34
Nsg35
Nsg36
S'PSP'
p3811
sg38
g3798
sg39
I00
sba(issf_api
Word
p3812
(dp3813
g6
I00
sg7
V\u0967\u096f\u096f\u096f
p3814
sg9
(issf_api
FeatureSet
p3815
(dp3816
g12
(dp3817
S'posn'
p3818
S'30'
p3819
sS'name'
p3820
S'\xe0\xa5\xa7\xe0\xa5\xaf\xe0\xa5\xaf\xe0\xa5\xaf'
p3821
sS'drel'
p3822
S'nmod__adj:NP2'
p3823
sS'chunktype'
p3824
S'child:NP2'
p3825
sS'af'
p3826
S'\xe0\xa5\xa7\xe0\xa5\xaf\xe0\xa5\xaf\xe0\xa5\xaf,n,m,sg,3,d,0,0'
p3827
ssbsg28
I00
sg29
I00
sg30
Nsg31
Nsg32
I1
sg33
I10
sg34
Nsg35
Nsg36
S'NNP'
p3828
sg38
g3815
sg39
I00
sba(issf_api
Word
p3829
(dp3830
g6
I00
sg7
V-JOIN
p3831
sg9
(issf_api
FeatureSet
p3832
(dp3833
g12
(dp3834
S'posn'
p3835
S'40'
p3836
sS'name'
p3837
S'-JOIN'
p3838
sS'drel'
p3839
S'rsym:NP2'
p3840
sS'chunktype'
p3841
S'child:NP2'
p3842
sS'af'
p3843
S'-,punc,,,,,,'
p3844
ssbsg28
I00
sg29
I00
sg30
Nsg31
Nsg32
I1
sg33
I10
sg34
Nsg35
Nsg36
S'SYM'
p3845
sg38
g3832
sg39
I00
sba(issf_api
Word
p3846
(dp3847
g6
I00
sg7
V\u0968\u0966\u0966\u0966
p3848
sg9
(issf_api
FeatureSet
p3849
(dp3850
g12
(dp3851
S'posn'
p3852
S'50'
p3853
sS'name'
p3854
S'\xe0\xa5\xa8\xe0\xa5\xa6\xe0\xa5\xa6\xe0\xa5\xa6'
p3855
sS'af'
p3856
S'\xe0\xa5\xa8\xe0\xa5\xa6\xe0\xa5\xa6\xe0\xa5\xa6,n,m,sg,3,o,0_\xe0\xa4\xae\xe0\xa5\x87\xe0\xa4\x82,0'
p3857
sS'chunkid'
p3858
S'NP2'
p3859
sS'drel'
p3860
S'k7t:VGF'
p3861
sS'vpos'
p3862
S'vib_vib_4'
p3863
sS'chunktype'
p3864
S'head:NP2'
p3865
ssbsg28
I00
sg29
I00
sg30
Nsg31
Nsg32
I1
sg33
I10
sg34
Nsg35
Nsg36
S'NNP'
p3866
sg38
g3849
sg39
I00
sba(issf_api
Word
p3867
(dp3868
g6
I00
sg7
V\u092e\u0947\u0902
p3869
sg9
(issf_api
FeatureSet
p3870
(dp3871
g12
(dp3872
S'posn'
p3873
S'60'
p3874
sS'name'
p3875
S'\xe0\xa4\xae\xe0\xa5\x87\xe0\xa4\x82'
p3876
sS'drel'
p3877
S'lwg__psp:NP2'
p3878
sS'chunktype'
p3879
S'child:NP2'
p3880
sS'af'
p3881
S'\xe0\xa4\xae\xe0\xa5\x87\xe0\xa4\x82,psp,,,,,,'
p3882
ssbsg28
I00
sg29
I00
sg30
Nsg31
Nsg32
I1
sg33
I10
sg34
Nsg35
Nsg36
S'PSP'
p3883
sg38
g3870
sg39
I00
sba(issf_api
Word
p3884
(dp3885
g6
I00
sg7
V\u092e\u0941\u0916\u094d\u092f
p3886
sg9
(issf_api
FeatureSet
p3887
(dp3888
g12
(dp3889
S'posn'
p3890
S'70'
p3891
sS'name'
p3892
S'\xe0\xa4\xae\xe0\xa5\x81\xe0\xa4\x96\xe0\xa5\x8d\xe0\xa4\xaf'
p3893
sS'af'
p3894
S'\xe0\xa4\xae\xe0\xa5\x81\xe0\xa4\x96\xe0\xa5\x8d\xe0\xa4\xaf,adj,any,any,,o,,'
p3895
sS'acrefmod'
p3896
S'm4%0:i47'
p3897
sS'drel'
p3898
S'nmod__adj:NP3'
p3899
sS'chunktype'
p3900
S'child:NP3'
p3901
ssbsg28
I00
sg29
I00
sg30
Nsg31
Nsg32
I2
sg33
I10
sg34
Nsg35
Nsg36
S'JJ'
p3902
sg38
g3887
sg39
I00
sba(issf_api
Word
p3903
(dp3904
g6
I00
sg7
V\u0915\u093e\u0930\u094d\u092f\u0915\u093e\u0930\u0940
p3905
sg9
(issf_api
FeatureSet
p3906
(dp3907
g12
(dp3908
S'posn'
p3909
S'80'
p3910
sS'name'
p3911
S'\xe0\xa4\x95\xe0\xa4\xbe\xe0\xa4\xb0\xe0\xa5\x8d\xe0\xa4\xaf\xe0\xa4\x95\xe0\xa4\xbe\xe0\xa4\xb0\xe0\xa5\x80'
p3912
sS'af'
p3913
S'\xe0\xa4\x95\xe0\xa4\xbe\xe0\xa4\xb0\xe0\xa5\x8d\xe0\xa4\xaf\xe0\xa4\x95\xe0\xa4\xbe\xe0\xa4\xb0\xe0\xa5\x80,n,m,sg,3,o,0_\xe0\xa4\x95\xe0\xa4\xbe,0'
p3914
sS'acrefmodhead'
p3915
S'\xe0\xa4\x95\xe0\xa4\xbe\xe0\xa4\xb0\xe0\xa5\x8d\xe0\xa4\xaf\xe0\xa4\x95\xe0\xa4\xbe\xe0\xa4\xb0\xe0\xa5\x80:m4'
p3916
sS'chunkid'
p3917
S'NP3'
p3918
sS'acrefmod'
p3919
S'm4%1:i47'
p3920
sS'drel'
p3921
S'r6:NP4'
p3922
sS'vpos'
p3923
S'vib_3'
p3924
sS'chunktype'
p3925
S'head:NP3'
p3926
ssbsg28
I00
sg29
I00
sg30
Nsg31
Nsg32
I2
sg33
I10
sg34
Nsg35
Nsg36
S'NN'
p3927
sg38
g3906
sg39
I00
sba(issf_api
Word
p3928
(dp3929
g6
I00
sg7
V\u0915\u093e
p3930
sg9
(issf_api
FeatureSet
p3931
(dp3932
g12
(dp3933
S'posn'
p3934
S'90'
p3935
sS'name'
p3936
S'\xe0\xa4\x95\xe0\xa4\xbe'
p3937
sS'drel'
p3938
S'lwg__psp:NP3'
p3939
sS'chunktype'
p3940
S'child:NP3'
p3941
sS'af'
p3942
S'\xe0\xa4\x95\xe0\xa4\xbe,psp,m,sg,,d,,'
p3943
ssbsg28
I00
sg29
I00
sg30
Nsg31
Nsg32
I2
sg33
I10
sg34
Nsg35
Nsg36
S'PSP'
p3944
sg38
g3931
sg39
I00
sba(issf_api
Word
p3945
(dp3946
g6
I00
sg7
V\u092a\u0926
p3947
sg9
(issf_api
FeatureSet
p3948
(dp3949
g12
(dp3950
S'crefhead'
p3951
S'\xe0\xa4\xaa\xe0\xa4\xa6:i47'
p3952
sS'posn'
p3953
S'100'
p3954
sS'name'
p3955
S'\xe0\xa4\xaa\xe0\xa4\xa6'
p3956
sS'af'
p3957
S'\xe0\xa4\xaa\xe0\xa4\xa6,n,m,sg,3,d,0,0'
p3958
sS'chunkid'
p3959
S'NP4'
p3960
sS'crefmod'
p3961
S'm4:i47'
p3962
sS'creftype'
p3963
S'Coreference-Identity:i45'
p3964
sS'chunktype'
p3965
S'head:NP4'
p3966
sS'cref'
p3967
S'i47%1:t3'
p3968
sS'drel'
p3969
S'k2:VGF'
p3970
ssbsg28
I00
sg29
I00
sg30
Nsg31
Nsg32
I3
sg33
I10
sg34
Nsg35
Nsg36
S'NN'
p3971
sg38
g3948
sg39
I00
sba(issf_api
Word
p3972
(dp3973
g6
I00
sg7
V\u0938\u0902\u092d\u093e\u0932\u093e
p3974
sg9
(issf_api
FeatureSet
p3975
(dp3976
g12
(dp3977
S'posn'
p3978
S'110'
p3979
sS'name'
p3980
S'\xe0\xa4\xb8\xe0\xa4\x82\xe0\xa4\xad\xe0\xa4\xbe\xe0\xa4\xb2\xe0\xa4\xbe'
p3981
sS'af'
p3982
S'\xe0\xa4\xb8\xe0\xa4\x82\xe0\xa4\xad\xe0\xa4\xbe\xe0\xa4\xb2,v,m,sg,any,,\xe0\xa4\xaf\xe0\xa4\xbe_\xe0\xa4\xa5\xe0\xa4\xbe,yA'
p3983
sS'chunkid'
p3984
S'VGF'
p3985
sS'chunktype'
p3986
S'head:VGF'
p3987
sS'voicetype'
p3988
S'active'
p3989
sS'vpos'
p3990
S'tam_2'
p3991
sS'stype'
p3992
S'declarative'
p3993
ssbsg28
I00
sg29
I00
sg30
Nsg31
Nsg32
I4
sg33
I10
sg34
Nsg35
Nsg36
S'VM'
p3994
sg38
g3975
sg39
I00
sba(issf_api
Word
p3995
(dp3996
g6
I00
sg7
V\u0925\u093e
p3997
sg9
(issf_api
FeatureSet
p3998
(dp3999
g12
(dp4000
S'posn'
p4001
S'120'
p4002
sS'name'
p4003
S'\xe0\xa4\xa5\xe0\xa4\xbe'
p4004
sS'drel'
p4005
S'lwg__vaux:VGF'
p4006
sS'chunktype'
p4007
S'child:VGF'
p4008
sS'af'
p4009
S'\xe0\xa4\xa5\xe0\xa4\xbe,v,m,sg,any,,\xe0\xa4\xa5\xe0\xa4\xbe,WA'
p4010
ssbsg28
I00
sg29
I00
sg30
Nsg31
Nsg32
I4
sg33
I10
sg34
Nsg35
Nsg36
S'VAUX'
p4011
sg38
g3998
sg39
I00
sba(issf_api
Word
p4012
(dp4013
g6
I00
sg7
V\u0964
p4014
sg9
(issf_api
FeatureSet
p4015
(dp4016
g12
(dp4017
S'posn'
p4018
S'130'
p4019
sS'name'
p4020
S'\xe0\xa5\xa4'
p4021
sS'af'
p4022
S'\xe0\xa5\xa4,punc,,,,,,'
p4023
sS'chunkid'
p4024
S'BLK'
p4025
sS'drel'
p4026
S'rsym:VGF'
p4027
sS'chunktype'
p4028
S'head:BLK'
p4029
ssbsg28
I00
sg29
I00
sg30
Nsg31
Nsg32
I5
sg33
I10
sg34
Nsg35
Nsg36
S'SYM'
p4030
sg38
g4015
sg39
I00
sbasS'sentenceList'
p4031
(lp4032
(issf_api
Sentence
p4033
(dp4034
S'rootNode'
p4035
(lp4036
sg33
I0
sS'wordNumList'
p4037
(lp4038
I0
aI1
aI2
aI3
aI4
aI5
aI6
aI7
aI8
aI9
aI10
aI11
aI12
aI13
aI14
aI15
aI16
aI17
asS'nodeDict'
p4039
(dp4040
S'VGF'
p4041
(issf_api
Node
p4042
(dp4043
S'nodeRelation'
p4044
S'None'
p4045
sS'nodeName'
p4046
g4041
sS'nodeParent'
p4047
g4045
sS'nodeLevel'
p4048
I-1
sg32
I6
sS'childList'
p4049
(lp4050
S'NP5'
p4051
aS'BLK'
p4052
aS'NP6'
p4053
aS'NP3'
p4054
asbsg4051
(issf_api
Node
p4055
(dp4056
g4044
S'k5'
p4057
sg4046
g4051
sg4047
S'VGF'
p4058
sg4048
I-1
sg32
I4
sg4049
(lp4059
S'NP4'
p4060
asbsg4052
(issf_api
Node
p4061
(dp4062
g4044
S'rsym'
p4063
sg4046
g4052
sg4047
S'VGF'
p4064
sg4048
I-1
sg32
I7
sg4049
(lp4065
sbsS'NP'
p4066
(issf_api
Node
p4067
(dp4068
g4044
S'r6'
p4069
sg4046
g4066
sg4047
S'NP2'
p4070
sg4048
I-1
sg32
I0
sg4049
(lp4071
sbsg4060
(issf_api
Node
p4072
(dp4073
g4044
S'r6'
p4074
sg4046
g4060
sg4047
S'NP5'
p4075
sg4048
I-1
sg32
I3
sg4049
(lp4076
sbsg4053
(issf_api
Node
p4077
(dp4078
g4044
S'pof'
p4079
sg4046
g4053
sg4047
S'VGF'
p4080
sg4048
I-1
sg32
I5
sg4049
(lp4081
sbsg4054
(issf_api
Node
p4082
(dp4083
g4044
S'k1'
p4084
sg4046
g4054
sg4047
S'VGF'
p4085
sg4048
I-1
sg32
I2
sg4049
(lp4086
S'NP2'
p4087
asbsg4087
(issf_api
Node
p4088
(dp4089
g4044
S'nmod'
p4090
sg4046
g4087
sg4047
S'NP3'
p4091
sg4048
I-1
sg32
I1
sg4049
(lp4092
g4066
asbssS'chunkList'
p4093
(lp4094
(issf_api
Chunk
p4095
(dp4096
g4046
g78
sg32
I0
sS'chunkTag'
p4097
g91
sg33
I0
sg4037
(lp4098
I0
aI1
aI2
aI3
asg38
(issf_api
FeatureSet
p4099
(dp4100
g12
(dp4101
S'name'
p4102
g4066
sS'drel'
p4103
S'r6:NP2'
p4104
ssbsba(issf_api
Chunk
p4105
(dp4106
g4046
g162
sg32
I1
sg4097
g171
sg33
I0
sg4037
(lp4107
I4
aI5
aI6
asg38
(issf_api
FeatureSet
p4108
(dp4109
g12
(dp4110
S'name'
p4111
g4087
sS'drel'
p4112
S'nmod:NP3'
p4113
ssbsba(issf_api
Chunk
p4114
(dp4115
g4046
g206
sg32
I2
sg4097
g219
sg33
I0
sg4037
(lp4116
I7
aI8
aI9
asg38
(issf_api
FeatureSet
p4117
(dp4118
g12
(dp4119
S'name'
p4120
g4054
sS'drel'
p4121
S'k1:VGF'
p4122
ssbsba(issf_api
Chunk
p4123
(dp4124
g4046
g254
sg32
I3
sg4097
g265
sg33
I0
sg4037
(lp4125
I10
asg38
(issf_api
FeatureSet
p4126
(dp4127
g12
(dp4128
S'name'
p4129
g4060
sS'drel'
p4130
S'r6:NP5'
p4131
ssbsba(issf_api
Chunk
p4132
(dp4133
g4046
g281
sg32
I4
sg4097
g292
sg33
I0
sg4037
(lp4134
I11
aI12
asg38
(issf_api
FeatureSet
p4135
(dp4136
g12
(dp4137
S'name'
p4138
g4051
sS'drel'
p4139
S'k5:VGF'
p4140
ssbsba(issf_api
Chunk
p4141
(dp4142
g4046
g325
sg32
I5
sg4097
g332
sg33
I0
sg4037
(lp4143
I13
asg38
(issf_api
FeatureSet
p4144
(dp4145
g12
(dp4146
S'name'
p4147
g4053
sS'drel'
p4148
S'pof:VGF'
p4149
ssbsba(issf_api
Chunk
p4150
(dp4151
g4046
g346
sg32
I6
sg4097
g355
sg33
I0
sg4037
(lp4152
I14
aI15
aI16
asg38
(issf_api
FeatureSet
p4153
(dp4154
g12
(dp4155
S'name'
p4156
g4041
ssbsba(issf_api
Chunk
p4157
(dp4158
g4046
g403
sg32
I7
sg4097
g408
sg33
I0
sg4037
(lp4159
I17
asg38
(issf_api
FeatureSet
p4160
(dp4161
g12
(dp4162
S'name'
p4163
g4052
sS'drel'
p4164
S'rsym:VGF'
p4165
ssbsbasba(issf_api
Sentence
p4166
(dp4167
g4035
(lp4168
sg33
I1
sg4037
(lp4169
I18
aI19
aI20
aI21
aI22
aI23
aI24
aI25
aI26
aI27
aI28
aI29
aI30
aI31
aI32
aI33
aI34
aI35
aI36
aI37
asg4039
(dp4170
S'VGNF'
p4171
(issf_api
Node
p4172
(dp4173
g4044
S'vmod'
p4174
sg4046
g4171
sg4047
S'VGF'
p4175
sg4048
I-1
sg32
I4
sg4049
(lp4176
S'NP4'
p4177
aS'NP3'
p4178
asbsS'VGNN'
p4179
(issf_api
Node
p4180
(dp4181
g4044
S'r6-k1'
p4182
sg4046
g4179
sg4047
S'NP6'
p4183
sg4048
I-1
sg32
I6
sg4049
(lp4184
S'NP5'
p4185
asbsS'VGF'
p4186
(issf_api
Node
p4187
(dp4188
g4044
g4045
sg4046
g4186
sg4047
g4045
sg4048
I-1
sg32
I8
sg4049
(lp4189
g4171
aS'BLK'
p4190
aS'NP6'
p4191
asbsg4185
(issf_api
Node
p4192
(dp4193
g4044
S'k2'
p4194
sg4046
g4185
sg4047
S'VGNN'
p4195
sg4048
I-1
sg32
I5
sg4049
(lp4196
sbsg4190
(issf_api
Node
p4197
(dp4198
g4044
S'rsym'
p4199
sg4046
g4190
sg4047
S'VGF'
p4200
sg4048
I-1
sg32
I9
sg4049
(lp4201
sbsS'NP'
p4202
(issf_api
Node
p4203
(dp4204
g4044
S'nmod'
p4205
sg4046
g4202
sg4047
S'NP2'
p4206
sg4048
I-1
sg32
I0
sg4049
(lp4207
sbsg4177
(issf_api
Node
p4208
(dp4209
g4044
S'nmod__k1inv'
p4210
sg4046
g4177
sg4047
S'VGNF'
p4211
sg4048
I-1
sg32
I3
sg4049
(lp4212
sbsg4191
(issf_api
Node
p4213
(dp4214
g4044
S'pof'
p4215
sg4046
g4191
sg4047
S'VGF'
p4216
sg4048
I-1
sg32
I7
sg4049
(lp4217
g4179
asbsg4178
(issf_api
Node
p4218
(dp4219
g4044
S'k7'
p4220
sg4046
g4178
sg4047
S'VGNF'
p4221
sg4048
I-1
sg32
I2
sg4049
(lp4222
S'NP2'
p4223
asbsg4223
(issf_api
Node
p4224
(dp4225
g4044
S'r6'
p4226
sg4046
g4223
sg4047
S'NP3'
p4227
sg4048
I-1
sg32
I1
sg4049
(lp4228
g4202
asbssg4093
(lp4229
(issf_api
Chunk
p4230
(dp4231
g4046
g462
sg32
I0
sg4097
g471
sg33
I1
sg4037
(lp4232
I18
aI19
aI20
asg38
(issf_api
FeatureSet
p4233
(dp4234
g12
(dp4235
S'name'
p4236
g4202
sS'drel'
p4237
S'nmod:NP2'
p4238
ssbsba(issf_api
Chunk
p4239
(dp4240
g4046
g487
sg32
I1
sg4097
g498
sg33
I1
sg4037
(lp4241
I21
aI22
asg38
(issf_api
FeatureSet
p4242
(dp4243
g12
(dp4244
S'name'
p4245
g4223
sS'drel'
p4246
S'r6:NP3'
p4247
ssbsba(issf_api
Chunk
p4248
(dp4249
g4046
g531
sg32
I2
sg4097
g542
sg33
I1
sg4037
(lp4250
I23
aI24
asg38
(issf_api
FeatureSet
p4251
(dp4252
g12
(dp4253
S'name'
p4254
g4178
sS'drel'
p4255
S'k7:VGNF'
p4256
ssbsba(issf_api
Chunk
p4257
(dp4258
g4046
g575
sg32
I3
sg4097
g584
sg33
I1
sg4037
(lp4259
I25
asg38
(issf_api
FeatureSet
p4260
(dp4261
g12
(dp4262
S'name'
p4263
g4177
sS'drel'
p4264
S'nmod__k1inv:VGNF'
p4265
ssbsba(issf_api
Chunk
p4266
(dp4267
g4046
g598
sg32
I4
sg4097
g605
sg33
I1
sg4037
(lp4268
I26
aI27
asg38
(issf_api
FeatureSet
p4269
(dp4270
g12
(dp4271
S'name'
p4272
g4171
sS'drel'
p4273
S'vmod:VGF'
p4274
ssbsba(issf_api
Chunk
p4275
(dp4276
g4046
g653
sg32
I5
sg4097
g658
sg33
I1
sg4037
(lp4277
I28
aI29
asg38
(issf_api
FeatureSet
p4278
(dp4279
g12
(dp4280
S'name'
p4281
g4185
sS'drel'
p4282
S'k2:VGNN'
p4283
ssbsba(issf_api
Chunk
p4284
(dp4285
g4046
g672
sg32
I6
sg4097
g679
sg33
I1
sg4037
(lp4286
I30
aI31
asg38
(issf_api
FeatureSet
p4287
(dp4288
g12
(dp4289
S'name'
p4290
g4179
sS'drel'
p4291
S'r6-k1:NP6'
p4292
ssbsba(issf_api
Chunk
p4293
(dp4294
g4046
g727
sg32
I7
sg4097
g732
sg33
I1
sg4037
(lp4295
I32
aI33
asg38
(issf_api
FeatureSet
p4296
(dp4297
g12
(dp4298
S'name'
p4299
g4191
sS'drel'
p4300
S'pof:VGF'
p4301
ssbsba(issf_api
Chunk
p4302
(dp4303
g4046
g746
sg32
I8
sg4097
g755
sg33
I1
sg4037
(lp4304
I34
aI35
aI36
asg38
(issf_api
FeatureSet
p4305
(dp4306
g12
(dp4307
S'name'
p4308
g4186
ssbsba(issf_api
Chunk
p4309
(dp4310
g4046
g803
sg32
I9
sg4097
g808
sg33
I1
sg4037
(lp4311
I37
asg38
(issf_api
FeatureSet
p4312
(dp4313
g12
(dp4314
S'name'
p4315
g4190
sS'drel'
p4316
S'rsym:VGF'
p4317
ssbsbasba(issf_api
Sentence
p4318
(dp4319
g4035
(lp4320
sg33
I2
sg4037
(lp4321
I38
aI39
aI40
aI41
aI42
aI43
aI44
aI45
aI46
aI47
aI48
aI49
aI50
aI51
aI52
aI53
asg4039
(dp4322
S'VGNN'
p4323
(issf_api
Node
p4324
(dp4325
g4044
S'r6'
p4326
sg4046
g4323
sg4047
S'NP4'
p4327
sg4048
I-1
sg32
I5
sg4049
(lp4328
S'NP3'
p4329
aS'NP2'
p4330
asbsS'VGF'
p4331
(issf_api
Node
p4332
(dp4333
g4044
g4045
sg4046
g4331
sg4047
g4045
sg4048
I-1
sg32
I1
sg4049
(lp4334
S'CCP'
p4335
aS'BLK'
p4336
aS'NP'
p4337
asbsg4335
(issf_api
Node
p4338
(dp4339
g4044
S'k2'
p4340
sg4046
g4335
sg4047
S'VGF'
p4341
sg4048
I-1
sg32
I2
sg4049
(lp4342
S'VGF2'
p4343
asbsg4343
(issf_api
Node
p4344
(dp4345
g4044
S'ccof'
p4346
sg4046
g4343
sg4047
S'CCP'
p4347
sg4048
I-1
sg32
I7
sg4049
(lp4348
S'NP4'
p4349
asbsg4336
(issf_api
Node
p4350
(dp4351
g4044
S'rsym'
p4352
sg4046
g4336
sg4047
S'VGF'
p4353
sg4048
I-1
sg32
I8
sg4049
(lp4354
sbsg4337
(issf_api
Node
p4355
(dp4356
g4044
S'k1'
p4357
sg4046
g4337
sg4047
S'VGF'
p4358
sg4048
I-1
sg32
I0
sg4049
(lp4359
sbsg4349
(issf_api
Node
p4360
(dp4361
g4044
S'k1'
p4362
sg4046
g4349
sg4047
S'VGF2'
p4363
sg4048
I-1
sg32
I6
sg4049
(lp4364
g4323
asbsg4329
(issf_api
Node
p4365
(dp4366
g4044
S'k2'
p4367
sg4046
g4329
sg4047
S'VGNN'
p4368
sg4048
I-1
sg32
I4
sg4049
(lp4369
sbsg4330
(issf_api
Node
p4370
(dp4371
g4044
S'rt'
p4372
sg4046
g4330
sg4047
S'VGNN'
p4373
sg4048
I-1
sg32
I3
sg4049
(lp4374
sbssg4093
(lp4375
(issf_api
Chunk
p4376
(dp4377
g4046
g824
sg32
I0
sg4097
g835
sg33
I2
sg4037
(lp4378
I38
aI39
asg38
(issf_api
FeatureSet
p4379
(dp4380
g12
(dp4381
S'name'
p4382
g4337
sS'drel'
p4383
S'k1:VGF'
p4384
ssbsba(issf_api
Chunk
p4385
(dp4386
g4046
g866
sg32
I1
sg4097
g873
sg33
I2
sg4037
(lp4387
I40
asg38
(issf_api
FeatureSet
p4388
(dp4389
g12
(dp4390
S'name'
p4391
g4331
ssbsba(issf_api
Chunk
p4392
(dp4393
g4046
g887
sg32
I2
sg4097
g892
sg33
I2
sg4037
(lp4394
I41
asg38
(issf_api
FeatureSet
p4395
(dp4396
g12
(dp4397
S'name'
p4398
g4335
sS'drel'
p4399
S'k2:VGF'
p4400
ssbsba(issf_api
Chunk
p4401
(dp4402
g4046
g908
sg32
I3
sg4097
g919
sg33
I2
sg4037
(lp4403
I42
aI43
asg38
(issf_api
FeatureSet
p4404
(dp4405
g12
(dp4406
S'name'
p4407
g4330
sS'drel'
p4408
S'rt:VGNN'
p4409
ssbsba(issf_api
Chunk
p4410
(dp4411
g4046
g998
sg32
I4
sg4097
g1009
sg33
I2
sg4037
(lp4412
I44
aI45
aI46
asg38
(issf_api
FeatureSet
p4413
(dp4414
g12
(dp4415
S'name'
p4416
g4329
sS'drel'
p4417
S'k2:VGNN'
p4418
ssbsba(issf_api
Chunk
p4419
(dp4420
g4046
g1023
sg32
I5
sg4097
g1030
sg33
I2
sg4037
(lp4421
I47
aI48
asg38
(issf_api
FeatureSet
p4422
(dp4423
g12
(dp4424
S'name'
p4425
g4323
sS'drel'
p4426
S'r6:NP4'
p4427
ssbsba(issf_api
Chunk
p4428
(dp4429
g4046
g1095
sg32
I6
sg4097
g1100
sg33
I2
sg4037
(lp4430
I49
aI50
aI51
asg38
(issf_api
FeatureSet
p4431
(dp4432
g12
(dp4433
S'name'
p4434
g4349
sS'drel'
p4435
S'k1:VGF2'
p4436
ssbsba(issf_api
Chunk
p4437
(dp4438
g4046
g1114
sg32
I7
sg4097
g1123
sg33
I2
sg4037
(lp4439
I52
asg38
(issf_api
FeatureSet
p4440
(dp4441
g12
(dp4442
S'name'
p4443
g4343
sS'drel'
p4444
S'ccof:CCP'
p4445
ssbsba(issf_api
Chunk
p4446
(dp4447
g4046
g1137
sg32
I8
sg4097
g1142
sg33
I2
sg4037
(lp4448
I53
asg38
(issf_api
FeatureSet
p4449
(dp4450
g12
(dp4451
S'name'
p4452
g4336
sS'drel'
p4453
S'rsym:VGF'
p4454
ssbsbasba(issf_api
Sentence
p4455
(dp4456
g4035
(lp4457
sg33
I3
sg4037
(lp4458
I54
aI55
aI56
aI57
aI58
aI59
aI60
aI61
aI62
aI63
aI64
aI65
aI66
aI67
aI68
aI69
aI70
aI71
aI72
aI73
asg4039
(dp4459
S'VGF2'
p4460
(issf_api
Node
p4461
(dp4462
g4044
S'ccof'
p4463
sg4046
g4460
sg4047
S'CCP'
p4464
sg4048
I-1
sg32
I6
sg4049
(lp4465
S'JJP'
p4466
aS'NULL__NP'
p4467
aS'NP3'
p4468
aS'NP2'
p4469
asbsS'VGF'
p4470
(issf_api
Node
p4471
(dp4472
g4044
g4045
sg4046
g4470
sg4047
g4045
sg4048
I-1
sg32
I1
sg4049
(lp4473
S'CCP'
p4474
aS'BLK'
p4475
aS'NP'
p4476
asbsS'VGF3'
p4477
(issf_api
Node
p4478
(dp4479
g4044
S'ccof'
p4480
sg4046
g4477
sg4047
S'CCP2'
p4481
sg4048
I-1
sg32
I11
sg4049
(lp4482
S'NP5'
p4483
aS'JJP2'
p4484
aS'NP4'
p4485
asbsg4474
(issf_api
Node
p4486
(dp4487
g4044
S'k2'
p4488
sg4046
g4474
sg4047
S'VGF'
p4489
sg4048
I-1
sg32
I2
sg4049
(lp4490
g4460
asbsg4466
(issf_api
Node
p4491
(dp4492
g4044
S'pof'
p4493
sg4046
g4466
sg4047
S'VGF2'
p4494
sg4048
I-1
sg32
I5
sg4049
(lp4495
sbsg4483
(issf_api
Node
p4496
(dp4497
g4044
S'k1'
p4498
sg4046
g4483
sg4047
S'VGF3'
p4499
sg4048
I-1
sg32
I9
sg4049
(lp4500
sbsg4484
(issf_api
Node
p4501
(dp4502
g4044
S'k1s'
p4503
sg4046
g4484
sg4047
S'VGF3'
p4504
sg4048
I-1
sg32
I10
sg4049
(lp4505
sbsg4475
(issf_api
Node
p4506
(dp4507
g4044
S'rsym'
p4508
sg4046
g4475
sg4047
S'VGF'
p4509
sg4048
I-1
sg32
I12
sg4049
(lp4510
sbsg4467
(issf_api
Node
p4511
(dp4512
g4044
S'k2'
p4513
sg4046
g4467
sg4047
S'VGF2'
p4514
sg4048
I-1
sg32
I-1
sg4049
(lp4515
S'CCP2'
p4516
asbsg4476
(issf_api
Node
p4517
(dp4518
g4044
S'k1'
p4519
sg4046
g4476
sg4047
S'VGF'
p4520
sg4048
I-1
sg32
I0
sg4049
(lp4521
sbsg4485
(issf_api
Node
p4522
(dp4523
g4044
S'rt'
p4524
sg4046
g4485
sg4047
S'VGF3'
p4525
sg4048
I-1
sg32
I8
sg4049
(lp4526
sbsg4516
(issf_api
Node
p4527
(dp4528
g4044
S'rs'
p4529
sg4046
g4516
sg4047
S'NULL__NP'
p4530
sg4048
I-1
sg32
I7
sg4049
(lp4531
g4477
asbsg4468
(issf_api
Node
p4532
(dp4533
g4044
S'k4'
p4534
sg4046
g4468
sg4047
S'VGF2'
p4535
sg4048
I-1
sg32
I4
sg4049
(lp4536
sbsg4469
(issf_api
Node
p4537
(dp4538
g4044
S'k1'
p4539
sg4046
g4469
sg4047
S'VGF2'
p4540
sg4048
I-1
sg32
I3
sg4049
(lp4541
sbssg4093
(lp4542
(issf_api
Chunk
p4543
(dp4544
g4046
g1158
sg32
I0
sg4097
g1169
sg33
I3
sg4037
(lp4545
I54
aI55
asg38
(issf_api
FeatureSet
p4546
(dp4547
g12
(dp4548
S'name'
p4549
g4476
sS'drel'
p4550
S'k1:VGF'
p4551
ssbsba(issf_api
Chunk
p4552
(dp4553
g4046
g1200
sg32
I1
sg4097
g1207
sg33
I3
sg4037
(lp4554
I56
asg38
(issf_api
FeatureSet
p4555
(dp4556
g12
(dp4557
S'name'
p4558
g4470
ssbsba(issf_api
Chunk
p4559
(dp4560
g4046
g1221
sg32
I2
sg4097
g1226
sg33
I3
sg4037
(lp4561
I57
asg38
(issf_api
FeatureSet
p4562
(dp4563
g12
(dp4564
S'name'
p4565
g4474
sS'drel'
p4566
S'k2:VGF'
p4567
ssbsba(issf_api
Chunk
p4568
(dp4569
g4046
g1242
sg32
I3
sg4097
g1251
sg33
I3
sg4037
(lp4570
I58
asg38
(issf_api
FeatureSet
p4571
(dp4572
g12
(dp4573
S'name'
p4574
g4469
sS'drel'
p4575
S'k1:VGF2'
p4576
ssbsba(issf_api
Chunk
p4577
(dp4578
g4046
g1267
sg32
I4
sg4097
g1278
sg33
I3
sg4037
(lp4579
I59
aI60
asg38
(issf_api
FeatureSet
p4580
(dp4581
g12
(dp4582
S'name'
p4583
g4468
sS'drel'
p4584
S'k4:VGF2'
p4585
ssbsba(issf_api
Chunk
p4586
(dp4587
g4046
g1309
sg32
I5
sg4097
g1314
sg33
I3
sg4037
(lp4588
I61
asg38
(issf_api
FeatureSet
p4589
(dp4590
g12
(dp4591
S'name'
p4592
g4466
sS'drel'
p4593
S'pof:VGF2'
p4594
ssbsba(issf_api
Chunk
p4595
(dp4596
g4046
g1328
sg32
I6
sg4097
g1339
sg33
I3
sg4037
(lp4597
I62
aI63
aI64
asg38
(issf_api
FeatureSet
p4598
(dp4599
g12
(dp4600
S'name'
p4601
g4460
sS'drel'
p4602
S'ccof:CCP'
p4603
ssbsba(issf_api
Chunk
p4604
(dp4605
g4046
g1387
sg32
I7
sg4097
g1392
sg33
I3
sg4037
(lp4606
I65
asg38
(issf_api
FeatureSet
p4607
(dp4608
g12
(dp4609
S'name'
p4610
g4516
sS'drel'
p4611
S'rs:NULL__NP'
p4612
ssbsba(issf_api
Chunk
p4613
(dp4614
g4046
g1408
sg32
I8
sg4097
g1419
sg33
I3
sg4037
(lp4615
I66
aI67
asg38
(issf_api
FeatureSet
p4616
(dp4617
g12
(dp4618
S'name'
p4619
g4485
sS'drel'
p4620
S'rt:VGF3'
p4621
ssbsba(issf_api
Chunk
p4622
(dp4623
g4046
g1473
sg32
I9
sg4097
g1478
sg33
I3
sg4037
(lp4624
I68
aI69
asg38
(issf_api
FeatureSet
p4625
(dp4626
g12
(dp4627
S'name'
p4628
g4483
sS'drel'
p4629
S'k1:VGF3'
p4630
ssbsba(issf_api
Chunk
p4631
(dp4632
g4046
g1509
sg32
I10
sg4097
g1514
sg33
I3
sg4037
(lp4633
I70
aI71
asg38
(issf_api
FeatureSet
p4634
(dp4635
g12
(dp4636
S'name'
p4637
g4484
sS'drel'
p4638
S'k1s:VGF3'
p4639
ssbsba(issf_api
Chunk
p4640
(dp4641
g4046
g1528
sg32
I11
sg4097
g1537
sg33
I3
sg4037
(lp4642
I72
asg38
(issf_api
FeatureSet
p4643
(dp4644
g12
(dp4645
S'name'
p4646
g4477
sS'drel'
p4647
S'ccof:CCP2'
p4648
ssbsba(issf_api
Chunk
p4649
(dp4650
g4046
g1551
sg32
I12
sg4097
g1556
sg33
I3
sg4037
(lp4651
I73
asg38
(issf_api
FeatureSet
p4652
(dp4653
g12
(dp4654
S'name'
p4655
g4475
sS'drel'
p4656
S'rsym:VGF'
p4657
ssbsbasba(issf_api
Sentence
p4658
(dp4659
g4035
(lp4660
sg33
I4
sg4037
(lp4661
I74
aI75
aI76
aI77
aI78
aI79
aI80
aI81
aI82
aI83
aI84
aI85
aI86
aI87
aI88
aI89
asg4039
(dp4662
S'VGF'
p4663
(issf_api
Node
p4664
(dp4665
g4044
S'ccof'
p4666
sg4046
g4663
sg4047
S'CCP'
p4667
sg4048
I-1
sg32
I4
sg4049
(lp4668
S'NP'
p4669
aS'NP3'
p4670
aS'NP2'
p4671
asbsS'CCP'
p4672
(issf_api
Node
p4673
(dp4674
g4044
g4045
sg4046
g4672
sg4047
g4045
sg4048
I-1
sg32
I0
sg4049
(lp4675
g4663
aS'BLK'
p4676
asbsS'VGF2'
p4677
(issf_api
Node
p4678
(dp4679
g4044
S'ccof'
p4680
sg4046
g4677
sg4047
S'CCP2'
p4681
sg4048
I-1
sg32
I9
sg4049
(lp4682
S'NP5'
p4683
aS'NP4'
p4684
aS'NP6'
p4685
asbsg4683
(issf_api
Node
p4686
(dp4687
g4044
S'k2'
p4688
sg4046
g4683
sg4047
S'VGF2'
p4689
sg4048
I-1
sg32
I7
sg4049
(lp4690
sbsg4676
(issf_api
Node
p4691
(dp4692
g4044
S'rsym'
p4693
sg4046
g4676
sg4047
S'CCP'
p4694
sg4048
I-1
sg32
I10
sg4049
(lp4695
sbsg4669
(issf_api
Node
p4696
(dp4697
g4044
S'k1'
p4698
sg4046
g4669
sg4047
S'VGF'
p4699
sg4048
I-1
sg32
I1
sg4049
(lp4700
sbsg4684
(issf_api
Node
p4701
(dp4702
g4044
S'k1'
p4703
sg4046
g4684
sg4047
S'VGF2'
p4704
sg4048
I-1
sg32
I6
sg4049
(lp4705
sbsg4685
(issf_api
Node
p4706
(dp4707
g4044
S'rh'
p4708
sg4046
g4685
sg4047
S'VGF2'
p4709
sg4048
I-1
sg32
I8
sg4049
(lp4710
sbsS'CCP2'
p4711
(issf_api
Node
p4712
(dp4713
g4044
S'rs'
p4714
sg4046
g4711
sg4047
S'NP2'
p4715
sg4048
I-1
sg32
I5
sg4049
(lp4716
g4677
asbsg4670
(issf_api
Node
p4717
(dp4718
g4044
S'pof'
p4719
sg4046
g4670
sg4047
S'VGF'
p4720
sg4048
I-1
sg32
I3
sg4049
(lp4721
sbsg4671
(issf_api
Node
p4722
(dp4723
g4044
S'k2'
p4724
sg4046
g4671
sg4047
S'VGF'
p4725
sg4048
I-1
sg32
I2
sg4049
(lp4726
g4711
asbssg4093
(lp4727
(issf_api
Chunk
p4728
(dp4729
g4046
g1566
sg32
I0
sg4097
g1573
sg33
I4
sg4037
(lp4730
I74
asg38
(issf_api
FeatureSet
p4731
(dp4732
g12
(dp4733
S'name'
p4734
g4672
ssbsba(issf_api
Chunk
p4735
(dp4736
g4046
g1589
sg32
I1
sg4097
g1598
sg33
I4
sg4037
(lp4737
I75
asg38
(issf_api
FeatureSet
p4738
(dp4739
g12
(dp4740
S'name'
p4741
g4669
sS'drel'
p4742
S'k1:VGF'
p4743
ssbsba(issf_api
Chunk
p4744
(dp4745
g4046
g1629
sg32
I2
sg4097
g1636
sg33
I4
sg4037
(lp4746
I76
aI77
aI78
asg38
(issf_api
FeatureSet
p4747
(dp4748
g12
(dp4749
S'name'
p4750
g4671
sS'drel'
p4751
S'k2:VGF'
p4752
ssbsba(issf_api
Chunk
p4753
(dp4754
g4046
g1667
sg32
I3
sg4097
g1672
sg33
I4
sg4037
(lp4755
I79
asg38
(issf_api
FeatureSet
p4756
(dp4757
g12
(dp4758
S'name'
p4759
g4670
sS'drel'
p4760
S'pof:VGF'
p4761
ssbsba(issf_api
Chunk
p4762
(dp4763
g4046
g1686
sg32
I4
sg4097
g1695
sg33
I4
sg4037
(lp4764
I80
asg38
(issf_api
FeatureSet
p4765
(dp4766
g12
(dp4767
S'name'
p4768
g4663
sS'drel'
p4769
S'ccof:CCP'
p4770
ssbsba(issf_api
Chunk
p4771
(dp4772
g4046
g1709
sg32
I5
sg4097
g1714
sg33
I4
sg4037
(lp4773
I81
asg38
(issf_api
FeatureSet
p4774
(dp4775
g12
(dp4776
S'name'
p4777
g4711
sS'drel'
p4778
S'rs:NP2'
p4779
ssbsba(issf_api
Chunk
p4780
(dp4781
g4046
g1730
sg32
I6
sg4097
g1739
sg33
I4
sg4037
(lp4782
I82
asg38
(issf_api
FeatureSet
p4783
(dp4784
g12
(dp4785
S'name'
p4786
g4684
sS'drel'
p4787
S'k1:VGF2'
p4788
ssbsba(issf_api
Chunk
p4789
(dp4790
g4046
g1755
sg32
I7
sg4097
g1764
sg33
I4
sg4037
(lp4791
I83
asg38
(issf_api
FeatureSet
p4792
(dp4793
g12
(dp4794
S'name'
p4795
g4683
sS'drel'
p4796
S'k2:VGF2'
p4797
ssbsba(issf_api
Chunk
p4798
(dp4799
g4046
g1778
sg32
I8
sg4097
g1785
sg33
I4
sg4037
(lp4800
I84
aI85
aI86
aI87
asg38
(issf_api
FeatureSet
p4801
(dp4802
g12
(dp4803
S'name'
p4804
g4685
sS'drel'
p4805
S'rh:VGF2'
p4806
ssbsba(issf_api
Chunk
p4807
(dp4808
g4046
g1850
sg32
I9
sg4097
g1859
sg33
I4
sg4037
(lp4809
I88
asg38
(issf_api
FeatureSet
p4810
(dp4811
g12
(dp4812
S'name'
p4813
g4677
sS'drel'
p4814
S'ccof:CCP2'
p4815
ssbsba(issf_api
Chunk
p4816
(dp4817
g4046
g1873
sg32
I10
sg4097
g1878
sg33
I4
sg4037
(lp4818
I89
asg38
(issf_api
FeatureSet
p4819
(dp4820
g12
(dp4821
S'name'
p4822
g4676
sS'drel'
p4823
S'rsym:CCP'
p4824
ssbsbasba(issf_api
Sentence
p4825
(dp4826
g4035
(lp4827
sg33
I5
sg4037
(lp4828
I90
aI91
aI92
aI93
aI94
aI95
aI96
aI97
aI98
aI99
aI100
aI101
aI102
aI103
aI104
aI105
aI106
aI107
aI108
aI109
aI110
aI111
aI112
aI113
aI114
aI115
aI116
aI117
aI118
aI119
aI120
asg4039
(dp4829
S'VGNN'
p4830
(issf_api
Node
p4831
(dp4832
g4044
S'rt'
p4833
sg4046
g4830
sg4047
S'VGNN2'
p4834
sg4048
I-1
sg32
I6
sg4049
(lp4835
S'NP4'
p4836
aS'NP3'
p4837
aS'NP2'
p4838
asbsS'VGF'
p4839
(issf_api
Node
p4840
(dp4841
g4044
g4045
sg4046
g4839
sg4047
g4045
sg4048
I-1
sg32
I1
sg4049
(lp4842
S'CCP'
p4843
aS'BLK'
p4844
aS'NP'
p4845
asbsS'VGF3'
p4846
(issf_api
Node
p4847
(dp4848
g4044
S'ccof'
p4849
sg4046
g4846
sg4047
S'CCP2'
p4850
sg4048
I-1
sg32
I15
sg4049
(lp4851
S'NP9'
p4852
aS'NP8'
p4853
asbsg4843
(issf_api
Node
p4854
(dp4855
g4044
S'k2'
p4856
sg4046
g4843
sg4047
S'VGF'
p4857
sg4048
I-1
sg32
I2
sg4049
(lp4858
S'CCP2'
p4859
asbsS'VGF2'
p4860
(issf_api
Node
p4861
(dp4862
g4044
S'ccof'
p4863
sg4046
g4860
sg4047
S'CCP2'
p4864
sg4048
I-1
sg32
I10
sg4049
(lp4865
S'NP6'
p4866
asbsS'VGNN2'
p4867
(issf_api
Node
p4868
(dp4869
g4044
S'r6-k2'
p4870
sg4046
g4867
sg4047
S'NP6'
p4871
sg4048
I-1
sg32
I8
sg4049
(lp4872
g4830
aS'NP5'
p4873
asbsg4873
(issf_api
Node
p4874
(dp4875
g4044
S'k2'
p4876
sg4046
g4873
sg4047
S'VGNN2'
p4877
sg4048
I-1
sg32
I7
sg4049
(lp4878
sbsg4852
(issf_api
Node
p4879
(dp4880
g4044
S'pof'
p4881
sg4046
g4852
sg4047
S'VGF3'
p4882
sg4048
I-1
sg32
I14
sg4049
(lp4883
sbsg4853
(issf_api
Node
p4884
(dp4885
g4044
S'k2'
p4886
sg4046
g4853
sg4047
S'VGF3'
p4887
sg4048
I-1
sg32
I13
sg4049
(lp4888
S'NP7'
p4889
asbsg4844
(issf_api
Node
p4890
(dp4891
g4044
S'rsym'
p4892
sg4046
g4844
sg4047
S'VGF'
p4893
sg4048
I-1
sg32
I16
sg4049
(lp4894
sbsg4845
(issf_api
Node
p4895
(dp4896
g4044
S'k1'
p4897
sg4046
g4845
sg4047
S'VGF'
p4898
sg4048
I-1
sg32
I0
sg4049
(lp4899
sbsg4836
(issf_api
Node
p4900
(dp4901
g4044
S'k2'
p4902
sg4046
g4836
sg4047
S'VGNN'
p4903
sg4048
I-1
sg32
I5
sg4049
(lp4904
sbsg4889
(issf_api
Node
p4905
(dp4906
g4044
S'r6'
p4907
sg4046
g4889
sg4047
S'NP8'
p4908
sg4048
I-1
sg32
I12
sg4049
(lp4909
sbsg4866
(issf_api
Node
p4910
(dp4911
g4044
S'pof'
p4912
sg4046
g4866
sg4047
S'VGF2'
p4913
sg4048
I-1
sg32
I9
sg4049
(lp4914
g4867
asbsg4859
(issf_api
Node
p4915
(dp4916
g4044
S'ccof'
p4917
sg4046
g4859
sg4047
S'CCP'
p4918
sg4048
I-1
sg32
I11
sg4049
(lp4919
g4846
ag4860
asbsg4837
(issf_api
Node
p4920
(dp4921
g4044
S'k4'
p4922
sg4046
g4837
sg4047
S'VGNN'
p4923
sg4048
I-1
sg32
I4
sg4049
(lp4924
sbsg4838
(issf_api
Node
p4925
(dp4926
g4044
S'k1'
p4927
sg4046
g4838
sg4047
S'VGNN'
p4928
sg4048
I-1
sg32
I3
sg4049
(lp4929
sbssg4093
(lp4930
(issf_api
Chunk
p4931
(dp4932
g4046
g1894
sg32
I0
sg4097
g1905
sg33
I5
sg4037
(lp4933
I90
aI91
asg38
(issf_api
FeatureSet
p4934
(dp4935
g12
(dp4936
S'name'
p4937
g4845
sS'drel'
p4938
S'k1:VGF'
p4939
ssbsba(issf_api
Chunk
p4940
(dp4941
g4046
g1936
sg32
I1
sg4097
g1943
sg33
I5
sg4037
(lp4942
I92
asg38
(issf_api
FeatureSet
p4943
(dp4944
g12
(dp4945
S'name'
p4946
g4839
ssbsba(issf_api
Chunk
p4947
(dp4948
g4046
g1957
sg32
I2
sg4097
g1962
sg33
I5
sg4037
(lp4949
I93
asg38
(issf_api
FeatureSet
p4950
(dp4951
g12
(dp4952
S'name'
p4953
g4843
sS'drel'
p4954
S'k2:VGF'
p4955
ssbsba(issf_api
Chunk
p4956
(dp4957
g4046
g1978
sg32
I3
sg4097
g1987
sg33
I5
sg4037
(lp4958
I94
asg38
(issf_api
FeatureSet
p4959
(dp4960
g12
(dp4961
S'name'
p4962
g4838
sS'drel'
p4963
S'k1:VGNN'
p4964
ssbsba(issf_api
Chunk
p4965
(dp4966
g4046
g2003
sg32
I4
sg4097
g2014
sg33
I5
sg4037
(lp4967
I95
aI96
asg38
(issf_api
FeatureSet
p4968
(dp4969
g12
(dp4970
S'name'
p4971
g4837
sS'drel'
p4972
S'k4:VGNN'
p4973
ssbsba(issf_api
Chunk
p4974
(dp4975
g4046
g2066
sg32
I5
sg4097
g2077
sg33
I5
sg4037
(lp4976
I97
aI98
aI99
asg38
(issf_api
FeatureSet
p4977
(dp4978
g12
(dp4979
S'name'
p4980
g4836
sS'drel'
p4981
S'k2:VGNN'
p4982
ssbsba(issf_api
Chunk
p4983
(dp4984
g4046
g2108
sg32
I6
sg4097
g2115
sg33
I5
sg4037
(lp4985
I100
aI101
aI102
asg38
(issf_api
FeatureSet
p4986
(dp4987
g12
(dp4988
S'name'
p4989
g4830
sS'drel'
p4990
S'rt:VGNN2'
p4991
ssbsba(issf_api
Chunk
p4992
(dp4993
g4046
g2186
sg32
I7
sg4097
g2193
sg33
I5
sg4037
(lp4994
I103
aI104
aI105
asg38
(issf_api
FeatureSet
p4995
(dp4996
g12
(dp4997
S'name'
p4998
g4873
sS'drel'
p4999
S'k2:VGNN2'
p5000
ssbsba(issf_api
Chunk
p5001
(dp5002
g4046
g2224
sg32
I8
sg4097
g2231
sg33
I5
sg4037
(lp5003
I106
aI107
asg38
(issf_api
FeatureSet
p5004
(dp5005
g12
(dp5006
S'name'
p5007
g4867
sS'drel'
p5008
S'r6-k2:NP6'
p5009
ssbsba(issf_api
Chunk
p5010
(dp5011
g4046
g2262
sg32
I9
sg4097
g2267
sg33
I5
sg4037
(lp5012
I108
asg38
(issf_api
FeatureSet
p5013
(dp5014
g12
(dp5015
S'name'
p5016
g4866
sS'drel'
p5017
S'pof:VGF2'
p5018
ssbsba(issf_api
Chunk
p5019
(dp5020
g4046
g2281
sg32
I10
sg4097
g2292
sg33
I5
sg4037
(lp5021
I109
aI110
asg38
(issf_api
FeatureSet
p5022
(dp5023
g12
(dp5024
S'name'
p5025
g4860
sS'drel'
p5026
S'ccof:CCP2'
p5027
ssbsba(issf_api
Chunk
p5028
(dp5029
g4046
g2323
sg32
I11
sg4097
g2328
sg33
I5
sg4037
(lp5030
I111
asg38
(issf_api
FeatureSet
p5031
(dp5032
g12
(dp5033
S'name'
p5034
g4859
sS'drel'
p5035
S'ccof:CCP'
p5036
ssbsba(issf_api
Chunk
p5037
(dp5038
g4046
g2344
sg32
I12
sg4097
g2353
sg33
I5
sg4037
(lp5039
I112
asg38
(issf_api
FeatureSet
p5040
(dp5041
g12
(dp5042
S'name'
p5043
g4889
sS'drel'
p5044
S'r6:NP8'
p5045
ssbsba(issf_api
Chunk
p5046
(dp5047
g4046
g2367
sg32
I13
sg4097
g2374
sg33
I5
sg4037
(lp5048
I113
aI114
asg38
(issf_api
FeatureSet
p5049
(dp5050
g12
(dp5051
S'name'
p5052
g4853
sS'drel'
p5053
S'k2:VGF3'
p5054
ssbsba(issf_api
Chunk
p5055
(dp5056
g4046
g2405
sg32
I14
sg4097
g2410
sg33
I5
sg4037
(lp5057
I115
asg38
(issf_api
FeatureSet
p5058
(dp5059
g12
(dp5060
S'name'
p5061
g4852
sS'drel'
p5062
S'pof:VGF3'
p5063
ssbsba(issf_api
Chunk
p5064
(dp5065
g4046
g2424
sg32
I15
sg4097
g2435
sg33
I5
sg4037
(lp5066
I116
aI117
aI118
aI119
asg38
(issf_api
FeatureSet
p5067
(dp5068
g12
(dp5069
S'name'
p5070
g4846
sS'drel'
p5071
S'ccof:CCP2'
p5072
ssbsba(issf_api
Chunk
p5073
(dp5074
g4046
g2500
sg32
I16
sg4097
g2505
sg33
I5
sg4037
(lp5075
I120
asg38
(issf_api
FeatureSet
p5076
(dp5077
g12
(dp5078
S'name'
p5079
g4844
sS'drel'
p5080
S'rsym:VGF'
p5081
ssbsbasba(issf_api
Sentence
p5082
(dp5083
g4035
(lp5084
sg33
I6
sg4037
(lp5085
I121
aI122
aI123
aI124
aI125
aI126
aI127
aI128
aI129
aI130
aI131
aI132
aI133
aI134
aI135
aI136
aI137
aI138
aI139
asg4039
(dp5086
S'VGF'
p5087
(issf_api
Node
p5088
(dp5089
g4044
g4045
sg4046
g5087
sg4047
g4045
sg4048
I-1
sg32
I1
sg4049
(lp5090
S'CCP'
p5091
aS'BLK'
p5092
aS'NP'
p5093
asbsg5091
(issf_api
Node
p5094
(dp5095
g4044
S'k2'
p5096
sg4046
g5091
sg4047
S'VGF'
p5097
sg4048
I-1
sg32
I2
sg4049
(lp5098
S'VGF2'
p5099
asbsg5099
(issf_api
Node
p5100
(dp5101
g4044
S'ccof'
p5102
sg4046
g5099
sg4047
S'CCP'
p5103
sg4048
I-1
sg32
I9
sg4049
(lp5104
S'NP5'
p5105
aS'NP7'
p5106
aS'NP6'
p5107
aS'NP2'
p5108
asbsg5105
(issf_api
Node
p5109
(dp5110
g4044
S'k7'
p5111
sg4046
g5105
sg4047
S'VGF2'
p5112
sg4048
I-1
sg32
I6
sg4049
(lp5113
S'NP4'
p5114
asbsg5092
(issf_api
Node
p5115
(dp5116
g4044
S'rsym'
p5117
sg4046
g5092
sg4047
S'VGF'
p5118
sg4048
I-1
sg32
I10
sg4049
(lp5119
sbsg5093
(issf_api
Node
p5120
(dp5121
g4044
S'k1'
p5122
sg4046
g5093
sg4047
S'VGF'
p5123
sg4048
I-1
sg32
I0
sg4049
(lp5124
sbsg5114
(issf_api
Node
p5125
(dp5126
g4044
S'r6'
p5127
sg4046
g5114
sg4047
S'NP5'
p5128
sg4048
I-1
sg32
I5
sg4049
(lp5129
S'NP3'
p5130
asbsg5106
(issf_api
Node
p5131
(dp5132
g4044
S'pof'
p5133
sg4046
g5106
sg4047
S'VGF2'
p5134
sg4048
I-1
sg32
I8
sg4049
(lp5135
sbsg5107
(issf_api
Node
p5136
(dp5137
g4044
S'k2'
p5138
sg4046
g5107
sg4047
S'VGF2'
p5139
sg4048
I-1
sg32
I7
sg4049
(lp5140
sbsg5130
(issf_api
Node
p5141
(dp5142
g4044
S'r6'
p5143
sg4046
g5130
sg4047
S'NP4'
p5144
sg4048
I-1
sg32
I4
sg4049
(lp5145
sbsg5108
(issf_api
Node
p5146
(dp5147
g4044
S'k1'
p5148
sg4046
g5108
sg4047
S'VGF2'
p5149
sg4048
I-1
sg32
I3
sg4049
(lp5150
sbssg4093
(lp5151
(issf_api
Chunk
p5152
(dp5153
g4046
g2521
sg32
I0
sg4097
g2532
sg33
I6
sg4037
(lp5154
I121
aI122
asg38
(issf_api
FeatureSet
p5155
(dp5156
g12
(dp5157
S'name'
p5158
g5093
sS'drel'
p5159
S'k1:VGF'
p5160
ssbsba(issf_api
Chunk
p5161
(dp5162
g4046
g2563
sg32
I1
sg4097
g2570
sg33
I6
sg4037
(lp5163
I123
asg38
(issf_api
FeatureSet
p5164
(dp5165
g12
(dp5166
S'name'
p5167
g5087
ssbsba(issf_api
Chunk
p5168
(dp5169
g4046
g2584
sg32
I2
sg4097
g2589
sg33
I6
sg4037
(lp5170
I124
asg38
(issf_api
FeatureSet
p5171
(dp5172
g12
(dp5173
S'name'
p5174
g5091
sS'drel'
p5175
S'k2:VGF'
p5176
ssbsba(issf_api
Chunk
p5177
(dp5178
g4046
g2605
sg32
I3
sg4097
g2614
sg33
I6
sg4037
(lp5179
I125
asg38
(issf_api
FeatureSet
p5180
(dp5181
g12
(dp5182
S'name'
p5183
g5108
sS'drel'
p5184
S'k1:VGF2'
p5185
ssbsba(issf_api
Chunk
p5186
(dp5187
g4046
g2632
sg32
I4
sg4097
g2643
sg33
I6
sg4037
(lp5188
I126
asg38
(issf_api
FeatureSet
p5189
(dp5190
g12
(dp5191
S'name'
p5192
g5130
sS'drel'
p5193
S'r6:NP4'
p5194
ssbsba(issf_api
Chunk
p5195
(dp5196
g4046
g2659
sg32
I5
sg4097
g2674
sg33
I6
sg4037
(lp5197
I127
aI128
asg38
(issf_api
FeatureSet
p5198
(dp5199
g12
(dp5200
S'name'
p5201
g5114
sS'drel'
p5202
S'r6:NP5'
p5203
ssbsba(issf_api
Chunk
p5204
(dp5205
g4046
g2705
sg32
I6
sg4097
g2712
sg33
I6
sg4037
(lp5206
I129
aI130
asg38
(issf_api
FeatureSet
p5207
(dp5208
g12
(dp5209
S'name'
p5210
g5105
sS'drel'
p5211
S'k7:VGF2'
p5212
ssbsba(issf_api
Chunk
p5213
(dp5214
g4046
g2808
sg32
I7
sg4097
g2821
sg33
I6
sg4037
(lp5215
I131
aI132
aI133
aI134
aI135
aI136
asg38
(issf_api
FeatureSet
p5216
(dp5217
g12
(dp5218
S'name'
p5219
g5107
sS'drel'
p5220
S'k2:VGF2'
p5221
ssbsba(issf_api
Chunk
p5222
(dp5223
g4046
g2869
sg32
I8
sg4097
g2874
sg33
I6
sg4037
(lp5224
I137
asg38
(issf_api
FeatureSet
p5225
(dp5226
g12
(dp5227
S'name'
p5228
g5106
sS'drel'
p5229
S'pof:VGF2'
p5230
ssbsba(issf_api
Chunk
p5231
(dp5232
g4046
g2888
sg32
I9
sg4097
g2897
sg33
I6
sg4037
(lp5233
I138
asg38
(issf_api
FeatureSet
p5234
(dp5235
g12
(dp5236
S'name'
p5237
g5099
sS'drel'
p5238
S'ccof:CCP'
p5239
ssbsba(issf_api
Chunk
p5240
(dp5241
g4046
g2911
sg32
I10
sg4097
g2916
sg33
I6
sg4037
(lp5242
I139
asg38
(issf_api
FeatureSet
p5243
(dp5244
g12
(dp5245
S'name'
p5246
g5092
sS'drel'
p5247
S'rsym:VGF'
p5248
ssbsbasba(issf_api
Sentence
p5249
(dp5250
g4035
(lp5251
sg33
I7
sg4037
(lp5252
I140
aI141
aI142
aI143
aI144
aI145
aI146
aI147
aI148
aI149
aI150
aI151
asg4039
(dp5253
S'VGF2'
p5254
(issf_api
Node
p5255
(dp5256
g4044
S'ccof'
p5257
sg4046
g5254
sg4047
S'CCP'
p5258
sg4048
I-1
sg32
I7
sg4049
(lp5259
S'JJP'
p5260
aS'NP4'
p5261
aS'NP3'
p5262
aS'NP2'
p5263
asbsS'VGF'
p5264
(issf_api
Node
p5265
(dp5266
g4044
g4045
sg4046
g5264
sg4047
g4045
sg4048
I-1
sg32
I1
sg4049
(lp5267
S'CCP'
p5268
aS'BLK'
p5269
aS'NP'
p5270
asbsg5268
(issf_api
Node
p5271
(dp5272
g4044
S'k2'
p5273
sg4046
g5268
sg4047
S'VGF'
p5274
sg4048
I-1
sg32
I2
sg4049
(lp5275
g5254
asbsg5260
(issf_api
Node
p5276
(dp5277
g4044
S'pof'
p5278
sg4046
g5260
sg4047
S'VGF2'
p5279
sg4048
I-1
sg32
I6
sg4049
(lp5280
sbsg5269
(issf_api
Node
p5281
(dp5282
g4044
S'rsym'
p5283
sg4046
g5269
sg4047
S'VGF'
p5284
sg4048
I-1
sg32
I8
sg4049
(lp5285
sbsg5270
(issf_api
Node
p5286
(dp5287
g4044
S'k1'
p5288
sg4046
g5270
sg4047
S'VGF'
p5289
sg4048
I-1
sg32
I0
sg4049
(lp5290
sbsg5261
(issf_api
Node
p5291
(dp5292
g4044
S'k7'
p5293
sg4046
g5261
sg4047
S'VGF2'
p5294
sg4048
I-1
sg32
I5
sg4049
(lp5295
sbsg5262
(issf_api
Node
p5296
(dp5297
g4044
S'k7t'
p5298
sg4046
g5262
sg4047
S'VGF2'
p5299
sg4048
I-1
sg32
I4
sg4049
(lp5300
sbsg5263
(issf_api
Node
p5301
(dp5302
g4044
S'k1'
p5303
sg4046
g5263
sg4047
S'VGF2'
p5304
sg4048
I-1
sg32
I3
sg4049
(lp5305
sbssg4093
(lp5306
(issf_api
Chunk
p5307
(dp5308
g4046
g2932
sg32
I0
sg4097
g2941
sg33
I7
sg4037
(lp5309
I140
asg38
(issf_api
FeatureSet
p5310
(dp5311
g12
(dp5312
S'name'
p5313
g5270
sS'drel'
p5314
S'k1:VGF'
p5315
ssbsba(issf_api
Chunk
p5316
(dp5317
g4046
g2955
sg32
I1
sg4097
g2962
sg33
I7
sg4037
(lp5318
I141
asg38
(issf_api
FeatureSet
p5319
(dp5320
g12
(dp5321
S'name'
p5322
g5264
ssbsba(issf_api
Chunk
p5323
(dp5324
g4046
g2976
sg32
I2
sg4097
g2981
sg33
I7
sg4037
(lp5325
I142
asg38
(issf_api
FeatureSet
p5326
(dp5327
g12
(dp5328
S'name'
p5329
g5268
sS'drel'
p5330
S'k2:VGF'
p5331
ssbsba(issf_api
Chunk
p5332
(dp5333
g4046
g2997
sg32
I3
sg4097
g3006
sg33
I7
sg4037
(lp5334
I143
asg38
(issf_api
FeatureSet
p5335
(dp5336
g12
(dp5337
S'name'
p5338
g5263
sS'drel'
p5339
S'k1:VGF2'
p5340
ssbsba(issf_api
Chunk
p5341
(dp5342
g4046
g3020
sg32
I4
sg4097
g3029
sg33
I7
sg4037
(lp5343
I144
aI145
asg38
(issf_api
FeatureSet
p5344
(dp5345
g12
(dp5346
S'name'
p5347
g5262
sS'drel'
p5348
S'k7t:VGF2'
p5349
ssbsba(issf_api
Chunk
p5350
(dp5351
g4046
g3085
sg32
I5
sg4097
g3094
sg33
I7
sg4037
(lp5352
I146
aI147
aI148
asg38
(issf_api
FeatureSet
p5353
(dp5354
g12
(dp5355
S'name'
p5356
g5261
sS'drel'
p5357
S'k7:VGF2'
p5358
ssbsba(issf_api
Chunk
p5359
(dp5360
g4046
g3127
sg32
I6
sg4097
g3134
sg33
I7
sg4037
(lp5361
I149
asg38
(issf_api
FeatureSet
p5362
(dp5363
g12
(dp5364
S'name'
p5365
g5260
sS'drel'
p5366
S'pof:VGF2'
p5367
ssbsba(issf_api
Chunk
p5368
(dp5369
g4046
g3150
sg32
I7
sg4097
g3163
sg33
I7
sg4037
(lp5370
I150
asg38
(issf_api
FeatureSet
p5371
(dp5372
g12
(dp5373
S'name'
p5374
g5254
sS'drel'
p5375
S'ccof:CCP'
p5376
ssbsba(issf_api
Chunk
p5377
(dp5378
g4046
g3177
sg32
I8
sg4097
g3182
sg33
I7
sg4037
(lp5379
I151
asg38
(issf_api
FeatureSet
p5380
(dp5381
g12
(dp5382
S'name'
p5383
g5269
sS'drel'
p5384
S'rsym:VGF'
p5385
ssbsbasba(issf_api
Sentence
p5386
(dp5387
g4035
(lp5388
sg33
I8
sg4037
(lp5389
I152
aI153
aI154
aI155
aI156
aI157
aI158
aI159
aI160
asg4039
(dp5390
S'NP'
p5391
(issf_api
Node
p5392
(dp5393
g4044
S'rh'
p5394
sg4046
g5391
sg4047
S'VGF'
p5395
sg4048
I-1
sg32
I0
sg4049
(lp5396
sbsS'VGF'
p5397
(issf_api
Node
p5398
(dp5399
g4044
g4045
sg4046
g5397
sg4047
g4045
sg4048
I-1
sg32
I3
sg4049
(lp5400
g5391
aS'BLK'
p5401
aS'NP3'
p5402
aS'NP2'
p5403
asbsg5401
(issf_api
Node
p5404
(dp5405
g4044
S'rsym'
p5406
sg4046
g5401
sg4047
S'VGF'
p5407
sg4048
I-1
sg32
I4
sg4049
(lp5408
sbsg5402
(issf_api
Node
p5409
(dp5410
g4044
S'pof'
p5411
sg4046
g5402
sg4047
S'VGF'
p5412
sg4048
I-1
sg32
I2
sg4049
(lp5413
sbsg5403
(issf_api
Node
p5414
(dp5415
g4044
S'rd'
p5416
sg4046
g5403
sg4047
S'VGF'
p5417
sg4048
I-1
sg32
I1
sg4049
(lp5418
sbssg4093
(lp5419
(issf_api
Chunk
p5420
(dp5421
g4046
g3198
sg32
I0
sg4097
g3207
sg33
I8
sg4037
(lp5422
I152
asg38
(issf_api
FeatureSet
p5423
(dp5424
g12
(dp5425
S'name'
p5426
g5391
sS'drel'
p5427
S'rh:VGF'
p5428
ssbsba(issf_api
Chunk
p5429
(dp5430
g4046
g3221
sg32
I1
sg4097
g3226
sg33
I8
sg4037
(lp5431
I153
aI154
asg38
(issf_api
FeatureSet
p5432
(dp5433
g12
(dp5434
S'name'
p5435
g5403
sS'drel'
p5436
S'rd:VGF'
p5437
ssbsba(issf_api
Chunk
p5438
(dp5439
g4046
g3274
sg32
I2
sg4097
g3279
sg33
I8
sg4037
(lp5440
I155
aI156
asg38
(issf_api
FeatureSet
p5441
(dp5442
g12
(dp5443
S'name'
p5444
g5402
sS'drel'
p5445
S'pof:VGF'
p5446
ssbsba(issf_api
Chunk
p5447
(dp5448
g4046
g3310
sg32
I3
sg4097
g3319
sg33
I8
sg4037
(lp5449
I157
aI158
aI159
asg38
(issf_api
FeatureSet
p5450
(dp5451
g12
(dp5452
S'name'
p5453
g5397
ssbsba(issf_api
Chunk
p5454
(dp5455
g4046
g3350
sg32
I4
sg4097
g3355
sg33
I8
sg4037
(lp5456
I160
asg38
(issf_api
FeatureSet
p5457
(dp5458
g12
(dp5459
S'name'
p5460
g5401
sS'drel'
p5461
S'rsym:VGF'
p5462
ssbsbasba(issf_api
Sentence
p5463
(dp5464
g4035
(lp5465
sg33
I9
sg4037
(lp5466
I161
aI162
aI163
aI164
aI165
aI166
aI167
aI168
aI169
aI170
aI171
aI172
aI173
aI174
aI175
aI176
aI177
aI178
aI179
aI180
asg4039
(dp5467
S'VGNF'
p5468
(issf_api
Node
p5469
(dp5470
g4044
S'vmod'
p5471
sg4046
g5468
sg4047
S'VGF3'
p5472
sg4048
I-1
sg32
I10
sg4049
(lp5473
S'NP6'
p5474
asbsS'VGF'
p5475
(issf_api
Node
p5476
(dp5477
g4044
g4045
sg4046
g5475
sg4047
g4045
sg4048
I-1
sg32
I1
sg4049
(lp5478
S'CCP'
p5479
aS'BLK'
p5480
aS'NP'
p5481
asbsS'VGF3'
p5482
(issf_api
Node
p5483
(dp5484
g4044
S'ccof'
p5485
sg4046
g5482
sg4047
S'CCP2'
p5486
sg4048
I-1
sg32
I12
sg4049
(lp5487
g5468
aS'NP7'
p5488
asbsg5479
(issf_api
Node
p5489
(dp5490
g4044
S'k2'
p5491
sg4046
g5479
sg4047
S'VGF'
p5492
sg4048
I-1
sg32
I2
sg4049
(lp5493
S'CCP2'
p5494
asbsS'VGF2'
p5495
(issf_api
Node
p5496
(dp5497
g4044
S'ccof'
p5498
sg4046
g5495
sg4047
S'CCP2'
p5499
sg4048
I-1
sg32
I7
sg4049
(lp5500
S'NP5'
p5501
aS'NP4'
p5502
aS'NP3'
p5503
aS'NP2'
p5504
asbsg5501
(issf_api
Node
p5505
(dp5506
g4044
S'k2'
p5507
sg4046
g5501
sg4047
S'VGF2'
p5508
sg4048
I-1
sg32
I6
sg4049
(lp5509
sbsg5480
(issf_api
Node
p5510
(dp5511
g4044
S'rsym'
p5512
sg4046
g5480
sg4047
S'VGF'
p5513
sg4048
I-1
sg32
I13
sg4049
(lp5514
sbsg5481
(issf_api
Node
p5515
(dp5516
g4044
S'k1'
p5517
sg4046
g5481
sg4047
S'VGF'
p5518
sg4048
I-1
sg32
I0
sg4049
(lp5519
sbsg5502
(issf_api
Node
p5520
(dp5521
g4044
S'adv'
p5522
sg4046
g5502
sg4047
S'VGF2'
p5523
sg4048
I-1
sg32
I5
sg4049
(lp5524
sbsg5488
(issf_api
Node
p5525
(dp5526
g4044
S'pof'
p5527
sg4046
g5488
sg4047
S'VGF3'
p5528
sg4048
I-1
sg32
I11
sg4049
(lp5529
sbsg5474
(issf_api
Node
p5530
(dp5531
g4044
S'k2'
p5532
sg4046
g5474
sg4047
S'VGNF'
p5533
sg4048
I-1
sg32
I9
sg4049
(lp5534
sbsg5494
(issf_api
Node
p5535
(dp5536
g4044
S'ccof'
p5537
sg4046
g5494
sg4047
S'CCP'
p5538
sg4048
I-1
sg32
I8
sg4049
(lp5539
g5482
ag5495
asbsg5503
(issf_api
Node
p5540
(dp5541
g4044
S'k7'
p5542
sg4046
g5503
sg4047
S'VGF2'
p5543
sg4048
I-1
sg32
I4
sg4049
(lp5544
sbsg5504
(issf_api
Node
p5545
(dp5546
g4044
S'k1'
p5547
sg4046
g5504
sg4047
S'VGF2'
p5548
sg4048
I-1
sg32
I3
sg4049
(lp5549
sbssg4093
(lp5550
(issf_api
Chunk
p5551
(dp5552
g4046
g3371
sg32
I0
sg4097
g3382
sg33
I9
sg4037
(lp5553
I161
aI162
asg38
(issf_api
FeatureSet
p5554
(dp5555
g12
(dp5556
S'name'
p5557
g5481
sS'drel'
p5558
S'k1:VGF'
p5559
ssbsba(issf_api
Chunk
p5560
(dp5561
g4046
g3413
sg32
I1
sg4097
g3420
sg33
I9
sg4037
(lp5562
I163
asg38
(issf_api
FeatureSet
p5563
(dp5564
g12
(dp5565
S'name'
p5566
g5475
ssbsba(issf_api
Chunk
p5567
(dp5568
g4046
g3434
sg32
I2
sg4097
g3439
sg33
I9
sg4037
(lp5569
I164
asg38
(issf_api
FeatureSet
p5570
(dp5571
g12
(dp5572
S'name'
p5573
g5479
sS'drel'
p5574
S'k2:VGF'
p5575
ssbsba(issf_api
Chunk
p5576
(dp5577
g4046
g3455
sg32
I3
sg4097
g3464
sg33
I9
sg4037
(lp5578
I165
asg38
(issf_api
FeatureSet
p5579
(dp5580
g12
(dp5581
S'name'
p5582
g5504
sS'drel'
p5583
S'k1:VGF2'
p5584
ssbsba(issf_api
Chunk
p5585
(dp5586
g4046
g3499
sg32
I4
sg4097
g3510
sg33
I9
sg4037
(lp5587
I166
aI167
aI168
asg38
(issf_api
FeatureSet
p5588
(dp5589
g12
(dp5590
S'name'
p5591
g5503
sS'drel'
p5592
S'k7:VGF2'
p5593
ssbsba(issf_api
Chunk
p5594
(dp5595
g4046
g3558
sg32
I5
sg4097
g3565
sg33
I9
sg4037
(lp5596
I169
aI170
aI171
asg38
(issf_api
FeatureSet
p5597
(dp5598
g12
(dp5599
S'name'
p5600
g5502
sS'drel'
p5601
S'adv:VGF2'
p5602
ssbsba(issf_api
Chunk
p5603
(dp5604
g4046
g3596
sg32
I6
sg4097
g3601
sg33
I9
sg4037
(lp5605
I172
asg38
(issf_api
FeatureSet
p5606
(dp5607
g12
(dp5608
S'name'
p5609
g5501
sS'drel'
p5610
S'k2:VGF2'
p5611
ssbsba(issf_api
Chunk
p5612
(dp5613
g4046
g3615
sg32
I7
sg4097
g3624
sg33
I9
sg4037
(lp5614
I173
asg38
(issf_api
FeatureSet
p5615
(dp5616
g12
(dp5617
S'name'
p5618
g5495
sS'drel'
p5619
S'ccof:CCP2'
p5620
ssbsba(issf_api
Chunk
p5621
(dp5622
g4046
g3638
sg32
I8
sg4097
g3643
sg33
I9
sg4037
(lp5623
I174
asg38
(issf_api
FeatureSet
p5624
(dp5625
g12
(dp5626
S'name'
p5627
g5494
sS'drel'
p5628
S'ccof:CCP'
p5629
ssbsba(issf_api
Chunk
p5630
(dp5631
g4046
g3659
sg32
I9
sg4097
g3668
sg33
I9
sg4037
(lp5632
I175
asg38
(issf_api
FeatureSet
p5633
(dp5634
g12
(dp5635
S'name'
p5636
g5474
sS'drel'
p5637
S'k2:VGNF'
p5638
ssbsba(issf_api
Chunk
p5639
(dp5640
g4046
g3682
sg32
I10
sg4097
g3689
sg33
I9
sg4037
(lp5641
I176
aI177
asg38
(issf_api
FeatureSet
p5642
(dp5643
g12
(dp5644
S'name'
p5645
g5468
sS'drel'
p5646
S'vmod:VGF3'
p5647
ssbsba(issf_api
Chunk
p5648
(dp5649
g4046
g3720
sg32
I11
sg4097
g3725
sg33
I9
sg4037
(lp5650
I178
asg38
(issf_api
FeatureSet
p5651
(dp5652
g12
(dp5653
S'name'
p5654
g5488
sS'drel'
p5655
S'pof:VGF3'
p5656
ssbsba(issf_api
Chunk
p5657
(dp5658
g4046
g3739
sg32
I12
sg4097
g3748
sg33
I9
sg4037
(lp5659
I179
asg38
(issf_api
FeatureSet
p5660
(dp5661
g12
(dp5662
S'name'
p5663
g5482
sS'drel'
p5664
S'ccof:CCP2'
p5665
ssbsba(issf_api
Chunk
p5666
(dp5667
g4046
g3762
sg32
I13
sg4097
g3767
sg33
I9
sg4037
(lp5668
I180
asg38
(issf_api
FeatureSet
p5669
(dp5670
g12
(dp5671
S'name'
p5672
g5480
sS'drel'
p5673
S'rsym:VGF'
p5674
ssbsbasba(issf_api
Sentence
p5675
(dp5676
g4035
(lp5677
sg33
I10
sg4037
(lp5678
I181
aI182
aI183
aI184
aI185
aI186
aI187
aI188
aI189
aI190
aI191
aI192
aI193
asg4039
(dp5679
S'VGF'
p5680
(issf_api
Node
p5681
(dp5682
g4044
g4045
sg4046
g5680
sg4047
g4045
sg4048
I-1
sg32
I4
sg4049
(lp5683
S'BLK'
p5684
aS'NP'
p5685
aS'NP4'
p5686
aS'NP2'
p5687
asbsg5684
(issf_api
Node
p5688
(dp5689
g4044
S'rsym'
p5690
sg4046
g5684
sg4047
S'VGF'
p5691
sg4048
I-1
sg32
I5
sg4049
(lp5692
sbsg5685
(issf_api
Node
p5693
(dp5694
g4044
S'k1'
p5695
sg4046
g5685
sg4047
S'VGF'
p5696
sg4048
I-1
sg32
I0
sg4049
(lp5697
sbsg5686
(issf_api
Node
p5698
(dp5699
g4044
S'k2'
p5700
sg4046
g5686
sg4047
S'VGF'
p5701
sg4048
I-1
sg32
I3
sg4049
(lp5702
S'NP3'
p5703
asbsg5703
(issf_api
Node
p5704
(dp5705
g4044
S'r6'
p5706
sg4046
g5703
sg4047
S'NP4'
p5707
sg4048
I-1
sg32
I2
sg4049
(lp5708
sbsg5687
(issf_api
Node
p5709
(dp5710
g4044
S'k7t'
p5711
sg4046
g5687
sg4047
S'VGF'
p5712
sg4048
I-1
sg32
I1
sg4049
(lp5713
sbssg4093
(lp5714
(issf_api
Chunk
p5715
(dp5716
g4046
g3783
sg32
I0
sg4097
g3794
sg33
I10
sg4037
(lp5717
I181
aI182
asg38
(issf_api
FeatureSet
p5718
(dp5719
g12
(dp5720
S'name'
p5721
g5685
sS'drel'
p5722
S'k1:VGF'
p5723
ssbsba(issf_api
Chunk
p5724
(dp5725
g4046
g3859
sg32
I1
sg4097
g3866
sg33
I10
sg4037
(lp5726
I183
aI184
aI185
aI186
asg38
(issf_api
FeatureSet
p5727
(dp5728
g12
(dp5729
S'name'
p5730
g5687
sS'drel'
p5731
S'k7t:VGF'
p5732
ssbsba(issf_api
Chunk
p5733
(dp5734
g4046
g3918
sg32
I2
sg4097
g3927
sg33
I10
sg4037
(lp5735
I187
aI188
aI189
asg38
(issf_api
FeatureSet
p5736
(dp5737
g12
(dp5738
S'name'
p5739
g5703
sS'drel'
p5740
S'r6:NP4'
p5741
ssbsba(issf_api
Chunk
p5742
(dp5743
g4046
g3960
sg32
I3
sg4097
g3971
sg33
I10
sg4037
(lp5744
I190
asg38
(issf_api
FeatureSet
p5745
(dp5746
g12
(dp5747
S'name'
p5748
g5686
sS'drel'
p5749
S'k2:VGF'
p5750
ssbsba(issf_api
Chunk
p5751
(dp5752
g4046
g3985
sg32
I4
sg4097
g3994
sg33
I10
sg4037
(lp5753
I191
aI192
asg38
(issf_api
FeatureSet
p5754
(dp5755
g12
(dp5756
S'name'
p5757
g5680
ssbsba(issf_api
Chunk
p5758
(dp5759
g4046
g4025
sg32
I5
sg4097
g4030
sg33
I10
sg4037
(lp5760
I193
asg38
(issf_api
FeatureSet
p5761
(dp5762
g12
(dp5763
S'name'
p5764
g5684
sS'drel'
p5765
S'rsym:VGF'
p5766
ssbsbasbasb.