(issf_api
SSFInfo
p0
(dp1
S'globalWordList'
p2
(lp3
(issf_api
Word
p4
(dp5
S'splitConn'
p6
I00
sS'word'
p7
V\u0928\u0947\u092a\u093e\u0932
p8
sS'extraFeatureSet'
p9
(issf_api
FeatureSet
p10
(dp11
S'featureDict'
p12
(dp13
S'crefhead'
p14
S'\xe0\xa4\xa8\xe0\xa5\x87\xe0\xa4\xaa\xe0\xa4\xbe\xe0\xa4\xb2:i1'
p15
sS'posn'
p16
S'10'
p17
sS'name'
p18
S'\xe0\xa4\xa8\xe0\xa5\x87\xe0\xa4\xaa\xe0\xa4\xbe\xe0\xa4\xb2'
p19
sS'af'
p20
S'\xe0\xa4\xa8\xe0\xa5\x87\xe0\xa4\xaa\xe0\xa4\xbe\xe0\xa4\xb2,n,m,sg,3,d,0,0'
p21
sS'drel'
p22
S'pof__cn:NP'
p23
sS'crefchainhead'
p24
S'i1:t1'
p25
sS'chunktype'
p26
S'child:NP'
p27
sS'cref'
p28
S'i1%1:t1,i2%0:t2'
p29
ssbsS'arg1'
p30
I00
sS'arg2'
p31
I00
sS'sense'
p32
NsS'arg1Span'
p33
NsS'chunkNum'
p34
I0
sS'sentenceNum'
p35
I0
sS'relationNum'
p36
NsS'arg2Span'
p37
NsS'wordTag'
p38
S'NNPC'
p39
sS'featureSet'
p40
g10
sS'conn'
p41
I00
sba(issf_api
Word
p42
(dp43
g6
I00
sg7
V\u0938\u0930\u0915\u093e\u0930
p44
sg9
(issf_api
FeatureSet
p45
(dp46
g12
(dp47
S'crefhead'
p48
S'\xe0\xa4\xb8\xe0\xa4\xb0\xe0\xa4\x95\xe0\xa4\xbe\xe0\xa4\xb0:i2'
p49
sS'posn'
p50
S'20'
p51
sS'name'
p52
S'\xe0\xa4\xb8\xe0\xa4\xb0\xe0\xa4\x95\xe0\xa4\xbe\xe0\xa4\xb0'
p53
sS'af'
p54
S'\xe0\xa4\xb8\xe0\xa4\xb0\xe0\xa4\x95\xe0\xa4\xbe\xe0\xa4\xb0,n,f,sg,3,o,0_\xe0\xa4\xa8\xe0\xa5\x87,0'
p55
sS'chunkid'
p56
S'NP'
p57
sS'chunktype'
p58
S'head:NP'
p59
sS'crefchainhead'
p60
S'i2:t2'
p61
sS'vpos'
p62
S'vib_3'
p63
sS'cref'
p64
S'i2%1:t2'
p65
sS'drel'
p66
S'k1:VGF'
p67
ssbsg30
I00
sg31
I00
sg32
Nsg33
Nsg34
I0
sg35
I0
sg36
Nsg37
Nsg38
S'NNP'
p68
sg40
g45
sg41
I00
sba(issf_api
Word
p69
(dp70
g6
I00
sg7
V\u0928\u0947
p71
sg9
(issf_api
FeatureSet
p72
(dp73
g12
(dp74
S'posn'
p75
S'30'
p76
sS'name'
p77
S'\xe0\xa4\xa8\xe0\xa5\x87'
p78
sS'drel'
p79
S'lwg__psp:NP'
p80
sS'chunktype'
p81
S'child:NP'
p82
sS'af'
p83
S'\xe0\xa4\xa8\xe0\xa5\x87,psp,,,,,,'
p84
ssbsg30
I00
sg31
I00
sg32
Nsg33
Nsg34
I0
sg35
I0
sg36
Nsg37
Nsg38
S'PSP'
p85
sg40
g72
sg41
I00
sba(issf_api
Word
p86
(dp87
g6
I00
sg7
V\u0938\u092e\u0930\u094d\u092a\u0923
p88
sg9
(issf_api
FeatureSet
p89
(dp90
g12
(dp91
S'crefhead'
p92
S'\xe0\xa4\xb8\xe0\xa4\xae\xe0\xa4\xb0\xe0\xa5\x8d\xe0\xa4\xaa\xe0\xa4\xa3:i4'
p93
sS'posn'
p94
S'40'
p95
sS'name'
p96
S'\xe0\xa4\xb8\xe0\xa4\xae\xe0\xa4\xb0\xe0\xa5\x8d\xe0\xa4\xaa\xe0\xa4\xa3'
p97
sS'af'
p98
S'\xe0\xa4\xb8\xe0\xa4\xae\xe0\xa4\xb0\xe0\xa5\x8d\xe0\xa4\xaa\xe0\xa4\xa3,n,m,sg,3,d,0,0'
p99
sS'chunkid'
p100
S'NP2'
p101
sS'chunktype'
p102
S'head:NP2'
p103
sS'crefchainhead'
p104
S'i4:t4'
p105
sS'cref'
p106
S'i3%0:t3,i4%1:t4'
p107
sS'drel'
p108
S'pof:VGNN'
p109
ssbsg30
I00
sg31
I00
sg32
Nsg33
Nsg34
I1
sg35
I0
sg36
Nsg37
Nsg38
S'NN'
p110
sg40
g89
sg41
I00
sba(issf_api
Word
p111
(dp112
g6
I00
sg7
V\u0915\u0930\u0928\u0947
p113
sg9
(issf_api
FeatureSet
p114
(dp115
g12
(dp116
S'posn'
p117
S'50'
p118
sS'name'
p119
S'\xe0\xa4\x95\xe0\xa4\xb0\xe0\xa4\xa8\xe0\xa5\x87'
p120
sS'af'
p121
S'\xe0\xa4\x95\xe0\xa4\xb0,v,any,pl,any,o,\xe0\xa4\xa8\xe0\xa4\xbe_\xe0\xa4\xb5\xe0\xa4\xbe\xe0\xa4\xb2\xe0\xa4\xbe,nA'
p122
sS'chunkid'
p123
S'VGNN'
p124
sS'drel'
p125
S'nmod:NP3'
p126
sS'chunktype'
p127
S'head:VGNN'
p128
sS'vpos'
p129
S'tam_2'
p130
sS'cref'
p131
S'i3%0:t3'
p132
ssbsg30
I00
sg31
I00
sg32
Nsg33
Nsg34
I2
sg35
I0
sg36
Nsg37
Nsg38
S'VM'
p133
sg40
g114
sg41
I00
sba(issf_api
Word
p134
(dp135
g6
I00
sg7
V\u0935\u093e\u0932\u0947
p136
sg9
(issf_api
FeatureSet
p137
(dp138
g12
(dp139
S'posn'
p140
S'60'
p141
sS'name'
p142
S'\xe0\xa4\xb5\xe0\xa4\xbe\xe0\xa4\xb2\xe0\xa5\x87'
p143
sS'af'
p144
S'\xe0\xa4\xb5\xe0\xa4\xbe\xe0\xa4\xb2\xe0\xa4\xbe,psp,m,pl,,d,,'
p145
sS'drel'
p146
S'lwg__psp:VGNN'
p147
sS'chunktype'
p148
S'child:VGNN'
p149
sS'cref'
p150
S'i3%0:t3'
p151
ssbsg30
I00
sg31
I00
sg32
Nsg33
Nsg34
I2
sg35
I0
sg36
Nsg37
Nsg38
S'PSP'
p152
sg40
g137
sg41
I00
sba(issf_api
Word
p153
(dp154
g6
I00
sg7
V\u092e\u093e\u0913\u0935\u093e\u0926\u0940
p155
sg9
(issf_api
FeatureSet
p156
(dp157
g12
(dp158
S'posn'
p159
S'70'
p160
sS'name'
p161
S'\xe0\xa4\xae\xe0\xa4\xbe\xe0\xa4\x93\xe0\xa4\xb5\xe0\xa4\xbe\xe0\xa4\xa6\xe0\xa5\x80'
p162
sS'af'
p163
S'\xe0\xa4\xae\xe0\xa4\xbe\xe0\xa4\x93\xe0\xa4\xb5\xe0\xa4\xbe\xe0\xa4\xa6\xe0\xa5\x80,adj,any,any,,o,,'
p164
sS'drel'
p165
S'pof__cn:NP3'
p166
sS'chunktype'
p167
S'child:NP3'
p168
sS'cref'
p169
S'i3%0:t3'
p170
ssbsg30
I00
sg31
I00
sg32
Nsg33
Nsg34
I3
sg35
I0
sg36
Nsg37
Nsg38
S'NNC'
p171
sg40
g156
sg41
I00
sba(issf_api
Word
p172
(dp173
g6
I00
sg7
V\u0909\u0917\u094d\u0930\u0935\u093e\u0926\u093f\u092f\u094b\u0902
p174
sg9
(issf_api
FeatureSet
p175
(dp176
g12
(dp177
S'crefhead'
p178
S'\xe0\xa4\x89\xe0\xa4\x97\xe0\xa5\x8d\xe0\xa4\xb0\xe0\xa4\xb5\xe0\xa4\xbe\xe0\xa4\xa6\xe0\xa4\xbf\xe0\xa4\xaf\xe0\xa5\x8b\xe0\xa4\x82:i3'
p179
sS'posn'
p180
S'80'
p181
sS'name'
p182
S'\xe0\xa4\x89\xe0\xa4\x97\xe0\xa5\x8d\xe0\xa4\xb0\xe0\xa4\xb5\xe0\xa4\xbe\xe0\xa4\xa6\xe0\xa4\xbf\xe0\xa4\xaf\xe0\xa5\x8b\xe0\xa4\x82'
p183
sS'af'
p184
S'\xe0\xa4\x89\xe0\xa4\x97\xe0\xa5\x8d\xe0\xa4\xb0\xe0\xa4\xb5\xe0\xa4\xbe\xe0\xa4\xa6\xe0\xa5\x80,n,m,pl,3,o,0_\xe0\xa4\x95\xe0\xa4\xbe,0'
p185
sS'chunkid'
p186
S'NP3'
p187
sS'chunktype'
p188
S'head:NP3'
p189
sS'crefchainhead'
p190
S'i3:t3'
p191
sS'vpos'
p192
S'vib_3'
p193
sS'cref'
p194
S'i3%1:t3'
p195
sS'drel'
p196
S'r6:NP4'
p197
ssbsg30
I00
sg31
I00
sg32
Nsg33
Nsg34
I3
sg35
I0
sg36
Nsg37
Nsg38
S'NN'
p198
sg40
g175
sg41
I00
sba(issf_api
Word
p199
(dp200
g6
I00
sg7
V\u0915\u0940
p201
sg9
(issf_api
FeatureSet
p202
(dp203
g12
(dp204
S'posn'
p205
S'90'
p206
sS'name'
p207
S'\xe0\xa4\x95\xe0\xa5\x80'
p208
sS'drel'
p209
S'lwg__psp:NP3'
p210
sS'chunktype'
p211
S'child:NP3'
p212
sS'af'
p213
S'\xe0\xa4\x95\xe0\xa4\xbe,psp,f,sg,,o,,'
p214
ssbsg30
I00
sg31
I00
sg32
Nsg33
Nsg34
I3
sg35
I0
sg36
Nsg37
Nsg38
S'PSP'
p215
sg40
g202
sg41
I00
sba(issf_api
Word
p216
(dp217
g6
I00
sg7
V\u092c\u0921\u093c\u0940
p218
sg9
(issf_api
FeatureSet
p219
(dp220
g12
(dp221
S'posn'
p222
S'100'
p223
sS'name'
p224
S'\xe0\xa4\xac\xe0\xa4\xa1\xe0\xa4\xbc\xe0\xa5\x80'
p225
sS'drel'
p226
S'nmod__adj:NP4'
p227
sS'chunktype'
p228
S'child:NP4'
p229
sS'af'
p230
S'\xe0\xa4\xac\xe0\xa4\xa1\xe0\xa5\x80,adj,f,any,,o,,'
p231
ssbsg30
I00
sg31
I00
sg32
Nsg33
Nsg34
I4
sg35
I0
sg36
Nsg37
Nsg38
S'JJ'
p232
sg40
g219
sg41
I00
sba(issf_api
Word
p233
(dp234
g6
I00
sg7
V\u0938\u0902\u0916\u094d\u092f\u093e
p235
sg9
(issf_api
FeatureSet
p236
(dp237
g12
(dp238
S'posn'
p239
S'110'
p240
sS'name'
p241
S'\xe0\xa4\xb8\xe0\xa4\x82\xe0\xa4\x96\xe0\xa5\x8d\xe0\xa4\xaf\xe0\xa4\xbe'
p242
sS'af'
p243
S'\xe0\xa4\xb8\xe0\xa4\x82\xe0\xa4\x96\xe0\xa5\x8d\xe0\xa4\xaf\xe0\xa4\xbe,n,f,sg,3,o,0_\xe0\xa4\x95\xe0\xa5\x8b,0'
p244
sS'chunkid'
p245
S'NP4'
p246
sS'drel'
p247
S'k2:VGNF'
p248
sS'vpos'
p249
S'vib_3'
p250
sS'chunktype'
p251
S'head:NP4'
p252
ssbsg30
I00
sg31
I00
sg32
Nsg33
Nsg34
I4
sg35
I0
sg36
Nsg37
Nsg38
S'NN'
p253
sg40
g236
sg41
I00
sba(issf_api
Word
p254
(dp255
g6
I00
sg7
V\u0915\u094b
p256
sg9
(issf_api
FeatureSet
p257
(dp258
g12
(dp259
S'posn'
p260
S'120'
p261
sS'name'
p262
S'\xe0\xa4\x95\xe0\xa5\x8b'
p263
sS'drel'
p264
S'lwg__psp:NP4'
p265
sS'chunktype'
p266
S'child:NP4'
p267
sS'af'
p268
S'\xe0\xa4\x95\xe0\xa5\x8b,psp,,,,,,'
p269
ssbsg30
I00
sg31
I00
sg32
Nsg33
Nsg34
I4
sg35
I0
sg36
Nsg37
Nsg38
S'PSP'
p270
sg40
g257
sg41
I00
sba(issf_api
Word
p271
(dp272
g6
I00
sg7
V\u0926\u0947\u0916\u0924\u0947
p273
sg9
(issf_api
FeatureSet
p274
(dp275
g12
(dp276
S'posn'
p277
S'130'
p278
sS'name'
p279
S'\xe0\xa4\xa6\xe0\xa5\x87\xe0\xa4\x96\xe0\xa4\xa4\xe0\xa5\x87'
p280
sS'af'
p281
S'\xe0\xa4\xa6\xe0\xa5\x87\xe0\xa4\x96,v,m,sg,any,,\xe0\xa4\xa4\xe0\xa4\xbe_\xe0\xa4\xb9\xe0\xa5\x8b+\xe0\xa4\xaf\xe0\xa4\xbe,wA'
p282
sS'chunkid'
p283
S'VGNF'
p284
sS'drel'
p285
S'vmod:VGF'
p286
sS'vpos'
p287
S'tam_2'
p288
sS'chunktype'
p289
S'head:VGNF'
p290
ssbsg30
I00
sg31
I00
sg32
Nsg33
Nsg34
I5
sg35
I0
sg36
Nsg37
Nsg38
S'VM'
p291
sg40
g274
sg41
I00
sba(issf_api
Word
p292
(dp293
g6
I00
sg7
V\u0939\u0941\u090f
p294
sg9
(issf_api
FeatureSet
p295
(dp296
g12
(dp297
S'posn'
p298
S'140'
p299
sS'name'
p300
S'\xe0\xa4\xb9\xe0\xa5\x81\xe0\xa4\x8f'
p301
sS'drel'
p302
S'lwg__vaux:VGNF'
p303
sS'chunktype'
p304
S'child:VGNF'
p305
sS'af'
p306
S'\xe0\xa4\xb9\xe0\xa5\x8b,v,m,sg,any,,\xe0\xa4\xaf\xe0\xa4\xbe,yA'
p307
ssbsg30
I00
sg31
I00
sg32
Nsg33
Nsg34
I5
sg35
I0
sg36
Nsg37
Nsg38
S'VAUX'
p308
sg40
g295
sg41
I00
sba(issf_api
Word
p309
(dp310
g6
I00
sg7
V\u0906\u0924\u094d\u092e\u0938\u092e\u0930\u094d\u092a\u0923
p311
sg9
(issf_api
FeatureSet
p312
(dp313
g12
(dp314
S'crefhead'
p315
S'\xe0\xa4\x86\xe0\xa4\xa4\xe0\xa5\x8d\xe0\xa4\xae\xe0\xa4\xb8\xe0\xa4\xae\xe0\xa4\xb0\xe0\xa5\x8d\xe0\xa4\xaa\xe0\xa4\xa3:i5'
p316
sS'posn'
p317
S'150'
p318
sS'name'
p319
S'\xe0\xa4\x86\xe0\xa4\xa4\xe0\xa5\x8d\xe0\xa4\xae\xe0\xa4\xb8\xe0\xa4\xae\xe0\xa4\xb0\xe0\xa5\x8d\xe0\xa4\xaa\xe0\xa4\xa3'
p320
sS'af'
p321
S'\xe0\xa4\x86\xe0\xa4\xa4\xe0\xa5\x8d\xe0\xa4\xae\xe0\xa4\xb8\xe0\xa4\xae\xe0\xa4\xb0\xe0\xa5\x8d\xe0\xa4\xaa\xe0\xa4\xa3,n,m,sg,3,o,0_\xe0\xa4\x95\xe0\xa4\xbe,0'
p322
sS'acrefmodhead'
p323
S'\xe0\xa4\x86\xe0\xa4\xa4\xe0\xa5\x8d\xe0\xa4\xae\xe0\xa4\xb8\xe0\xa4\xae\xe0\xa4\xb0\xe0\xa5\x8d\xe0\xa4\xaa\xe0\xa4\xa3:m1'
p324
sS'chunkid'
p325
S'NP5'
p326
sS'acrefmod'
p327
S'm1%1:i6'
p328
sS'creftype'
p329
S'Coreference-Identity:i4'
p330
sS'chunktype'
p331
S'head:NP5'
p332
sS'vpos'
p333
S'vib_2'
p334
sS'cref'
p335
S'i5%1:t4'
p336
sS'drel'
p337
S'r6:NP6'
p338
ssbsg30
I00
sg31
I00
sg32
Nsg33
Nsg34
I6
sg35
I0
sg36
Nsg37
Nsg38
S'NN'
p339
sg40
g312
sg41
I00
sba(issf_api
Word
p340
(dp341
g6
I00
sg7
V\u0915\u0940
p342
sg9
(issf_api
FeatureSet
p343
(dp344
g12
(dp345
S'posn'
p346
S'160'
p347
sS'name'
p348
S'\xe0\xa4\x95\xe0\xa5\x802'
p349
sS'drel'
p350
S'lwg__psp:NP5'
p351
sS'chunktype'
p352
S'child:NP5'
p353
sS'af'
p354
S'\xe0\xa4\x95\xe0\xa4\xbe,psp,f,sg,,d,,'
p355
ssbsg30
I00
sg31
I00
sg32
Nsg33
Nsg34
I6
sg35
I0
sg36
Nsg37
Nsg38
S'PSP'
p356
sg40
g343
sg41
I00
sba(issf_api
Word
p357
(dp358
g6
I00
sg7
V\u0905\u0935\u0927\u093f
p359
sg9
(issf_api
FeatureSet
p360
(dp361
g12
(dp362
S'crefhead'
p363
S'\xe0\xa4\x85\xe0\xa4\xb5\xe0\xa4\xa7\xe0\xa4\xbf:i6'
p364
sS'posn'
p365
S'170'
p366
sS'name'
p367
S'\xe0\xa4\x85\xe0\xa4\xb5\xe0\xa4\xa7\xe0\xa4\xbf'
p368
sS'af'
p369
S'\xe0\xa4\x85\xe0\xa4\xb5\xe0\xa4\xa7\xe0\xa4\xbf,n,f,sg,3,d,0,0'
p370
sS'chunkid'
p371
S'NP6'
p372
sS'crefmod'
p373
S'm1:i6'
p374
sS'chunktype'
p375
S'head:NP6'
p376
sS'crefchainhead'
p377
S'i6:t5'
p378
sS'cref'
p379
S'i6%1:t5'
p380
sS'drel'
p381
S'k2:VGF'
p382
ssbsg30
I00
sg31
I00
sg32
Nsg33
Nsg34
I7
sg35
I0
sg36
Nsg37
Nsg38
S'NN'
p383
sg40
g360
sg41
I00
sba(issf_api
Word
p384
(dp385
g6
I00
sg7
V\u092c\u0922\u093c\u093e
p386
sg9
(issf_api
FeatureSet
p387
(dp388
g12
(dp389
S'posn'
p390
S'180'
p391
sS'name'
p392
S'\xe0\xa4\xac\xe0\xa4\xa2\xe0\xa4\xbc\xe0\xa4\xbe'
p393
sS'af'
p394
S'\xe0\xa4\xac\xe0\xa4\xa2\xe0\xa4\xbe,v,f,sg,3,,0_\xe0\xa4\xa6\xe0\xa5\x87+\xe0\xa4\xaf\xe0\xa4\xbe_\xe0\xa4\xb9\xe0\xa5\x88,0'
p395
sS'chunkid'
p396
S'VGF'
p397
sS'chunktype'
p398
S'head:VGF'
p399
sS'voicetype'
p400
S'active'
p401
sS'vpos'
p402
S'tam_2_3'
p403
sS'stype'
p404
S'declarative'
p405
ssbsg30
I00
sg31
I00
sg32
Nsg33
Nsg34
I8
sg35
I0
sg36
Nsg37
Nsg38
S'VM'
p406
sg40
g387
sg41
I00
sba(issf_api
Word
p407
(dp408
g6
I00
sg7
V\u0926\u0940
p409
sg9
(issf_api
FeatureSet
p410
(dp411
g12
(dp412
S'posn'
p413
S'190'
p414
sS'name'
p415
S'\xe0\xa4\xa6\xe0\xa5\x80'
p416
sS'drel'
p417
S'lwg__vaux:VGF'
p418
sS'chunktype'
p419
S'child:VGF'
p420
sS'af'
p421
S'\xe0\xa4\xa6\xe0\xa5\x87,v,f,sg,any,,\xe0\xa4\xaf\xe0\xa4\xbe,yA'
p422
ssbsg30
I00
sg31
I00
sg32
Nsg33
Nsg34
I8
sg35
I0
sg36
Nsg37
Nsg38
S'VAUX'
p423
sg40
g410
sg41
I00
sba(issf_api
Word
p424
(dp425
g6
I00
sg7
V\u0939\u0948
p426
sg9
(issf_api
FeatureSet
p427
(dp428
g12
(dp429
S'posn'
p430
S'200'
p431
sS'name'
p432
S'\xe0\xa4\xb9\xe0\xa5\x88'
p433
sS'drel'
p434
S'lwg__vaux:VGF'
p435
sS'chunktype'
p436
S'child:VGF'
p437
sS'af'
p438
S'\xe0\xa4\xb9\xe0\xa5\x88,v,any,sg,3,,\xe0\xa4\xb9\xe0\xa5\x88,hE'
p439
ssbsg30
I00
sg31
I00
sg32
Nsg33
Nsg34
I8
sg35
I0
sg36
Nsg37
Nsg38
S'VAUX'
p440
sg40
g427
sg41
I00
sba(issf_api
Word
p441
(dp442
g6
I00
sg7
V\u0964
p443
sg9
(issf_api
FeatureSet
p444
(dp445
g12
(dp446
S'posn'
p447
S'210'
p448
sS'name'
p449
S'\xe0\xa5\xa4'
p450
sS'af'
p451
S'\xe0\xa5\xa4,punc,,,,,,'
p452
sS'chunkid'
p453
S'BLK'
p454
sS'drel'
p455
S'rsym:VGF'
p456
sS'chunktype'
p457
S'head:BLK'
p458
ssbsg30
I00
sg31
I00
sg32
Nsg33
Nsg34
I9
sg35
I0
sg36
Nsg37
Nsg38
S'SYM'
p459
sg40
g444
sg41
I00
sba(issf_api
Word
p460
(dp461
g6
I00
sg7
V\u0938\u0930\u0915\u093e\u0930
p462
sg9
(issf_api
FeatureSet
p463
(dp464
g12
(dp465
S'crefhead'
p466
S'\xe0\xa4\xb8\xe0\xa4\xb0\xe0\xa4\x95\xe0\xa4\xbe\xe0\xa4\xb0:i7'
p467
sS'posn'
p468
S'10'
p469
sS'name'
p470
S'\xe0\xa4\xb8\xe0\xa4\xb0\xe0\xa4\x95\xe0\xa4\xbe\xe0\xa4\xb0'
p471
sS'af'
p472
S'\xe0\xa4\xb8\xe0\xa4\xb0\xe0\xa4\x95\xe0\xa4\xbe\xe0\xa4\xb0,n,f,sg,3,o,0_\xe0\xa4\xa8\xe0\xa5\x87,0'
p473
sS'chunkid'
p474
S'NP'
p475
sS'creftype'
p476
S'Coreference-Identity:i2'
p477
sS'chunktype'
p478
S'head:NP'
p479
sS'vpos'
p480
S'vib_2'
p481
sS'cref'
p482
S'i7%1:t2,i8%0:t6'
p483
sS'drel'
p484
S'k1:VGF'
p485
ssbsg30
I00
sg31
I00
sg32
Nsg33
Nsg34
I0
sg35
I1
sg36
Nsg37
Nsg38
S'NN'
p486
sg40
g463
sg41
I00
sba(issf_api
Word
p487
(dp488
g6
I00
sg7
V\u0928\u0947
p489
sg9
(issf_api
FeatureSet
p490
(dp491
g12
(dp492
S'posn'
p493
S'20'
p494
sS'name'
p495
S'\xe0\xa4\xa8\xe0\xa5\x87'
p496
sS'af'
p497
S'\xe0\xa4\xa8\xe0\xa5\x87,psp,,,,,,'
p498
sS'drel'
p499
S'lwg__psp:NP'
p500
sS'chunktype'
p501
S'child:NP'
p502
sS'cref'
p503
S'i8%0:t6'
p504
ssbsg30
I00
sg31
I00
sg32
Nsg33
Nsg34
I0
sg35
I1
sg36
Nsg37
Nsg38
S'PSP'
p505
sg40
g490
sg41
I00
sba(issf_api
Word
p506
(dp507
g6
I00
sg7
V\u0906\u0924\u094d\u092e\u0938\u092e\u0930\u094d\u092a\u0923
p508
sg9
(issf_api
FeatureSet
p509
(dp510
g12
(dp511
S'crefhead'
p512
S'\xe0\xa4\x86\xe0\xa4\xa4\xe0\xa5\x8d\xe0\xa4\xae\xe0\xa4\xb8\xe0\xa4\xae\xe0\xa4\xb0\xe0\xa5\x8d\xe0\xa4\xaa\xe0\xa4\xa3:i9'
p513
sS'posn'
p514
S'30'
p515
sS'name'
p516
S'\xe0\xa4\x86\xe0\xa4\xa4\xe0\xa5\x8d\xe0\xa4\xae\xe0\xa4\xb8\xe0\xa4\xae\xe0\xa4\xb0\xe0\xa5\x8d\xe0\xa4\xaa\xe0\xa4\xa3'
p517
sS'af'
p518
S'\xe0\xa4\x86\xe0\xa4\xa4\xe0\xa5\x8d\xe0\xa4\xae\xe0\xa4\xb8\xe0\xa4\xae\xe0\xa4\xb0\xe0\xa5\x8d\xe0\xa4\xaa\xe0\xa4\xa3,n,m,sg,3,o,0_\xe0\xa4\x95\xe0\xa4\xbe,0'
p519
sS'acrefmodhead'
p520
S'\xe0\xa4\x86\xe0\xa4\xa4\xe0\xa5\x8d\xe0\xa4\xae\xe0\xa4\xb8\xe0\xa4\xae\xe0\xa4\xb0\xe0\xa5\x8d\xe0\xa4\xaa\xe0\xa4\xa3:m2'
p521
sS'chunkid'
p522
S'NP2'
p523
sS'acrefmod'
p524
S'm2%1:i10'
p525
sS'creftype'
p526
S'Coreference-Identity:i5'
p527
sS'chunktype'
p528
S'head:NP2'
p529
sS'vpos'
p530
S'vib_2'
p531
sS'cref'
p532
S'i9%1:t4,i8%0:t6'
p533
sS'drel'
p534
S'r6:NP3'
p535
ssbsg30
I00
sg31
I00
sg32
Nsg33
Nsg34
I1
sg35
I1
sg36
Nsg37
Nsg38
S'NN'
p536
sg40
g509
sg41
I00
sba(issf_api
Word
p537
(dp538
g6
I00
sg7
V\u0915\u0940
p539
sg9
(issf_api
FeatureSet
p540
(dp541
g12
(dp542
S'posn'
p543
S'40'
p544
sS'name'
p545
S'\xe0\xa4\x95\xe0\xa5\x80'
p546
sS'af'
p547
S'\xe0\xa4\x95\xe0\xa4\xbe,psp,f,sg,,d,,'
p548
sS'drel'
p549
S'lwg__psp:NP2'
p550
sS'chunktype'
p551
S'child:NP2'
p552
sS'cref'
p553
S'i8%0:t6'
p554
ssbsg30
I00
sg31
I00
sg32
Nsg33
Nsg34
I1
sg35
I1
sg36
Nsg37
Nsg38
S'PSP'
p555
sg40
g540
sg41
I00
sba(issf_api
Word
p556
(dp557
g6
I00
sg7
V\u0905\u0935\u0927\u093f
p558
sg9
(issf_api
FeatureSet
p559
(dp560
g12
(dp561
S'crefhead'
p562
S'\xe0\xa4\x85\xe0\xa4\xb5\xe0\xa4\xa7\xe0\xa4\xbf:i10'
p563
sS'posn'
p564
S'50'
p565
sS'name'
p566
S'\xe0\xa4\x85\xe0\xa4\xb5\xe0\xa4\xa7\xe0\xa4\xbf'
p567
sS'af'
p568
S'\xe0\xa4\x85\xe0\xa4\xb5\xe0\xa4\xa7\xe0\xa4\xbf,n,f,sg,3,d,0,0'
p569
sS'chunkid'
p570
S'NP3'
p571
sS'crefmod'
p572
S'm2:i10'
p573
sS'creftype'
p574
S'Coreference-Identity:i6'
p575
sS'chunktype'
p576
S'head:NP3'
p577
sS'cref'
p578
S'i10%1:t5,i8%0:t6'
p579
sS'drel'
p580
S'k2:VGNF'
p581
ssbsg30
I00
sg31
I00
sg32
Nsg33
Nsg34
I2
sg35
I1
sg36
Nsg37
Nsg38
S'NN'
p582
sg40
g559
sg41
I00
sba(issf_api
Word
p583
(dp584
g6
I00
sg7
V\u092c\u0922\u093c\u093e\u0915\u0930
p585
sg9
(issf_api
FeatureSet
p586
(dp587
g12
(dp588
S'posn'
p589
S'60'
p590
sS'name'
p591
S'\xe0\xa4\xac\xe0\xa4\xa2\xe0\xa4\xbc\xe0\xa4\xbe\xe0\xa4\x95\xe0\xa4\xb0'
p592
sS'af'
p593
S'\xe0\xa4\xac\xe0\xa4\xa2\xe0\xa4\xbe,v,any,any,any,,\xe0\xa4\x95\xe0\xa4\xb0,kara'
p594
sS'chunkid'
p595
S'VGNF'
p596
sS'drel'
p597
S'vmod:VGF'
p598
sS'chunktype'
p599
S'head:VGNF'
p600
sS'cref'
p601
S'i8%0:t6'
p602
ssbsg30
I00
sg31
I00
sg32
Nsg33
Nsg34
I3
sg35
I1
sg36
Nsg37
Nsg38
S'VM'
p603
sg40
g586
sg41
I00
sba(issf_api
Word
p604
(dp605
g6
I00
sg7
V\u0905\u0915\u094d\u0924\u0942\u092c\u0930
p606
sg9
(issf_api
FeatureSet
p607
(dp608
g12
(dp609
S'posn'
p610
S'70'
p611
sS'name'
p612
S'\xe0\xa4\x85\xe0\xa4\x95\xe0\xa5\x8d\xe0\xa4\xa4\xe0\xa5\x82\xe0\xa4\xac\xe0\xa4\xb0'
p613
sS'af'
p614
S'\xe0\xa4\x85\xe0\xa4\x95\xe0\xa5\x8d\xe0\xa4\xa4\xe0\xa5\x82\xe0\xa4\xac\xe0\xa4\xb0,n,m,sg,3,o,0_\xe0\xa4\x95\xe0\xa4\xbe,0'
p615
sS'chunkid'
p616
S'NP4'
p617
sS'drel'
p618
S'r6:NP5'
p619
sS'chunktype'
p620
S'head:NP4'
p621
sS'vpos'
p622
S'vib_2'
p623
sS'cref'
p624
S'i8%0:t6'
p625
ssbsg30
I00
sg31
I00
sg32
Nsg33
Nsg34
I4
sg35
I1
sg36
Nsg37
Nsg38
S'NNP'
p626
sg40
g607
sg41
I00
sba(issf_api
Word
p627
(dp628
g6
I00
sg7
V\u0915\u0947
p629
sg9
(issf_api
FeatureSet
p630
(dp631
g12
(dp632
S'posn'
p633
S'80'
p634
sS'name'
p635
S'\xe0\xa4\x95\xe0\xa5\x87'
p636
sS'af'
p637
S'\xe0\xa4\x95\xe0\xa4\xbe,psp,m,sg,,o,,'
p638
sS'drel'
p639
S'lwg__psp:NP4'
p640
sS'chunktype'
p641
S'child:NP4'
p642
sS'cref'
p643
S'i8%0:t6'
p644
ssbsg30
I00
sg31
I00
sg32
Nsg33
Nsg34
I4
sg35
I1
sg36
Nsg37
Nsg38
S'PSP'
p645
sg40
g630
sg41
I00
sba(issf_api
Word
p646
(dp647
g6
I00
sg7
V\u0926\u0942\u0938\u0930\u0947
p648
sg9
(issf_api
FeatureSet
p649
(dp650
g12
(dp651
S'posn'
p652
S'90'
p653
sS'name'
p654
S'\xe0\xa4\xa6\xe0\xa5\x82\xe0\xa4\xb8\xe0\xa4\xb0\xe0\xa5\x87'
p655
sS'af'
p656
S'\xe0\xa4\xa6\xe0\xa5\x82\xe0\xa4\xb8\xe0\xa4\xb0\xe0\xa4\xbe,num,m,sg,,o,,'
p657
sS'drel'
p658
S'nmod__adj:NP5'
p659
sS'chunktype'
p660
S'child:NP5'
p661
sS'cref'
p662
S'i8%0:t6'
p663
ssbsg30
I00
sg31
I00
sg32
Nsg33
Nsg34
I5
sg35
I1
sg36
Nsg37
Nsg38
S'QO'
p664
sg40
g649
sg41
I00
sba(issf_api
Word
p665
(dp666
g6
I00
sg7
V\u0939\u092b\u094d\u0924\u0947
p667
sg9
(issf_api
FeatureSet
p668
(dp669
g12
(dp670
S'posn'
p671
S'100'
p672
sS'name'
p673
S'\xe0\xa4\xb9\xe0\xa4\xab\xe0\xa5\x8d\xe0\xa4\xa4\xe0\xa5\x87'
p674
sS'af'
p675
S'\xe0\xa4\xb9\xe0\xa4\xab\xe0\xa5\x8d\xe0\xa4\xa4\xe0\xa4\xbe,n,m,sg,3,o,0_\xe0\xa4\xa4\xe0\xa4\x95,0'
p676
sS'chunkid'
p677
S'NP5'
p678
sS'drel'
p679
S'k7t:VGF'
p680
sS'chunktype'
p681
S'head:NP5'
p682
sS'vpos'
p683
S'vib_3'
p684
sS'cref'
p685
S'i8%0:t6'
p686
ssbsg30
I00
sg31
I00
sg32
Nsg33
Nsg34
I5
sg35
I1
sg36
Nsg37
Nsg38
S'NN'
p687
sg40
g668
sg41
I00
sba(issf_api
Word
p688
(dp689
g6
I00
sg7
V\u0924\u0915
p690
sg9
(issf_api
FeatureSet
p691
(dp692
g12
(dp693
S'posn'
p694
S'110'
p695
sS'name'
p696
S'\xe0\xa4\xa4\xe0\xa4\x95'
p697
sS'af'
p698
S'\xe0\xa4\xa4\xe0\xa4\x95,psp,,,,,,'
p699
sS'drel'
p700
S'lwg__psp:NP5'
p701
sS'chunktype'
p702
S'child:NP5'
p703
sS'cref'
p704
S'i8%0:t6'
p705
ssbsg30
I00
sg31
I00
sg32
Nsg33
Nsg34
I5
sg35
I1
sg36
Nsg37
Nsg38
S'PSP'
p706
sg40
g691
sg41
I00
sba(issf_api
Word
p707
(dp708
g6
I00
sg7
V\u0915\u0930
p709
sg9
(issf_api
FeatureSet
p710
(dp711
g12
(dp712
S'crefhead'
p713
S'\xe0\xa4\x95\xe0\xa4\xb0:i8'
p714
sS'posn'
p715
S'120'
p716
sS'name'
p717
S'\xe0\xa4\x95\xe0\xa4\xb0'
p718
sS'af'
p719
S'\xe0\xa4\x95\xe0\xa4\xb0,v,f,sg,3,,0_\xe0\xa4\xa6\xe0\xa5\x87+\xe0\xa4\xaf\xe0\xa4\xbe_\xe0\xa4\xb9\xe0\xa5\x88,0'
p720
sS'chunkid'
p721
S'VGF'
p722
sS'stype'
p723
S'declarative'
p724
sS'chunktype'
p725
S'head:VGF'
p726
sS'crefchainhead'
p727
S'i8:t6'
p728
sS'voicetype'
p729
S'active'
p730
sS'vpos'
p731
S'tam_2_3'
p732
sS'cref'
p733
S'i8%0:t6'
p734
ssbsg30
I00
sg31
I00
sg32
Nsg33
Nsg34
I6
sg35
I1
sg36
Nsg37
Nsg38
S'VM'
p735
sg40
g710
sg41
I00
sba(issf_api
Word
p736
(dp737
g6
I00
sg7
V\u0926\u0940
p738
sg9
(issf_api
FeatureSet
p739
(dp740
g12
(dp741
S'posn'
p742
S'130'
p743
sS'name'
p744
S'\xe0\xa4\xa6\xe0\xa5\x80'
p745
sS'af'
p746
S'\xe0\xa4\xa6\xe0\xa5\x87,v,f,sg,any,,\xe0\xa4\xaf\xe0\xa4\xbe,yA'
p747
sS'drel'
p748
S'lwg__vaux:VGF'
p749
sS'chunktype'
p750
S'child:VGF'
p751
sS'cref'
p752
S'i8%0:t6'
p753
ssbsg30
I00
sg31
I00
sg32
Nsg33
Nsg34
I6
sg35
I1
sg36
Nsg37
Nsg38
S'VAUX'
p754
sg40
g739
sg41
I00
sba(issf_api
Word
p755
(dp756
g6
I00
sg7
V\u0939\u0948
p757
sg9
(issf_api
FeatureSet
p758
(dp759
g12
(dp760
S'posn'
p761
S'140'
p762
sS'name'
p763
S'\xe0\xa4\xb9\xe0\xa5\x88'
p764
sS'af'
p765
S'\xe0\xa4\xb9\xe0\xa5\x88,v,any,sg,3,,\xe0\xa4\xb9\xe0\xa5\x88,hE'
p766
sS'drel'
p767
S'lwg__vaux:VGF'
p768
sS'chunktype'
p769
S'child:VGF'
p770
sS'cref'
p771
S'i8%1:t6'
p772
ssbsg30
I00
sg31
I00
sg32
Nsg33
Nsg34
I6
sg35
I1
sg36
Nsg37
Nsg38
S'VAUX'
p773
sg40
g758
sg41
I00
sba(issf_api
Word
p774
(dp775
g6
I00
sg7
V\u0964
p776
sg9
(issf_api
FeatureSet
p777
(dp778
g12
(dp779
S'posn'
p780
S'150'
p781
sS'name'
p782
S'\xe0\xa5\xa4'
p783
sS'af'
p784
S'\xe0\xa5\xa4,punc,,,,,,'
p785
sS'chunkid'
p786
S'BLK'
p787
sS'drel'
p788
S'rsym:VGF'
p789
sS'chunktype'
p790
S'head:BLK'
p791
ssbsg30
I00
sg31
I00
sg32
Nsg33
Nsg34
I7
sg35
I1
sg36
Nsg37
Nsg38
S'SYM'
p792
sg40
g777
sg41
I00
sba(issf_api
Word
p793
(dp794
g6
I00
sg7
V\u0907\u0938\u0938\u0947
p795
sg9
(issf_api
FeatureSet
p796
(dp797
g12
(dp798
S'crefhead'
p799
S'\xe0\xa4\x87\xe0\xa4\xb8\xe0\xa4\xb8\xe0\xa5\x87:i11'
p800
sS'posn'
p801
S'10'
p802
sS'name'
p803
S'\xe0\xa4\x87\xe0\xa4\xb8\xe0\xa4\xb8\xe0\xa5\x87'
p804
sS'af'
p805
S'\xe0\xa4\xaf\xe0\xa4\xb9,pn,any,sg,3,o,\xe0\xa4\xb8\xe0\xa5\x87,se'
p806
sS'chunkid'
p807
S'NP'
p808
sS'creftype'
p809
S'Anaphora-E:i8'
p810
sS'chunktype'
p811
S'head:NP'
p812
sS'cref'
p813
S'i11%1:t6'
p814
sS'drel'
p815
S'rh:VGF'
p816
ssbsg30
I00
sg31
I00
sg32
Nsg33
Nsg34
I0
sg35
I2
sg36
Nsg37
Nsg38
S'PRP'
p817
sg40
g796
sg41
I00
sba(issf_api
Word
p818
(dp819
g6
I00
sg7
V\u091c\u094d\u092f\u093e\u0926\u093e
p820
sg9
(issf_api
FeatureSet
p821
(dp822
g12
(dp823
S'posn'
p824
S'20'
p825
sS'name'
p826
S'\xe0\xa4\x9c\xe0\xa5\x8d\xe0\xa4\xaf\xe0\xa4\xbe\xe0\xa4\xa6\xe0\xa4\xbe'
p827
sS'af'
p828
S'\xe0\xa4\x9c\xe0\xa5\x8d\xe0\xa4\xaf\xe0\xa4\xbe\xe0\xa4\xa6\xe0\xa4\xbe,avy,,,,,,'
p829
sS'chunkid'
p830
S'NP2'
p831
sS'drel'
p832
S'nmod:NP3'
p833
sS'chunktype'
p834
S'head:NP2'
p835
ssbsg30
I00
sg31
I00
sg32
Nsg33
Nsg34
I1
sg35
I2
sg36
Nsg37
Nsg38
S'QF'
p836
sg40
g821
sg41
I00
sba(issf_api
Word
p837
(dp838
g6
I00
sg7
V\u0938\u0947
p839
sg9
(issf_api
FeatureSet
p840
(dp841
g12
(dp842
S'posn'
p843
S'30'
p844
sS'name'
p845
S'\xe0\xa4\xb8\xe0\xa5\x87'
p846
sS'drel'
p847
S'lwg__rp:NP2'
p848
sS'chunktype'
p849
S'child:NP2'
p850
sS'af'
p851
S'\xe0\xa4\xb8\xe0\xa5\x87,avy,,,,,,'
p852
ssbsg30
I00
sg31
I00
sg32
Nsg33
Nsg34
I1
sg35
I2
sg36
Nsg37
Nsg38
S'RP'
p853
sg40
g840
sg41
I00
sba(issf_api
Word
p854
(dp855
g6
I00
sg7
V\u091c\u094d\u092f\u093e\u0926\u093e
p856
sg9
(issf_api
FeatureSet
p857
(dp858
g12
(dp859
S'posn'
p860
S'40'
p861
sS'name'
p862
S'\xe0\xa4\x9c\xe0\xa5\x8d\xe0\xa4\xaf\xe0\xa4\xbe\xe0\xa4\xa6\xe0\xa4\xbe2'
p863
sS'drel'
p864
S'nmod__adj:NP2'
p865
sS'chunktype'
p866
S'child:NP2'
p867
sS'af'
p868
S'\xe0\xa4\x9c\xe0\xa5\x8d\xe0\xa4\xaf\xe0\xa4\xbe\xe0\xa4\xa6\xe0\xa4\xbe,avy,,,,,,'
p869
ssbsg30
I00
sg31
I00
sg32
Nsg33
Nsg34
I1
sg35
I2
sg36
Nsg37
Nsg38
S'QF'
p870
sg40
g857
sg41
I00
sba(issf_api
Word
p871
(dp872
g6
I00
sg7
V\u0909\u0917\u094d\u0930\u0935\u093e\u0926\u0940
p873
sg9
(issf_api
FeatureSet
p874
(dp875
g12
(dp876
S'crefhead'
p877
S'\xe0\xa4\x89\xe0\xa4\x97\xe0\xa5\x8d\xe0\xa4\xb0\xe0\xa4\xb5\xe0\xa4\xbe\xe0\xa4\xa6\xe0\xa5\x80:i12'
p878
sS'posn'
p879
S'50'
p880
sS'name'
p881
S'\xe0\xa4\x89\xe0\xa4\x97\xe0\xa5\x8d\xe0\xa4\xb0\xe0\xa4\xb5\xe0\xa4\xbe\xe0\xa4\xa6\xe0\xa5\x80'
p882
sS'af'
p883
S'\xe0\xa4\x89\xe0\xa4\x97\xe0\xa5\x8d\xe0\xa4\xb0\xe0\xa4\xb5\xe0\xa4\xbe\xe0\xa4\xa6\xe0\xa5\x80,n,m,sg,3,d,0,0'
p884
sS'chunkid'
p885
S'NP3'
p886
sS'creftype'
p887
S'Coreference-Identity:i3'
p888
sS'chunktype'
p889
S'head:NP3'
p890
sS'cref'
p891
S'i12%1:t3'
p892
sS'drel'
p893
S'k1:VGF'
p894
ssbsg30
I00
sg31
I00
sg32
Nsg33
Nsg34
I2
sg35
I2
sg36
Nsg37
Nsg38
S'NN'
p895
sg40
g874
sg41
I00
sba(issf_api
Word
p896
(dp897
g6
I00
sg7
V\u0938\u0941\u0930\u0915\u094d\u0937\u093e\u092c\u0932\u094b\u0902
p898
sg9
(issf_api
FeatureSet
p899
(dp900
g12
(dp901
S'posn'
p902
S'60'
p903
sS'name'
p904
S'\xe0\xa4\xb8\xe0\xa5\x81\xe0\xa4\xb0\xe0\xa4\x95\xe0\xa5\x8d\xe0\xa4\xb7\xe0\xa4\xbe\xe0\xa4\xac\xe0\xa4\xb2\xe0\xa5\x8b\xe0\xa4\x82'
p905
sS'af'
p906
S'\xe0\xa4\xb8\xe0\xa5\x81\xe0\xa4\xb0\xe0\xa4\x95\xe0\xa5\x8d\xe0\xa4\xb7\xe0\xa4\xbe\xe0\xa4\xac\xe0\xa4\xb2,n,m,pl,3,o,0_\xe0\xa4\x95\xe0\xa5\x87_\xe0\xa4\xb8\xe0\xa4\xbe\xe0\xa4\xae\xe0\xa4\xa8\xe0\xa5\x87,0'
p907
sS'chunkid'
p908
S'NP4'
p909
sS'drel'
p910
S'k7:VGF'
p911
sS'vpos'
p912
S'vib_2_3'
p913
sS'chunktype'
p914
S'head:NP4'
p915
ssbsg30
I00
sg31
I00
sg32
Nsg33
Nsg34
I3
sg35
I2
sg36
Nsg37
Nsg38
S'NN'
p916
sg40
g899
sg41
I00
sba(issf_api
Word
p917
(dp918
g6
I00
sg7
V\u0915\u0947
p919
sg9
(issf_api
FeatureSet
p920
(dp921
g12
(dp922
S'posn'
p923
S'70'
p924
sS'name'
p925
S'\xe0\xa4\x95\xe0\xa5\x87'
p926
sS'drel'
p927
S'lwg__psp:NP4'
p928
sS'chunktype'
p929
S'child:NP4'
p930
sS'af'
p931
S'\xe0\xa4\x95\xe0\xa5\x87,psp,,,,,,'
p932
ssbsg30
I00
sg31
I00
sg32
Nsg33
Nsg34
I3
sg35
I2
sg36
Nsg37
Nsg38
S'PSP'
p933
sg40
g920
sg41
I00
sba(issf_api
Word
p934
(dp935
g6
I00
sg7
V\u0938\u093e\u092e\u0928\u0947
p936
sg9
(issf_api
FeatureSet
p937
(dp938
g12
(dp939
S'posn'
p940
S'80'
p941
sS'name'
p942
S'\xe0\xa4\xb8\xe0\xa4\xbe\xe0\xa4\xae\xe0\xa4\xa8\xe0\xa5\x87'
p943
sS'drel'
p944
S'lwg__psp:NP4'
p945
sS'chunktype'
p946
S'child:NP4'
p947
sS'af'
p948
S'\xe0\xa4\xb8\xe0\xa4\xbe\xe0\xa4\xae\xe0\xa4\xa8\xe0\xa5\x87,nst,m,sg,3,d,,'
p949
ssbsg30
I00
sg31
I00
sg32
Nsg33
Nsg34
I3
sg35
I2
sg36
Nsg37
Nsg38
S'NST'
p950
sg40
g937
sg41
I00
sba(issf_api
Word
p951
(dp952
g6
I00
sg7
V\u0906\u0924\u094d\u092e\u0938\u092e\u0930\u094d\u092a\u0923
p953
sg9
(issf_api
FeatureSet
p954
(dp955
g12
(dp956
S'crefhead'
p957
S'\xe0\xa4\x86\xe0\xa4\xa4\xe0\xa5\x8d\xe0\xa4\xae\xe0\xa4\xb8\xe0\xa4\xae\xe0\xa4\xb0\xe0\xa5\x8d\xe0\xa4\xaa\xe0\xa4\xa3:i13'
p958
sS'posn'
p959
S'90'
p960
sS'name'
p961
S'\xe0\xa4\x86\xe0\xa4\xa4\xe0\xa5\x8d\xe0\xa4\xae\xe0\xa4\xb8\xe0\xa4\xae\xe0\xa4\xb0\xe0\xa5\x8d\xe0\xa4\xaa\xe0\xa4\xa3'
p962
sS'af'
p963
S'\xe0\xa4\x86\xe0\xa4\xa4\xe0\xa5\x8d\xe0\xa4\xae\xe0\xa4\xb8\xe0\xa4\xae\xe0\xa4\xb0\xe0\xa5\x8d\xe0\xa4\xaa\xe0\xa4\xa3,n,m,sg,3,d,0,0'
p964
sS'chunkid'
p965
S'NP5'
p966
sS'creftype'
p967
S'Coreference-Identity:i9'
p968
sS'chunktype'
p969
S'head:NP5'
p970
sS'cref'
p971
S'i13%1:t4'
p972
sS'drel'
p973
S'pof:VGF'
p974
ssbsg30
I00
sg31
I00
sg32
Nsg33
Nsg34
I4
sg35
I2
sg36
Nsg37
Nsg38
S'NN'
p975
sg40
g954
sg41
I00
sba(issf_api
Word
p976
(dp977
g6
I00
sg7
V\u0915\u0930
p978
sg9
(issf_api
FeatureSet
p979
(dp980
g12
(dp981
S'posn'
p982
S'100'
p983
sS'name'
p984
S'\xe0\xa4\x95\xe0\xa4\xb0'
p985
sS'af'
p986
S'\xe0\xa4\x95\xe0\xa4\xb0,v,any,pl,3,,0_\xe0\xa4\xb8\xe0\xa4\x95+\xe0\xa4\x97\xe0\xa4\xbe,0'
p987
sS'chunkid'
p988
S'VGF'
p989
sS'chunktype'
p990
S'head:VGF'
p991
sS'voicetype'
p992
S'active'
p993
sS'vpos'
p994
S'tam_2'
p995
sS'stype'
p996
S'declarative'
p997
ssbsg30
I00
sg31
I00
sg32
Nsg33
Nsg34
I5
sg35
I2
sg36
Nsg37
Nsg38
S'VM'
p998
sg40
g979
sg41
I00
sba(issf_api
Word
p999
(dp1000
g6
I00
sg7
V\u0938\u0915\u0947\u0902\u0917\u0947
p1001
sg9
(issf_api
FeatureSet
p1002
(dp1003
g12
(dp1004
S'posn'
p1005
S'110'
p1006
sS'name'
p1007
S'\xe0\xa4\xb8\xe0\xa4\x95\xe0\xa5\x87\xe0\xa4\x82\xe0\xa4\x97\xe0\xa5\x87'
p1008
sS'drel'
p1009
S'lwg__vaux:VGF'
p1010
sS'chunktype'
p1011
S'child:VGF'
p1012
sS'af'
p1013
S'\xe0\xa4\xb8\xe0\xa4\x95,v,m,pl,3,,\xe0\xa4\x97\xe0\xa4\xbe,gA'
p1014
ssbsg30
I00
sg31
I00
sg32
Nsg33
Nsg34
I5
sg35
I2
sg36
Nsg37
Nsg38
S'VAUX'
p1015
sg40
g1002
sg41
I00
sba(issf_api
Word
p1016
(dp1017
g6
I00
sg7
V\u0964
p1018
sg9
(issf_api
FeatureSet
p1019
(dp1020
g12
(dp1021
S'posn'
p1022
S'120'
p1023
sS'name'
p1024
S'\xe0\xa5\xa4'
p1025
sS'af'
p1026
S'\xe0\xa5\xa4,punc,,,,,,'
p1027
sS'chunkid'
p1028
S'BLK'
p1029
sS'drel'
p1030
S'rsym:VGF'
p1031
sS'chunktype'
p1032
S'head:BLK'
p1033
ssbsg30
I00
sg31
I00
sg32
Nsg33
Nsg34
I6
sg35
I2
sg36
Nsg37
Nsg38
S'SYM'
p1034
sg40
g1019
sg41
I00
sba(issf_api
Word
p1035
(dp1036
g6
I00
sg7
V\u0907\u0938
p1037
sg9
(issf_api
FeatureSet
p1038
(dp1039
g12
(dp1040
S'posn'
p1041
S'10'
p1042
sS'name'
p1043
S'\xe0\xa4\x87\xe0\xa4\xb8'
p1044
sS'drel'
p1045
S'nmod__adj:NP'
p1046
sS'chunktype'
p1047
S'child:NP'
p1048
sS'af'
p1049
S'\xe0\xa4\xaf\xe0\xa4\xb9,pn,any,sg,3,o,,'
p1050
ssbsg30
I00
sg31
I00
sg32
Nsg33
Nsg34
I0
sg35
I3
sg36
Nsg37
Nsg38
S'DEM'
p1051
sg40
g1038
sg41
I00
sba(issf_api
Word
p1052
(dp1053
g6
I00
sg7
V\u092c\u093e\u0924
p1054
sg9
(issf_api
FeatureSet
p1055
(dp1056
g12
(dp1057
S'posn'
p1058
S'20'
p1059
sS'name'
p1060
S'\xe0\xa4\xac\xe0\xa4\xbe\xe0\xa4\xa4'
p1061
sS'af'
p1062
S'\xe0\xa4\xac\xe0\xa4\xbe\xe0\xa4\xa4,n,f,sg,3,o,0_\xe0\xa4\x95\xe0\xa4\xbe,0'
p1063
sS'chunkid'
p1064
S'NP'
p1065
sS'drel'
p1066
S'r6:NP2'
p1067
sS'vpos'
p1068
S'vib_3'
p1069
sS'chunktype'
p1070
S'head:NP'
p1071
ssbsg30
I00
sg31
I00
sg32
Nsg33
Nsg34
I0
sg35
I3
sg36
Nsg37
Nsg38
S'NN'
p1072
sg40
g1055
sg41
I00
sba(issf_api
Word
p1073
(dp1074
g6
I00
sg7
V\u0915\u0940
p1075
sg9
(issf_api
FeatureSet
p1076
(dp1077
g12
(dp1078
S'posn'
p1079
S'30'
p1080
sS'name'
p1081
S'\xe0\xa4\x95\xe0\xa5\x80'
p1082
sS'drel'
p1083
S'lwg__psp:NP'
p1084
sS'chunktype'
p1085
S'child:NP'
p1086
sS'af'
p1087
S'\xe0\xa4\x95\xe0\xa4\xbe,psp,f,sg,,d,,'
p1088
ssbsg30
I00
sg31
I00
sg32
Nsg33
Nsg34
I0
sg35
I3
sg36
Nsg37
Nsg38
S'PSP'
p1089
sg40
g1076
sg41
I00
sba(issf_api
Word
p1090
(dp1091
g6
I00
sg7
V\u091c\u093e\u0928\u0915\u093e\u0930\u0940
p1092
sg9
(issf_api
FeatureSet
p1093
(dp1094
g12
(dp1095
S'posn'
p1096
S'40'
p1097
sS'name'
p1098
S'\xe0\xa4\x9c\xe0\xa4\xbe\xe0\xa4\xa8\xe0\xa4\x95\xe0\xa4\xbe\xe0\xa4\xb0\xe0\xa5\x80'
p1099
sS'af'
p1100
S'\xe0\xa4\x9c\xe0\xa4\xbe\xe0\xa4\xa8\xe0\xa4\x95\xe0\xa4\xbe\xe0\xa4\xb0\xe0\xa5\x80,n,f,sg,3,d,0,0'
p1101
sS'chunkid'
p1102
S'NP2'
p1103
sS'drel'
p1104
S'k2:VGF'
p1105
sS'chunktype'
p1106
S'head:NP2'
p1107
ssbsg30
I00
sg31
I00
sg32
Nsg33
Nsg34
I1
sg35
I3
sg36
Nsg37
Nsg38
S'NN'
p1108
sg40
g1093
sg41
I00
sba(issf_api
Word
p1109
(dp1110
g6
I00
sg7
V\u0928\u0947\u092a\u093e\u0932
p1111
sg9
(issf_api
FeatureSet
p1112
(dp1113
g12
(dp1114
S'crefhead'
p1115
S'\xe0\xa4\xa8\xe0\xa5\x87\xe0\xa4\xaa\xe0\xa4\xbe\xe0\xa4\xb2:i14'
p1116
sS'posn'
p1117
S'50'
p1118
sS'name'
p1119
S'\xe0\xa4\xa8\xe0\xa5\x87\xe0\xa4\xaa\xe0\xa4\xbe\xe0\xa4\xb2'
p1120
sS'af'
p1121
S'\xe0\xa4\xa8\xe0\xa5\x87\xe0\xa4\xaa\xe0\xa4\xbe\xe0\xa4\xb2,n,m,sg,3,o,0_\xe0\xa4\x95\xe0\xa4\xbe,0'
p1122
sS'chunkid'
p1123
S'NP3'
p1124
sS'creftype'
p1125
S'Coreference-Identity:i1'
p1126
sS'chunktype'
p1127
S'head:NP3'
p1128
sS'vpos'
p1129
S'vib_2'
p1130
sS'cref'
p1131
S'i14%1:t1'
p1132
sS'drel'
p1133
S'r6:NP4'
p1134
ssbsg30
I00
sg31
I00
sg32
Nsg33
Nsg34
I2
sg35
I3
sg36
Nsg37
Nsg38
S'NNP'
p1135
sg40
g1112
sg41
I00
sba(issf_api
Word
p1136
(dp1137
g6
I00
sg7
V\u0915\u0947
p1138
sg9
(issf_api
FeatureSet
p1139
(dp1140
g12
(dp1141
S'posn'
p1142
S'60'
p1143
sS'name'
p1144
S'\xe0\xa4\x95\xe0\xa5\x87'
p1145
sS'drel'
p1146
S'lwg__psp:NP3'
p1147
sS'chunktype'
p1148
S'child:NP3'
p1149
sS'af'
p1150
S'\xe0\xa4\x95\xe0\xa4\xbe,psp,m,sg,,o,,'
p1151
ssbsg30
I00
sg31
I00
sg32
Nsg33
Nsg34
I2
sg35
I3
sg36
Nsg37
Nsg38
S'PSP'
p1152
sg40
g1139
sg41
I00
sba(issf_api
Word
p1153
(dp1154
g6
I00
sg7
V\u0917\u0943\u0939
p1155
sg9
(issf_api
FeatureSet
p1156
(dp1157
g12
(dp1158
S'posn'
p1159
S'70'
p1160
sS'name'
p1161
S'\xe0\xa4\x97\xe0\xa5\x83\xe0\xa4\xb9'
p1162
sS'drel'
p1163
S'pof__cn:NP4'
p1164
sS'chunktype'
p1165
S'child:NP4'
p1166
sS'af'
p1167
S'\xe0\xa4\x97\xe0\xa5\x83\xe0\xa4\xb9,n,m,sg,3,d,0,0'
p1168
ssbsg30
I00
sg31
I00
sg32
Nsg33
Nsg34
I3
sg35
I3
sg36
Nsg37
Nsg38
S'NNPC'
p1169
sg40
g1156
sg41
I00
sba(issf_api
Word
p1170
(dp1171
g6
I00
sg7
V\u092e\u0902\u0924\u094d\u0930\u093e\u0932\u092f
p1172
sg9
(issf_api
FeatureSet
p1173
(dp1174
g12
(dp1175
S'posn'
p1176
S'80'
p1177
sS'name'
p1178
S'\xe0\xa4\xae\xe0\xa4\x82\xe0\xa4\xa4\xe0\xa5\x8d\xe0\xa4\xb0\xe0\xa4\xbe\xe0\xa4\xb2\xe0\xa4\xaf'
p1179
sS'af'
p1180
S'\xe0\xa4\xae\xe0\xa4\x82\xe0\xa4\xa4\xe0\xa5\x8d\xe0\xa4\xb0\xe0\xa4\xbe\xe0\xa4\xb2\xe0\xa4\xaf,n,m,sg,3,o,0_\xe0\xa4\x95\xe0\xa4\xbe_\xe0\xa4\x93\xe0\xa4\xb0_\xe0\xa4\xb8\xe0\xa5\x87,0'
p1181
sS'chunkid'
p1182
S'NP4'
p1183
sS'drel'
p1184
S'rd:VGF'
p1185
sS'vpos'
p1186
S'vib_3_4_5'
p1187
sS'chunktype'
p1188
S'head:NP4'
p1189
ssbsg30
I00
sg31
I00
sg32
Nsg33
Nsg34
I3
sg35
I3
sg36
Nsg37
Nsg38
S'NNP'
p1190
sg40
g1173
sg41
I00
sba(issf_api
Word
p1191
(dp1192
g6
I00
sg7
V\u0915\u0940
p1193
sg9
(issf_api
FeatureSet
p1194
(dp1195
g12
(dp1196
S'posn'
p1197
S'90'
p1198
sS'name'
p1199
S'\xe0\xa4\x95\xe0\xa5\x802'
p1200
sS'drel'
p1201
S'lwg__psp:NP4'
p1202
sS'chunktype'
p1203
S'child:NP4'
p1204
sS'af'
p1205
S'\xe0\xa4\x95\xe0\xa4\xbe,psp,f,sg,,o,,'
p1206
ssbsg30
I00
sg31
I00
sg32
Nsg33
Nsg34
I3
sg35
I3
sg36
Nsg37
Nsg38
S'PSP'
p1207
sg40
g1194
sg41
I00
sba(issf_api
Word
p1208
(dp1209
g6
I00
sg7
V\u0913\u0930
p1210
sg9
(issf_api
FeatureSet
p1211
(dp1212
g12
(dp1213
S'posn'
p1214
S'100'
p1215
sS'name'
p1216
S'\xe0\xa4\x93\xe0\xa4\xb0'
p1217
sS'drel'
p1218
S'lwg__psp:NP4'
p1219
sS'chunktype'
p1220
S'child:NP4'
p1221
sS'af'
p1222
S'\xe0\xa4\x93\xe0\xa4\xb0,nst,f,sg,3,o,,'
p1223
ssbsg30
I00
sg31
I00
sg32
Nsg33
Nsg34
I3
sg35
I3
sg36
Nsg37
Nsg38
S'NST'
p1224
sg40
g1211
sg41
I00
sba(issf_api
Word
p1225
(dp1226
g6
I00
sg7
V\u0938\u0947
p1227
sg9
(issf_api
FeatureSet
p1228
(dp1229
g12
(dp1230
S'posn'
p1231
S'110'
p1232
sS'name'
p1233
S'\xe0\xa4\xb8\xe0\xa5\x87'
p1234
sS'drel'
p1235
S'lwg__psp:NP4'
p1236
sS'chunktype'
p1237
S'child:NP4'
p1238
sS'af'
p1239
S'\xe0\xa4\xb8\xe0\xa5\x87,psp,,,,,,'
p1240
ssbsg30
I00
sg31
I00
sg32
Nsg33
Nsg34
I3
sg35
I3
sg36
Nsg37
Nsg38
S'PSP'
p1241
sg40
g1228
sg41
I00
sba(issf_api
Word
p1242
(dp1243
g6
I00
sg7
V\u0926\u0940
p1244
sg9
(issf_api
FeatureSet
p1245
(dp1246
g12
(dp1247
S'posn'
p1248
S'120'
p1249
sS'name'
p1250
S'\xe0\xa4\xa6\xe0\xa5\x80'
p1251
sS'af'
p1252
S'\xe0\xa4\xa6\xe0\xa5\x87,v,f,sg,3,,\xe0\xa4\xaf\xe0\xa4\xbe_\xe0\xa4\x9c\xe0\xa4\xbe+\xe0\xa4\xaf\xe0\xa4\xbe\xe0\xa5\xa7_\xe0\xa4\xb9\xe0\xa5\x88,yA'
p1253
sS'chunkid'
p1254
S'VGF'
p1255
sS'chunktype'
p1256
S'head:VGF'
p1257
sS'voicetype'
p1258
S'active'
p1259
sS'vpos'
p1260
S'tam_2_3'
p1261
sS'stype'
p1262
S'declarative'
p1263
ssbsg30
I00
sg31
I00
sg32
Nsg33
Nsg34
I4
sg35
I3
sg36
Nsg37
Nsg38
S'VM'
p1264
sg40
g1245
sg41
I00
sba(issf_api
Word
p1265
(dp1266
g6
I00
sg7
V\u0917\u0908
p1267
sg9
(issf_api
FeatureSet
p1268
(dp1269
g12
(dp1270
S'posn'
p1271
S'130'
p1272
sS'name'
p1273
S'\xe0\xa4\x97\xe0\xa4\x88'
p1274
sS'drel'
p1275
S'lwg__vaux:VGF'
p1276
sS'chunktype'
p1277
S'child:VGF'
p1278
sS'af'
p1279
S'\xe0\xa4\x9c\xe0\xa4\xbe,v,f,sg,any,,\xe0\xa4\xaf\xe0\xa4\xbe\xe0\xa5\xa7,yA1'
p1280
ssbsg30
I00
sg31
I00
sg32
Nsg33
Nsg34
I4
sg35
I3
sg36
Nsg37
Nsg38
S'VAUX'
p1281
sg40
g1268
sg41
I00
sba(issf_api
Word
p1282
(dp1283
g6
I00
sg7
V\u0939\u0948
p1284
sg9
(issf_api
FeatureSet
p1285
(dp1286
g12
(dp1287
S'posn'
p1288
S'140'
p1289
sS'name'
p1290
S'\xe0\xa4\xb9\xe0\xa5\x88'
p1291
sS'drel'
p1292
S'lwg__vaux:VGF'
p1293
sS'chunktype'
p1294
S'child:VGF'
p1295
sS'af'
p1296
S'\xe0\xa4\xb9\xe0\xa5\x88,v,any,sg,3,,\xe0\xa4\xb9\xe0\xa5\x88,hE'
p1297
ssbsg30
I00
sg31
I00
sg32
Nsg33
Nsg34
I4
sg35
I3
sg36
Nsg37
Nsg38
S'VAUX'
p1298
sg40
g1285
sg41
I00
sba(issf_api
Word
p1299
(dp1300
g6
I00
sg7
V\u0964
p1301
sg9
(issf_api
FeatureSet
p1302
(dp1303
g12
(dp1304
S'posn'
p1305
S'150'
p1306
sS'name'
p1307
S'\xe0\xa5\xa4'
p1308
sS'af'
p1309
S'\xe0\xa5\xa4,punc,,,,,,'
p1310
sS'chunkid'
p1311
S'BLK'
p1312
sS'drel'
p1313
S'rsym:VGF'
p1314
sS'chunktype'
p1315
S'head:BLK'
p1316
ssbsg30
I00
sg31
I00
sg32
Nsg33
Nsg34
I5
sg35
I3
sg36
Nsg37
Nsg38
S'SYM'
p1317
sg40
g1302
sg41
I00
sba(issf_api
Word
p1318
(dp1319
g6
I00
sg7
V\u092a\u093f\u091b\u0932\u0947
p1320
sg9
(issf_api
FeatureSet
p1321
(dp1322
g12
(dp1323
S'posn'
p1324
S'10'
p1325
sS'name'
p1326
S'\xe0\xa4\xaa\xe0\xa4\xbf\xe0\xa4\x9b\xe0\xa4\xb2\xe0\xa5\x87'
p1327
sS'drel'
p1328
S'nmod__adj:NP'
p1329
sS'chunktype'
p1330
S'child:NP'
p1331
sS'af'
p1332
S'\xe0\xa4\xaa\xe0\xa4\xbf\xe0\xa4\x9b\xe0\xa4\xb2\xe0\xa4\xbe,adj,m,sg,,o,,'
p1333
ssbsg30
I00
sg31
I00
sg32
Nsg33
Nsg34
I0
sg35
I4
sg36
Nsg37
Nsg38
S'JJ'
p1334
sg40
g1321
sg41
I00
sba(issf_api
Word
p1335
(dp1336
g6
I00
sg7
V\u0938\u093e\u0932
p1337
sg9
(issf_api
FeatureSet
p1338
(dp1339
g12
(dp1340
S'posn'
p1341
S'20'
p1342
sS'name'
p1343
S'\xe0\xa4\xb8\xe0\xa4\xbe\xe0\xa4\xb2'
p1344
sS'af'
p1345
S'\xe0\xa4\xb8\xe0\xa4\xbe\xe0\xa4\xb2,n,m,sg,3,o,0,0'
p1346
sS'chunkid'
p1347
S'NP'
p1348
sS'drel'
p1349
S'k7t:VGNN2'
p1350
sS'chunktype'
p1351
S'head:NP'
p1352
ssbsg30
I00
sg31
I00
sg32
Nsg33
Nsg34
I0
sg35
I4
sg36
Nsg37
Nsg38
S'NN'
p1353
sg40
g1338
sg41
I00
sba(issf_api
Word
p1354
(dp1355
g6
I00
sg7
V\u0938\u0930\u0915\u093e\u0930
p1356
sg9
(issf_api
FeatureSet
p1357
(dp1358
g12
(dp1359
S'crefhead'
p1360
S'\xe0\xa4\xb8\xe0\xa4\xb0\xe0\xa4\x95\xe0\xa4\xbe\xe0\xa4\xb0:i15'
p1361
sS'posn'
p1362
S'30'
p1363
sS'name'
p1364
S'\xe0\xa4\xb8\xe0\xa4\xb0\xe0\xa4\x95\xe0\xa4\xbe\xe0\xa4\xb0'
p1365
sS'af'
p1366
S'\xe0\xa4\xb8\xe0\xa4\xb0\xe0\xa4\x95\xe0\xa4\xbe\xe0\xa4\xb0,n,f,sg,3,o,0_\xe0\xa4\xa6\xe0\xa5\x8d\xe0\xa4\xb5\xe0\xa4\xbe\xe0\xa4\xb0\xe0\xa4\xbe,0'
p1367
sS'chunkid'
p1368
S'NP2'
p1369
sS'creftype'
p1370
S'Coreference-Identity:i7'
p1371
sS'chunktype'
p1372
S'head:NP2'
p1373
sS'vpos'
p1374
S'vib_2'
p1375
sS'cref'
p1376
S'i15%1:t2'
p1377
sS'drel'
p1378
S'k1:VGNN2'
p1379
ssbsg30
I00
sg31
I00
sg32
Nsg33
Nsg34
I1
sg35
I4
sg36
Nsg37
Nsg38
S'NN'
p1380
sg40
g1357
sg41
I00
sba(issf_api
Word
p1381
(dp1382
g6
I00
sg7
V\u0926\u094d\u0935\u093e\u0930\u093e
p1383
sg9
(issf_api
FeatureSet
p1384
(dp1385
g12
(dp1386
S'posn'
p1387
S'40'
p1388
sS'name'
p1389
S'\xe0\xa4\xa6\xe0\xa5\x8d\xe0\xa4\xb5\xe0\xa4\xbe\xe0\xa4\xb0\xe0\xa4\xbe'
p1390
sS'drel'
p1391
S'lwg__psp:NP2'
p1392
sS'chunktype'
p1393
S'child:NP2'
p1394
sS'af'
p1395
S'\xe0\xa4\xa6\xe0\xa5\x8d\xe0\xa4\xb5\xe0\xa4\xbe\xe0\xa4\xb0\xe0\xa4\xbe,psp,,,,,,'
p1396
ssbsg30
I00
sg31
I00
sg32
Nsg33
Nsg34
I1
sg35
I4
sg36
Nsg37
Nsg38
S'PSP'
p1397
sg40
g1384
sg41
I00
sba(issf_api
Word
p1398
(dp1399
g6
I00
sg7
V\u0906\u0924\u094d\u092e\u0938\u092e\u0930\u094d\u092a\u0923
p1400
sg9
(issf_api
FeatureSet
p1401
(dp1402
g12
(dp1403
S'crefhead'
p1404
S'\xe0\xa4\x86\xe0\xa4\xa4\xe0\xa5\x8d\xe0\xa4\xae\xe0\xa4\xb8\xe0\xa4\xae\xe0\xa4\xb0\xe0\xa5\x8d\xe0\xa4\xaa\xe0\xa4\xa3:i16'
p1405
sS'posn'
p1406
S'50'
p1407
sS'name'
p1408
S'\xe0\xa4\x86\xe0\xa4\xa4\xe0\xa5\x8d\xe0\xa4\xae\xe0\xa4\xb8\xe0\xa4\xae\xe0\xa4\xb0\xe0\xa5\x8d\xe0\xa4\xaa\xe0\xa4\xa3'
p1409
sS'af'
p1410
S'\xe0\xa4\x86\xe0\xa4\xa4\xe0\xa5\x8d\xe0\xa4\xae\xe0\xa4\xb8\xe0\xa4\xae\xe0\xa4\xb0\xe0\xa5\x8d\xe0\xa4\xaa\xe0\xa4\xa3,n,m,sg,3,d,0,0'
p1411
sS'chunkid'
p1412
S'NP3'
p1413
sS'creftype'
p1414
S'Coreference-Identity:i13'
p1415
sS'chunktype'
p1416
S'head:NP3'
p1417
sS'cref'
p1418
S'i16%1:t4,i17%0:t3'
p1419
sS'drel'
p1420
S'pof:VGNN'
p1421
ssbsg30
I00
sg31
I00
sg32
Nsg33
Nsg34
I2
sg35
I4
sg36
Nsg37
Nsg38
S'NN'
p1422
sg40
g1401
sg41
I00
sba(issf_api
Word
p1423
(dp1424
g6
I00
sg7
V\u0915\u0930\u0928\u0947
p1425
sg9
(issf_api
FeatureSet
p1426
(dp1427
g12
(dp1428
S'posn'
p1429
S'60'
p1430
sS'name'
p1431
S'\xe0\xa4\x95\xe0\xa4\xb0\xe0\xa4\xa8\xe0\xa5\x87'
p1432
sS'af'
p1433
S'\xe0\xa4\x95\xe0\xa4\xb0,v,any,pl,any,o,\xe0\xa4\xa8\xe0\xa4\xbe_\xe0\xa4\xb5\xe0\xa4\xbe\xe0\xa4\xb2\xe0\xa4\xbe,nA'
p1434
sS'chunkid'
p1435
S'VGNN'
p1436
sS'drel'
p1437
S'nmod:NP4'
p1438
sS'chunktype'
p1439
S'head:VGNN'
p1440
sS'vpos'
p1441
S'tam_2'
p1442
sS'cref'
p1443
S'i17%0:t3'
p1444
ssbsg30
I00
sg31
I00
sg32
Nsg33
Nsg34
I3
sg35
I4
sg36
Nsg37
Nsg38
S'VM'
p1445
sg40
g1426
sg41
I00
sba(issf_api
Word
p1446
(dp1447
g6
I00
sg7
V\u0935\u093e\u0932\u0947
p1448
sg9
(issf_api
FeatureSet
p1449
(dp1450
g12
(dp1451
S'posn'
p1452
S'70'
p1453
sS'name'
p1454
S'\xe0\xa4\xb5\xe0\xa4\xbe\xe0\xa4\xb2\xe0\xa5\x87'
p1455
sS'af'
p1456
S'\xe0\xa4\xb5\xe0\xa4\xbe\xe0\xa4\xb2\xe0\xa4\xbe,psp,m,pl,,d,,'
p1457
sS'drel'
p1458
S'lwg__psp:VGNN'
p1459
sS'chunktype'
p1460
S'child:VGNN'
p1461
sS'cref'
p1462
S'i17%0:t3'
p1463
ssbsg30
I00
sg31
I00
sg32
Nsg33
Nsg34
I3
sg35
I4
sg36
Nsg37
Nsg38
S'PSP'
p1464
sg40
g1449
sg41
I00
sba(issf_api
Word
p1465
(dp1466
g6
I00
sg7
V\u092e\u093e\u0913\u0935\u093e\u0926\u0940
p1467
sg9
(issf_api
FeatureSet
p1468
(dp1469
g12
(dp1470
S'posn'
p1471
S'80'
p1472
sS'name'
p1473
S'\xe0\xa4\xae\xe0\xa4\xbe\xe0\xa4\x93\xe0\xa4\xb5\xe0\xa4\xbe\xe0\xa4\xa6\xe0\xa5\x80'
p1474
sS'af'
p1475
S'\xe0\xa4\xae\xe0\xa4\xbe\xe0\xa4\x93\xe0\xa4\xb5\xe0\xa4\xbe\xe0\xa4\xa6\xe0\xa5\x80,adj,any,any,,o,,'
p1476
sS'drel'
p1477
S'pof__cn:NP4'
p1478
sS'chunktype'
p1479
S'child:NP4'
p1480
sS'cref'
p1481
S'i17%0:t3'
p1482
ssbsg30
I00
sg31
I00
sg32
Nsg33
Nsg34
I4
sg35
I4
sg36
Nsg37
Nsg38
S'NNC'
p1483
sg40
g1468
sg41
I00
sba(issf_api
Word
p1484
(dp1485
g6
I00
sg7
V\u0909\u0917\u094d\u0930\u0935\u093e\u0926\u093f\u092f\u094b\u0902
p1486
sg9
(issf_api
FeatureSet
p1487
(dp1488
g12
(dp1489
S'crefhead'
p1490
S'\xe0\xa4\x89\xe0\xa4\x97\xe0\xa5\x8d\xe0\xa4\xb0\xe0\xa4\xb5\xe0\xa4\xbe\xe0\xa4\xa6\xe0\xa4\xbf\xe0\xa4\xaf\xe0\xa5\x8b\xe0\xa4\x82:i17'
p1491
sS'posn'
p1492
S'90'
p1493
sS'name'
p1494
S'\xe0\xa4\x89\xe0\xa4\x97\xe0\xa5\x8d\xe0\xa4\xb0\xe0\xa4\xb5\xe0\xa4\xbe\xe0\xa4\xa6\xe0\xa4\xbf\xe0\xa4\xaf\xe0\xa5\x8b\xe0\xa4\x82'
p1495
sS'af'
p1496
S'\xe0\xa4\x89\xe0\xa4\x97\xe0\xa5\x8d\xe0\xa4\xb0\xe0\xa4\xb5\xe0\xa4\xbe\xe0\xa4\xa6\xe0\xa5\x80,n,m,pl,3,o,0_\xe0\xa4\x95\xe0\xa5\x8b,0'
p1497
sS'chunkid'
p1498
S'NP4'
p1499
sS'creftype'
p1500
S'Coreference-Identity:i12'
p1501
sS'chunktype'
p1502
S'head:NP4'
p1503
sS'vpos'
p1504
S'vib_3'
p1505
sS'cref'
p1506
S'i17%1:t3'
p1507
sS'drel'
p1508
S'k4:VGNN2'
p1509
ssbsg30
I00
sg31
I00
sg32
Nsg33
Nsg34
I4
sg35
I4
sg36
Nsg37
Nsg38
S'NN'
p1510
sg40
g1487
sg41
I00
sba(issf_api
Word
p1511
(dp1512
g6
I00
sg7
V\u0915\u094b
p1513
sg9
(issf_api
FeatureSet
p1514
(dp1515
g12
(dp1516
S'posn'
p1517
S'100'
p1518
sS'name'
p1519
S'\xe0\xa4\x95\xe0\xa5\x8b'
p1520
sS'drel'
p1521
S'lwg__psp:NP4'
p1522
sS'chunktype'
p1523
S'child:NP4'
p1524
sS'af'
p1525
S'\xe0\xa4\x95\xe0\xa5\x8b,psp,,,,,,'
p1526
ssbsg30
I00
sg31
I00
sg32
Nsg33
Nsg34
I4
sg35
I4
sg36
Nsg37
Nsg38
S'PSP'
p1527
sg40
g1514
sg41
I00
sba(issf_api
Word
p1528
(dp1529
g6
I00
sg7
V\u0906\u092e
p1530
sg9
(issf_api
FeatureSet
p1531
(dp1532
g12
(dp1533
S'posn'
p1534
S'110'
p1535
sS'name'
p1536
S'\xe0\xa4\x86\xe0\xa4\xae'
p1537
sS'drel'
p1538
S'nmod__adj:NP5'
p1539
sS'chunktype'
p1540
S'child:NP5'
p1541
sS'af'
p1542
S'\xe0\xa4\x86\xe0\xa4\xae,adj,any,any,,d,,'
p1543
ssbsg30
I00
sg31
I00
sg32
Nsg33
Nsg34
I5
sg35
I4
sg36
Nsg37
Nsg38
S'JJ'
p1544
sg40
g1531
sg41
I00
sba(issf_api
Word
p1545
(dp1546
g6
I00
sg7
V\u092e\u093e\u092b\u0940
p1547
sg9
(issf_api
FeatureSet
p1548
(dp1549
g12
(dp1550
S'posn'
p1551
S'120'
p1552
sS'name'
p1553
S'\xe0\xa4\xae\xe0\xa4\xbe\xe0\xa4\xab\xe0\xa5\x80'
p1554
sS'af'
p1555
S'\xe0\xa4\xae\xe0\xa4\xbe\xe0\xa4\xab\xe0\xa5\x80,n,f,sg,3,d,0,0'
p1556
sS'chunkid'
p1557
S'NP5'
p1558
sS'drel'
p1559
S'pof:VGNN2'
p1560
sS'chunktype'
p1561
S'head:NP5'
p1562
ssbsg30
I00
sg31
I00
sg32
Nsg33
Nsg34
I5
sg35
I4
sg36
Nsg37
Nsg38
S'NN'
p1563
sg40
g1548
sg41
I00
sba(issf_api
Word
p1564
(dp1565
g6
I00
sg7
V\u0926\u093f\u090f
p1566
sg9
(issf_api
FeatureSet
p1567
(dp1568
g12
(dp1569
S'posn'
p1570
S'130'
p1571
sS'name'
p1572
S'\xe0\xa4\xa6\xe0\xa4\xbf\xe0\xa4\x8f'
p1573
sS'af'
p1574
S'\xe0\xa4\xa6\xe0\xa5\x87,v,any,sg,any,,\xe0\xa4\xaf\xe0\xa4\xbe_\xe0\xa4\x9c\xe0\xa4\xbe+\xe0\xa4\xa8\xe0\xa4\xbe_\xe0\xa4\x95\xe0\xa4\xbe,yA'
p1575
sS'chunkid'
p1576
S'VGNN2'
p1577
sS'drel'
p1578
S'r6:NP6'
p1579
sS'vpos'
p1580
S'tam_2_3'
p1581
sS'chunktype'
p1582
S'head:VGNN2'
p1583
ssbsg30
I00
sg31
I00
sg32
Nsg33
Nsg34
I6
sg35
I4
sg36
Nsg37
Nsg38
S'VM'
p1584
sg40
g1567
sg41
I00
sba(issf_api
Word
p1585
(dp1586
g6
I00
sg7
V\u091c\u093e\u0928\u0947
p1587
sg9
(issf_api
FeatureSet
p1588
(dp1589
g12
(dp1590
S'posn'
p1591
S'140'
p1592
sS'name'
p1593
S'\xe0\xa4\x9c\xe0\xa4\xbe\xe0\xa4\xa8\xe0\xa5\x87'
p1594
sS'drel'
p1595
S'lwg__vaux:VGNN2'
p1596
sS'chunktype'
p1597
S'child:VGNN2'
p1598
sS'af'
p1599
S'\xe0\xa4\x9c\xe0\xa4\xbe,v,any,any,any,o,\xe0\xa4\xa8\xe0\xa4\xbe,nA'
p1600
ssbsg30
I00
sg31
I00
sg32
Nsg33
Nsg34
I6
sg35
I4
sg36
Nsg37
Nsg38
S'VAUX'
p1601
sg40
g1588
sg41
I00
sba(issf_api
Word
p1602
(dp1603
g6
I00
sg7
V\u0915\u0940
p1604
sg9
(issf_api
FeatureSet
p1605
(dp1606
g12
(dp1607
S'posn'
p1608
S'150'
p1609
sS'name'
p1610
S'\xe0\xa4\x95\xe0\xa5\x80'
p1611
sS'drel'
p1612
S'lwg__psp:VGNN2'
p1613
sS'chunktype'
p1614
S'child:VGNN2'
p1615
sS'af'
p1616
S'\xe0\xa4\x95\xe0\xa4\xbe,psp,f,sg,,o,,'
p1617
ssbsg30
I00
sg31
I00
sg32
Nsg33
Nsg34
I6
sg35
I4
sg36
Nsg37
Nsg38
S'PSP'
p1618
sg40
g1605
sg41
I00
sba(issf_api
Word
p1619
(dp1620
g6
I00
sg7
V\u0918\u094b\u0937\u0923\u093e
p1621
sg9
(issf_api
FeatureSet
p1622
(dp1623
g12
(dp1624
S'posn'
p1625
S'160'
p1626
sS'name'
p1627
S'\xe0\xa4\x98\xe0\xa5\x8b\xe0\xa4\xb7\xe0\xa4\xa3\xe0\xa4\xbe'
p1628
sS'af'
p1629
S'\xe0\xa4\x98\xe0\xa5\x8b\xe0\xa4\xb7\xe0\xa4\xa3\xe0\xa4\xbe,n,f,sg,3,o,0_\xe0\xa4\x95\xe0\xa5\x87_\xe0\xa4\xac\xe0\xa4\xbe\xe0\xa4\xa6_\xe0\xa4\xb8\xe0\xa5\x87,0'
p1630
sS'chunkid'
p1631
S'NP6'
p1632
sS'drel'
p1633
S'k7t:VGF'
p1634
sS'vpos'
p1635
S'vib_2_3_4'
p1636
sS'chunktype'
p1637
S'head:NP6'
p1638
ssbsg30
I00
sg31
I00
sg32
Nsg33
Nsg34
I7
sg35
I4
sg36
Nsg37
Nsg38
S'NN'
p1639
sg40
g1622
sg41
I00
sba(issf_api
Word
p1640
(dp1641
g6
I00
sg7
V\u0915\u0947
p1642
sg9
(issf_api
FeatureSet
p1643
(dp1644
g12
(dp1645
S'posn'
p1646
S'170'
p1647
sS'name'
p1648
S'\xe0\xa4\x95\xe0\xa5\x87'
p1649
sS'drel'
p1650
S'lwg__psp:NP6'
p1651
sS'chunktype'
p1652
S'child:NP6'
p1653
sS'af'
p1654
S'\xe0\xa4\x95\xe0\xa5\x87,psp,,,,,,'
p1655
ssbsg30
I00
sg31
I00
sg32
Nsg33
Nsg34
I7
sg35
I4
sg36
Nsg37
Nsg38
S'PSP'
p1656
sg40
g1643
sg41
I00
sba(issf_api
Word
p1657
(dp1658
g6
I00
sg7
V\u092c\u093e\u0926
p1659
sg9
(issf_api
FeatureSet
p1660
(dp1661
g12
(dp1662
S'posn'
p1663
S'180'
p1664
sS'name'
p1665
S'\xe0\xa4\xac\xe0\xa4\xbe\xe0\xa4\xa6'
p1666
sS'drel'
p1667
S'lwg__psp:NP6'
p1668
sS'chunktype'
p1669
S'child:NP6'
p1670
sS'af'
p1671
S'\xe0\xa4\xac\xe0\xa4\xbe\xe0\xa4\xa6,nst,m,sg,3,o,,'
p1672
ssbsg30
I00
sg31
I00
sg32
Nsg33
Nsg34
I7
sg35
I4
sg36
Nsg37
Nsg38
S'NST'
p1673
sg40
g1660
sg41
I00
sba(issf_api
Word
p1674
(dp1675
g6
I00
sg7
V\u0938\u0947
p1676
sg9
(issf_api
FeatureSet
p1677
(dp1678
g12
(dp1679
S'posn'
p1680
S'190'
p1681
sS'name'
p1682
S'\xe0\xa4\xb8\xe0\xa5\x87'
p1683
sS'drel'
p1684
S'lwg__psp:NP6'
p1685
sS'chunktype'
p1686
S'child:NP6'
p1687
sS'af'
p1688
S'\xe0\xa4\xb8\xe0\xa5\x87,psp,,,,,,'
p1689
ssbsg30
I00
sg31
I00
sg32
Nsg33
Nsg34
I7
sg35
I4
sg36
Nsg37
Nsg38
S'PSP'
p1690
sg40
g1677
sg41
I00
sba(issf_api
Word
p1691
(dp1692
g6
I00
sg7
V\u0967\u0966\u096c\u0967
p1693
sg9
(issf_api
FeatureSet
p1694
(dp1695
g12
(dp1696
S'posn'
p1697
S'200'
p1698
sS'name'
p1699
S'\xe0\xa5\xa7\xe0\xa5\xa6\xe0\xa5\xac\xe0\xa5\xa7'
p1700
sS'drel'
p1701
S'nmod__adj:NP7'
p1702
sS'chunktype'
p1703
S'child:NP7'
p1704
sS'af'
p1705
S'\xe0\xa5\xa7\xe0\xa5\xa6\xe0\xa5\xac\xe0\xa5\xa7,num,any,any,,any,,'
p1706
ssbsg30
I00
sg31
I00
sg32
Nsg33
Nsg34
I8
sg35
I4
sg36
Nsg37
Nsg38
S'QC'
p1707
sg40
g1694
sg41
I00
sba(issf_api
Word
p1708
(dp1709
g6
I00
sg7
V\u0909\u0917\u094d\u0930\u0935\u093e\u0926\u093f\u092f\u094b\u0902
p1710
sg9
(issf_api
FeatureSet
p1711
(dp1712
g12
(dp1713
S'crefhead'
p1714
S'\xe0\xa4\x89\xe0\xa4\x97\xe0\xa5\x8d\xe0\xa4\xb0\xe0\xa4\xb5\xe0\xa4\xbe\xe0\xa4\xa6\xe0\xa4\xbf\xe0\xa4\xaf\xe0\xa5\x8b\xe0\xa4\x82:i18'
p1715
sS'posn'
p1716
S'210'
p1717
sS'name'
p1718
S'\xe0\xa4\x89\xe0\xa4\x97\xe0\xa5\x8d\xe0\xa4\xb0\xe0\xa4\xb5\xe0\xa4\xbe\xe0\xa4\xa6\xe0\xa4\xbf\xe0\xa4\xaf\xe0\xa5\x8b\xe0\xa4\x822'
p1719
sS'af'
p1720
S'\xe0\xa4\x89\xe0\xa4\x97\xe0\xa5\x8d\xe0\xa4\xb0\xe0\xa4\xb5\xe0\xa4\xbe\xe0\xa4\xa6\xe0\xa5\x80,n,m,pl,3,o,0_\xe0\xa4\xa8\xe0\xa5\x87,0'
p1721
sS'chunkid'
p1722
S'NP7'
p1723
sS'creftype'
p1724
S'Coreference-Identity:i17'
p1725
sS'chunktype'
p1726
S'head:NP7'
p1727
sS'vpos'
p1728
S'vib_3'
p1729
sS'cref'
p1730
S'i18%1:t3,i19%0:t7'
p1731
sS'drel'
p1732
S'k1:VGF'
p1733
ssbsg30
I00
sg31
I00
sg32
Nsg33
Nsg34
I8
sg35
I4
sg36
Nsg37
Nsg38
S'NN'
p1734
sg40
g1711
sg41
I00
sba(issf_api
Word
p1735
(dp1736
g6
I00
sg7
V\u0928\u0947
p1737
sg9
(issf_api
FeatureSet
p1738
(dp1739
g12
(dp1740
S'posn'
p1741
S'220'
p1742
sS'name'
p1743
S'\xe0\xa4\xa8\xe0\xa5\x87'
p1744
sS'af'
p1745
S'\xe0\xa4\xa8\xe0\xa5\x87,psp,,,,,,'
p1746
sS'drel'
p1747
S'lwg__psp:NP7'
p1748
sS'chunktype'
p1749
S'child:NP7'
p1750
sS'cref'
p1751
S'i19%0:t7'
p1752
ssbsg30
I00
sg31
I00
sg32
Nsg33
Nsg34
I8
sg35
I4
sg36
Nsg37
Nsg38
S'PSP'
p1753
sg40
g1738
sg41
I00
sba(issf_api
Word
p1754
(dp1755
g6
I00
sg7
V\u0938\u094d\u0925\u093e\u0928\u0940\u092f
p1756
sg9
(issf_api
FeatureSet
p1757
(dp1758
g12
(dp1759
S'posn'
p1760
S'230'
p1761
sS'name'
p1762
S'\xe0\xa4\xb8\xe0\xa5\x8d\xe0\xa4\xa5\xe0\xa4\xbe\xe0\xa4\xa8\xe0\xa5\x80\xe0\xa4\xaf'
p1763
sS'af'
p1764
S'\xe0\xa4\xb8\xe0\xa5\x8d\xe0\xa4\xa5\xe0\xa4\xbe\xe0\xa4\xa8\xe0\xa5\x80\xe0\xa4\xaf,adj,any,any,,o,,'
p1765
sS'drel'
p1766
S'nmod__adj:NP8'
p1767
sS'chunktype'
p1768
S'child:NP8'
p1769
sS'cref'
p1770
S'i19%0:t7'
p1771
ssbsg30
I00
sg31
I00
sg32
Nsg33
Nsg34
I9
sg35
I4
sg36
Nsg37
Nsg38
S'JJ'
p1772
sg40
g1757
sg41
I00
sba(issf_api
Word
p1773
(dp1774
g6
I00
sg7
V\u092a\u094d\u0930\u0936\u093e\u0938\u0928
p1775
sg9
(issf_api
FeatureSet
p1776
(dp1777
g12
(dp1778
S'posn'
p1779
S'240'
p1780
sS'name'
p1781
S'\xe0\xa4\xaa\xe0\xa5\x8d\xe0\xa4\xb0\xe0\xa4\xb6\xe0\xa4\xbe\xe0\xa4\xb8\xe0\xa4\xa8'
p1782
sS'af'
p1783
S'\xe0\xa4\xaa\xe0\xa5\x8d\xe0\xa4\xb0\xe0\xa4\xb6\xe0\xa4\xbe\xe0\xa4\xb8\xe0\xa4\xa8,n,m,sg,3,o,0,0'
p1784
sS'chunkid'
p1785
S'NP8'
p1786
sS'drel'
p1787
S'ccof:CCP'
p1788
sS'chunktype'
p1789
S'head:NP8'
p1790
sS'cref'
p1791
S'i19%0:t7'
p1792
ssbsg30
I00
sg31
I00
sg32
Nsg33
Nsg34
I9
sg35
I4
sg36
Nsg37
Nsg38
S'NN'
p1793
sg40
g1776
sg41
I00
sba(issf_api
Word
p1794
(dp1795
g6
I00
sg7
V\u0935
p1796
sg9
(issf_api
FeatureSet
p1797
(dp1798
g12
(dp1799
S'posn'
p1800
S'250'
p1801
sS'name'
p1802
S'\xe0\xa4\xb5'
p1803
sS'af'
p1804
S'\xe0\xa4\xb5,avy,,,,,,'
p1805
sS'chunkid'
p1806
S'CCP'
p1807
sS'drel'
p1808
S'k7:VGF'
p1809
sS'chunktype'
p1810
S'head:CCP'
p1811
sS'cref'
p1812
S'i19%0:t7'
p1813
ssbsg30
I00
sg31
I00
sg32
Nsg33
Nsg34
I10
sg35
I4
sg36
Nsg37
Nsg38
S'CC'
p1814
sg40
g1797
sg41
I00
sba(issf_api
Word
p1815
(dp1816
g6
I00
sg7
V\u0938\u0941\u0930\u0915\u094d\u0937\u093e\u092c\u0932\u094b\u0902
p1817
sg9
(issf_api
FeatureSet
p1818
(dp1819
g12
(dp1820
S'posn'
p1821
S'260'
p1822
sS'name'
p1823
S'\xe0\xa4\xb8\xe0\xa5\x81\xe0\xa4\xb0\xe0\xa4\x95\xe0\xa5\x8d\xe0\xa4\xb7\xe0\xa4\xbe\xe0\xa4\xac\xe0\xa4\xb2\xe0\xa5\x8b\xe0\xa4\x82'
p1824
sS'af'
p1825
S'\xe0\xa4\xb8\xe0\xa5\x81\xe0\xa4\xb0\xe0\xa4\x95\xe0\xa5\x8d\xe0\xa4\xb7\xe0\xa4\xbe\xe0\xa4\xac\xe0\xa4\xb2,n,m,pl,3,o,0_\xe0\xa4\x95\xe0\xa5\x87_\xe0\xa4\xb8\xe0\xa4\xbe\xe0\xa4\xae\xe0\xa4\xa8\xe0\xa5\x87,0'
p1826
sS'chunkid'
p1827
S'NP9'
p1828
sS'drel'
p1829
S'ccof:CCP'
p1830
sS'chunktype'
p1831
S'head:NP9'
p1832
sS'vpos'
p1833
S'vib_2_3'
p1834
sS'cref'
p1835
S'i19%0:t7'
p1836
ssbsg30
I00
sg31
I00
sg32
Nsg33
Nsg34
I11
sg35
I4
sg36
Nsg37
Nsg38
S'NN'
p1837
sg40
g1818
sg41
I00
sba(issf_api
Word
p1838
(dp1839
g6
I00
sg7
V\u0915\u0947
p1840
sg9
(issf_api
FeatureSet
p1841
(dp1842
g12
(dp1843
S'posn'
p1844
S'270'
p1845
sS'name'
p1846
S'\xe0\xa4\x95\xe0\xa5\x872'
p1847
sS'af'
p1848
S'\xe0\xa4\x95\xe0\xa5\x87,psp,,,,,,'
p1849
sS'drel'
p1850
S'lwg__psp:NP9'
p1851
sS'chunktype'
p1852
S'child:NP9'
p1853
sS'cref'
p1854
S'i19%0:t7'
p1855
ssbsg30
I00
sg31
I00
sg32
Nsg33
Nsg34
I11
sg35
I4
sg36
Nsg37
Nsg38
S'PSP'
p1856
sg40
g1841
sg41
I00
sba(issf_api
Word
p1857
(dp1858
g6
I00
sg7
V\u0938\u093e\u092e\u0928\u0947
p1859
sg9
(issf_api
FeatureSet
p1860
(dp1861
g12
(dp1862
S'posn'
p1863
S'280'
p1864
sS'name'
p1865
S'\xe0\xa4\xb8\xe0\xa4\xbe\xe0\xa4\xae\xe0\xa4\xa8\xe0\xa5\x87'
p1866
sS'af'
p1867
S'\xe0\xa4\xb8\xe0\xa4\xbe\xe0\xa4\xae\xe0\xa4\xa8\xe0\xa5\x87,nst,m,sg,3,d,,'
p1868
sS'drel'
p1869
S'lwg__psp:NP9'
p1870
sS'chunktype'
p1871
S'child:NP9'
p1872
sS'cref'
p1873
S'i19%0:t7'
p1874
ssbsg30
I00
sg31
I00
sg32
Nsg33
Nsg34
I11
sg35
I4
sg36
Nsg37
Nsg38
S'NST'
p1875
sg40
g1860
sg41
I00
sba(issf_api
Word
p1876
(dp1877
g6
I00
sg7
V\u0939\u0925\u093f\u092f\u093e\u0930
p1878
sg9
(issf_api
FeatureSet
p1879
(dp1880
g12
(dp1881
S'posn'
p1882
S'290'
p1883
sS'name'
p1884
S'\xe0\xa4\xb9\xe0\xa4\xa5\xe0\xa4\xbf\xe0\xa4\xaf\xe0\xa4\xbe\xe0\xa4\xb0'
p1885
sS'af'
p1886
S'\xe0\xa4\xb9\xe0\xa4\xa5\xe0\xa4\xbf\xe0\xa4\xaf\xe0\xa4\xbe\xe0\xa4\xb0,n,m,sg,3,d,0,0'
p1887
sS'chunkid'
p1888
S'NP10'
p1889
sS'drel'
p1890
S'pof:VGF'
p1891
sS'chunktype'
p1892
S'head:NP10'
p1893
sS'cref'
p1894
S'i19%0:t7'
p1895
ssbsg30
I00
sg31
I00
sg32
Nsg33
Nsg34
I12
sg35
I4
sg36
Nsg37
Nsg38
S'NN'
p1896
sg40
g1879
sg41
I00
sba(issf_api
Word
p1897
(dp1898
g6
I00
sg7
V\u0921\u093e\u0932\u0947
p1899
sg9
(issf_api
FeatureSet
p1900
(dp1901
g12
(dp1902
S'crefhead'
p1903
S'\xe0\xa4\xa1\xe0\xa4\xbe\xe0\xa4\xb2\xe0\xa5\x87:i19'
p1904
sS'posn'
p1905
S'300'
p1906
sS'name'
p1907
S'\xe0\xa4\xa1\xe0\xa4\xbe\xe0\xa4\xb2\xe0\xa5\x87'
p1908
sS'af'
p1909
S'\xe0\xa4\xa1\xe0\xa4\xbe\xe0\xa4\xb2,v,m,pl,3,,\xe0\xa4\xaf\xe0\xa4\xbe_\xe0\xa4\xb9\xe0\xa5\x88,yA'
p1910
sS'chunkid'
p1911
S'VGF'
p1912
sS'stype'
p1913
S'declarative'
p1914
sS'chunktype'
p1915
S'head:VGF'
p1916
sS'voicetype'
p1917
S'active'
p1918
sS'vpos'
p1919
S'tam_2'
p1920
sS'cref'
p1921
S'i19%1:t7'
p1922
ssbsg30
I00
sg31
I00
sg32
Nsg33
Nsg34
I13
sg35
I4
sg36
Nsg37
Nsg38
S'VM'
p1923
sg40
g1900
sg41
I00
sba(issf_api
Word
p1924
(dp1925
g6
I00
sg7
V\u0939\u0948\u0902
p1926
sg9
(issf_api
FeatureSet
p1927
(dp1928
g12
(dp1929
S'posn'
p1930
S'310'
p1931
sS'name'
p1932
S'\xe0\xa4\xb9\xe0\xa5\x88\xe0\xa4\x82'
p1933
sS'drel'
p1934
S'lwg__vaux:VGF'
p1935
sS'chunktype'
p1936
S'child:VGF'
p1937
sS'af'
p1938
S'\xe0\xa4\xb9\xe0\xa5\x88,v,any,pl,3,,\xe0\xa4\xb9\xe0\xa5\x88,hE'
p1939
ssbsg30
I00
sg31
I00
sg32
Nsg33
Nsg34
I13
sg35
I4
sg36
Nsg37
Nsg38
S'VAUX'
p1940
sg40
g1927
sg41
I00
sba(issf_api
Word
p1941
(dp1942
g6
I00
sg7
V\u0964
p1943
sg9
(issf_api
FeatureSet
p1944
(dp1945
g12
(dp1946
S'posn'
p1947
S'320'
p1948
sS'name'
p1949
S'\xe0\xa5\xa4'
p1950
sS'af'
p1951
S'\xe0\xa5\xa4,punc,,,,,,'
p1952
sS'chunkid'
p1953
S'BLK'
p1954
sS'drel'
p1955
S'rsym:VGF'
p1956
sS'chunktype'
p1957
S'head:BLK'
p1958
ssbsg30
I00
sg31
I00
sg32
Nsg33
Nsg34
I14
sg35
I4
sg36
Nsg37
Nsg38
S'SYM'
p1959
sg40
g1944
sg41
I00
sba(issf_api
Word
p1960
(dp1961
g6
I00
sg7
V\u0907\u0938\u0915\u0947
p1962
sg9
(issf_api
FeatureSet
p1963
(dp1964
g12
(dp1965
S'crefhead'
p1966
S'\xe0\xa4\x87\xe0\xa4\xb8\xe0\xa4\x95\xe0\xa5\x87:i20'
p1967
sS'posn'
p1968
S'10'
p1969
sS'name'
p1970
S'\xe0\xa4\x87\xe0\xa4\xb8\xe0\xa4\x95\xe0\xa5\x87'
p1971
sS'af'
p1972
S'\xe0\xa4\xaf\xe0\xa4\xb9,pn,any,sg,3,o,0_\xe0\xa4\xb2\xe0\xa4\xbf\xe0\xa4\x8f,ke'
p1973
sS'chunkid'
p1974
S'NP'
p1975
sS'creftype'
p1976
S'anaphora-E:i19'
p1977
sS'chunktype'
p1978
S'head:NP'
p1979
sS'crefchainhead'
p1980
S'i20:t7'
p1981
sS'vpos'
p1982
S'vib_2'
p1983
sS'cref'
p1984
S'i20%1:t7'
p1985
sS'drel'
p1986
S'rt:VGNF'
p1987
ssbsg30
I00
sg31
I00
sg32
Nsg33
Nsg34
I0
sg35
I5
sg36
Nsg37
Nsg38
S'PRP'
p1988
sg40
g1963
sg41
I00
sba(issf_api
Word
p1989
(dp1990
g6
I00
sg7
V\u0932\u093f\u090f
p1991
sg9
(issf_api
FeatureSet
p1992
(dp1993
g12
(dp1994
S'posn'
p1995
S'20'
p1996
sS'name'
p1997
S'\xe0\xa4\xb2\xe0\xa4\xbf\xe0\xa4\x8f'
p1998
sS'drel'
p1999
S'lwg__psp:NP'
p2000
sS'chunktype'
p2001
S'child:NP'
p2002
sS'af'
p2003
S'\xe0\xa4\xb2\xe0\xa4\xbf\xe0\xa4\x8f,psp,,,,,,'
p2004
ssbsg30
I00
sg31
I00
sg32
Nsg33
Nsg34
I0
sg35
I5
sg36
Nsg37
Nsg38
S'PSP'
p2005
sg40
g1992
sg41
I00
sba(issf_api
Word
p2006
(dp2007
g6
I00
sg7
V\u092e\u093e\u0913\u0935\u093e\u0926\u093f\u092f\u094b\u0902
p2008
sg9
(issf_api
FeatureSet
p2009
(dp2010
g12
(dp2011
S'crefhead'
p2012
S'\xe0\xa4\xae\xe0\xa4\xbe\xe0\xa4\x93\xe0\xa4\xb5\xe0\xa4\xbe\xe0\xa4\xa6\xe0\xa4\xbf\xe0\xa4\xaf\xe0\xa5\x8b\xe0\xa4\x82:i21'
p2013
sS'posn'
p2014
S'30'
p2015
sS'name'
p2016
S'\xe0\xa4\xae\xe0\xa4\xbe\xe0\xa4\x93\xe0\xa4\xb5\xe0\xa4\xbe\xe0\xa4\xa6\xe0\xa4\xbf\xe0\xa4\xaf\xe0\xa5\x8b\xe0\xa4\x82'
p2017
sS'af'
p2018
S'\xe0\xa4\xae\xe0\xa4\xbe\xe0\xa4\x93\xe0\xa4\xb5\xe0\xa4\xbe\xe0\xa4\xa6\xe0\xa5\x80,n,m,pl,3,o,0_\xe0\xa4\x95\xe0\xa5\x8b,0'
p2019
sS'chunkid'
p2020
S'NP2'
p2021
sS'creftype'
p2022
S'Coreference-Noun-Noun:i18'
p2023
sS'chunktype'
p2024
S'head:NP2'
p2025
sS'vpos'
p2026
S'vib_2'
p2027
sS'cref'
p2028
S'i21%1:t3'
p2029
sS'drel'
p2030
S'k1:VGNN'
p2031
ssbsg30
I00
sg31
I00
sg32
Nsg33
Nsg34
I1
sg35
I5
sg36
Nsg37
Nsg38
S'NN'
p2032
sg40
g2009
sg41
I00
sba(issf_api
Word
p2033
(dp2034
g6
I00
sg7
V\u0915\u094b
p2035
sg9
(issf_api
FeatureSet
p2036
(dp2037
g12
(dp2038
S'posn'
p2039
S'40'
p2040
sS'name'
p2041
S'\xe0\xa4\x95\xe0\xa5\x8b'
p2042
sS'drel'
p2043
S'lwg__psp:NP2'
p2044
sS'chunktype'
p2045
S'child:NP2'
p2046
sS'af'
p2047
S'\xe0\xa4\x95\xe0\xa5\x8b,psp,,,,,,'
p2048
ssbsg30
I00
sg31
I00
sg32
Nsg33
Nsg34
I1
sg35
I5
sg36
Nsg37
Nsg38
S'PSP'
p2049
sg40
g2036
sg41
I00
sba(issf_api
Word
p2050
(dp2051
g6
I00
sg7
V\u0909\u0917\u094d\u0930\u0935\u093e\u0926\u0940
p2052
sg9
(issf_api
FeatureSet
p2053
(dp2054
g12
(dp2055
S'posn'
p2056
S'50'
p2057
sS'name'
p2058
S'\xe0\xa4\x89\xe0\xa4\x97\xe0\xa5\x8d\xe0\xa4\xb0\xe0\xa4\xb5\xe0\xa4\xbe\xe0\xa4\xa6\xe0\xa5\x80'
p2059
sS'drel'
p2060
S'nmod__adj:NP3'
p2061
sS'chunktype'
p2062
S'child:NP3'
p2063
sS'af'
p2064
S'\xe0\xa4\x89\xe0\xa4\x97\xe0\xa5\x8d\xe0\xa4\xb0\xe0\xa4\xb5\xe0\xa4\xbe\xe0\xa4\xa6\xe0\xa5\x80,adj,any,any,,o,,'
p2065
ssbsg30
I00
sg31
I00
sg32
Nsg33
Nsg34
I2
sg35
I5
sg36
Nsg37
Nsg38
S'JJ'
p2066
sg40
g2053
sg41
I00
sba(issf_api
Word
p2067
(dp2068
g6
I00
sg7
V\u0917\u0924\u093f\u0935\u093f\u0927\u093f\u092f\u094b\u0902
p2069
sg9
(issf_api
FeatureSet
p2070
(dp2071
g12
(dp2072
S'posn'
p2073
S'60'
p2074
sS'name'
p2075
S'\xe0\xa4\x97\xe0\xa4\xa4\xe0\xa4\xbf\xe0\xa4\xb5\xe0\xa4\xbf\xe0\xa4\xa7\xe0\xa4\xbf\xe0\xa4\xaf\xe0\xa5\x8b\xe0\xa4\x82'
p2076
sS'af'
p2077
S'\xe0\xa4\x97\xe0\xa4\xa4\xe0\xa4\xbf\xe0\xa4\xb5\xe0\xa4\xbf\xe0\xa4\xa7\xe0\xa4\xbf,n,f,pl,3,o,0_\xe0\xa4\x95\xe0\xa5\x8b,0'
p2078
sS'chunkid'
p2079
S'NP3'
p2080
sS'drel'
p2081
S'k2:VGNF'
p2082
sS'vpos'
p2083
S'vib_3'
p2084
sS'chunktype'
p2085
S'head:NP3'
p2086
ssbsg30
I00
sg31
I00
sg32
Nsg33
Nsg34
I2
sg35
I5
sg36
Nsg37
Nsg38
S'NN'
p2087
sg40
g2070
sg41
I00
sba(issf_api
Word
p2088
(dp2089
g6
I00
sg7
V\u0915\u094b
p2090
sg9
(issf_api
FeatureSet
p2091
(dp2092
g12
(dp2093
S'posn'
p2094
S'70'
p2095
sS'name'
p2096
S'\xe0\xa4\x95\xe0\xa5\x8b2'
p2097
sS'drel'
p2098
S'lwg__psp:NP3'
p2099
sS'chunktype'
p2100
S'child:NP3'
p2101
sS'af'
p2102
S'\xe0\xa4\x95\xe0\xa5\x8b,psp,,,,,,'
p2103
ssbsg30
I00
sg31
I00
sg32
Nsg33
Nsg34
I2
sg35
I5
sg36
Nsg37
Nsg38
S'PSP'
p2104
sg40
g2091
sg41
I00
sba(issf_api
Word
p2105
(dp2106
g6
I00
sg7
V\u091b\u094b\u0921\u093c\u0915\u0930
p2107
sg9
(issf_api
FeatureSet
p2108
(dp2109
g12
(dp2110
S'posn'
p2111
S'80'
p2112
sS'name'
p2113
S'\xe0\xa4\x9b\xe0\xa5\x8b\xe0\xa4\xa1\xe0\xa4\xbc\xe0\xa4\x95\xe0\xa4\xb0'
p2114
sS'af'
p2115
S'\xe0\xa4\x9b\xe0\xa5\x8b\xe0\xa4\xa1,v,any,any,any,,\xe0\xa4\x95\xe0\xa4\xb0,kara'
p2116
sS'chunkid'
p2117
S'VGNF'
p2118
sS'drel'
p2119
S'vmod:VGF'
p2120
sS'chunktype'
p2121
S'head:VGNF'
p2122
ssbsg30
I00
sg31
I00
sg32
Nsg33
Nsg34
I3
sg35
I5
sg36
Nsg37
Nsg38
S'VM'
p2123
sg40
g2108
sg41
I00
sba(issf_api
Word
p2124
(dp2125
g6
I00
sg7
V\u0930\u093e\u0937\u094d\u091f\u094d\u0930
p2126
sg9
(issf_api
FeatureSet
p2127
(dp2128
g12
(dp2129
S'crefhead'
p2130
S'\xe0\xa4\xb0\xe0\xa4\xbe\xe0\xa4\xb7\xe0\xa5\x8d\xe0\xa4\x9f\xe0\xa5\x8d\xe0\xa4\xb0:i22'
p2131
sS'posn'
p2132
S'90'
p2133
sS'name'
p2134
S'\xe0\xa4\xb0\xe0\xa4\xbe\xe0\xa4\xb7\xe0\xa5\x8d\xe0\xa4\x9f\xe0\xa5\x8d\xe0\xa4\xb0'
p2135
sS'af'
p2136
S'\xe0\xa4\xb0\xe0\xa4\xbe\xe0\xa4\xb7\xe0\xa5\x8d\xe0\xa4\x9f\xe0\xa5\x8d\xe0\xa4\xb0,n,m,sg,3,o,0_\xe0\xa4\x95\xe0\xa4\xbe,0'
p2137
sS'chunkid'
p2138
S'NP4'
p2139
sS'creftype'
p2140
S'Coreference-InferedRelation:i14'
p2141
sS'chunktype'
p2142
S'head:NP4'
p2143
sS'vpos'
p2144
S'vib_2'
p2145
sS'cref'
p2146
S'i22%1:t1'
p2147
sS'drel'
p2148
S'r6:NP5'
p2149
ssbsg30
I00
sg31
I00
sg32
Nsg33
Nsg34
I4
sg35
I5
sg36
Nsg37
Nsg38
S'NN'
p2150
sg40
g2127
sg41
I00
sba(issf_api
Word
p2151
(dp2152
g6
I00
sg7
V\u0915\u0940
p2153
sg9
(issf_api
FeatureSet
p2154
(dp2155
g12
(dp2156
S'posn'
p2157
S'100'
p2158
sS'name'
p2159
S'\xe0\xa4\x95\xe0\xa5\x80'
p2160
sS'drel'
p2161
S'lwg__psp:NP4'
p2162
sS'chunktype'
p2163
S'child:NP4'
p2164
sS'af'
p2165
S'\xe0\xa4\x95\xe0\xa4\xbe,psp,f,sg,,o,,'
p2166
ssbsg30
I00
sg31
I00
sg32
Nsg33
Nsg34
I4
sg35
I5
sg36
Nsg37
Nsg38
S'PSP'
p2167
sg40
g2154
sg41
I00
sba(issf_api
Word
p2168
(dp2169
g6
I00
sg7
V\u092e\u0941\u0916\u094d\u092f\u0927\u093e\u0930\u093e
p2170
sg9
(issf_api
FeatureSet
p2171
(dp2172
g12
(dp2173
S'posn'
p2174
S'110'
p2175
sS'name'
p2176
S'\xe0\xa4\xae\xe0\xa5\x81\xe0\xa4\x96\xe0\xa5\x8d\xe0\xa4\xaf\xe0\xa4\xa7\xe0\xa4\xbe\xe0\xa4\xb0\xe0\xa4\xbe'
p2177
sS'af'
p2178
S'\xe0\xa4\xae\xe0\xa5\x81\xe0\xa4\x96\xe0\xa5\x8d\xe0\xa4\xaf\xe0\xa4\xa7\xe0\xa4\xbe\xe0\xa4\xb0\xe0\xa4\xbe,n,f,sg,3,o,0_\xe0\xa4\xb8\xe0\xa5\x87,0'
p2179
sS'chunkid'
p2180
S'NP5'
p2181
sS'drel'
p2182
S'ras-k1:VGNN'
p2183
sS'vpos'
p2184
S'vib_2'
p2185
sS'chunktype'
p2186
S'head:NP5'
p2187
ssbsg30
I00
sg31
I00
sg32
Nsg33
Nsg34
I5
sg35
I5
sg36
Nsg37
Nsg38
S'NN'
p2188
sg40
g2171
sg41
I00
sba(issf_api
Word
p2189
(dp2190
g6
I00
sg7
V\u0938\u0947
p2191
sg9
(issf_api
FeatureSet
p2192
(dp2193
g12
(dp2194
S'posn'
p2195
S'120'
p2196
sS'name'
p2197
S'\xe0\xa4\xb8\xe0\xa5\x87'
p2198
sS'drel'
p2199
S'lwg__psp:NP5'
p2200
sS'chunktype'
p2201
S'child:NP5'
p2202
sS'af'
p2203
S'\xe0\xa4\xb8\xe0\xa5\x87,psp,,,,,,'
p2204
ssbsg30
I00
sg31
I00
sg32
Nsg33
Nsg34
I5
sg35
I5
sg36
Nsg37
Nsg38
S'PSP'
p2205
sg40
g2192
sg41
I00
sba(issf_api
Word
p2206
(dp2207
g6
I00
sg7
V\u091c\u0941\u0921\u093c\u0928\u0947
p2208
sg9
(issf_api
FeatureSet
p2209
(dp2210
g12
(dp2211
S'posn'
p2212
S'130'
p2213
sS'name'
p2214
S'\xe0\xa4\x9c\xe0\xa5\x81\xe0\xa4\xa1\xe0\xa4\xbc\xe0\xa4\xa8\xe0\xa5\x87'
p2215
sS'af'
p2216
S'\xe0\xa4\x9c\xe0\xa5\x81\xe0\xa4\xa1,v,any,sg,any,o,\xe0\xa4\xa8\xe0\xa4\xbe_\xe0\xa4\x95\xe0\xa4\xbe,nA'
p2217
sS'chunkid'
p2218
S'VGNN'
p2219
sS'drel'
p2220
S'r6-k2:NP6'
p2221
sS'vpos'
p2222
S'tam_2'
p2223
sS'chunktype'
p2224
S'head:VGNN'
p2225
ssbsg30
I00
sg31
I00
sg32
Nsg33
Nsg34
I6
sg35
I5
sg36
Nsg37
Nsg38
S'VM'
p2226
sg40
g2209
sg41
I00
sba(issf_api
Word
p2227
(dp2228
g6
I00
sg7
V\u0915\u0940
p2229
sg9
(issf_api
FeatureSet
p2230
(dp2231
g12
(dp2232
S'posn'
p2233
S'140'
p2234
sS'name'
p2235
S'\xe0\xa4\x95\xe0\xa5\x802'
p2236
sS'drel'
p2237
S'lwg__psp:VGNN'
p2238
sS'chunktype'
p2239
S'child:VGNN'
p2240
sS'af'
p2241
S'\xe0\xa4\x95\xe0\xa4\xbe,psp,f,sg,,d,,'
p2242
ssbsg30
I00
sg31
I00
sg32
Nsg33
Nsg34
I6
sg35
I5
sg36
Nsg37
Nsg38
S'PSP'
p2243
sg40
g2230
sg41
I00
sba(issf_api
Word
p2244
(dp2245
g6
I00
sg7
V\u0936\u0930\u094d\u0924
p2246
sg9
(issf_api
FeatureSet
p2247
(dp2248
g12
(dp2249
S'posn'
p2250
S'150'
p2251
sS'name'
p2252
S'\xe0\xa4\xb6\xe0\xa4\xb0\xe0\xa5\x8d\xe0\xa4\xa4'
p2253
sS'af'
p2254
S'\xe0\xa4\xb6\xe0\xa4\xb0\xe0\xa5\x8d\xe0\xa4\xa4,n,f,sg,3,d,0,0'
p2255
sS'chunkid'
p2256
S'NP6'
p2257
sS'drel'
p2258
S'pof:VGF'
p2259
sS'chunktype'
p2260
S'head:NP6'
p2261
ssbsg30
I00
sg31
I00
sg32
Nsg33
Nsg34
I7
sg35
I5
sg36
Nsg37
Nsg38
S'NN'
p2262
sg40
g2247
sg41
I00
sba(issf_api
Word
p2263
(dp2264
g6
I00
sg7
V\u0930\u0916\u0940
p2265
sg9
(issf_api
FeatureSet
p2266
(dp2267
g12
(dp2268
S'posn'
p2269
S'160'
p2270
sS'name'
p2271
S'\xe0\xa4\xb0\xe0\xa4\x96\xe0\xa5\x80'
p2272
sS'af'
p2273
S'\xe0\xa4\xb0\xe0\xa4\x96,v,f,sg,3,,\xe0\xa4\xaf\xe0\xa4\xbe_\xe0\xa4\x9c\xe0\xa4\xbe+\xe0\xa4\xaf\xe0\xa4\xbe\xe0\xa5\xa7_\xe0\xa4\xb9\xe0\xa5\x88,yA'
p2274
sS'chunkid'
p2275
S'VGF'
p2276
sS'chunktype'
p2277
S'head:VGF'
p2278
sS'voicetype'
p2279
S'active'
p2280
sS'vpos'
p2281
S'tam_2_3'
p2282
sS'stype'
p2283
S'declarative'
p2284
ssbsg30
I00
sg31
I00
sg32
Nsg33
Nsg34
I8
sg35
I5
sg36
Nsg37
Nsg38
S'VM'
p2285
sg40
g2266
sg41
I00
sba(issf_api
Word
p2286
(dp2287
g6
I00
sg7
V\u0917\u0908
p2288
sg9
(issf_api
FeatureSet
p2289
(dp2290
g12
(dp2291
S'posn'
p2292
S'170'
p2293
sS'name'
p2294
S'\xe0\xa4\x97\xe0\xa4\x88'
p2295
sS'drel'
p2296
S'lwg__vaux:VGF'
p2297
sS'chunktype'
p2298
S'child:VGF'
p2299
sS'af'
p2300
S'\xe0\xa4\x9c\xe0\xa4\xbe,v,f,sg,any,,\xe0\xa4\xaf\xe0\xa4\xbe\xe0\xa5\xa7,yA1'
p2301
ssbsg30
I00
sg31
I00
sg32
Nsg33
Nsg34
I8
sg35
I5
sg36
Nsg37
Nsg38
S'VAUX'
p2302
sg40
g2289
sg41
I00
sba(issf_api
Word
p2303
(dp2304
g6
I00
sg7
V\u0939\u0948
p2305
sg9
(issf_api
FeatureSet
p2306
(dp2307
g12
(dp2308
S'posn'
p2309
S'180'
p2310
sS'name'
p2311
S'\xe0\xa4\xb9\xe0\xa5\x88'
p2312
sS'drel'
p2313
S'lwg__vaux:VGF'
p2314
sS'chunktype'
p2315
S'child:VGF'
p2316
sS'af'
p2317
S'\xe0\xa4\xb9\xe0\xa5\x88,v,any,sg,3,,\xe0\xa4\xb9\xe0\xa5\x88,hE'
p2318
ssbsg30
I00
sg31
I00
sg32
Nsg33
Nsg34
I8
sg35
I5
sg36
Nsg37
Nsg38
S'VAUX'
p2319
sg40
g2306
sg41
I00
sba(issf_api
Word
p2320
(dp2321
g6
I00
sg7
V\u0964
p2322
sg9
(issf_api
FeatureSet
p2323
(dp2324
g12
(dp2325
S'posn'
p2326
S'190'
p2327
sS'name'
p2328
S'\xe0\xa5\xa4'
p2329
sS'af'
p2330
S'\xe0\xa5\xa4,punc,,,,,,'
p2331
sS'chunkid'
p2332
S'BLK'
p2333
sS'drel'
p2334
S'rsym:VGF'
p2335
sS'chunktype'
p2336
S'head:BLK'
p2337
ssbsg30
I00
sg31
I00
sg32
Nsg33
Nsg34
I9
sg35
I5
sg36
Nsg37
Nsg38
S'SYM'
p2338
sg40
g2323
sg41
I00
sba(issf_api
Word
p2339
(dp2340
g6
I00
sg7
V\u0928\u0947\u092a\u093e\u0932
p2341
sg9
(issf_api
FeatureSet
p2342
(dp2343
g12
(dp2344
S'crefhead'
p2345
S'\xe0\xa4\xa8\xe0\xa5\x87\xe0\xa4\xaa\xe0\xa4\xbe\xe0\xa4\xb2:i23'
p2346
sS'posn'
p2347
S'10'
p2348
sS'name'
p2349
S'\xe0\xa4\xa8\xe0\xa5\x87\xe0\xa4\xaa\xe0\xa4\xbe\xe0\xa4\xb2'
p2350
sS'af'
p2351
S'\xe0\xa4\xa8\xe0\xa5\x87\xe0\xa4\xaa\xe0\xa4\xbe\xe0\xa4\xb2,n,m,sg,3,o,0_\xe0\xa4\xae\xe0\xa5\x87\xe0\xa4\x82,0'
p2352
sS'chunkid'
p2353
S'NP'
p2354
sS'creftype'
p2355
S'Coreference-Noun-Noun:i22'
p2356
sS'chunktype'
p2357
S'head:NP'
p2358
sS'vpos'
p2359
S'vib_2'
p2360
sS'cref'
p2361
S'i23%1:t1'
p2362
sS'drel'
p2363
S'k7p:VGF'
p2364
ssbsg30
I00
sg31
I00
sg32
Nsg33
Nsg34
I0
sg35
I6
sg36
Nsg37
Nsg38
S'NNP'
p2365
sg40
g2342
sg41
I00
sba(issf_api
Word
p2366
(dp2367
g6
I00
sg7
V\u092e\u0947\u0902
p2368
sg9
(issf_api
FeatureSet
p2369
(dp2370
g12
(dp2371
S'posn'
p2372
S'20'
p2373
sS'name'
p2374
S'\xe0\xa4\xae\xe0\xa5\x87\xe0\xa4\x82'
p2375
sS'drel'
p2376
S'lwg__psp:NP'
p2377
sS'chunktype'
p2378
S'child:NP'
p2379
sS'af'
p2380
S'\xe0\xa4\xae\xe0\xa5\x87\xe0\xa4\x82,psp,,,,,,'
p2381
ssbsg30
I00
sg31
I00
sg32
Nsg33
Nsg34
I0
sg35
I6
sg36
Nsg37
Nsg38
S'PSP'
p2382
sg40
g2369
sg41
I00
sba(issf_api
Word
p2383
(dp2384
g6
I00
sg7
V\u0967\u096f\u096f\u096c
p2385
sg9
(issf_api
FeatureSet
p2386
(dp2387
g12
(dp2388
S'posn'
p2389
S'30'
p2390
sS'name'
p2391
S'\xe0\xa5\xa7\xe0\xa5\xaf\xe0\xa5\xaf\xe0\xa5\xac'
p2392
sS'af'
p2393
S'\xe0\xa5\xa7\xe0\xa5\xaf\xe0\xa5\xaf\xe0\xa5\xac,n,any,sg,3,o,0_\xe0\xa4\xb8\xe0\xa5\x87,0'
p2394
sS'chunkid'
p2395
S'NP2'
p2396
sS'drel'
p2397
S'jjmod:JJP'
p2398
sS'vpos'
p2399
S'vib_2'
p2400
sS'chunktype'
p2401
S'head:NP2'
p2402
ssbsg30
I00
sg31
I00
sg32
Nsg33
Nsg34
I1
sg35
I6
sg36
Nsg37
Nsg38
S'NNP'
p2403
sg40
g2386
sg41
I00
sba(issf_api
Word
p2404
(dp2405
g6
I00
sg7
V\u0938\u0947
p2406
sg9
(issf_api
FeatureSet
p2407
(dp2408
g12
(dp2409
S'posn'
p2410
S'40'
p2411
sS'name'
p2412
S'\xe0\xa4\xb8\xe0\xa5\x87'
p2413
sS'drel'
p2414
S'lwg__psp:NP2'
p2415
sS'chunktype'
p2416
S'child:NP2'
p2417
sS'af'
p2418
S'\xe0\xa4\xb8\xe0\xa5\x87,psp,,,,,,'
p2419
ssbsg30
I00
sg31
I00
sg32
Nsg33
Nsg34
I1
sg35
I6
sg36
Nsg37
Nsg38
S'PSP'
p2420
sg40
g2407
sg41
I00
sba(issf_api
Word
p2421
(dp2422
g6
I00
sg7
V\u091c\u093e\u0930\u0940
p2423
sg9
(issf_api
FeatureSet
p2424
(dp2425
g12
(dp2426
S'posn'
p2427
S'50'
p2428
sS'name'
p2429
S'\xe0\xa4\x9c\xe0\xa4\xbe\xe0\xa4\xb0\xe0\xa5\x80'
p2430
sS'af'
p2431
S'\xe0\xa4\x9c\xe0\xa4\xbe\xe0\xa4\xb0\xe0\xa5\x80,adj,any,any,,o,,'
p2432
sS'chunkid'
p2433
S'JJP'
p2434
sS'drel'
p2435
S'nmod:NP3'
p2436
sS'chunktype'
p2437
S'head:JJP'
p2438
ssbsg30
I00
sg31
I00
sg32
Nsg33
Nsg34
I2
sg35
I6
sg36
Nsg37
Nsg38
S'JJ'
p2439
sg40
g2424
sg41
I00
sba(issf_api
Word
p2440
(dp2441
g6
I00
sg7
V\u092e\u093e\u0913\u0935\u093e\u0926\u0940
p2442
sg9
(issf_api
FeatureSet
p2443
(dp2444
g12
(dp2445
S'crefhead'
p2446
S'\xe0\xa4\xae\xe0\xa4\xbe\xe0\xa4\x93\xe0\xa4\xb5\xe0\xa4\xbe\xe0\xa4\xa6\xe0\xa5\x80:i24'
p2447
sS'posn'
p2448
S'50'
p2449
sS'name'
p2450
S'\xe0\xa4\xae\xe0\xa4\xbe\xe0\xa4\x93\xe0\xa4\xb5\xe0\xa4\xbe\xe0\xa4\xa6\xe0\xa5\x80'
p2451
sS'af'
p2452
S'\xe0\xa4\xae\xe0\xa4\xbe\xe0\xa4\x93\xe0\xa4\xb5\xe0\xa4\xbe\xe0\xa4\xa6\xe0\xa5\x80,adj,any,any,,o,,'
p2453
sS'creftype'
p2454
S'Coreference-Noun-Noun:i21'
p2455
sS'drel'
p2456
S'pof__cn:NP3'
p2457
sS'chunktype'
p2458
S'child:NP3'
p2459
sS'cref'
p2460
S'i24%1:t3'
p2461
ssbsg30
I00
sg31
I00
sg32
Nsg33
Nsg34
I3
sg35
I6
sg36
Nsg37
Nsg38
S'NNC'
p2462
sg40
g2443
sg41
I00
sba(issf_api
Word
p2463
(dp2464
g6
I00
sg7
V\u0939\u093f\u0902\u0938\u093e
p2465
sg9
(issf_api
FeatureSet
p2466
(dp2467
g12
(dp2468
S'posn'
p2469
S'70'
p2470
sS'name'
p2471
S'\xe0\xa4\xb9\xe0\xa4\xbf\xe0\xa4\x82\xe0\xa4\xb8\xe0\xa4\xbe'
p2472
sS'af'
p2473
S'\xe0\xa4\xb9\xe0\xa4\xbf\xe0\xa4\x82\xe0\xa4\xb8\xe0\xa4\xbe,n,f,sg,3,o,0_\xe0\xa4\xae\xe0\xa5\x87\xe0\xa4\x82,0'
p2474
sS'chunkid'
p2475
S'NP3'
p2476
sS'drel'
p2477
S'k7:VGF'
p2478
sS'vpos'
p2479
S'vib_3'
p2480
sS'chunktype'
p2481
S'head:NP3'
p2482
ssbsg30
I00
sg31
I00
sg32
Nsg33
Nsg34
I3
sg35
I6
sg36
Nsg37
Nsg38
S'NN'
p2483
sg40
g2466
sg41
I00
sba(issf_api
Word
p2484
(dp2485
g6
I00
sg7
V\u092e\u0947\u0902
p2486
sg9
(issf_api
FeatureSet
p2487
(dp2488
g12
(dp2489
S'posn'
p2490
S'80'
p2491
sS'name'
p2492
S'\xe0\xa4\xae\xe0\xa5\x87\xe0\xa4\x822'
p2493
sS'drel'
p2494
S'lwg__psp:NP3'
p2495
sS'chunktype'
p2496
S'child:NP3'
p2497
sS'af'
p2498
S'\xe0\xa4\xae\xe0\xa5\x87\xe0\xa4\x82,psp,,,,,,'
p2499
ssbsg30
I00
sg31
I00
sg32
Nsg33
Nsg34
I3
sg35
I6
sg36
Nsg37
Nsg38
S'PSP'
p2500
sg40
g2487
sg41
I00
sba(issf_api
Word
p2501
(dp2502
g6
I00
sg7
V\u0967\u0966,\u0966\u0966\u0966
p2503
sg9
(issf_api
FeatureSet
p2504
(dp2505
g12
(dp2506
S'posn'
p2507
S'90'
p2508
sS'name'
p2509
S'\xe0\xa5\xa7\xe0\xa5\xa6,\xe0\xa5\xa6\xe0\xa5\xa6\xe0\xa5\xa6'
p2510
sS'af'
p2511
S'\xe0\xa5\xa7\xe0\xa5\xa6\xe0\xa5\xa6\xe0\xa5\xa6\xe0\xa5\xa6,num,any,pl,,o,0_\xe0\xa4\xb8\xe0\xa5\x87,'
p2512
sS'chunkid'
p2513
S'NP4'
p2514
sS'drel'
p2515
S'jjmod:JJP2'
p2516
sS'vpos'
p2517
S'2'
p2518
sS'chunktype'
p2519
S'head:NP4'
p2520
ssbsg30
I00
sg31
I00
sg32
Nsg33
Nsg34
I4
sg35
I6
sg36
Nsg37
Nsg38
S'QC'
p2521
sg40
g2504
sg41
I00
sba(issf_api
Word
p2522
(dp2523
g6
I00
sg7
V\u0938\u0947
p2524
sg9
(issf_api
FeatureSet
p2525
(dp2526
g12
(dp2527
S'posn'
p2528
S'100'
p2529
sS'name'
p2530
S'\xe0\xa4\xb8\xe0\xa5\x872'
p2531
sS'drel'
p2532
S'lwg__psp:NP4'
p2533
sS'chunktype'
p2534
S'child:NP4'
p2535
sS'af'
p2536
S'\xe0\xa4\xb8\xe0\xa5\x87,psp,,,,,,'
p2537
ssbsg30
I00
sg31
I00
sg32
Nsg33
Nsg34
I4
sg35
I6
sg36
Nsg37
Nsg38
S'PSP'
p2538
sg40
g2525
sg41
I00
sba(issf_api
Word
p2539
(dp2540
g6
I00
sg7
V\u091c\u094d\u092f\u093e\u0926\u093e
p2541
sg9
(issf_api
FeatureSet
p2542
(dp2543
g12
(dp2544
S'posn'
p2545
S'110'
p2546
sS'name'
p2547
S'\xe0\xa4\x9c\xe0\xa5\x8d\xe0\xa4\xaf\xe0\xa4\xbe\xe0\xa4\xa6\xe0\xa4\xbe'
p2548
sS'af'
p2549
S'\xe0\xa4\x9c\xe0\xa5\x8d\xe0\xa4\xaf\xe0\xa4\xbe\xe0\xa4\xa6\xe0\xa4\xbe,avy,,,,,,'
p2550
sS'chunkid'
p2551
S'JJP2'
p2552
sS'drel'
p2553
S'nmod:NP5'
p2554
sS'chunktype'
p2555
S'head:JJP2'
p2556
ssbsg30
I00
sg31
I00
sg32
Nsg33
Nsg34
I5
sg35
I6
sg36
Nsg37
Nsg38
S'QF'
p2557
sg40
g2542
sg41
I00
sba(issf_api
Word
p2558
(dp2559
g6
I00
sg7
V\u0932\u094b\u0917
p2560
sg9
(issf_api
FeatureSet
p2561
(dp2562
g12
(dp2563
S'posn'
p2564
S'120'
p2565
sS'name'
p2566
S'\xe0\xa4\xb2\xe0\xa5\x8b\xe0\xa4\x97'
p2567
sS'af'
p2568
S'\xe0\xa4\xb2\xe0\xa5\x8b\xe0\xa4\x97,n,m,pl,3,d,0,0'
p2569
sS'chunkid'
p2570
S'NP5'
p2571
sS'drel'
p2572
S'k2:VGF'
p2573
sS'chunktype'
p2574
S'head:NP5'
p2575
ssbsg30
I00
sg31
I00
sg32
Nsg33
Nsg34
I6
sg35
I6
sg36
Nsg37
Nsg38
S'NN'
p2576
sg40
g2561
sg41
I00
sba(issf_api
Word
p2577
(dp2578
g6
I00
sg7
V\u092e\u093e\u0930\u0947
p2579
sg9
(issf_api
FeatureSet
p2580
(dp2581
g12
(dp2582
S'posn'
p2583
S'130'
p2584
sS'name'
p2585
S'\xe0\xa4\xae\xe0\xa4\xbe\xe0\xa4\xb0\xe0\xa5\x87'
p2586
sS'af'
p2587
S'\xe0\xa4\xae\xe0\xa4\xbe\xe0\xa4\xb0,v,m,pl,3,,\xe0\xa4\xaf\xe0\xa4\xbe_\xe0\xa4\x9c\xe0\xa4\xbe_\xe0\xa4\x9a\xe0\xa5\x81\xe0\xa4\x95+\xe0\xa4\xaf\xe0\xa4\xbe_\xe0\xa4\xb9\xe0\xa5\x88,yA'
p2588
sS'chunkid'
p2589
S'VGF'
p2590
sS'chunktype'
p2591
S'head:VGF'
p2592
sS'voicetype'
p2593
S'passive'
p2594
sS'vpos'
p2595
S'tam_2_3_4'
p2596
sS'stype'
p2597
S'declarative'
p2598
ssbsg30
I00
sg31
I00
sg32
Nsg33
Nsg34
I7
sg35
I6
sg36
Nsg37
Nsg38
S'VM'
p2599
sg40
g2580
sg41
I00
sba(issf_api
Word
p2600
(dp2601
g6
I00
sg7
V\u091c\u093e
p2602
sg9
(issf_api
FeatureSet
p2603
(dp2604
g12
(dp2605
S'posn'
p2606
S'140'
p2607
sS'name'
p2608
S'\xe0\xa4\x9c\xe0\xa4\xbe'
p2609
sS'drel'
p2610
S'lwg__vaux:VGF'
p2611
sS'chunktype'
p2612
S'child:VGF'
p2613
sS'af'
p2614
S'\xe0\xa4\x9c\xe0\xa4\xbe,v,any,any,any,,0,0'
p2615
ssbsg30
I00
sg31
I00
sg32
Nsg33
Nsg34
I7
sg35
I6
sg36
Nsg37
Nsg38
S'VAUX'
p2616
sg40
g2603
sg41
I00
sba(issf_api
Word
p2617
(dp2618
g6
I00
sg7
V\u091a\u0941\u0915\u0947
p2619
sg9
(issf_api
FeatureSet
p2620
(dp2621
g12
(dp2622
S'posn'
p2623
S'150'
p2624
sS'name'
p2625
S'\xe0\xa4\x9a\xe0\xa5\x81\xe0\xa4\x95\xe0\xa5\x87'
p2626
sS'drel'
p2627
S'lwg__vaux:VGF'
p2628
sS'chunktype'
p2629
S'child:VGF'
p2630
sS'af'
p2631
S'\xe0\xa4\x9a\xe0\xa5\x81\xe0\xa4\x95,v,m,pl,any,,\xe0\xa4\xaf\xe0\xa4\xbe,yA'
p2632
ssbsg30
I00
sg31
I00
sg32
Nsg33
Nsg34
I7
sg35
I6
sg36
Nsg37
Nsg38
S'VAUX'
p2633
sg40
g2620
sg41
I00
sba(issf_api
Word
p2634
(dp2635
g6
I00
sg7
V\u0939\u0948\u0902
p2636
sg9
(issf_api
FeatureSet
p2637
(dp2638
g12
(dp2639
S'posn'
p2640
S'160'
p2641
sS'name'
p2642
S'\xe0\xa4\xb9\xe0\xa5\x88\xe0\xa4\x82'
p2643
sS'drel'
p2644
S'lwg__vaux:VGF'
p2645
sS'chunktype'
p2646
S'child:VGF'
p2647
sS'af'
p2648
S'\xe0\xa4\xb9\xe0\xa5\x88,v,any,pl,3,,\xe0\xa4\xb9\xe0\xa5\x88,hE'
p2649
ssbsg30
I00
sg31
I00
sg32
Nsg33
Nsg34
I7
sg35
I6
sg36
Nsg37
Nsg38
S'VAUX'
p2650
sg40
g2637
sg41
I00
sba(issf_api
Word
p2651
(dp2652
g6
I00
sg7
V\u0964
p2653
sg9
(issf_api
FeatureSet
p2654
(dp2655
g12
(dp2656
S'posn'
p2657
S'170'
p2658
sS'name'
p2659
S'\xe0\xa5\xa4'
p2660
sS'af'
p2661
S'\xe0\xa5\xa4,punc,,,,,,'
p2662
sS'chunkid'
p2663
S'BLK'
p2664
sS'drel'
p2665
S'rsym:VGF'
p2666
sS'chunktype'
p2667
S'head:BLK'
p2668
ssbsg30
I00
sg31
I00
sg32
Nsg33
Nsg34
I8
sg35
I6
sg36
Nsg37
Nsg38
S'SYM'
p2669
sg40
g2654
sg41
I00
sbasS'sentenceList'
p2670
(lp2671
(issf_api
Sentence
p2672
(dp2673
S'rootNode'
p2674
(lp2675
sg35
I0
sS'wordNumList'
p2676
(lp2677
I0
aI1
aI2
aI3
aI4
aI5
aI6
aI7
aI8
aI9
aI10
aI11
aI12
aI13
aI14
aI15
aI16
aI17
aI18
aI19
aI20
asS'nodeDict'
p2678
(dp2679
S'VGNF'
p2680
(issf_api
Node
p2681
(dp2682
S'nodeRelation'
p2683
S'vmod'
p2684
sS'nodeName'
p2685
g2680
sS'nodeParent'
p2686
S'VGF'
p2687
sS'nodeLevel'
p2688
I-1
sg34
I5
sS'childList'
p2689
(lp2690
S'NP4'
p2691
asbsS'VGNN'
p2692
(issf_api
Node
p2693
(dp2694
g2683
S'nmod'
p2695
sg2685
g2692
sg2686
S'NP3'
p2696
sg2688
I-1
sg34
I2
sg2689
(lp2697
S'NP2'
p2698
asbsS'VGF'
p2699
(issf_api
Node
p2700
(dp2701
g2683
S'None'
p2702
sg2685
g2699
sg2686
g2702
sg2688
I-1
sg34
I8
sg2689
(lp2703
g2680
aS'BLK'
p2704
aS'NP'
p2705
aS'NP6'
p2706
asbsS'NP5'
p2707
(issf_api
Node
p2708
(dp2709
g2683
S'r6'
p2710
sg2685
g2707
sg2686
S'NP6'
p2711
sg2688
I-1
sg34
I6
sg2689
(lp2712
sbsg2704
(issf_api
Node
p2713
(dp2714
g2683
S'rsym'
p2715
sg2685
g2704
sg2686
S'VGF'
p2716
sg2688
I-1
sg34
I9
sg2689
(lp2717
sbsg2705
(issf_api
Node
p2718
(dp2719
g2683
S'k1'
p2720
sg2685
g2705
sg2686
S'VGF'
p2721
sg2688
I-1
sg34
I0
sg2689
(lp2722
sbsg2691
(issf_api
Node
p2723
(dp2724
g2683
S'k2'
p2725
sg2685
g2691
sg2686
S'VGNF'
p2726
sg2688
I-1
sg34
I4
sg2689
(lp2727
S'NP3'
p2728
asbsg2706
(issf_api
Node
p2729
(dp2730
g2683
S'k2'
p2731
sg2685
g2706
sg2686
S'VGF'
p2732
sg2688
I-1
sg34
I7
sg2689
(lp2733
g2707
asbsg2728
(issf_api
Node
p2734
(dp2735
g2683
S'r6'
p2736
sg2685
g2728
sg2686
S'NP4'
p2737
sg2688
I-1
sg34
I3
sg2689
(lp2738
g2692
asbsg2698
(issf_api
Node
p2739
(dp2740
g2683
S'pof'
p2741
sg2685
g2698
sg2686
S'VGNN'
p2742
sg2688
I-1
sg34
I1
sg2689
(lp2743
sbssS'chunkList'
p2744
(lp2745
(issf_api
Chunk
p2746
(dp2747
g2685
g57
sg34
I0
sS'chunkTag'
p2748
g68
sg35
I0
sg2676
(lp2749
I0
aI1
aI2
asg40
(issf_api
FeatureSet
p2750
(dp2751
g12
(dp2752
S'name'
p2753
g2705
sS'drel'
p2754
S'k1:VGF'
p2755
ssbsba(issf_api
Chunk
p2756
(dp2757
g2685
g101
sg34
I1
sg2748
g110
sg35
I0
sg2676
(lp2758
I3
asg40
(issf_api
FeatureSet
p2759
(dp2760
g12
(dp2761
S'name'
p2762
g2698
sS'drel'
p2763
S'pof:VGNN'
p2764
ssbsba(issf_api
Chunk
p2765
(dp2766
g2685
g124
sg34
I2
sg2748
g133
sg35
I0
sg2676
(lp2767
I4
aI5
asg40
(issf_api
FeatureSet
p2768
(dp2769
g12
(dp2770
S'name'
p2771
g2692
sS'drel'
p2772
S'nmod:NP3'
p2773
ssbsba(issf_api
Chunk
p2774
(dp2775
g2685
g187
sg34
I3
sg2748
g198
sg35
I0
sg2676
(lp2776
I6
aI7
aI8
asg40
(issf_api
FeatureSet
p2777
(dp2778
g12
(dp2779
S'name'
p2780
g2728
sS'drel'
p2781
S'r6:NP4'
p2782
ssbsba(issf_api
Chunk
p2783
(dp2784
g2685
g246
sg34
I4
sg2748
g253
sg35
I0
sg2676
(lp2785
I9
aI10
aI11
asg40
(issf_api
FeatureSet
p2786
(dp2787
g12
(dp2788
S'name'
p2789
g2691
sS'drel'
p2790
S'k2:VGNF'
p2791
ssbsba(issf_api
Chunk
p2792
(dp2793
g2685
g284
sg34
I5
sg2748
g291
sg35
I0
sg2676
(lp2794
I12
aI13
asg40
(issf_api
FeatureSet
p2795
(dp2796
g12
(dp2797
S'name'
p2798
g2680
sS'drel'
p2799
S'vmod:VGF'
p2800
ssbsba(issf_api
Chunk
p2801
(dp2802
g2685
g326
sg34
I6
sg2748
g339
sg35
I0
sg2676
(lp2803
I14
aI15
asg40
(issf_api
FeatureSet
p2804
(dp2805
g12
(dp2806
S'name'
p2807
g2707
sS'drel'
p2808
S'r6:NP6'
p2809
ssbsba(issf_api
Chunk
p2810
(dp2811
g2685
g372
sg34
I7
sg2748
g383
sg35
I0
sg2676
(lp2812
I16
asg40
(issf_api
FeatureSet
p2813
(dp2814
g12
(dp2815
S'name'
p2816
g2706
sS'drel'
p2817
S'k2:VGF'
p2818
ssbsba(issf_api
Chunk
p2819
(dp2820
g2685
g397
sg34
I8
sg2748
g406
sg35
I0
sg2676
(lp2821
I17
aI18
aI19
asg40
(issf_api
FeatureSet
p2822
(dp2823
g12
(dp2824
S'name'
p2825
g2699
ssbsba(issf_api
Chunk
p2826
(dp2827
g2685
g454
sg34
I9
sg2748
g459
sg35
I0
sg2676
(lp2828
I20
asg40
(issf_api
FeatureSet
p2829
(dp2830
g12
(dp2831
S'name'
p2832
g2704
sS'drel'
p2833
S'rsym:VGF'
p2834
ssbsbasba(issf_api
Sentence
p2835
(dp2836
g2674
(lp2837
sg35
I1
sg2676
(lp2838
I21
aI22
aI23
aI24
aI25
aI26
aI27
aI28
aI29
aI30
aI31
aI32
aI33
aI34
aI35
asg2678
(dp2839
S'VGNF'
p2840
(issf_api
Node
p2841
(dp2842
g2683
S'vmod'
p2843
sg2685
g2840
sg2686
S'VGF'
p2844
sg2688
I-1
sg34
I3
sg2689
(lp2845
S'NP3'
p2846
asbsS'VGF'
p2847
(issf_api
Node
p2848
(dp2849
g2683
g2702
sg2685
g2847
sg2686
g2702
sg2688
I-1
sg34
I6
sg2689
(lp2850
g2840
aS'NP5'
p2851
aS'BLK'
p2852
aS'NP'
p2853
asbsg2851
(issf_api
Node
p2854
(dp2855
g2683
S'k7t'
p2856
sg2685
g2851
sg2686
S'VGF'
p2857
sg2688
I-1
sg34
I5
sg2689
(lp2858
S'NP4'
p2859
asbsg2852
(issf_api
Node
p2860
(dp2861
g2683
S'rsym'
p2862
sg2685
g2852
sg2686
S'VGF'
p2863
sg2688
I-1
sg34
I7
sg2689
(lp2864
sbsg2853
(issf_api
Node
p2865
(dp2866
g2683
S'k1'
p2867
sg2685
g2853
sg2686
S'VGF'
p2868
sg2688
I-1
sg34
I0
sg2689
(lp2869
sbsg2859
(issf_api
Node
p2870
(dp2871
g2683
S'r6'
p2872
sg2685
g2859
sg2686
S'NP5'
p2873
sg2688
I-1
sg34
I4
sg2689
(lp2874
sbsg2846
(issf_api
Node
p2875
(dp2876
g2683
S'k2'
p2877
sg2685
g2846
sg2686
S'VGNF'
p2878
sg2688
I-1
sg34
I2
sg2689
(lp2879
S'NP2'
p2880
asbsg2880
(issf_api
Node
p2881
(dp2882
g2683
S'r6'
p2883
sg2685
g2880
sg2686
S'NP3'
p2884
sg2688
I-1
sg34
I1
sg2689
(lp2885
sbssg2744
(lp2886
(issf_api
Chunk
p2887
(dp2888
g2685
g475
sg34
I0
sg2748
g486
sg35
I1
sg2676
(lp2889
I21
aI22
asg40
(issf_api
FeatureSet
p2890
(dp2891
g12
(dp2892
S'name'
p2893
g2853
sS'drel'
p2894
S'k1:VGF'
p2895
ssbsba(issf_api
Chunk
p2896
(dp2897
g2685
g523
sg34
I1
sg2748
g536
sg35
I1
sg2676
(lp2898
I23
aI24
asg40
(issf_api
FeatureSet
p2899
(dp2900
g12
(dp2901
S'name'
p2902
g2880
sS'drel'
p2903
S'r6:NP3'
p2904
ssbsba(issf_api
Chunk
p2905
(dp2906
g2685
g571
sg34
I2
sg2748
g582
sg35
I1
sg2676
(lp2907
I25
asg40
(issf_api
FeatureSet
p2908
(dp2909
g12
(dp2910
S'name'
p2911
g2846
sS'drel'
p2912
S'k2:VGNF'
p2913
ssbsba(issf_api
Chunk
p2914
(dp2915
g2685
g596
sg34
I3
sg2748
g603
sg35
I1
sg2676
(lp2916
I26
asg40
(issf_api
FeatureSet
p2917
(dp2918
g12
(dp2919
S'name'
p2920
g2840
sS'drel'
p2921
S'vmod:VGF'
p2922
ssbsba(issf_api
Chunk
p2923
(dp2924
g2685
g617
sg34
I4
sg2748
g626
sg35
I1
sg2676
(lp2925
I27
aI28
asg40
(issf_api
FeatureSet
p2926
(dp2927
g12
(dp2928
S'name'
p2929
g2859
sS'drel'
p2930
S'r6:NP5'
p2931
ssbsba(issf_api
Chunk
p2932
(dp2933
g2685
g678
sg34
I5
sg2748
g687
sg35
I1
sg2676
(lp2934
I29
aI30
aI31
asg40
(issf_api
FeatureSet
p2935
(dp2936
g12
(dp2937
S'name'
p2938
g2851
sS'drel'
p2939
S'k7t:VGF'
p2940
ssbsba(issf_api
Chunk
p2941
(dp2942
g2685
g722
sg34
I6
sg2748
g735
sg35
I1
sg2676
(lp2943
I32
aI33
aI34
asg40
(issf_api
FeatureSet
p2944
(dp2945
g12
(dp2946
S'name'
p2947
g2847
ssbsba(issf_api
Chunk
p2948
(dp2949
g2685
g787
sg34
I7
sg2748
g792
sg35
I1
sg2676
(lp2950
I35
asg40
(issf_api
FeatureSet
p2951
(dp2952
g12
(dp2953
S'name'
p2954
g2852
sS'drel'
p2955
S'rsym:VGF'
p2956
ssbsbasba(issf_api
Sentence
p2957
(dp2958
g2674
(lp2959
sg35
I2
sg2676
(lp2960
I36
aI37
aI38
aI39
aI40
aI41
aI42
aI43
aI44
aI45
aI46
aI47
asg2678
(dp2961
S'VGF'
p2962
(issf_api
Node
p2963
(dp2964
g2683
g2702
sg2685
g2962
sg2686
g2702
sg2688
I-1
sg34
I5
sg2689
(lp2965
S'NP5'
p2966
aS'BLK'
p2967
aS'NP'
p2968
aS'NP4'
p2969
aS'NP3'
p2970
asbsg2966
(issf_api
Node
p2971
(dp2972
g2683
S'pof'
p2973
sg2685
g2966
sg2686
S'VGF'
p2974
sg2688
I-1
sg34
I4
sg2689
(lp2975
sbsg2967
(issf_api
Node
p2976
(dp2977
g2683
S'rsym'
p2978
sg2685
g2967
sg2686
S'VGF'
p2979
sg2688
I-1
sg34
I6
sg2689
(lp2980
sbsg2968
(issf_api
Node
p2981
(dp2982
g2683
S'rh'
p2983
sg2685
g2968
sg2686
S'VGF'
p2984
sg2688
I-1
sg34
I0
sg2689
(lp2985
sbsg2969
(issf_api
Node
p2986
(dp2987
g2683
S'k7'
p2988
sg2685
g2969
sg2686
S'VGF'
p2989
sg2688
I-1
sg34
I3
sg2689
(lp2990
sbsg2970
(issf_api
Node
p2991
(dp2992
g2683
S'k1'
p2993
sg2685
g2970
sg2686
S'VGF'
p2994
sg2688
I-1
sg34
I2
sg2689
(lp2995
S'NP2'
p2996
asbsg2996
(issf_api
Node
p2997
(dp2998
g2683
S'nmod'
p2999
sg2685
g2996
sg2686
S'NP3'
p3000
sg2688
I-1
sg34
I1
sg2689
(lp3001
sbssg2744
(lp3002
(issf_api
Chunk
p3003
(dp3004
g2685
g808
sg34
I0
sg2748
g817
sg35
I2
sg2676
(lp3005
I36
asg40
(issf_api
FeatureSet
p3006
(dp3007
g12
(dp3008
S'name'
p3009
g2968
sS'drel'
p3010
S'rh:VGF'
p3011
ssbsba(issf_api
Chunk
p3012
(dp3013
g2685
g831
sg34
I1
sg2748
g836
sg35
I2
sg2676
(lp3014
I37
aI38
aI39
asg40
(issf_api
FeatureSet
p3015
(dp3016
g12
(dp3017
S'name'
p3018
g2996
sS'drel'
p3019
S'nmod:NP3'
p3020
ssbsba(issf_api
Chunk
p3021
(dp3022
g2685
g886
sg34
I2
sg2748
g895
sg35
I2
sg2676
(lp3023
I40
asg40
(issf_api
FeatureSet
p3024
(dp3025
g12
(dp3026
S'name'
p3027
g2970
sS'drel'
p3028
S'k1:VGF'
p3029
ssbsba(issf_api
Chunk
p3030
(dp3031
g2685
g909
sg34
I3
sg2748
g916
sg35
I2
sg2676
(lp3032
I41
aI42
aI43
asg40
(issf_api
FeatureSet
p3033
(dp3034
g12
(dp3035
S'name'
p3036
g2969
sS'drel'
p3037
S'k7:VGF'
p3038
ssbsba(issf_api
Chunk
p3039
(dp3040
g2685
g966
sg34
I4
sg2748
g975
sg35
I2
sg2676
(lp3041
I44
asg40
(issf_api
FeatureSet
p3042
(dp3043
g12
(dp3044
S'name'
p3045
g2966
sS'drel'
p3046
S'pof:VGF'
p3047
ssbsba(issf_api
Chunk
p3048
(dp3049
g2685
g989
sg34
I5
sg2748
g998
sg35
I2
sg2676
(lp3050
I45
aI46
asg40
(issf_api
FeatureSet
p3051
(dp3052
g12
(dp3053
S'name'
p3054
g2962
ssbsba(issf_api
Chunk
p3055
(dp3056
g2685
g1029
sg34
I6
sg2748
g1034
sg35
I2
sg2676
(lp3057
I47
asg40
(issf_api
FeatureSet
p3058
(dp3059
g12
(dp3060
S'name'
p3061
g2967
sS'drel'
p3062
S'rsym:VGF'
p3063
ssbsbasba(issf_api
Sentence
p3064
(dp3065
g2674
(lp3066
sg35
I3
sg2676
(lp3067
I48
aI49
aI50
aI51
aI52
aI53
aI54
aI55
aI56
aI57
aI58
aI59
aI60
aI61
aI62
asg2678
(dp3068
S'VGF'
p3069
(issf_api
Node
p3070
(dp3071
g2683
g2702
sg2685
g3069
sg2686
g2702
sg2688
I-1
sg34
I4
sg2689
(lp3072
S'BLK'
p3073
aS'NP4'
p3074
aS'NP2'
p3075
asbsg3073
(issf_api
Node
p3076
(dp3077
g2683
S'rsym'
p3078
sg2685
g3073
sg2686
S'VGF'
p3079
sg2688
I-1
sg34
I5
sg2689
(lp3080
sbsS'NP'
p3081
(issf_api
Node
p3082
(dp3083
g2683
S'r6'
p3084
sg2685
g3081
sg2686
S'NP2'
p3085
sg2688
I-1
sg34
I0
sg2689
(lp3086
sbsg3074
(issf_api
Node
p3087
(dp3088
g2683
S'rd'
p3089
sg2685
g3074
sg2686
S'VGF'
p3090
sg2688
I-1
sg34
I3
sg2689
(lp3091
S'NP3'
p3092
asbsg3092
(issf_api
Node
p3093
(dp3094
g2683
S'r6'
p3095
sg2685
g3092
sg2686
S'NP4'
p3096
sg2688
I-1
sg34
I2
sg2689
(lp3097
sbsg3075
(issf_api
Node
p3098
(dp3099
g2683
S'k2'
p3100
sg2685
g3075
sg2686
S'VGF'
p3101
sg2688
I-1
sg34
I1
sg2689
(lp3102
g3081
asbssg2744
(lp3103
(issf_api
Chunk
p3104
(dp3105
g2685
g1065
sg34
I0
sg2748
g1072
sg35
I3
sg2676
(lp3106
I48
aI49
aI50
asg40
(issf_api
FeatureSet
p3107
(dp3108
g12
(dp3109
S'name'
p3110
g3081
sS'drel'
p3111
S'r6:NP2'
p3112
ssbsba(issf_api
Chunk
p3113
(dp3114
g2685
g1103
sg34
I1
sg2748
g1108
sg35
I3
sg2676
(lp3115
I51
asg40
(issf_api
FeatureSet
p3116
(dp3117
g12
(dp3118
S'name'
p3119
g3075
sS'drel'
p3120
S'k2:VGF'
p3121
ssbsba(issf_api
Chunk
p3122
(dp3123
g2685
g1124
sg34
I2
sg2748
g1135
sg35
I3
sg2676
(lp3124
I52
aI53
asg40
(issf_api
FeatureSet
p3125
(dp3126
g12
(dp3127
S'name'
p3128
g3092
sS'drel'
p3129
S'r6:NP4'
p3130
ssbsba(issf_api
Chunk
p3131
(dp3132
g2685
g1183
sg34
I3
sg2748
g1190
sg35
I3
sg2676
(lp3133
I54
aI55
aI56
aI57
aI58
asg40
(issf_api
FeatureSet
p3134
(dp3135
g12
(dp3136
S'name'
p3137
g3074
sS'drel'
p3138
S'rd:VGF'
p3139
ssbsba(issf_api
Chunk
p3140
(dp3141
g2685
g1255
sg34
I4
sg2748
g1264
sg35
I3
sg2676
(lp3142
I59
aI60
aI61
asg40
(issf_api
FeatureSet
p3143
(dp3144
g12
(dp3145
S'name'
p3146
g3069
ssbsba(issf_api
Chunk
p3147
(dp3148
g2685
g1312
sg34
I5
sg2748
g1317
sg35
I3
sg2676
(lp3149
I62
asg40
(issf_api
FeatureSet
p3150
(dp3151
g12
(dp3152
S'name'
p3153
g3073
sS'drel'
p3154
S'rsym:VGF'
p3155
ssbsbasba(issf_api
Sentence
p3156
(dp3157
g2674
(lp3158
sg35
I4
sg2676
(lp3159
I63
aI64
aI65
aI66
aI67
aI68
aI69
aI70
aI71
aI72
aI73
aI74
aI75
aI76
aI77
aI78
aI79
aI80
aI81
aI82
aI83
aI84
aI85
aI86
aI87
aI88
aI89
aI90
aI91
aI92
aI93
aI94
asg2678
(dp3160
S'VGNN'
p3161
(issf_api
Node
p3162
(dp3163
g2683
S'nmod'
p3164
sg2685
g3161
sg2686
S'NP4'
p3165
sg2688
I-1
sg34
I3
sg2689
(lp3166
S'NP3'
p3167
asbsS'VGF'
p3168
(issf_api
Node
p3169
(dp3170
g2683
g2702
sg2685
g3168
sg2686
g2702
sg2688
I-1
sg34
I13
sg2689
(lp3171
S'CCP'
p3172
aS'BLK'
p3173
aS'NP10'
p3174
aS'NP7'
p3175
aS'NP6'
p3176
asbsg3172
(issf_api
Node
p3177
(dp3178
g2683
S'k7'
p3179
sg2685
g3172
sg2686
S'VGF'
p3180
sg2688
I-1
sg34
I10
sg2689
(lp3181
S'NP9'
p3182
aS'NP8'
p3183
asbsS'VGNN2'
p3184
(issf_api
Node
p3185
(dp3186
g2683
S'r6'
p3187
sg2685
g3184
sg2686
S'NP6'
p3188
sg2688
I-1
sg34
I6
sg2689
(lp3189
S'NP5'
p3190
aS'NP'
p3191
aS'NP4'
p3192
aS'NP2'
p3193
asbsg3190
(issf_api
Node
p3194
(dp3195
g2683
S'pof'
p3196
sg2685
g3190
sg2686
S'VGNN2'
p3197
sg2688
I-1
sg34
I5
sg2689
(lp3198
sbsg3182
(issf_api
Node
p3199
(dp3200
g2683
S'ccof'
p3201
sg2685
g3182
sg2686
S'CCP'
p3202
sg2688
I-1
sg34
I11
sg2689
(lp3203
sbsg3183
(issf_api
Node
p3204
(dp3205
g2683
S'ccof'
p3206
sg2685
g3183
sg2686
S'CCP'
p3207
sg2688
I-1
sg34
I9
sg2689
(lp3208
sbsg3173
(issf_api
Node
p3209
(dp3210
g2683
S'rsym'
p3211
sg2685
g3173
sg2686
S'VGF'
p3212
sg2688
I-1
sg34
I14
sg2689
(lp3213
sbsg3174
(issf_api
Node
p3214
(dp3215
g2683
S'pof'
p3216
sg2685
g3174
sg2686
S'VGF'
p3217
sg2688
I-1
sg34
I12
sg2689
(lp3218
sbsg3191
(issf_api
Node
p3219
(dp3220
g2683
S'k7t'
p3221
sg2685
g3191
sg2686
S'VGNN2'
p3222
sg2688
I-1
sg34
I0
sg2689
(lp3223
sbsg3192
(issf_api
Node
p3224
(dp3225
g2683
S'k4'
p3226
sg2685
g3192
sg2686
S'VGNN2'
p3227
sg2688
I-1
sg34
I4
sg2689
(lp3228
g3161
asbsg3175
(issf_api
Node
p3229
(dp3230
g2683
S'k1'
p3231
sg2685
g3175
sg2686
S'VGF'
p3232
sg2688
I-1
sg34
I8
sg2689
(lp3233
sbsg3176
(issf_api
Node
p3234
(dp3235
g2683
S'k7t'
p3236
sg2685
g3176
sg2686
S'VGF'
p3237
sg2688
I-1
sg34
I7
sg2689
(lp3238
g3184
asbsg3167
(issf_api
Node
p3239
(dp3240
g2683
S'pof'
p3241
sg2685
g3167
sg2686
S'VGNN'
p3242
sg2688
I-1
sg34
I2
sg2689
(lp3243
sbsg3193
(issf_api
Node
p3244
(dp3245
g2683
S'k1'
p3246
sg2685
g3193
sg2686
S'VGNN2'
p3247
sg2688
I-1
sg34
I1
sg2689
(lp3248
sbssg2744
(lp3249
(issf_api
Chunk
p3250
(dp3251
g2685
g1348
sg34
I0
sg2748
g1353
sg35
I4
sg2676
(lp3252
I63
aI64
asg40
(issf_api
FeatureSet
p3253
(dp3254
g12
(dp3255
S'name'
p3256
g3191
sS'drel'
p3257
S'k7t:VGNN2'
p3258
ssbsba(issf_api
Chunk
p3259
(dp3260
g2685
g1369
sg34
I1
sg2748
g1380
sg35
I4
sg2676
(lp3261
I65
aI66
asg40
(issf_api
FeatureSet
p3262
(dp3263
g12
(dp3264
S'name'
p3265
g3193
sS'drel'
p3266
S'k1:VGNN2'
p3267
ssbsba(issf_api
Chunk
p3268
(dp3269
g2685
g1413
sg34
I2
sg2748
g1422
sg35
I4
sg2676
(lp3270
I67
asg40
(issf_api
FeatureSet
p3271
(dp3272
g12
(dp3273
S'name'
p3274
g3167
sS'drel'
p3275
S'pof:VGNN'
p3276
ssbsba(issf_api
Chunk
p3277
(dp3278
g2685
g1436
sg34
I3
sg2748
g1445
sg35
I4
sg2676
(lp3279
I68
aI69
asg40
(issf_api
FeatureSet
p3280
(dp3281
g12
(dp3282
S'name'
p3283
g3161
sS'drel'
p3284
S'nmod:NP4'
p3285
ssbsba(issf_api
Chunk
p3286
(dp3287
g2685
g1499
sg34
I4
sg2748
g1510
sg35
I4
sg2676
(lp3288
I70
aI71
aI72
asg40
(issf_api
FeatureSet
p3289
(dp3290
g12
(dp3291
S'name'
p3292
g3192
sS'drel'
p3293
S'k4:VGNN2'
p3294
ssbsba(issf_api
Chunk
p3295
(dp3296
g2685
g1558
sg34
I5
sg2748
g1563
sg35
I4
sg2676
(lp3297
I73
aI74
asg40
(issf_api
FeatureSet
p3298
(dp3299
g12
(dp3300
S'name'
p3301
g3190
sS'drel'
p3302
S'pof:VGNN2'
p3303
ssbsba(issf_api
Chunk
p3304
(dp3305
g2685
g1577
sg34
I6
sg2748
g1584
sg35
I4
sg2676
(lp3306
I75
aI76
aI77
asg40
(issf_api
FeatureSet
p3307
(dp3308
g12
(dp3309
S'name'
p3310
g3184
sS'drel'
p3311
S'r6:NP6'
p3312
ssbsba(issf_api
Chunk
p3313
(dp3314
g2685
g1632
sg34
I7
sg2748
g1639
sg35
I4
sg2676
(lp3315
I78
aI79
aI80
aI81
asg40
(issf_api
FeatureSet
p3316
(dp3317
g12
(dp3318
S'name'
p3319
g3176
sS'drel'
p3320
S'k7t:VGF'
p3321
ssbsba(issf_api
Chunk
p3322
(dp3323
g2685
g1723
sg34
I8
sg2748
g1734
sg35
I4
sg2676
(lp3324
I82
aI83
aI84
asg40
(issf_api
FeatureSet
p3325
(dp3326
g12
(dp3327
S'name'
p3328
g3175
sS'drel'
p3329
S'k1:VGF'
p3330
ssbsba(issf_api
Chunk
p3331
(dp3332
g2685
g1786
sg34
I9
sg2748
g1793
sg35
I4
sg2676
(lp3333
I85
aI86
asg40
(issf_api
FeatureSet
p3334
(dp3335
g12
(dp3336
S'name'
p3337
g3183
sS'drel'
p3338
S'ccof:CCP'
p3339
ssbsba(issf_api
Chunk
p3340
(dp3341
g2685
g1807
sg34
I10
sg2748
g1814
sg35
I4
sg2676
(lp3342
I87
asg40
(issf_api
FeatureSet
p3343
(dp3344
g12
(dp3345
S'name'
p3346
g3172
sS'drel'
p3347
S'k7:VGF'
p3348
ssbsba(issf_api
Chunk
p3349
(dp3350
g2685
g1828
sg34
I11
sg2748
g1837
sg35
I4
sg2676
(lp3351
I88
aI89
aI90
asg40
(issf_api
FeatureSet
p3352
(dp3353
g12
(dp3354
S'name'
p3355
g3182
sS'drel'
p3356
S'ccof:CCP'
p3357
ssbsba(issf_api
Chunk
p3358
(dp3359
g2685
g1889
sg34
I12
sg2748
g1896
sg35
I4
sg2676
(lp3360
I91
asg40
(issf_api
FeatureSet
p3361
(dp3362
g12
(dp3363
S'name'
p3364
g3174
sS'drel'
p3365
S'pof:VGF'
p3366
ssbsba(issf_api
Chunk
p3367
(dp3368
g2685
g1912
sg34
I13
sg2748
g1923
sg35
I4
sg2676
(lp3369
I92
aI93
asg40
(issf_api
FeatureSet
p3370
(dp3371
g12
(dp3372
S'name'
p3373
g3168
ssbsba(issf_api
Chunk
p3374
(dp3375
g2685
g1954
sg34
I14
sg2748
g1959
sg35
I4
sg2676
(lp3376
I94
asg40
(issf_api
FeatureSet
p3377
(dp3378
g12
(dp3379
S'name'
p3380
g3173
sS'drel'
p3381
S'rsym:VGF'
p3382
ssbsbasba(issf_api
Sentence
p3383
(dp3384
g2674
(lp3385
sg35
I5
sg2676
(lp3386
I95
aI96
aI97
aI98
aI99
aI100
aI101
aI102
aI103
aI104
aI105
aI106
aI107
aI108
aI109
aI110
aI111
aI112
aI113
asg2678
(dp3387
S'VGNF'
p3388
(issf_api
Node
p3389
(dp3390
g2683
S'vmod'
p3391
sg2685
g3388
sg2686
S'VGF'
p3392
sg2688
I-1
sg34
I3
sg2689
(lp3393
S'NP'
p3394
aS'NP3'
p3395
asbsS'VGNN'
p3396
(issf_api
Node
p3397
(dp3398
g2683
S'r6-k2'
p3399
sg2685
g3396
sg2686
S'NP6'
p3400
sg2688
I-1
sg34
I6
sg2689
(lp3401
S'NP5'
p3402
aS'NP2'
p3403
asbsS'VGF'
p3404
(issf_api
Node
p3405
(dp3406
g2683
g2702
sg2685
g3404
sg2686
g2702
sg2688
I-1
sg34
I8
sg2689
(lp3407
g3388
aS'BLK'
p3408
aS'NP6'
p3409
asbsg3402
(issf_api
Node
p3410
(dp3411
g2683
S'ras-k1'
p3412
sg2685
g3402
sg2686
S'VGNN'
p3413
sg2688
I-1
sg34
I5
sg2689
(lp3414
S'NP4'
p3415
asbsg3408
(issf_api
Node
p3416
(dp3417
g2683
S'rsym'
p3418
sg2685
g3408
sg2686
S'VGF'
p3419
sg2688
I-1
sg34
I9
sg2689
(lp3420
sbsg3394
(issf_api
Node
p3421
(dp3422
g2683
S'rt'
p3423
sg2685
g3394
sg2686
S'VGNF'
p3424
sg2688
I-1
sg34
I0
sg2689
(lp3425
sbsg3415
(issf_api
Node
p3426
(dp3427
g2683
S'r6'
p3428
sg2685
g3415
sg2686
S'NP5'
p3429
sg2688
I-1
sg34
I4
sg2689
(lp3430
sbsg3409
(issf_api
Node
p3431
(dp3432
g2683
S'pof'
p3433
sg2685
g3409
sg2686
S'VGF'
p3434
sg2688
I-1
sg34
I7
sg2689
(lp3435
g3396
asbsg3395
(issf_api
Node
p3436
(dp3437
g2683
S'k2'
p3438
sg2685
g3395
sg2686
S'VGNF'
p3439
sg2688
I-1
sg34
I2
sg2689
(lp3440
sbsg3403
(issf_api
Node
p3441
(dp3442
g2683
S'k1'
p3443
sg2685
g3403
sg2686
S'VGNN'
p3444
sg2688
I-1
sg34
I1
sg2689
(lp3445
sbssg2744
(lp3446
(issf_api
Chunk
p3447
(dp3448
g2685
g1975
sg34
I0
sg2748
g1988
sg35
I5
sg2676
(lp3449
I95
aI96
asg40
(issf_api
FeatureSet
p3450
(dp3451
g12
(dp3452
S'name'
p3453
g3394
sS'drel'
p3454
S'rt:VGNF'
p3455
ssbsba(issf_api
Chunk
p3456
(dp3457
g2685
g2021
sg34
I1
sg2748
g2032
sg35
I5
sg2676
(lp3458
I97
aI98
asg40
(issf_api
FeatureSet
p3459
(dp3460
g12
(dp3461
S'name'
p3462
g3403
sS'drel'
p3463
S'k1:VGNN'
p3464
ssbsba(issf_api
Chunk
p3465
(dp3466
g2685
g2080
sg34
I2
sg2748
g2087
sg35
I5
sg2676
(lp3467
I99
aI100
aI101
asg40
(issf_api
FeatureSet
p3468
(dp3469
g12
(dp3470
S'name'
p3471
g3395
sS'drel'
p3472
S'k2:VGNF'
p3473
ssbsba(issf_api
Chunk
p3474
(dp3475
g2685
g2118
sg34
I3
sg2748
g2123
sg35
I5
sg2676
(lp3476
I102
asg40
(issf_api
FeatureSet
p3477
(dp3478
g12
(dp3479
S'name'
p3480
g3388
sS'drel'
p3481
S'vmod:VGF'
p3482
ssbsba(issf_api
Chunk
p3483
(dp3484
g2685
g2139
sg34
I4
sg2748
g2150
sg35
I5
sg2676
(lp3485
I103
aI104
asg40
(issf_api
FeatureSet
p3486
(dp3487
g12
(dp3488
S'name'
p3489
g3415
sS'drel'
p3490
S'r6:NP5'
p3491
ssbsba(issf_api
Chunk
p3492
(dp3493
g2685
g2181
sg34
I5
sg2748
g2188
sg35
I5
sg2676
(lp3494
I105
aI106
asg40
(issf_api
FeatureSet
p3495
(dp3496
g12
(dp3497
S'name'
p3498
g3402
sS'drel'
p3499
S'ras-k1:VGNN'
p3500
ssbsba(issf_api
Chunk
p3501
(dp3502
g2685
g2219
sg34
I6
sg2748
g2226
sg35
I5
sg2676
(lp3503
I107
aI108
asg40
(issf_api
FeatureSet
p3504
(dp3505
g12
(dp3506
S'name'
p3507
g3396
sS'drel'
p3508
S'r6-k2:NP6'
p3509
ssbsba(issf_api
Chunk
p3510
(dp3511
g2685
g2257
sg34
I7
sg2748
g2262
sg35
I5
sg2676
(lp3512
I109
asg40
(issf_api
FeatureSet
p3513
(dp3514
g12
(dp3515
S'name'
p3516
g3409
sS'drel'
p3517
S'pof:VGF'
p3518
ssbsba(issf_api
Chunk
p3519
(dp3520
g2685
g2276
sg34
I8
sg2748
g2285
sg35
I5
sg2676
(lp3521
I110
aI111
aI112
asg40
(issf_api
FeatureSet
p3522
(dp3523
g12
(dp3524
S'name'
p3525
g3404
ssbsba(issf_api
Chunk
p3526
(dp3527
g2685
g2333
sg34
I9
sg2748
g2338
sg35
I5
sg2676
(lp3528
I113
asg40
(issf_api
FeatureSet
p3529
(dp3530
g12
(dp3531
S'name'
p3532
g3408
sS'drel'
p3533
S'rsym:VGF'
p3534
ssbsbasba(issf_api
Sentence
p3535
(dp3536
g2674
(lp3537
sg35
I6
sg2676
(lp3538
I114
aI115
aI116
aI117
aI118
aI119
aI120
aI121
aI122
aI123
aI124
aI125
aI126
aI127
aI128
aI129
aI130
asg2678
(dp3539
S'VGF'
p3540
(issf_api
Node
p3541
(dp3542
g2683
g2702
sg2685
g3540
sg2686
g2702
sg2688
I-1
sg34
I7
sg2689
(lp3543
S'NP5'
p3544
aS'BLK'
p3545
aS'NP'
p3546
aS'NP3'
p3547
asbsS'JJP'
p3548
(issf_api
Node
p3549
(dp3550
g2683
S'nmod'
p3551
sg2685
g3548
sg2686
S'NP3'
p3552
sg2688
I-1
sg34
I2
sg2689
(lp3553
S'NP2'
p3554
asbsg3544
(issf_api
Node
p3555
(dp3556
g2683
S'k2'
p3557
sg2685
g3544
sg2686
S'VGF'
p3558
sg2688
I-1
sg34
I6
sg2689
(lp3559
S'JJP2'
p3560
asbsg3560
(issf_api
Node
p3561
(dp3562
g2683
S'nmod'
p3563
sg2685
g3560
sg2686
S'NP5'
p3564
sg2688
I-1
sg34
I5
sg2689
(lp3565
S'NP4'
p3566
asbsg3545
(issf_api
Node
p3567
(dp3568
g2683
S'rsym'
p3569
sg2685
g3545
sg2686
S'VGF'
p3570
sg2688
I-1
sg34
I8
sg2689
(lp3571
sbsg3546
(issf_api
Node
p3572
(dp3573
g2683
S'k7p'
p3574
sg2685
g3546
sg2686
S'VGF'
p3575
sg2688
I-1
sg34
I0
sg2689
(lp3576
sbsg3566
(issf_api
Node
p3577
(dp3578
g2683
S'jjmod'
p3579
sg2685
g3566
sg2686
S'JJP2'
p3580
sg2688
I-1
sg34
I4
sg2689
(lp3581
sbsg3547
(issf_api
Node
p3582
(dp3583
g2683
S'k7'
p3584
sg2685
g3547
sg2686
S'VGF'
p3585
sg2688
I-1
sg34
I3
sg2689
(lp3586
g3548
asbsg3554
(issf_api
Node
p3587
(dp3588
g2683
S'jjmod'
p3589
sg2685
g3554
sg2686
S'JJP'
p3590
sg2688
I-1
sg34
I1
sg2689
(lp3591
sbssg2744
(lp3592
(issf_api
Chunk
p3593
(dp3594
g2685
g2354
sg34
I0
sg2748
g2365
sg35
I6
sg2676
(lp3595
I114
aI115
asg40
(issf_api
FeatureSet
p3596
(dp3597
g12
(dp3598
S'name'
p3599
g3546
sS'drel'
p3600
S'k7p:VGF'
p3601
ssbsba(issf_api
Chunk
p3602
(dp3603
g2685
g2396
sg34
I1
sg2748
g2403
sg35
I6
sg2676
(lp3604
I116
aI117
asg40
(issf_api
FeatureSet
p3605
(dp3606
g12
(dp3607
S'name'
p3608
g3554
sS'drel'
p3609
S'jjmod:JJP'
p3610
ssbsba(issf_api
Chunk
p3611
(dp3612
g2685
g2434
sg34
I2
sg2748
g2439
sg35
I6
sg2676
(lp3613
I118
asg40
(issf_api
FeatureSet
p3614
(dp3615
g12
(dp3616
S'name'
p3617
g3548
sS'drel'
p3618
S'nmod:NP3'
p3619
ssbsba(issf_api
Chunk
p3620
(dp3621
g2685
g2476
sg34
I3
sg2748
g2483
sg35
I6
sg2676
(lp3622
I119
aI120
aI121
asg40
(issf_api
FeatureSet
p3623
(dp3624
g12
(dp3625
S'name'
p3626
g3547
sS'drel'
p3627
S'k7:VGF'
p3628
ssbsba(issf_api
Chunk
p3629
(dp3630
g2685
g2514
sg34
I4
sg2748
g2521
sg35
I6
sg2676
(lp3631
I122
aI123
asg40
(issf_api
FeatureSet
p3632
(dp3633
g12
(dp3634
S'name'
p3635
g3566
sS'drel'
p3636
S'jjmod:JJP2'
p3637
ssbsba(issf_api
Chunk
p3638
(dp3639
g2685
g2552
sg34
I5
sg2748
g2557
sg35
I6
sg2676
(lp3640
I124
asg40
(issf_api
FeatureSet
p3641
(dp3642
g12
(dp3643
S'name'
p3644
g3560
sS'drel'
p3645
S'nmod:NP5'
p3646
ssbsba(issf_api
Chunk
p3647
(dp3648
g2685
g2571
sg34
I6
sg2748
g2576
sg35
I6
sg2676
(lp3649
I125
asg40
(issf_api
FeatureSet
p3650
(dp3651
g12
(dp3652
S'name'
p3653
g3544
sS'drel'
p3654
S'k2:VGF'
p3655
ssbsba(issf_api
Chunk
p3656
(dp3657
g2685
g2590
sg34
I7
sg2748
g2599
sg35
I6
sg2676
(lp3658
I126
aI127
aI128
aI129
asg40
(issf_api
FeatureSet
p3659
(dp3660
g12
(dp3661
S'name'
p3662
g3540
ssbsba(issf_api
Chunk
p3663
(dp3664
g2685
g2664
sg34
I8
sg2748
g2669
sg35
I6
sg2676
(lp3665
I130
asg40
(issf_api
FeatureSet
p3666
(dp3667
g12
(dp3668
S'name'
p3669
g3545
sS'drel'
p3670
S'rsym:VGF'
p3671
ssbsbasbasb.