(issf_api
SSFInfo
p0
(dp1
S'globalWordList'
p2
(lp3
(issf_api
Word
p4
(dp5
S'splitConn'
p6
I00
sS'word'
p7
V\u0935\u093e\u092f\u0941
p8
sS'extraFeatureSet'
p9
(issf_api
FeatureSet
p10
(dp11
S'featureDict'
p12
(dp13
S'posn'
p14
S'10'
p15
sS'name'
p16
S'\xe0\xa4\xb5\xe0\xa4\xbe\xe0\xa4\xaf\xe0\xa5\x81'
p17
sS'af'
p18
S'\xe0\xa4\xb5\xe0\xa4\xbe\xe0\xa4\xaf\xe0\xa5\x81,n,f,sg,3,d,0,0'
p19
sS'acrefmod'
p20
S'm1%0:i2'
p21
sS'drel'
p22
S'pof__cn:NP'
p23
sS'chunktype'
p24
S'child:NP'
p25
sS'cref'
p26
S'i1%0:t1'
p27
ssbsS'arg1'
p28
I00
sS'arg2'
p29
I00
sS'sense'
p30
NsS'arg1Span'
p31
NsS'chunkNum'
p32
I0
sS'sentenceNum'
p33
I0
sS'relationNum'
p34
NsS'arg2Span'
p35
NsS'wordTag'
p36
S'NNC'
p37
sS'featureSet'
p38
g10
sS'conn'
p39
I00
sba(issf_api
Word
p40
(dp41
g6
I00
sg7
V\u0938\u0947\u0928\u093e
p42
sg9
(issf_api
FeatureSet
p43
(dp44
g12
(dp45
S'crefhead'
p46
S'\xe0\xa4\xb8\xe0\xa5\x87\xe0\xa4\xa8\xe0\xa4\xbe:i1'
p47
sS'posn'
p48
S'20'
p49
sS'name'
p50
S'\xe0\xa4\xb8\xe0\xa5\x87\xe0\xa4\xa8\xe0\xa4\xbe'
p51
sS'af'
p52
S'\xe0\xa4\xb8\xe0\xa5\x87\xe0\xa4\xa8\xe0\xa4\xbe,n,f,sg,3,o,0_\xe0\xa4\x95\xe0\xa4\xbe,0'
p53
sS'acrefmodhead'
p54
S'\xe0\xa4\xb8\xe0\xa5\x87\xe0\xa4\xa8\xe0\xa4\xbe:m1'
p55
sS'chunkid'
p56
S'NP'
p57
sS'acrefmod'
p58
S'm1%1:i2'
p59
sS'chunktype'
p60
S'head:NP'
p61
sS'crefchainhead'
p62
S'i1:t1'
p63
sS'vpos'
p64
S'vib_3'
p65
sS'cref'
p66
S'i1%1:t1'
p67
sS'drel'
p68
S'r6:NP2'
p69
ssbsg28
I00
sg29
I00
sg30
Nsg31
Nsg32
I0
sg33
I0
sg34
Nsg35
Nsg36
S'NN'
p70
sg38
g43
sg39
I00
sba(issf_api
Word
p71
(dp72
g6
I00
sg7
V\u0915\u0940
p73
sg9
(issf_api
FeatureSet
p74
(dp75
g12
(dp76
S'posn'
p77
S'30'
p78
sS'name'
p79
S'\xe0\xa4\x95\xe0\xa5\x80'
p80
sS'drel'
p81
S'lwg__psp:NP'
p82
sS'chunktype'
p83
S'child:NP'
p84
sS'af'
p85
S'\xe0\xa4\x95\xe0\xa4\xbe,psp,f,sg,,o,,'
p86
ssbsg28
I00
sg29
I00
sg30
Nsg31
Nsg32
I0
sg33
I0
sg34
Nsg35
Nsg36
S'PSP'
p87
sg38
g74
sg39
I00
sba(issf_api
Word
p88
(dp89
g6
I00
sg7
V\u092b\u094d\u0932\u093e\u0907\u0902\u0917
p90
sg9
(issf_api
FeatureSet
p91
(dp92
g12
(dp93
S'posn'
p94
S'40'
p95
sS'name'
p96
S'\xe0\xa4\xab\xe0\xa5\x8d\xe0\xa4\xb2\xe0\xa4\xbe\xe0\xa4\x87\xe0\xa4\x82\xe0\xa4\x97'
p97
sS'af'
p98
S'\xe0\xa4\xab\xe0\xa5\x8d\xe0\xa4\xb2\xe0\xa4\xbe\xe0\xa4\x87\xe0\xa4\x82\xe0\xa4\x97,n,f,sg,3,d,0,0'
p99
sS'drel'
p100
S'pof__cn:NP2'
p101
sS'chunktype'
p102
S'child:NP2'
p103
sS'cref'
p104
S'i2%0:t2'
p105
ssbsg28
I00
sg29
I00
sg30
Nsg31
Nsg32
I1
sg33
I0
sg34
Nsg35
Nsg36
S'NNC'
p106
sg38
g91
sg39
I00
sba(issf_api
Word
p107
(dp108
g6
I00
sg7
V\u0911\u092b\u093f\u0938\u0930
p109
sg9
(issf_api
FeatureSet
p110
(dp111
g12
(dp112
S'crefhead'
p113
S'\xe0\xa4\x91\xe0\xa4\xab\xe0\xa4\xbf\xe0\xa4\xb8\xe0\xa4\xb0:i2'
p114
sS'posn'
p115
S'50'
p116
sS'name'
p117
S'\xe0\xa4\x91\xe0\xa4\xab\xe0\xa4\xbf\xe0\xa4\xb8\xe0\xa4\xb0'
p118
sS'af'
p119
S'\xe0\xa4\x91\xe0\xa4\xab\xe0\xa4\xbf\xe0\xa4\xb8\xe0\xa4\xb0,n,f,sg,3,o,0,0'
p120
sS'chunkid'
p121
S'NP2'
p122
sS'crefmod'
p123
S'm1:i2'
p124
sS'chunktype'
p125
S'head:NP2'
p126
sS'cref'
p127
S'i2%1:t2'
p128
sS'drel'
p129
S'nmod:NP3'
p130
ssbsg28
I00
sg29
I00
sg30
Nsg31
Nsg32
I1
sg33
I0
sg34
Nsg35
Nsg36
S'NN'
p131
sg38
g110
sg39
I00
sba(issf_api
Word
p132
(dp133
g6
I00
sg7
V\u0905\u0902\u091c\u0932\u093f
p134
sg9
(issf_api
FeatureSet
p135
(dp136
g12
(dp137
S'posn'
p138
S'60'
p139
sS'name'
p140
S'\xe0\xa4\x85\xe0\xa4\x82\xe0\xa4\x9c\xe0\xa4\xb2\xe0\xa4\xbf'
p141
sS'af'
p142
S'\xe0\xa4\x85\xe0\xa4\x82\xe0\xa4\x9c\xe0\xa4\xb2\xe0\xa4\xbf,n,f,sg,3,d,0,0'
p143
sS'drel'
p144
S'pof__cn:NP3'
p145
sS'chunktype'
p146
S'child:NP3'
p147
sS'cref'
p148
S'i3%0:t2'
p149
ssbsg28
I00
sg29
I00
sg30
Nsg31
Nsg32
I2
sg33
I0
sg34
Nsg35
Nsg36
S'NNPC'
p150
sg38
g135
sg39
I00
sba(issf_api
Word
p151
(dp152
g6
I00
sg7
V\u0917\u0941\u092a\u094d\u0924\u093e
p153
sg9
(issf_api
FeatureSet
p154
(dp155
g12
(dp156
S'crefhead'
p157
S'\xe0\xa4\x97\xe0\xa5\x81\xe0\xa4\xaa\xe0\xa5\x8d\xe0\xa4\xa4\xe0\xa4\xbe:i3'
p158
sS'posn'
p159
S'70'
p160
sS'name'
p161
S'\xe0\xa4\x97\xe0\xa5\x81\xe0\xa4\xaa\xe0\xa5\x8d\xe0\xa4\xa4\xe0\xa4\xbe'
p162
sS'af'
p163
S'\xe0\xa4\x97\xe0\xa5\x81\xe0\xa4\xaa\xe0\xa5\x8d\xe0\xa4\xa4\xe0\xa4\xbe,n,f,sg,3,o,0_\xe0\xa4\xae\xe0\xa5\x87\xe0\xa4\x82,0'
p164
sS'chunkid'
p165
S'NP3'
p166
sS'creftype'
p167
S'Coreference-NounComplement:i2'
p168
sS'chunktype'
p169
S'head:NP3'
p170
sS'crefchainhead'
p171
S'i3:t2'
p172
sS'vpos'
p173
S'vib_3'
p174
sS'cref'
p175
S'i3%1:t2'
p176
sS'drel'
p177
S'k7:VGNN'
p178
ssbsg28
I00
sg29
I00
sg30
Nsg31
Nsg32
I2
sg33
I0
sg34
Nsg35
Nsg36
S'NNP'
p179
sg38
g154
sg39
I00
sba(issf_api
Word
p180
(dp181
g6
I00
sg7
V\u092e\u0947\u0902
p182
sg9
(issf_api
FeatureSet
p183
(dp184
g12
(dp185
S'posn'
p186
S'80'
p187
sS'name'
p188
S'\xe0\xa4\xae\xe0\xa5\x87\xe0\xa4\x82'
p189
sS'drel'
p190
S'lwg__psp:NP3'
p191
sS'chunktype'
p192
S'child:NP3'
p193
sS'af'
p194
S'\xe0\xa4\xae\xe0\xa5\x87\xe0\xa4\x82,psp,,,,,,'
p195
ssbsg28
I00
sg29
I00
sg30
Nsg31
Nsg32
I2
sg33
I0
sg34
Nsg35
Nsg36
S'PSP'
p196
sg38
g183
sg39
I00
sba(issf_api
Word
p197
(dp198
g6
I00
sg7
V\u0906\u0924\u094d\u092e\u0939\u0924\u094d\u092f\u093e
p199
sg9
(issf_api
FeatureSet
p200
(dp201
g12
(dp202
S'posn'
p203
S'90'
p204
sS'name'
p205
S'\xe0\xa4\x86\xe0\xa4\xa4\xe0\xa5\x8d\xe0\xa4\xae\xe0\xa4\xb9\xe0\xa4\xa4\xe0\xa5\x8d\xe0\xa4\xaf\xe0\xa4\xbe'
p206
sS'af'
p207
S'\xe0\xa4\x86\xe0\xa4\xa4\xe0\xa5\x8d\xe0\xa4\xae\xe0\xa4\xb9\xe0\xa4\xa4\xe0\xa5\x8d\xe0\xa4\xaf\xe0\xa4\xbe,n,f,sg,3,o,0_\xe0\xa4\x95\xe0\xa4\xbe,0'
p208
sS'chunkid'
p209
S'NP4'
p210
sS'drel'
p211
S'r6:NP5'
p212
sS'vpos'
p213
S'vib_2'
p214
sS'chunktype'
p215
S'head:NP4'
p216
ssbsg28
I00
sg29
I00
sg30
Nsg31
Nsg32
I3
sg33
I0
sg34
Nsg35
Nsg36
S'NN'
p217
sg38
g200
sg39
I00
sba(issf_api
Word
p218
(dp219
g6
I00
sg7
V\u0915\u0940
p220
sg9
(issf_api
FeatureSet
p221
(dp222
g12
(dp223
S'posn'
p224
S'100'
p225
sS'name'
p226
S'\xe0\xa4\x95\xe0\xa5\x802'
p227
sS'drel'
p228
S'lwg__psp:NP4'
p229
sS'chunktype'
p230
S'child:NP4'
p231
sS'af'
p232
S'\xe0\xa4\x95\xe0\xa4\xbe,psp,f,pl,,o,,'
p233
ssbsg28
I00
sg29
I00
sg30
Nsg31
Nsg32
I3
sg33
I0
sg34
Nsg35
Nsg36
S'PSP'
p234
sg38
g221
sg39
I00
sba(issf_api
Word
p235
(dp236
g6
I00
sg7
V\u092a\u094d\u0930\u0935\u0943\u0924\u094d\u0924\u093f\u092f\u094b\u0902
p237
sg9
(issf_api
FeatureSet
p238
(dp239
g12
(dp240
S'posn'
p241
S'110'
p242
sS'name'
p243
S'\xe0\xa4\xaa\xe0\xa5\x8d\xe0\xa4\xb0\xe0\xa4\xb5\xe0\xa5\x83\xe0\xa4\xa4\xe0\xa5\x8d\xe0\xa4\xa4\xe0\xa4\xbf\xe0\xa4\xaf\xe0\xa5\x8b\xe0\xa4\x82'
p244
sS'af'
p245
S'\xe0\xa4\xaa\xe0\xa5\x8d\xe0\xa4\xb0\xe0\xa4\xb5\xe0\xa5\x83\xe0\xa4\xa4\xe0\xa5\x8d\xe0\xa4\xa4\xe0\xa4\xbf,n,f,pl,3,o,0_\xe0\xa4\x95\xe0\xa4\xbe,0'
p246
sS'chunkid'
p247
S'NP5'
p248
sS'drel'
p249
S'r6-k2:NP6'
p250
sS'vpos'
p251
S'vib_2'
p252
sS'chunktype'
p253
S'head:NP5'
p254
ssbsg28
I00
sg29
I00
sg30
Nsg31
Nsg32
I4
sg33
I0
sg34
Nsg35
Nsg36
S'NN'
p255
sg38
g238
sg39
I00
sba(issf_api
Word
p256
(dp257
g6
I00
sg7
V\u0915\u093e
p258
sg9
(issf_api
FeatureSet
p259
(dp260
g12
(dp261
S'posn'
p262
S'120'
p263
sS'name'
p264
S'\xe0\xa4\x95\xe0\xa4\xbe'
p265
sS'drel'
p266
S'lwg__psp:NP5'
p267
sS'chunktype'
p268
S'child:NP5'
p269
sS'af'
p270
S'\xe0\xa4\x95\xe0\xa4\xbe,psp,m,sg,,d,,'
p271
ssbsg28
I00
sg29
I00
sg30
Nsg31
Nsg32
I4
sg33
I0
sg34
Nsg35
Nsg36
S'PSP'
p272
sg38
g259
sg39
I00
sba(issf_api
Word
p273
(dp274
g6
I00
sg7
V\u092a\u0924\u093e
p275
sg9
(issf_api
FeatureSet
p276
(dp277
g12
(dp278
S'posn'
p279
S'130'
p280
sS'name'
p281
S'\xe0\xa4\xaa\xe0\xa4\xa4\xe0\xa4\xbe'
p282
sS'af'
p283
S'\xe0\xa4\xaa\xe0\xa4\xa4\xe0\xa4\xbe,n,m,sg,3,d,0,0'
p284
sS'chunkid'
p285
S'NP6'
p286
sS'drel'
p287
S'pof:VGNN'
p288
sS'chunktype'
p289
S'head:NP6'
p290
ssbsg28
I00
sg29
I00
sg30
Nsg31
Nsg32
I5
sg33
I0
sg34
Nsg35
Nsg36
S'NN'
p291
sg38
g276
sg39
I00
sba(issf_api
Word
p292
(dp293
g6
I00
sg7
V\u0932\u0917\u093e\u0928\u0947
p294
sg9
(issf_api
FeatureSet
p295
(dp296
g12
(dp297
S'posn'
p298
S'140'
p299
sS'name'
p300
S'\xe0\xa4\xb2\xe0\xa4\x97\xe0\xa4\xbe\xe0\xa4\xa8\xe0\xa5\x87'
p301
sS'af'
p302
S'\xe0\xa4\xb2\xe0\xa4\x97\xe0\xa4\xbe,v,any,any,any,o,\xe0\xa4\xa8\xe0\xa4\xbe_\xe0\xa4\x95\xe0\xa5\x87_\xe0\xa4\xb2\xe0\xa4\xbf\xe0\xa4\x8f,nA'
p303
sS'chunkid'
p304
S'VGNN'
p305
sS'drel'
p306
S'rt:VGF'
p307
sS'vpos'
p308
S'tam_2_3'
p309
sS'chunktype'
p310
S'head:VGNN'
p311
ssbsg28
I00
sg29
I00
sg30
Nsg31
Nsg32
I6
sg33
I0
sg34
Nsg35
Nsg36
S'VM'
p312
sg38
g295
sg39
I00
sba(issf_api
Word
p313
(dp314
g6
I00
sg7
V\u0915\u0947
p315
sg9
(issf_api
FeatureSet
p316
(dp317
g12
(dp318
S'posn'
p319
S'150'
p320
sS'name'
p321
S'\xe0\xa4\x95\xe0\xa5\x87'
p322
sS'drel'
p323
S'lwg__psp:VGNN'
p324
sS'chunktype'
p325
S'child:VGNN'
p326
sS'af'
p327
S'\xe0\xa4\x95\xe0\xa5\x87,psp,,,,,,'
p328
ssbsg28
I00
sg29
I00
sg30
Nsg31
Nsg32
I6
sg33
I0
sg34
Nsg35
Nsg36
S'PSP'
p329
sg38
g316
sg39
I00
sba(issf_api
Word
p330
(dp331
g6
I00
sg7
V\u0932\u093f\u090f
p332
sg9
(issf_api
FeatureSet
p333
(dp334
g12
(dp335
S'posn'
p336
S'160'
p337
sS'name'
p338
S'\xe0\xa4\xb2\xe0\xa4\xbf\xe0\xa4\x8f'
p339
sS'drel'
p340
S'lwg__psp:VGNN'
p341
sS'chunktype'
p342
S'child:VGNN'
p343
sS'af'
p344
S'\xe0\xa4\xb2\xe0\xa4\xbf\xe0\xa4\x8f,psp,,,,,,'
p345
ssbsg28
I00
sg29
I00
sg30
Nsg31
Nsg32
I6
sg33
I0
sg34
Nsg35
Nsg36
S'PSP'
p346
sg38
g333
sg39
I00
sba(issf_api
Word
p347
(dp348
g6
I00
sg7
V\u092e\u0928\u094b\u0935\u0948\u091c\u094d\u091e\u093e\u0928\u093f\u0915
p349
sg9
(issf_api
FeatureSet
p350
(dp351
g12
(dp352
S'posn'
p353
S'140'
p354
sS'name'
p355
S'\xe0\xa4\xae\xe0\xa4\xa8\xe0\xa5\x8b\xe0\xa4\xb5\xe0\xa5\x88\xe0\xa4\x9c\xe0\xa5\x8d\xe0\xa4\x9e\xe0\xa4\xbe\xe0\xa4\xa8\xe0\xa4\xbf\xe0\xa4\x95'
p356
sS'drel'
p357
S'pof__cn:NP7'
p358
sS'chunktype'
p359
S'child:NP7'
p360
sS'af'
p361
S'\xe0\xa4\xae\xe0\xa4\xa8\xe0\xa5\x8b\xe0\xa4\xb5\xe0\xa5\x88\xe0\xa4\x9c\xe0\xa5\x8d\xe0\xa4\x9e\xe0\xa4\xbe\xe0\xa4\xa8\xe0\xa4\xbf\xe0\xa4\x95,adj,any,any,,o,,'
p362
ssbsg28
I00
sg29
I00
sg30
Nsg31
Nsg32
I7
sg33
I0
sg34
Nsg35
Nsg36
S'NNC'
p363
sg38
g350
sg39
I00
sba(issf_api
Word
p364
(dp365
g6
I00
sg7
V\u0906\u0915\u0932\u0928
p366
sg9
(issf_api
FeatureSet
p367
(dp368
g12
(dp369
S'posn'
p370
S'180'
p371
sS'name'
p372
S'\xe0\xa4\x86\xe0\xa4\x95\xe0\xa4\xb2\xe0\xa4\xa8'
p373
sS'af'
p374
S'\xe0\xa4\x86\xe0\xa4\x95\xe0\xa4\xb2\xe0\xa4\xa8,n,m,sg,3,o,0_\xe0\xa4\xb8\xe0\xa4\xae\xe0\xa5\x87\xe0\xa4\xa4,0'
p375
sS'chunkid'
p376
S'NP7'
p377
sS'drel'
p378
S'ras-pof:VGF'
p379
sS'vpos'
p380
S'vib_3'
p381
sS'chunktype'
p382
S'head:NP7'
p383
ssbsg28
I00
sg29
I00
sg30
Nsg31
Nsg32
I7
sg33
I0
sg34
Nsg35
Nsg36
S'NN'
p384
sg38
g367
sg39
I00
sba(issf_api
Word
p385
(dp386
g6
I00
sg7
V\u0938\u092e\u0947\u0924
p387
sg9
(issf_api
FeatureSet
p388
(dp389
g12
(dp390
S'posn'
p391
S'190'
p392
sS'name'
p393
S'\xe0\xa4\xb8\xe0\xa4\xae\xe0\xa5\x87\xe0\xa4\xa4'
p394
sS'drel'
p395
S'lwg__psp:NP7'
p396
sS'chunktype'
p397
S'child:NP7'
p398
sS'af'
p399
S'\xe0\xa4\xb8\xe0\xa4\xae\xe0\xa5\x87\xe0\xa4\xa4,psp,,,,,,'
p400
ssbsg28
I00
sg29
I00
sg30
Nsg31
Nsg32
I7
sg33
I0
sg34
Nsg35
Nsg36
S'PSP'
p401
sg38
g388
sg39
I00
sba(issf_api
Word
p402
(dp403
g6
I00
sg7
V\u092e\u0947\u0921\u093f\u0915\u0932
p404
sg9
(issf_api
FeatureSet
p405
(dp406
g12
(dp407
S'posn'
p408
S'140'
p409
sS'name'
p410
S'\xe0\xa4\xae\xe0\xa5\x87\xe0\xa4\xa1\xe0\xa4\xbf\xe0\xa4\x95\xe0\xa4\xb2'
p411
sS'af'
p412
S'\xe0\xa4\xae\xe0\xa5\x87\xe0\xa4\xa1\xe0\xa4\xbf\xe0\xa4\x95\xe0\xa4\xb2,adj,any,any,,d,,'
p413
sS'drel'
p414
S'pof__cn:NP8'
p415
sS'chunktype'
p416
S'child:NP8'
p417
sS'cref'
p418
S'i4%0:t3'
p419
ssbsg28
I00
sg29
I00
sg30
Nsg31
Nsg32
I8
sg33
I0
sg34
Nsg35
Nsg36
S'NNC'
p420
sg38
g405
sg39
I00
sba(issf_api
Word
p421
(dp422
g6
I00
sg7
V\u091c\u093e\u0902\u091a
p423
sg9
(issf_api
FeatureSet
p424
(dp425
g12
(dp426
S'crefhead'
p427
S'\xe0\xa4\x9c\xe0\xa4\xbe\xe0\xa4\x82\xe0\xa4\x9a:i4'
p428
sS'posn'
p429
S'210'
p430
sS'name'
p431
S'\xe0\xa4\x9c\xe0\xa4\xbe\xe0\xa4\x82\xe0\xa4\x9a'
p432
sS'af'
p433
S'\xe0\xa4\x9c\xe0\xa4\xbe\xe0\xa4\x82\xe0\xa4\x9a,n,f,sg,3,d,0,0'
p434
sS'chunkid'
p435
S'NP8'
p436
sS'drel'
p437
S'pof:VGF'
p438
sS'chunktype'
p439
S'head:NP8'
p440
sS'cref'
p441
S'i4%1:t3'
p442
ssbsg28
I00
sg29
I00
sg30
Nsg31
Nsg32
I8
sg33
I0
sg34
Nsg35
Nsg36
S'NN'
p443
sg38
g424
sg39
I00
sba(issf_api
Word
p444
(dp445
g6
I00
sg7
V\u0915\u0940
p446
sg9
(issf_api
FeatureSet
p447
(dp448
g12
(dp449
S'posn'
p450
S'220'
p451
sS'name'
p452
S'\xe0\xa4\x95\xe0\xa5\x803'
p453
sS'af'
p454
S'\xe0\xa4\x95\xe0\xa4\xb0,v,f,sg,3,,\xe0\xa4\xaf\xe0\xa4\xbe_\xe0\xa4\x9c\xe0\xa4\xbe_\xe0\xa4\xb0\xe0\xa4\xb9+\xe0\xa4\xaf\xe0\xa4\xbe_\xe0\xa4\xb9\xe0\xa5\x88,yA'
p455
sS'chunkid'
p456
S'VGF'
p457
sS'chunktype'
p458
S'head:VGF'
p459
sS'voicetype'
p460
S'passive'
p461
sS'vpos'
p462
S'tam_2_3_4'
p463
sS'stype'
p464
S'declarative'
p465
ssbsg28
I00
sg29
I00
sg30
Nsg31
Nsg32
I9
sg33
I0
sg34
Nsg35
Nsg36
S'VM'
p466
sg38
g447
sg39
I00
sba(issf_api
Word
p467
(dp468
g6
I00
sg7
V\u091c\u093e
p469
sg9
(issf_api
FeatureSet
p470
(dp471
g12
(dp472
S'posn'
p473
S'230'
p474
sS'name'
p475
S'\xe0\xa4\x9c\xe0\xa4\xbe'
p476
sS'drel'
p477
S'lwg__vaux:VGF'
p478
sS'chunktype'
p479
S'child:VGF'
p480
sS'af'
p481
S'\xe0\xa4\x9c\xe0\xa4\xbe,v,any,any,any,,0,0'
p482
ssbsg28
I00
sg29
I00
sg30
Nsg31
Nsg32
I9
sg33
I0
sg34
Nsg35
Nsg36
S'VAUX'
p483
sg38
g470
sg39
I00
sba(issf_api
Word
p484
(dp485
g6
I00
sg7
V\u0930\u0939\u0940
p486
sg9
(issf_api
FeatureSet
p487
(dp488
g12
(dp489
S'posn'
p490
S'240'
p491
sS'name'
p492
S'\xe0\xa4\xb0\xe0\xa4\xb9\xe0\xa5\x80'
p493
sS'drel'
p494
S'lwg__vaux:VGF'
p495
sS'chunktype'
p496
S'child:VGF'
p497
sS'af'
p498
S'\xe0\xa4\xb0\xe0\xa4\xb9,v,f,sg,any,,\xe0\xa4\xaf\xe0\xa4\xbe,yA'
p499
ssbsg28
I00
sg29
I00
sg30
Nsg31
Nsg32
I9
sg33
I0
sg34
Nsg35
Nsg36
S'VAUX'
p500
sg38
g487
sg39
I00
sba(issf_api
Word
p501
(dp502
g6
I00
sg7
V\u0939\u0948
p503
sg9
(issf_api
FeatureSet
p504
(dp505
g12
(dp506
S'posn'
p507
S'250'
p508
sS'name'
p509
S'\xe0\xa4\xb9\xe0\xa5\x88'
p510
sS'drel'
p511
S'lwg__vaux:VGF'
p512
sS'chunktype'
p513
S'child:VGF'
p514
sS'af'
p515
S'\xe0\xa4\xb9\xe0\xa5\x88,v,any,sg,3,,\xe0\xa4\xb9\xe0\xa5\x88,hE'
p516
ssbsg28
I00
sg29
I00
sg30
Nsg31
Nsg32
I9
sg33
I0
sg34
Nsg35
Nsg36
S'VAUX'
p517
sg38
g504
sg39
I00
sba(issf_api
Word
p518
(dp519
g6
I00
sg7
V\u0964
p520
sg9
(issf_api
FeatureSet
p521
(dp522
g12
(dp523
S'posn'
p524
S'260'
p525
sS'name'
p526
S'\xe0\xa5\xa4'
p527
sS'af'
p528
S'\xe0\xa5\xa4,punc,,,,,,'
p529
sS'chunkid'
p530
S'BLK'
p531
sS'drel'
p532
S'rsym:VGF'
p533
sS'chunktype'
p534
S'head:BLK'
p535
ssbsg28
I00
sg29
I00
sg30
Nsg31
Nsg32
I10
sg33
I0
sg34
Nsg35
Nsg36
S'SYM'
p536
sg38
g521
sg39
I00
sba(issf_api
Word
p537
(dp538
g6
I00
sg7
V\u0935\u093e\u092f\u0941\u0938\u0947\u0928\u093e
p539
sg9
(issf_api
FeatureSet
p540
(dp541
g12
(dp542
S'crefhead'
p543
S'\xe0\xa4\xb5\xe0\xa4\xbe\xe0\xa4\xaf\xe0\xa5\x81\xe0\xa4\xb8\xe0\xa5\x87\xe0\xa4\xa8\xe0\xa4\xbe:i5'
p544
sS'posn'
p545
S'10'
p546
sS'name'
p547
S'\xe0\xa4\xb5\xe0\xa4\xbe\xe0\xa4\xaf\xe0\xa5\x81\xe0\xa4\xb8\xe0\xa5\x87\xe0\xa4\xa8\xe0\xa4\xbe'
p548
sS'af'
p549
S'\xe0\xa4\xb5\xe0\xa4\xbe\xe0\xa4\xaf\xe0\xa5\x81\xe0\xa4\xb8\xe0\xa5\x87\xe0\xa4\xa8\xe0\xa4\xbe,n,f,sg,3,o,0_\xe0\xa4\x95\xe0\xa4\xbe,0'
p550
sS'acrefmodhead'
p551
S'\xe0\xa4\xb5\xe0\xa4\xbe\xe0\xa4\xaf\xe0\xa5\x81\xe0\xa4\xb8\xe0\xa5\x87\xe0\xa4\xa8\xe0\xa4\xbe:m2'
p552
sS'chunkid'
p553
S'NP'
p554
sS'acrefmod'
p555
S'm2%1:i6'
p556
sS'creftype'
p557
S'Coreference-Identity:i1'
p558
sS'chunktype'
p559
S'head:NP'
p560
sS'vpos'
p561
S'vib_2'
p562
sS'cref'
p563
S'i5%1:t1'
p564
sS'drel'
p565
S'r6:NP2'
p566
ssbsg28
I00
sg29
I00
sg30
Nsg31
Nsg32
I0
sg33
I1
sg34
Nsg35
Nsg36
S'NN'
p567
sg38
g540
sg39
I00
sba(issf_api
Word
p568
(dp569
g6
I00
sg7
V\u0915\u0947
p570
sg9
(issf_api
FeatureSet
p571
(dp572
g12
(dp573
S'posn'
p574
S'20'
p575
sS'name'
p576
S'\xe0\xa4\x95\xe0\xa5\x87'
p577
sS'drel'
p578
S'lwg__psp:NP'
p579
sS'chunktype'
p580
S'child:NP'
p581
sS'af'
p582
S'\xe0\xa4\x95\xe0\xa4\xbe,psp,m,sg,,o,,'
p583
ssbsg28
I00
sg29
I00
sg30
Nsg31
Nsg32
I0
sg33
I1
sg34
Nsg35
Nsg36
S'PSP'
p584
sg38
g571
sg39
I00
sba(issf_api
Word
p585
(dp586
g6
I00
sg7
V\u0905\u092d\u093f\u092f\u094b\u091c\u0928
p587
sg9
(issf_api
FeatureSet
p588
(dp589
g12
(dp590
S'posn'
p591
S'30'
p592
sS'name'
p593
S'\xe0\xa4\x85\xe0\xa4\xad\xe0\xa4\xbf\xe0\xa4\xaf\xe0\xa5\x8b\xe0\xa4\x9c\xe0\xa4\xa8'
p594
sS'af'
p595
S'\xe0\xa4\x85\xe0\xa4\xad\xe0\xa4\xbf\xe0\xa4\xaf\xe0\xa5\x8b\xe0\xa4\x9c\xe0\xa4\xa8,n,m,sg,3,d,0,0'
p596
sS'drel'
p597
S'pof__cn:NP2'
p598
sS'chunktype'
p599
S'child:NP2'
p600
sS'cref'
p601
S'i6%0:t4'
p602
ssbsg28
I00
sg29
I00
sg30
Nsg31
Nsg32
I1
sg33
I1
sg34
Nsg35
Nsg36
S'NNC'
p603
sg38
g588
sg39
I00
sba(issf_api
Word
p604
(dp605
g6
I00
sg7
V\u0905\u0927\u093f\u0915\u093e\u0930\u0940
p606
sg9
(issf_api
FeatureSet
p607
(dp608
g12
(dp609
S'crefhead'
p610
S'\xe0\xa4\x85\xe0\xa4\xa7\xe0\xa4\xbf\xe0\xa4\x95\xe0\xa4\xbe\xe0\xa4\xb0\xe0\xa5\x80:i6'
p611
sS'posn'
p612
S'40'
p613
sS'name'
p614
S'\xe0\xa4\x85\xe0\xa4\xa7\xe0\xa4\xbf\xe0\xa4\x95\xe0\xa4\xbe\xe0\xa4\xb0\xe0\xa5\x80'
p615
sS'af'
p616
S'\xe0\xa4\x85\xe0\xa4\xa7\xe0\xa4\xbf\xe0\xa4\x95\xe0\xa4\xbe\xe0\xa4\xb0\xe0\xa5\x80,n,m,sg,3,o,0,0'
p617
sS'chunkid'
p618
S'NP2'
p619
sS'crefmod'
p620
S'm2:i6'
p621
sS'chunktype'
p622
S'head:NP2'
p623
sS'cref'
p624
S'i6%1:t4'
p625
sS'drel'
p626
S'nmod:NP3'
p627
ssbsg28
I00
sg29
I00
sg30
Nsg31
Nsg32
I1
sg33
I1
sg34
Nsg35
Nsg36
S'NN'
p628
sg38
g607
sg39
I00
sba(issf_api
Word
p629
(dp630
g6
I00
sg7
V\u0935\u093f\u0902\u0917
p631
sg9
(issf_api
FeatureSet
p632
(dp633
g12
(dp634
S'posn'
p635
S'50'
p636
sS'name'
p637
S'\xe0\xa4\xb5\xe0\xa4\xbf\xe0\xa4\x82\xe0\xa4\x97'
p638
sS'af'
p639
S'\xe0\xa4\xb5\xe0\xa4\xbf\xe0\xa4\x82\xe0\xa4\x97,n,m,sg,3,d,0,0'
p640
sS'drel'
p641
S'pof__cn:NP3'
p642
sS'chunktype'
p643
S'child:NP3'
p644
sS'cref'
p645
S'i7%0:t4'
p646
ssbsg28
I00
sg29
I00
sg30
Nsg31
Nsg32
I2
sg33
I1
sg34
Nsg35
Nsg36
S'NNC'
p647
sg38
g632
sg39
I00
sba(issf_api
Word
p648
(dp649
g6
I00
sg7
V\u0915\u092e\u093e\u0902\u0921\u0930
p650
sg9
(issf_api
FeatureSet
p651
(dp652
g12
(dp653
S'crefhead'
p654
S'\xe0\xa4\x95\xe0\xa4\xae\xe0\xa4\xbe\xe0\xa4\x82\xe0\xa4\xa1\xe0\xa4\xb0:i7'
p655
sS'posn'
p656
S'60'
p657
sS'name'
p658
S'\xe0\xa4\x95\xe0\xa4\xae\xe0\xa4\xbe\xe0\xa4\x82\xe0\xa4\xa1\xe0\xa4\xb0'
p659
sS'af'
p660
S'\xe0\xa4\x95\xe0\xa4\xae\xe0\xa4\xbe\xe0\xa4\x82\xe0\xa4\xa1\xe0\xa4\xb0,n,m,sg,3,d,0,0'
p661
sS'creftype'
p662
S'Coreference-Noun-Noun:i6'
p663
sS'drel'
p664
S'pof__cn:NP3'
p665
sS'chunktype'
p666
S'child:NP3'
p667
sS'cref'
p668
S'i7%1:t4'
p669
ssbsg28
I00
sg29
I00
sg30
Nsg31
Nsg32
I2
sg33
I1
sg34
Nsg35
Nsg36
S'NNC'
p670
sg38
g651
sg39
I00
sba(issf_api
Word
p671
(dp672
g6
I00
sg7
V\u0906\u0930.
p673
sg9
(issf_api
FeatureSet
p674
(dp675
g12
(dp676
S'posn'
p677
S'70'
p678
sS'name'
p679
S'\xe0\xa4\x86\xe0\xa4\xb0.'
p680
sS'af'
p681
S'\xe0\xa4\x86\xe0\xa4\xb0.,n,m,sg,3,d,0,0'
p682
sS'drel'
p683
S'pof__cn:NP3'
p684
sS'chunktype'
p685
S'child:NP3'
p686
sS'cref'
p687
S'i8%0:t4'
p688
ssbsg28
I00
sg29
I00
sg30
Nsg31
Nsg32
I2
sg33
I1
sg34
Nsg35
Nsg36
S'NNPC'
p689
sg38
g674
sg39
I00
sba(issf_api
Word
p690
(dp691
g6
I00
sg7
V\u0915\u0947.
p692
sg9
(issf_api
FeatureSet
p693
(dp694
g12
(dp695
S'posn'
p696
S'80'
p697
sS'name'
p698
S'\xe0\xa4\x95\xe0\xa5\x87.'
p699
sS'af'
p700
S'\xe0\xa4\x95\xe0\xa5\x87.,n,m,sg,3,d,0,0'
p701
sS'drel'
p702
S'pof__cn:NP3'
p703
sS'chunktype'
p704
S'child:NP3'
p705
sS'cref'
p706
S'i8%0:t4'
p707
ssbsg28
I00
sg29
I00
sg30
Nsg31
Nsg32
I2
sg33
I1
sg34
Nsg35
Nsg36
S'NNPC'
p708
sg38
g693
sg39
I00
sba(issf_api
Word
p709
(dp710
g6
I00
sg7
V\u0926\u0941\u092c\u0947
p711
sg9
(issf_api
FeatureSet
p712
(dp713
g12
(dp714
S'crefhead'
p715
S'\xe0\xa4\xa6\xe0\xa5\x81\xe0\xa4\xac\xe0\xa5\x87:i8'
p716
sS'posn'
p717
S'90'
p718
sS'name'
p719
S'\xe0\xa4\xa6\xe0\xa5\x81\xe0\xa4\xac\xe0\xa5\x87'
p720
sS'af'
p721
S'\xe0\xa4\xa6\xe0\xa5\x81\xe0\xa4\xac\xe0\xa5\x87,n,any,sg,3,o,0_\xe0\xa4\xa8\xe0\xa5\x87,0'
p722
sS'chunkid'
p723
S'NP3'
p724
sS'creftype'
p725
S'Coreference-NounComplement:i7'
p726
sS'chunktype'
p727
S'head:NP3'
p728
sS'crefchainhead'
p729
S'i8:t4'
p730
sS'vpos'
p731
S'vib_6'
p732
sS'cref'
p733
S'i8%1:t4'
p734
sS'drel'
p735
S'k1:VGF'
p736
ssbsg28
I00
sg29
I00
sg30
Nsg31
Nsg32
I2
sg33
I1
sg34
Nsg35
Nsg36
S'NNP'
p737
sg38
g712
sg39
I00
sba(issf_api
Word
p738
(dp739
g6
I00
sg7
V\u0928\u0947
p740
sg9
(issf_api
FeatureSet
p741
(dp742
g12
(dp743
S'posn'
p744
S'100'
p745
sS'name'
p746
S'\xe0\xa4\xa8\xe0\xa5\x87'
p747
sS'drel'
p748
S'lwg__psp:NP3'
p749
sS'chunktype'
p750
S'child:NP3'
p751
sS'af'
p752
S'\xe0\xa4\xa8\xe0\xa5\x87,psp,,,,,,'
p753
ssbsg28
I00
sg29
I00
sg30
Nsg31
Nsg32
I2
sg33
I1
sg34
Nsg35
Nsg36
S'PSP'
p754
sg38
g741
sg39
I00
sba(issf_api
Word
p755
(dp756
g6
I00
sg7
V\u0938\u0948\u0928\u093f\u0915
p757
sg9
(issf_api
FeatureSet
p758
(dp759
g12
(dp760
S'posn'
p761
S'110'
p762
sS'name'
p763
S'\xe0\xa4\xb8\xe0\xa5\x88\xe0\xa4\xa8\xe0\xa4\xbf\xe0\xa4\x95'
p764
sS'af'
p765
S'\xe0\xa4\xb8\xe0\xa5\x88\xe0\xa4\xa8\xe0\xa4\xbf\xe0\xa4\x95,n,m,sg,3,d,0,0'
p766
sS'drel'
p767
S'pof__cn:NP4'
p768
sS'chunktype'
p769
S'child:NP4'
p770
sS'cref'
p771
S'i9%0:t5'
p772
ssbsg28
I00
sg29
I00
sg30
Nsg31
Nsg32
I3
sg33
I1
sg34
Nsg35
Nsg36
S'NNC'
p773
sg38
g758
sg39
I00
sba(issf_api
Word
p774
(dp775
g6
I00
sg7
V\u0905\u0926\u093e\u0932\u0924
p776
sg9
(issf_api
FeatureSet
p777
(dp778
g12
(dp779
S'crefhead'
p780
S'\xe0\xa4\x85\xe0\xa4\xa6\xe0\xa4\xbe\xe0\xa4\xb2\xe0\xa4\xa4:i9'
p781
sS'posn'
p782
S'120'
p783
sS'name'
p784
S'\xe0\xa4\x85\xe0\xa4\xa6\xe0\xa4\xbe\xe0\xa4\xb2\xe0\xa4\xa4'
p785
sS'af'
p786
S'\xe0\xa4\x85\xe0\xa4\xa6\xe0\xa4\xbe\xe0\xa4\xb2\xe0\xa4\xa4,n,f,sg,3,o,0_\xe0\xa4\x95\xe0\xa5\x8b,0'
p787
sS'chunkid'
p788
S'NP4'
p789
sS'chunktype'
p790
S'head:NP4'
p791
sS'crefchainhead'
p792
S'i9:t5'
p793
sS'vpos'
p794
S'vib_3'
p795
sS'cref'
p796
S'i9%1:t5'
p797
sS'drel'
p798
S'k4:VGF'
p799
ssbsg28
I00
sg29
I00
sg30
Nsg31
Nsg32
I3
sg33
I1
sg34
Nsg35
Nsg36
S'NN'
p800
sg38
g777
sg39
I00
sba(issf_api
Word
p801
(dp802
g6
I00
sg7
V\u0915\u094b
p803
sg9
(issf_api
FeatureSet
p804
(dp805
g12
(dp806
S'posn'
p807
S'130'
p808
sS'name'
p809
S'\xe0\xa4\x95\xe0\xa5\x8b'
p810
sS'drel'
p811
S'lwg__psp:NP4'
p812
sS'chunktype'
p813
S'child:NP4'
p814
sS'af'
p815
S'\xe0\xa4\x95\xe0\xa5\x8b,psp,,,,,,'
p816
ssbsg28
I00
sg29
I00
sg30
Nsg31
Nsg32
I3
sg33
I1
sg34
Nsg35
Nsg36
S'PSP'
p817
sg38
g804
sg39
I00
sba(issf_api
Word
p818
(dp819
g6
I00
sg7
V\u0938\u0942\u091a\u093f\u0924
p820
sg9
(issf_api
FeatureSet
p821
(dp822
g12
(dp823
S'posn'
p824
S'140'
p825
sS'name'
p826
S'\xe0\xa4\xb8\xe0\xa5\x82\xe0\xa4\x9a\xe0\xa4\xbf\xe0\xa4\xa4'
p827
sS'af'
p828
S'\xe0\xa4\xb8\xe0\xa5\x82\xe0\xa4\x9a\xe0\xa4\xbf\xe0\xa4\xa4,adj,any,any,,,,'
p829
sS'chunkid'
p830
S'JJP'
p831
sS'drel'
p832
S'pof:VGF'
p833
sS'chunktype'
p834
S'head:JJP'
p835
ssbsg28
I00
sg29
I00
sg30
Nsg31
Nsg32
I4
sg33
I1
sg34
Nsg35
Nsg36
S'JJ'
p836
sg38
g821
sg39
I00
sba(issf_api
Word
p837
(dp838
g6
I00
sg7
V\u0915\u093f\u092f\u093e
p839
sg9
(issf_api
FeatureSet
p840
(dp841
g12
(dp842
S'posn'
p843
S'150'
p844
sS'name'
p845
S'\xe0\xa4\x95\xe0\xa4\xbf\xe0\xa4\xaf\xe0\xa4\xbe'
p846
sS'af'
p847
S'\xe0\xa4\x95\xe0\xa4\xb0,v,m,sg,any,,\xe0\xa4\xaf\xe0\xa4\xbe,yA'
p848
sS'chunkid'
p849
S'VGF'
p850
sS'chunktype'
p851
S'head:VGF'
p852
sS'voicetype'
p853
S'active'
p854
sS'stype'
p855
S'declarative'
p856
ssbsg28
I00
sg29
I00
sg30
Nsg31
Nsg32
I5
sg33
I1
sg34
Nsg35
Nsg36
S'VM'
p857
sg38
g840
sg39
I00
sba(issf_api
Word
p858
(dp859
g6
I00
sg7
V\u0915\u093f
p860
sg9
(issf_api
FeatureSet
p861
(dp862
g12
(dp863
S'posn'
p864
S'160'
p865
sS'name'
p866
S'\xe0\xa4\x95\xe0\xa4\xbf'
p867
sS'af'
p868
S'\xe0\xa4\x95\xe0\xa4\xbf,avy,,,,,,'
p869
sS'chunkid'
p870
S'CCP'
p871
sS'drel'
p872
S'k2:VGF'
p873
sS'chunktype'
p874
S'head:CCP'
p875
ssbsg28
I00
sg29
I00
sg30
Nsg31
Nsg32
I6
sg33
I1
sg34
Nsg35
Nsg36
S'CC'
p876
sg38
g861
sg39
I00
sba(issf_api
Word
p877
(dp878
g6
I00
sg7
V\u0921\u0949\u0915\u094d\u091f\u0930\u094b\u0902
p879
sg9
(issf_api
FeatureSet
p880
(dp881
g12
(dp882
S'posn'
p883
S'170'
p884
sS'name'
p885
S'\xe0\xa4\xa1\xe0\xa5\x89\xe0\xa4\x95\xe0\xa5\x8d\xe0\xa4\x9f\xe0\xa4\xb0\xe0\xa5\x8b\xe0\xa4\x82'
p886
sS'af'
p887
S'\xe0\xa4\xa1\xe0\xa5\x89\xe0\xa4\x95\xe0\xa5\x8d\xe0\xa4\x9f\xe0\xa4\xb0,n,m,pl,3,o,0_\xe0\xa4\x95\xe0\xa4\xbe,0'
p888
sS'acrefmodhead'
p889
S'\xe0\xa4\xa1\xe0\xa5\x89\xe0\xa4\x95\xe0\xa5\x8d\xe0\xa4\x9f\xe0\xa4\xb0\xe0\xa5\x8b\xe0\xa4\x82:m3'
p890
sS'chunkid'
p891
S'NP5'
p892
sS'acrefmod'
p893
S'm3%1:i10'
p894
sS'drel'
p895
S'r6:NP6'
p896
sS'vpos'
p897
S'vib_2'
p898
sS'chunktype'
p899
S'head:NP5'
p900
ssbsg28
I00
sg29
I00
sg30
Nsg31
Nsg32
I7
sg33
I1
sg34
Nsg35
Nsg36
S'NN'
p901
sg38
g880
sg39
I00
sba(issf_api
Word
p902
(dp903
g6
I00
sg7
V\u0915\u093e
p904
sg9
(issf_api
FeatureSet
p905
(dp906
g12
(dp907
S'posn'
p908
S'180'
p909
sS'name'
p910
S'\xe0\xa4\x95\xe0\xa4\xbe'
p911
sS'drel'
p912
S'lwg__psp:NP5'
p913
sS'chunktype'
p914
S'child:NP5'
p915
sS'af'
p916
S'\xe0\xa4\x95\xe0\xa4\xbe,psp,m,sg,,d,,'
p917
ssbsg28
I00
sg29
I00
sg30
Nsg31
Nsg32
I7
sg33
I1
sg34
Nsg35
Nsg36
S'PSP'
p918
sg38
g905
sg39
I00
sba(issf_api
Word
p919
(dp920
g6
I00
sg7
V\u092a\u0948\u0928\u0932
p921
sg9
(issf_api
FeatureSet
p922
(dp923
g12
(dp924
S'crefhead'
p925
S'\xe0\xa4\xaa\xe0\xa5\x88\xe0\xa4\xa8\xe0\xa4\xb2:i10'
p926
sS'posn'
p927
S'190'
p928
sS'name'
p929
S'\xe0\xa4\xaa\xe0\xa5\x88\xe0\xa4\xa8\xe0\xa4\xb2'
p930
sS'af'
p931
S'\xe0\xa4\xaa\xe0\xa5\x88\xe0\xa4\xa8\xe0\xa4\xb2,n,m,sg,3,d,0,0'
p932
sS'chunkid'
p933
S'NP6'
p934
sS'crefmod'
p935
S'm3:i10'
p936
sS'chunktype'
p937
S'head:NP6'
p938
sS'crefchainhead'
p939
S'i10:t6'
p940
sS'cref'
p941
S'i10%1:t6'
p942
sS'drel'
p943
S'k2:VGF2'
p944
ssbsg28
I00
sg29
I00
sg30
Nsg31
Nsg32
I8
sg33
I1
sg34
Nsg35
Nsg36
S'NN'
p945
sg38
g922
sg39
I00
sba(issf_api
Word
p946
(dp947
g6
I00
sg7
V\u0917\u0920\u093f\u0924
p948
sg9
(issf_api
FeatureSet
p949
(dp950
g12
(dp951
S'posn'
p952
S'200'
p953
sS'name'
p954
S'\xe0\xa4\x97\xe0\xa4\xa0\xe0\xa4\xbf\xe0\xa4\xa4'
p955
sS'af'
p956
S'\xe0\xa4\x97\xe0\xa4\xa0\xe0\xa4\xbf\xe0\xa4\xa4,adj,any,any,,,,'
p957
sS'chunkid'
p958
S'JJP2'
p959
sS'drel'
p960
S'pof:VGF2'
p961
sS'chunktype'
p962
S'head:JJP2'
p963
ssbsg28
I00
sg29
I00
sg30
Nsg31
Nsg32
I9
sg33
I1
sg34
Nsg35
Nsg36
S'JJ'
p964
sg38
g949
sg39
I00
sba(issf_api
Word
p965
(dp966
g6
I00
sg7
V\u0915\u093f\u092f\u093e
p967
sg9
(issf_api
FeatureSet
p968
(dp969
g12
(dp970
S'posn'
p971
S'210'
p972
sS'name'
p973
S'\xe0\xa4\x95\xe0\xa4\xbf\xe0\xa4\xaf\xe0\xa4\xbe2'
p974
sS'af'
p975
S'\xe0\xa4\x95\xe0\xa4\xb0,v,m,sg,3,,\xe0\xa4\xaf\xe0\xa4\xbe_\xe0\xa4\x9c\xe0\xa4\xbe+\xe0\xa4\xaf\xe0\xa4\xbe\xe0\xa5\xa7_\xe0\xa4\xb9\xe0\xa5\x88,yA'
p976
sS'chunkid'
p977
S'VGF2'
p978
sS'stype'
p979
S'declarative'
p980
sS'drel'
p981
S'ccof:CCP2'
p982
sS'voicetype'
p983
S'passive'
p984
sS'vpos'
p985
S'tam_2_3'
p986
sS'chunktype'
p987
S'head:VGF2'
p988
ssbsg28
I00
sg29
I00
sg30
Nsg31
Nsg32
I10
sg33
I1
sg34
Nsg35
Nsg36
S'VM'
p989
sg38
g968
sg39
I00
sba(issf_api
Word
p990
(dp991
g6
I00
sg7
V\u0917\u092f\u093e
p992
sg9
(issf_api
FeatureSet
p993
(dp994
g12
(dp995
S'posn'
p996
S'220'
p997
sS'name'
p998
S'\xe0\xa4\x97\xe0\xa4\xaf\xe0\xa4\xbe'
p999
sS'drel'
p1000
S'lwg__vaux:VGF2'
p1001
sS'chunktype'
p1002
S'child:VGF2'
p1003
sS'af'
p1004
S'\xe0\xa4\x9c\xe0\xa4\xbe,v,m,sg,any,,\xe0\xa4\xaf\xe0\xa4\xbe\xe0\xa5\xa7,yA1'
p1005
ssbsg28
I00
sg29
I00
sg30
Nsg31
Nsg32
I10
sg33
I1
sg34
Nsg35
Nsg36
S'VAUX'
p1006
sg38
g993
sg39
I00
sba(issf_api
Word
p1007
(dp1008
g6
I00
sg7
V\u0939\u0948
p1009
sg9
(issf_api
FeatureSet
p1010
(dp1011
g12
(dp1012
S'posn'
p1013
S'230'
p1014
sS'name'
p1015
S'\xe0\xa4\xb9\xe0\xa5\x88'
p1016
sS'drel'
p1017
S'lwg__vaux:VGF2'
p1018
sS'chunktype'
p1019
S'child:VGF2'
p1020
sS'af'
p1021
S'\xe0\xa4\xb9\xe0\xa5\x88,v,any,sg,3,,\xe0\xa4\xb9\xe0\xa5\x88,hE'
p1022
ssbsg28
I00
sg29
I00
sg30
Nsg31
Nsg32
I10
sg33
I1
sg34
Nsg35
Nsg36
S'VAUX'
p1023
sg38
g1010
sg39
I00
sba(issf_api
Word
p1024
(dp1025
g6
I00
sg7
V\u0914\u0930
p1026
sg9
(issf_api
FeatureSet
p1027
(dp1028
g12
(dp1029
S'posn'
p1030
S'240'
p1031
sS'name'
p1032
S'\xe0\xa4\x94\xe0\xa4\xb0'
p1033
sS'af'
p1034
S'\xe0\xa4\x94\xe0\xa4\xb0,avy,,,,,,'
p1035
sS'chunkid'
p1036
S'CCP2'
p1037
sS'drel'
p1038
S'ccof:CCP'
p1039
sS'chunktype'
p1040
S'head:CCP2'
p1041
ssbsg28
I00
sg29
I00
sg30
Nsg31
Nsg32
I11
sg33
I1
sg34
Nsg35
Nsg36
S'CC'
p1042
sg38
g1027
sg39
I00
sba(issf_api
Word
p1043
(dp1044
g6
I00
sg7
V\u091c\u093e\u0902\u091a
p1045
sg9
(issf_api
FeatureSet
p1046
(dp1047
g12
(dp1048
S'crefhead'
p1049
S'\xe0\xa4\x9c\xe0\xa4\xbe\xe0\xa4\x82\xe0\xa4\x9a:i11'
p1050
sS'posn'
p1051
S'250'
p1052
sS'name'
p1053
S'\xe0\xa4\x9c\xe0\xa4\xbe\xe0\xa4\x82\xe0\xa4\x9a'
p1054
sS'af'
p1055
S'\xe0\xa4\x9c\xe0\xa4\xbe\xe0\xa4\x82\xe0\xa4\x9a,n,f,sg,3,d,0,0'
p1056
sS'chunkid'
p1057
S'NP7'
p1058
sS'creftype'
p1059
S'Coreference-Identity:i4'
p1060
sS'chunktype'
p1061
S'head:NP7'
p1062
sS'cref'
p1063
S'i11%1:t3'
p1064
sS'drel'
p1065
S'pof:VGF3'
p1066
ssbsg28
I00
sg29
I00
sg30
Nsg31
Nsg32
I12
sg33
I1
sg34
Nsg35
Nsg36
S'NN'
p1067
sg38
g1046
sg39
I00
sba(issf_api
Word
p1068
(dp1069
g6
I00
sg7
V\u0915\u0940
p1070
sg9
(issf_api
FeatureSet
p1071
(dp1072
g12
(dp1073
S'posn'
p1074
S'260'
p1075
sS'name'
p1076
S'\xe0\xa4\x95\xe0\xa5\x80'
p1077
sS'af'
p1078
S'\xe0\xa4\x95\xe0\xa4\xb0,v,f,sg,3,,\xe0\xa4\xaf\xe0\xa4\xbe_\xe0\xa4\x9c\xe0\xa4\xbe_\xe0\xa4\xb0\xe0\xa4\xb9+\xe0\xa4\xaf\xe0\xa4\xbe_\xe0\xa4\xb9\xe0\xa5\x88,yA'
p1079
sS'chunkid'
p1080
S'VGF3'
p1081
sS'stype'
p1082
S'declarative'
p1083
sS'drel'
p1084
S'ccof:CCP2'
p1085
sS'voicetype'
p1086
S'passive'
p1087
sS'vpos'
p1088
S'tam_2_3_4'
p1089
sS'chunktype'
p1090
S'head:VGF3'
p1091
ssbsg28
I00
sg29
I00
sg30
Nsg31
Nsg32
I13
sg33
I1
sg34
Nsg35
Nsg36
S'VM'
p1092
sg38
g1071
sg39
I00
sba(issf_api
Word
p1093
(dp1094
g6
I00
sg7
V\u091c\u093e
p1095
sg9
(issf_api
FeatureSet
p1096
(dp1097
g12
(dp1098
S'posn'
p1099
S'270'
p1100
sS'name'
p1101
S'\xe0\xa4\x9c\xe0\xa4\xbe'
p1102
sS'drel'
p1103
S'lwg__vaux:VGF3'
p1104
sS'chunktype'
p1105
S'child:VGF3'
p1106
sS'af'
p1107
S'\xe0\xa4\x9c\xe0\xa4\xbe,v,any,any,any,,0,0'
p1108
ssbsg28
I00
sg29
I00
sg30
Nsg31
Nsg32
I13
sg33
I1
sg34
Nsg35
Nsg36
S'VAUX'
p1109
sg38
g1096
sg39
I00
sba(issf_api
Word
p1110
(dp1111
g6
I00
sg7
V\u0930\u0939\u0940
p1112
sg9
(issf_api
FeatureSet
p1113
(dp1114
g12
(dp1115
S'posn'
p1116
S'280'
p1117
sS'name'
p1118
S'\xe0\xa4\xb0\xe0\xa4\xb9\xe0\xa5\x80'
p1119
sS'drel'
p1120
S'lwg__vaux:VGF3'
p1121
sS'chunktype'
p1122
S'child:VGF3'
p1123
sS'af'
p1124
S'\xe0\xa4\xb0\xe0\xa4\xb9,v,f,sg,any,,\xe0\xa4\xaf\xe0\xa4\xbe,yA'
p1125
ssbsg28
I00
sg29
I00
sg30
Nsg31
Nsg32
I13
sg33
I1
sg34
Nsg35
Nsg36
S'VAUX'
p1126
sg38
g1113
sg39
I00
sba(issf_api
Word
p1127
(dp1128
g6
I00
sg7
V\u0939\u0948
p1129
sg9
(issf_api
FeatureSet
p1130
(dp1131
g12
(dp1132
S'posn'
p1133
S'290'
p1134
sS'name'
p1135
S'\xe0\xa4\xb9\xe0\xa5\x882'
p1136
sS'drel'
p1137
S'lwg__vaux:VGF3'
p1138
sS'chunktype'
p1139
S'child:VGF3'
p1140
sS'af'
p1141
S'\xe0\xa4\xb9\xe0\xa5\x88,v,any,sg,3,,\xe0\xa4\xb9\xe0\xa5\x88,hE'
p1142
ssbsg28
I00
sg29
I00
sg30
Nsg31
Nsg32
I13
sg33
I1
sg34
Nsg35
Nsg36
S'VAUX'
p1143
sg38
g1130
sg39
I00
sba(issf_api
Word
p1144
(dp1145
g6
I00
sg7
V\u0964
p1146
sg9
(issf_api
FeatureSet
p1147
(dp1148
g12
(dp1149
S'posn'
p1150
S'300'
p1151
sS'name'
p1152
S'\xe0\xa5\xa4'
p1153
sS'af'
p1154
S'\xe0\xa5\xa4,punc,,,,,,'
p1155
sS'chunkid'
p1156
S'BLK'
p1157
sS'drel'
p1158
S'rsym:VGF'
p1159
sS'chunktype'
p1160
S'head:BLK'
p1161
ssbsg28
I00
sg29
I00
sg30
Nsg31
Nsg32
I14
sg33
I1
sg34
Nsg35
Nsg36
S'SYM'
p1162
sg38
g1147
sg39
I00
sba(issf_api
Word
p1163
(dp1164
g6
I00
sg7
V\u0909\u0928\u094d\u0939\u094b\u0902\u0928\u0947
p1165
sg9
(issf_api
FeatureSet
p1166
(dp1167
g12
(dp1168
S'crefhead'
p1169
S'\xe0\xa4\x89\xe0\xa4\xa8\xe0\xa5\x8d\xe0\xa4\xb9\xe0\xa5\x8b\xe0\xa4\x82\xe0\xa4\xa8\xe0\xa5\x87:i12'
p1170
sS'posn'
p1171
S'10'
p1172
sS'name'
p1173
S'\xe0\xa4\x89\xe0\xa4\xa8\xe0\xa5\x8d\xe0\xa4\xb9\xe0\xa5\x8b\xe0\xa4\x82\xe0\xa4\xa8\xe0\xa5\x87'
p1174
sS'af'
p1175
S'\xe0\xa4\xb5\xe0\xa4\xb9,pn,any,sg,3h,o,\xe0\xa4\xa8\xe0\xa5\x87,ne'
p1176
sS'chunkid'
p1177
S'NP'
p1178
sS'creftype'
p1179
S'Anaphora-C:i8'
p1180
sS'chunktype'
p1181
S'head:NP'
p1182
sS'cref'
p1183
S'i12%1:t4'
p1184
sS'drel'
p1185
S'k1:VGF'
p1186
ssbsg28
I00
sg29
I00
sg30
Nsg31
Nsg32
I0
sg33
I2
sg34
Nsg35
Nsg36
S'PRP'
p1187
sg38
g1166
sg39
I00
sba(issf_api
Word
p1188
(dp1189
g6
I00
sg7
V\u0915\u0939\u093e
p1190
sg9
(issf_api
FeatureSet
p1191
(dp1192
g12
(dp1193
S'posn'
p1194
S'20'
p1195
sS'name'
p1196
S'\xe0\xa4\x95\xe0\xa4\xb9\xe0\xa4\xbe'
p1197
sS'af'
p1198
S'\xe0\xa4\x95\xe0\xa4\xb9,v,m,sg,any,,\xe0\xa4\xaf\xe0\xa4\xbe,yA'
p1199
sS'chunkid'
p1200
S'VGF'
p1201
sS'chunktype'
p1202
S'head:VGF'
p1203
sS'voicetype'
p1204
S'active'
p1205
sS'stype'
p1206
S'declarative'
p1207
ssbsg28
I00
sg29
I00
sg30
Nsg31
Nsg32
I1
sg33
I2
sg34
Nsg35
Nsg36
S'VM'
p1208
sg38
g1191
sg39
I00
sba(issf_api
Word
p1209
(dp1210
g6
I00
sg7
V\u0915\u093f
p1211
sg9
(issf_api
FeatureSet
p1212
(dp1213
g12
(dp1214
S'posn'
p1215
S'30'
p1216
sS'name'
p1217
S'\xe0\xa4\x95\xe0\xa4\xbf'
p1218
sS'af'
p1219
S'\xe0\xa4\x95\xe0\xa4\xbf,avy,,,,,,'
p1220
sS'chunkid'
p1221
S'CCP'
p1222
sS'drel'
p1223
S'k2:VGF'
p1224
sS'chunktype'
p1225
S'head:CCP'
p1226
ssbsg28
I00
sg29
I00
sg30
Nsg31
Nsg32
I2
sg33
I2
sg34
Nsg35
Nsg36
S'CC'
p1227
sg38
g1212
sg39
I00
sba(issf_api
Word
p1228
(dp1229
g6
I00
sg7
V\u0907\u0938
p1230
sg9
(issf_api
FeatureSet
p1231
(dp1232
g12
(dp1233
S'posn'
p1234
S'40'
p1235
sS'name'
p1236
S'\xe0\xa4\x87\xe0\xa4\xb8'
p1237
sS'af'
p1238
S'\xe0\xa4\xaf\xe0\xa4\xb9,pn,any,sg,3,o,,'
p1239
sS'drel'
p1240
S'nmod__adj:NP2'
p1241
sS'chunktype'
p1242
S'child:NP2'
p1243
sS'cref'
p1244
S'i14%0:t6'
p1245
ssbsg28
I00
sg29
I00
sg30
Nsg31
Nsg32
I3
sg33
I2
sg34
Nsg35
Nsg36
S'DEM'
p1246
sg38
g1231
sg39
I00
sba(issf_api
Word
p1247
(dp1248
g6
I00
sg7
V\u092a\u0948\u0928\u0932
p1249
sg9
(issf_api
FeatureSet
p1250
(dp1251
g12
(dp1252
S'crefhead'
p1253
S'\xe0\xa4\xaa\xe0\xa5\x88\xe0\xa4\xa8\xe0\xa4\xb2:i14'
p1254
sS'posn'
p1255
S'50'
p1256
sS'name'
p1257
S'\xe0\xa4\xaa\xe0\xa5\x88\xe0\xa4\xa8\xe0\xa4\xb2'
p1258
sS'af'
p1259
S'\xe0\xa4\xaa\xe0\xa5\x88\xe0\xa4\xa8\xe0\xa4\xb2,n,m,sg,3,o,0_\xe0\xa4\xae\xe0\xa5\x87\xe0\xa4\x82,0'
p1260
sS'chunkid'
p1261
S'NP2'
p1262
sS'creftype'
p1263
S'Coreference-Identity:i10'
p1264
sS'chunktype'
p1265
S'head:NP2'
p1266
sS'vpos'
p1267
S'vib_3'
p1268
sS'cref'
p1269
S'i14%1:t6'
p1270
sS'drel'
p1271
S'k7:VGF2'
p1272
ssbsg28
I00
sg29
I00
sg30
Nsg31
Nsg32
I3
sg33
I2
sg34
Nsg35
Nsg36
S'NN'
p1273
sg38
g1250
sg39
I00
sba(issf_api
Word
p1274
(dp1275
g6
I00
sg7
V\u092e\u0947\u0902
p1276
sg9
(issf_api
FeatureSet
p1277
(dp1278
g12
(dp1279
S'posn'
p1280
S'60'
p1281
sS'name'
p1282
S'\xe0\xa4\xae\xe0\xa5\x87\xe0\xa4\x82'
p1283
sS'drel'
p1284
S'lwg__psp:NP2'
p1285
sS'chunktype'
p1286
S'child:NP2'
p1287
sS'af'
p1288
S'\xe0\xa4\xae\xe0\xa5\x87\xe0\xa4\x82,psp,,,,,,'
p1289
ssbsg28
I00
sg29
I00
sg30
Nsg31
Nsg32
I3
sg33
I2
sg34
Nsg35
Nsg36
S'PSP'
p1290
sg38
g1277
sg39
I00
sba(issf_api
Word
p1291
(dp1292
g6
I00
sg7
V\u091a\u093f\u0915\u093f\u0924\u094d\u0938\u093e
p1293
sg9
(issf_api
FeatureSet
p1294
(dp1295
g12
(dp1296
S'posn'
p1297
S'70'
p1298
sS'name'
p1299
S'\xe0\xa4\x9a\xe0\xa4\xbf\xe0\xa4\x95\xe0\xa4\xbf\xe0\xa4\xa4\xe0\xa5\x8d\xe0\xa4\xb8\xe0\xa4\xbe'
p1300
sS'drel'
p1301
S'pof__cn:NP3'
p1302
sS'chunktype'
p1303
S'child:NP3'
p1304
sS'af'
p1305
S'\xe0\xa4\x9a\xe0\xa4\xbf\xe0\xa4\x95\xe0\xa4\xbf\xe0\xa4\xa4\xe0\xa5\x8d\xe0\xa4\xb8\xe0\xa4\xbe,n,f,sg,3,d,0,0'
p1306
ssbsg28
I00
sg29
I00
sg30
Nsg31
Nsg32
I4
sg33
I2
sg34
Nsg35
Nsg36
S'NNC'
p1307
sg38
g1294
sg39
I00
sba(issf_api
Word
p1308
(dp1309
g6
I00
sg7
V\u0935\u093f\u0936\u0947\u0937\u091c\u094d\u091e
p1310
sg9
(issf_api
FeatureSet
p1311
(dp1312
g12
(dp1313
S'posn'
p1314
S'80'
p1315
sS'name'
p1316
S'\xe0\xa4\xb5\xe0\xa4\xbf\xe0\xa4\xb6\xe0\xa5\x87\xe0\xa4\xb7\xe0\xa4\x9c\xe0\xa5\x8d\xe0\xa4\x9e'
p1317
sS'af'
p1318
S'\xe0\xa4\xb5\xe0\xa4\xbf\xe0\xa4\xb6\xe0\xa5\x87\xe0\xa4\xb7\xe0\xa4\x9c\xe0\xa5\x8d\xe0\xa4\x9e,n,m,sg,3,d,0,0'
p1319
sS'chunkid'
p1320
S'NP3'
p1321
sS'drel'
p1322
S'ccof:CCP2'
p1323
sS'chunktype'
p1324
S'head:NP3'
p1325
ssbsg28
I00
sg29
I00
sg30
Nsg31
Nsg32
I4
sg33
I2
sg34
Nsg35
Nsg36
S'NN'
p1326
sg38
g1311
sg39
I00
sba(issf_api
Word
p1327
(dp1328
g6
I00
sg7
V,
p1329
sg9
(issf_api
FeatureSet
p1330
(dp1331
g12
(dp1332
S'posn'
p1333
S'90'
p1334
sS'name'
p1335
S','
p1336
sS'drel'
p1337
S'rsym:NP3'
p1338
sS'chunktype'
p1339
S'child:NP3'
p1340
sS'af'
p1341
S'COMMA,punc,,,,,,'
p1342
ssbsg28
I00
sg29
I00
sg30
Nsg31
Nsg32
I4
sg33
I2
sg34
Nsg35
Nsg36
S'SYM'
p1343
sg38
g1330
sg39
I00
sba(issf_api
Word
p1344
(dp1345
g6
I00
sg7
V\u092e\u0928\u094b\u091a\u093f\u0915\u093f\u0924\u094d\u0938\u0915
p1346
sg9
(issf_api
FeatureSet
p1347
(dp1348
g12
(dp1349
S'posn'
p1350
S'100'
p1351
sS'name'
p1352
S'\xe0\xa4\xae\xe0\xa4\xa8\xe0\xa5\x8b\xe0\xa4\x9a\xe0\xa4\xbf\xe0\xa4\x95\xe0\xa4\xbf\xe0\xa4\xa4\xe0\xa5\x8d\xe0\xa4\xb8\xe0\xa4\x95'
p1353
sS'af'
p1354
S'\xe0\xa4\xae\xe0\xa4\xa8\xe0\xa5\x8b\xe0\xa4\x9a\xe0\xa4\xbf\xe0\xa4\x95\xe0\xa4\xbf\xe0\xa4\xa4\xe0\xa5\x8d\xe0\xa4\xb8\xe0\xa4\x95,n,m,sg,3,d,0,0'
p1355
sS'chunkid'
p1356
S'NP4'
p1357
sS'drel'
p1358
S'ccof:CCP2'
p1359
sS'chunktype'
p1360
S'head:NP4'
p1361
ssbsg28
I00
sg29
I00
sg30
Nsg31
Nsg32
I5
sg33
I2
sg34
Nsg35
Nsg36
S'NN'
p1362
sg38
g1347
sg39
I00
sba(issf_api
Word
p1363
(dp1364
g6
I00
sg7
V\u0914\u0930
p1365
sg9
(issf_api
FeatureSet
p1366
(dp1367
g12
(dp1368
S'posn'
p1369
S'110'
p1370
sS'name'
p1371
S'\xe0\xa4\x94\xe0\xa4\xb0'
p1372
sS'af'
p1373
S'\xe0\xa4\x94\xe0\xa4\xb0,avy,,,,,,'
p1374
sS'chunkid'
p1375
S'CCP2'
p1376
sS'drel'
p1377
S'r6:VGF2'
p1378
sS'chunktype'
p1379
S'head:CCP2'
p1380
ssbsg28
I00
sg29
I00
sg30
Nsg31
Nsg32
I6
sg33
I2
sg34
Nsg35
Nsg36
S'CC'
p1381
sg38
g1366
sg39
I00
sba(issf_api
Word
p1382
(dp1383
g6
I00
sg7
V\u0928\u0947\u0936\u0928\u0932
p1384
sg9
(issf_api
FeatureSet
p1385
(dp1386
g12
(dp1387
S'posn'
p1388
S'140'
p1389
sS'name'
p1390
S'\xe0\xa4\xa8\xe0\xa5\x87\xe0\xa4\xb6\xe0\xa4\xa8\xe0\xa4\xb2'
p1391
sS'af'
p1392
S'\xe0\xa4\xa8\xe0\xa5\x87\xe0\xa4\xb6\xe0\xa4\xa8\xe0\xa4\xb2,adj,any,any,,o,,'
p1393
sS'drel'
p1394
S'pof__cn:NP5'
p1395
sS'chunktype'
p1396
S'child:NP5'
p1397
sS'cref'
p1398
S'i15%0:t7'
p1399
ssbsg28
I00
sg29
I00
sg30
Nsg31
Nsg32
I7
sg33
I2
sg34
Nsg35
Nsg36
S'NNPC'
p1400
sg38
g1385
sg39
I00
sba(issf_api
Word
p1401
(dp1402
g6
I00
sg7
V\u0907\u0902\u0938\u094d\u091f\u0940\u091f\u094d\u092f\u0942\u091f
p1403
sg9
(issf_api
FeatureSet
p1404
(dp1405
g12
(dp1406
S'posn'
p1407
S'130'
p1408
sS'name'
p1409
S'\xe0\xa4\x87\xe0\xa4\x82\xe0\xa4\xb8\xe0\xa5\x8d\xe0\xa4\x9f\xe0\xa5\x80\xe0\xa4\x9f\xe0\xa5\x8d\xe0\xa4\xaf\xe0\xa5\x82\xe0\xa4\x9f'
p1410
sS'af'
p1411
S'\xe0\xa4\x87\xe0\xa4\x82\xe0\xa4\xb8\xe0\xa5\x8d\xe0\xa4\x9f\xe0\xa5\x80\xe0\xa4\x9f\xe0\xa5\x8d\xe0\xa4\xaf\xe0\xa5\x82\xe0\xa4\x9f,n,m,sg,3,d,0,0'
p1412
sS'drel'
p1413
S'pof__cn:NP5'
p1414
sS'chunktype'
p1415
S'child:NP5'
p1416
sS'cref'
p1417
S'i15%0:t7'
p1418
ssbsg28
I00
sg29
I00
sg30
Nsg31
Nsg32
I7
sg33
I2
sg34
Nsg35
Nsg36
S'NNPC'
p1419
sg38
g1404
sg39
I00
sba(issf_api
Word
p1420
(dp1421
g6
I00
sg7
V\u0911\u092b
p1422
sg9
(issf_api
FeatureSet
p1423
(dp1424
g12
(dp1425
S'posn'
p1426
S'140'
p1427
sS'name'
p1428
S'\xe0\xa4\x91\xe0\xa4\xab'
p1429
sS'af'
p1430
S'\xe0\xa4\x91\xe0\xa4\xab,unk,,,,,,'
p1431
sS'drel'
p1432
S'pof__cn:NP5'
p1433
sS'chunktype'
p1434
S'child:NP5'
p1435
sS'cref'
p1436
S'i15%0:t7'
p1437
ssbsg28
I00
sg29
I00
sg30
Nsg31
Nsg32
I7
sg33
I2
sg34
Nsg35
Nsg36
S'NNPC'
p1438
sg38
g1423
sg39
I00
sba(issf_api
Word
p1439
(dp1440
g6
I00
sg7
V\u092e\u0947\u0902\u091f\u0932
p1441
sg9
(issf_api
FeatureSet
p1442
(dp1443
g12
(dp1444
S'posn'
p1445
S'140'
p1446
sS'name'
p1447
S'\xe0\xa4\xae\xe0\xa5\x87\xe0\xa4\x82\xe0\xa4\x9f\xe0\xa4\xb2'
p1448
sS'af'
p1449
S'\xe0\xa4\xae\xe0\xa5\x87\xe0\xa4\x82\xe0\xa4\x9f\xe0\xa4\xb2,adj,any,any,,o,,'
p1450
sS'drel'
p1451
S'pof__cn:NP5'
p1452
sS'chunktype'
p1453
S'child:NP5'
p1454
sS'cref'
p1455
S'i15%0:t7'
p1456
ssbsg28
I00
sg29
I00
sg30
Nsg31
Nsg32
I7
sg33
I2
sg34
Nsg35
Nsg36
S'NNPC'
p1457
sg38
g1442
sg39
I00
sba(issf_api
Word
p1458
(dp1459
g6
I00
sg7
V\u0939\u0947\u0932\u094d\u0925
p1460
sg9
(issf_api
FeatureSet
p1461
(dp1462
g12
(dp1463
S'posn'
p1464
S'160'
p1465
sS'name'
p1466
S'\xe0\xa4\xb9\xe0\xa5\x87\xe0\xa4\xb2\xe0\xa5\x8d\xe0\xa4\xa5'
p1467
sS'af'
p1468
S'\xe0\xa4\xb9\xe0\xa5\x87\xe0\xa4\xb2\xe0\xa5\x8d\xe0\xa4\xa5,n,m,sg,3,d,0,0'
p1469
sS'drel'
p1470
S'pof__cn:NP5'
p1471
sS'chunktype'
p1472
S'child:NP5'
p1473
sS'cref'
p1474
S'i15%0:t7'
p1475
ssbsg28
I00
sg29
I00
sg30
Nsg31
Nsg32
I7
sg33
I2
sg34
Nsg35
Nsg36
S'NNPC'
p1476
sg38
g1461
sg39
I00
sba(issf_api
Word
p1477
(dp1478
g6
I00
sg7
V\u090f\u0902\u0921
p1479
sg9
(issf_api
FeatureSet
p1480
(dp1481
g12
(dp1482
S'posn'
p1483
S'170'
p1484
sS'name'
p1485
S'\xe0\xa4\x8f\xe0\xa4\x82\xe0\xa4\xa1'
p1486
sS'af'
p1487
S'\xe0\xa4\x8f\xe0\xa4\x82\xe0\xa4\xa1,avy,,,,,,'
p1488
sS'drel'
p1489
S'pof__cn:NP5'
p1490
sS'chunktype'
p1491
S'child:NP5'
p1492
sS'cref'
p1493
S'i15%0:t7'
p1494
ssbsg28
I00
sg29
I00
sg30
Nsg31
Nsg32
I7
sg33
I2
sg34
Nsg35
Nsg36
S'NNPC'
p1495
sg38
g1480
sg39
I00
sba(issf_api
Word
p1496
(dp1497
g6
I00
sg7
V\u0928\u094d\u092f\u0942\u0930\u094b
p1498
sg9
(issf_api
FeatureSet
p1499
(dp1500
g12
(dp1501
S'posn'
p1502
S'180'
p1503
sS'name'
p1504
S'\xe0\xa4\xa8\xe0\xa5\x8d\xe0\xa4\xaf\xe0\xa5\x82\xe0\xa4\xb0\xe0\xa5\x8b'
p1505
sS'af'
p1506
S'\xe0\xa4\xa8\xe0\xa5\x8d\xe0\xa4\xaf\xe0\xa5\x82\xe0\xa4\xb0\xe0\xa5\x8b,n,m,sg,3,d,0,0'
p1507
sS'drel'
p1508
S'pof__cn:NP5'
p1509
sS'chunktype'
p1510
S'child:NP5'
p1511
sS'cref'
p1512
S'i15%0:t7'
p1513
ssbsg28
I00
sg29
I00
sg30
Nsg31
Nsg32
I7
sg33
I2
sg34
Nsg35
Nsg36
S'NNPC'
p1514
sg38
g1499
sg39
I00
sba(issf_api
Word
p1515
(dp1516
g6
I00
sg7
V\u0938\u093e\u0907\u0902\u0938
p1517
sg9
(issf_api
FeatureSet
p1518
(dp1519
g12
(dp1520
S'crefhead'
p1521
S'\xe0\xa4\xb8\xe0\xa4\xbe\xe0\xa4\x87\xe0\xa4\x82\xe0\xa4\xb8:i15'
p1522
sS'posn'
p1523
S'190'
p1524
sS'name'
p1525
S'\xe0\xa4\xb8\xe0\xa4\xbe\xe0\xa4\x87\xe0\xa4\x82\xe0\xa4\xb8'
p1526
sS'af'
p1527
S'\xe0\xa4\xb8\xe0\xa4\xbe\xe0\xa4\x87\xe0\xa4\x82\xe0\xa4\xb8,n,f,sg,3,o,0,0'
p1528
sS'chunkid'
p1529
S'NP5'
p1530
sS'chunktype'
p1531
S'head:NP5'
p1532
sS'crefchainhead'
p1533
S'i15:t7'
p1534
sS'cref'
p1535
S'i15%1:t7'
p1536
sS'drel'
p1537
S'r6:NP7'
p1538
ssbsg28
I00
sg29
I00
sg30
Nsg31
Nsg32
I7
sg33
I2
sg34
Nsg35
Nsg36
S'NNP'
p1539
sg38
g1518
sg39
I00
sba(issf_api
Word
p1540
(dp1541
g6
I00
sg7
V(
p1542
sg9
(issf_api
FeatureSet
p1543
(dp1544
g12
(dp1545
S'posn'
p1546
S'200'
p1547
sS'name'
p1548
S'('
p1549
sS'drel'
p1550
S'rsym:NP6'
p1551
sS'chunktype'
p1552
S'child:NP6'
p1553
sS'af'
p1554
S'(,punc,,,,,,'
p1555
ssbsg28
I00
sg29
I00
sg30
Nsg31
Nsg32
I8
sg33
I2
sg34
Nsg35
Nsg36
S'SYM'
p1556
sg38
g1543
sg39
I00
sba(issf_api
Word
p1557
(dp1558
g6
I00
sg7
V\u0928\u093f\u092e\u0939\u093e\u0902\u0938
p1559
sg9
(issf_api
FeatureSet
p1560
(dp1561
g12
(dp1562
S'crefhead'
p1563
S'\xe0\xa4\xa8\xe0\xa4\xbf\xe0\xa4\xae\xe0\xa4\xb9\xe0\xa4\xbe\xe0\xa4\x82\xe0\xa4\xb8:i16'
p1564
sS'posn'
p1565
S'200'
p1566
sS'name'
p1567
S'\xe0\xa4\xa8\xe0\xa4\xbf\xe0\xa4\xae\xe0\xa4\xb9\xe0\xa4\xbe\xe0\xa4\x82\xe0\xa4\xb8'
p1568
sS'af'
p1569
S'\xe0\xa4\xa8\xe0\xa4\xbf\xe0\xa4\xae\xe0\xa4\xb9\xe0\xa4\xbe\xe0\xa4\x82\xe0\xa4\xb8,n,f,sg,3,o,0,0'
p1570
sS'chunkid'
p1571
S'NP6'
p1572
sS'creftype'
p1573
S'Coreference-Abbreviation:i15'
p1574
sS'chunktype'
p1575
S'head:NP6'
p1576
sS'cref'
p1577
S'i16%1:t7'
p1578
sS'drel'
p1579
S'rs:NP5'
p1580
ssbsg28
I00
sg29
I00
sg30
Nsg31
Nsg32
I8
sg33
I2
sg34
Nsg35
Nsg36
S'NNP'
p1581
sg38
g1560
sg39
I00
sba(issf_api
Word
p1582
(dp1583
g6
I00
sg7
V)
p1584
sg9
(issf_api
FeatureSet
p1585
(dp1586
g12
(dp1587
S'posn'
p1588
S'200'
p1589
sS'name'
p1590
S')'
p1591
sS'drel'
p1592
S'rsym:NP6'
p1593
sS'chunktype'
p1594
S'child:NP6'
p1595
sS'af'
p1596
S'),punc,,,,,,'
p1597
ssbsg28
I00
sg29
I00
sg30
Nsg31
Nsg32
I8
sg33
I2
sg34
Nsg35
Nsg36
S'SYM'
p1598
sg38
g1585
sg39
I00
sba(issf_api
Word
p1599
(dp1600
g6
I00
sg7
V\u0915\u0940
p1601
sg9
(issf_api
FeatureSet
p1602
(dp1603
g12
(dp1604
S'name'
p1605
S'\xe0\xa4\x95\xe0\xa5\x80'
p1606
sS'drel'
p1607
S'fragof:NP5'
p1608
sS'chunktype'
p1609
S'head:FRAGP'
p1610
sS'chunkid'
p1611
S'FRAGP'
p1612
ssbsg28
I00
sg29
I00
sg30
Nsg31
Nsg32
I9
sg33
I2
sg34
Nsg35
Nsg36
S'PSP'
p1613
sg38
g1602
sg39
I00
sba(issf_api
Word
p1614
(dp1615
g6
I00
sg7
V\u090f\u0915
p1616
sg9
(issf_api
FeatureSet
p1617
(dp1618
g12
(dp1619
S'posn'
p1620
S'220'
p1621
sS'name'
p1622
S'\xe0\xa4\x8f\xe0\xa4\x95'
p1623
sS'drel'
p1624
S'nmod__adj:NP7'
p1625
sS'chunktype'
p1626
S'child:NP7'
p1627
sS'af'
p1628
S'\xe0\xa4\x8f\xe0\xa4\x95,num,any,any,,any,,'
p1629
ssbsg28
I00
sg29
I00
sg30
Nsg31
Nsg32
I10
sg33
I2
sg34
Nsg35
Nsg36
S'QC'
p1630
sg38
g1617
sg39
I00
sba(issf_api
Word
p1631
(dp1632
g6
I00
sg7
V\u092e\u0939\u093f\u0932\u093e
p1633
sg9
(issf_api
FeatureSet
p1634
(dp1635
g12
(dp1636
S'posn'
p1637
S'230'
p1638
sS'name'
p1639
S'\xe0\xa4\xae\xe0\xa4\xb9\xe0\xa4\xbf\xe0\xa4\xb2\xe0\xa4\xbe'
p1640
sS'drel'
p1641
S'pof__cn:NP7'
p1642
sS'chunktype'
p1643
S'child:NP7'
p1644
sS'af'
p1645
S'\xe0\xa4\xae\xe0\xa4\xb9\xe0\xa4\xbf\xe0\xa4\xb2\xe0\xa4\xbe,n,f,sg,3,d,0,0'
p1646
ssbsg28
I00
sg29
I00
sg30
Nsg31
Nsg32
I10
sg33
I2
sg34
Nsg35
Nsg36
S'NNC'
p1647
sg38
g1634
sg39
I00
sba(issf_api
Word
p1648
(dp1649
g6
I00
sg7
V\u092e\u0928\u094b\u091a\u093f\u0915\u093f\u0924\u094d\u0938\u0915
p1650
sg9
(issf_api
FeatureSet
p1651
(dp1652
g12
(dp1653
S'posn'
p1654
S'240'
p1655
sS'name'
p1656
S'\xe0\xa4\xae\xe0\xa4\xa8\xe0\xa5\x8b\xe0\xa4\x9a\xe0\xa4\xbf\xe0\xa4\x95\xe0\xa4\xbf\xe0\xa4\xa4\xe0\xa5\x8d\xe0\xa4\xb8\xe0\xa4\x952'
p1657
sS'af'
p1658
S'\xe0\xa4\xae\xe0\xa4\xa8\xe0\xa5\x8b\xe0\xa4\x9a\xe0\xa4\xbf\xe0\xa4\x95\xe0\xa4\xbf\xe0\xa4\xa4\xe0\xa5\x8d\xe0\xa4\xb8\xe0\xa4\x95,n,any,sg,3,o,0_\xe0\xa4\x95\xe0\xa5\x8b,0'
p1659
sS'chunkid'
p1660
S'NP7'
p1661
sS'drel'
p1662
S'ccof:CCP2'
p1663
sS'vpos'
p1664
S'vib_4'
p1665
sS'chunktype'
p1666
S'head:NP7'
p1667
ssbsg28
I00
sg29
I00
sg30
Nsg31
Nsg32
I10
sg33
I2
sg34
Nsg35
Nsg36
S'NN'
p1668
sg38
g1651
sg39
I00
sba(issf_api
Word
p1669
(dp1670
g6
I00
sg7
V\u0915\u094b
p1671
sg9
(issf_api
FeatureSet
p1672
(dp1673
g12
(dp1674
S'posn'
p1675
S'250'
p1676
sS'name'
p1677
S'\xe0\xa4\x95\xe0\xa5\x8b'
p1678
sS'drel'
p1679
S'lwg__psp:NP7'
p1680
sS'chunktype'
p1681
S'child:NP7'
p1682
sS'af'
p1683
S'\xe0\xa4\x95\xe0\xa5\x8b,psp,,,,,,'
p1684
ssbsg28
I00
sg29
I00
sg30
Nsg31
Nsg32
I10
sg33
I2
sg34
Nsg35
Nsg36
S'PSP'
p1685
sg38
g1672
sg39
I00
sba(issf_api
Word
p1686
(dp1687
g6
I00
sg7
V\u0936\u093e\u092e\u093f\u0932
p1688
sg9
(issf_api
FeatureSet
p1689
(dp1690
g12
(dp1691
S'posn'
p1692
S'260'
p1693
sS'name'
p1694
S'\xe0\xa4\xb6\xe0\xa4\xbe\xe0\xa4\xae\xe0\xa4\xbf\xe0\xa4\xb2'
p1695
sS'af'
p1696
S'\xe0\xa4\xb6\xe0\xa4\xbe\xe0\xa4\xae\xe0\xa4\xbf\xe0\xa4\xb2,adj,any,any,,,,'
p1697
sS'chunkid'
p1698
S'JJP'
p1699
sS'drel'
p1700
S'pof:VGF2'
p1701
sS'chunktype'
p1702
S'head:JJP'
p1703
ssbsg28
I00
sg29
I00
sg30
Nsg31
Nsg32
I11
sg33
I2
sg34
Nsg35
Nsg36
S'JJ'
p1704
sg38
g1689
sg39
I00
sba(issf_api
Word
p1705
(dp1706
g6
I00
sg7
V\u0915\u093f\u092f\u093e
p1707
sg9
(issf_api
FeatureSet
p1708
(dp1709
g12
(dp1710
S'posn'
p1711
S'270'
p1712
sS'name'
p1713
S'\xe0\xa4\x95\xe0\xa4\xbf\xe0\xa4\xaf\xe0\xa4\xbe'
p1714
sS'af'
p1715
S'\xe0\xa4\x95\xe0\xa4\xb0,v,m,sg,3,,\xe0\xa4\xaf\xe0\xa4\xbe_\xe0\xa4\x9c\xe0\xa4\xbe+\xe0\xa4\xaf\xe0\xa4\xbe\xe0\xa5\xa7_\xe0\xa4\xb9\xe0\xa5\x88,yA'
p1716
sS'chunkid'
p1717
S'VGF2'
p1718
sS'stype'
p1719
S'declarative'
p1720
sS'drel'
p1721
S'ccof:CCP'
p1722
sS'voicetype'
p1723
S'passive'
p1724
sS'vpos'
p1725
S'tam_2_3'
p1726
sS'chunktype'
p1727
S'head:VGF2'
p1728
ssbsg28
I00
sg29
I00
sg30
Nsg31
Nsg32
I12
sg33
I2
sg34
Nsg35
Nsg36
S'VM'
p1729
sg38
g1708
sg39
I00
sba(issf_api
Word
p1730
(dp1731
g6
I00
sg7
V\u0917\u092f\u093e
p1732
sg9
(issf_api
FeatureSet
p1733
(dp1734
g12
(dp1735
S'posn'
p1736
S'280'
p1737
sS'name'
p1738
S'\xe0\xa4\x97\xe0\xa4\xaf\xe0\xa4\xbe'
p1739
sS'drel'
p1740
S'lwg__vaux:VGF2'
p1741
sS'chunktype'
p1742
S'child:VGF2'
p1743
sS'af'
p1744
S'\xe0\xa4\x9c\xe0\xa4\xbe,v,m,sg,any,,\xe0\xa4\xaf\xe0\xa4\xbe\xe0\xa5\xa7,yA1'
p1745
ssbsg28
I00
sg29
I00
sg30
Nsg31
Nsg32
I12
sg33
I2
sg34
Nsg35
Nsg36
S'VAUX'
p1746
sg38
g1733
sg39
I00
sba(issf_api
Word
p1747
(dp1748
g6
I00
sg7
V\u0939\u0948
p1749
sg9
(issf_api
FeatureSet
p1750
(dp1751
g12
(dp1752
S'posn'
p1753
S'290'
p1754
sS'name'
p1755
S'\xe0\xa4\xb9\xe0\xa5\x88'
p1756
sS'drel'
p1757
S'lwg__vaux:VGF2'
p1758
sS'chunktype'
p1759
S'child:VGF2'
p1760
sS'af'
p1761
S'\xe0\xa4\xb9\xe0\xa5\x88,v,any,sg,3,,\xe0\xa4\xb9\xe0\xa5\x88,hE'
p1762
ssbsg28
I00
sg29
I00
sg30
Nsg31
Nsg32
I12
sg33
I2
sg34
Nsg35
Nsg36
S'VAUX'
p1763
sg38
g1750
sg39
I00
sba(issf_api
Word
p1764
(dp1765
g6
I00
sg7
V\u0964
p1766
sg9
(issf_api
FeatureSet
p1767
(dp1768
g12
(dp1769
S'posn'
p1770
S'300'
p1771
sS'name'
p1772
S'\xe0\xa5\xa4'
p1773
sS'af'
p1774
S'\xe0\xa5\xa4,punc,,,,,,'
p1775
sS'chunkid'
p1776
S'BLK'
p1777
sS'drel'
p1778
S'rsym:VGF'
p1779
sS'chunktype'
p1780
S'head:BLK'
p1781
ssbsg28
I00
sg29
I00
sg30
Nsg31
Nsg32
I13
sg33
I2
sg34
Nsg35
Nsg36
S'SYM'
p1782
sg38
g1767
sg39
I00
sba(issf_api
Word
p1783
(dp1784
g6
I00
sg7
V\u0928\u091c\u0930\u092c\u0902\u0926
p1785
sg9
(issf_api
FeatureSet
p1786
(dp1787
g12
(dp1788
S'posn'
p1789
S'10'
p1790
sS'name'
p1791
S'\xe0\xa4\xa8\xe0\xa4\x9c\xe0\xa4\xb0\xe0\xa4\xac\xe0\xa4\x82\xe0\xa4\xa6'
p1792
sS'drel'
p1793
S'nmod__adj:NP'
p1794
sS'chunktype'
p1795
S'child:NP'
p1796
sS'af'
p1797
S'\xe0\xa4\xa8\xe0\xa4\x9c\xe0\xa4\xb0\xe0\xa4\xac\xe0\xa4\x82\xe0\xa4\xa6,adj,any,any,,o,,'
p1798
ssbsg28
I00
sg29
I00
sg30
Nsg31
Nsg32
I0
sg33
I3
sg34
Nsg35
Nsg36
S'JJ'
p1799
sg38
g1786
sg39
I00
sba(issf_api
Word
p1800
(dp1801
g6
I00
sg7
V\u0905\u0902\u091c\u0932\u093f
p1802
sg9
(issf_api
FeatureSet
p1803
(dp1804
g12
(dp1805
S'crefhead'
p1806
S'\xe0\xa4\x85\xe0\xa4\x82\xe0\xa4\x9c\xe0\xa4\xb2\xe0\xa4\xbf:i17'
p1807
sS'posn'
p1808
S'20'
p1809
sS'name'
p1810
S'\xe0\xa4\x85\xe0\xa4\x82\xe0\xa4\x9c\xe0\xa4\xb2\xe0\xa4\xbf'
p1811
sS'af'
p1812
S'\xe0\xa4\x85\xe0\xa4\x82\xe0\xa4\x9c\xe0\xa4\xb2\xe0\xa4\xbf,n,f,sg,3,o,0_\xe0\xa4\x95\xe0\xa4\xbe_\xe0\xa4\x93\xe0\xa4\xb0_\xe0\xa4\xb8\xe0\xa5\x87,0'
p1813
sS'chunkid'
p1814
S'NP'
p1815
sS'creftype'
p1816
S'Coreference-Identity:i3'
p1817
sS'chunktype'
p1818
S'head:NP'
p1819
sS'vpos'
p1820
S'vib_3_4_5'
p1821
sS'cref'
p1822
S'i17%1:t2'
p1823
sS'drel'
p1824
S'nmod:NP2'
p1825
ssbsg28
I00
sg29
I00
sg30
Nsg31
Nsg32
I0
sg33
I3
sg34
Nsg35
Nsg36
S'NNP'
p1826
sg38
g1803
sg39
I00
sba(issf_api
Word
p1827
(dp1828
g6
I00
sg7
V\u0915\u0940
p1829
sg9
(issf_api
FeatureSet
p1830
(dp1831
g12
(dp1832
S'posn'
p1833
S'30'
p1834
sS'name'
p1835
S'\xe0\xa4\x95\xe0\xa5\x80'
p1836
sS'drel'
p1837
S'lwg__psp:NP'
p1838
sS'chunktype'
p1839
S'child:NP'
p1840
sS'af'
p1841
S'\xe0\xa4\x95\xe0\xa4\xbe,psp,f,sg,,o,,'
p1842
ssbsg28
I00
sg29
I00
sg30
Nsg31
Nsg32
I0
sg33
I3
sg34
Nsg35
Nsg36
S'PSP'
p1843
sg38
g1830
sg39
I00
sba(issf_api
Word
p1844
(dp1845
g6
I00
sg7
V\u0913\u0930
p1846
sg9
(issf_api
FeatureSet
p1847
(dp1848
g12
(dp1849
S'posn'
p1850
S'40'
p1851
sS'name'
p1852
S'\xe0\xa4\x93\xe0\xa4\xb0'
p1853
sS'drel'
p1854
S'lwg__psp:NP'
p1855
sS'chunktype'
p1856
S'child:NP'
p1857
sS'af'
p1858
S'\xe0\xa4\x93\xe0\xa4\xb0,nst,f,sg,3,o,,'
p1859
ssbsg28
I00
sg29
I00
sg30
Nsg31
Nsg32
I0
sg33
I3
sg34
Nsg35
Nsg36
S'NST'
p1860
sg38
g1847
sg39
I00
sba(issf_api
Word
p1861
(dp1862
g6
I00
sg7
V\u0938\u0947
p1863
sg9
(issf_api
FeatureSet
p1864
(dp1865
g12
(dp1866
S'posn'
p1867
S'50'
p1868
sS'name'
p1869
S'\xe0\xa4\xb8\xe0\xa5\x87'
p1870
sS'drel'
p1871
S'lwg__psp:NP'
p1872
sS'chunktype'
p1873
S'child:NP'
p1874
sS'af'
p1875
S'\xe0\xa4\xb8\xe0\xa5\x87,psp,,,,,,'
p1876
ssbsg28
I00
sg29
I00
sg30
Nsg31
Nsg32
I0
sg33
I3
sg34
Nsg35
Nsg36
S'PSP'
p1877
sg38
g1864
sg39
I00
sba(issf_api
Word
p1878
(dp1879
g6
I00
sg7
V\u0930\u093f\u0939\u093e\u0908
p1880
sg9
(issf_api
FeatureSet
p1881
(dp1882
g12
(dp1883
S'posn'
p1884
S'60'
p1885
sS'name'
p1886
S'\xe0\xa4\xb0\xe0\xa4\xbf\xe0\xa4\xb9\xe0\xa4\xbe\xe0\xa4\x88'
p1887
sS'af'
p1888
S'\xe0\xa4\xb0\xe0\xa4\xbf\xe0\xa4\xb9\xe0\xa4\xbe\xe0\xa4\x88,n,f,sg,3,o,0_\xe0\xa4\x95\xe0\xa4\xbe,0'
p1889
sS'chunkid'
p1890
S'NP2'
p1891
sS'drel'
p1892
S'r6:NP3'
p1893
sS'vpos'
p1894
S'vib_2'
p1895
sS'chunktype'
p1896
S'head:NP2'
p1897
ssbsg28
I00
sg29
I00
sg30
Nsg31
Nsg32
I1
sg33
I3
sg34
Nsg35
Nsg36
S'NN'
p1898
sg38
g1881
sg39
I00
sba(issf_api
Word
p1899
(dp1900
g6
I00
sg7
V\u0915\u0940
p1901
sg9
(issf_api
FeatureSet
p1902
(dp1903
g12
(dp1904
S'posn'
p1905
S'70'
p1906
sS'name'
p1907
S'\xe0\xa4\x95\xe0\xa5\x802'
p1908
sS'drel'
p1909
S'lwg__psp:NP2'
p1910
sS'chunktype'
p1911
S'child:NP2'
p1912
sS'af'
p1913
S'\xe0\xa4\x95\xe0\xa4\xbe,psp,f,sg,,o,,'
p1914
ssbsg28
I00
sg29
I00
sg30
Nsg31
Nsg32
I1
sg33
I3
sg34
Nsg35
Nsg36
S'PSP'
p1915
sg38
g1902
sg39
I00
sba(issf_api
Word
p1916
(dp1917
g6
I00
sg7
V\u092e\u093e\u0902\u0917
p1918
sg9
(issf_api
FeatureSet
p1919
(dp1920
g12
(dp1921
S'posn'
p1922
S'80'
p1923
sS'name'
p1924
S'\xe0\xa4\xae\xe0\xa4\xbe\xe0\xa4\x82\xe0\xa4\x97'
p1925
sS'af'
p1926
S'\xe0\xa4\xae\xe0\xa4\xbe\xe0\xa4\x82\xe0\xa4\x97,n,f,sg,3,o,0_\xe0\xa4\x95\xe0\xa5\x87_\xe0\xa4\xac\xe0\xa4\xbe\xe0\xa4\xa6,0'
p1927
sS'chunkid'
p1928
S'NP3'
p1929
sS'drel'
p1930
S'k7t:VGF'
p1931
sS'vpos'
p1932
S'vib_2_3'
p1933
sS'chunktype'
p1934
S'head:NP3'
p1935
ssbsg28
I00
sg29
I00
sg30
Nsg31
Nsg32
I2
sg33
I3
sg34
Nsg35
Nsg36
S'NN'
p1936
sg38
g1919
sg39
I00
sba(issf_api
Word
p1937
(dp1938
g6
I00
sg7
V\u0915\u0947
p1939
sg9
(issf_api
FeatureSet
p1940
(dp1941
g12
(dp1942
S'posn'
p1943
S'90'
p1944
sS'name'
p1945
S'\xe0\xa4\x95\xe0\xa5\x87'
p1946
sS'drel'
p1947
S'lwg__psp:NP3'
p1948
sS'chunktype'
p1949
S'child:NP3'
p1950
sS'af'
p1951
S'\xe0\xa4\x95\xe0\xa5\x87,psp,,,,,,'
p1952
ssbsg28
I00
sg29
I00
sg30
Nsg31
Nsg32
I2
sg33
I3
sg34
Nsg35
Nsg36
S'PSP'
p1953
sg38
g1940
sg39
I00
sba(issf_api
Word
p1954
(dp1955
g6
I00
sg7
V\u092c\u093e\u0926
p1956
sg9
(issf_api
FeatureSet
p1957
(dp1958
g12
(dp1959
S'posn'
p1960
S'100'
p1961
sS'name'
p1962
S'\xe0\xa4\xac\xe0\xa4\xbe\xe0\xa4\xa6'
p1963
sS'drel'
p1964
S'lwg__psp:NP3'
p1965
sS'chunktype'
p1966
S'child:NP3'
p1967
sS'af'
p1968
S'\xe0\xa4\xac\xe0\xa4\xbe\xe0\xa4\xa6,nst,m,sg,3,d,,'
p1969
ssbsg28
I00
sg29
I00
sg30
Nsg31
Nsg32
I2
sg33
I3
sg34
Nsg35
Nsg36
S'NST'
p1970
sg38
g1957
sg39
I00
sba(issf_api
Word
p1971
(dp1972
g6
I00
sg7
V\u0935\u093e\u092f\u0941\u0938\u0947\u0928\u093e
p1973
sg9
(issf_api
FeatureSet
p1974
(dp1975
g12
(dp1976
S'crefhead'
p1977
S'\xe0\xa4\xb5\xe0\xa4\xbe\xe0\xa4\xaf\xe0\xa5\x81\xe0\xa4\xb8\xe0\xa5\x87\xe0\xa4\xa8\xe0\xa4\xbe:i18'
p1978
sS'posn'
p1979
S'110'
p1980
sS'name'
p1981
S'\xe0\xa4\xb5\xe0\xa4\xbe\xe0\xa4\xaf\xe0\xa5\x81\xe0\xa4\xb8\xe0\xa5\x87\xe0\xa4\xa8\xe0\xa4\xbe'
p1982
sS'af'
p1983
S'\xe0\xa4\xb5\xe0\xa4\xbe\xe0\xa4\xaf\xe0\xa5\x81\xe0\xa4\xb8\xe0\xa5\x87\xe0\xa4\xa8\xe0\xa4\xbe,n,f,sg,3,d,0,0'
p1984
sS'creftype'
p1985
S'Coreference-Identity:i5'
p1986
sS'drel'
p1987
S'pof__cn:NP4'
p1988
sS'chunktype'
p1989
S'child:NP4'
p1990
sS'cref'
p1991
S'i18%1:t1'
p1992
ssbsg28
I00
sg29
I00
sg30
Nsg31
Nsg32
I3
sg33
I3
sg34
Nsg35
Nsg36
S'NNC'
p1993
sg38
g1974
sg39
I00
sba(issf_api
Word
p1994
(dp1995
g6
I00
sg7
V\u092a\u094d\u0930\u0936\u093e\u0938\u0928
p1996
sg9
(issf_api
FeatureSet
p1997
(dp1998
g12
(dp1999
S'posn'
p2000
S'120'
p2001
sS'name'
p2002
S'\xe0\xa4\xaa\xe0\xa5\x8d\xe0\xa4\xb0\xe0\xa4\xb6\xe0\xa4\xbe\xe0\xa4\xb8\xe0\xa4\xa8'
p2003
sS'af'
p2004
S'\xe0\xa4\xaa\xe0\xa5\x8d\xe0\xa4\xb0\xe0\xa4\xb6\xe0\xa4\xbe\xe0\xa4\xb8\xe0\xa4\xa8,n,m,sg,3,o,0_\xe0\xa4\xa8\xe0\xa5\x87,0'
p2005
sS'chunkid'
p2006
S'NP4'
p2007
sS'drel'
p2008
S'k1:VGF'
p2009
sS'vpos'
p2010
S'vib_3'
p2011
sS'chunktype'
p2012
S'head:NP4'
p2013
ssbsg28
I00
sg29
I00
sg30
Nsg31
Nsg32
I3
sg33
I3
sg34
Nsg35
Nsg36
S'NN'
p2014
sg38
g1997
sg39
I00
sba(issf_api
Word
p2015
(dp2016
g6
I00
sg7
V\u0928\u0947
p2017
sg9
(issf_api
FeatureSet
p2018
(dp2019
g12
(dp2020
S'posn'
p2021
S'130'
p2022
sS'name'
p2023
S'\xe0\xa4\xa8\xe0\xa5\x87'
p2024
sS'drel'
p2025
S'lwg__psp:NP4'
p2026
sS'chunktype'
p2027
S'child:NP4'
p2028
sS'af'
p2029
S'\xe0\xa4\xa8\xe0\xa5\x87,psp,,,,,,'
p2030
ssbsg28
I00
sg29
I00
sg30
Nsg31
Nsg32
I3
sg33
I3
sg34
Nsg35
Nsg36
S'PSP'
p2031
sg38
g2018
sg39
I00
sba(issf_api
Word
p2032
(dp2033
g6
I00
sg7
V\u092e\u0947\u0921\u093f\u0915\u0932
p2034
sg9
(issf_api
FeatureSet
p2035
(dp2036
g12
(dp2037
S'posn'
p2038
S'140'
p2039
sS'name'
p2040
S'\xe0\xa4\xae\xe0\xa5\x87\xe0\xa4\xa1\xe0\xa4\xbf\xe0\xa4\x95\xe0\xa4\xb2'
p2041
sS'af'
p2042
S'\xe0\xa4\xae\xe0\xa5\x87\xe0\xa4\xa1\xe0\xa4\xbf\xe0\xa4\x95\xe0\xa4\xb2,adj,any,any,,o,,'
p2043
sS'drel'
p2044
S'pof__cn:NP5'
p2045
sS'chunktype'
p2046
S'child:NP5'
p2047
sS'cref'
p2048
S'i19%0:t3'
p2049
ssbsg28
I00
sg29
I00
sg30
Nsg31
Nsg32
I4
sg33
I3
sg34
Nsg35
Nsg36
S'NNC'
p2050
sg38
g2035
sg39
I00
sba(issf_api
Word
p2051
(dp2052
g6
I00
sg7
V\u091c\u093e\u0902\u091a
p2053
sg9
(issf_api
FeatureSet
p2054
(dp2055
g12
(dp2056
S'crefhead'
p2057
S'\xe0\xa4\x9c\xe0\xa4\xbe\xe0\xa4\x82\xe0\xa4\x9a:i19'
p2058
sS'posn'
p2059
S'150'
p2060
sS'name'
p2061
S'\xe0\xa4\x9c\xe0\xa4\xbe\xe0\xa4\x82\xe0\xa4\x9a'
p2062
sS'af'
p2063
S'\xe0\xa4\x9c\xe0\xa4\xbe\xe0\xa4\x82\xe0\xa4\x9a,n,f,sg,3,d,0_\xe0\xa4\x95\xe0\xa4\xbe,0'
p2064
sS'chunkid'
p2065
S'NP5'
p2066
sS'creftype'
p2067
S'Coreference-Identity:i11'
p2068
sS'chunktype'
p2069
S'head:NP5'
p2070
sS'vpos'
p2071
S'vib_3'
p2072
sS'cref'
p2073
S'i19%1:t3'
p2074
sS'drel'
p2075
S'r6-k2:NP6'
p2076
ssbsg28
I00
sg29
I00
sg30
Nsg31
Nsg32
I4
sg33
I3
sg34
Nsg35
Nsg36
S'NN'
p2077
sg38
g2054
sg39
I00
sba(issf_api
Word
p2078
(dp2079
g6
I00
sg7
V\u0915\u0940
p2080
sg9
(issf_api
FeatureSet
p2081
(dp2082
g12
(dp2083
S'posn'
p2084
S'160'
p2085
sS'name'
p2086
S'\xe0\xa4\x95\xe0\xa5\x803'
p2087
sS'drel'
p2088
S'lwg__psp:NP5'
p2089
sS'chunktype'
p2090
S'child:NP5'
p2091
sS'af'
p2092
S'\xe0\xa4\x95\xe0\xa4\xbe,psp,f,sg,,o,,'
p2093
ssbsg28
I00
sg29
I00
sg30
Nsg31
Nsg32
I4
sg33
I3
sg34
Nsg35
Nsg36
S'PSP'
p2094
sg38
g2081
sg39
I00
sba(issf_api
Word
p2095
(dp2096
g6
I00
sg7
V\u0935\u094d\u092f\u0935\u0938\u094d\u0925\u093e
p2097
sg9
(issf_api
FeatureSet
p2098
(dp2099
g12
(dp2100
S'posn'
p2101
S'170'
p2102
sS'name'
p2103
S'\xe0\xa4\xb5\xe0\xa5\x8d\xe0\xa4\xaf\xe0\xa4\xb5\xe0\xa4\xb8\xe0\xa5\x8d\xe0\xa4\xa5\xe0\xa4\xbe'
p2104
sS'af'
p2105
S'\xe0\xa4\xb5\xe0\xa5\x8d\xe0\xa4\xaf\xe0\xa4\xb5\xe0\xa4\xb8\xe0\xa5\x8d\xe0\xa4\xa5\xe0\xa4\xbe,n,f,sg,3,d,0,0'
p2106
sS'chunkid'
p2107
S'NP6'
p2108
sS'drel'
p2109
S'pof:VGF'
p2110
sS'chunktype'
p2111
S'head:NP6'
p2112
ssbsg28
I00
sg29
I00
sg30
Nsg31
Nsg32
I5
sg33
I3
sg34
Nsg35
Nsg36
S'NN'
p2113
sg38
g2098
sg39
I00
sba(issf_api
Word
p2114
(dp2115
g6
I00
sg7
V\u0915\u0940
p2116
sg9
(issf_api
FeatureSet
p2117
(dp2118
g12
(dp2119
S'posn'
p2120
S'180'
p2121
sS'name'
p2122
S'\xe0\xa4\x95\xe0\xa5\x804'
p2123
sS'af'
p2124
S'\xe0\xa4\x95\xe0\xa4\xb0,v,f,sg,3,,\xe0\xa4\xaf\xe0\xa4\xbe_\xe0\xa4\xb9\xe0\xa5\x88,yA'
p2125
sS'chunkid'
p2126
S'VGF'
p2127
sS'chunktype'
p2128
S'head:VGF'
p2129
sS'voicetype'
p2130
S'active'
p2131
sS'vpos'
p2132
S'tam_2'
p2133
sS'stype'
p2134
S'declarative'
p2135
ssbsg28
I00
sg29
I00
sg30
Nsg31
Nsg32
I6
sg33
I3
sg34
Nsg35
Nsg36
S'VM'
p2136
sg38
g2117
sg39
I00
sba(issf_api
Word
p2137
(dp2138
g6
I00
sg7
V\u0939\u0948
p2139
sg9
(issf_api
FeatureSet
p2140
(dp2141
g12
(dp2142
S'posn'
p2143
S'190'
p2144
sS'name'
p2145
S'\xe0\xa4\xb9\xe0\xa5\x88'
p2146
sS'drel'
p2147
S'lwg__vaux:VGF'
p2148
sS'chunktype'
p2149
S'child:VGF'
p2150
sS'af'
p2151
S'\xe0\xa4\xb9\xe0\xa5\x88,v,any,sg,3,,\xe0\xa4\xb9\xe0\xa5\x88,hE'
p2152
ssbsg28
I00
sg29
I00
sg30
Nsg31
Nsg32
I6
sg33
I3
sg34
Nsg35
Nsg36
S'VAUX'
p2153
sg38
g2140
sg39
I00
sba(issf_api
Word
p2154
(dp2155
g6
I00
sg7
V\u0964
p2156
sg9
(issf_api
FeatureSet
p2157
(dp2158
g12
(dp2159
S'posn'
p2160
S'200'
p2161
sS'name'
p2162
S'\xe0\xa5\xa4'
p2163
sS'af'
p2164
S'\xe0\xa5\xa4,punc,,,,,,'
p2165
sS'chunkid'
p2166
S'BLK'
p2167
sS'drel'
p2168
S'rsym:VGF'
p2169
sS'chunktype'
p2170
S'head:BLK'
p2171
ssbsg28
I00
sg29
I00
sg30
Nsg31
Nsg32
I7
sg33
I3
sg34
Nsg35
Nsg36
S'SYM'
p2172
sg38
g2157
sg39
I00
sba(issf_api
Word
p2173
(dp2174
g6
I00
sg7
V\u0915\u0930\u094d\u0928\u093e\u091f\u0915
p2175
sg9
(issf_api
FeatureSet
p2176
(dp2177
g12
(dp2178
S'posn'
p2179
S'10'
p2180
sS'name'
p2181
S'\xe0\xa4\x95\xe0\xa4\xb0\xe0\xa5\x8d\xe0\xa4\xa8\xe0\xa4\xbe\xe0\xa4\x9f\xe0\xa4\x95'
p2182
sS'drel'
p2183
S'pof__cn:NP'
p2184
sS'chunktype'
p2185
S'child:NP'
p2186
sS'af'
p2187
S'\xe0\xa4\x95\xe0\xa4\xb0\xe0\xa5\x8d\xe0\xa4\xa8\xe0\xa4\xbe\xe0\xa4\x9f\xe0\xa4\x95,n,m,sg,3,d,0,0'
p2188
ssbsg28
I00
sg29
I00
sg30
Nsg31
Nsg32
I0
sg33
I4
sg34
Nsg35
Nsg36
S'NNPC'
p2189
sg38
g2176
sg39
I00
sba(issf_api
Word
p2190
(dp2191
g6
I00
sg7
V\u092e\u0939\u093f\u0932\u093e
p2192
sg9
(issf_api
FeatureSet
p2193
(dp2194
g12
(dp2195
S'posn'
p2196
S'20'
p2197
sS'name'
p2198
S'\xe0\xa4\xae\xe0\xa4\xb9\xe0\xa4\xbf\xe0\xa4\xb2\xe0\xa4\xbe'
p2199
sS'drel'
p2200
S'pof__cn:NP'
p2201
sS'chunktype'
p2202
S'child:NP'
p2203
sS'af'
p2204
S'\xe0\xa4\xae\xe0\xa4\xb9\xe0\xa4\xbf\xe0\xa4\xb2\xe0\xa4\xbe,n,f,sg,3,d,0,0'
p2205
ssbsg28
I00
sg29
I00
sg30
Nsg31
Nsg32
I0
sg33
I4
sg34
Nsg35
Nsg36
S'NNPC'
p2206
sg38
g2193
sg39
I00
sba(issf_api
Word
p2207
(dp2208
g6
I00
sg7
V\u0906\u092f\u094b\u0917
p2209
sg9
(issf_api
FeatureSet
p2210
(dp2211
g12
(dp2212
S'posn'
p2213
S'30'
p2214
sS'name'
p2215
S'\xe0\xa4\x86\xe0\xa4\xaf\xe0\xa5\x8b\xe0\xa4\x97'
p2216
sS'af'
p2217
S'\xe0\xa4\x86\xe0\xa4\xaf\xe0\xa5\x8b\xe0\xa4\x97,n,m,sg,3,o,0_\xe0\xa4\x95\xe0\xa5\x8b,0'
p2218
sS'chunkid'
p2219
S'NP'
p2220
sS'drel'
p2221
S'k4:VGF'
p2222
sS'vpos'
p2223
S'vib_4'
p2224
sS'chunktype'
p2225
S'head:NP'
p2226
ssbsg28
I00
sg29
I00
sg30
Nsg31
Nsg32
I0
sg33
I4
sg34
Nsg35
Nsg36
S'NNP'
p2227
sg38
g2210
sg39
I00
sba(issf_api
Word
p2228
(dp2229
g6
I00
sg7
V\u0915\u094b
p2230
sg9
(issf_api
FeatureSet
p2231
(dp2232
g12
(dp2233
S'posn'
p2234
S'40'
p2235
sS'name'
p2236
S'\xe0\xa4\x95\xe0\xa5\x8b'
p2237
sS'drel'
p2238
S'lwg__psp:NP'
p2239
sS'chunktype'
p2240
S'child:NP'
p2241
sS'af'
p2242
S'\xe0\xa4\x95\xe0\xa5\x8b,psp,,,,,,'
p2243
ssbsg28
I00
sg29
I00
sg30
Nsg31
Nsg32
I0
sg33
I4
sg34
Nsg35
Nsg36
S'PSP'
p2244
sg38
g2231
sg39
I00
sba(issf_api
Word
p2245
(dp2246
g6
I00
sg7
V\u0932\u093f\u0916\u093f\u0924
p2247
sg9
(issf_api
FeatureSet
p2248
(dp2249
g12
(dp2250
S'posn'
p2251
S'50'
p2252
sS'name'
p2253
S'\xe0\xa4\xb2\xe0\xa4\xbf\xe0\xa4\x96\xe0\xa4\xbf\xe0\xa4\xa4'
p2254
sS'af'
p2255
S'\xe0\xa4\xb2\xe0\xa4\xbf\xe0\xa4\x96\xe0\xa4\xbf\xe0\xa4\xa4,n,any,sg,3,o,0_\xe0\xa4\xae\xe0\xa5\x87\xe0\xa4\x82,0'
p2256
sS'chunkid'
p2257
S'NP2'
p2258
sS'drel'
p2259
S'adv:VGF'
p2260
sS'vpos'
p2261
S'vib_2'
p2262
sS'chunktype'
p2263
S'head:NP2'
p2264
ssbsg28
I00
sg29
I00
sg30
Nsg31
Nsg32
I1
sg33
I4
sg34
Nsg35
Nsg36
S'NN'
p2265
sg38
g2248
sg39
I00
sba(issf_api
Word
p2266
(dp2267
g6
I00
sg7
V\u092e\u0947\u0902
p2268
sg9
(issf_api
FeatureSet
p2269
(dp2270
g12
(dp2271
S'posn'
p2272
S'60'
p2273
sS'name'
p2274
S'\xe0\xa4\xae\xe0\xa5\x87\xe0\xa4\x82'
p2275
sS'drel'
p2276
S'lwg__psp:NP2'
p2277
sS'chunktype'
p2278
S'child:NP2'
p2279
sS'af'
p2280
S'\xe0\xa4\xae\xe0\xa5\x87\xe0\xa4\x82,psp,,,,,,'
p2281
ssbsg28
I00
sg29
I00
sg30
Nsg31
Nsg32
I1
sg33
I4
sg34
Nsg35
Nsg36
S'PSP'
p2282
sg38
g2269
sg39
I00
sba(issf_api
Word
p2283
(dp2284
g6
I00
sg7
V\u0905\u0902\u091c\u0932\u093f
p2285
sg9
(issf_api
FeatureSet
p2286
(dp2287
g12
(dp2288
S'crefhead'
p2289
S'\xe0\xa4\x85\xe0\xa4\x82\xe0\xa4\x9c\xe0\xa4\xb2\xe0\xa4\xbf:i20'
p2290
sS'posn'
p2291
S'70'
p2292
sS'name'
p2293
S'\xe0\xa4\x85\xe0\xa4\x82\xe0\xa4\x9c\xe0\xa4\xb2\xe0\xa4\xbf'
p2294
sS'af'
p2295
S'\xe0\xa4\x85\xe0\xa4\x82\xe0\xa4\x9c\xe0\xa4\xb2\xe0\xa4\xbf,n,f,sg,3,o,0_\xe0\xa4\xa8\xe0\xa5\x87,0'
p2296
sS'chunkid'
p2297
S'NP3'
p2298
sS'creftype'
p2299
S'Coreference-Identity:i17'
p2300
sS'chunktype'
p2301
S'head:NP3'
p2302
sS'vpos'
p2303
S'vib_2'
p2304
sS'cref'
p2305
S'i20%1:t2'
p2306
sS'drel'
p2307
S'k1:VGF'
p2308
ssbsg28
I00
sg29
I00
sg30
Nsg31
Nsg32
I2
sg33
I4
sg34
Nsg35
Nsg36
S'NNP'
p2309
sg38
g2286
sg39
I00
sba(issf_api
Word
p2310
(dp2311
g6
I00
sg7
V\u0928\u0947
p2312
sg9
(issf_api
FeatureSet
p2313
(dp2314
g12
(dp2315
S'posn'
p2316
S'80'
p2317
sS'name'
p2318
S'\xe0\xa4\xa8\xe0\xa5\x87'
p2319
sS'drel'
p2320
S'lwg__psp:NP3'
p2321
sS'chunktype'
p2322
S'child:NP3'
p2323
sS'af'
p2324
S'\xe0\xa4\xa8\xe0\xa5\x87,psp,,,,,,'
p2325
ssbsg28
I00
sg29
I00
sg30
Nsg31
Nsg32
I2
sg33
I4
sg34
Nsg35
Nsg36
S'PSP'
p2326
sg38
g2313
sg39
I00
sba(issf_api
Word
p2327
(dp2328
g6
I00
sg7
V\u0915\u0939\u093e
p2329
sg9
(issf_api
FeatureSet
p2330
(dp2331
g12
(dp2332
S'posn'
p2333
S'90'
p2334
sS'name'
p2335
S'\xe0\xa4\x95\xe0\xa4\xb9\xe0\xa4\xbe'
p2336
sS'af'
p2337
S'\xe0\xa4\x95\xe0\xa4\xb9,v,m,sg,any,,\xe0\xa4\xaf\xe0\xa4\xbe_\xe0\xa4\xa5\xe0\xa4\xbe,yA'
p2338
sS'chunkid'
p2339
S'VGF'
p2340
sS'chunktype'
p2341
S'head:VGF'
p2342
sS'voicetype'
p2343
S'active'
p2344
sS'vpos'
p2345
S'tam_2'
p2346
sS'stype'
p2347
S'declarative'
p2348
ssbsg28
I00
sg29
I00
sg30
Nsg31
Nsg32
I3
sg33
I4
sg34
Nsg35
Nsg36
S'VM'
p2349
sg38
g2330
sg39
I00
sba(issf_api
Word
p2350
(dp2351
g6
I00
sg7
V\u0925\u093e
p2352
sg9
(issf_api
FeatureSet
p2353
(dp2354
g12
(dp2355
S'posn'
p2356
S'100'
p2357
sS'name'
p2358
S'\xe0\xa4\xa5\xe0\xa4\xbe'
p2359
sS'drel'
p2360
S'lwg__vaux:VGF'
p2361
sS'chunktype'
p2362
S'child:VGF'
p2363
sS'af'
p2364
S'\xe0\xa4\xa5\xe0\xa4\xbe,v,m,sg,any,,0,0'
p2365
ssbsg28
I00
sg29
I00
sg30
Nsg31
Nsg32
I3
sg33
I4
sg34
Nsg35
Nsg36
S'VAUX'
p2366
sg38
g2353
sg39
I00
sba(issf_api
Word
p2367
(dp2368
g6
I00
sg7
V\u0915\u093f
p2369
sg9
(issf_api
FeatureSet
p2370
(dp2371
g12
(dp2372
S'posn'
p2373
S'110'
p2374
sS'name'
p2375
S'\xe0\xa4\x95\xe0\xa4\xbf'
p2376
sS'af'
p2377
S'\xe0\xa4\x95\xe0\xa4\xbf,avy,,,,,,'
p2378
sS'chunkid'
p2379
S'CCP'
p2380
sS'drel'
p2381
S'k2:VGF'
p2382
sS'chunktype'
p2383
S'head:CCP'
p2384
ssbsg28
I00
sg29
I00
sg30
Nsg31
Nsg32
I4
sg33
I4
sg34
Nsg35
Nsg36
S'CC'
p2385
sg38
g2370
sg39
I00
sba(issf_api
Word
p2386
(dp2387
g6
I00
sg7
V\u0935\u0939
p2388
sg9
(issf_api
FeatureSet
p2389
(dp2390
g12
(dp2391
S'crefhead'
p2392
S'\xe0\xa4\xb5\xe0\xa4\xb9:i21'
p2393
sS'posn'
p2394
S'120'
p2395
sS'name'
p2396
S'\xe0\xa4\xb5\xe0\xa4\xb9'
p2397
sS'af'
p2398
S'\xe0\xa4\xb5\xe0\xa4\xb9,pn,any,sg,3,d,0,0'
p2399
sS'chunkid'
p2400
S'NP4'
p2401
sS'creftype'
p2402
S'Anaphora-C:i20'
p2403
sS'chunktype'
p2404
S'head:NP4'
p2405
sS'cref'
p2406
S'i21%1:t2'
p2407
sS'drel'
p2408
S'k1:VGF2'
p2409
ssbsg28
I00
sg29
I00
sg30
Nsg31
Nsg32
I5
sg33
I4
sg34
Nsg35
Nsg36
S'PRP'
p2410
sg38
g2389
sg39
I00
sba(issf_api
Word
p2411
(dp2412
g6
I00
sg7
V\u0905\u092a\u0928\u0940
p2413
sg9
(issf_api
FeatureSet
p2414
(dp2415
g12
(dp2416
S'crefhead'
p2417
S'\xe0\xa4\x85\xe0\xa4\xaa\xe0\xa4\xa8\xe0\xa5\x80:i22'
p2418
sS'posn'
p2419
S'130'
p2420
sS'name'
p2421
S'\xe0\xa4\x85\xe0\xa4\xaa\xe0\xa4\xa8\xe0\xa5\x80'
p2422
sS'af'
p2423
S'\xe0\xa4\x85\xe0\xa4\xaa\xe0\xa4\xa8\xe0\xa4\xbe,pn,f,any,any,d,0,0'
p2424
sS'chunkid'
p2425
S'NP5'
p2426
sS'creftype'
p2427
S'Anaphora-C:i21'
p2428
sS'chunktype'
p2429
S'head:NP5'
p2430
sS'cref'
p2431
S'i22%1:t2'
p2432
sS'drel'
p2433
S'r6-k2:NP6'
p2434
ssbsg28
I00
sg29
I00
sg30
Nsg31
Nsg32
I6
sg33
I4
sg34
Nsg35
Nsg36
S'PRP'
p2435
sg38
g2414
sg39
I00
sba(issf_api
Word
p2436
(dp2437
g6
I00
sg7
V\u091c\u093e\u0928
p2438
sg9
(issf_api
FeatureSet
p2439
(dp2440
g12
(dp2441
S'posn'
p2442
S'140'
p2443
sS'name'
p2444
S'\xe0\xa4\x9c\xe0\xa4\xbe\xe0\xa4\xa8'
p2445
sS'af'
p2446
S'\xe0\xa4\x9c\xe0\xa4\xbe\xe0\xa4\xa8,n,f,sg,3,d,0,0'
p2447
sS'chunkid'
p2448
S'NP6'
p2449
sS'drel'
p2450
S'pof:VGF2'
p2451
sS'chunktype'
p2452
S'head:NP6'
p2453
ssbsg28
I00
sg29
I00
sg30
Nsg31
Nsg32
I7
sg33
I4
sg34
Nsg35
Nsg36
S'NN'
p2454
sg38
g2439
sg39
I00
sba(issf_api
Word
p2455
(dp2456
g6
I00
sg7
V\u0932\u0947
p2457
sg9
(issf_api
FeatureSet
p2458
(dp2459
g12
(dp2460
S'posn'
p2461
S'150'
p2462
sS'name'
p2463
S'\xe0\xa4\xb2\xe0\xa5\x87'
p2464
sS'af'
p2465
S'\xe0\xa4\xb2\xe0\xa5\x87,v,f,sg,3h,,0_\xe0\xa4\xb8\xe0\xa4\x95+\xe0\xa4\xa4\xe0\xa4\xbe_\xe0\xa4\xb9\xe0\xa5\x88,0'
p2466
sS'chunkid'
p2467
S'VGF2'
p2468
sS'stype'
p2469
S'declarative'
p2470
sS'drel'
p2471
S'ccof:CCP'
p2472
sS'voicetype'
p2473
S'active'
p2474
sS'vpos'
p2475
S'tam_2_3'
p2476
sS'chunktype'
p2477
S'head:VGF2'
p2478
ssbsg28
I00
sg29
I00
sg30
Nsg31
Nsg32
I8
sg33
I4
sg34
Nsg35
Nsg36
S'VM'
p2479
sg38
g2458
sg39
I00
sba(issf_api
Word
p2480
(dp2481
g6
I00
sg7
V\u0938\u0915\u0924\u0940
p2482
sg9
(issf_api
FeatureSet
p2483
(dp2484
g12
(dp2485
S'posn'
p2486
S'160'
p2487
sS'name'
p2488
S'\xe0\xa4\xb8\xe0\xa4\x95\xe0\xa4\xa4\xe0\xa5\x80'
p2489
sS'drel'
p2490
S'lwg__vaux:VGF2'
p2491
sS'chunktype'
p2492
S'child:VGF2'
p2493
sS'af'
p2494
S'\xe0\xa4\xb8\xe0\xa4\x95,v,f,sg,any,,\xe0\xa4\xa4\xe0\xa4\xbe,wA'
p2495
ssbsg28
I00
sg29
I00
sg30
Nsg31
Nsg32
I8
sg33
I4
sg34
Nsg35
Nsg36
S'VAUX'
p2496
sg38
g2483
sg39
I00
sba(issf_api
Word
p2497
(dp2498
g6
I00
sg7
V\u0939\u0948\u0902
p2499
sg9
(issf_api
FeatureSet
p2500
(dp2501
g12
(dp2502
S'posn'
p2503
S'170'
p2504
sS'name'
p2505
S'\xe0\xa4\xb9\xe0\xa5\x88\xe0\xa4\x82'
p2506
sS'drel'
p2507
S'lwg__vaux:VGF2'
p2508
sS'chunktype'
p2509
S'child:VGF2'
p2510
sS'af'
p2511
S'\xe0\xa4\xb9\xe0\xa5\x88,v,any,sg,3h,,\xe0\xa4\xb9\xe0\xa5\x88,hE'
p2512
ssbsg28
I00
sg29
I00
sg30
Nsg31
Nsg32
I8
sg33
I4
sg34
Nsg35
Nsg36
S'VAUX'
p2513
sg38
g2500
sg39
I00
sba(issf_api
Word
p2514
(dp2515
g6
I00
sg7
V\u0964
p2516
sg9
(issf_api
FeatureSet
p2517
(dp2518
g12
(dp2519
S'posn'
p2520
S'180'
p2521
sS'name'
p2522
S'\xe0\xa5\xa4'
p2523
sS'af'
p2524
S'\xe0\xa5\xa4,punc,,,,,,'
p2525
sS'chunkid'
p2526
S'BLK'
p2527
sS'drel'
p2528
S'rsym:VGF'
p2529
sS'chunktype'
p2530
S'head:BLK'
p2531
ssbsg28
I00
sg29
I00
sg30
Nsg31
Nsg32
I9
sg33
I4
sg34
Nsg35
Nsg36
S'SYM'
p2532
sg38
g2517
sg39
I00
sba(issf_api
Word
p2533
(dp2534
g6
I00
sg7
V\u0935\u093f\u0902\u0917
p2535
sg9
(issf_api
FeatureSet
p2536
(dp2537
g12
(dp2538
S'posn'
p2539
S'10'
p2540
sS'name'
p2541
S'\xe0\xa4\xb5\xe0\xa4\xbf\xe0\xa4\x82\xe0\xa4\x97'
p2542
sS'af'
p2543
S'\xe0\xa4\xb5\xe0\xa4\xbf\xe0\xa4\x82\xe0\xa4\x97,n,m,sg,3,d,0,0'
p2544
sS'drel'
p2545
S'pof__cn:NP'
p2546
sS'chunktype'
p2547
S'child:NP'
p2548
sS'cref'
p2549
S'i23%0:t4,i24%0:t8'
p2550
ssbsg28
I00
sg29
I00
sg30
Nsg31
Nsg32
I0
sg33
I5
sg34
Nsg35
Nsg36
S'NNC'
p2551
sg38
g2536
sg39
I00
sba(issf_api
Word
p2552
(dp2553
g6
I00
sg7
V\u0915\u092e\u093e\u0902\u0921\u0930
p2554
sg9
(issf_api
FeatureSet
p2555
(dp2556
g12
(dp2557
S'crefhead'
p2558
S'\xe0\xa4\x95\xe0\xa4\xae\xe0\xa4\xbe\xe0\xa4\x82\xe0\xa4\xa1\xe0\xa4\xb0:i23'
p2559
sS'posn'
p2560
S'20'
p2561
sS'name'
p2562
S'\xe0\xa4\x95\xe0\xa4\xae\xe0\xa4\xbe\xe0\xa4\x82\xe0\xa4\xa1\xe0\xa4\xb0'
p2563
sS'af'
p2564
S'\xe0\xa4\x95\xe0\xa4\xae\xe0\xa4\xbe\xe0\xa4\x82\xe0\xa4\xa1\xe0\xa4\xb0,n,m,sg,3,d,0,0'
p2565
sS'creftype'
p2566
S'Coreference-Noun-Noun:i12'
p2567
sS'drel'
p2568
S'pof__cn:NP'
p2569
sS'chunktype'
p2570
S'child:NP'
p2571
sS'cref'
p2572
S'i23%1:t4,i24%0:t8'
p2573
ssbsg28
I00
sg29
I00
sg30
Nsg31
Nsg32
I0
sg33
I5
sg34
Nsg35
Nsg36
S'NNC'
p2574
sg38
g2555
sg39
I00
sba(issf_api
Word
p2575
(dp2576
g6
I00
sg7
V\u0926\u0941\u092c\u0947
p2577
sg9
(issf_api
FeatureSet
p2578
(dp2579
g12
(dp2580
S'crefhead'
p2581
S'\xe0\xa4\xa6\xe0\xa5\x81\xe0\xa4\xac\xe0\xa5\x87:i25'
p2582
sS'posn'
p2583
S'30'
p2584
sS'name'
p2585
S'\xe0\xa4\xa6\xe0\xa5\x81\xe0\xa4\xac\xe0\xa5\x87'
p2586
sS'af'
p2587
S'\xe0\xa4\xa6\xe0\xa5\x81\xe0\xa4\xac\xe0\xa5\x87,n,any,sg,3,o,0_\xe0\xa4\xa8\xe0\xa5\x87,0'
p2588
sS'chunkid'
p2589
S'NP'
p2590
sS'creftype'
p2591
S'Coreference-NounComplement:i23'
p2592
sS'chunktype'
p2593
S'head:NP'
p2594
sS'vpos'
p2595
S'vib_4'
p2596
sS'cref'
p2597
S'i25%1:t4,i24%0:t8'
p2598
sS'drel'
p2599
S'k1:VGF'
p2600
ssbsg28
I00
sg29
I00
sg30
Nsg31
Nsg32
I0
sg33
I5
sg34
Nsg35
Nsg36
S'NNP'
p2601
sg38
g2578
sg39
I00
sba(issf_api
Word
p2602
(dp2603
g6
I00
sg7
V\u0928\u0947
p2604
sg9
(issf_api
FeatureSet
p2605
(dp2606
g12
(dp2607
S'posn'
p2608
S'40'
p2609
sS'name'
p2610
S'\xe0\xa4\xa8\xe0\xa5\x87'
p2611
sS'af'
p2612
S'\xe0\xa4\xa8\xe0\xa5\x87,psp,,,,,,'
p2613
sS'drel'
p2614
S'lwg__psp:NP'
p2615
sS'chunktype'
p2616
S'child:NP'
p2617
sS'cref'
p2618
S'i24%0:t8'
p2619
ssbsg28
I00
sg29
I00
sg30
Nsg31
Nsg32
I0
sg33
I5
sg34
Nsg35
Nsg36
S'PSP'
p2620
sg38
g2605
sg39
I00
sba(issf_api
Word
p2621
(dp2622
g6
I00
sg7
V\u0915\u094b\u0930\u094d\u091f
p2623
sg9
(issf_api
FeatureSet
p2624
(dp2625
g12
(dp2626
S'crefhead'
p2627
S'\xe0\xa4\x95\xe0\xa5\x8b\xe0\xa4\xb0\xe0\xa5\x8d\xe0\xa4\x9f:i26'
p2628
sS'posn'
p2629
S'50'
p2630
sS'name'
p2631
S'\xe0\xa4\x95\xe0\xa5\x8b\xe0\xa4\xb0\xe0\xa5\x8d\xe0\xa4\x9f'
p2632
sS'af'
p2633
S'\xe0\xa4\x95\xe0\xa5\x8b\xe0\xa4\xb0\xe0\xa5\x8d\xe0\xa4\x9f,n,m,sg,3,o,0_\xe0\xa4\x95\xe0\xa5\x8b,0'
p2634
sS'chunkid'
p2635
S'NP2'
p2636
sS'creftype'
p2637
S'Coreference-Noun-Noun:i9'
p2638
sS'chunktype'
p2639
S'head:NP2'
p2640
sS'vpos'
p2641
S'vib_2'
p2642
sS'cref'
p2643
S'i26%1:t5,i24%0:t8'
p2644
sS'drel'
p2645
S'k4:VGF'
p2646
ssbsg28
I00
sg29
I00
sg30
Nsg31
Nsg32
I1
sg33
I5
sg34
Nsg35
Nsg36
S'NN'
p2647
sg38
g2624
sg39
I00
sba(issf_api
Word
p2648
(dp2649
g6
I00
sg7
V\u0915\u094b
p2650
sg9
(issf_api
FeatureSet
p2651
(dp2652
g12
(dp2653
S'posn'
p2654
S'60'
p2655
sS'name'
p2656
S'\xe0\xa4\x95\xe0\xa5\x8b'
p2657
sS'af'
p2658
S'\xe0\xa4\x95\xe0\xa5\x8b,psp,,,,,,'
p2659
sS'drel'
p2660
S'lwg__psp:NP2'
p2661
sS'chunktype'
p2662
S'child:NP2'
p2663
sS'cref'
p2664
S'i24%0:t8'
p2665
ssbsg28
I00
sg29
I00
sg30
Nsg31
Nsg32
I1
sg33
I5
sg34
Nsg35
Nsg36
S'PSP'
p2666
sg38
g2651
sg39
I00
sba(issf_api
Word
p2667
(dp2668
g6
I00
sg7
V\u092c\u0924\u093e\u092f\u093e
p2669
sg9
(issf_api
FeatureSet
p2670
(dp2671
g12
(dp2672
S'posn'
p2673
S'70'
p2674
sS'name'
p2675
S'\xe0\xa4\xac\xe0\xa4\xa4\xe0\xa4\xbe\xe0\xa4\xaf\xe0\xa4\xbe'
p2676
sS'af'
p2677
S'\xe0\xa4\xac\xe0\xa4\xa4\xe0\xa4\xbe,v,m,sg,any,,\xe0\xa4\xaf\xe0\xa4\xbe,yA'
p2678
sS'chunkid'
p2679
S'VGF'
p2680
sS'stype'
p2681
S'declarative'
p2682
sS'chunktype'
p2683
S'head:VGF'
p2684
sS'voicetype'
p2685
S'active'
p2686
sS'cref'
p2687
S'i24%0:t8'
p2688
ssbsg28
I00
sg29
I00
sg30
Nsg31
Nsg32
I2
sg33
I5
sg34
Nsg35
Nsg36
S'VM'
p2689
sg38
g2670
sg39
I00
sba(issf_api
Word
p2690
(dp2691
g6
I00
sg7
V\u0915\u093f
p2692
sg9
(issf_api
FeatureSet
p2693
(dp2694
g12
(dp2695
S'posn'
p2696
S'80'
p2697
sS'name'
p2698
S'\xe0\xa4\x95\xe0\xa4\xbf'
p2699
sS'af'
p2700
S'\xe0\xa4\x95\xe0\xa4\xbf,avy,,,,,,'
p2701
sS'chunkid'
p2702
S'CCP'
p2703
sS'drel'
p2704
S'k2:VGF'
p2705
sS'chunktype'
p2706
S'head:CCP'
p2707
sS'cref'
p2708
S'i24%0:t8'
p2709
ssbsg28
I00
sg29
I00
sg30
Nsg31
Nsg32
I3
sg33
I5
sg34
Nsg35
Nsg36
S'CC'
p2710
sg38
g2693
sg39
I00
sba(issf_api
Word
p2711
(dp2712
g6
I00
sg7
V\u0909\u0928\u094d\u0939\u0947\u0902
p2713
sg9
(issf_api
FeatureSet
p2714
(dp2715
g12
(dp2716
S'crefhead'
p2717
S'\xe0\xa4\x89\xe0\xa4\xa8\xe0\xa5\x8d\xe0\xa4\xb9\xe0\xa5\x87\xe0\xa4\x82:i27'
p2718
sS'posn'
p2719
S'90'
p2720
sS'name'
p2721
S'\xe0\xa4\x89\xe0\xa4\xa8\xe0\xa5\x8d\xe0\xa4\xb9\xe0\xa5\x87\xe0\xa4\x82'
p2722
sS'af'
p2723
S'\xe0\xa4\xb5\xe0\xa4\xb9,pn,any,sg,3h,o,\xe0\xa4\x95\xe0\xa5\x8b,ko'
p2724
sS'chunkid'
p2725
S'NP3'
p2726
sS'creftype'
p2727
S'Anaphora-C:i25'
p2728
sS'chunktype'
p2729
S'head:NP3'
p2730
sS'cref'
p2731
S'i24%0:t8,i27%1:t4'
p2732
sS'drel'
p2733
S'k4a:NULL__VGF'
p2734
ssbsg28
I00
sg29
I00
sg30
Nsg31
Nsg32
I4
sg33
I5
sg34
Nsg35
Nsg36
S'PRP'
p2735
sg38
g2714
sg39
I00
sba(issf_api
Word
p2736
(dp2737
g6
I00
sg7
V\u0928\u0939\u0940\u0902
p2738
sg9
(issf_api
FeatureSet
p2739
(dp2740
g12
(dp2741
S'posn'
p2742
S'100'
p2743
sS'name'
p2744
S'\xe0\xa4\xa8\xe0\xa4\xb9\xe0\xa5\x80\xe0\xa4\x82'
p2745
sS'af'
p2746
S'\xe0\xa4\xa8\xe0\xa4\xb9\xe0\xa5\x80\xe0\xa4\x82,avy,,,,,,'
p2747
sS'chunkid'
p2748
S'NEGP'
p2749
sS'drel'
p2750
S'vmod:NULL__VGF'
p2751
sS'chunktype'
p2752
S'head:NEGP'
p2753
sS'cref'
p2754
S'i24%0:t8'
p2755
ssbsg28
I00
sg29
I00
sg30
Nsg31
Nsg32
I5
sg33
I5
sg34
Nsg35
Nsg36
S'NEG'
p2756
sg38
g2739
sg39
I00
sba(issf_api
Word
p2757
(dp2758
g6
I00
sg7
V\u092e\u093e\u0932\u0942\u092e
p2759
sg9
(issf_api
FeatureSet
p2760
(dp2761
g12
(dp2762
S'posn'
p2763
S'110'
p2764
sS'name'
p2765
S'\xe0\xa4\xae\xe0\xa4\xbe\xe0\xa4\xb2\xe0\xa5\x82\xe0\xa4\xae'
p2766
sS'af'
p2767
S'\xe0\xa4\xae\xe0\xa4\xbe\xe0\xa4\xb2\xe0\xa5\x82\xe0\xa4\xae,adj,any,any,,,,'
p2768
sS'chunkid'
p2769
S'JJP'
p2770
sS'drel'
p2771
S'pof:NULL__VGF'
p2772
sS'chunktype'
p2773
S'head:JJP'
p2774
sS'cref'
p2775
S'i24%0:t8'
p2776
ssbsg28
I00
sg29
I00
sg30
Nsg31
Nsg32
I6
sg33
I5
sg34
Nsg35
Nsg36
S'JJ'
p2777
sg38
g2760
sg39
I00
sba(issf_api
Word
p2778
(dp2779
g6
I00
sg7
V\u0915\u093f
p2780
sg9
(issf_api
FeatureSet
p2781
(dp2782
g12
(dp2783
S'posn'
p2784
S'120'
p2785
sS'name'
p2786
S'\xe0\xa4\x95\xe0\xa4\xbf2'
p2787
sS'af'
p2788
S'\xe0\xa4\x95\xe0\xa4\xbf,avy,,,,,,'
p2789
sS'chunkid'
p2790
S'CCP2'
p2791
sS'drel'
p2792
S'k1:NULL__VGF'
p2793
sS'chunktype'
p2794
S'head:CCP2'
p2795
sS'cref'
p2796
S'i24%0:t8'
p2797
ssbsg28
I00
sg29
I00
sg30
Nsg31
Nsg32
I7
sg33
I5
sg34
Nsg35
Nsg36
S'CC'
p2798
sg38
g2781
sg39
I00
sba(issf_api
Word
p2799
(dp2800
g6
I00
sg7
V\u0905\u0902\u091c\u0932\u093f
p2801
sg9
(issf_api
FeatureSet
p2802
(dp2803
g12
(dp2804
S'crefhead'
p2805
S'\xe0\xa4\x85\xe0\xa4\x82\xe0\xa4\x9c\xe0\xa4\xb2\xe0\xa4\xbf:i29'
p2806
sS'posn'
p2807
S'130'
p2808
sS'name'
p2809
S'\xe0\xa4\x85\xe0\xa4\x82\xe0\xa4\x9c\xe0\xa4\xb2\xe0\xa4\xbf'
p2810
sS'af'
p2811
S'\xe0\xa4\x85\xe0\xa4\x82\xe0\xa4\x9c\xe0\xa4\xb2\xe0\xa4\xbf,n,f,sg,3,o,0_\xe0\xa4\x95\xe0\xa4\xbe,0'
p2812
sS'acrefmodhead'
p2813
S'\xe0\xa4\x85\xe0\xa4\x82\xe0\xa4\x9c\xe0\xa4\xb2\xe0\xa4\xbf:m4'
p2814
sS'chunkid'
p2815
S'NP4'
p2816
sS'acrefmod'
p2817
S'm4%1:i30'
p2818
sS'creftype'
p2819
S'Coreference-Identity:i22'
p2820
sS'chunktype'
p2821
S'head:NP4'
p2822
sS'vpos'
p2823
S'vib_2'
p2824
sS'cref'
p2825
S'i29%1:t2,i24%0:t8'
p2826
sS'drel'
p2827
S'r6:NP5'
p2828
ssbsg28
I00
sg29
I00
sg30
Nsg31
Nsg32
I8
sg33
I5
sg34
Nsg35
Nsg36
S'NNP'
p2829
sg38
g2802
sg39
I00
sba(issf_api
Word
p2830
(dp2831
g6
I00
sg7
V\u0915\u0947
p2832
sg9
(issf_api
FeatureSet
p2833
(dp2834
g12
(dp2835
S'posn'
p2836
S'140'
p2837
sS'name'
p2838
S'\xe0\xa4\x95\xe0\xa5\x87'
p2839
sS'af'
p2840
S'\xe0\xa4\x95\xe0\xa4\xbe,psp,m,pl,,d,,'
p2841
sS'drel'
p2842
S'lwg__psp:NP4'
p2843
sS'chunktype'
p2844
S'child:NP4'
p2845
sS'cref'
p2846
S'i24%0:t8'
p2847
ssbsg28
I00
sg29
I00
sg30
Nsg31
Nsg32
I8
sg33
I5
sg34
Nsg35
Nsg36
S'PSP'
p2848
sg38
g2833
sg39
I00
sba(issf_api
Word
p2849
(dp2850
g6
I00
sg7
V\u092a\u0930\u0940\u0915\u094d\u0937\u0923
p2851
sg9
(issf_api
FeatureSet
p2852
(dp2853
g12
(dp2854
S'crefhead'
p2855
S'\xe0\xa4\xaa\xe0\xa4\xb0\xe0\xa5\x80\xe0\xa4\x95\xe0\xa5\x8d\xe0\xa4\xb7\xe0\xa4\xa3:i30'
p2856
sS'posn'
p2857
S'150'
p2858
sS'name'
p2859
S'\xe0\xa4\xaa\xe0\xa4\xb0\xe0\xa5\x80\xe0\xa4\x95\xe0\xa5\x8d\xe0\xa4\xb7\xe0\xa4\xa3'
p2860
sS'af'
p2861
S'\xe0\xa4\xaa\xe0\xa4\xb0\xe0\xa5\x80\xe0\xa4\x95\xe0\xa5\x8d\xe0\xa4\xb7\xe0\xa4\xa3,n,m,pl,3,d,0,0'
p2862
sS'chunkid'
p2863
S'NP5'
p2864
sS'crefmod'
p2865
S'm4:i30'
p2866
sS'creftype'
p2867
S'Coreference-Noun-Noun:i19'
p2868
sS'chunktype'
p2869
S'head:NP5'
p2870
sS'crefchainhead'
p2871
S'i30:t3'
p2872
sS'cref'
p2873
S'i24%0:t8,i30%1:t3'
p2874
sS'drel'
p2875
S'k1:VGF2'
p2876
ssbsg28
I00
sg29
I00
sg30
Nsg31
Nsg32
I9
sg33
I5
sg34
Nsg35
Nsg36
S'NN'
p2877
sg38
g2852
sg39
I00
sba(issf_api
Word
p2878
(dp2879
g6
I00
sg7
V\u0915\u092c
p2880
sg9
(issf_api
FeatureSet
p2881
(dp2882
g12
(dp2883
S'posn'
p2884
S'160'
p2885
sS'name'
p2886
S'\xe0\xa4\x95\xe0\xa4\xac'
p2887
sS'af'
p2888
S'\xe0\xa4\x95\xe0\xa4\xac,pn,,,,,,'
p2889
sS'chunkid'
p2890
S'NP6'
p2891
sS'drel'
p2892
S'k7t:VGF2'
p2893
sS'chunktype'
p2894
S'head:NP6'
p2895
sS'cref'
p2896
S'i24%0:t8'
p2897
ssbsg28
I00
sg29
I00
sg30
Nsg31
Nsg32
I10
sg33
I5
sg34
Nsg35
Nsg36
S'WQ'
p2898
sg38
g2881
sg39
I00
sba(issf_api
Word
p2899
(dp2900
g6
I00
sg7
V\u092a\u0942\u0930\u0947
p2901
sg9
(issf_api
FeatureSet
p2902
(dp2903
g12
(dp2904
S'posn'
p2905
S'170'
p2906
sS'name'
p2907
S'\xe0\xa4\xaa\xe0\xa5\x82\xe0\xa4\xb0\xe0\xa5\x87'
p2908
sS'af'
p2909
S'\xe0\xa4\xaa\xe0\xa5\x82\xe0\xa4\xb0\xe0\xa4\xbe,adj,m,pl,,,,'
p2910
sS'chunkid'
p2911
S'JJP2'
p2912
sS'drel'
p2913
S'pof:VGF2'
p2914
sS'chunktype'
p2915
S'head:JJP2'
p2916
sS'cref'
p2917
S'i24%0:t8'
p2918
ssbsg28
I00
sg29
I00
sg30
Nsg31
Nsg32
I11
sg33
I5
sg34
Nsg35
Nsg36
S'JJ'
p2919
sg38
g2902
sg39
I00
sba(issf_api
Word
p2920
(dp2921
g6
I00
sg7
V\u0939\u094b\u0902\u0917\u0947
p2922
sg9
(issf_api
FeatureSet
p2923
(dp2924
g12
(dp2925
S'crefhead'
p2926
S'\xe0\xa4\xb9\xe0\xa5\x8b\xe0\xa4\x82\xe0\xa4\x97\xe0\xa5\x87:i24'
p2927
sS'posn'
p2928
S'180'
p2929
sS'name'
p2930
S'\xe0\xa4\xb9\xe0\xa5\x8b\xe0\xa4\x82\xe0\xa4\x97\xe0\xa5\x87'
p2931
sS'af'
p2932
S'\xe0\xa4\xb9\xe0\xa5\x8b,v,m,pl,3,,\xe0\xa4\x97\xe0\xa4\xbe,gA'
p2933
sS'chunkid'
p2934
S'VGF2'
p2935
sS'stype'
p2936
S'declarative'
p2937
sS'chunktype'
p2938
S'head:VGF2'
p2939
sS'crefchainhead'
p2940
S'i24:t8'
p2941
sS'voicetype'
p2942
S'active'
p2943
sS'cref'
p2944
S'i24%1:t8'
p2945
sS'drel'
p2946
S'ccof:CCP2'
p2947
ssbsg28
I00
sg29
I00
sg30
Nsg31
Nsg32
I12
sg33
I5
sg34
Nsg35
Nsg36
S'VM'
p2948
sg38
g2923
sg39
I00
sba(issf_api
Word
p2949
(dp2950
g6
I00
sg7
V\u0964
p2951
sg9
(issf_api
FeatureSet
p2952
(dp2953
g12
(dp2954
S'posn'
p2955
S'190'
p2956
sS'name'
p2957
S'\xe0\xa5\xa4'
p2958
sS'af'
p2959
S'\xe0\xa5\xa4,punc,,,,,,'
p2960
sS'chunkid'
p2961
S'BLK'
p2962
sS'drel'
p2963
S'rsym:VGF'
p2964
sS'chunktype'
p2965
S'head:BLK'
p2966
ssbsg28
I00
sg29
I00
sg30
Nsg31
Nsg32
I13
sg33
I5
sg34
Nsg35
Nsg36
S'SYM'
p2967
sg38
g2952
sg39
I00
sba(issf_api
Word
p2968
(dp2969
g6
I00
sg7
V\u0907\u0938\u0915\u0947
p2970
sg9
(issf_api
FeatureSet
p2971
(dp2972
g12
(dp2973
S'crefhead'
p2974
S'\xe0\xa4\x87\xe0\xa4\xb8\xe0\xa4\x95\xe0\xa5\x87:i31'
p2975
sS'posn'
p2976
S'10'
p2977
sS'name'
p2978
S'\xe0\xa4\x87\xe0\xa4\xb8\xe0\xa4\x95\xe0\xa5\x87'
p2979
sS'af'
p2980
S'\xe0\xa4\xaf\xe0\xa4\xb9,pn,any,sg,3,o,0_\xe0\xa4\xb8\xe0\xa4\xbe\xe0\xa4\xa5,ke'
p2981
sS'chunkid'
p2982
S'NP'
p2983
sS'creftype'
p2984
S'Anaphora-C:i24'
p2985
sS'chunktype'
p2986
S'head:NP'
p2987
sS'vpos'
p2988
S'vib_2_RP'
p2989
sS'cref'
p2990
S'i31%1:t8'
p2991
sS'drel'
p2992
S'sent-adv:VGF'
p2993
ssbsg28
I00
sg29
I00
sg30
Nsg31
Nsg32
I0
sg33
I6
sg34
Nsg35
Nsg36
S'PRP'
p2994
sg38
g2971
sg39
I00
sba(issf_api
Word
p2995
(dp2996
g6
I00
sg7
V\u0938\u093e\u0925
p2997
sg9
(issf_api
FeatureSet
p2998
(dp2999
g12
(dp3000
S'posn'
p3001
S'20'
p3002
sS'name'
p3003
S'\xe0\xa4\xb8\xe0\xa4\xbe\xe0\xa4\xa5'
p3004
sS'drel'
p3005
S'lwg__psp:NP'
p3006
sS'chunktype'
p3007
S'child:NP'
p3008
sS'af'
p3009
S'\xe0\xa4\xb8\xe0\xa4\xbe\xe0\xa4\xa5,nst,m,sg,3,d,,'
p3010
ssbsg28
I00
sg29
I00
sg30
Nsg31
Nsg32
I0
sg33
I6
sg34
Nsg35
Nsg36
S'NST'
p3011
sg38
g2998
sg39
I00
sba(issf_api
Word
p3012
(dp3013
g6
I00
sg7
V\u0939\u0940
p3014
sg9
(issf_api
FeatureSet
p3015
(dp3016
g12
(dp3017
S'posn'
p3018
S'30'
p3019
sS'name'
p3020
S'\xe0\xa4\xb9\xe0\xa5\x80'
p3021
sS'drel'
p3022
S'lwg__rp:NP'
p3023
sS'chunktype'
p3024
S'child:NP'
p3025
sS'af'
p3026
S'\xe0\xa4\xb9\xe0\xa5\x80,avy,,,,,,'
p3027
ssbsg28
I00
sg29
I00
sg30
Nsg31
Nsg32
I0
sg33
I6
sg34
Nsg35
Nsg36
S'RP'
p3028
sg38
g3015
sg39
I00
sba(issf_api
Word
p3029
(dp3030
g6
I00
sg7
V\u0909\u0928\u094d\u0939\u094b\u0902\u0928\u0947
p3031
sg9
(issf_api
FeatureSet
p3032
(dp3033
g12
(dp3034
S'crefhead'
p3035
S'\xe0\xa4\x89\xe0\xa4\xa8\xe0\xa5\x8d\xe0\xa4\xb9\xe0\xa5\x8b\xe0\xa4\x82\xe0\xa4\xa8\xe0\xa5\x87:i33'
p3036
sS'posn'
p3037
S'40'
p3038
sS'name'
p3039
S'\xe0\xa4\x89\xe0\xa4\xa8\xe0\xa5\x8d\xe0\xa4\xb9\xe0\xa5\x8b\xe0\xa4\x82\xe0\xa4\xa8\xe0\xa5\x87'
p3040
sS'af'
p3041
S'\xe0\xa4\xb5\xe0\xa4\xb9,pn,any,sg,3h,o,\xe0\xa4\xa8\xe0\xa5\x87,ne'
p3042
sS'chunkid'
p3043
S'NP2'
p3044
sS'creftype'
p3045
S'Anaphora-C:i27'
p3046
sS'chunktype'
p3047
S'head:NP2'
p3048
sS'cref'
p3049
S'i33%1:t4'
p3050
sS'drel'
p3051
S'k1:VGF'
p3052
ssbsg28
I00
sg29
I00
sg30
Nsg31
Nsg32
I1
sg33
I6
sg34
Nsg35
Nsg36
S'PRP'
p3053
sg38
g3032
sg39
I00
sba(issf_api
Word
p3054
(dp3055
g6
I00
sg7
V\u0938\u094b\u092e\u0935\u093e\u0930
p3056
sg9
(issf_api
FeatureSet
p3057
(dp3058
g12
(dp3059
S'crefhead'
p3060
S'\xe0\xa4\xb8\xe0\xa5\x8b\xe0\xa4\xae\xe0\xa4\xb5\xe0\xa4\xbe\xe0\xa4\xb0:i35'
p3061
sS'posn'
p3062
S'50'
p3063
sS'name'
p3064
S'\xe0\xa4\xb8\xe0\xa5\x8b\xe0\xa4\xae\xe0\xa4\xb5\xe0\xa4\xbe\xe0\xa4\xb0'
p3065
sS'af'
p3066
S'\xe0\xa4\xb8\xe0\xa5\x8b\xe0\xa4\xae\xe0\xa4\xb5\xe0\xa4\xbe\xe0\xa4\xb0,n,m,sg,3,o,0_\xe0\xa4\xa4\xe0\xa4\x95_\xe0\xa4\x95\xe0\xa4\xbe,0'
p3067
sS'chunkid'
p3068
S'NP3'
p3069
sS'chunktype'
p3070
S'head:NP3'
p3071
sS'crefchainhead'
p3072
S'i35:t9'
p3073
sS'vpos'
p3074
S'vib_2_3'
p3075
sS'cref'
p3076
S'i35%1:t9'
p3077
sS'drel'
p3078
S'r6:NP4'
p3079
ssbsg28
I00
sg29
I00
sg30
Nsg31
Nsg32
I2
sg33
I6
sg34
Nsg35
Nsg36
S'NNP'
p3080
sg38
g3057
sg39
I00
sba(issf_api
Word
p3081
(dp3082
g6
I00
sg7
V\u0924\u0915
p3083
sg9
(issf_api
FeatureSet
p3084
(dp3085
g12
(dp3086
S'posn'
p3087
S'60'
p3088
sS'name'
p3089
S'\xe0\xa4\xa4\xe0\xa4\x95'
p3090
sS'drel'
p3091
S'lwg__psp:NP3'
p3092
sS'chunktype'
p3093
S'child:NP3'
p3094
sS'af'
p3095
S'\xe0\xa4\xa4\xe0\xa4\x95,psp,,,,,,'
p3096
ssbsg28
I00
sg29
I00
sg30
Nsg31
Nsg32
I2
sg33
I6
sg34
Nsg35
Nsg36
S'PSP'
p3097
sg38
g3084
sg39
I00
sba(issf_api
Word
p3098
(dp3099
g6
I00
sg7
V\u0915\u093e
p3100
sg9
(issf_api
FeatureSet
p3101
(dp3102
g12
(dp3103
S'posn'
p3104
S'70'
p3105
sS'name'
p3106
S'\xe0\xa4\x95\xe0\xa4\xbe'
p3107
sS'drel'
p3108
S'lwg__psp:NP3'
p3109
sS'chunktype'
p3110
S'child:NP3'
p3111
sS'af'
p3112
S'\xe0\xa4\x95\xe0\xa4\xbe,psp,m,sg,,d,,'
p3113
ssbsg28
I00
sg29
I00
sg30
Nsg31
Nsg32
I2
sg33
I6
sg34
Nsg35
Nsg36
S'PSP'
p3114
sg38
g3101
sg39
I00
sba(issf_api
Word
p3115
(dp3116
g6
I00
sg7
V\u0938\u092e\u092f
p3117
sg9
(issf_api
FeatureSet
p3118
(dp3119
g12
(dp3120
S'posn'
p3121
S'80'
p3122
sS'name'
p3123
S'\xe0\xa4\xb8\xe0\xa4\xae\xe0\xa4\xaf'
p3124
sS'af'
p3125
S'\xe0\xa4\xb8\xe0\xa4\xae\xe0\xa4\xaf,n,m,sg,3,d,0,0'
p3126
sS'chunkid'
p3127
S'NP4'
p3128
sS'drel'
p3129
S'k2:VGF'
p3130
sS'chunktype'
p3131
S'head:NP4'
p3132
ssbsg28
I00
sg29
I00
sg30
Nsg31
Nsg32
I3
sg33
I6
sg34
Nsg35
Nsg36
S'NN'
p3133
sg38
g3118
sg39
I00
sba(issf_api
Word
p3134
(dp3135
g6
I00
sg7
V\u092e\u093e\u0902\u0917\u093e
p3136
sg9
(issf_api
FeatureSet
p3137
(dp3138
g12
(dp3139
S'posn'
p3140
S'90'
p3141
sS'name'
p3142
S'\xe0\xa4\xae\xe0\xa4\xbe\xe0\xa4\x82\xe0\xa4\x97\xe0\xa4\xbe'
p3143
sS'af'
p3144
S'\xe0\xa4\xae\xe0\xa4\xbe\xe0\xa4\x82\xe0\xa4\x97,v,m,sg,3,,\xe0\xa4\x97\xe0\xa4\xbe,gA'
p3145
sS'chunkid'
p3146
S'VGF'
p3147
sS'chunktype'
p3148
S'head:VGF'
p3149
sS'voicetype'
p3150
S'active'
p3151
sS'stype'
p3152
S'declarative'
p3153
ssbsg28
I00
sg29
I00
sg30
Nsg31
Nsg32
I4
sg33
I6
sg34
Nsg35
Nsg36
S'VM'
p3154
sg38
g3137
sg39
I00
sba(issf_api
Word
p3155
(dp3156
g6
I00
sg7
V\u0964
p3157
sg9
(issf_api
FeatureSet
p3158
(dp3159
g12
(dp3160
S'posn'
p3161
S'100'
p3162
sS'name'
p3163
S'\xe0\xa5\xa4'
p3164
sS'af'
p3165
S'\xe0\xa5\xa4,punc,,,,,,'
p3166
sS'chunkid'
p3167
S'BLK'
p3168
sS'drel'
p3169
S'rsym:VGF'
p3170
sS'chunktype'
p3171
S'head:BLK'
p3172
ssbsg28
I00
sg29
I00
sg30
Nsg31
Nsg32
I5
sg33
I6
sg34
Nsg35
Nsg36
S'SYM'
p3173
sg38
g3158
sg39
I00
sba(issf_api
Word
p3174
(dp3175
g6
I00
sg7
V\u0915\u094b\u0930\u094d\u091f
p3176
sg9
(issf_api
FeatureSet
p3177
(dp3178
g12
(dp3179
S'crefhead'
p3180
S'\xe0\xa4\x95\xe0\xa5\x8b\xe0\xa4\xb0\xe0\xa5\x8d\xe0\xa4\x9f:i36'
p3181
sS'posn'
p3182
S'10'
p3183
sS'name'
p3184
S'\xe0\xa4\x95\xe0\xa5\x8b\xe0\xa4\xb0\xe0\xa5\x8d\xe0\xa4\x9f'
p3185
sS'af'
p3186
S'\xe0\xa4\x95\xe0\xa5\x8b\xe0\xa4\xb0\xe0\xa5\x8d\xe0\xa4\x9f,n,m,sg,3,o,0_\xe0\xa4\xa8\xe0\xa5\x87,0'
p3187
sS'chunkid'
p3188
S'NP'
p3189
sS'creftype'
p3190
S'Coreference-Identity:i26'
p3191
sS'chunktype'
p3192
S'head:NP'
p3193
sS'vpos'
p3194
S'vib_2'
p3195
sS'cref'
p3196
S'i36%1:t5,i37%0:t10'
p3197
sS'drel'
p3198
S'k1:VGF'
p3199
ssbsg28
I00
sg29
I00
sg30
Nsg31
Nsg32
I0
sg33
I7
sg34
Nsg35
Nsg36
S'NN'
p3200
sg38
g3177
sg39
I00
sba(issf_api
Word
p3201
(dp3202
g6
I00
sg7
V\u0928\u0947
p3203
sg9
(issf_api
FeatureSet
p3204
(dp3205
g12
(dp3206
S'posn'
p3207
S'20'
p3208
sS'name'
p3209
S'\xe0\xa4\xa8\xe0\xa5\x87'
p3210
sS'af'
p3211
S'\xe0\xa4\xa8\xe0\xa5\x87,psp,,,,,,'
p3212
sS'drel'
p3213
S'lwg__psp:NP'
p3214
sS'chunktype'
p3215
S'child:NP'
p3216
sS'cref'
p3217
S'i37%0:t10'
p3218
ssbsg28
I00
sg29
I00
sg30
Nsg31
Nsg32
I0
sg33
I7
sg34
Nsg35
Nsg36
S'PSP'
p3219
sg38
g3204
sg39
I00
sba(issf_api
Word
p3220
(dp3221
g6
I00
sg7
V\u0905\u092d\u093f\u092f\u094b\u091c\u0928
p3222
sg9
(issf_api
FeatureSet
p3223
(dp3224
g12
(dp3225
S'posn'
p3226
S'30'
p3227
sS'name'
p3228
S'\xe0\xa4\x85\xe0\xa4\xad\xe0\xa4\xbf\xe0\xa4\xaf\xe0\xa5\x8b\xe0\xa4\x9c\xe0\xa4\xa8'
p3229
sS'af'
p3230
S'\xe0\xa4\x85\xe0\xa4\xad\xe0\xa4\xbf\xe0\xa4\xaf\xe0\xa5\x8b\xe0\xa4\x9c\xe0\xa4\xa8,n,m,sg,3,d,0,0'
p3231
sS'drel'
p3232
S'pof__cn:NP2'
p3233
sS'chunktype'
p3234
S'child:NP2'
p3235
sS'cref'
p3236
S'i37%0:t10'
p3237
ssbsg28
I00
sg29
I00
sg30
Nsg31
Nsg32
I1
sg33
I7
sg34
Nsg35
Nsg36
S'NNC'
p3238
sg38
g3223
sg39
I00
sba(issf_api
Word
p3239
(dp3240
g6
I00
sg7
V\u092a\u0915\u094d\u0937
p3241
sg9
(issf_api
FeatureSet
p3242
(dp3243
g12
(dp3244
S'posn'
p3245
S'40'
p3246
sS'name'
p3247
S'\xe0\xa4\xaa\xe0\xa4\x95\xe0\xa5\x8d\xe0\xa4\xb7'
p3248
sS'af'
p3249
S'\xe0\xa4\xaa\xe0\xa4\x95\xe0\xa5\x8d\xe0\xa4\xb7,n,m,sg,3,o,0_\xe0\xa4\x95\xe0\xa5\x8b,0'
p3250
sS'chunkid'
p3251
S'NP2'
p3252
sS'drel'
p3253
S'k4:VGF'
p3254
sS'chunktype'
p3255
S'head:NP2'
p3256
sS'vpos'
p3257
S'vib_3'
p3258
sS'cref'
p3259
S'i37%0:t10'
p3260
ssbsg28
I00
sg29
I00
sg30
Nsg31
Nsg32
I1
sg33
I7
sg34
Nsg35
Nsg36
S'NN'
p3261
sg38
g3242
sg39
I00
sba(issf_api
Word
p3262
(dp3263
g6
I00
sg7
V\u0915\u094b
p3264
sg9
(issf_api
FeatureSet
p3265
(dp3266
g12
(dp3267
S'posn'
p3268
S'50'
p3269
sS'name'
p3270
S'\xe0\xa4\x95\xe0\xa5\x8b'
p3271
sS'af'
p3272
S'\xe0\xa4\x95\xe0\xa5\x8b,psp,,,,,,'
p3273
sS'drel'
p3274
S'lwg__psp:NP2'
p3275
sS'chunktype'
p3276
S'child:NP2'
p3277
sS'cref'
p3278
S'i37%0:t10'
p3279
ssbsg28
I00
sg29
I00
sg30
Nsg31
Nsg32
I1
sg33
I7
sg34
Nsg35
Nsg36
S'PSP'
p3280
sg38
g3265
sg39
I00
sba(issf_api
Word
p3281
(dp3282
g6
I00
sg7
V\u0915\u0939\u093e
p3283
sg9
(issf_api
FeatureSet
p3284
(dp3285
g12
(dp3286
S'posn'
p3287
S'60'
p3288
sS'name'
p3289
S'\xe0\xa4\x95\xe0\xa4\xb9\xe0\xa4\xbe'
p3290
sS'af'
p3291
S'\xe0\xa4\x95\xe0\xa4\xb9,v,m,sg,any,,\xe0\xa4\xaf\xe0\xa4\xbe,yA'
p3292
sS'chunkid'
p3293
S'VGF'
p3294
sS'stype'
p3295
S'declarative'
p3296
sS'chunktype'
p3297
S'head:VGF'
p3298
sS'voicetype'
p3299
S'active'
p3300
sS'cref'
p3301
S'i37%0:t10'
p3302
ssbsg28
I00
sg29
I00
sg30
Nsg31
Nsg32
I2
sg33
I7
sg34
Nsg35
Nsg36
S'VM'
p3303
sg38
g3284
sg39
I00
sba(issf_api
Word
p3304
(dp3305
g6
I00
sg7
V\u0915\u093f
p3306
sg9
(issf_api
FeatureSet
p3307
(dp3308
g12
(dp3309
S'posn'
p3310
S'70'
p3311
sS'name'
p3312
S'\xe0\xa4\x95\xe0\xa4\xbf'
p3313
sS'af'
p3314
S'\xe0\xa4\x95\xe0\xa4\xbf,avy,,,,,,'
p3315
sS'chunkid'
p3316
S'CCP'
p3317
sS'drel'
p3318
S'k2:VGF'
p3319
sS'chunktype'
p3320
S'head:CCP'
p3321
sS'cref'
p3322
S'i37%0:t10'
p3323
ssbsg28
I00
sg29
I00
sg30
Nsg31
Nsg32
I3
sg33
I7
sg34
Nsg35
Nsg36
S'CC'
p3324
sg38
g3307
sg39
I00
sba(issf_api
Word
p3325
(dp3326
g6
I00
sg7
V\u092f\u0926\u093f
p3327
sg9
(issf_api
FeatureSet
p3328
(dp3329
g12
(dp3330
S'posn'
p3331
S'80'
p3332
sS'name'
p3333
S'\xe0\xa4\xaf\xe0\xa4\xa6\xe0\xa4\xbf'
p3334
sS'af'
p3335
S'\xe0\xa4\xaf\xe0\xa4\xa6\xe0\xa4\xbf,avy,,,,,,'
p3336
sS'chunkid'
p3337
S'CCP2'
p3338
sS'drel'
p3339
S'vmod:VGF3'
p3340
sS'chunktype'
p3341
S'head:CCP2'
p3342
sS'cref'
p3343
S'i37%0:t10'
p3344
ssbsg28
I00
sg29
I00
sg30
Nsg31
Nsg32
I4
sg33
I7
sg34
Nsg35
Nsg36
S'CC'
p3345
sg38
g3328
sg39
I00
sba(issf_api
Word
p3346
(dp3347
g6
I00
sg7
V\u0905\u0902\u091c\u0932\u093f
p3348
sg9
(issf_api
FeatureSet
p3349
(dp3350
g12
(dp3351
S'crefhead'
p3352
S'\xe0\xa4\x85\xe0\xa4\x82\xe0\xa4\x9c\xe0\xa4\xb2\xe0\xa4\xbf:i38'
p3353
sS'posn'
p3354
S'90'
p3355
sS'name'
p3356
S'\xe0\xa4\x85\xe0\xa4\x82\xe0\xa4\x9c\xe0\xa4\xb2\xe0\xa4\xbf'
p3357
sS'af'
p3358
S'\xe0\xa4\x85\xe0\xa4\x82\xe0\xa4\x9c\xe0\xa4\xb2\xe0\xa4\xbf,n,f,sg,3,d,0,0'
p3359
sS'chunkid'
p3360
S'NP3'
p3361
sS'creftype'
p3362
S'Coreference-Identity:i29'
p3363
sS'chunktype'
p3364
S'head:NP3'
p3365
sS'cref'
p3366
S'i38%1:t2,i37%0:t10'
p3367
sS'drel'
p3368
S'k1:VGF2'
p3369
ssbsg28
I00
sg29
I00
sg30
Nsg31
Nsg32
I5
sg33
I7
sg34
Nsg35
Nsg36
S'NNP'
p3370
sg38
g3349
sg39
I00
sba(issf_api
Word
p3371
(dp3372
g6
I00
sg7
V\u0924\u092f
p3373
sg9
(issf_api
FeatureSet
p3374
(dp3375
g12
(dp3376
S'posn'
p3377
S'100'
p3378
sS'name'
p3379
S'\xe0\xa4\xa4\xe0\xa4\xaf'
p3380
sS'af'
p3381
S'\xe0\xa4\xa4\xe0\xa4\xaf,adj,any,any,,o,,'
p3382
sS'drel'
p3383
S'nmod__adj:NP4'
p3384
sS'chunktype'
p3385
S'child:NP4'
p3386
sS'cref'
p3387
S'i37%0:t10'
p3388
ssbsg28
I00
sg29
I00
sg30
Nsg31
Nsg32
I6
sg33
I7
sg34
Nsg35
Nsg36
S'JJ'
p3389
sg38
g3374
sg39
I00
sba(issf_api
Word
p3390
(dp3391
g6
I00
sg7
V\u0924\u093e\u0930\u0940\u0916
p3392
sg9
(issf_api
FeatureSet
p3393
(dp3394
g12
(dp3395
S'posn'
p3396
S'110'
p3397
sS'name'
p3398
S'\xe0\xa4\xa4\xe0\xa4\xbe\xe0\xa4\xb0\xe0\xa5\x80\xe0\xa4\x96'
p3399
sS'af'
p3400
S'\xe0\xa4\xa4\xe0\xa4\xbe\xe0\xa4\xb0\xe0\xa5\x80\xe0\xa4\x96,n,f,sg,3,o,0_\xe0\xa4\x95\xe0\xa5\x8b,0'
p3401
sS'chunkid'
p3402
S'NP4'
p3403
sS'drel'
p3404
S'k7t:VGF2'
p3405
sS'chunktype'
p3406
S'head:NP4'
p3407
sS'vpos'
p3408
S'vib_3'
p3409
sS'cref'
p3410
S'i37%0:t10'
p3411
ssbsg28
I00
sg29
I00
sg30
Nsg31
Nsg32
I6
sg33
I7
sg34
Nsg35
Nsg36
S'NN'
p3412
sg38
g3393
sg39
I00
sba(issf_api
Word
p3413
(dp3414
g6
I00
sg7
V\u0915\u094b
p3415
sg9
(issf_api
FeatureSet
p3416
(dp3417
g12
(dp3418
S'posn'
p3419
S'120'
p3420
sS'name'
p3421
S'\xe0\xa4\x95\xe0\xa5\x8b2'
p3422
sS'af'
p3423
S'\xe0\xa4\x95\xe0\xa5\x8b,psp,,,,,,'
p3424
sS'drel'
p3425
S'lwg__psp:NP4'
p3426
sS'chunktype'
p3427
S'child:NP4'
p3428
sS'cref'
p3429
S'i37%0:t10'
p3430
ssbsg28
I00
sg29
I00
sg30
Nsg31
Nsg32
I6
sg33
I7
sg34
Nsg35
Nsg36
S'PSP'
p3431
sg38
g3416
sg39
I00
sba(issf_api
Word
p3432
(dp3433
g6
I00
sg7
V\u092a\u0947\u0936
p3434
sg9
(issf_api
FeatureSet
p3435
(dp3436
g12
(dp3437
S'posn'
p3438
S'130'
p3439
sS'name'
p3440
S'\xe0\xa4\xaa\xe0\xa5\x87\xe0\xa4\xb6'
p3441
sS'af'
p3442
S'\xe0\xa4\xaa\xe0\xa5\x87\xe0\xa4\xb6,adj,any,any,,,,'
p3443
sS'chunkid'
p3444
S'JJP'
p3445
sS'drel'
p3446
S'pof:VGF2'
p3447
sS'chunktype'
p3448
S'head:JJP'
p3449
sS'cref'
p3450
S'i37%0:t10'
p3451
ssbsg28
I00
sg29
I00
sg30
Nsg31
Nsg32
I7
sg33
I7
sg34
Nsg35
Nsg36
S'JJ'
p3452
sg38
g3435
sg39
I00
sba(issf_api
Word
p3453
(dp3454
g6
I00
sg7
V\u0928\u0939\u0940\u0902
p3455
sg9
(issf_api
FeatureSet
p3456
(dp3457
g12
(dp3458
S'posn'
p3459
S'140'
p3460
sS'name'
p3461
S'\xe0\xa4\xa8\xe0\xa4\xb9\xe0\xa5\x80\xe0\xa4\x82'
p3462
sS'af'
p3463
S'\xe0\xa4\xa8\xe0\xa4\xb9\xe0\xa5\x80\xe0\xa4\x82,avy,,,,,,'
p3464
sS'drel'
p3465
S'lwg__neg:VGF2'
p3466
sS'chunktype'
p3467
S'child:VGF2'
p3468
sS'cref'
p3469
S'i37%0:t10'
p3470
ssbsg28
I00
sg29
I00
sg30
Nsg31
Nsg32
I8
sg33
I7
sg34
Nsg35
Nsg36
S'NEG'
p3471
sg38
g3456
sg39
I00
sba(issf_api
Word
p3472
(dp3473
g6
I00
sg7
V\u0939\u094b
p3474
sg9
(issf_api
FeatureSet
p3475
(dp3476
g12
(dp3477
S'posn'
p3478
S'150'
p3479
sS'name'
p3480
S'\xe0\xa4\xb9\xe0\xa5\x8b'
p3481
sS'af'
p3482
S'\xe0\xa4\xb9\xe0\xa5\x8b,v,f,sg,3,,0_\xe0\xa4\xb8\xe0\xa4\x95+\xe0\xa4\xa4\xe0\xa4\xbe_\xe0\xa4\xb9\xe0\xa5\x88,0'
p3483
sS'chunkid'
p3484
S'VGF2'
p3485
sS'stype'
p3486
S'declarative'
p3487
sS'drel'
p3488
S'ccof:CCP2'
p3489
sS'chunktype'
p3490
S'head:VGF2'
p3491
sS'voicetype'
p3492
S'active'
p3493
sS'vpos'
p3494
S'tam_3_4'
p3495
sS'cref'
p3496
S'i37%0:t10'
p3497
ssbsg28
I00
sg29
I00
sg30
Nsg31
Nsg32
I8
sg33
I7
sg34
Nsg35
Nsg36
S'VM'
p3498
sg38
g3475
sg39
I00
sba(issf_api
Word
p3499
(dp3500
g6
I00
sg7
V\u0938\u0915\u0924\u0940
p3501
sg9
(issf_api
FeatureSet
p3502
(dp3503
g12
(dp3504
S'posn'
p3505
S'160'
p3506
sS'name'
p3507
S'\xe0\xa4\xb8\xe0\xa4\x95\xe0\xa4\xa4\xe0\xa5\x80'
p3508
sS'af'
p3509
S'\xe0\xa4\xb8\xe0\xa4\x95,v,f,sg,any,,\xe0\xa4\xa4\xe0\xa4\xbe,wA'
p3510
sS'drel'
p3511
S'lwg__vaux:VGF2'
p3512
sS'chunktype'
p3513
S'child:VGF2'
p3514
sS'cref'
p3515
S'i37%0:t10'
p3516
ssbsg28
I00
sg29
I00
sg30
Nsg31
Nsg32
I8
sg33
I7
sg34
Nsg35
Nsg36
S'VAUX'
p3517
sg38
g3502
sg39
I00
sba(issf_api
Word
p3518
(dp3519
g6
I00
sg7
V\u0939\u0948
p3520
sg9
(issf_api
FeatureSet
p3521
(dp3522
g12
(dp3523
S'posn'
p3524
S'170'
p3525
sS'name'
p3526
S'\xe0\xa4\xb9\xe0\xa5\x88'
p3527
sS'af'
p3528
S'\xe0\xa4\xb9\xe0\xa5\x88,v,any,sg,3,,\xe0\xa4\xb9\xe0\xa5\x88,hE'
p3529
sS'drel'
p3530
S'lwg__vaux:VGF2'
p3531
sS'chunktype'
p3532
S'child:VGF2'
p3533
sS'cref'
p3534
S'i37%0:t10'
p3535
ssbsg28
I00
sg29
I00
sg30
Nsg31
Nsg32
I8
sg33
I7
sg34
Nsg35
Nsg36
S'VAUX'
p3536
sg38
g3521
sg39
I00
sba(issf_api
Word
p3537
(dp3538
g6
I00
sg7
V,
p3539
sg9
(issf_api
FeatureSet
p3540
(dp3541
g12
(dp3542
S'posn'
p3543
S'180'
p3544
sS'name'
p3545
g1336
sS'af'
p3546
S'COMMA,punc,,,,,,'
p3547
sS'drel'
p3548
S'rsym:VGF2'
p3549
sS'chunktype'
p3550
S'child:VGF2'
p3551
sS'cref'
p3552
S'i37%0:t10'
p3553
ssbsg28
I00
sg29
I00
sg30
Nsg31
Nsg32
I8
sg33
I7
sg34
Nsg35
Nsg36
S'SYM'
p3554
sg38
g3540
sg39
I00
sba(issf_api
Word
p3555
(dp3556
g6
I00
sg7
V\u0924\u094b
p3557
sg9
(issf_api
FeatureSet
p3558
(dp3559
g12
(dp3560
S'posn'
p3561
S'190'
p3562
sS'name'
p3563
S'\xe0\xa4\xa4\xe0\xa5\x8b'
p3564
sS'af'
p3565
S'\xe0\xa4\xa4\xe0\xa5\x8b,avy,,,,,,'
p3566
sS'chunkid'
p3567
S'CCP3'
p3568
sS'drel'
p3569
S'ccof:CCP'
p3570
sS'chunktype'
p3571
S'head:CCP3'
p3572
sS'cref'
p3573
S'i37%0:t10'
p3574
ssbsg28
I00
sg29
I00
sg30
Nsg31
Nsg32
I9
sg33
I7
sg34
Nsg35
Nsg36
S'CC'
p3575
sg38
g3558
sg39
I00
sba(issf_api
Word
p3576
(dp3577
g6
I00
sg7
V\u0935\u0939
p3578
sg9
(issf_api
FeatureSet
p3579
(dp3580
g12
(dp3581
S'crefhead'
p3582
S'\xe0\xa4\xb5\xe0\xa4\xb9:i39'
p3583
sS'posn'
p3584
S'200'
p3585
sS'name'
p3586
S'\xe0\xa4\xb5\xe0\xa4\xb9'
p3587
sS'af'
p3588
S'\xe0\xa4\xb5\xe0\xa4\xb9,pn,any,sg,3,d,0,0'
p3589
sS'chunkid'
p3590
S'NP5'
p3591
sS'creftype'
p3592
S'Anaphora-C:i38'
p3593
sS'chunktype'
p3594
S'head:NP5'
p3595
sS'cref'
p3596
S'i39%1:t2,i37%0:t10'
p3597
sS'drel'
p3598
S'k1:VGF3'
p3599
ssbsg28
I00
sg29
I00
sg30
Nsg31
Nsg32
I10
sg33
I7
sg34
Nsg35
Nsg36
S'PRP'
p3600
sg38
g3579
sg39
I00
sba(issf_api
Word
p3601
(dp3602
g6
I00
sg7
V\u0909\u0928\u0915\u0947
p3603
sg9
(issf_api
FeatureSet
p3604
(dp3605
g12
(dp3606
S'crefhead'
p3607
S'\xe0\xa4\x89\xe0\xa4\xa8\xe0\xa4\x95\xe0\xa5\x87:i40'
p3608
sS'posn'
p3609
S'210'
p3610
sS'name'
p3611
S'\xe0\xa4\x89\xe0\xa4\xa8\xe0\xa4\x95\xe0\xa5\x87'
p3612
sS'af'
p3613
S'\xe0\xa4\xb5\xe0\xa4\xb9,pn,m,sg,3h,o,\xe0\xa4\x95\xe0\xa4\xbe,kA'
p3614
sS'chunkid'
p3615
S'NP6'
p3616
sS'creftype'
p3617
S'Anaphora-C:i39'
p3618
sS'chunktype'
p3619
S'head:NP6'
p3620
sS'cref'
p3621
S'i40%1:t2,i37%0:t10'
p3622
sS'drel'
p3623
S'r6:NP7'
p3624
ssbsg28
I00
sg29
I00
sg30
Nsg31
Nsg32
I11
sg33
I7
sg34
Nsg35
Nsg36
S'PRP'
p3625
sg38
g3604
sg39
I00
sba(issf_api
Word
p3626
(dp3627
g6
I00
sg7
V\u0938\u094d\u0935\u093e\u0938\u094d\u0925\u094d\u092f
p3628
sg9
(issf_api
FeatureSet
p3629
(dp3630
g12
(dp3631
S'posn'
p3632
S'220'
p3633
sS'name'
p3634
S'\xe0\xa4\xb8\xe0\xa5\x8d\xe0\xa4\xb5\xe0\xa4\xbe\xe0\xa4\xb8\xe0\xa5\x8d\xe0\xa4\xa5\xe0\xa5\x8d\xe0\xa4\xaf'
p3635
sS'af'
p3636
S'\xe0\xa4\xb8\xe0\xa5\x8d\xe0\xa4\xb5\xe0\xa4\xbe\xe0\xa4\xb8\xe0\xa5\x8d\xe0\xa4\xa5\xe0\xa5\x8d\xe0\xa4\xaf,n,m,sg,3,o,0,0'
p3637
sS'chunkid'
p3638
S'NP7'
p3639
sS'drel'
p3640
S'ccof:CCP4'
p3641
sS'chunktype'
p3642
S'head:NP7'
p3643
sS'cref'
p3644
S'i37%0:t10'
p3645
ssbsg28
I00
sg29
I00
sg30
Nsg31
Nsg32
I12
sg33
I7
sg34
Nsg35
Nsg36
S'NN'
p3646
sg38
g3629
sg39
I00
sba(issf_api
Word
p3647
(dp3648
g6
I00
sg7
V\u0914\u0930
p3649
sg9
(issf_api
FeatureSet
p3650
(dp3651
g12
(dp3652
S'posn'
p3653
S'230'
p3654
sS'name'
p3655
S'\xe0\xa4\x94\xe0\xa4\xb0'
p3656
sS'af'
p3657
S'\xe0\xa4\x94\xe0\xa4\xb0,avy,,,,,,'
p3658
sS'chunkid'
p3659
S'CCP4'
p3660
sS'drel'
p3661
S'k1:VGNN'
p3662
sS'chunktype'
p3663
S'head:CCP4'
p3664
sS'cref'
p3665
S'i37%0:t10'
p3666
ssbsg28
I00
sg29
I00
sg30
Nsg31
Nsg32
I13
sg33
I7
sg34
Nsg35
Nsg36
S'CC'
p3667
sg38
g3650
sg39
I00
sba(issf_api
Word
p3668
(dp3669
g6
I00
sg7
V\u092a\u0930\u0940\u0915\u094d\u0937\u0923
p3670
sg9
(issf_api
FeatureSet
p3671
(dp3672
g12
(dp3673
S'crefhead'
p3674
S'\xe0\xa4\xaa\xe0\xa4\xb0\xe0\xa5\x80\xe0\xa4\x95\xe0\xa5\x8d\xe0\xa4\xb7\xe0\xa4\xa3:i41'
p3675
sS'posn'
p3676
S'240'
p3677
sS'name'
p3678
S'\xe0\xa4\xaa\xe0\xa4\xb0\xe0\xa5\x80\xe0\xa4\x95\xe0\xa5\x8d\xe0\xa4\xb7\xe0\xa4\xa3'
p3679
sS'af'
p3680
S'\xe0\xa4\xaa\xe0\xa4\xb0\xe0\xa5\x80\xe0\xa4\x95\xe0\xa5\x8d\xe0\xa4\xb7\xe0\xa4\xa3,n,m,pl,3,d,0,0'
p3681
sS'chunkid'
p3682
S'NP8'
p3683
sS'creftype'
p3684
S'Coreference-Identity:i30'
p3685
sS'chunktype'
p3686
S'head:NP8'
p3687
sS'cref'
p3688
S'i37%0:t10,i41%1:t3'
p3689
sS'drel'
p3690
S'ccof:CCP4'
p3691
ssbsg28
I00
sg29
I00
sg30
Nsg31
Nsg32
I14
sg33
I7
sg34
Nsg35
Nsg36
S'NN'
p3692
sg38
g3671
sg39
I00
sba(issf_api
Word
p3693
(dp3694
g6
I00
sg7
V\u092a\u0942\u0930\u0947
p3695
sg9
(issf_api
FeatureSet
p3696
(dp3697
g12
(dp3698
S'posn'
p3699
S'250'
p3700
sS'name'
p3701
S'\xe0\xa4\xaa\xe0\xa5\x82\xe0\xa4\xb0\xe0\xa5\x87'
p3702
sS'af'
p3703
S'\xe0\xa4\xaa\xe0\xa5\x82\xe0\xa4\xb0\xe0\xa4\xbe,adj,m,pl,,o,,'
p3704
sS'chunkid'
p3705
S'JJP2'
p3706
sS'drel'
p3707
S'pof:VGNN'
p3708
sS'chunktype'
p3709
S'head:JJP2'
p3710
sS'cref'
p3711
S'i37%0:t10'
p3712
ssbsg28
I00
sg29
I00
sg30
Nsg31
Nsg32
I15
sg33
I7
sg34
Nsg35
Nsg36
S'JJ'
p3713
sg38
g3696
sg39
I00
sba(issf_api
Word
p3714
(dp3715
g6
I00
sg7
V\u0939\u094b\u0928\u0947
p3716
sg9
(issf_api
FeatureSet
p3717
(dp3718
g12
(dp3719
S'posn'
p3720
S'260'
p3721
sS'name'
p3722
S'\xe0\xa4\xb9\xe0\xa5\x8b\xe0\xa4\xa8\xe0\xa5\x87'
p3723
sS'af'
p3724
S'\xe0\xa4\xb9\xe0\xa5\x8b,v,any,any,any,o,\xe0\xa4\xa8\xe0\xa4\xbe_\xe0\xa4\x95\xe0\xa5\x87_\xe0\xa4\xb2\xe0\xa4\xbf\xe0\xa4\x8f,nA'
p3725
sS'chunkid'
p3726
S'VGNN'
p3727
sS'drel'
p3728
S'rt:VGF3'
p3729
sS'chunktype'
p3730
S'head:VGNN'
p3731
sS'vpos'
p3732
S'tam_2_3'
p3733
sS'cref'
p3734
S'i37%0:t10'
p3735
ssbsg28
I00
sg29
I00
sg30
Nsg31
Nsg32
I16
sg33
I7
sg34
Nsg35
Nsg36
S'VM'
p3736
sg38
g3717
sg39
I00
sba(issf_api
Word
p3737
(dp3738
g6
I00
sg7
V\u0915\u0947
p3739
sg9
(issf_api
FeatureSet
p3740
(dp3741
g12
(dp3742
S'posn'
p3743
S'270'
p3744
sS'name'
p3745
S'\xe0\xa4\x95\xe0\xa5\x87'
p3746
sS'af'
p3747
S'\xe0\xa4\x95\xe0\xa5\x87,psp,,,,,,'
p3748
sS'drel'
p3749
S'lwg__psp:VGNN'
p3750
sS'chunktype'
p3751
S'child:VGNN'
p3752
sS'cref'
p3753
S'i37%0:t10'
p3754
ssbsg28
I00
sg29
I00
sg30
Nsg31
Nsg32
I16
sg33
I7
sg34
Nsg35
Nsg36
S'PSP'
p3755
sg38
g3740
sg39
I00
sba(issf_api
Word
p3756
(dp3757
g6
I00
sg7
V\u0932\u093f\u090f
p3758
sg9
(issf_api
FeatureSet
p3759
(dp3760
g12
(dp3761
S'posn'
p3762
S'280'
p3763
sS'name'
p3764
S'\xe0\xa4\xb2\xe0\xa4\xbf\xe0\xa4\x8f'
p3765
sS'af'
p3766
S'\xe0\xa4\xb2\xe0\xa4\xbf\xe0\xa4\x8f,psp,,,,,,'
p3767
sS'drel'
p3768
S'lwg__psp:VGNN'
p3769
sS'chunktype'
p3770
S'child:VGNN'
p3771
sS'cref'
p3772
S'i37%0:t10'
p3773
ssbsg28
I00
sg29
I00
sg30
Nsg31
Nsg32
I16
sg33
I7
sg34
Nsg35
Nsg36
S'PSP'
p3774
sg38
g3759
sg39
I00
sba(issf_api
Word
p3775
(dp3776
g6
I00
sg7
V\u091c\u0930\u0942\u0930\u0940
p3777
sg9
(issf_api
FeatureSet
p3778
(dp3779
g12
(dp3780
S'posn'
p3781
S'290'
p3782
sS'name'
p3783
S'\xe0\xa4\x9c\xe0\xa4\xb0\xe0\xa5\x82\xe0\xa4\xb0\xe0\xa5\x80'
p3784
sS'af'
p3785
S'\xe0\xa4\x9c\xe0\xa4\xb0\xe0\xa5\x82\xe0\xa4\xb0\xe0\xa5\x80,adj,any,any,,o,,'
p3786
sS'drel'
p3787
S'nmod__adj:NP9'
p3788
sS'chunktype'
p3789
S'child:NP9'
p3790
sS'cref'
p3791
S'i37%0:t10'
p3792
ssbsg28
I00
sg29
I00
sg30
Nsg31
Nsg32
I17
sg33
I7
sg34
Nsg35
Nsg36
S'JJ'
p3793
sg38
g3778
sg39
I00
sba(issf_api
Word
p3794
(dp3795
g6
I00
sg7
V\u0938\u092e\u092f
p3796
sg9
(issf_api
FeatureSet
p3797
(dp3798
g12
(dp3799
S'posn'
p3800
S'300'
p3801
sS'name'
p3802
S'\xe0\xa4\xb8\xe0\xa4\xae\xe0\xa4\xaf'
p3803
sS'af'
p3804
S'\xe0\xa4\xb8\xe0\xa4\xae\xe0\xa4\xaf,n,m,sg,3,o,0_\xe0\xa4\x95\xe0\xa5\x87_\xe0\xa4\xac\xe0\xa4\xbe\xe0\xa4\xb0\xe0\xa5\x87_\xe0\xa4\xae\xe0\xa5\x87\xe0\xa4\x82,0'
p3805
sS'chunkid'
p3806
S'NP9'
p3807
sS'drel'
p3808
S'k7:VGF3'
p3809
sS'chunktype'
p3810
S'head:NP9'
p3811
sS'vpos'
p3812
S'vib_3_4_5'
p3813
sS'cref'
p3814
S'i37%0:t10'
p3815
ssbsg28
I00
sg29
I00
sg30
Nsg31
Nsg32
I17
sg33
I7
sg34
Nsg35
Nsg36
S'NN'
p3816
sg38
g3797
sg39
I00
sba(issf_api
Word
p3817
(dp3818
g6
I00
sg7
V\u0915\u0947
p3819
sg9
(issf_api
FeatureSet
p3820
(dp3821
g12
(dp3822
S'posn'
p3823
S'310'
p3824
sS'name'
p3825
S'\xe0\xa4\x95\xe0\xa5\x872'
p3826
sS'af'
p3827
S'\xe0\xa4\x95\xe0\xa5\x87,psp,,,,,,'
p3828
sS'drel'
p3829
S'lwg__psp:NP9'
p3830
sS'chunktype'
p3831
S'child:NP9'
p3832
sS'cref'
p3833
S'i37%0:t10'
p3834
ssbsg28
I00
sg29
I00
sg30
Nsg31
Nsg32
I17
sg33
I7
sg34
Nsg35
Nsg36
S'PSP'
p3835
sg38
g3820
sg39
I00
sba(issf_api
Word
p3836
(dp3837
g6
I00
sg7
V\u092c\u093e\u0930\u0947
p3838
sg9
(issf_api
FeatureSet
p3839
(dp3840
g12
(dp3841
S'posn'
p3842
S'320'
p3843
sS'name'
p3844
S'\xe0\xa4\xac\xe0\xa4\xbe\xe0\xa4\xb0\xe0\xa5\x87'
p3845
sS'af'
p3846
S'\xe0\xa4\xac\xe0\xa4\xbe\xe0\xa4\xb0\xe0\xa5\x87,psp,,,,,,'
p3847
sS'drel'
p3848
S'lwg__psp:NP9'
p3849
sS'chunktype'
p3850
S'child:NP9'
p3851
sS'cref'
p3852
S'i37%0:t10'
p3853
ssbsg28
I00
sg29
I00
sg30
Nsg31
Nsg32
I17
sg33
I7
sg34
Nsg35
Nsg36
S'PSP'
p3854
sg38
g3839
sg39
I00
sba(issf_api
Word
p3855
(dp3856
g6
I00
sg7
V\u092e\u0947\u0902
p3857
sg9
(issf_api
FeatureSet
p3858
(dp3859
g12
(dp3860
S'posn'
p3861
S'330'
p3862
sS'name'
p3863
S'\xe0\xa4\xae\xe0\xa5\x87\xe0\xa4\x82'
p3864
sS'af'
p3865
S'\xe0\xa4\xae\xe0\xa5\x87\xe0\xa4\x82,psp,,,,,,'
p3866
sS'drel'
p3867
S'lwg__psp:NP9'
p3868
sS'chunktype'
p3869
S'child:NP9'
p3870
sS'cref'
p3871
S'i37%0:t10'
p3872
ssbsg28
I00
sg29
I00
sg30
Nsg31
Nsg32
I17
sg33
I7
sg34
Nsg35
Nsg36
S'PSP'
p3873
sg38
g3858
sg39
I00
sba(issf_api
Word
p3874
(dp3875
g6
I00
sg7
V\u0915\u094b\u0930\u094d\u091f
p3876
sg9
(issf_api
FeatureSet
p3877
(dp3878
g12
(dp3879
S'crefhead'
p3880
S'\xe0\xa4\x95\xe0\xa5\x8b\xe0\xa4\xb0\xe0\xa5\x8d\xe0\xa4\x9f:i42'
p3881
sS'posn'
p3882
S'340'
p3883
sS'name'
p3884
S'\xe0\xa4\x95\xe0\xa5\x8b\xe0\xa4\xb0\xe0\xa5\x8d\xe0\xa4\x9f2'
p3885
sS'af'
p3886
S'\xe0\xa4\x95\xe0\xa5\x8b\xe0\xa4\xb0\xe0\xa5\x8d\xe0\xa4\x9f,n,m,sg,3,o,0_\xe0\xa4\x95\xe0\xa5\x8b,0'
p3887
sS'chunkid'
p3888
S'NP10'
p3889
sS'creftype'
p3890
S'Coreference-Identity:i36'
p3891
sS'chunktype'
p3892
S'head:NP10'
p3893
sS'vpos'
p3894
S'vib_2'
p3895
sS'cref'
p3896
S'i42%1:t5,i37%0:t10'
p3897
sS'drel'
p3898
S'k4:VGF3'
p3899
ssbsg28
I00
sg29
I00
sg30
Nsg31
Nsg32
I18
sg33
I7
sg34
Nsg35
Nsg36
S'NN'
p3900
sg38
g3877
sg39
I00
sba(issf_api
Word
p3901
(dp3902
g6
I00
sg7
V\u0915\u094b
p3903
sg9
(issf_api
FeatureSet
p3904
(dp3905
g12
(dp3906
S'posn'
p3907
S'350'
p3908
sS'name'
p3909
S'\xe0\xa4\x95\xe0\xa5\x8b3'
p3910
sS'af'
p3911
S'\xe0\xa4\x95\xe0\xa5\x8b,psp,,,,,,'
p3912
sS'drel'
p3913
S'lwg__psp:NP10'
p3914
sS'chunktype'
p3915
S'child:NP10'
p3916
sS'cref'
p3917
S'i37%0:t10'
p3918
ssbsg28
I00
sg29
I00
sg30
Nsg31
Nsg32
I18
sg33
I7
sg34
Nsg35
Nsg36
S'PSP'
p3919
sg38
g3904
sg39
I00
sba(issf_api
Word
p3920
(dp3921
g6
I00
sg7
V\u0938\u0942\u091a\u093f\u0924
p3922
sg9
(issf_api
FeatureSet
p3923
(dp3924
g12
(dp3925
S'posn'
p3926
S'360'
p3927
sS'name'
p3928
S'\xe0\xa4\xb8\xe0\xa5\x82\xe0\xa4\x9a\xe0\xa4\xbf\xe0\xa4\xa4'
p3929
sS'af'
p3930
S'\xe0\xa4\xb8\xe0\xa5\x82\xe0\xa4\x9a\xe0\xa4\xbf\xe0\xa4\xa4,adj,any,any,,,,'
p3931
sS'chunkid'
p3932
S'JJP3'
p3933
sS'drel'
p3934
S'pof:VGF3'
p3935
sS'chunktype'
p3936
S'head:JJP3'
p3937
sS'cref'
p3938
S'i37%0:t10'
p3939
ssbsg28
I00
sg29
I00
sg30
Nsg31
Nsg32
I19
sg33
I7
sg34
Nsg35
Nsg36
S'JJ'
p3940
sg38
g3923
sg39
I00
sba(issf_api
Word
p3941
(dp3942
g6
I00
sg7
V\u0915\u0930\u0947\u0902
p3943
sg9
(issf_api
FeatureSet
p3944
(dp3945
g12
(dp3946
S'crefhead'
p3947
S'\xe0\xa4\x95\xe0\xa4\xb0\xe0\xa5\x87\xe0\xa4\x82:i37'
p3948
sS'posn'
p3949
S'370'
p3950
sS'name'
p3951
S'\xe0\xa4\x95\xe0\xa4\xb0\xe0\xa5\x87\xe0\xa4\x82'
p3952
sS'af'
p3953
S'\xe0\xa4\x95\xe0\xa4\xb0,v,any,sg,3h,,\xe0\xa4\x8f\xe0\xa4\x82,eM'
p3954
sS'chunkid'
p3955
S'VGF3'
p3956
sS'stype'
p3957
S'declarative'
p3958
sS'chunktype'
p3959
S'head:VGF3'
p3960
sS'crefchainhead'
p3961
S'i37:t10'
p3962
sS'voicetype'
p3963
S'active'
p3964
sS'cref'
p3965
S'i37%1:t10'
p3966
sS'drel'
p3967
S'ccof:CCP3'
p3968
ssbsg28
I00
sg29
I00
sg30
Nsg31
Nsg32
I20
sg33
I7
sg34
Nsg35
Nsg36
S'VM'
p3969
sg38
g3944
sg39
I00
sba(issf_api
Word
p3970
(dp3971
g6
I00
sg7
V\u0964
p3972
sg9
(issf_api
FeatureSet
p3973
(dp3974
g12
(dp3975
S'posn'
p3976
S'380'
p3977
sS'name'
p3978
S'\xe0\xa5\xa4'
p3979
sS'af'
p3980
S'\xe0\xa5\xa4,punc,,,,,,'
p3981
sS'chunkid'
p3982
S'BLK'
p3983
sS'drel'
p3984
S'rsym:VGF'
p3985
sS'chunktype'
p3986
S'head:BLK'
p3987
ssbsg28
I00
sg29
I00
sg30
Nsg31
Nsg32
I21
sg33
I7
sg34
Nsg35
Nsg36
S'SYM'
p3988
sg38
g3973
sg39
I00
sba(issf_api
Word
p3989
(dp3990
g6
I00
sg7
V\u0907\u0938\u0915\u0947
p3991
sg9
(issf_api
FeatureSet
p3992
(dp3993
g12
(dp3994
S'crefhead'
p3995
S'\xe0\xa4\x87\xe0\xa4\xb8\xe0\xa4\x95\xe0\xa5\x87:i43'
p3996
sS'posn'
p3997
S'10'
p3998
sS'name'
p3999
S'\xe0\xa4\x87\xe0\xa4\xb8\xe0\xa4\x95\xe0\xa5\x87'
p4000
sS'af'
p4001
S'\xe0\xa4\xaf\xe0\xa4\xb9,pn,any,sg,3,o,0_\xe0\xa4\xac\xe0\xa4\xbe\xe0\xa4\xa6,ke'
p4002
sS'chunkid'
p4003
S'NP'
p4004
sS'creftype'
p4005
S'Anaphora-C:i37'
p4006
sS'chunktype'
p4007
S'head:NP'
p4008
sS'vpos'
p4009
S'vib_2'
p4010
sS'cref'
p4011
S'i43%1:t10'
p4012
sS'drel'
p4013
S'k7t:VGF'
p4014
ssbsg28
I00
sg29
I00
sg30
Nsg31
Nsg32
I0
sg33
I8
sg34
Nsg35
Nsg36
S'PRP'
p4015
sg38
g3992
sg39
I00
sba(issf_api
Word
p4016
(dp4017
g6
I00
sg7
V\u092c\u093e\u0926
p4018
sg9
(issf_api
FeatureSet
p4019
(dp4020
g12
(dp4021
S'posn'
p4022
S'20'
p4023
sS'name'
p4024
S'\xe0\xa4\xac\xe0\xa4\xbe\xe0\xa4\xa6'
p4025
sS'drel'
p4026
S'lwg__psp:NP'
p4027
sS'chunktype'
p4028
S'child:NP'
p4029
sS'af'
p4030
S'\xe0\xa4\xac\xe0\xa4\xbe\xe0\xa4\xa6,nst,m,sg,3,d,,'
p4031
ssbsg28
I00
sg29
I00
sg30
Nsg31
Nsg32
I0
sg33
I8
sg34
Nsg35
Nsg36
S'NST'
p4032
sg38
g4019
sg39
I00
sba(issf_api
Word
p4033
(dp4034
g6
I00
sg7
V\u0915\u094b\u0930\u094d\u091f
p4035
sg9
(issf_api
FeatureSet
p4036
(dp4037
g12
(dp4038
S'crefhead'
p4039
S'\xe0\xa4\x95\xe0\xa5\x8b\xe0\xa4\xb0\xe0\xa5\x8d\xe0\xa4\x9f:i45'
p4040
sS'posn'
p4041
S'30'
p4042
sS'name'
p4043
S'\xe0\xa4\x95\xe0\xa5\x8b\xe0\xa4\xb0\xe0\xa5\x8d\xe0\xa4\x9f'
p4044
sS'af'
p4045
S'\xe0\xa4\x95\xe0\xa5\x8b\xe0\xa4\xb0\xe0\xa5\x8d\xe0\xa4\x9f,n,m,sg,3,o,0_\xe0\xa4\xa8\xe0\xa5\x87,0'
p4046
sS'chunkid'
p4047
S'NP2'
p4048
sS'creftype'
p4049
S'Coreference-Identity:i42'
p4050
sS'chunktype'
p4051
S'head:NP2'
p4052
sS'vpos'
p4053
S'vib_2'
p4054
sS'cref'
p4055
S'i45%1:t5'
p4056
sS'drel'
p4057
S'k1:VGF'
p4058
ssbsg28
I00
sg29
I00
sg30
Nsg31
Nsg32
I1
sg33
I8
sg34
Nsg35
Nsg36
S'NN'
p4059
sg38
g4036
sg39
I00
sba(issf_api
Word
p4060
(dp4061
g6
I00
sg7
V\u0928\u0947
p4062
sg9
(issf_api
FeatureSet
p4063
(dp4064
g12
(dp4065
S'posn'
p4066
S'40'
p4067
sS'name'
p4068
S'\xe0\xa4\xa8\xe0\xa5\x87'
p4069
sS'drel'
p4070
S'lwg__psp:NP2'
p4071
sS'chunktype'
p4072
S'child:NP2'
p4073
sS'af'
p4074
S'\xe0\xa4\xa8\xe0\xa5\x87,psp,,,,,,'
p4075
ssbsg28
I00
sg29
I00
sg30
Nsg31
Nsg32
I1
sg33
I8
sg34
Nsg35
Nsg36
S'PSP'
p4076
sg38
g4063
sg39
I00
sba(issf_api
Word
p4077
(dp4078
g6
I00
sg7
V\u092e\u093e\u092e\u0932\u0947
p4079
sg9
(issf_api
FeatureSet
p4080
(dp4081
g12
(dp4082
S'posn'
p4083
S'50'
p4084
sS'name'
p4085
S'\xe0\xa4\xae\xe0\xa4\xbe\xe0\xa4\xae\xe0\xa4\xb2\xe0\xa5\x87'
p4086
sS'af'
p4087
S'\xe0\xa4\xae\xe0\xa4\xbe\xe0\xa4\xae\xe0\xa4\xb2\xe0\xa4\xbe,n,m,sg,3,o,0_\xe0\xa4\x95\xe0\xa4\xbe,0'
p4088
sS'chunkid'
p4089
S'NP3'
p4090
sS'drel'
p4091
S'r6:NP4'
p4092
sS'vpos'
p4093
S'vib_2'
p4094
sS'chunktype'
p4095
S'head:NP3'
p4096
ssbsg28
I00
sg29
I00
sg30
Nsg31
Nsg32
I2
sg33
I8
sg34
Nsg35
Nsg36
S'NN'
p4097
sg38
g4080
sg39
I00
sba(issf_api
Word
p4098
(dp4099
g6
I00
sg7
V\u0915\u0940
p4100
sg9
(issf_api
FeatureSet
p4101
(dp4102
g12
(dp4103
S'posn'
p4104
S'60'
p4105
sS'name'
p4106
S'\xe0\xa4\x95\xe0\xa5\x80'
p4107
sS'drel'
p4108
S'lwg__psp:NP3'
p4109
sS'chunktype'
p4110
S'child:NP3'
p4111
sS'af'
p4112
S'\xe0\xa4\x95\xe0\xa4\xbe,psp,f,sg,,d,,'
p4113
ssbsg28
I00
sg29
I00
sg30
Nsg31
Nsg32
I2
sg33
I8
sg34
Nsg35
Nsg36
S'PSP'
p4114
sg38
g4101
sg39
I00
sba(issf_api
Word
p4115
(dp4116
g6
I00
sg7
V\u0938\u0941\u0928\u0935\u093e\u0908
p4117
sg9
(issf_api
FeatureSet
p4118
(dp4119
g12
(dp4120
S'posn'
p4121
S'70'
p4122
sS'name'
p4123
S'\xe0\xa4\xb8\xe0\xa5\x81\xe0\xa4\xa8\xe0\xa4\xb5\xe0\xa4\xbe\xe0\xa4\x88'
p4124
sS'af'
p4125
S'\xe0\xa4\xb8\xe0\xa5\x81\xe0\xa4\xa8\xe0\xa4\xb5\xe0\xa4\xbe\xe0\xa4\x88,n,f,sg,3,d,0,0'
p4126
sS'chunkid'
p4127
S'NP4'
p4128
sS'drel'
p4129
S'k2:VGF'
p4130
sS'chunktype'
p4131
S'head:NP4'
p4132
ssbsg28
I00
sg29
I00
sg30
Nsg31
Nsg32
I3
sg33
I8
sg34
Nsg35
Nsg36
S'NN'
p4133
sg38
g4118
sg39
I00
sba(issf_api
Word
p4134
(dp4135
g6
I00
sg7
V\u0938\u094b\u092e\u0935\u093e\u0930
p4136
sg9
(issf_api
FeatureSet
p4137
(dp4138
g12
(dp4139
S'crefhead'
p4140
S'\xe0\xa4\xb8\xe0\xa5\x8b\xe0\xa4\xae\xe0\xa4\xb5\xe0\xa4\xbe\xe0\xa4\xb0:i46'
p4141
sS'posn'
p4142
S'80'
p4143
sS'name'
p4144
S'\xe0\xa4\xb8\xe0\xa5\x8b\xe0\xa4\xae\xe0\xa4\xb5\xe0\xa4\xbe\xe0\xa4\xb0'
p4145
sS'af'
p4146
S'\xe0\xa4\xb8\xe0\xa5\x8b\xe0\xa4\xae\xe0\xa4\xb5\xe0\xa4\xbe\xe0\xa4\xb0,n,m,sg,3,o,0_\xe0\xa4\xa4\xe0\xa4\x95,0'
p4147
sS'chunkid'
p4148
S'NP5'
p4149
sS'creftype'
p4150
S'Coreference-Identity:i35'
p4151
sS'chunktype'
p4152
S'head:NP5'
p4153
sS'vpos'
p4154
S'vib_2'
p4155
sS'cref'
p4156
S'i46%1:t9'
p4157
sS'drel'
p4158
S'k7t:VGF'
p4159
ssbsg28
I00
sg29
I00
sg30
Nsg31
Nsg32
I4
sg33
I8
sg34
Nsg35
Nsg36
S'NNP'
p4160
sg38
g4137
sg39
I00
sba(issf_api
Word
p4161
(dp4162
g6
I00
sg7
V\u0924\u0915
p4163
sg9
(issf_api
FeatureSet
p4164
(dp4165
g12
(dp4166
S'posn'
p4167
S'90'
p4168
sS'name'
p4169
S'\xe0\xa4\xa4\xe0\xa4\x95'
p4170
sS'drel'
p4171
S'lwg__psp:NP5'
p4172
sS'chunktype'
p4173
S'child:NP5'
p4174
sS'af'
p4175
S'\xe0\xa4\xa4\xe0\xa4\x95,psp,,,,,,'
p4176
ssbsg28
I00
sg29
I00
sg30
Nsg31
Nsg32
I4
sg33
I8
sg34
Nsg35
Nsg36
S'PSP'
p4177
sg38
g4164
sg39
I00
sba(issf_api
Word
p4178
(dp4179
g6
I00
sg7
V\u0938\u094d\u0925\u0917\u093f\u0924
p4180
sg9
(issf_api
FeatureSet
p4181
(dp4182
g12
(dp4183
S'posn'
p4184
S'100'
p4185
sS'name'
p4186
S'\xe0\xa4\xb8\xe0\xa5\x8d\xe0\xa4\xa5\xe0\xa4\x97\xe0\xa4\xbf\xe0\xa4\xa4'
p4187
sS'af'
p4188
S'\xe0\xa4\xb8\xe0\xa5\x8d\xe0\xa4\xa5\xe0\xa4\x97\xe0\xa4\xbf\xe0\xa4\xa4,adj,any,any,,,,'
p4189
sS'chunkid'
p4190
S'JJP'
p4191
sS'drel'
p4192
S'pof:VGF'
p4193
sS'chunktype'
p4194
S'head:JJP'
p4195
ssbsg28
I00
sg29
I00
sg30
Nsg31
Nsg32
I5
sg33
I8
sg34
Nsg35
Nsg36
S'JJ'
p4196
sg38
g4181
sg39
I00
sba(issf_api
Word
p4197
(dp4198
g6
I00
sg7
V\u0915\u0930
p4199
sg9
(issf_api
FeatureSet
p4200
(dp4201
g12
(dp4202
S'posn'
p4203
S'110'
p4204
sS'name'
p4205
S'\xe0\xa4\x95\xe0\xa4\xb0'
p4206
sS'af'
p4207
S'\xe0\xa4\x95\xe0\xa4\xb0,v,any,sg,any,,0_\xe0\xa4\xa6\xe0\xa5\x87+\xe0\xa4\xaf\xe0\xa4\xbe,0'
p4208
sS'chunkid'
p4209
S'VGF'
p4210
sS'chunktype'
p4211
S'head:VGF'
p4212
sS'voicetype'
p4213
S'active'
p4214
sS'vpos'
p4215
S'tam_2'
p4216
sS'stype'
p4217
S'declarative'
p4218
ssbsg28
I00
sg29
I00
sg30
Nsg31
Nsg32
I6
sg33
I8
sg34
Nsg35
Nsg36
S'VM'
p4219
sg38
g4200
sg39
I00
sba(issf_api
Word
p4220
(dp4221
g6
I00
sg7
V\u0926\u0940
p4222
sg9
(issf_api
FeatureSet
p4223
(dp4224
g12
(dp4225
S'posn'
p4226
S'120'
p4227
sS'name'
p4228
S'\xe0\xa4\xa6\xe0\xa5\x80'
p4229
sS'drel'
p4230
S'lwg__vaux:VGF'
p4231
sS'chunktype'
p4232
S'child:VGF'
p4233
sS'af'
p4234
S'\xe0\xa4\xa6\xe0\xa5\x87,v,f,sg,any,,\xe0\xa4\xaf\xe0\xa4\xbe,yA'
p4235
ssbsg28
I00
sg29
I00
sg30
Nsg31
Nsg32
I6
sg33
I8
sg34
Nsg35
Nsg36
S'VAUX'
p4236
sg38
g4223
sg39
I00
sba(issf_api
Word
p4237
(dp4238
g6
I00
sg7
V\u0964
p4239
sg9
(issf_api
FeatureSet
p4240
(dp4241
g12
(dp4242
S'posn'
p4243
S'130'
p4244
sS'name'
p4245
S'\xe0\xa5\xa4'
p4246
sS'af'
p4247
S'\xe0\xa5\xa4,punc,,,,,,'
p4248
sS'chunkid'
p4249
S'BLK'
p4250
sS'drel'
p4251
S'rsym:VGF'
p4252
sS'chunktype'
p4253
S'head:BLK'
p4254
ssbsg28
I00
sg29
I00
sg30
Nsg31
Nsg32
I7
sg33
I8
sg34
Nsg35
Nsg36
S'SYM'
p4255
sg38
g4240
sg39
I00
sbasS'sentenceList'
p4256
(lp4257
(issf_api
Sentence
p4258
(dp4259
S'rootNode'
p4260
(lp4261
sg33
I0
sS'wordNumList'
p4262
(lp4263
I0
aI1
aI2
aI3
aI4
aI5
aI6
aI7
aI8
aI9
aI10
aI11
aI12
aI13
aI14
aI15
aI16
aI17
aI18
aI19
aI20
aI21
aI22
aI23
aI24
aI25
asS'nodeDict'
p4264
(dp4265
S'VGNN'
p4266
(issf_api
Node
p4267
(dp4268
S'nodeRelation'
p4269
S'rt'
p4270
sS'nodeName'
p4271
g4266
sS'nodeParent'
p4272
S'VGF'
p4273
sS'nodeLevel'
p4274
I-1
sg32
I6
sS'childList'
p4275
(lp4276
S'NP6'
p4277
aS'NP3'
p4278
asbsS'VGF'
p4279
(issf_api
Node
p4280
(dp4281
g4269
S'None'
p4282
sg4271
g4279
sg4272
g4282
sg4274
I-1
sg32
I9
sg4275
(lp4283
g4266
aS'NP8'
p4284
aS'BLK'
p4285
aS'NP7'
p4286
asbsS'NP5'
p4287
(issf_api
Node
p4288
(dp4289
g4269
S'r6-k2'
p4290
sg4271
g4287
sg4272
S'NP6'
p4291
sg4274
I-1
sg32
I4
sg4275
(lp4292
S'NP4'
p4293
asbsg4284
(issf_api
Node
p4294
(dp4295
g4269
S'pof'
p4296
sg4271
g4284
sg4272
S'VGF'
p4297
sg4274
I-1
sg32
I8
sg4275
(lp4298
sbsg4285
(issf_api
Node
p4299
(dp4300
g4269
S'rsym'
p4301
sg4271
g4285
sg4272
S'VGF'
p4302
sg4274
I-1
sg32
I10
sg4275
(lp4303
sbsS'NP'
p4304
(issf_api
Node
p4305
(dp4306
g4269
S'r6'
p4307
sg4271
g4304
sg4272
S'NP2'
p4308
sg4274
I-1
sg32
I0
sg4275
(lp4309
sbsg4293
(issf_api
Node
p4310
(dp4311
g4269
S'r6'
p4312
sg4271
g4293
sg4272
S'NP5'
p4313
sg4274
I-1
sg32
I3
sg4275
(lp4314
sbsg4286
(issf_api
Node
p4315
(dp4316
g4269
S'ras-pof'
p4317
sg4271
g4286
sg4272
S'VGF'
p4318
sg4274
I-1
sg32
I7
sg4275
(lp4319
sbsg4277
(issf_api
Node
p4320
(dp4321
g4269
S'pof'
p4322
sg4271
g4277
sg4272
S'VGNN'
p4323
sg4274
I-1
sg32
I5
sg4275
(lp4324
g4287
asbsg4278
(issf_api
Node
p4325
(dp4326
g4269
S'k7'
p4327
sg4271
g4278
sg4272
S'VGNN'
p4328
sg4274
I-1
sg32
I2
sg4275
(lp4329
S'NP2'
p4330
asbsg4330
(issf_api
Node
p4331
(dp4332
g4269
S'nmod'
p4333
sg4271
g4330
sg4272
S'NP3'
p4334
sg4274
I-1
sg32
I1
sg4275
(lp4335
g4304
asbssS'chunkList'
p4336
(lp4337
(issf_api
Chunk
p4338
(dp4339
g4271
g57
sg32
I0
sS'chunkTag'
p4340
g70
sg33
I0
sg4262
(lp4341
I0
aI1
aI2
asg38
(issf_api
FeatureSet
p4342
(dp4343
g12
(dp4344
S'name'
p4345
g4304
sS'drel'
p4346
S'r6:NP2'
p4347
ssbsba(issf_api
Chunk
p4348
(dp4349
g4271
g122
sg32
I1
sg4340
g131
sg33
I0
sg4262
(lp4350
I3
aI4
asg38
(issf_api
FeatureSet
p4351
(dp4352
g12
(dp4353
S'name'
p4354
g4330
sS'drel'
p4355
S'nmod:NP3'
p4356
ssbsba(issf_api
Chunk
p4357
(dp4358
g4271
g166
sg32
I2
sg4340
g179
sg33
I0
sg4262
(lp4359
I5
aI6
aI7
asg38
(issf_api
FeatureSet
p4360
(dp4361
g12
(dp4362
S'name'
p4363
g4278
sS'drel'
p4364
S'k7:VGNN'
p4365
ssbsba(issf_api
Chunk
p4366
(dp4367
g4271
g210
sg32
I3
sg4340
g217
sg33
I0
sg4262
(lp4368
I8
aI9
asg38
(issf_api
FeatureSet
p4369
(dp4370
g12
(dp4371
S'name'
p4372
g4293
sS'drel'
p4373
S'r6:NP5'
p4374
ssbsba(issf_api
Chunk
p4375
(dp4376
g4271
g248
sg32
I4
sg4340
g255
sg33
I0
sg4262
(lp4377
I10
aI11
asg38
(issf_api
FeatureSet
p4378
(dp4379
g12
(dp4380
S'name'
p4381
g4287
sS'drel'
p4382
S'r6-k2:NP6'
p4383
ssbsba(issf_api
Chunk
p4384
(dp4385
g4271
g286
sg32
I5
sg4340
g291
sg33
I0
sg4262
(lp4386
I12
asg38
(issf_api
FeatureSet
p4387
(dp4388
g12
(dp4389
S'name'
p4390
g4277
sS'drel'
p4391
S'pof:VGNN'
p4392
ssbsba(issf_api
Chunk
p4393
(dp4394
g4271
g305
sg32
I6
sg4340
g312
sg33
I0
sg4262
(lp4395
I13
aI14
aI15
asg38
(issf_api
FeatureSet
p4396
(dp4397
g12
(dp4398
S'name'
p4399
g4266
sS'drel'
p4400
S'rt:VGF'
p4401
ssbsba(issf_api
Chunk
p4402
(dp4403
g4271
g377
sg32
I7
sg4340
g384
sg33
I0
sg4262
(lp4404
I16
aI17
aI18
asg38
(issf_api
FeatureSet
p4405
(dp4406
g12
(dp4407
S'name'
p4408
g4286
sS'drel'
p4409
S'ras-pof:VGF'
p4410
ssbsba(issf_api
Chunk
p4411
(dp4412
g4271
g436
sg32
I8
sg4340
g443
sg33
I0
sg4262
(lp4413
I19
aI20
asg38
(issf_api
FeatureSet
p4414
(dp4415
g12
(dp4416
S'name'
p4417
g4284
sS'drel'
p4418
S'pof:VGF'
p4419
ssbsba(issf_api
Chunk
p4420
(dp4421
g4271
g457
sg32
I9
sg4340
g466
sg33
I0
sg4262
(lp4422
I21
aI22
aI23
aI24
asg38
(issf_api
FeatureSet
p4423
(dp4424
g12
(dp4425
S'name'
p4426
g4279
ssbsba(issf_api
Chunk
p4427
(dp4428
g4271
g531
sg32
I10
sg4340
g536
sg33
I0
sg4262
(lp4429
I25
asg38
(issf_api
FeatureSet
p4430
(dp4431
g12
(dp4432
S'name'
p4433
g4285
sS'drel'
p4434
S'rsym:VGF'
p4435
ssbsbasba(issf_api
Sentence
p4436
(dp4437
g4260
(lp4438
sg33
I1
sg4262
(lp4439
I26
aI27
aI28
aI29
aI30
aI31
aI32
aI33
aI34
aI35
aI36
aI37
aI38
aI39
aI40
aI41
aI42
aI43
aI44
aI45
aI46
aI47
aI48
aI49
aI50
aI51
aI52
aI53
aI54
aI55
asg4264
(dp4440
S'VGF2'
p4441
(issf_api
Node
p4442
(dp4443
g4269
S'ccof'
p4444
sg4271
g4441
sg4272
S'CCP2'
p4445
sg4274
I-1
sg32
I10
sg4275
(lp4446
S'JJP2'
p4447
aS'NP6'
p4448
asbsS'VGF'
p4449
(issf_api
Node
p4450
(dp4451
g4269
g4282
sg4271
g4449
sg4272
g4282
sg4274
I-1
sg32
I5
sg4275
(lp4452
S'CCP'
p4453
aS'JJP'
p4454
aS'BLK'
p4455
aS'NP4'
p4456
aS'NP3'
p4457
asbsS'VGF3'
p4458
(issf_api
Node
p4459
(dp4460
g4269
S'ccof'
p4461
sg4271
g4458
sg4272
S'CCP2'
p4462
sg4274
I-1
sg32
I13
sg4275
(lp4463
S'NP7'
p4464
asbsg4453
(issf_api
Node
p4465
(dp4466
g4269
S'k2'
p4467
sg4271
g4453
sg4272
S'VGF'
p4468
sg4274
I-1
sg32
I6
sg4275
(lp4469
S'CCP2'
p4470
asbsg4454
(issf_api
Node
p4471
(dp4472
g4269
S'pof'
p4473
sg4271
g4454
sg4272
S'VGF'
p4474
sg4274
I-1
sg32
I4
sg4275
(lp4475
sbsS'NP5'
p4476
(issf_api
Node
p4477
(dp4478
g4269
S'r6'
p4479
sg4271
g4476
sg4272
S'NP6'
p4480
sg4274
I-1
sg32
I7
sg4275
(lp4481
sbsg4447
(issf_api
Node
p4482
(dp4483
g4269
S'pof'
p4484
sg4271
g4447
sg4272
S'VGF2'
p4485
sg4274
I-1
sg32
I9
sg4275
(lp4486
sbsg4455
(issf_api
Node
p4487
(dp4488
g4269
S'rsym'
p4489
sg4271
g4455
sg4272
S'VGF'
p4490
sg4274
I-1
sg32
I14
sg4275
(lp4491
sbsS'NP'
p4492
(issf_api
Node
p4493
(dp4494
g4269
S'r6'
p4495
sg4271
g4492
sg4272
S'NP2'
p4496
sg4274
I-1
sg32
I0
sg4275
(lp4497
sbsg4456
(issf_api
Node
p4498
(dp4499
g4269
S'k4'
p4500
sg4271
g4456
sg4272
S'VGF'
p4501
sg4274
I-1
sg32
I3
sg4275
(lp4502
sbsg4464
(issf_api
Node
p4503
(dp4504
g4269
S'pof'
p4505
sg4271
g4464
sg4272
S'VGF3'
p4506
sg4274
I-1
sg32
I12
sg4275
(lp4507
sbsg4448
(issf_api
Node
p4508
(dp4509
g4269
S'k2'
p4510
sg4271
g4448
sg4272
S'VGF2'
p4511
sg4274
I-1
sg32
I8
sg4275
(lp4512
g4476
asbsg4470
(issf_api
Node
p4513
(dp4514
g4269
S'ccof'
p4515
sg4271
g4470
sg4272
S'CCP'
p4516
sg4274
I-1
sg32
I11
sg4275
(lp4517
g4441
ag4458
asbsg4457
(issf_api
Node
p4518
(dp4519
g4269
S'k1'
p4520
sg4271
g4457
sg4272
S'VGF'
p4521
sg4274
I-1
sg32
I2
sg4275
(lp4522
S'NP2'
p4523
asbsg4523
(issf_api
Node
p4524
(dp4525
g4269
S'nmod'
p4526
sg4271
g4523
sg4272
S'NP3'
p4527
sg4274
I-1
sg32
I1
sg4275
(lp4528
g4492
asbssg4336
(lp4529
(issf_api
Chunk
p4530
(dp4531
g4271
g554
sg32
I0
sg4340
g567
sg33
I1
sg4262
(lp4532
I26
aI27
asg38
(issf_api
FeatureSet
p4533
(dp4534
g12
(dp4535
S'name'
p4536
g4492
sS'drel'
p4537
S'r6:NP2'
p4538
ssbsba(issf_api
Chunk
p4539
(dp4540
g4271
g619
sg32
I1
sg4340
g628
sg33
I1
sg4262
(lp4541
I28
aI29
asg38
(issf_api
FeatureSet
p4542
(dp4543
g12
(dp4544
S'name'
p4545
g4523
sS'drel'
p4546
S'nmod:NP3'
p4547
ssbsba(issf_api
Chunk
p4548
(dp4549
g4271
g724
sg32
I2
sg4340
g737
sg33
I1
sg4262
(lp4550
I30
aI31
aI32
aI33
aI34
aI35
asg38
(issf_api
FeatureSet
p4551
(dp4552
g12
(dp4553
S'name'
p4554
g4457
sS'drel'
p4555
S'k1:VGF'
p4556
ssbsba(issf_api
Chunk
p4557
(dp4558
g4271
g789
sg32
I3
sg4340
g800
sg33
I1
sg4262
(lp4559
I36
aI37
aI38
asg38
(issf_api
FeatureSet
p4560
(dp4561
g12
(dp4562
S'name'
p4563
g4456
sS'drel'
p4564
S'k4:VGF'
p4565
ssbsba(issf_api
Chunk
p4566
(dp4567
g4271
g831
sg32
I4
sg4340
g836
sg33
I1
sg4262
(lp4568
I39
asg38
(issf_api
FeatureSet
p4569
(dp4570
g12
(dp4571
S'name'
p4572
g4454
sS'drel'
p4573
S'pof:VGF'
p4574
ssbsba(issf_api
Chunk
p4575
(dp4576
g4271
g850
sg32
I5
sg4340
g857
sg33
I1
sg4262
(lp4577
I40
asg38
(issf_api
FeatureSet
p4578
(dp4579
g12
(dp4580
S'name'
p4581
g4449
ssbsba(issf_api
Chunk
p4582
(dp4583
g4271
g871
sg32
I6
sg4340
g876
sg33
I1
sg4262
(lp4584
I41
asg38
(issf_api
FeatureSet
p4585
(dp4586
g12
(dp4587
S'name'
p4588
g4453
sS'drel'
p4589
S'k2:VGF'
p4590
ssbsba(issf_api
Chunk
p4591
(dp4592
g4271
g892
sg32
I7
sg4340
g901
sg33
I1
sg4262
(lp4593
I42
aI43
asg38
(issf_api
FeatureSet
p4594
(dp4595
g12
(dp4596
S'name'
p4597
g4476
sS'drel'
p4598
S'r6:NP6'
p4599
ssbsba(issf_api
Chunk
p4600
(dp4601
g4271
g934
sg32
I8
sg4340
g945
sg33
I1
sg4262
(lp4602
I44
asg38
(issf_api
FeatureSet
p4603
(dp4604
g12
(dp4605
S'name'
p4606
g4448
sS'drel'
p4607
S'k2:VGF2'
p4608
ssbsba(issf_api
Chunk
p4609
(dp4610
g4271
g959
sg32
I9
sg4340
g964
sg33
I1
sg4262
(lp4611
I45
asg38
(issf_api
FeatureSet
p4612
(dp4613
g12
(dp4614
S'name'
p4615
g4447
sS'drel'
p4616
S'pof:VGF2'
p4617
ssbsba(issf_api
Chunk
p4618
(dp4619
g4271
g978
sg32
I10
sg4340
g989
sg33
I1
sg4262
(lp4620
I46
aI47
aI48
asg38
(issf_api
FeatureSet
p4621
(dp4622
g12
(dp4623
S'name'
p4624
g4441
sS'drel'
p4625
S'ccof:CCP2'
p4626
ssbsba(issf_api
Chunk
p4627
(dp4628
g4271
g1037
sg32
I11
sg4340
g1042
sg33
I1
sg4262
(lp4629
I49
asg38
(issf_api
FeatureSet
p4630
(dp4631
g12
(dp4632
S'name'
p4633
g4470
sS'drel'
p4634
S'ccof:CCP'
p4635
ssbsba(issf_api
Chunk
p4636
(dp4637
g4271
g1058
sg32
I12
sg4340
g1067
sg33
I1
sg4262
(lp4638
I50
asg38
(issf_api
FeatureSet
p4639
(dp4640
g12
(dp4641
S'name'
p4642
g4464
sS'drel'
p4643
S'pof:VGF3'
p4644
ssbsba(issf_api
Chunk
p4645
(dp4646
g4271
g1081
sg32
I13
sg4340
g1092
sg33
I1
sg4262
(lp4647
I51
aI52
aI53
aI54
asg38
(issf_api
FeatureSet
p4648
(dp4649
g12
(dp4650
S'name'
p4651
g4458
sS'drel'
p4652
S'ccof:CCP2'
p4653
ssbsba(issf_api
Chunk
p4654
(dp4655
g4271
g1157
sg32
I14
sg4340
g1162
sg33
I1
sg4262
(lp4656
I55
asg38
(issf_api
FeatureSet
p4657
(dp4658
g12
(dp4659
S'name'
p4660
g4455
sS'drel'
p4661
S'rsym:VGF'
p4662
ssbsbasba(issf_api
Sentence
p4663
(dp4664
g4260
(lp4665
sg33
I2
sg4262
(lp4666
I56
aI57
aI58
aI59
aI60
aI61
aI62
aI63
aI64
aI65
aI66
aI67
aI68
aI69
aI70
aI71
aI72
aI73
aI74
aI75
aI76
aI77
aI78
aI79
aI80
aI81
aI82
aI83
aI84
aI85
aI86
aI87
asg4264
(dp4667
S'VGF2'
p4668
(issf_api
Node
p4669
(dp4670
g4269
S'ccof'
p4671
sg4271
g4668
sg4272
S'CCP'
p4672
sg4274
I-1
sg32
I12
sg4275
(lp4673
S'JJP'
p4674
aS'CCP2'
p4675
aS'NP2'
p4676
asbsS'VGF'
p4677
(issf_api
Node
p4678
(dp4679
g4269
g4282
sg4271
g4677
sg4272
g4282
sg4274
I-1
sg32
I1
sg4275
(lp4680
S'CCP'
p4681
aS'BLK'
p4682
aS'NP'
p4683
asbsg4681
(issf_api
Node
p4684
(dp4685
g4269
S'k2'
p4686
sg4271
g4681
sg4272
S'VGF'
p4687
sg4274
I-1
sg32
I2
sg4275
(lp4688
g4668
asbsg4674
(issf_api
Node
p4689
(dp4690
g4269
S'pof'
p4691
sg4271
g4674
sg4272
S'VGF2'
p4692
sg4274
I-1
sg32
I11
sg4275
(lp4693
sbsS'NP5'
p4694
(issf_api
Node
p4695
(dp4696
g4269
S'r6'
p4697
sg4271
g4694
sg4272
S'NP7'
p4698
sg4274
I-1
sg32
I7
sg4275
(lp4699
S'FRAGP'
p4700
aS'NP6'
p4701
asbsg4682
(issf_api
Node
p4702
(dp4703
g4269
S'rsym'
p4704
sg4271
g4682
sg4272
S'VGF'
p4705
sg4274
I-1
sg32
I13
sg4275
(lp4706
sbsg4700
(issf_api
Node
p4707
(dp4708
g4269
S'fragof'
p4709
sg4271
g4700
sg4272
S'NP5'
p4710
sg4274
I-1
sg32
I9
sg4275
(lp4711
sbsg4683
(issf_api
Node
p4712
(dp4713
g4269
S'k1'
p4714
sg4271
g4683
sg4272
S'VGF'
p4715
sg4274
I-1
sg32
I0
sg4275
(lp4716
sbsS'NP4'
p4717
(issf_api
Node
p4718
(dp4719
g4269
S'ccof'
p4720
sg4271
g4717
sg4272
S'CCP2'
p4721
sg4274
I-1
sg32
I5
sg4275
(lp4722
sbsS'NP7'
p4723
(issf_api
Node
p4724
(dp4725
g4269
S'ccof'
p4726
sg4271
g4723
sg4272
S'CCP2'
p4727
sg4274
I-1
sg32
I10
sg4275
(lp4728
g4694
asbsg4701
(issf_api
Node
p4729
(dp4730
g4269
S'rs'
p4731
sg4271
g4701
sg4272
S'NP5'
p4732
sg4274
I-1
sg32
I8
sg4275
(lp4733
sbsg4675
(issf_api
Node
p4734
(dp4735
g4269
S'r6'
p4736
sg4271
g4675
sg4272
S'VGF2'
p4737
sg4274
I-1
sg32
I6
sg4275
(lp4738
g4717
ag4723
aS'NP3'
p4739
asbsg4739
(issf_api
Node
p4740
(dp4741
g4269
S'ccof'
p4742
sg4271
g4739
sg4272
S'CCP2'
p4743
sg4274
I-1
sg32
I4
sg4275
(lp4744
sbsg4676
(issf_api
Node
p4745
(dp4746
g4269
S'k7'
p4747
sg4271
g4676
sg4272
S'VGF2'
p4748
sg4274
I-1
sg32
I3
sg4275
(lp4749
sbssg4336
(lp4750
(issf_api
Chunk
p4751
(dp4752
g4271
g1178
sg32
I0
sg4340
g1187
sg33
I2
sg4262
(lp4753
I56
asg38
(issf_api
FeatureSet
p4754
(dp4755
g12
(dp4756
S'name'
p4757
g4683
sS'drel'
p4758
S'k1:VGF'
p4759
ssbsba(issf_api
Chunk
p4760
(dp4761
g4271
g1201
sg32
I1
sg4340
g1208
sg33
I2
sg4262
(lp4762
I57
asg38
(issf_api
FeatureSet
p4763
(dp4764
g12
(dp4765
S'name'
p4766
g4677
ssbsba(issf_api
Chunk
p4767
(dp4768
g4271
g1222
sg32
I2
sg4340
g1227
sg33
I2
sg4262
(lp4769
I58
asg38
(issf_api
FeatureSet
p4770
(dp4771
g12
(dp4772
S'name'
p4773
g4681
sS'drel'
p4774
S'k2:VGF'
p4775
ssbsba(issf_api
Chunk
p4776
(dp4777
g4271
g1262
sg32
I3
sg4340
g1273
sg33
I2
sg4262
(lp4778
I59
aI60
aI61
asg38
(issf_api
FeatureSet
p4779
(dp4780
g12
(dp4781
S'name'
p4782
g4676
sS'drel'
p4783
S'k7:VGF2'
p4784
ssbsba(issf_api
Chunk
p4785
(dp4786
g4271
g1321
sg32
I4
sg4340
g1326
sg33
I2
sg4262
(lp4787
I62
aI63
aI64
asg38
(issf_api
FeatureSet
p4788
(dp4789
g12
(dp4790
S'name'
p4791
g4739
sS'drel'
p4792
S'ccof:CCP2'
p4793
ssbsba(issf_api
Chunk
p4794
(dp4795
g4271
g1357
sg32
I5
sg4340
g1362
sg33
I2
sg4262
(lp4796
I65
asg38
(issf_api
FeatureSet
p4797
(dp4798
g12
(dp4799
S'name'
p4800
g4717
sS'drel'
p4801
S'ccof:CCP2'
p4802
ssbsba(issf_api
Chunk
p4803
(dp4804
g4271
g1376
sg32
I6
sg4340
g1381
sg33
I2
sg4262
(lp4805
I66
asg38
(issf_api
FeatureSet
p4806
(dp4807
g12
(dp4808
S'name'
p4809
g4675
sS'drel'
p4810
S'r6:VGF2'
p4811
ssbsba(issf_api
Chunk
p4812
(dp4813
g4271
g1530
sg32
I7
sg4340
g1539
sg33
I2
sg4262
(lp4814
I67
aI68
aI69
aI70
aI71
aI72
aI73
aI74
asg38
(issf_api
FeatureSet
p4815
(dp4816
g12
(dp4817
S'name'
p4818
g4694
sS'drel'
p4819
S'r6:NP7'
p4820
ssbsba(issf_api
Chunk
p4821
(dp4822
g4271
g1572
sg32
I8
sg4340
g1581
sg33
I2
sg4262
(lp4823
I75
aI76
aI77
asg38
(issf_api
FeatureSet
p4824
(dp4825
g12
(dp4826
S'name'
p4827
g4701
sS'drel'
p4828
S'rs:NP5'
p4829
ssbsba(issf_api
Chunk
p4830
(dp4831
g4271
g1612
sg32
I9
sg4340
g1613
sg33
I2
sg4262
(lp4832
I78
asg38
(issf_api
FeatureSet
p4833
(dp4834
g12
(dp4835
S'name'
p4836
g4700
sS'drel'
p4837
S'fragof:NP5'
p4838
ssbsba(issf_api
Chunk
p4839
(dp4840
g4271
g1661
sg32
I10
sg4340
g1668
sg33
I2
sg4262
(lp4841
I79
aI80
aI81
aI82
asg38
(issf_api
FeatureSet
p4842
(dp4843
g12
(dp4844
S'name'
p4845
g4723
sS'drel'
p4846
S'ccof:CCP2'
p4847
ssbsba(issf_api
Chunk
p4848
(dp4849
g4271
g1699
sg32
I11
sg4340
g1704
sg33
I2
sg4262
(lp4850
I83
asg38
(issf_api
FeatureSet
p4851
(dp4852
g12
(dp4853
S'name'
p4854
g4674
sS'drel'
p4855
S'pof:VGF2'
p4856
ssbsba(issf_api
Chunk
p4857
(dp4858
g4271
g1718
sg32
I12
sg4340
g1729
sg33
I2
sg4262
(lp4859
I84
aI85
aI86
asg38
(issf_api
FeatureSet
p4860
(dp4861
g12
(dp4862
S'name'
p4863
g4668
sS'drel'
p4864
S'ccof:CCP'
p4865
ssbsba(issf_api
Chunk
p4866
(dp4867
g4271
g1777
sg32
I13
sg4340
g1782
sg33
I2
sg4262
(lp4868
I87
asg38
(issf_api
FeatureSet
p4869
(dp4870
g12
(dp4871
S'name'
p4872
g4682
sS'drel'
p4873
S'rsym:VGF'
p4874
ssbsbasba(issf_api
Sentence
p4875
(dp4876
g4260
(lp4877
sg33
I3
sg4262
(lp4878
I88
aI89
aI90
aI91
aI92
aI93
aI94
aI95
aI96
aI97
aI98
aI99
aI100
aI101
aI102
aI103
aI104
aI105
aI106
aI107
asg4264
(dp4879
S'VGF'
p4880
(issf_api
Node
p4881
(dp4882
g4269
g4282
sg4271
g4880
sg4272
g4282
sg4274
I-1
sg32
I6
sg4275
(lp4883
S'BLK'
p4884
aS'NP4'
p4885
aS'NP6'
p4886
aS'NP3'
p4887
asbsS'NP5'
p4888
(issf_api
Node
p4889
(dp4890
g4269
S'r6-k2'
p4891
sg4271
g4888
sg4272
S'NP6'
p4892
sg4274
I-1
sg32
I4
sg4275
(lp4893
sbsg4884
(issf_api
Node
p4894
(dp4895
g4269
S'rsym'
p4896
sg4271
g4884
sg4272
S'VGF'
p4897
sg4274
I-1
sg32
I7
sg4275
(lp4898
sbsS'NP'
p4899
(issf_api
Node
p4900
(dp4901
g4269
S'nmod'
p4902
sg4271
g4899
sg4272
S'NP2'
p4903
sg4274
I-1
sg32
I0
sg4275
(lp4904
sbsg4885
(issf_api
Node
p4905
(dp4906
g4269
S'k1'
p4907
sg4271
g4885
sg4272
S'VGF'
p4908
sg4274
I-1
sg32
I3
sg4275
(lp4909
sbsg4886
(issf_api
Node
p4910
(dp4911
g4269
S'pof'
p4912
sg4271
g4886
sg4272
S'VGF'
p4913
sg4274
I-1
sg32
I5
sg4275
(lp4914
g4888
asbsg4887
(issf_api
Node
p4915
(dp4916
g4269
S'k7t'
p4917
sg4271
g4887
sg4272
S'VGF'
p4918
sg4274
I-1
sg32
I2
sg4275
(lp4919
S'NP2'
p4920
asbsg4920
(issf_api
Node
p4921
(dp4922
g4269
S'r6'
p4923
sg4271
g4920
sg4272
S'NP3'
p4924
sg4274
I-1
sg32
I1
sg4275
(lp4925
g4899
asbssg4336
(lp4926
(issf_api
Chunk
p4927
(dp4928
g4271
g1815
sg32
I0
sg4340
g1826
sg33
I3
sg4262
(lp4929
I88
aI89
aI90
aI91
aI92
asg38
(issf_api
FeatureSet
p4930
(dp4931
g12
(dp4932
S'name'
p4933
g4899
sS'drel'
p4934
S'nmod:NP2'
p4935
ssbsba(issf_api
Chunk
p4936
(dp4937
g4271
g1891
sg32
I1
sg4340
g1898
sg33
I3
sg4262
(lp4938
I93
aI94
asg38
(issf_api
FeatureSet
p4939
(dp4940
g12
(dp4941
S'name'
p4942
g4920
sS'drel'
p4943
S'r6:NP3'
p4944
ssbsba(issf_api
Chunk
p4945
(dp4946
g4271
g1929
sg32
I2
sg4340
g1936
sg33
I3
sg4262
(lp4947
I95
aI96
aI97
asg38
(issf_api
FeatureSet
p4948
(dp4949
g12
(dp4950
S'name'
p4951
g4887
sS'drel'
p4952
S'k7t:VGF'
p4953
ssbsba(issf_api
Chunk
p4954
(dp4955
g4271
g2007
sg32
I3
sg4340
g2014
sg33
I3
sg4262
(lp4956
I98
aI99
aI100
asg38
(issf_api
FeatureSet
p4957
(dp4958
g12
(dp4959
S'name'
p4960
g4885
sS'drel'
p4961
S'k1:VGF'
p4962
ssbsba(issf_api
Chunk
p4963
(dp4964
g4271
g2066
sg32
I4
sg4340
g2077
sg33
I3
sg4262
(lp4965
I101
aI102
aI103
asg38
(issf_api
FeatureSet
p4966
(dp4967
g12
(dp4968
S'name'
p4969
g4888
sS'drel'
p4970
S'r6-k2:NP6'
p4971
ssbsba(issf_api
Chunk
p4972
(dp4973
g4271
g2108
sg32
I5
sg4340
g2113
sg33
I3
sg4262
(lp4974
I104
asg38
(issf_api
FeatureSet
p4975
(dp4976
g12
(dp4977
S'name'
p4978
g4886
sS'drel'
p4979
S'pof:VGF'
p4980
ssbsba(issf_api
Chunk
p4981
(dp4982
g4271
g2127
sg32
I6
sg4340
g2136
sg33
I3
sg4262
(lp4983
I105
aI106
asg38
(issf_api
FeatureSet
p4984
(dp4985
g12
(dp4986
S'name'
p4987
g4880
ssbsba(issf_api
Chunk
p4988
(dp4989
g4271
g2167
sg32
I7
sg4340
g2172
sg33
I3
sg4262
(lp4990
I107
asg38
(issf_api
FeatureSet
p4991
(dp4992
g12
(dp4993
S'name'
p4994
g4884
sS'drel'
p4995
S'rsym:VGF'
p4996
ssbsbasba(issf_api
Sentence
p4997
(dp4998
g4260
(lp4999
sg33
I4
sg4262
(lp5000
I108
aI109
aI110
aI111
aI112
aI113
aI114
aI115
aI116
aI117
aI118
aI119
aI120
aI121
aI122
aI123
aI124
aI125
asg4264
(dp5001
S'VGF'
p5002
(issf_api
Node
p5003
(dp5004
g4269
g4282
sg4271
g5002
sg4272
g4282
sg4274
I-1
sg32
I3
sg4275
(lp5005
S'CCP'
p5006
aS'BLK'
p5007
aS'NP'
p5008
aS'NP3'
p5009
aS'NP2'
p5010
asbsg5006
(issf_api
Node
p5011
(dp5012
g4269
S'k2'
p5013
sg4271
g5006
sg4272
S'VGF'
p5014
sg4274
I-1
sg32
I4
sg4275
(lp5015
S'VGF2'
p5016
asbsg5016
(issf_api
Node
p5017
(dp5018
g4269
S'ccof'
p5019
sg4271
g5016
sg4272
S'CCP'
p5020
sg4274
I-1
sg32
I8
sg4275
(lp5021
S'NP4'
p5022
aS'NP6'
p5023
asbsS'NP5'
p5024
(issf_api
Node
p5025
(dp5026
g4269
S'r6-k2'
p5027
sg4271
g5024
sg4272
S'NP6'
p5028
sg4274
I-1
sg32
I6
sg4275
(lp5029
sbsg5007
(issf_api
Node
p5030
(dp5031
g4269
S'rsym'
p5032
sg4271
g5007
sg4272
S'VGF'
p5033
sg4274
I-1
sg32
I9
sg4275
(lp5034
sbsg5008
(issf_api
Node
p5035
(dp5036
g4269
S'k4'
p5037
sg4271
g5008
sg4272
S'VGF'
p5038
sg4274
I-1
sg32
I0
sg4275
(lp5039
sbsg5022
(issf_api
Node
p5040
(dp5041
g4269
S'k1'
p5042
sg4271
g5022
sg4272
S'VGF2'
p5043
sg4274
I-1
sg32
I5
sg4275
(lp5044
sbsg5023
(issf_api
Node
p5045
(dp5046
g4269
S'pof'
p5047
sg4271
g5023
sg4272
S'VGF2'
p5048
sg4274
I-1
sg32
I7
sg4275
(lp5049
g5024
asbsg5009
(issf_api
Node
p5050
(dp5051
g4269
S'k1'
p5052
sg4271
g5009
sg4272
S'VGF'
p5053
sg4274
I-1
sg32
I2
sg4275
(lp5054
sbsg5010
(issf_api
Node
p5055
(dp5056
g4269
S'adv'
p5057
sg4271
g5010
sg4272
S'VGF'
p5058
sg4274
I-1
sg32
I1
sg4275
(lp5059
sbssg4336
(lp5060
(issf_api
Chunk
p5061
(dp5062
g4271
g2220
sg32
I0
sg4340
g2227
sg33
I4
sg4262
(lp5063
I108
aI109
aI110
aI111
asg38
(issf_api
FeatureSet
p5064
(dp5065
g12
(dp5066
S'name'
p5067
g5008
sS'drel'
p5068
S'k4:VGF'
p5069
ssbsba(issf_api
Chunk
p5070
(dp5071
g4271
g2258
sg32
I1
sg4340
g2265
sg33
I4
sg4262
(lp5072
I112
aI113
asg38
(issf_api
FeatureSet
p5073
(dp5074
g12
(dp5075
S'name'
p5076
g5010
sS'drel'
p5077
S'adv:VGF'
p5078
ssbsba(issf_api
Chunk
p5079
(dp5080
g4271
g2298
sg32
I2
sg4340
g2309
sg33
I4
sg4262
(lp5081
I114
aI115
asg38
(issf_api
FeatureSet
p5082
(dp5083
g12
(dp5084
S'name'
p5085
g5009
sS'drel'
p5086
S'k1:VGF'
p5087
ssbsba(issf_api
Chunk
p5088
(dp5089
g4271
g2340
sg32
I3
sg4340
g2349
sg33
I4
sg4262
(lp5090
I116
aI117
asg38
(issf_api
FeatureSet
p5091
(dp5092
g12
(dp5093
S'name'
p5094
g5002
ssbsba(issf_api
Chunk
p5095
(dp5096
g4271
g2380
sg32
I4
sg4340
g2385
sg33
I4
sg4262
(lp5097
I118
asg38
(issf_api
FeatureSet
p5098
(dp5099
g12
(dp5100
S'name'
p5101
g5006
sS'drel'
p5102
S'k2:VGF'
p5103
ssbsba(issf_api
Chunk
p5104
(dp5105
g4271
g2401
sg32
I5
sg4340
g2410
sg33
I4
sg4262
(lp5106
I119
asg38
(issf_api
FeatureSet
p5107
(dp5108
g12
(dp5109
S'name'
p5110
g5022
sS'drel'
p5111
S'k1:VGF2'
p5112
ssbsba(issf_api
Chunk
p5113
(dp5114
g4271
g2426
sg32
I6
sg4340
g2435
sg33
I4
sg4262
(lp5115
I120
asg38
(issf_api
FeatureSet
p5116
(dp5117
g12
(dp5118
S'name'
p5119
g5024
sS'drel'
p5120
S'r6-k2:NP6'
p5121
ssbsba(issf_api
Chunk
p5122
(dp5123
g4271
g2449
sg32
I7
sg4340
g2454
sg33
I4
sg4262
(lp5124
I121
asg38
(issf_api
FeatureSet
p5125
(dp5126
g12
(dp5127
S'name'
p5128
g5023
sS'drel'
p5129
S'pof:VGF2'
p5130
ssbsba(issf_api
Chunk
p5131
(dp5132
g4271
g2468
sg32
I8
sg4340
g2479
sg33
I4
sg4262
(lp5133
I122
aI123
aI124
asg38
(issf_api
FeatureSet
p5134
(dp5135
g12
(dp5136
S'name'
p5137
g5016
sS'drel'
p5138
S'ccof:CCP'
p5139
ssbsba(issf_api
Chunk
p5140
(dp5141
g4271
g2527
sg32
I9
sg4340
g2532
sg33
I4
sg4262
(lp5142
I125
asg38
(issf_api
FeatureSet
p5143
(dp5144
g12
(dp5145
S'name'
p5146
g5007
sS'drel'
p5147
S'rsym:VGF'
p5148
ssbsbasba(issf_api
Sentence
p5149
(dp5150
g4260
(lp5151
sg33
I5
sg4262
(lp5152
I126
aI127
aI128
aI129
aI130
aI131
aI132
aI133
aI134
aI135
aI136
aI137
aI138
aI139
aI140
aI141
aI142
aI143
aI144
asg4264
(dp5153
S'VGF2'
p5154
(issf_api
Node
p5155
(dp5156
g4269
S'ccof'
p5157
sg4271
g5154
sg4272
S'CCP2'
p5158
sg4274
I-1
sg32
I12
sg4275
(lp5159
S'NP6'
p5160
aS'NP5'
p5161
aS'JJP2'
p5162
asbsg5160
(issf_api
Node
p5163
(dp5164
g4269
S'k7t'
p5165
sg4271
g5160
sg4272
S'VGF2'
p5166
sg4274
I-1
sg32
I10
sg4275
(lp5167
sbsS'VGF'
p5168
(issf_api
Node
p5169
(dp5170
g4269
g4282
sg4271
g5168
sg4272
g4282
sg4274
I-1
sg32
I2
sg4275
(lp5171
S'CCP'
p5172
aS'BLK'
p5173
aS'NP'
p5174
aS'NP2'
p5175
asbsg5172
(issf_api
Node
p5176
(dp5177
g4269
S'k2'
p5178
sg4271
g5172
sg4272
S'VGF'
p5179
sg4274
I-1
sg32
I3
sg4275
(lp5180
sbsS'JJP'
p5181
(issf_api
Node
p5182
(dp5183
g4269
S'pof'
p5184
sg4271
g5181
sg4272
S'NULL__VGF'
p5185
sg4274
I-1
sg32
I6
sg4275
(lp5186
sbsg5161
(issf_api
Node
p5187
(dp5188
g4269
S'k1'
p5189
sg4271
g5161
sg4272
S'VGF2'
p5190
sg4274
I-1
sg32
I9
sg4275
(lp5191
S'NP4'
p5192
asbsg5162
(issf_api
Node
p5193
(dp5194
g4269
S'pof'
p5195
sg4271
g5162
sg4272
S'VGF2'
p5196
sg4274
I-1
sg32
I11
sg4275
(lp5197
sbsg5173
(issf_api
Node
p5198
(dp5199
g4269
S'rsym'
p5200
sg4271
g5173
sg4272
S'VGF'
p5201
sg4274
I-1
sg32
I13
sg4275
(lp5202
sbsg5174
(issf_api
Node
p5203
(dp5204
g4269
S'k1'
p5205
sg4271
g5174
sg4272
S'VGF'
p5206
sg4274
I-1
sg32
I0
sg4275
(lp5207
sbsg5192
(issf_api
Node
p5208
(dp5209
g4269
S'r6'
p5210
sg4271
g5192
sg4272
S'NP5'
p5211
sg4274
I-1
sg32
I8
sg4275
(lp5212
sbsS'NULL__VGF'
p5213
(issf_api
Node
p5214
(dp5215
g4269
g4282
sg4271
g5213
sg4272
g4282
sg4274
I-1
sg32
I-1
sg4275
(lp5216
g5181
aS'CCP2'
p5217
aS'NEGP'
p5218
aS'NP3'
p5219
asbsg5217
(issf_api
Node
p5220
(dp5221
g4269
S'k1'
p5222
sg4271
g5217
sg4272
S'NULL__VGF'
p5223
sg4274
I-1
sg32
I7
sg4275
(lp5224
g5154
asbsg5218
(issf_api
Node
p5225
(dp5226
g4269
S'vmod'
p5227
sg4271
g5218
sg4272
S'NULL__VGF'
p5228
sg4274
I-1
sg32
I5
sg4275
(lp5229
sbsg5219
(issf_api
Node
p5230
(dp5231
g4269
S'k4a'
p5232
sg4271
g5219
sg4272
S'NULL__VGF'
p5233
sg4274
I-1
sg32
I4
sg4275
(lp5234
sbsg5175
(issf_api
Node
p5235
(dp5236
g4269
S'k4'
p5237
sg4271
g5175
sg4272
S'VGF'
p5238
sg4274
I-1
sg32
I1
sg4275
(lp5239
sbssg4336
(lp5240
(issf_api
Chunk
p5241
(dp5242
g4271
g2590
sg32
I0
sg4340
g2601
sg33
I5
sg4262
(lp5243
I126
aI127
aI128
aI129
asg38
(issf_api
FeatureSet
p5244
(dp5245
g12
(dp5246
S'name'
p5247
g5174
sS'drel'
p5248
S'k1:VGF'
p5249
ssbsba(issf_api
Chunk
p5250
(dp5251
g4271
g2636
sg32
I1
sg4340
g2647
sg33
I5
sg4262
(lp5252
I130
aI131
asg38
(issf_api
FeatureSet
p5253
(dp5254
g12
(dp5255
S'name'
p5256
g5175
sS'drel'
p5257
S'k4:VGF'
p5258
ssbsba(issf_api
Chunk
p5259
(dp5260
g4271
g2680
sg32
I2
sg4340
g2689
sg33
I5
sg4262
(lp5261
I132
asg38
(issf_api
FeatureSet
p5262
(dp5263
g12
(dp5264
S'name'
p5265
g5168
ssbsba(issf_api
Chunk
p5266
(dp5267
g4271
g2703
sg32
I3
sg4340
g2710
sg33
I5
sg4262
(lp5268
I133
asg38
(issf_api
FeatureSet
p5269
(dp5270
g12
(dp5271
S'name'
p5272
g5172
sS'drel'
p5273
S'k2:VGF'
p5274
ssbsba(issf_api
Chunk
p5275
(dp5276
g4271
g2726
sg32
I4
sg4340
g2735
sg33
I5
sg4262
(lp5277
I134
asg38
(issf_api
FeatureSet
p5278
(dp5279
g12
(dp5280
S'name'
p5281
g5219
sS'drel'
p5282
S'k4a:NULL__VGF'
p5283
ssbsba(issf_api
Chunk
p5284
(dp5285
g4271
g2749
sg32
I5
sg4340
g2756
sg33
I5
sg4262
(lp5286
I135
asg38
(issf_api
FeatureSet
p5287
(dp5288
g12
(dp5289
S'name'
p5290
g5218
sS'drel'
p5291
S'vmod:NULL__VGF'
p5292
ssbsba(issf_api
Chunk
p5293
(dp5294
g4271
g2770
sg32
I6
sg4340
g2777
sg33
I5
sg4262
(lp5295
I136
asg38
(issf_api
FeatureSet
p5296
(dp5297
g12
(dp5298
S'name'
p5299
g5181
sS'drel'
p5300
S'pof:NULL__VGF'
p5301
ssbsba(issf_api
Chunk
p5302
(dp5303
g4271
g2791
sg32
I7
sg4340
g2798
sg33
I5
sg4262
(lp5304
I137
asg38
(issf_api
FeatureSet
p5305
(dp5306
g12
(dp5307
S'name'
p5308
g5217
sS'drel'
p5309
S'k1:NULL__VGF'
p5310
ssbsba(issf_api
Chunk
p5311
(dp5312
g4271
g2816
sg32
I8
sg4340
g2829
sg33
I5
sg4262
(lp5313
I138
aI139
asg38
(issf_api
FeatureSet
p5314
(dp5315
g12
(dp5316
S'name'
p5317
g5192
sS'drel'
p5318
S'r6:NP5'
p5319
ssbsba(issf_api
Chunk
p5320
(dp5321
g4271
g2864
sg32
I9
sg4340
g2877
sg33
I5
sg4262
(lp5322
I140
asg38
(issf_api
FeatureSet
p5323
(dp5324
g12
(dp5325
S'name'
p5326
g5161
sS'drel'
p5327
S'k1:VGF2'
p5328
ssbsba(issf_api
Chunk
p5329
(dp5330
g4271
g2891
sg32
I10
sg4340
g2898
sg33
I5
sg4262
(lp5331
I141
asg38
(issf_api
FeatureSet
p5332
(dp5333
g12
(dp5334
S'name'
p5335
g5160
sS'drel'
p5336
S'k7t:VGF2'
p5337
ssbsba(issf_api
Chunk
p5338
(dp5339
g4271
g2912
sg32
I11
sg4340
g2919
sg33
I5
sg4262
(lp5340
I142
asg38
(issf_api
FeatureSet
p5341
(dp5342
g12
(dp5343
S'name'
p5344
g5162
sS'drel'
p5345
S'pof:VGF2'
p5346
ssbsba(issf_api
Chunk
p5347
(dp5348
g4271
g2935
sg32
I12
sg4340
g2948
sg33
I5
sg4262
(lp5349
I143
asg38
(issf_api
FeatureSet
p5350
(dp5351
g12
(dp5352
S'name'
p5353
g5154
sS'drel'
p5354
S'ccof:CCP2'
p5355
ssbsba(issf_api
Chunk
p5356
(dp5357
g4271
g2962
sg32
I13
sg4340
g2967
sg33
I5
sg4262
(lp5358
I144
asg38
(issf_api
FeatureSet
p5359
(dp5360
g12
(dp5361
S'name'
p5362
g5173
sS'drel'
p5363
S'rsym:VGF'
p5364
ssbsbasba(issf_api
Sentence
p5365
(dp5366
g4260
(lp5367
sg33
I6
sg4262
(lp5368
I145
aI146
aI147
aI148
aI149
aI150
aI151
aI152
aI153
aI154
asg4264
(dp5369
S'VGF'
p5370
(issf_api
Node
p5371
(dp5372
g4269
g4282
sg4271
g5370
sg4272
g4282
sg4274
I-1
sg32
I4
sg4275
(lp5373
S'BLK'
p5374
aS'NP'
p5375
aS'NP4'
p5376
aS'NP2'
p5377
asbsg5374
(issf_api
Node
p5378
(dp5379
g4269
S'rsym'
p5380
sg4271
g5374
sg4272
S'VGF'
p5381
sg4274
I-1
sg32
I5
sg4275
(lp5382
sbsg5375
(issf_api
Node
p5383
(dp5384
g4269
S'sent-adv'
p5385
sg4271
g5375
sg4272
S'VGF'
p5386
sg4274
I-1
sg32
I0
sg4275
(lp5387
sbsg5376
(issf_api
Node
p5388
(dp5389
g4269
S'k2'
p5390
sg4271
g5376
sg4272
S'VGF'
p5391
sg4274
I-1
sg32
I3
sg4275
(lp5392
S'NP3'
p5393
asbsg5393
(issf_api
Node
p5394
(dp5395
g4269
S'r6'
p5396
sg4271
g5393
sg4272
S'NP4'
p5397
sg4274
I-1
sg32
I2
sg4275
(lp5398
sbsg5377
(issf_api
Node
p5399
(dp5400
g4269
S'k1'
p5401
sg4271
g5377
sg4272
S'VGF'
p5402
sg4274
I-1
sg32
I1
sg4275
(lp5403
sbssg4336
(lp5404
(issf_api
Chunk
p5405
(dp5406
g4271
g2983
sg32
I0
sg4340
g2994
sg33
I6
sg4262
(lp5407
I145
aI146
aI147
asg38
(issf_api
FeatureSet
p5408
(dp5409
g12
(dp5410
S'name'
p5411
g5375
sS'drel'
p5412
S'sent-adv:VGF'
p5413
ssbsba(issf_api
Chunk
p5414
(dp5415
g4271
g3044
sg32
I1
sg4340
g3053
sg33
I6
sg4262
(lp5416
I148
asg38
(issf_api
FeatureSet
p5417
(dp5418
g12
(dp5419
S'name'
p5420
g5377
sS'drel'
p5421
S'k1:VGF'
p5422
ssbsba(issf_api
Chunk
p5423
(dp5424
g4271
g3069
sg32
I2
sg4340
g3080
sg33
I6
sg4262
(lp5425
I149
aI150
aI151
asg38
(issf_api
FeatureSet
p5426
(dp5427
g12
(dp5428
S'name'
p5429
g5393
sS'drel'
p5430
S'r6:NP4'
p5431
ssbsba(issf_api
Chunk
p5432
(dp5433
g4271
g3128
sg32
I3
sg4340
g3133
sg33
I6
sg4262
(lp5434
I152
asg38
(issf_api
FeatureSet
p5435
(dp5436
g12
(dp5437
S'name'
p5438
g5376
sS'drel'
p5439
S'k2:VGF'
p5440
ssbsba(issf_api
Chunk
p5441
(dp5442
g4271
g3147
sg32
I4
sg4340
g3154
sg33
I6
sg4262
(lp5443
I153
asg38
(issf_api
FeatureSet
p5444
(dp5445
g12
(dp5446
S'name'
p5447
g5370
ssbsba(issf_api
Chunk
p5448
(dp5449
g4271
g3168
sg32
I5
sg4340
g3173
sg33
I6
sg4262
(lp5450
I154
asg38
(issf_api
FeatureSet
p5451
(dp5452
g12
(dp5453
S'name'
p5454
g5374
sS'drel'
p5455
S'rsym:VGF'
p5456
ssbsbasba(issf_api
Sentence
p5457
(dp5458
g4260
(lp5459
sg33
I7
sg4262
(lp5460
I155
aI156
aI157
aI158
aI159
aI160
aI161
aI162
aI163
aI164
aI165
aI166
aI167
aI168
aI169
aI170
aI171
aI172
aI173
aI174
aI175
aI176
aI177
aI178
aI179
aI180
aI181
aI182
aI183
aI184
aI185
aI186
aI187
aI188
aI189
aI190
aI191
aI192
asg4264
(dp5461
S'CCP'
p5462
(issf_api
Node
p5463
(dp5464
g4269
S'k2'
p5465
sg4271
g5462
sg4272
S'VGF'
p5466
sg4274
I-1
sg32
I3
sg4275
(lp5467
S'CCP3'
p5468
asbsS'NP9'
p5469
(issf_api
Node
p5470
(dp5471
g4269
S'k7'
p5472
sg4271
g5469
sg4272
S'VGF3'
p5473
sg4274
I-1
sg32
I17
sg4275
(lp5474
sbsS'NP8'
p5475
(issf_api
Node
p5476
(dp5477
g4269
S'ccof'
p5478
sg4271
g5475
sg4272
S'CCP4'
p5479
sg4274
I-1
sg32
I14
sg4275
(lp5480
sbsS'NP5'
p5481
(issf_api
Node
p5482
(dp5483
g4269
S'k1'
p5484
sg4271
g5481
sg4272
S'VGF3'
p5485
sg4274
I-1
sg32
I10
sg4275
(lp5486
sbsS'NP4'
p5487
(issf_api
Node
p5488
(dp5489
g4269
S'k7t'
p5490
sg4271
g5487
sg4272
S'VGF2'
p5491
sg4274
I-1
sg32
I6
sg4275
(lp5492
sbsS'CCP4'
p5493
(issf_api
Node
p5494
(dp5495
g4269
S'k1'
p5496
sg4271
g5493
sg4272
S'VGNN'
p5497
sg4274
I-1
sg32
I13
sg4275
(lp5498
g5475
aS'NP7'
p5499
asbsS'NP6'
p5500
(issf_api
Node
p5501
(dp5502
g4269
S'r6'
p5503
sg4271
g5500
sg4272
S'NP7'
p5504
sg4274
I-1
sg32
I11
sg4275
(lp5505
sbsS'CCP2'
p5506
(issf_api
Node
p5507
(dp5508
g4269
S'vmod'
p5509
sg4271
g5506
sg4272
S'VGF3'
p5510
sg4274
I-1
sg32
I4
sg4275
(lp5511
S'VGF2'
p5512
asbsg5499
(issf_api
Node
p5513
(dp5514
g4269
S'ccof'
p5515
sg4271
g5499
sg4272
S'CCP4'
p5516
sg4274
I-1
sg32
I12
sg4275
(lp5517
g5500
asbsS'NP3'
p5518
(issf_api
Node
p5519
(dp5520
g4269
S'k1'
p5521
sg4271
g5518
sg4272
S'VGF2'
p5522
sg4274
I-1
sg32
I5
sg4275
(lp5523
sbsS'NP2'
p5524
(issf_api
Node
p5525
(dp5526
g4269
S'k4'
p5527
sg4271
g5524
sg4272
S'VGF'
p5528
sg4274
I-1
sg32
I1
sg4275
(lp5529
sbsS'NP10'
p5530
(issf_api
Node
p5531
(dp5532
g4269
S'k4'
p5533
sg4271
g5530
sg4272
S'VGF3'
p5534
sg4274
I-1
sg32
I18
sg4275
(lp5535
sbsS'VGF3'
p5536
(issf_api
Node
p5537
(dp5538
g4269
S'ccof'
p5539
sg4271
g5536
sg4272
S'CCP3'
p5540
sg4274
I-1
sg32
I20
sg4275
(lp5541
g5469
ag5481
ag5506
ag5530
aS'VGNN'
p5542
aS'JJP3'
p5543
asbsg5512
(issf_api
Node
p5544
(dp5545
g4269
S'ccof'
p5546
sg4271
g5512
sg4272
S'CCP2'
p5547
sg4274
I-1
sg32
I8
sg4275
(lp5548
g5487
ag5518
aS'JJP'
p5549
asbsg5468
(issf_api
Node
p5550
(dp5551
g4269
S'ccof'
p5552
sg4271
g5468
sg4272
S'CCP'
p5553
sg4274
I-1
sg32
I9
sg4275
(lp5554
g5536
asbsS'NP'
p5555
(issf_api
Node
p5556
(dp5557
g4269
S'k1'
p5558
sg4271
g5555
sg4272
S'VGF'
p5559
sg4274
I-1
sg32
I0
sg4275
(lp5560
sbsg5542
(issf_api
Node
p5561
(dp5562
g4269
S'rt'
p5563
sg4271
g5542
sg4272
S'VGF3'
p5564
sg4274
I-1
sg32
I16
sg4275
(lp5565
g5493
aS'JJP2'
p5566
asbsS'VGF'
p5567
(issf_api
Node
p5568
(dp5569
g4269
g4282
sg4271
g5567
sg4272
g4282
sg4274
I-1
sg32
I2
sg4275
(lp5570
g5462
ag5524
ag5555
aS'BLK'
p5571
asbsg5571
(issf_api
Node
p5572
(dp5573
g4269
S'rsym'
p5574
sg4271
g5571
sg4272
S'VGF'
p5575
sg4274
I-1
sg32
I21
sg4275
(lp5576
sbsg5549
(issf_api
Node
p5577
(dp5578
g4269
S'pof'
p5579
sg4271
g5549
sg4272
S'VGF2'
p5580
sg4274
I-1
sg32
I7
sg4275
(lp5581
sbsg5566
(issf_api
Node
p5582
(dp5583
g4269
S'pof'
p5584
sg4271
g5566
sg4272
S'VGNN'
p5585
sg4274
I-1
sg32
I15
sg4275
(lp5586
sbsg5543
(issf_api
Node
p5587
(dp5588
g4269
S'pof'
p5589
sg4271
g5543
sg4272
S'VGF3'
p5590
sg4274
I-1
sg32
I19
sg4275
(lp5591
sbssg4336
(lp5592
(issf_api
Chunk
p5593
(dp5594
g4271
g3189
sg32
I0
sg4340
g3200
sg33
I7
sg4262
(lp5595
I155
aI156
asg38
(issf_api
FeatureSet
p5596
(dp5597
g12
(dp5598
S'name'
p5599
g5555
sS'drel'
p5600
S'k1:VGF'
p5601
ssbsba(issf_api
Chunk
p5602
(dp5603
g4271
g3252
sg32
I1
sg4340
g3261
sg33
I7
sg4262
(lp5604
I157
aI158
aI159
asg38
(issf_api
FeatureSet
p5605
(dp5606
g12
(dp5607
S'name'
p5608
g5524
sS'drel'
p5609
S'k4:VGF'
p5610
ssbsba(issf_api
Chunk
p5611
(dp5612
g4271
g3294
sg32
I2
sg4340
g3303
sg33
I7
sg4262
(lp5613
I160
asg38
(issf_api
FeatureSet
p5614
(dp5615
g12
(dp5616
S'name'
p5617
g5567
ssbsba(issf_api
Chunk
p5618
(dp5619
g4271
g3317
sg32
I3
sg4340
g3324
sg33
I7
sg4262
(lp5620
I161
asg38
(issf_api
FeatureSet
p5621
(dp5622
g12
(dp5623
S'name'
p5624
g5462
sS'drel'
p5625
S'k2:VGF'
p5626
ssbsba(issf_api
Chunk
p5627
(dp5628
g4271
g3338
sg32
I4
sg4340
g3345
sg33
I7
sg4262
(lp5629
I162
asg38
(issf_api
FeatureSet
p5630
(dp5631
g12
(dp5632
S'name'
p5633
g5506
sS'drel'
p5634
S'vmod:VGF3'
p5635
ssbsba(issf_api
Chunk
p5636
(dp5637
g4271
g3361
sg32
I5
sg4340
g3370
sg33
I7
sg4262
(lp5638
I163
asg38
(issf_api
FeatureSet
p5639
(dp5640
g12
(dp5641
S'name'
p5642
g5518
sS'drel'
p5643
S'k1:VGF2'
p5644
ssbsba(issf_api
Chunk
p5645
(dp5646
g4271
g3403
sg32
I6
sg4340
g3412
sg33
I7
sg4262
(lp5647
I164
aI165
aI166
asg38
(issf_api
FeatureSet
p5648
(dp5649
g12
(dp5650
S'name'
p5651
g5487
sS'drel'
p5652
S'k7t:VGF2'
p5653
ssbsba(issf_api
Chunk
p5654
(dp5655
g4271
g3445
sg32
I7
sg4340
g3452
sg33
I7
sg4262
(lp5656
I167
asg38
(issf_api
FeatureSet
p5657
(dp5658
g12
(dp5659
S'name'
p5660
g5549
sS'drel'
p5661
S'pof:VGF2'
p5662
ssbsba(issf_api
Chunk
p5663
(dp5664
g4271
g3485
sg32
I8
sg4340
g3498
sg33
I7
sg4262
(lp5665
I168
aI169
aI170
aI171
aI172
asg38
(issf_api
FeatureSet
p5666
(dp5667
g12
(dp5668
S'name'
p5669
g5512
sS'drel'
p5670
S'ccof:CCP2'
p5671
ssbsba(issf_api
Chunk
p5672
(dp5673
g4271
g3568
sg32
I9
sg4340
g3575
sg33
I7
sg4262
(lp5674
I173
asg38
(issf_api
FeatureSet
p5675
(dp5676
g12
(dp5677
S'name'
p5678
g5468
sS'drel'
p5679
S'ccof:CCP'
p5680
ssbsba(issf_api
Chunk
p5681
(dp5682
g4271
g3591
sg32
I10
sg4340
g3600
sg33
I7
sg4262
(lp5683
I174
asg38
(issf_api
FeatureSet
p5684
(dp5685
g12
(dp5686
S'name'
p5687
g5481
sS'drel'
p5688
S'k1:VGF3'
p5689
ssbsba(issf_api
Chunk
p5690
(dp5691
g4271
g3616
sg32
I11
sg4340
g3625
sg33
I7
sg4262
(lp5692
I175
asg38
(issf_api
FeatureSet
p5693
(dp5694
g12
(dp5695
S'name'
p5696
g5500
sS'drel'
p5697
S'r6:NP7'
p5698
ssbsba(issf_api
Chunk
p5699
(dp5700
g4271
g3639
sg32
I12
sg4340
g3646
sg33
I7
sg4262
(lp5701
I176
asg38
(issf_api
FeatureSet
p5702
(dp5703
g12
(dp5704
S'name'
p5705
g5499
sS'drel'
p5706
S'ccof:CCP4'
p5707
ssbsba(issf_api
Chunk
p5708
(dp5709
g4271
g3660
sg32
I13
sg4340
g3667
sg33
I7
sg4262
(lp5710
I177
asg38
(issf_api
FeatureSet
p5711
(dp5712
g12
(dp5713
S'name'
p5714
g5493
sS'drel'
p5715
S'k1:VGNN'
p5716
ssbsba(issf_api
Chunk
p5717
(dp5718
g4271
g3683
sg32
I14
sg4340
g3692
sg33
I7
sg4262
(lp5719
I178
asg38
(issf_api
FeatureSet
p5720
(dp5721
g12
(dp5722
S'name'
p5723
g5475
sS'drel'
p5724
S'ccof:CCP4'
p5725
ssbsba(issf_api
Chunk
p5726
(dp5727
g4271
g3706
sg32
I15
sg4340
g3713
sg33
I7
sg4262
(lp5728
I179
asg38
(issf_api
FeatureSet
p5729
(dp5730
g12
(dp5731
S'name'
p5732
g5566
sS'drel'
p5733
S'pof:VGNN'
p5734
ssbsba(issf_api
Chunk
p5735
(dp5736
g4271
g3727
sg32
I16
sg4340
g3736
sg33
I7
sg4262
(lp5737
I180
aI181
aI182
asg38
(issf_api
FeatureSet
p5738
(dp5739
g12
(dp5740
S'name'
p5741
g5542
sS'drel'
p5742
S'rt:VGF3'
p5743
ssbsba(issf_api
Chunk
p5744
(dp5745
g4271
g3807
sg32
I17
sg4340
g3816
sg33
I7
sg4262
(lp5746
I183
aI184
aI185
aI186
aI187
asg38
(issf_api
FeatureSet
p5747
(dp5748
g12
(dp5749
S'name'
p5750
g5469
sS'drel'
p5751
S'k7:VGF3'
p5752
ssbsba(issf_api
Chunk
p5753
(dp5754
g4271
g3889
sg32
I18
sg4340
g3900
sg33
I7
sg4262
(lp5755
I188
aI189
asg38
(issf_api
FeatureSet
p5756
(dp5757
g12
(dp5758
S'name'
p5759
g5530
sS'drel'
p5760
S'k4:VGF3'
p5761
ssbsba(issf_api
Chunk
p5762
(dp5763
g4271
g3933
sg32
I19
sg4340
g3940
sg33
I7
sg4262
(lp5764
I190
asg38
(issf_api
FeatureSet
p5765
(dp5766
g12
(dp5767
S'name'
p5768
g5543
sS'drel'
p5769
S'pof:VGF3'
p5770
ssbsba(issf_api
Chunk
p5771
(dp5772
g4271
g3956
sg32
I20
sg4340
g3969
sg33
I7
sg4262
(lp5773
I191
asg38
(issf_api
FeatureSet
p5774
(dp5775
g12
(dp5776
S'name'
p5777
g5536
sS'drel'
p5778
S'ccof:CCP3'
p5779
ssbsba(issf_api
Chunk
p5780
(dp5781
g4271
g3983
sg32
I21
sg4340
g3988
sg33
I7
sg4262
(lp5782
I192
asg38
(issf_api
FeatureSet
p5783
(dp5784
g12
(dp5785
S'name'
p5786
g5571
sS'drel'
p5787
S'rsym:VGF'
p5788
ssbsbasba(issf_api
Sentence
p5789
(dp5790
g4260
(lp5791
sg33
I8
sg4262
(lp5792
I193
aI194
aI195
aI196
aI197
aI198
aI199
aI200
aI201
aI202
aI203
aI204
aI205
asg4264
(dp5793
S'VGF'
p5794
(issf_api
Node
p5795
(dp5796
g4269
g4282
sg4271
g5794
sg4272
g4282
sg4274
I-1
sg32
I6
sg4275
(lp5797
S'JJP'
p5798
aS'NP5'
p5799
aS'BLK'
p5800
aS'NP'
p5801
aS'NP4'
p5802
aS'NP2'
p5803
asbsg5798
(issf_api
Node
p5804
(dp5805
g4269
S'pof'
p5806
sg4271
g5798
sg4272
S'VGF'
p5807
sg4274
I-1
sg32
I5
sg4275
(lp5808
sbsg5799
(issf_api
Node
p5809
(dp5810
g4269
S'k7t'
p5811
sg4271
g5799
sg4272
S'VGF'
p5812
sg4274
I-1
sg32
I4
sg4275
(lp5813
sbsg5800
(issf_api
Node
p5814
(dp5815
g4269
S'rsym'
p5816
sg4271
g5800
sg4272
S'VGF'
p5817
sg4274
I-1
sg32
I7
sg4275
(lp5818
sbsg5801
(issf_api
Node
p5819
(dp5820
g4269
S'k7t'
p5821
sg4271
g5801
sg4272
S'VGF'
p5822
sg4274
I-1
sg32
I0
sg4275
(lp5823
sbsg5802
(issf_api
Node
p5824
(dp5825
g4269
S'k2'
p5826
sg4271
g5802
sg4272
S'VGF'
p5827
sg4274
I-1
sg32
I3
sg4275
(lp5828
S'NP3'
p5829
asbsg5829
(issf_api
Node
p5830
(dp5831
g4269
S'r6'
p5832
sg4271
g5829
sg4272
S'NP4'
p5833
sg4274
I-1
sg32
I2
sg4275
(lp5834
sbsg5803
(issf_api
Node
p5835
(dp5836
g4269
S'k1'
p5837
sg4271
g5803
sg4272
S'VGF'
p5838
sg4274
I-1
sg32
I1
sg4275
(lp5839
sbssg4336
(lp5840
(issf_api
Chunk
p5841
(dp5842
g4271
g4004
sg32
I0
sg4340
g4015
sg33
I8
sg4262
(lp5843
I193
aI194
asg38
(issf_api
FeatureSet
p5844
(dp5845
g12
(dp5846
S'name'
p5847
g5801
sS'drel'
p5848
S'k7t:VGF'
p5849
ssbsba(issf_api
Chunk
p5850
(dp5851
g4271
g4048
sg32
I1
sg4340
g4059
sg33
I8
sg4262
(lp5852
I195
aI196
asg38
(issf_api
FeatureSet
p5853
(dp5854
g12
(dp5855
S'name'
p5856
g5803
sS'drel'
p5857
S'k1:VGF'
p5858
ssbsba(issf_api
Chunk
p5859
(dp5860
g4271
g4090
sg32
I2
sg4340
g4097
sg33
I8
sg4262
(lp5861
I197
aI198
asg38
(issf_api
FeatureSet
p5862
(dp5863
g12
(dp5864
S'name'
p5865
g5829
sS'drel'
p5866
S'r6:NP4'
p5867
ssbsba(issf_api
Chunk
p5868
(dp5869
g4271
g4128
sg32
I3
sg4340
g4133
sg33
I8
sg4262
(lp5870
I199
asg38
(issf_api
FeatureSet
p5871
(dp5872
g12
(dp5873
S'name'
p5874
g5802
sS'drel'
p5875
S'k2:VGF'
p5876
ssbsba(issf_api
Chunk
p5877
(dp5878
g4271
g4149
sg32
I4
sg4340
g4160
sg33
I8
sg4262
(lp5879
I200
aI201
asg38
(issf_api
FeatureSet
p5880
(dp5881
g12
(dp5882
S'name'
p5883
g5799
sS'drel'
p5884
S'k7t:VGF'
p5885
ssbsba(issf_api
Chunk
p5886
(dp5887
g4271
g4191
sg32
I5
sg4340
g4196
sg33
I8
sg4262
(lp5888
I202
asg38
(issf_api
FeatureSet
p5889
(dp5890
g12
(dp5891
S'name'
p5892
g5798
sS'drel'
p5893
S'pof:VGF'
p5894
ssbsba(issf_api
Chunk
p5895
(dp5896
g4271
g4210
sg32
I6
sg4340
g4219
sg33
I8
sg4262
(lp5897
I203
aI204
asg38
(issf_api
FeatureSet
p5898
(dp5899
g12
(dp5900
S'name'
p5901
g5794
ssbsba(issf_api
Chunk
p5902
(dp5903
g4271
g4250
sg32
I7
sg4340
g4255
sg33
I8
sg4262
(lp5904
I205
asg38
(issf_api
FeatureSet
p5905
(dp5906
g12
(dp5907
S'name'
p5908
g5800
sS'drel'
p5909
S'rsym:VGF'
p5910
ssbsbasbasb.