(issf_api
SSFInfo
p0
(dp1
S'globalWordList'
p2
(lp3
(issf_api
Word
p4
(dp5
S'splitConn'
p6
I00
sS'word'
p7
V\u0917\u0941\u091c\u0930\u093e\u0924
p8
sS'extraFeatureSet'
p9
(issf_api
FeatureSet
p10
(dp11
S'featureDict'
p12
(dp13
S'crefhead'
p14
S'\xe0\xa4\x97\xe0\xa5\x81\xe0\xa4\x9c\xe0\xa4\xb0\xe0\xa4\xbe\xe0\xa4\xa4:i1'
p15
sS'posn'
p16
S'10'
p17
sS'name'
p18
S'\xe0\xa4\x97\xe0\xa5\x81\xe0\xa4\x9c\xe0\xa4\xb0\xe0\xa4\xbe\xe0\xa4\xa4'
p19
sS'af'
p20
S'\xe0\xa4\x97\xe0\xa5\x81\xe0\xa4\x9c\xe0\xa4\xb0\xe0\xa4\xbe\xe0\xa4\xa4,n,m,sg,3,o,0_\xe0\xa4\x95\xe0\xa4\xbe,0'
p21
sS'acrefmodhead'
p22
S'\xe0\xa4\x97\xe0\xa5\x81\xe0\xa4\x9c\xe0\xa4\xb0\xe0\xa4\xbe\xe0\xa4\xa4:m1'
p23
sS'chunkid'
p24
S'NP'
p25
sS'acrefmod'
p26
S'm1%1:i2'
p27
sS'chunktype'
p28
S'head:NP'
p29
sS'crefchainhead'
p30
S'i1:t1'
p31
sS'vpos'
p32
S'vib_2'
p33
sS'cref'
p34
S'i1%1:t1'
p35
sS'drel'
p36
S'r6:NP2'
p37
ssbsS'arg1'
p38
I00
sS'arg2'
p39
I00
sS'sense'
p40
NsS'arg1Span'
p41
NsS'chunkNum'
p42
I0
sS'sentenceNum'
p43
I0
sS'relationNum'
p44
NsS'arg2Span'
p45
NsS'wordTag'
p46
S'NNP'
p47
sS'featureSet'
p48
g10
sS'conn'
p49
I00
sba(issf_api
Word
p50
(dp51
g6
I00
sg7
V\u0915\u0947
p52
sg9
(issf_api
FeatureSet
p53
(dp54
g12
(dp55
S'posn'
p56
S'20'
p57
sS'name'
p58
S'\xe0\xa4\x95\xe0\xa5\x87'
p59
sS'drel'
p60
S'lwg__psp:NP'
p61
sS'chunktype'
p62
S'child:NP'
p63
sS'af'
p64
S'\xe0\xa4\x95\xe0\xa4\xbe,psp,m,sg,,o,,'
p65
ssbsg38
I00
sg39
I00
sg40
Nsg41
Nsg42
I0
sg43
I0
sg44
Nsg45
Nsg46
S'PSP'
p66
sg48
g53
sg49
I00
sba(issf_api
Word
p67
(dp68
g6
I00
sg7
V\u092e\u0941\u0916\u094d\u092f\u092e\u0902\u0924\u094d\u0930\u0940
p69
sg9
(issf_api
FeatureSet
p70
(dp71
g12
(dp72
S'crefhead'
p73
S'\xe0\xa4\xae\xe0\xa5\x81\xe0\xa4\x96\xe0\xa5\x8d\xe0\xa4\xaf\xe0\xa4\xae\xe0\xa4\x82\xe0\xa4\xa4\xe0\xa5\x8d\xe0\xa4\xb0\xe0\xa5\x80:i2'
p74
sS'posn'
p75
S'30'
p76
sS'name'
p77
S'\xe0\xa4\xae\xe0\xa5\x81\xe0\xa4\x96\xe0\xa5\x8d\xe0\xa4\xaf\xe0\xa4\xae\xe0\xa4\x82\xe0\xa4\xa4\xe0\xa5\x8d\xe0\xa4\xb0\xe0\xa5\x80'
p78
sS'af'
p79
S'\xe0\xa4\xae\xe0\xa5\x81\xe0\xa4\x96\xe0\xa5\x8d\xe0\xa4\xaf\xe0\xa4\xae\xe0\xa4\x82\xe0\xa4\xa4\xe0\xa5\x8d\xe0\xa4\xb0\xe0\xa5\x80,n,m,sg,3,o,0,0'
p80
sS'chunkid'
p81
S'NP2'
p82
sS'crefmod'
p83
S'm1:i2'
p84
sS'chunktype'
p85
S'head:NP2'
p86
sS'cref'
p87
S'i2%1:t2'
p88
sS'drel'
p89
S'nmod:NP3'
p90
ssbsg38
I00
sg39
I00
sg40
Nsg41
Nsg42
I1
sg43
I0
sg44
Nsg45
Nsg46
S'NNP'
p91
sg48
g70
sg49
I00
sba(issf_api
Word
p92
(dp93
g6
I00
sg7
V\u0928\u0930\u0947\u0902\u0926\u094d\u0930
p94
sg9
(issf_api
FeatureSet
p95
(dp96
g12
(dp97
S'posn'
p98
S'40'
p99
sS'name'
p100
S'\xe0\xa4\xa8\xe0\xa4\xb0\xe0\xa5\x87\xe0\xa4\x82\xe0\xa4\xa6\xe0\xa5\x8d\xe0\xa4\xb0'
p101
sS'af'
p102
S'\xe0\xa4\xa8\xe0\xa4\xb0\xe0\xa5\x87\xe0\xa4\x82\xe0\xa4\xa6\xe0\xa5\x8d\xe0\xa4\xb0,n,m,sg,3,d,0,0'
p103
sS'drel'
p104
S'pof__cn:NP3'
p105
sS'chunktype'
p106
S'child:NP3'
p107
sS'cref'
p108
S'i3%0:t2'
p109
ssbsg38
I00
sg39
I00
sg40
Nsg41
Nsg42
I2
sg43
I0
sg44
Nsg45
Nsg46
S'NNPC'
p110
sg48
g95
sg49
I00
sba(issf_api
Word
p111
(dp112
g6
I00
sg7
V\u092e\u094b\u0926\u0940
p113
sg9
(issf_api
FeatureSet
p114
(dp115
g12
(dp116
S'crefhead'
p117
S'\xe0\xa4\xae\xe0\xa5\x8b\xe0\xa4\xa6\xe0\xa5\x80:i3'
p118
sS'posn'
p119
S'50'
p120
sS'name'
p121
S'\xe0\xa4\xae\xe0\xa5\x8b\xe0\xa4\xa6\xe0\xa5\x80'
p122
sS'af'
p123
S'\xe0\xa4\xae\xe0\xa5\x8b\xe0\xa4\xa6\xe0\xa5\x80,n,m,sg,3,o,0_\xe0\xa4\xa8\xe0\xa5\x87,0'
p124
sS'chunkid'
p125
S'NP3'
p126
sS'creftype'
p127
S'Coreference-NounComplement:i2'
p128
sS'chunktype'
p129
S'head:NP3'
p130
sS'crefchainhead'
p131
S'i3:t2'
p132
sS'vpos'
p133
S'vib_3'
p134
sS'cref'
p135
S'i3%1:t2'
p136
sS'drel'
p137
S'k1:VGF'
p138
ssbsg38
I00
sg39
I00
sg40
Nsg41
Nsg42
I2
sg43
I0
sg44
Nsg45
Nsg46
S'NNP'
p139
sg48
g114
sg49
I00
sba(issf_api
Word
p140
(dp141
g6
I00
sg7
V\u0928\u0947
p142
sg9
(issf_api
FeatureSet
p143
(dp144
g12
(dp145
S'posn'
p146
S'60'
p147
sS'name'
p148
S'\xe0\xa4\xa8\xe0\xa5\x87'
p149
sS'drel'
p150
S'lwg__psp:NP3'
p151
sS'chunktype'
p152
S'child:NP3'
p153
sS'af'
p154
S'\xe0\xa4\xa8\xe0\xa5\x87,psp,,,,,,'
p155
ssbsg38
I00
sg39
I00
sg40
Nsg41
Nsg42
I2
sg43
I0
sg44
Nsg45
Nsg46
S'PSP'
p156
sg48
g143
sg49
I00
sba(issf_api
Word
p157
(dp158
g6
I00
sg7
V\u092e\u0902\u0917\u0932\u0935\u093e\u0930
p159
sg9
(issf_api
FeatureSet
p160
(dp161
g12
(dp162
S'posn'
p163
S'70'
p164
sS'name'
p165
S'\xe0\xa4\xae\xe0\xa4\x82\xe0\xa4\x97\xe0\xa4\xb2\xe0\xa4\xb5\xe0\xa4\xbe\xe0\xa4\xb0'
p166
sS'af'
p167
S'\xe0\xa4\xae\xe0\xa4\x82\xe0\xa4\x97\xe0\xa4\xb2\xe0\xa4\xb5\xe0\xa4\xbe\xe0\xa4\xb0,n,m,sg,3,o,0_\xe0\xa4\x95\xe0\xa5\x8b,0'
p168
sS'chunkid'
p169
S'NP4'
p170
sS'drel'
p171
S'k7t:VGF'
p172
sS'vpos'
p173
S'vib_2'
p174
sS'chunktype'
p175
S'head:NP4'
p176
ssbsg38
I00
sg39
I00
sg40
Nsg41
Nsg42
I3
sg43
I0
sg44
Nsg45
Nsg46
S'NNP'
p177
sg48
g160
sg49
I00
sba(issf_api
Word
p178
(dp179
g6
I00
sg7
V\u0915\u094b
p180
sg9
(issf_api
FeatureSet
p181
(dp182
g12
(dp183
S'posn'
p184
S'80'
p185
sS'name'
p186
S'\xe0\xa4\x95\xe0\xa5\x8b'
p187
sS'drel'
p188
S'lwg__psp:NP4'
p189
sS'chunktype'
p190
S'child:NP4'
p191
sS'af'
p192
S'\xe0\xa4\x95\xe0\xa5\x8b,psp,,,,,,'
p193
ssbsg38
I00
sg39
I00
sg40
Nsg41
Nsg42
I3
sg43
I0
sg44
Nsg45
Nsg46
S'PSP'
p194
sg48
g181
sg49
I00
sba(issf_api
Word
p195
(dp196
g6
I00
sg7
V\u0917\u0943\u0939
p197
sg9
(issf_api
FeatureSet
p198
(dp199
g12
(dp200
S'posn'
p201
S'90'
p202
sS'name'
p203
S'\xe0\xa4\x97\xe0\xa5\x83\xe0\xa4\xb9'
p204
sS'af'
p205
S'\xe0\xa4\x97\xe0\xa5\x83\xe0\xa4\xb9,n,m,sg,3,d,0,0'
p206
sS'drel'
p207
S'pof__cn:NP5'
p208
sS'chunktype'
p209
S'child:NP5'
p210
sS'cref'
p211
S'i4%0:t3'
p212
ssbsg38
I00
sg39
I00
sg40
Nsg41
Nsg42
I4
sg43
I0
sg44
Nsg45
Nsg46
S'NNPC'
p213
sg48
g198
sg49
I00
sba(issf_api
Word
p214
(dp215
g6
I00
sg7
V\u092e\u0902\u0924\u094d\u0930\u0940
p216
sg9
(issf_api
FeatureSet
p217
(dp218
g12
(dp219
S'crefhead'
p220
S'\xe0\xa4\xae\xe0\xa4\x82\xe0\xa4\xa4\xe0\xa5\x8d\xe0\xa4\xb0\xe0\xa5\x80:i4'
p221
sS'posn'
p222
S'100'
p223
sS'name'
p224
S'\xe0\xa4\xae\xe0\xa4\x82\xe0\xa4\xa4\xe0\xa5\x8d\xe0\xa4\xb0\xe0\xa5\x80'
p225
sS'af'
p226
S'\xe0\xa4\xae\xe0\xa4\x82\xe0\xa4\xa4\xe0\xa5\x8d\xe0\xa4\xb0\xe0\xa5\x80,n,m,sg,3,d,0,0'
p227
sS'drel'
p228
S'nmod__adj:NP5'
p229
sS'chunktype'
p230
S'child:NP5'
p231
sS'cref'
p232
S'i4%1:t3'
p233
ssbsg38
I00
sg39
I00
sg40
Nsg41
Nsg42
I4
sg43
I0
sg44
Nsg45
Nsg46
S'NNP'
p234
sg48
g217
sg49
I00
sba(issf_api
Word
p235
(dp236
g6
I00
sg7
V\u0936\u093f\u0935\u0930\u093e\u091c
p237
sg9
(issf_api
FeatureSet
p238
(dp239
g12
(dp240
S'posn'
p241
S'110'
p242
sS'name'
p243
S'\xe0\xa4\xb6\xe0\xa4\xbf\xe0\xa4\xb5\xe0\xa4\xb0\xe0\xa4\xbe\xe0\xa4\x9c'
p244
sS'af'
p245
S'\xe0\xa4\xb6\xe0\xa4\xbf\xe0\xa4\xb5\xe0\xa4\xb0\xe0\xa4\xbe\xe0\xa4\x9c,n,m,sg,3,d,0,0'
p246
sS'drel'
p247
S'pof__cn:NP5'
p248
sS'chunktype'
p249
S'child:NP5'
p250
sS'cref'
p251
S'i5%0:t3'
p252
ssbsg38
I00
sg39
I00
sg40
Nsg41
Nsg42
I4
sg43
I0
sg44
Nsg45
Nsg46
S'NNPC'
p253
sg48
g238
sg49
I00
sba(issf_api
Word
p254
(dp255
g6
I00
sg7
V\u092a\u093e\u091f\u093f\u0932
p256
sg9
(issf_api
FeatureSet
p257
(dp258
g12
(dp259
S'crefhead'
p260
S'\xe0\xa4\xaa\xe0\xa4\xbe\xe0\xa4\x9f\xe0\xa4\xbf\xe0\xa4\xb2:i5'
p261
sS'posn'
p262
S'120'
p263
sS'name'
p264
S'\xe0\xa4\xaa\xe0\xa4\xbe\xe0\xa4\x9f\xe0\xa4\xbf\xe0\xa4\xb2'
p265
sS'af'
p266
S'\xe0\xa4\xaa\xe0\xa4\xbe\xe0\xa4\x9f\xe0\xa4\xbf\xe0\xa4\xb2,n,m,sg,3,o,0_\xe0\xa4\xb8\xe0\xa5\x87,0'
p267
sS'chunkid'
p268
S'NP5'
p269
sS'creftype'
p270
S'Coreference-NounComplement:i4'
p271
sS'chunktype'
p272
S'head:NP5'
p273
sS'crefchainhead'
p274
S'i5:t3'
p275
sS'vpos'
p276
S'vib_vib_5'
p277
sS'cref'
p278
S'i5%1:t3'
p279
sS'drel'
p280
S'k4:VGF'
p281
ssbsg38
I00
sg39
I00
sg40
Nsg41
Nsg42
I4
sg43
I0
sg44
Nsg45
Nsg46
S'NNP'
p282
sg48
g257
sg49
I00
sba(issf_api
Word
p283
(dp284
g6
I00
sg7
V\u0938\u0947
p285
sg9
(issf_api
FeatureSet
p286
(dp287
g12
(dp288
S'posn'
p289
S'130'
p290
sS'name'
p291
S'\xe0\xa4\xb8\xe0\xa5\x87'
p292
sS'drel'
p293
S'lwg__psp:NP5'
p294
sS'chunktype'
p295
S'child:NP5'
p296
sS'af'
p297
S'\xe0\xa4\xb8\xe0\xa5\x87,psp,,,,,,'
p298
ssbsg38
I00
sg39
I00
sg40
Nsg41
Nsg42
I4
sg43
I0
sg44
Nsg45
Nsg46
S'PSP'
p299
sg48
g286
sg49
I00
sba(issf_api
Word
p300
(dp301
g6
I00
sg7
V\u092e\u0941\u0932\u093e\u0915\u093e\u0924
p302
sg9
(issf_api
FeatureSet
p303
(dp304
g12
(dp305
S'crefhead'
p306
S'\xe0\xa4\xae\xe0\xa5\x81\xe0\xa4\xb2\xe0\xa4\xbe\xe0\xa4\x95\xe0\xa4\xbe\xe0\xa4\xa4:i6'
p307
sS'posn'
p308
S'140'
p309
sS'name'
p310
S'\xe0\xa4\xae\xe0\xa5\x81\xe0\xa4\xb2\xe0\xa4\xbe\xe0\xa4\x95\xe0\xa4\xbe\xe0\xa4\xa4'
p311
sS'af'
p312
S'\xe0\xa4\xae\xe0\xa5\x81\xe0\xa4\xb2\xe0\xa4\xbe\xe0\xa4\x95\xe0\xa4\xbe\xe0\xa4\xa4,n,f,sg,3,d,0,0'
p313
sS'chunkid'
p314
S'NP6'
p315
sS'chunktype'
p316
S'head:NP6'
p317
sS'crefchainhead'
p318
S'i6:t4'
p319
sS'cref'
p320
S'i6%1:t4'
p321
sS'drel'
p322
S'pof:VGNF'
p323
ssbsg38
I00
sg39
I00
sg40
Nsg41
Nsg42
I5
sg43
I0
sg44
Nsg45
Nsg46
S'NN'
p324
sg48
g303
sg49
I00
sba(issf_api
Word
p325
(dp326
g6
I00
sg7
V\u0915\u0930
p327
sg9
(issf_api
FeatureSet
p328
(dp329
g12
(dp330
S'posn'
p331
S'150'
p332
sS'name'
p333
S'\xe0\xa4\x95\xe0\xa4\xb0'
p334
sS'af'
p335
S'\xe0\xa4\x95\xe0\xa4\xb0,v,any,any,any,,0,0'
p336
sS'chunkid'
p337
S'VGNF'
p338
sS'drel'
p339
S'vmod:VGF'
p340
sS'chunktype'
p341
S'head:VGNF'
p342
ssbsg38
I00
sg39
I00
sg40
Nsg41
Nsg42
I6
sg43
I0
sg44
Nsg45
Nsg46
S'VM'
p343
sg48
g328
sg49
I00
sba(issf_api
Word
p344
(dp345
g6
I00
sg7
V\u0906\u0908\u090f\u090f\u0938
p346
sg9
(issf_api
FeatureSet
p347
(dp348
g12
(dp349
S'crefhead'
p350
S'\xe0\xa4\x86\xe0\xa4\x88\xe0\xa4\x8f\xe0\xa4\x8f\xe0\xa4\xb8:i7'
p351
sS'posn'
p352
S'160'
p353
sS'name'
p354
S'\xe0\xa4\x86\xe0\xa4\x88\xe0\xa4\x8f\xe0\xa4\x8f\xe0\xa4\xb8'
p355
sS'af'
p356
S'\xe0\xa4\x86\xe0\xa4\x88\xe0\xa4\x8f\xe0\xa4\x8f\xe0\xa4\xb8,n,m,sg,3,o,0,0'
p357
sS'chunkid'
p358
S'NP7'
p359
sS'chunktype'
p360
S'head:NP7'
p361
sS'crefchainhead'
p362
S'i7:t5'
p363
sS'cref'
p364
S'i7%1:t5'
p365
sS'drel'
p366
S'ccof:CCP'
p367
ssbsg38
I00
sg39
I00
sg40
Nsg41
Nsg42
I7
sg43
I0
sg44
Nsg45
Nsg46
S'NNP'
p368
sg48
g347
sg49
I00
sba(issf_api
Word
p369
(dp370
g6
I00
sg7
V\u0914\u0930
p371
sg9
(issf_api
FeatureSet
p372
(dp373
g12
(dp374
S'posn'
p375
S'170'
p376
sS'name'
p377
S'\xe0\xa4\x94\xe0\xa4\xb0'
p378
sS'af'
p379
S'\xe0\xa4\x94\xe0\xa4\xb0,avy,,,,,,'
p380
sS'chunkid'
p381
S'CCP'
p382
sS'drel'
p383
S'r6:NP9'
p384
sS'chunktype'
p385
S'head:CCP'
p386
ssbsg38
I00
sg39
I00
sg40
Nsg41
Nsg42
I8
sg43
I0
sg44
Nsg45
Nsg46
S'CC'
p387
sg48
g372
sg49
I00
sba(issf_api
Word
p388
(dp389
g6
I00
sg7
V\u0906\u0908\u092a\u0940\u090f\u0938
p390
sg9
(issf_api
FeatureSet
p391
(dp392
g12
(dp393
S'crefhead'
p394
S'\xe0\xa4\x86\xe0\xa4\x88\xe0\xa4\xaa\xe0\xa5\x80\xe0\xa4\x8f\xe0\xa4\xb8:i8'
p395
sS'posn'
p396
S'180'
p397
sS'name'
p398
S'\xe0\xa4\x86\xe0\xa4\x88\xe0\xa4\xaa\xe0\xa5\x80\xe0\xa4\x8f\xe0\xa4\xb8'
p399
sS'af'
p400
S'\xe0\xa4\x86\xe0\xa4\x88\xe0\xa4\xaa\xe0\xa5\x80\xe0\xa4\x8f\xe0\xa4\xb8,n,m,sg,3,o,0_\xe0\xa4\x95\xe0\xa4\xbe,0'
p401
sS'chunkid'
p402
S'NP8'
p403
sS'chunktype'
p404
S'head:NP8'
p405
sS'crefchainhead'
p406
S'i8:t6'
p407
sS'vpos'
p408
S'vib_2'
p409
sS'cref'
p410
S'i8%1:t6'
p411
sS'drel'
p412
S'ccof:CCP'
p413
ssbsg38
I00
sg39
I00
sg40
Nsg41
Nsg42
I9
sg43
I0
sg44
Nsg45
Nsg46
S'NNP'
p414
sg48
g391
sg49
I00
sba(issf_api
Word
p415
(dp416
g6
I00
sg7
V\u0915\u0940
p417
sg9
(issf_api
FeatureSet
p418
(dp419
g12
(dp420
S'posn'
p421
S'190'
p422
sS'name'
p423
S'\xe0\xa4\x95\xe0\xa5\x80'
p424
sS'drel'
p425
S'lwg__psp:NP8'
p426
sS'chunktype'
p427
S'child:NP8'
p428
sS'af'
p429
S'\xe0\xa4\x95\xe0\xa4\xbe,psp,f,sg,,o,,'
p430
ssbsg38
I00
sg39
I00
sg40
Nsg41
Nsg42
I9
sg43
I0
sg44
Nsg45
Nsg46
S'PSP'
p431
sg48
g418
sg49
I00
sba(issf_api
Word
p432
(dp433
g6
I00
sg7
V\u0924\u0930\u094d\u091c
p434
sg9
(issf_api
FeatureSet
p435
(dp436
g12
(dp437
S'posn'
p438
S'200'
p439
sS'name'
p440
S'\xe0\xa4\xa4\xe0\xa4\xb0\xe0\xa5\x8d\xe0\xa4\x9c'
p441
sS'af'
p442
S'\xe0\xa4\xa4\xe0\xa4\xb0\xe0\xa5\x8d\xe0\xa4\x9c,n,f,sg,3,o,0_\xe0\xa4\xaa\xe0\xa4\xb0,0'
p443
sS'chunkid'
p444
S'NP9'
p445
sS'drel'
p446
S'k7:VGF'
p447
sS'vpos'
p448
S'vib_2'
p449
sS'chunktype'
p450
S'head:NP9'
p451
ssbsg38
I00
sg39
I00
sg40
Nsg41
Nsg42
I10
sg43
I0
sg44
Nsg45
Nsg46
S'NN'
p452
sg48
g435
sg49
I00
sba(issf_api
Word
p453
(dp454
g6
I00
sg7
V\u092a\u0930
p455
sg9
(issf_api
FeatureSet
p456
(dp457
g12
(dp458
S'posn'
p459
S'210'
p460
sS'name'
p461
S'\xe0\xa4\xaa\xe0\xa4\xb0'
p462
sS'drel'
p463
S'lwg__psp:NP9'
p464
sS'chunktype'
p465
S'child:NP9'
p466
sS'af'
p467
S'\xe0\xa4\xaa\xe0\xa4\xb0,psp,,,,,,'
p468
ssbsg38
I00
sg39
I00
sg40
Nsg41
Nsg42
I10
sg43
I0
sg44
Nsg45
Nsg46
S'PSP'
p469
sg48
g456
sg49
I00
sba(issf_api
Word
p470
(dp471
g6
I00
sg7
V\u0930\u093e\u0937\u094d\u091f\u094d\u0930\u0940\u092f
p472
sg9
(issf_api
FeatureSet
p473
(dp474
g12
(dp475
S'posn'
p476
S'220'
p477
sS'name'
p478
S'\xe0\xa4\xb0\xe0\xa4\xbe\xe0\xa4\xb7\xe0\xa5\x8d\xe0\xa4\x9f\xe0\xa5\x8d\xe0\xa4\xb0\xe0\xa5\x80\xe0\xa4\xaf'
p479
sS'drel'
p480
S'nmod__adj:NP10'
p481
sS'chunktype'
p482
S'child:NP10'
p483
sS'af'
p484
S'\xe0\xa4\xb0\xe0\xa4\xbe\xe0\xa4\xb7\xe0\xa5\x8d\xe0\xa4\x9f\xe0\xa5\x8d\xe0\xa4\xb0\xe0\xa5\x80\xe0\xa4\xaf,adj,any,any,,o,,'
p485
ssbsg38
I00
sg39
I00
sg40
Nsg41
Nsg42
I11
sg43
I0
sg44
Nsg45
Nsg46
S'JJ'
p486
sg48
g473
sg49
I00
sba(issf_api
Word
p487
(dp488
g6
I00
sg7
V\u0938\u094d\u0924\u0930
p489
sg9
(issf_api
FeatureSet
p490
(dp491
g12
(dp492
S'posn'
p493
S'230'
p494
sS'name'
p495
S'\xe0\xa4\xb8\xe0\xa5\x8d\xe0\xa4\xa4\xe0\xa4\xb0'
p496
sS'af'
p497
S'\xe0\xa4\xb8\xe0\xa5\x8d\xe0\xa4\xa4\xe0\xa4\xb0,n,m,sg,3,o,0_\xe0\xa4\xaa\xe0\xa4\xb0,0'
p498
sS'chunkid'
p499
S'NP10'
p500
sS'drel'
p501
S'k7:VGF'
p502
sS'vpos'
p503
S'vib_3'
p504
sS'chunktype'
p505
S'head:NP10'
p506
ssbsg38
I00
sg39
I00
sg40
Nsg41
Nsg42
I11
sg43
I0
sg44
Nsg45
Nsg46
S'NN'
p507
sg48
g490
sg49
I00
sba(issf_api
Word
p508
(dp509
g6
I00
sg7
V\u092a\u0930
p510
sg9
(issf_api
FeatureSet
p511
(dp512
g12
(dp513
S'posn'
p514
S'240'
p515
sS'name'
p516
S'\xe0\xa4\xaa\xe0\xa4\xb02'
p517
sS'drel'
p518
S'lwg__psp:NP10'
p519
sS'chunktype'
p520
S'child:NP10'
p521
sS'af'
p522
S'\xe0\xa4\xaa\xe0\xa4\xb0,psp,,,,,,'
p523
ssbsg38
I00
sg39
I00
sg40
Nsg41
Nsg42
I11
sg43
I0
sg44
Nsg45
Nsg46
S'PSP'
p524
sg48
g511
sg49
I00
sba(issf_api
Word
p525
(dp526
g6
I00
sg7
V\u090f\u0915
p527
sg9
(issf_api
FeatureSet
p528
(dp529
g12
(dp530
S'posn'
p531
S'250'
p532
sS'name'
p533
S'\xe0\xa4\x8f\xe0\xa4\x95'
p534
sS'af'
p535
S'\xe0\xa4\x8f\xe0\xa4\x95,num,any,any,,any,,'
p536
sS'drel'
p537
S'nmod__adj:NP11'
p538
sS'chunktype'
p539
S'child:NP11'
p540
sS'cref'
p541
S'i9%0:t7'
p542
ssbsg38
I00
sg39
I00
sg40
Nsg41
Nsg42
I12
sg43
I0
sg44
Nsg45
Nsg46
S'QC'
p543
sg48
g528
sg49
I00
sba(issf_api
Word
p544
(dp545
g6
I00
sg7
V\u0916\u0941\u092b\u093f\u092f\u093e
p546
sg9
(issf_api
FeatureSet
p547
(dp548
g12
(dp549
S'posn'
p550
S'260'
p551
sS'name'
p552
S'\xe0\xa4\x96\xe0\xa5\x81\xe0\xa4\xab\xe0\xa4\xbf\xe0\xa4\xaf\xe0\xa4\xbe'
p553
sS'af'
p554
S'\xe0\xa4\x96\xe0\xa5\x81\xe0\xa4\xab\xe0\xa4\xbf\xe0\xa4\xaf\xe0\xa4\xbe,adj,any,any,,d,,'
p555
sS'drel'
p556
S'nmod__adj:NP11'
p557
sS'chunktype'
p558
S'child:NP11'
p559
sS'cref'
p560
S'i9%0:t7'
p561
ssbsg38
I00
sg39
I00
sg40
Nsg41
Nsg42
I12
sg43
I0
sg44
Nsg45
Nsg46
S'JJ'
p562
sg48
g547
sg49
I00
sba(issf_api
Word
p563
(dp564
g6
I00
sg7
V\u0938\u0947\u0935\u093e
p565
sg9
(issf_api
FeatureSet
p566
(dp567
g12
(dp568
S'crefhead'
p569
S'\xe0\xa4\xb8\xe0\xa5\x87\xe0\xa4\xb5\xe0\xa4\xbe:i9'
p570
sS'posn'
p571
S'270'
p572
sS'name'
p573
S'\xe0\xa4\xb8\xe0\xa5\x87\xe0\xa4\xb5\xe0\xa4\xbe'
p574
sS'af'
p575
S'\xe0\xa4\xb8\xe0\xa5\x87\xe0\xa4\xb5\xe0\xa4\xbe,n,f,sg,3,d,0,0'
p576
sS'chunkid'
p577
S'NP11'
p578
sS'chunktype'
p579
S'head:NP11'
p580
sS'crefchainhead'
p581
S'i9:t7'
p582
sS'cref'
p583
S'i9%1:t7'
p584
sS'drel'
p585
S'k2:VGNN'
p586
ssbsg38
I00
sg39
I00
sg40
Nsg41
Nsg42
I12
sg43
I0
sg44
Nsg45
Nsg46
S'NN'
p587
sg48
g566
sg49
I00
sba(issf_api
Word
p588
(dp589
g6
I00
sg7
V\u0936\u0941\u0930\u0942
p590
sg9
(issf_api
FeatureSet
p591
(dp592
g12
(dp593
S'posn'
p594
S'280'
p595
sS'name'
p596
S'\xe0\xa4\xb6\xe0\xa5\x81\xe0\xa4\xb0\xe0\xa5\x82'
p597
sS'af'
p598
S'\xe0\xa4\xb6\xe0\xa5\x81\xe0\xa4\xb0\xe0\xa5\x82,n,m,sg,3,d,0,0'
p599
sS'chunkid'
p600
S'NP12'
p601
sS'drel'
p602
S'pof:VGNN'
p603
sS'chunktype'
p604
S'head:NP12'
p605
ssbsg38
I00
sg39
I00
sg40
Nsg41
Nsg42
I13
sg43
I0
sg44
Nsg45
Nsg46
S'NN'
p606
sg48
g591
sg49
I00
sba(issf_api
Word
p607
(dp608
g6
I00
sg7
V\u0915\u0930\u0928\u0947
p609
sg9
(issf_api
FeatureSet
p610
(dp611
g12
(dp612
S'posn'
p613
S'290'
p614
sS'name'
p615
S'\xe0\xa4\x95\xe0\xa4\xb0\xe0\xa4\xa8\xe0\xa5\x87'
p616
sS'af'
p617
S'\xe0\xa4\x95\xe0\xa4\xb0,v,any,sg,any,o,\xe0\xa4\xa8\xe0\xa4\xbe_\xe0\xa4\x95\xe0\xa4\xbe,nA'
p618
sS'chunkid'
p619
S'VGNN'
p620
sS'drel'
p621
S'r6-k2:NP13'
p622
sS'vpos'
p623
S'tam_2'
p624
sS'chunktype'
p625
S'head:VGNN'
p626
ssbsg38
I00
sg39
I00
sg40
Nsg41
Nsg42
I14
sg43
I0
sg44
Nsg45
Nsg46
S'VM'
p627
sg48
g610
sg49
I00
sba(issf_api
Word
p628
(dp629
g6
I00
sg7
V\u0915\u093e
p630
sg9
(issf_api
FeatureSet
p631
(dp632
g12
(dp633
S'posn'
p634
S'300'
p635
sS'name'
p636
S'\xe0\xa4\x95\xe0\xa4\xbe'
p637
sS'drel'
p638
S'lwg__psp:VGNN'
p639
sS'chunktype'
p640
S'child:VGNN'
p641
sS'af'
p642
S'\xe0\xa4\x95\xe0\xa4\xbe,psp,m,sg,,d,,'
p643
ssbsg38
I00
sg39
I00
sg40
Nsg41
Nsg42
I14
sg43
I0
sg44
Nsg45
Nsg46
S'PSP'
p644
sg48
g631
sg49
I00
sba(issf_api
Word
p645
(dp646
g6
I00
sg7
V\u0905\u0928\u0941\u0930\u094b\u0927
p647
sg9
(issf_api
FeatureSet
p648
(dp649
g12
(dp650
S'posn'
p651
S'310'
p652
sS'name'
p653
S'\xe0\xa4\x85\xe0\xa4\xa8\xe0\xa5\x81\xe0\xa4\xb0\xe0\xa5\x8b\xe0\xa4\xa7'
p654
sS'af'
p655
S'\xe0\xa4\x85\xe0\xa4\xa8\xe0\xa5\x81\xe0\xa4\xb0\xe0\xa5\x8b\xe0\xa4\xa7,n,m,sg,3,d,0,0'
p656
sS'chunkid'
p657
S'NP13'
p658
sS'drel'
p659
S'pof:VGF'
p660
sS'chunktype'
p661
S'head:NP13'
p662
ssbsg38
I00
sg39
I00
sg40
Nsg41
Nsg42
I15
sg43
I0
sg44
Nsg45
Nsg46
S'NN'
p663
sg48
g648
sg49
I00
sba(issf_api
Word
p664
(dp665
g6
I00
sg7
V\u0915\u093f\u092f\u093e
p666
sg9
(issf_api
FeatureSet
p667
(dp668
g12
(dp669
S'posn'
p670
S'320'
p671
sS'name'
p672
S'\xe0\xa4\x95\xe0\xa4\xbf\xe0\xa4\xaf\xe0\xa4\xbe'
p673
sS'af'
p674
S'\xe0\xa4\x95\xe0\xa4\xb0,v,m,sg,any,,\xe0\xa4\xaf\xe0\xa4\xbe,yA'
p675
sS'chunkid'
p676
S'VGF'
p677
sS'chunktype'
p678
S'head:VGF'
p679
sS'voicetype'
p680
S'active'
p681
sS'stype'
p682
S'declarative'
p683
ssbsg38
I00
sg39
I00
sg40
Nsg41
Nsg42
I16
sg43
I0
sg44
Nsg45
Nsg46
S'VM'
p684
sg48
g667
sg49
I00
sba(issf_api
Word
p685
(dp686
g6
I00
sg7
V\u0964
p687
sg9
(issf_api
FeatureSet
p688
(dp689
g12
(dp690
S'posn'
p691
S'330'
p692
sS'name'
p693
S'\xe0\xa5\xa4'
p694
sS'af'
p695
S'\xe0\xa5\xa4,punc,,,,,,'
p696
sS'chunkid'
p697
S'BLK'
p698
sS'drel'
p699
S'rsym:VGF'
p700
sS'chunktype'
p701
S'head:BLK'
p702
ssbsg38
I00
sg39
I00
sg40
Nsg41
Nsg42
I17
sg43
I0
sg44
Nsg45
Nsg46
S'SYM'
p703
sg48
g688
sg49
I00
sba(issf_api
Word
p704
(dp705
g6
I00
sg7
V\u092a\u093e\u091f\u093f\u0932
p706
sg9
(issf_api
FeatureSet
p707
(dp708
g12
(dp709
S'crefhead'
p710
S'\xe0\xa4\xaa\xe0\xa4\xbe\xe0\xa4\x9f\xe0\xa4\xbf\xe0\xa4\xb2:i10'
p711
sS'posn'
p712
S'10'
p713
sS'name'
p714
S'\xe0\xa4\xaa\xe0\xa4\xbe\xe0\xa4\x9f\xe0\xa4\xbf\xe0\xa4\xb2'
p715
sS'af'
p716
S'\xe0\xa4\xaa\xe0\xa4\xbe\xe0\xa4\x9f\xe0\xa4\xbf\xe0\xa4\xb2,n,m,sg,3,o,0_\xe0\xa4\x95\xe0\xa5\x87_\xe0\xa4\xb8\xe0\xa4\xbe\xe0\xa4\xa5,0'
p717
sS'chunkid'
p718
S'NP'
p719
sS'creftype'
p720
S'Coreference-Identity:i5'
p721
sS'chunktype'
p722
S'head:NP'
p723
sS'vpos'
p724
S'vib_2_3'
p725
sS'cref'
p726
S'i10%1:t3'
p727
sS'drel'
p728
S'ras-k1:VGF'
p729
ssbsg38
I00
sg39
I00
sg40
Nsg41
Nsg42
I0
sg43
I1
sg44
Nsg45
Nsg46
S'NNP'
p730
sg48
g707
sg49
I00
sba(issf_api
Word
p731
(dp732
g6
I00
sg7
V\u0915\u0947
p733
sg9
(issf_api
FeatureSet
p734
(dp735
g12
(dp736
S'posn'
p737
S'20'
p738
sS'name'
p739
S'\xe0\xa4\x95\xe0\xa5\x87'
p740
sS'drel'
p741
S'lwg__psp:NP'
p742
sS'chunktype'
p743
S'child:NP'
p744
sS'af'
p745
S'\xe0\xa4\x95\xe0\xa5\x87,psp,,,,,,'
p746
ssbsg38
I00
sg39
I00
sg40
Nsg41
Nsg42
I0
sg43
I1
sg44
Nsg45
Nsg46
S'PSP'
p747
sg48
g734
sg49
I00
sba(issf_api
Word
p748
(dp749
g6
I00
sg7
V\u0938\u093e\u0925
p750
sg9
(issf_api
FeatureSet
p751
(dp752
g12
(dp753
S'posn'
p754
S'30'
p755
sS'name'
p756
S'\xe0\xa4\xb8\xe0\xa4\xbe\xe0\xa4\xa5'
p757
sS'drel'
p758
S'lwg__psp:NP'
p759
sS'chunktype'
p760
S'child:NP'
p761
sS'af'
p762
S'\xe0\xa4\xb8\xe0\xa4\xbe\xe0\xa4\xa5,nst,m,sg,3,d,,'
p763
ssbsg38
I00
sg39
I00
sg40
Nsg41
Nsg42
I0
sg43
I1
sg44
Nsg45
Nsg46
S'NST'
p764
sg48
g751
sg49
I00
sba(issf_api
Word
p765
(dp766
g6
I00
sg7
V\u0906\u0927\u0947
p767
sg9
(issf_api
FeatureSet
p768
(dp769
g12
(dp770
S'posn'
p771
S'40'
p772
sS'name'
p773
S'\xe0\xa4\x86\xe0\xa4\xa7\xe0\xa5\x87'
p774
sS'drel'
p775
S'nmod__adj:NP2'
p776
sS'chunktype'
p777
S'child:NP2'
p778
sS'af'
p779
S'\xe0\xa4\x86\xe0\xa4\xa7\xe0\xa4\xbe,adj,m,sg,,o,,'
p780
ssbsg38
I00
sg39
I00
sg40
Nsg41
Nsg42
I1
sg43
I1
sg44
Nsg45
Nsg46
S'QF'
p781
sg48
g768
sg49
I00
sba(issf_api
Word
p782
(dp783
g6
I00
sg7
V\u0918\u0902\u091f\u0947
p784
sg9
(issf_api
FeatureSet
p785
(dp786
g12
(dp787
S'posn'
p788
S'50'
p789
sS'name'
p790
S'\xe0\xa4\x98\xe0\xa4\x82\xe0\xa4\x9f\xe0\xa5\x87'
p791
sS'af'
p792
S'\xe0\xa4\x98\xe0\xa4\x82\xe0\xa4\x9f\xe0\xa4\xbe,n,m,sg,3,o,0_\xe0\xa4\x95\xe0\xa4\xbe,0'
p793
sS'chunkid'
p794
S'NP2'
p795
sS'drel'
p796
S'r6:NP3'
p797
sS'vpos'
p798
S'vib_3'
p799
sS'chunktype'
p800
S'head:NP2'
p801
ssbsg38
I00
sg39
I00
sg40
Nsg41
Nsg42
I1
sg43
I1
sg44
Nsg45
Nsg46
S'NN'
p802
sg48
g785
sg49
I00
sba(issf_api
Word
p803
(dp804
g6
I00
sg7
V\u0915\u0940
p805
sg9
(issf_api
FeatureSet
p806
(dp807
g12
(dp808
S'posn'
p809
S'60'
p810
sS'name'
p811
S'\xe0\xa4\x95\xe0\xa5\x80'
p812
sS'drel'
p813
S'lwg__psp:NP2'
p814
sS'chunktype'
p815
S'child:NP2'
p816
sS'af'
p817
S'\xe0\xa4\x95\xe0\xa4\xbe,psp,f,sg,,o,,'
p818
ssbsg38
I00
sg39
I00
sg40
Nsg41
Nsg42
I1
sg43
I1
sg44
Nsg45
Nsg46
S'PSP'
p819
sg48
g806
sg49
I00
sba(issf_api
Word
p820
(dp821
g6
I00
sg7
V\u092c\u0948\u0920\u0915
p822
sg9
(issf_api
FeatureSet
p823
(dp824
g12
(dp825
S'crefhead'
p826
S'\xe0\xa4\xac\xe0\xa5\x88\xe0\xa4\xa0\xe0\xa4\x95:i11'
p827
sS'posn'
p828
S'70'
p829
sS'name'
p830
S'\xe0\xa4\xac\xe0\xa5\x88\xe0\xa4\xa0\xe0\xa4\x95'
p831
sS'af'
p832
S'\xe0\xa4\xac\xe0\xa5\x88\xe0\xa4\xa0\xe0\xa4\x95,n,f,sg,3,o,0_\xe0\xa4\x95\xe0\xa5\x87_\xe0\xa4\xac\xe0\xa4\xbe\xe0\xa4\xa6,0'
p833
sS'chunkid'
p834
S'NP3'
p835
sS'chunktype'
p836
S'head:NP3'
p837
sS'crefchainhead'
p838
S'i11:t8'
p839
sS'vpos'
p840
S'vib_2_3'
p841
sS'cref'
p842
S'i11%1:t8'
p843
sS'drel'
p844
S'k7t:VGF'
p845
ssbsg38
I00
sg39
I00
sg40
Nsg41
Nsg42
I2
sg43
I1
sg44
Nsg45
Nsg46
S'NN'
p846
sg48
g823
sg49
I00
sba(issf_api
Word
p847
(dp848
g6
I00
sg7
V\u0915\u0947
p849
sg9
(issf_api
FeatureSet
p850
(dp851
g12
(dp852
S'posn'
p853
S'80'
p854
sS'name'
p855
S'\xe0\xa4\x95\xe0\xa5\x872'
p856
sS'drel'
p857
S'lwg__psp:NP3'
p858
sS'chunktype'
p859
S'child:NP3'
p860
sS'af'
p861
S'\xe0\xa4\x95\xe0\xa5\x87,psp,,,,,,'
p862
ssbsg38
I00
sg39
I00
sg40
Nsg41
Nsg42
I2
sg43
I1
sg44
Nsg45
Nsg46
S'PSP'
p863
sg48
g850
sg49
I00
sba(issf_api
Word
p864
(dp865
g6
I00
sg7
V\u092c\u093e\u0926
p866
sg9
(issf_api
FeatureSet
p867
(dp868
g12
(dp869
S'posn'
p870
S'90'
p871
sS'name'
p872
S'\xe0\xa4\xac\xe0\xa4\xbe\xe0\xa4\xa6'
p873
sS'drel'
p874
S'lwg__psp:NP3'
p875
sS'chunktype'
p876
S'child:NP3'
p877
sS'af'
p878
S'\xe0\xa4\xac\xe0\xa4\xbe\xe0\xa4\xa6,nst,m,sg,3,d,,'
p879
ssbsg38
I00
sg39
I00
sg40
Nsg41
Nsg42
I2
sg43
I1
sg44
Nsg45
Nsg46
S'NST'
p880
sg48
g867
sg49
I00
sba(issf_api
Word
p881
(dp882
g6
I00
sg7
V\u092e\u094b\u0926\u0940
p883
sg9
(issf_api
FeatureSet
p884
(dp885
g12
(dp886
S'crefhead'
p887
S'\xe0\xa4\xae\xe0\xa5\x8b\xe0\xa4\xa6\xe0\xa5\x80:i12'
p888
sS'posn'
p889
S'100'
p890
sS'name'
p891
S'\xe0\xa4\xae\xe0\xa5\x8b\xe0\xa4\xa6\xe0\xa5\x80'
p892
sS'af'
p893
S'\xe0\xa4\xae\xe0\xa5\x8b\xe0\xa4\xa6\xe0\xa5\x80,n,m,sg,3,o,0_\xe0\xa4\xa8\xe0\xa5\x87,0'
p894
sS'chunkid'
p895
S'NP4'
p896
sS'creftype'
p897
S'Coreference-Identity:i3'
p898
sS'chunktype'
p899
S'head:NP4'
p900
sS'vpos'
p901
S'vib_2'
p902
sS'cref'
p903
S'i12%1:t2'
p904
sS'drel'
p905
S'k1:VGF'
p906
ssbsg38
I00
sg39
I00
sg40
Nsg41
Nsg42
I3
sg43
I1
sg44
Nsg45
Nsg46
S'NNP'
p907
sg48
g884
sg49
I00
sba(issf_api
Word
p908
(dp909
g6
I00
sg7
V\u0928\u0947
p910
sg9
(issf_api
FeatureSet
p911
(dp912
g12
(dp913
S'posn'
p914
S'110'
p915
sS'name'
p916
S'\xe0\xa4\xa8\xe0\xa5\x87'
p917
sS'drel'
p918
S'lwg__psp:NP4'
p919
sS'chunktype'
p920
S'child:NP4'
p921
sS'af'
p922
S'\xe0\xa4\xa8\xe0\xa5\x87,psp,,,,,,'
p923
ssbsg38
I00
sg39
I00
sg40
Nsg41
Nsg42
I3
sg43
I1
sg44
Nsg45
Nsg46
S'PSP'
p924
sg48
g911
sg49
I00
sba(issf_api
Word
p925
(dp926
g6
I00
sg7
V\u092a\u0924\u094d\u0930\u0915\u093e\u0930\u094b\u0902
p927
sg9
(issf_api
FeatureSet
p928
(dp929
g12
(dp930
S'posn'
p931
S'120'
p932
sS'name'
p933
S'\xe0\xa4\xaa\xe0\xa4\xa4\xe0\xa5\x8d\xe0\xa4\xb0\xe0\xa4\x95\xe0\xa4\xbe\xe0\xa4\xb0\xe0\xa5\x8b\xe0\xa4\x82'
p934
sS'af'
p935
S'\xe0\xa4\xaa\xe0\xa4\xa4\xe0\xa5\x8d\xe0\xa4\xb0\xe0\xa4\x95\xe0\xa4\xbe\xe0\xa4\xb0,n,m,pl,3,o,0_\xe0\xa4\xb8\xe0\xa5\x87,0'
p936
sS'chunkid'
p937
S'NP5'
p938
sS'drel'
p939
S'k4:VGF'
p940
sS'vpos'
p941
S'vib_2'
p942
sS'chunktype'
p943
S'head:NP5'
p944
ssbsg38
I00
sg39
I00
sg40
Nsg41
Nsg42
I4
sg43
I1
sg44
Nsg45
Nsg46
S'NN'
p945
sg48
g928
sg49
I00
sba(issf_api
Word
p946
(dp947
g6
I00
sg7
V\u0938\u0947
p948
sg9
(issf_api
FeatureSet
p949
(dp950
g12
(dp951
S'posn'
p952
S'130'
p953
sS'name'
p954
S'\xe0\xa4\xb8\xe0\xa5\x87'
p955
sS'drel'
p956
S'lwg__psp:NP5'
p957
sS'chunktype'
p958
S'child:NP5'
p959
sS'af'
p960
S'\xe0\xa4\xb8\xe0\xa5\x87,psp,,,,,,'
p961
ssbsg38
I00
sg39
I00
sg40
Nsg41
Nsg42
I4
sg43
I1
sg44
Nsg45
Nsg46
S'PSP'
p962
sg48
g949
sg49
I00
sba(issf_api
Word
p963
(dp964
g6
I00
sg7
V\u0915\u0939\u093e
p965
sg9
(issf_api
FeatureSet
p966
(dp967
g12
(dp968
S'posn'
p969
S'140'
p970
sS'name'
p971
S'\xe0\xa4\x95\xe0\xa4\xb9\xe0\xa4\xbe'
p972
sS'af'
p973
S'\xe0\xa4\x95\xe0\xa4\xb9,v,m,sg,any,,\xe0\xa4\xaf\xe0\xa4\xbe,yA'
p974
sS'chunkid'
p975
S'VGF'
p976
sS'chunktype'
p977
S'head:VGF'
p978
sS'voicetype'
p979
S'active'
p980
sS'stype'
p981
S'declarative'
p982
ssbsg38
I00
sg39
I00
sg40
Nsg41
Nsg42
I5
sg43
I1
sg44
Nsg45
Nsg46
S'VM'
p983
sg48
g966
sg49
I00
sba(issf_api
Word
p984
(dp985
g6
I00
sg7
V\u0915\u093f
p986
sg9
(issf_api
FeatureSet
p987
(dp988
g12
(dp989
S'posn'
p990
S'150'
p991
sS'name'
p992
S'\xe0\xa4\x95\xe0\xa4\xbf'
p993
sS'af'
p994
S'\xe0\xa4\x95\xe0\xa4\xbf,avy,,,,,,'
p995
sS'chunkid'
p996
S'CCP'
p997
sS'drel'
p998
S'k2:VGF'
p999
sS'chunktype'
p1000
S'head:CCP'
p1001
ssbsg38
I00
sg39
I00
sg40
Nsg41
Nsg42
I6
sg43
I1
sg44
Nsg45
Nsg46
S'CC'
p1002
sg48
g987
sg49
I00
sba(issf_api
Word
p1003
(dp1004
g6
I00
sg7
V\u092a\u0921\u093c\u094b\u0938\u0940
p1005
sg9
(issf_api
FeatureSet
p1006
(dp1007
g12
(dp1008
S'posn'
p1009
S'160'
p1010
sS'name'
p1011
S'\xe0\xa4\xaa\xe0\xa4\xa1\xe0\xa4\xbc\xe0\xa5\x8b\xe0\xa4\xb8\xe0\xa5\x80'
p1012
sS'drel'
p1013
S'nmod__adj:NP6'
p1014
sS'chunktype'
p1015
S'child:NP6'
p1016
sS'af'
p1017
S'\xe0\xa4\xaa\xe0\xa4\xa1\xe0\xa5\x8b\xe0\xa4\xb8\xe0\xa5\x80,adj,any,any,,o,,'
p1018
ssbsg38
I00
sg39
I00
sg40
Nsg41
Nsg42
I7
sg43
I1
sg44
Nsg45
Nsg46
S'JJ'
p1019
sg48
g1006
sg49
I00
sba(issf_api
Word
p1020
(dp1021
g6
I00
sg7
V\u0926\u0947\u0936\u094b\u0902
p1022
sg9
(issf_api
FeatureSet
p1023
(dp1024
g12
(dp1025
S'posn'
p1026
S'170'
p1027
sS'name'
p1028
S'\xe0\xa4\xa6\xe0\xa5\x87\xe0\xa4\xb6\xe0\xa5\x8b\xe0\xa4\x82'
p1029
sS'af'
p1030
S'\xe0\xa4\xa6\xe0\xa5\x87\xe0\xa4\xb6,n,m,pl,3,o,0_\xe0\xa4\x95\xe0\xa4\xbe,0'
p1031
sS'chunkid'
p1032
S'NP6'
p1033
sS'drel'
p1034
S'r6:NP7'
p1035
sS'vpos'
p1036
S'vib_3'
p1037
sS'chunktype'
p1038
S'head:NP6'
p1039
ssbsg38
I00
sg39
I00
sg40
Nsg41
Nsg42
I7
sg43
I1
sg44
Nsg45
Nsg46
S'NN'
p1040
sg48
g1023
sg49
I00
sba(issf_api
Word
p1041
(dp1042
g6
I00
sg7
V\u0915\u0940
p1043
sg9
(issf_api
FeatureSet
p1044
(dp1045
g12
(dp1046
S'posn'
p1047
S'180'
p1048
sS'name'
p1049
S'\xe0\xa4\x95\xe0\xa5\x802'
p1050
sS'drel'
p1051
S'lwg__psp:NP6'
p1052
sS'chunktype'
p1053
S'child:NP6'
p1054
sS'af'
p1055
S'\xe0\xa4\x95\xe0\xa4\xbe,psp,f,pl,,o,,'
p1056
ssbsg38
I00
sg39
I00
sg40
Nsg41
Nsg42
I7
sg43
I1
sg44
Nsg45
Nsg46
S'PSP'
p1057
sg48
g1044
sg49
I00
sba(issf_api
Word
p1058
(dp1059
g6
I00
sg7
V\u0917\u0924\u093f\u0935\u093f\u0927\u093f\u092f\u094b\u0902
p1060
sg9
(issf_api
FeatureSet
p1061
(dp1062
g12
(dp1063
S'posn'
p1064
S'190'
p1065
sS'name'
p1066
S'\xe0\xa4\x97\xe0\xa4\xa4\xe0\xa4\xbf\xe0\xa4\xb5\xe0\xa4\xbf\xe0\xa4\xa7\xe0\xa4\xbf\xe0\xa4\xaf\xe0\xa5\x8b\xe0\xa4\x82'
p1067
sS'af'
p1068
S'\xe0\xa4\x97\xe0\xa4\xa4\xe0\xa4\xbf\xe0\xa4\xb5\xe0\xa4\xbf\xe0\xa4\xa7\xe0\xa4\xbf,n,f,pl,3,o,0_\xe0\xa4\x95\xe0\xa5\x8b,0'
p1069
sS'chunkid'
p1070
S'NP7'
p1071
sS'drel'
p1072
S'k2:VGNF'
p1073
sS'vpos'
p1074
S'vib_2'
p1075
sS'chunktype'
p1076
S'head:NP7'
p1077
ssbsg38
I00
sg39
I00
sg40
Nsg41
Nsg42
I8
sg43
I1
sg44
Nsg45
Nsg46
S'NN'
p1078
sg48
g1061
sg49
I00
sba(issf_api
Word
p1079
(dp1080
g6
I00
sg7
V\u0915\u094b
p1081
sg9
(issf_api
FeatureSet
p1082
(dp1083
g12
(dp1084
S'posn'
p1085
S'200'
p1086
sS'name'
p1087
S'\xe0\xa4\x95\xe0\xa5\x8b'
p1088
sS'drel'
p1089
S'lwg__psp:NP7'
p1090
sS'chunktype'
p1091
S'child:NP7'
p1092
sS'af'
p1093
S'\xe0\xa4\x95\xe0\xa5\x8b,psp,,,,,,'
p1094
ssbsg38
I00
sg39
I00
sg40
Nsg41
Nsg42
I8
sg43
I1
sg44
Nsg45
Nsg46
S'PSP'
p1095
sg48
g1082
sg49
I00
sba(issf_api
Word
p1096
(dp1097
g6
I00
sg7
V\u0927\u094d\u092f\u093e\u0928
p1098
sg9
(issf_api
FeatureSet
p1099
(dp1100
g12
(dp1101
S'posn'
p1102
S'210'
p1103
sS'name'
p1104
S'\xe0\xa4\xa7\xe0\xa5\x8d\xe0\xa4\xaf\xe0\xa4\xbe\xe0\xa4\xa8'
p1105
sS'af'
p1106
S'\xe0\xa4\xa7\xe0\xa5\x8d\xe0\xa4\xaf\xe0\xa4\xbe\xe0\xa4\xa8,n,m,sg,3,o,0_\xe0\xa4\xae\xe0\xa5\x87\xe0\xa4\x82,0'
p1107
sS'chunkid'
p1108
S'NP8'
p1109
sS'drel'
p1110
S'k7:VGNF'
p1111
sS'vpos'
p1112
S'vib_2'
p1113
sS'chunktype'
p1114
S'head:NP8'
p1115
ssbsg38
I00
sg39
I00
sg40
Nsg41
Nsg42
I9
sg43
I1
sg44
Nsg45
Nsg46
S'NN'
p1116
sg48
g1099
sg49
I00
sba(issf_api
Word
p1117
(dp1118
g6
I00
sg7
V\u092e\u0947\u0902
p1119
sg9
(issf_api
FeatureSet
p1120
(dp1121
g12
(dp1122
S'posn'
p1123
S'220'
p1124
sS'name'
p1125
S'\xe0\xa4\xae\xe0\xa5\x87\xe0\xa4\x82'
p1126
sS'drel'
p1127
S'lwg__psp:NP8'
p1128
sS'chunktype'
p1129
S'child:NP8'
p1130
sS'af'
p1131
S'\xe0\xa4\xae\xe0\xa5\x87\xe0\xa4\x82,psp,,,,,,'
p1132
ssbsg38
I00
sg39
I00
sg40
Nsg41
Nsg42
I9
sg43
I1
sg44
Nsg45
Nsg46
S'PSP'
p1133
sg48
g1120
sg49
I00
sba(issf_api
Word
p1134
(dp1135
g6
I00
sg7
V\u0930\u0916\u0924\u0947
p1136
sg9
(issf_api
FeatureSet
p1137
(dp1138
g12
(dp1139
S'posn'
p1140
S'230'
p1141
sS'name'
p1142
S'\xe0\xa4\xb0\xe0\xa4\x96\xe0\xa4\xa4\xe0\xa5\x87'
p1143
sS'af'
p1144
S'\xe0\xa4\xb0\xe0\xa4\x96,v,m,sg,any,,\xe0\xa4\xa4\xe0\xa4\xbe_\xe0\xa4\xb9\xe0\xa5\x8b+\xe0\xa4\xaf\xe0\xa4\xbe,wA'
p1145
sS'chunkid'
p1146
S'VGNF'
p1147
sS'drel'
p1148
S'vmod:VGF2'
p1149
sS'vpos'
p1150
S'tam_2'
p1151
sS'chunktype'
p1152
S'head:VGNF'
p1153
ssbsg38
I00
sg39
I00
sg40
Nsg41
Nsg42
I10
sg43
I1
sg44
Nsg45
Nsg46
S'VM'
p1154
sg48
g1137
sg49
I00
sba(issf_api
Word
p1155
(dp1156
g6
I00
sg7
V\u0939\u0941\u090f
p1157
sg9
(issf_api
FeatureSet
p1158
(dp1159
g12
(dp1160
S'posn'
p1161
S'240'
p1162
sS'name'
p1163
S'\xe0\xa4\xb9\xe0\xa5\x81\xe0\xa4\x8f'
p1164
sS'drel'
p1165
S'lwg__vaux:VGNF'
p1166
sS'chunktype'
p1167
S'child:VGNF'
p1168
sS'af'
p1169
S'\xe0\xa4\xb9\xe0\xa5\x8b,v,m,sg,any,,\xe0\xa4\xaf\xe0\xa4\xbe,yA'
p1170
ssbsg38
I00
sg39
I00
sg40
Nsg41
Nsg42
I10
sg43
I1
sg44
Nsg45
Nsg46
S'VAUX'
p1171
sg48
g1158
sg49
I00
sba(issf_api
Word
p1172
(dp1173
g6
I00
sg7
V\u0939\u092e\u0947\u0902
p1174
sg9
(issf_api
FeatureSet
p1175
(dp1176
g12
(dp1177
S'crefhead'
p1178
S'\xe0\xa4\xb9\xe0\xa4\xae\xe0\xa5\x87\xe0\xa4\x82:i13'
p1179
sS'posn'
p1180
S'250'
p1181
sS'name'
p1182
S'\xe0\xa4\xb9\xe0\xa4\xae\xe0\xa5\x87\xe0\xa4\x82'
p1183
sS'af'
p1184
S'\xe0\xa4\xb9\xe0\xa4\xae,pn,any,pl,1,o,\xe0\xa4\x95\xe0\xa5\x8b,ko'
p1185
sS'chunkid'
p1186
S'NP9'
p1187
sS'creftype'
p1188
S'Anaphora-C:i12'
p1189
sS'chunktype'
p1190
S'head:NP9'
p1191
sS'cref'
p1192
S'i13%1:t2'
p1193
sS'drel'
p1194
S'k1:VGF2'
p1195
ssbsg38
I00
sg39
I00
sg40
Nsg41
Nsg42
I11
sg43
I1
sg44
Nsg45
Nsg46
S'PRP'
p1196
sg48
g1175
sg49
I00
sba(issf_api
Word
p1197
(dp1198
g6
I00
sg7
V\u0906\u0908\u090f\u090f\u0938
p1199
sg9
(issf_api
FeatureSet
p1200
(dp1201
g12
(dp1202
S'crefhead'
p1203
S'\xe0\xa4\x86\xe0\xa4\x88\xe0\xa4\x8f\xe0\xa4\x8f\xe0\xa4\xb8:i14'
p1204
sS'posn'
p1205
S'260'
p1206
sS'name'
p1207
S'\xe0\xa4\x86\xe0\xa4\x88\xe0\xa4\x8f\xe0\xa4\x8f\xe0\xa4\xb8'
p1208
sS'af'
p1209
S'\xe0\xa4\x86\xe0\xa4\x88\xe0\xa4\x8f\xe0\xa4\x8f\xe0\xa4\xb8,n,m,sg,3,o,0,0'
p1210
sS'chunkid'
p1211
S'NP10'
p1212
sS'creftype'
p1213
S'Coreference-Identity:i7'
p1214
sS'chunktype'
p1215
S'head:NP10'
p1216
sS'cref'
p1217
S'i14%1:t5'
p1218
sS'drel'
p1219
S'ccof:CCP2'
p1220
ssbsg38
I00
sg39
I00
sg40
Nsg41
Nsg42
I12
sg43
I1
sg44
Nsg45
Nsg46
S'NNP'
p1221
sg48
g1200
sg49
I00
sba(issf_api
Word
p1222
(dp1223
g6
I00
sg7
V\u0914\u0930
p1224
sg9
(issf_api
FeatureSet
p1225
(dp1226
g12
(dp1227
S'posn'
p1228
S'270'
p1229
sS'name'
p1230
S'\xe0\xa4\x94\xe0\xa4\xb0'
p1231
sS'af'
p1232
S'\xe0\xa4\x94\xe0\xa4\xb0,avy,,,,,,'
p1233
sS'chunkid'
p1234
S'CCP2'
p1235
sS'drel'
p1236
S'k2u:VGF2'
p1237
sS'chunktype'
p1238
S'head:CCP2'
p1239
ssbsg38
I00
sg39
I00
sg40
Nsg41
Nsg42
I13
sg43
I1
sg44
Nsg45
Nsg46
S'CC'
p1240
sg48
g1225
sg49
I00
sba(issf_api
Word
p1241
(dp1242
g6
I00
sg7
V\u0906\u0908\u092a\u0940\u090f\u0938
p1243
sg9
(issf_api
FeatureSet
p1244
(dp1245
g12
(dp1246
S'crefhead'
p1247
S'\xe0\xa4\x86\xe0\xa4\x88\xe0\xa4\xaa\xe0\xa5\x80\xe0\xa4\x8f\xe0\xa4\xb8:i15'
p1248
sS'posn'
p1249
S'280'
p1250
sS'name'
p1251
S'\xe0\xa4\x86\xe0\xa4\x88\xe0\xa4\xaa\xe0\xa5\x80\xe0\xa4\x8f\xe0\xa4\xb8'
p1252
sS'af'
p1253
S'\xe0\xa4\x86\xe0\xa4\x88\xe0\xa4\xaa\xe0\xa5\x80\xe0\xa4\x8f\xe0\xa4\xb8,n,m,sg,3,o,0_\xe0\xa4\x95\xe0\xa4\xbe_\xe0\xa4\xa4\xe0\xa4\xb0\xe0\xa4\xb9,0'
p1254
sS'chunkid'
p1255
S'NP11'
p1256
sS'creftype'
p1257
S'Coreference-Identity:i8'
p1258
sS'chunktype'
p1259
S'head:NP11'
p1260
sS'vpos'
p1261
S'vib_2_3_RP'
p1262
sS'cref'
p1263
S'i15%1:t6'
p1264
sS'drel'
p1265
S'ccof:CCP2'
p1266
ssbsg38
I00
sg39
I00
sg40
Nsg41
Nsg42
I14
sg43
I1
sg44
Nsg45
Nsg46
S'NNP'
p1267
sg48
g1244
sg49
I00
sba(issf_api
Word
p1268
(dp1269
g6
I00
sg7
V\u0915\u0940
p1270
sg9
(issf_api
FeatureSet
p1271
(dp1272
g12
(dp1273
S'posn'
p1274
S'290'
p1275
sS'name'
p1276
S'\xe0\xa4\x95\xe0\xa5\x803'
p1277
sS'drel'
p1278
S'lwg__psp:NP11'
p1279
sS'chunktype'
p1280
S'child:NP11'
p1281
sS'af'
p1282
S'\xe0\xa4\x95\xe0\xa4\xbe,psp,f,,,o,,'
p1283
ssbsg38
I00
sg39
I00
sg40
Nsg41
Nsg42
I14
sg43
I1
sg44
Nsg45
Nsg46
S'PSP'
p1284
sg48
g1271
sg49
I00
sba(issf_api
Word
p1285
(dp1286
g6
I00
sg7
V\u0924\u0930\u0939
p1287
sg9
(issf_api
FeatureSet
p1288
(dp1289
g12
(dp1290
S'posn'
p1291
S'300'
p1292
sS'name'
p1293
S'\xe0\xa4\xa4\xe0\xa4\xb0\xe0\xa4\xb9'
p1294
sS'drel'
p1295
S'lwg__psp:NP11'
p1296
sS'chunktype'
p1297
S'child:NP11'
p1298
sS'af'
p1299
S'\xe0\xa4\xa4\xe0\xa4\xb0\xe0\xa4\xb9,n,f,,,o,,'
p1300
ssbsg38
I00
sg39
I00
sg40
Nsg41
Nsg42
I14
sg43
I1
sg44
Nsg45
Nsg46
S'PSP'
p1301
sg48
g1288
sg49
I00
sba(issf_api
Word
p1302
(dp1303
g6
I00
sg7
V\u0939\u0940
p1304
sg9
(issf_api
FeatureSet
p1305
(dp1306
g12
(dp1307
S'posn'
p1308
S'310'
p1309
sS'name'
p1310
S'\xe0\xa4\xb9\xe0\xa5\x80'
p1311
sS'drel'
p1312
S'lwg__rp:NP11'
p1313
sS'chunktype'
p1314
S'child:NP11'
p1315
sS'af'
p1316
S'\xe0\xa4\xb9\xe0\xa5\x80,avy,,,,,,'
p1317
ssbsg38
I00
sg39
I00
sg40
Nsg41
Nsg42
I14
sg43
I1
sg44
Nsg45
Nsg46
S'RP'
p1318
sg48
g1305
sg49
I00
sba(issf_api
Word
p1319
(dp1320
g6
I00
sg7
V\u0926\u0947\u0936
p1321
sg9
(issf_api
FeatureSet
p1322
(dp1323
g12
(dp1324
S'crefhead'
p1325
S'\xe0\xa4\xa6\xe0\xa5\x87\xe0\xa4\xb6:i16'
p1326
sS'posn'
p1327
S'320'
p1328
sS'name'
p1329
S'\xe0\xa4\xa6\xe0\xa5\x87\xe0\xa4\xb6'
p1330
sS'af'
p1331
S'\xe0\xa4\xa6\xe0\xa5\x87\xe0\xa4\xb6,n,m,sg,3,o,0_\xe0\xa4\xae\xe0\xa5\x87\xe0\xa4\x82,0'
p1332
sS'chunkid'
p1333
S'NP12'
p1334
sS'chunktype'
p1335
S'head:NP12'
p1336
sS'crefchainhead'
p1337
S'i16:t9'
p1338
sS'vpos'
p1339
S'vib_2'
p1340
sS'cref'
p1341
S'i16%1:t9'
p1342
sS'drel'
p1343
S'k7p:VGF2'
p1344
ssbsg38
I00
sg39
I00
sg40
Nsg41
Nsg42
I15
sg43
I1
sg44
Nsg45
Nsg46
S'NN'
p1345
sg48
g1322
sg49
I00
sba(issf_api
Word
p1346
(dp1347
g6
I00
sg7
V\u092e\u0947\u0902
p1348
sg9
(issf_api
FeatureSet
p1349
(dp1350
g12
(dp1351
S'posn'
p1352
S'330'
p1353
sS'name'
p1354
S'\xe0\xa4\xae\xe0\xa5\x87\xe0\xa4\x822'
p1355
sS'drel'
p1356
S'lwg__psp:NP12'
p1357
sS'chunktype'
p1358
S'child:NP12'
p1359
sS'af'
p1360
S'\xe0\xa4\xae\xe0\xa5\x87\xe0\xa4\x82,psp,,,,,,'
p1361
ssbsg38
I00
sg39
I00
sg40
Nsg41
Nsg42
I15
sg43
I1
sg44
Nsg45
Nsg46
S'PSP'
p1362
sg48
g1349
sg49
I00
sba(issf_api
Word
p1363
(dp1364
g6
I00
sg7
V\u0916\u0941\u092b\u093f\u092f\u093e
p1365
sg9
(issf_api
FeatureSet
p1366
(dp1367
g12
(dp1368
S'posn'
p1369
S'340'
p1370
sS'name'
p1371
S'\xe0\xa4\x96\xe0\xa5\x81\xe0\xa4\xab\xe0\xa4\xbf\xe0\xa4\xaf\xe0\xa4\xbe'
p1372
sS'af'
p1373
S'\xe0\xa4\x96\xe0\xa5\x81\xe0\xa4\xab\xe0\xa4\xbf\xe0\xa4\xaf\xe0\xa4\xbe,adj,any,any,,d,,'
p1374
sS'drel'
p1375
S'nmod__adj:NP13'
p1376
sS'chunktype'
p1377
S'child:NP13'
p1378
sS'cref'
p1379
S'i17%0:t7'
p1380
ssbsg38
I00
sg39
I00
sg40
Nsg41
Nsg42
I16
sg43
I1
sg44
Nsg45
Nsg46
S'JJ'
p1381
sg48
g1366
sg49
I00
sba(issf_api
Word
p1382
(dp1383
g6
I00
sg7
V\u0938\u0947\u0935\u093e
p1384
sg9
(issf_api
FeatureSet
p1385
(dp1386
g12
(dp1387
S'crefhead'
p1388
S'\xe0\xa4\xb8\xe0\xa5\x87\xe0\xa4\xb5\xe0\xa4\xbe:i17'
p1389
sS'posn'
p1390
S'350'
p1391
sS'name'
p1392
S'\xe0\xa4\xb8\xe0\xa5\x87\xe0\xa4\xb5\xe0\xa4\xbe'
p1393
sS'af'
p1394
S'\xe0\xa4\xb8\xe0\xa5\x87\xe0\xa4\xb5\xe0\xa4\xbe,n,f,sg,3,d,0,0'
p1395
sS'chunkid'
p1396
S'NP13'
p1397
sS'creftype'
p1398
S'Coreference-Identity:i9'
p1399
sS'chunktype'
p1400
S'head:NP13'
p1401
sS'cref'
p1402
S'i17%1:t7'
p1403
sS'drel'
p1404
S'k2:VGF2'
p1405
ssbsg38
I00
sg39
I00
sg40
Nsg41
Nsg42
I16
sg43
I1
sg44
Nsg45
Nsg46
S'NN'
p1406
sg48
g1385
sg49
I00
sba(issf_api
Word
p1407
(dp1408
g6
I00
sg7
V\u0936\u0941\u0930\u0942
p1409
sg9
(issf_api
FeatureSet
p1410
(dp1411
g12
(dp1412
S'posn'
p1413
S'360'
p1414
sS'name'
p1415
S'\xe0\xa4\xb6\xe0\xa5\x81\xe0\xa4\xb0\xe0\xa5\x82'
p1416
sS'af'
p1417
S'\xe0\xa4\xb6\xe0\xa5\x81\xe0\xa4\xb0\xe0\xa5\x82,n,m,sg,3,d,0,0'
p1418
sS'chunkid'
p1419
S'NP14'
p1420
sS'drel'
p1421
S'pof:VGF2'
p1422
sS'chunktype'
p1423
S'head:NP14'
p1424
ssbsg38
I00
sg39
I00
sg40
Nsg41
Nsg42
I17
sg43
I1
sg44
Nsg45
Nsg46
S'NN'
p1425
sg48
g1410
sg49
I00
sba(issf_api
Word
p1426
(dp1427
g6
I00
sg7
V\u0915\u0930\u0928\u0940
p1428
sg9
(issf_api
FeatureSet
p1429
(dp1430
g12
(dp1431
S'posn'
p1432
S'370'
p1433
sS'name'
p1434
S'\xe0\xa4\x95\xe0\xa4\xb0\xe0\xa4\xa8\xe0\xa5\x80'
p1435
sS'af'
p1436
S'\xe0\xa4\x95\xe0\xa4\xb0,v,f,any,any,,\xe0\xa4\xa8\xe0\xa4\xbe_\xe0\xa4\x9a\xe0\xa4\xbe\xe0\xa4\xb9\xe0\xa4\xbf\xe0\xa4\x8f,nA'
p1437
sS'chunkid'
p1438
S'VGF2'
p1439
sS'stype'
p1440
S'declarative'
p1441
sS'drel'
p1442
S'ccof:CCP'
p1443
sS'voicetype'
p1444
S'active'
p1445
sS'vpos'
p1446
S'tam_2'
p1447
sS'chunktype'
p1448
S'head:VGF2'
p1449
ssbsg38
I00
sg39
I00
sg40
Nsg41
Nsg42
I18
sg43
I1
sg44
Nsg45
Nsg46
S'VM'
p1450
sg48
g1429
sg49
I00
sba(issf_api
Word
p1451
(dp1452
g6
I00
sg7
V\u091a\u093e\u0939\u093f\u090f
p1453
sg9
(issf_api
FeatureSet
p1454
(dp1455
g12
(dp1456
S'posn'
p1457
S'380'
p1458
sS'name'
p1459
S'\xe0\xa4\x9a\xe0\xa4\xbe\xe0\xa4\xb9\xe0\xa4\xbf\xe0\xa4\x8f'
p1460
sS'drel'
p1461
S'lwg__vaux:VGF2'
p1462
sS'chunktype'
p1463
S'child:VGF2'
p1464
sS'af'
p1465
S'\xe0\xa4\x9a\xe0\xa4\xbe\xe0\xa4\xb9\xe0\xa4\xbf\xe0\xa4\x8f,v,any,any,any,,0,0'
p1466
ssbsg38
I00
sg39
I00
sg40
Nsg41
Nsg42
I18
sg43
I1
sg44
Nsg45
Nsg46
S'VAUX'
p1467
sg48
g1454
sg49
I00
sba(issf_api
Word
p1468
(dp1469
g6
I00
sg7
V\u0964
p1470
sg9
(issf_api
FeatureSet
p1471
(dp1472
g12
(dp1473
S'posn'
p1474
S'390'
p1475
sS'name'
p1476
S'\xe0\xa5\xa4'
p1477
sS'af'
p1478
S'\xe0\xa5\xa4,punc,,,,,,'
p1479
sS'chunkid'
p1480
S'BLK'
p1481
sS'drel'
p1482
S'rsym:VGF'
p1483
sS'chunktype'
p1484
S'head:BLK'
p1485
ssbsg38
I00
sg39
I00
sg40
Nsg41
Nsg42
I19
sg43
I1
sg44
Nsg45
Nsg46
S'SYM'
p1486
sg48
g1471
sg49
I00
sba(issf_api
Word
p1487
(dp1488
g6
I00
sg7
V\u092e\u094b\u0926\u0940
p1489
sg9
(issf_api
FeatureSet
p1490
(dp1491
g12
(dp1492
S'crefhead'
p1493
S'\xe0\xa4\xae\xe0\xa5\x8b\xe0\xa4\xa6\xe0\xa5\x80:i18'
p1494
sS'posn'
p1495
S'10'
p1496
sS'name'
p1497
S'\xe0\xa4\xae\xe0\xa5\x8b\xe0\xa4\xa6\xe0\xa5\x80'
p1498
sS'af'
p1499
S'\xe0\xa4\xae\xe0\xa5\x8b\xe0\xa4\xa6\xe0\xa5\x80,n,m,sg,3,o,0_\xe0\xa4\xa8\xe0\xa5\x87,0'
p1500
sS'chunkid'
p1501
S'NP'
p1502
sS'creftype'
p1503
S'Coreference-Identity:i13'
p1504
sS'chunktype'
p1505
S'head:NP'
p1506
sS'vpos'
p1507
S'vib_2'
p1508
sS'cref'
p1509
S'i18%1:t2'
p1510
sS'drel'
p1511
S'k1:VGF'
p1512
ssbsg38
I00
sg39
I00
sg40
Nsg41
Nsg42
I0
sg43
I2
sg44
Nsg45
Nsg46
S'NNP'
p1513
sg48
g1490
sg49
I00
sba(issf_api
Word
p1514
(dp1515
g6
I00
sg7
V\u0928\u0947
p1516
sg9
(issf_api
FeatureSet
p1517
(dp1518
g12
(dp1519
S'posn'
p1520
S'20'
p1521
sS'name'
p1522
S'\xe0\xa4\xa8\xe0\xa5\x87'
p1523
sS'drel'
p1524
S'lwg__psp:NP'
p1525
sS'chunktype'
p1526
S'child:NP'
p1527
sS'af'
p1528
S'\xe0\xa4\xa8\xe0\xa5\x87,psp,,,,,,'
p1529
ssbsg38
I00
sg39
I00
sg40
Nsg41
Nsg42
I0
sg43
I2
sg44
Nsg45
Nsg46
S'PSP'
p1530
sg48
g1517
sg49
I00
sba(issf_api
Word
p1531
(dp1532
g6
I00
sg7
V\u0915\u0939\u093e
p1533
sg9
(issf_api
FeatureSet
p1534
(dp1535
g12
(dp1536
S'posn'
p1537
S'30'
p1538
sS'name'
p1539
S'\xe0\xa4\x95\xe0\xa4\xb9\xe0\xa4\xbe'
p1540
sS'af'
p1541
S'\xe0\xa4\x95\xe0\xa4\xb9,v,m,sg,any,,\xe0\xa4\xaf\xe0\xa4\xbe,yA'
p1542
sS'chunkid'
p1543
S'VGF'
p1544
sS'chunktype'
p1545
S'head:VGF'
p1546
sS'voicetype'
p1547
S'active'
p1548
sS'stype'
p1549
S'declarative'
p1550
ssbsg38
I00
sg39
I00
sg40
Nsg41
Nsg42
I1
sg43
I2
sg44
Nsg45
Nsg46
S'VM'
p1551
sg48
g1534
sg49
I00
sba(issf_api
Word
p1552
(dp1553
g6
I00
sg7
V\u0915\u093f
p1554
sg9
(issf_api
FeatureSet
p1555
(dp1556
g12
(dp1557
S'posn'
p1558
S'40'
p1559
sS'name'
p1560
S'\xe0\xa4\x95\xe0\xa4\xbf'
p1561
sS'af'
p1562
S'\xe0\xa4\x95\xe0\xa4\xbf,avy,,,,,,'
p1563
sS'chunkid'
p1564
S'CCP'
p1565
sS'drel'
p1566
S'k2:VGF'
p1567
sS'chunktype'
p1568
S'head:CCP'
p1569
ssbsg38
I00
sg39
I00
sg40
Nsg41
Nsg42
I2
sg43
I2
sg44
Nsg45
Nsg46
S'CC'
p1570
sg48
g1555
sg49
I00
sba(issf_api
Word
p1571
(dp1572
g6
I00
sg7
V\u0907\u0938
p1573
sg9
(issf_api
FeatureSet
p1574
(dp1575
g12
(dp1576
S'posn'
p1577
S'50'
p1578
sS'name'
p1579
S'\xe0\xa4\x87\xe0\xa4\xb8'
p1580
sS'af'
p1581
S'\xe0\xa4\xaf\xe0\xa4\xb9,pn,any,sg,3,o,,'
p1582
sS'drel'
p1583
S'nmod__adj:NP2'
p1584
sS'chunktype'
p1585
S'child:NP2'
p1586
sS'cref'
p1587
S'i19%0:t7'
p1588
ssbsg38
I00
sg39
I00
sg40
Nsg41
Nsg42
I3
sg43
I2
sg44
Nsg45
Nsg46
S'DEM'
p1589
sg48
g1574
sg49
I00
sba(issf_api
Word
p1590
(dp1591
g6
I00
sg7
V\u0938\u0947\u0935\u093e
p1592
sg9
(issf_api
FeatureSet
p1593
(dp1594
g12
(dp1595
S'crefhead'
p1596
S'\xe0\xa4\xb8\xe0\xa5\x87\xe0\xa4\xb5\xe0\xa4\xbe:i19'
p1597
sS'posn'
p1598
S'60'
p1599
sS'name'
p1600
S'\xe0\xa4\xb8\xe0\xa5\x87\xe0\xa4\xb5\xe0\xa4\xbe'
p1601
sS'af'
p1602
S'\xe0\xa4\xb8\xe0\xa5\x87\xe0\xa4\xb5\xe0\xa4\xbe,n,f,sg,3,o,0_\xe0\xa4\xae\xe0\xa5\x87\xe0\xa4\x82,0'
p1603
sS'chunkid'
p1604
S'NP2'
p1605
sS'creftype'
p1606
S'Coreference-Identity:i17'
p1607
sS'chunktype'
p1608
S'head:NP2'
p1609
sS'vpos'
p1610
S'vib_3'
p1611
sS'cref'
p1612
S'i19%1:t7'
p1613
sS'drel'
p1614
S'k7:VGF2'
p1615
ssbsg38
I00
sg39
I00
sg40
Nsg41
Nsg42
I3
sg43
I2
sg44
Nsg45
Nsg46
S'NN'
p1616
sg48
g1593
sg49
I00
sba(issf_api
Word
p1617
(dp1618
g6
I00
sg7
V\u092e\u0947\u0902
p1619
sg9
(issf_api
FeatureSet
p1620
(dp1621
g12
(dp1622
S'posn'
p1623
S'70'
p1624
sS'name'
p1625
S'\xe0\xa4\xae\xe0\xa5\x87\xe0\xa4\x82'
p1626
sS'drel'
p1627
S'lwg__psp:NP2'
p1628
sS'chunktype'
p1629
S'child:NP2'
p1630
sS'af'
p1631
S'\xe0\xa4\xae\xe0\xa5\x87\xe0\xa4\x82,psp,,,,,,'
p1632
ssbsg38
I00
sg39
I00
sg40
Nsg41
Nsg42
I3
sg43
I2
sg44
Nsg45
Nsg46
S'PSP'
p1633
sg48
g1620
sg49
I00
sba(issf_api
Word
p1634
(dp1635
g6
I00
sg7
V\u0909\u091a\u094d\u091a
p1636
sg9
(issf_api
FeatureSet
p1637
(dp1638
g12
(dp1639
S'posn'
p1640
S'80'
p1641
sS'name'
p1642
S'\xe0\xa4\x89\xe0\xa4\x9a\xe0\xa5\x8d\xe0\xa4\x9a'
p1643
sS'drel'
p1644
S'nmod__adj:NP3'
p1645
sS'chunktype'
p1646
S'child:NP3'
p1647
sS'af'
p1648
S'\xe0\xa4\x89\xe0\xa4\x9a\xe0\xa5\x8d\xe0\xa4\x9a,adj,any,any,,d,,'
p1649
ssbsg38
I00
sg39
I00
sg40
Nsg41
Nsg42
I4
sg43
I2
sg44
Nsg45
Nsg46
S'JJ'
p1650
sg48
g1637
sg49
I00
sba(issf_api
Word
p1651
(dp1652
g6
I00
sg7
V\u0936\u093f\u0915\u094d\u0937\u093e
p1653
sg9
(issf_api
FeatureSet
p1654
(dp1655
g12
(dp1656
S'posn'
p1657
S'90'
p1658
sS'name'
p1659
S'\xe0\xa4\xb6\xe0\xa4\xbf\xe0\xa4\x95\xe0\xa5\x8d\xe0\xa4\xb7\xe0\xa4\xbe'
p1660
sS'af'
p1661
S'\xe0\xa4\xb6\xe0\xa4\xbf\xe0\xa4\x95\xe0\xa5\x8d\xe0\xa4\xb7\xe0\xa4\xbe,n,f,sg,3,d,0,0'
p1662
sS'chunkid'
p1663
S'NP3'
p1664
sS'drel'
p1665
S'jjmod:JJP'
p1666
sS'chunktype'
p1667
S'head:NP3'
p1668
ssbsg38
I00
sg39
I00
sg40
Nsg41
Nsg42
I4
sg43
I2
sg44
Nsg45
Nsg46
S'NN'
p1669
sg48
g1654
sg49
I00
sba(issf_api
Word
p1670
(dp1671
g6
I00
sg7
V\u092a\u094d\u0930\u093e\u092a\u094d\u0924
p1672
sg9
(issf_api
FeatureSet
p1673
(dp1674
g12
(dp1675
S'posn'
p1676
S'100'
p1677
sS'name'
p1678
S'\xe0\xa4\xaa\xe0\xa5\x8d\xe0\xa4\xb0\xe0\xa4\xbe\xe0\xa4\xaa\xe0\xa5\x8d\xe0\xa4\xa4'
p1679
sS'af'
p1680
S'\xe0\xa4\xaa\xe0\xa5\x8d\xe0\xa4\xb0\xe0\xa4\xbe\xe0\xa4\xaa\xe0\xa5\x8d\xe0\xa4\xa4,adj,any,any,,o,,'
p1681
sS'chunkid'
p1682
S'JJP'
p1683
sS'drel'
p1684
S'ccof:CCP2'
p1685
sS'chunktype'
p1686
S'head:JJP'
p1687
ssbsg38
I00
sg39
I00
sg40
Nsg41
Nsg42
I5
sg43
I2
sg44
Nsg45
Nsg46
S'JJ'
p1688
sg48
g1673
sg49
I00
sba(issf_api
Word
p1689
(dp1690
g6
I00
sg7
V\u0914\u0930
p1691
sg9
(issf_api
FeatureSet
p1692
(dp1693
g12
(dp1694
S'posn'
p1695
S'110'
p1696
sS'name'
p1697
S'\xe0\xa4\x94\xe0\xa4\xb0'
p1698
sS'af'
p1699
S'\xe0\xa4\x94\xe0\xa4\xb0,avy,,,,,,'
p1700
sS'chunkid'
p1701
S'CCP2'
p1702
sS'drel'
p1703
S'fragof:NP7'
p1704
sS'chunktype'
p1705
S'head:CCP2'
p1706
ssbsg38
I00
sg39
I00
sg40
Nsg41
Nsg42
I6
sg43
I2
sg44
Nsg45
Nsg46
S'CC'
p1707
sg48
g1692
sg49
I00
sba(issf_api
Word
p1708
(dp1709
g6
I00
sg7
V\u092a\u094d\u0930\u0936\u093f\u0915\u094d\u0937\u093f\u0924
p1710
sg9
(issf_api
FeatureSet
p1711
(dp1712
g12
(dp1713
S'posn'
p1714
S'120'
p1715
sS'name'
p1716
S'\xe0\xa4\xaa\xe0\xa5\x8d\xe0\xa4\xb0\xe0\xa4\xb6\xe0\xa4\xbf\xe0\xa4\x95\xe0\xa5\x8d\xe0\xa4\xb7\xe0\xa4\xbf\xe0\xa4\xa4'
p1717
sS'af'
p1718
S'\xe0\xa4\xaa\xe0\xa5\x8d\xe0\xa4\xb0\xe0\xa4\xb6\xe0\xa4\xbf\xe0\xa4\x95\xe0\xa5\x8d\xe0\xa4\xb7\xe0\xa4\xbf\xe0\xa4\xa4,adj,any,any,,o,,'
p1719
sS'chunkid'
p1720
S'JJP2'
p1721
sS'drel'
p1722
S'ccof:CCP2'
p1723
sS'chunktype'
p1724
S'head:JJP2'
p1725
ssbsg38
I00
sg39
I00
sg40
Nsg41
Nsg42
I7
sg43
I2
sg44
Nsg45
Nsg46
S'JJ'
p1726
sg48
g1711
sg49
I00
sba(issf_api
Word
p1727
(dp1728
g6
I00
sg7
V\u0932\u094b\u0917\u094b\u0902
p1729
sg9
(issf_api
FeatureSet
p1730
(dp1731
g12
(dp1732
S'posn'
p1733
S'130'
p1734
sS'name'
p1735
S'\xe0\xa4\xb2\xe0\xa5\x8b\xe0\xa4\x97\xe0\xa5\x8b\xe0\xa4\x82'
p1736
sS'af'
p1737
S'\xe0\xa4\xb2\xe0\xa5\x8b\xe0\xa4\x97,n,m,pl,3,o,0_\xe0\xa4\x95\xe0\xa5\x8b,0'
p1738
sS'chunkid'
p1739
S'NP4'
p1740
sS'drel'
p1741
S'k2:VGF2'
p1742
sS'vpos'
p1743
S'vib_2'
p1744
sS'chunktype'
p1745
S'head:NP4'
p1746
ssbsg38
I00
sg39
I00
sg40
Nsg41
Nsg42
I8
sg43
I2
sg44
Nsg45
Nsg46
S'NN'
p1747
sg48
g1730
sg49
I00
sba(issf_api
Word
p1748
(dp1749
g6
I00
sg7
V\u0915\u094b
p1750
sg9
(issf_api
FeatureSet
p1751
(dp1752
g12
(dp1753
S'posn'
p1754
S'140'
p1755
sS'name'
p1756
S'\xe0\xa4\x95\xe0\xa5\x8b'
p1757
sS'drel'
p1758
S'lwg__psp:NP4'
p1759
sS'chunktype'
p1760
S'child:NP4'
p1761
sS'af'
p1762
S'\xe0\xa4\x95\xe0\xa5\x8b,psp,,,,,,'
p1763
ssbsg38
I00
sg39
I00
sg40
Nsg41
Nsg42
I8
sg43
I2
sg44
Nsg45
Nsg46
S'PSP'
p1764
sg48
g1751
sg49
I00
sba(issf_api
Word
p1765
(dp1766
g6
I00
sg7
V\u0936\u093e\u092e\u093f\u0932
p1767
sg9
(issf_api
FeatureSet
p1768
(dp1769
g12
(dp1770
S'posn'
p1771
S'150'
p1772
sS'name'
p1773
S'\xe0\xa4\xb6\xe0\xa4\xbe\xe0\xa4\xae\xe0\xa4\xbf\xe0\xa4\xb2'
p1774
sS'af'
p1775
S'\xe0\xa4\xb6\xe0\xa4\xbe\xe0\xa4\xae\xe0\xa4\xbf\xe0\xa4\xb2,adj,any,any,,,,'
p1776
sS'chunkid'
p1777
S'JJP3'
p1778
sS'drel'
p1779
S'pof:VGF2'
p1780
sS'chunktype'
p1781
S'head:JJP3'
p1782
ssbsg38
I00
sg39
I00
sg40
Nsg41
Nsg42
I9
sg43
I2
sg44
Nsg45
Nsg46
S'JJ'
p1783
sg48
g1768
sg49
I00
sba(issf_api
Word
p1784
(dp1785
g6
I00
sg7
V\u0915\u093f\u092f\u093e
p1786
sg9
(issf_api
FeatureSet
p1787
(dp1788
g12
(dp1789
S'posn'
p1790
S'160'
p1791
sS'name'
p1792
S'\xe0\xa4\x95\xe0\xa4\xbf\xe0\xa4\xaf\xe0\xa4\xbe'
p1793
sS'af'
p1794
S'\xe0\xa4\x95\xe0\xa4\xb0,v,m,any,any,,\xe0\xa4\xaf\xe0\xa4\xbe_\xe0\xa4\x9c\xe0\xa4\xbe+\xe0\xa4\xa8\xe0\xa4\xbe_\xe0\xa4\x9a\xe0\xa4\xbe\xe0\xa4\xb9\xe0\xa4\xbf\xe0\xa4\x8f,yA'
p1795
sS'chunkid'
p1796
S'VGF2'
p1797
sS'stype'
p1798
S'declarative'
p1799
sS'drel'
p1800
S'ccof:CCP3'
p1801
sS'voicetype'
p1802
S'passive'
p1803
sS'vpos'
p1804
S'tam_2_3'
p1805
sS'chunktype'
p1806
S'head:VGF2'
p1807
ssbsg38
I00
sg39
I00
sg40
Nsg41
Nsg42
I10
sg43
I2
sg44
Nsg45
Nsg46
S'VM'
p1808
sg48
g1787
sg49
I00
sba(issf_api
Word
p1809
(dp1810
g6
I00
sg7
V\u091c\u093e\u0928\u093e
p1811
sg9
(issf_api
FeatureSet
p1812
(dp1813
g12
(dp1814
S'posn'
p1815
S'170'
p1816
sS'name'
p1817
S'\xe0\xa4\x9c\xe0\xa4\xbe\xe0\xa4\xa8\xe0\xa4\xbe'
p1818
sS'drel'
p1819
S'lwg__vaux:VGF2'
p1820
sS'chunktype'
p1821
S'child:VGF2'
p1822
sS'af'
p1823
S'\xe0\xa4\x9c\xe0\xa4\xbe,v,m,sg,any,,\xe0\xa4\xa8\xe0\xa4\xbe,nA'
p1824
ssbsg38
I00
sg39
I00
sg40
Nsg41
Nsg42
I10
sg43
I2
sg44
Nsg45
Nsg46
S'VAUX'
p1825
sg48
g1812
sg49
I00
sba(issf_api
Word
p1826
(dp1827
g6
I00
sg7
V\u091a\u093e\u0939\u093f\u090f
p1828
sg9
(issf_api
FeatureSet
p1829
(dp1830
g12
(dp1831
S'posn'
p1832
S'180'
p1833
sS'name'
p1834
S'\xe0\xa4\x9a\xe0\xa4\xbe\xe0\xa4\xb9\xe0\xa4\xbf\xe0\xa4\x8f'
p1835
sS'drel'
p1836
S'lwg__vaux:VGF2'
p1837
sS'chunktype'
p1838
S'child:VGF2'
p1839
sS'af'
p1840
S'\xe0\xa4\x9a\xe0\xa4\xbe\xe0\xa4\xb9\xe0\xa4\xbf\xe0\xa4\x8f,v,any,any,any,,0,0'
p1841
ssbsg38
I00
sg39
I00
sg40
Nsg41
Nsg42
I10
sg43
I2
sg44
Nsg45
Nsg46
S'VAUX'
p1842
sg48
g1829
sg49
I00
sba(issf_api
Word
p1843
(dp1844
g6
I00
sg7
V\u0914\u0930
p1845
sg9
(issf_api
FeatureSet
p1846
(dp1847
g12
(dp1848
S'posn'
p1849
S'190'
p1850
sS'name'
p1851
S'\xe0\xa4\x94\xe0\xa4\xb02'
p1852
sS'af'
p1853
S'\xe0\xa4\x94\xe0\xa4\xb0,avy,,,,,,'
p1854
sS'chunkid'
p1855
S'CCP3'
p1856
sS'drel'
p1857
S'ccof:CCP'
p1858
sS'chunktype'
p1859
S'head:CCP3'
p1860
ssbsg38
I00
sg39
I00
sg40
Nsg41
Nsg42
I11
sg43
I2
sg44
Nsg45
Nsg46
S'CC'
p1861
sg48
g1846
sg49
I00
sba(issf_api
Word
p1862
(dp1863
g6
I00
sg7
V\u0907\u0938\u0915\u093e
p1864
sg9
(issf_api
FeatureSet
p1865
(dp1866
g12
(dp1867
S'crefhead'
p1868
S'\xe0\xa4\x87\xe0\xa4\xb8\xe0\xa4\x95\xe0\xa4\xbe:i20'
p1869
sS'posn'
p1870
S'200'
p1871
sS'name'
p1872
S'\xe0\xa4\x87\xe0\xa4\xb8\xe0\xa4\x95\xe0\xa4\xbe'
p1873
sS'af'
p1874
S'\xe0\xa4\xaf\xe0\xa4\xb9,pn,m,sg,3,o,\xe0\xa4\x95\xe0\xa4\xbe,kA'
p1875
sS'chunkid'
p1876
S'NP5'
p1877
sS'creftype'
p1878
S'Anaphora-C:i19'
p1879
sS'chunktype'
p1880
S'head:NP5'
p1881
sS'cref'
p1882
S'i20%1:t7'
p1883
sS'drel'
p1884
S'r6:NP7'
p1885
ssbsg38
I00
sg39
I00
sg40
Nsg41
Nsg42
I12
sg43
I2
sg44
Nsg45
Nsg46
S'PRP'
p1886
sg48
g1865
sg49
I00
sba(issf_api
Word
p1887
(dp1888
g6
I00
sg7
V\u092a\u0942\u0930\u0947
p1889
sg9
(issf_api
FeatureSet
p1890
(dp1891
g12
(dp1892
S'posn'
p1893
S'210'
p1894
sS'name'
p1895
S'\xe0\xa4\xaa\xe0\xa5\x82\xe0\xa4\xb0\xe0\xa5\x87'
p1896
sS'drel'
p1897
S'nmod__adj:NP6'
p1898
sS'chunktype'
p1899
S'child:NP6'
p1900
sS'af'
p1901
S'\xe0\xa4\xaa\xe0\xa5\x82\xe0\xa4\xb0\xe0\xa4\xbe,adj,m,sg,,o,,'
p1902
ssbsg38
I00
sg39
I00
sg40
Nsg41
Nsg42
I13
sg43
I2
sg44
Nsg45
Nsg46
S'JJ'
p1903
sg48
g1890
sg49
I00
sba(issf_api
Word
p1904
(dp1905
g6
I00
sg7
V\u0926\u0947\u0936
p1906
sg9
(issf_api
FeatureSet
p1907
(dp1908
g12
(dp1909
S'crefhead'
p1910
S'\xe0\xa4\xa6\xe0\xa5\x87\xe0\xa4\xb6:i21'
p1911
sS'posn'
p1912
S'220'
p1913
sS'name'
p1914
S'\xe0\xa4\xa6\xe0\xa5\x87\xe0\xa4\xb6'
p1915
sS'af'
p1916
S'\xe0\xa4\xa6\xe0\xa5\x87\xe0\xa4\xb6,n,m,sg,3,o,0_\xe0\xa4\xae\xe0\xa5\x87\xe0\xa4\x82,0'
p1917
sS'chunkid'
p1918
S'NP6'
p1919
sS'creftype'
p1920
S'Coreference-Identity:i16'
p1921
sS'chunktype'
p1922
S'head:NP6'
p1923
sS'vpos'
p1924
S'vib_3'
p1925
sS'cref'
p1926
S'i21%1:t9'
p1927
sS'drel'
p1928
S'k7p:VGF3'
p1929
ssbsg38
I00
sg39
I00
sg40
Nsg41
Nsg42
I13
sg43
I2
sg44
Nsg45
Nsg46
S'NN'
p1930
sg48
g1907
sg49
I00
sba(issf_api
Word
p1931
(dp1932
g6
I00
sg7
V\u092e\u0947\u0902
p1933
sg9
(issf_api
FeatureSet
p1934
(dp1935
g12
(dp1936
S'posn'
p1937
S'230'
p1938
sS'name'
p1939
S'\xe0\xa4\xae\xe0\xa5\x87\xe0\xa4\x822'
p1940
sS'drel'
p1941
S'lwg__psp:NP6'
p1942
sS'chunktype'
p1943
S'child:NP6'
p1944
sS'af'
p1945
S'\xe0\xa4\xae\xe0\xa5\x87\xe0\xa4\x82,psp,,,,,,'
p1946
ssbsg38
I00
sg39
I00
sg40
Nsg41
Nsg42
I13
sg43
I2
sg44
Nsg45
Nsg46
S'PSP'
p1947
sg48
g1934
sg49
I00
sba(issf_api
Word
p1948
(dp1949
g6
I00
sg7
V\u0928\u0947\u091f\u0935\u0930\u094d\u0915
p1950
sg9
(issf_api
FeatureSet
p1951
(dp1952
g12
(dp1953
S'posn'
p1954
S'240'
p1955
sS'name'
p1956
S'\xe0\xa4\xa8\xe0\xa5\x87\xe0\xa4\x9f\xe0\xa4\xb5\xe0\xa4\xb0\xe0\xa5\x8d\xe0\xa4\x95'
p1957
sS'af'
p1958
S'\xe0\xa4\xa8\xe0\xa5\x87\xe0\xa4\x9f\xe0\xa4\xb5\xe0\xa4\xb0\xe0\xa5\x8d\xe0\xa4\x95,n,m,sg,3,d,0,0'
p1959
sS'chunkid'
p1960
S'NP7'
p1961
sS'drel'
p1962
S'k2:VGF3'
p1963
sS'chunktype'
p1964
S'head:NP7'
p1965
ssbsg38
I00
sg39
I00
sg40
Nsg41
Nsg42
I14
sg43
I2
sg44
Nsg45
Nsg46
S'NN'
p1966
sg48
g1951
sg49
I00
sba(issf_api
Word
p1967
(dp1968
g6
I00
sg7
V\u0938\u094d\u0925\u093e\u092a\u093f\u0924
p1969
sg9
(issf_api
FeatureSet
p1970
(dp1971
g12
(dp1972
S'posn'
p1973
S'250'
p1974
sS'name'
p1975
S'\xe0\xa4\xb8\xe0\xa5\x8d\xe0\xa4\xa5\xe0\xa4\xbe\xe0\xa4\xaa\xe0\xa4\xbf\xe0\xa4\xa4'
p1976
sS'af'
p1977
S'\xe0\xa4\xb8\xe0\xa5\x8d\xe0\xa4\xa5\xe0\xa4\xbe\xe0\xa4\xaa\xe0\xa4\xbf\xe0\xa4\xa4,adj,any,any,,,,'
p1978
sS'chunkid'
p1979
S'JJP4'
p1980
sS'drel'
p1981
S'pof:VGF3'
p1982
sS'chunktype'
p1983
S'head:JJP4'
p1984
ssbsg38
I00
sg39
I00
sg40
Nsg41
Nsg42
I15
sg43
I2
sg44
Nsg45
Nsg46
S'JJ'
p1985
sg48
g1970
sg49
I00
sba(issf_api
Word
p1986
(dp1987
g6
I00
sg7
V\u0915\u093f\u092f\u093e
p1988
sg9
(issf_api
FeatureSet
p1989
(dp1990
g12
(dp1991
S'posn'
p1992
S'260'
p1993
sS'name'
p1994
S'\xe0\xa4\x95\xe0\xa4\xbf\xe0\xa4\xaf\xe0\xa4\xbe2'
p1995
sS'af'
p1996
S'\xe0\xa4\x95\xe0\xa4\xb0,v,m,any,any,,\xe0\xa4\xaf\xe0\xa4\xbe_\xe0\xa4\x9c\xe0\xa4\xbe+\xe0\xa4\xa8\xe0\xa4\xbe_\xe0\xa4\x9a\xe0\xa4\xbe\xe0\xa4\xb9\xe0\xa4\xbf\xe0\xa4\x8f,yA'
p1997
sS'chunkid'
p1998
S'VGF3'
p1999
sS'stype'
p2000
S'declarative'
p2001
sS'drel'
p2002
S'ccof:CCP3'
p2003
sS'voicetype'
p2004
S'passive'
p2005
sS'vpos'
p2006
S'tam_2_3'
p2007
sS'chunktype'
p2008
S'head:VGF3'
p2009
ssbsg38
I00
sg39
I00
sg40
Nsg41
Nsg42
I16
sg43
I2
sg44
Nsg45
Nsg46
S'VM'
p2010
sg48
g1989
sg49
I00
sba(issf_api
Word
p2011
(dp2012
g6
I00
sg7
V\u091c\u093e\u0928\u093e
p2013
sg9
(issf_api
FeatureSet
p2014
(dp2015
g12
(dp2016
S'posn'
p2017
S'270'
p2018
sS'name'
p2019
S'\xe0\xa4\x9c\xe0\xa4\xbe\xe0\xa4\xa8\xe0\xa4\xbe2'
p2020
sS'drel'
p2021
S'lwg__vaux:VGF3'
p2022
sS'chunktype'
p2023
S'child:VGF3'
p2024
sS'af'
p2025
S'\xe0\xa4\x9c\xe0\xa4\xbe,v,m,sg,any,,\xe0\xa4\xa8\xe0\xa4\xbe,nA'
p2026
ssbsg38
I00
sg39
I00
sg40
Nsg41
Nsg42
I16
sg43
I2
sg44
Nsg45
Nsg46
S'VAUX'
p2027
sg48
g2014
sg49
I00
sba(issf_api
Word
p2028
(dp2029
g6
I00
sg7
V\u091a\u093e\u0939\u093f\u090f
p2030
sg9
(issf_api
FeatureSet
p2031
(dp2032
g12
(dp2033
S'posn'
p2034
S'280'
p2035
sS'name'
p2036
S'\xe0\xa4\x9a\xe0\xa4\xbe\xe0\xa4\xb9\xe0\xa4\xbf\xe0\xa4\x8f2'
p2037
sS'drel'
p2038
S'lwg__vaux:VGF3'
p2039
sS'chunktype'
p2040
S'child:VGF3'
p2041
sS'af'
p2042
S'\xe0\xa4\x9a\xe0\xa4\xbe\xe0\xa4\xb9\xe0\xa4\xbf\xe0\xa4\x8f,v,any,any,any,,0,0'
p2043
ssbsg38
I00
sg39
I00
sg40
Nsg41
Nsg42
I16
sg43
I2
sg44
Nsg45
Nsg46
S'VAUX'
p2044
sg48
g2031
sg49
I00
sba(issf_api
Word
p2045
(dp2046
g6
I00
sg7
V\u0964
p2047
sg9
(issf_api
FeatureSet
p2048
(dp2049
g12
(dp2050
S'posn'
p2051
S'290'
p2052
sS'name'
p2053
S'\xe0\xa5\xa4'
p2054
sS'af'
p2055
S'\xe0\xa5\xa4,punc,,,,,,'
p2056
sS'chunkid'
p2057
S'BLK'
p2058
sS'drel'
p2059
S'rsym:VGF'
p2060
sS'chunktype'
p2061
S'head:BLK'
p2062
ssbsg38
I00
sg39
I00
sg40
Nsg41
Nsg42
I17
sg43
I2
sg44
Nsg45
Nsg46
S'SYM'
p2063
sg48
g2048
sg49
I00
sba(issf_api
Word
p2064
(dp2065
g6
I00
sg7
V\u0907\u0938\u0938\u0947
p2066
sg9
(issf_api
FeatureSet
p2067
(dp2068
g12
(dp2069
S'crefhead'
p2070
S'\xe0\xa4\x87\xe0\xa4\xb8\xe0\xa4\xb8\xe0\xa5\x87:i22'
p2071
sS'posn'
p2072
S'10'
p2073
sS'name'
p2074
S'\xe0\xa4\x87\xe0\xa4\xb8\xe0\xa4\xb8\xe0\xa5\x87'
p2075
sS'af'
p2076
S'\xe0\xa4\xaf\xe0\xa4\xb9,pn,any,sg,3,o,\xe0\xa4\xb8\xe0\xa5\x87,se'
p2077
sS'chunkid'
p2078
S'NP'
p2079
sS'creftype'
p2080
S'Anaphora-C:i20'
p2081
sS'chunktype'
p2082
S'head:NP'
p2083
sS'cref'
p2084
S'i22%1:t7'
p2085
sS'drel'
p2086
S'k3:VGF'
p2087
ssbsg38
I00
sg39
I00
sg40
Nsg41
Nsg42
I0
sg43
I3
sg44
Nsg45
Nsg46
S'PRP'
p2088
sg48
g2067
sg49
I00
sba(issf_api
Word
p2089
(dp2090
g6
I00
sg7
V\u0915\u093e\u092b\u0940
p2091
sg9
(issf_api
FeatureSet
p2092
(dp2093
g12
(dp2094
S'posn'
p2095
S'20'
p2096
sS'name'
p2097
S'\xe0\xa4\x95\xe0\xa4\xbe\xe0\xa4\xab\xe0\xa5\x80'
p2098
sS'drel'
p2099
S'nmod__adj:NP2'
p2100
sS'chunktype'
p2101
S'child:NP2'
p2102
sS'af'
p2103
S'\xe0\xa4\x95\xe0\xa4\xbe\xe0\xa4\xab\xe0\xa5\x80,avy,,,,,,'
p2104
ssbsg38
I00
sg39
I00
sg40
Nsg41
Nsg42
I1
sg43
I3
sg44
Nsg45
Nsg46
S'QF'
p2105
sg48
g2092
sg49
I00
sba(issf_api
Word
p2106
(dp2107
g6
I00
sg7
V\u092e\u0926\u0926
p2108
sg9
(issf_api
FeatureSet
p2109
(dp2110
g12
(dp2111
S'posn'
p2112
S'30'
p2113
sS'name'
p2114
S'\xe0\xa4\xae\xe0\xa4\xa6\xe0\xa4\xa6'
p2115
sS'af'
p2116
S'\xe0\xa4\xae\xe0\xa4\xa6\xe0\xa4\xa6,n,f,sg,3,d,0,0'
p2117
sS'chunkid'
p2118
S'NP2'
p2119
sS'drel'
p2120
S'k1:VGF'
p2121
sS'chunktype'
p2122
S'head:NP2'
p2123
ssbsg38
I00
sg39
I00
sg40
Nsg41
Nsg42
I1
sg43
I3
sg44
Nsg45
Nsg46
S'NN'
p2124
sg48
g2109
sg49
I00
sba(issf_api
Word
p2125
(dp2126
g6
I00
sg7
V\u092e\u093f\u0932
p2127
sg9
(issf_api
FeatureSet
p2128
(dp2129
g12
(dp2130
S'posn'
p2131
S'40'
p2132
sS'name'
p2133
S'\xe0\xa4\xae\xe0\xa4\xbf\xe0\xa4\xb2'
p2134
sS'af'
p2135
S'\xe0\xa4\xae\xe0\xa4\xbf\xe0\xa4\xb2,v,any,sg,3,,0_\xe0\xa4\xb8\xe0\xa4\x95+\xe0\xa4\x97\xe0\xa4\xbe,0'
p2136
sS'chunkid'
p2137
S'VGF'
p2138
sS'chunktype'
p2139
S'head:VGF'
p2140
sS'voicetype'
p2141
S'active'
p2142
sS'vpos'
p2143
S'tam_2'
p2144
sS'stype'
p2145
S'declarative'
p2146
ssbsg38
I00
sg39
I00
sg40
Nsg41
Nsg42
I2
sg43
I3
sg44
Nsg45
Nsg46
S'VM'
p2147
sg48
g2128
sg49
I00
sba(issf_api
Word
p2148
(dp2149
g6
I00
sg7
V\u0938\u0915\u0947\u0917\u0940
p2150
sg9
(issf_api
FeatureSet
p2151
(dp2152
g12
(dp2153
S'posn'
p2154
S'50'
p2155
sS'name'
p2156
S'\xe0\xa4\xb8\xe0\xa4\x95\xe0\xa5\x87\xe0\xa4\x97\xe0\xa5\x80'
p2157
sS'drel'
p2158
S'lwg__vaux:VGF'
p2159
sS'chunktype'
p2160
S'child:VGF'
p2161
sS'af'
p2162
S'\xe0\xa4\xb8\xe0\xa4\x95,v,f,sg,3,,\xe0\xa4\x97\xe0\xa4\xbe,gA'
p2163
ssbsg38
I00
sg39
I00
sg40
Nsg41
Nsg42
I2
sg43
I3
sg44
Nsg45
Nsg46
S'VAUX'
p2164
sg48
g2151
sg49
I00
sba(issf_api
Word
p2165
(dp2166
g6
I00
sg7
V\u0964
p2167
sg9
(issf_api
FeatureSet
p2168
(dp2169
g12
(dp2170
S'posn'
p2171
S'60'
p2172
sS'name'
p2173
S'\xe0\xa5\xa4'
p2174
sS'af'
p2175
S'\xe0\xa5\xa4,punc,,,,,,'
p2176
sS'chunkid'
p2177
S'BLK'
p2178
sS'drel'
p2179
S'rsym:VGF'
p2180
sS'chunktype'
p2181
S'head:BLK'
p2182
ssbsg38
I00
sg39
I00
sg40
Nsg41
Nsg42
I3
sg43
I3
sg44
Nsg45
Nsg46
S'SYM'
p2183
sg48
g2168
sg49
I00
sba(issf_api
Word
p2184
(dp2185
g6
I00
sg7
V\u0909\u0928\u094d\u0939\u094b\u0902\u0928\u0947
p2186
sg9
(issf_api
FeatureSet
p2187
(dp2188
g12
(dp2189
S'crefhead'
p2190
S'\xe0\xa4\x89\xe0\xa4\xa8\xe0\xa5\x8d\xe0\xa4\xb9\xe0\xa5\x8b\xe0\xa4\x82\xe0\xa4\xa8\xe0\xa5\x87:i23'
p2191
sS'posn'
p2192
S'10'
p2193
sS'name'
p2194
S'\xe0\xa4\x89\xe0\xa4\xa8\xe0\xa5\x8d\xe0\xa4\xb9\xe0\xa5\x8b\xe0\xa4\x82\xe0\xa4\xa8\xe0\xa5\x87'
p2195
sS'af'
p2196
S'\xe0\xa4\xb5\xe0\xa4\xb9,pn,any,sg,3h,o,\xe0\xa4\xa8\xe0\xa5\x87,ne'
p2197
sS'chunkid'
p2198
S'NP'
p2199
sS'creftype'
p2200
S'Anaphora-C:i18'
p2201
sS'chunktype'
p2202
S'head:NP'
p2203
sS'cref'
p2204
S'i23%1:t2'
p2205
sS'drel'
p2206
S'k1:VGF'
p2207
ssbsg38
I00
sg39
I00
sg40
Nsg41
Nsg42
I0
sg43
I4
sg44
Nsg45
Nsg46
S'PRP'
p2208
sg48
g2187
sg49
I00
sba(issf_api
Word
p2209
(dp2210
g6
I00
sg7
V\u092c\u0924\u093e\u092f\u093e
p2211
sg9
(issf_api
FeatureSet
p2212
(dp2213
g12
(dp2214
S'posn'
p2215
S'20'
p2216
sS'name'
p2217
S'\xe0\xa4\xac\xe0\xa4\xa4\xe0\xa4\xbe\xe0\xa4\xaf\xe0\xa4\xbe'
p2218
sS'af'
p2219
S'\xe0\xa4\xac\xe0\xa4\xa4\xe0\xa4\xbe,v,m,sg,any,,\xe0\xa4\xaf\xe0\xa4\xbe,yA'
p2220
sS'chunkid'
p2221
S'VGF'
p2222
sS'chunktype'
p2223
S'head:VGF'
p2224
sS'voicetype'
p2225
S'active'
p2226
sS'stype'
p2227
S'declarative'
p2228
ssbsg38
I00
sg39
I00
sg40
Nsg41
Nsg42
I1
sg43
I4
sg44
Nsg45
Nsg46
S'VM'
p2229
sg48
g2212
sg49
I00
sba(issf_api
Word
p2230
(dp2231
g6
I00
sg7
V\u0915\u093f
p2232
sg9
(issf_api
FeatureSet
p2233
(dp2234
g12
(dp2235
S'posn'
p2236
S'30'
p2237
sS'name'
p2238
S'\xe0\xa4\x95\xe0\xa4\xbf'
p2239
sS'af'
p2240
S'\xe0\xa4\x95\xe0\xa4\xbf,avy,,,,,,'
p2241
sS'chunkid'
p2242
S'CCP'
p2243
sS'drel'
p2244
S'k2:VGF'
p2245
sS'chunktype'
p2246
S'head:CCP'
p2247
ssbsg38
I00
sg39
I00
sg40
Nsg41
Nsg42
I2
sg43
I4
sg44
Nsg45
Nsg46
S'CC'
p2248
sg48
g2233
sg49
I00
sba(issf_api
Word
p2249
(dp2250
g6
I00
sg7
V\u092a\u093e\u091f\u093f\u0932
p2251
sg9
(issf_api
FeatureSet
p2252
(dp2253
g12
(dp2254
S'crefhead'
p2255
S'\xe0\xa4\xaa\xe0\xa4\xbe\xe0\xa4\x9f\xe0\xa4\xbf\xe0\xa4\xb2:i24'
p2256
sS'posn'
p2257
S'40'
p2258
sS'name'
p2259
S'\xe0\xa4\xaa\xe0\xa4\xbe\xe0\xa4\x9f\xe0\xa4\xbf\xe0\xa4\xb2'
p2260
sS'af'
p2261
S'\xe0\xa4\xaa\xe0\xa4\xbe\xe0\xa4\x9f\xe0\xa4\xbf\xe0\xa4\xb2,n,m,sg,3,o,0_\xe0\xa4\xa8\xe0\xa5\x87,0'
p2262
sS'chunkid'
p2263
S'NP2'
p2264
sS'creftype'
p2265
S'Coreference-Identity:i10'
p2266
sS'chunktype'
p2267
S'head:NP2'
p2268
sS'vpos'
p2269
S'vib_2'
p2270
sS'cref'
p2271
S'i24%1:t3'
p2272
sS'drel'
p2273
S'k1:VGF2'
p2274
ssbsg38
I00
sg39
I00
sg40
Nsg41
Nsg42
I3
sg43
I4
sg44
Nsg45
Nsg46
S'NNP'
p2275
sg48
g2252
sg49
I00
sba(issf_api
Word
p2276
(dp2277
g6
I00
sg7
V\u0928\u0947
p2278
sg9
(issf_api
FeatureSet
p2279
(dp2280
g12
(dp2281
S'posn'
p2282
S'50'
p2283
sS'name'
p2284
S'\xe0\xa4\xa8\xe0\xa5\x87'
p2285
sS'drel'
p2286
S'lwg__psp:NP2'
p2287
sS'chunktype'
p2288
S'child:NP2'
p2289
sS'af'
p2290
S'\xe0\xa4\xa8\xe0\xa5\x87,psp,,,,,,'
p2291
ssbsg38
I00
sg39
I00
sg40
Nsg41
Nsg42
I3
sg43
I4
sg44
Nsg45
Nsg46
S'PSP'
p2292
sg48
g2279
sg49
I00
sba(issf_api
Word
p2293
(dp2294
g6
I00
sg7
V\u0909\u0928\u0915\u0947
p2295
sg9
(issf_api
FeatureSet
p2296
(dp2297
g12
(dp2298
S'crefhead'
p2299
S'\xe0\xa4\x89\xe0\xa4\xa8\xe0\xa4\x95\xe0\xa5\x87:i25'
p2300
sS'posn'
p2301
S'60'
p2302
sS'name'
p2303
S'\xe0\xa4\x89\xe0\xa4\xa8\xe0\xa4\x95\xe0\xa5\x87'
p2304
sS'af'
p2305
S'\xe0\xa4\xb5\xe0\xa4\xb9,pn,m,sg,3h,o,\xe0\xa4\x95\xe0\xa4\xbe,kA'
p2306
sS'chunkid'
p2307
S'NP3'
p2308
sS'creftype'
p2309
S'Anaphora-C:i23'
p2310
sS'chunktype'
p2311
S'head:NP3'
p2312
sS'cref'
p2313
S'i25%1:t2'
p2314
sS'drel'
p2315
S'r6:NP4'
p2316
ssbsg38
I00
sg39
I00
sg40
Nsg41
Nsg42
I4
sg43
I4
sg44
Nsg45
Nsg46
S'PRP'
p2317
sg48
g2296
sg49
I00
sba(issf_api
Word
p2318
(dp2319
g6
I00
sg7
V\u0938\u0941\u091d\u093e\u0935
p2320
sg9
(issf_api
FeatureSet
p2321
(dp2322
g12
(dp2323
S'posn'
p2324
S'70'
p2325
sS'name'
p2326
S'\xe0\xa4\xb8\xe0\xa5\x81\xe0\xa4\x9d\xe0\xa4\xbe\xe0\xa4\xb5'
p2327
sS'af'
p2328
S'\xe0\xa4\xb8\xe0\xa5\x81\xe0\xa4\x9d\xe0\xa4\xbe\xe0\xa4\xb5,n,m,sg,3,o,0_\xe0\xa4\x95\xe0\xa4\xbe,0'
p2329
sS'chunkid'
p2330
S'NP4'
p2331
sS'drel'
p2332
S'r6-k2:NP5'
p2333
sS'vpos'
p2334
S'vib_2'
p2335
sS'chunktype'
p2336
S'head:NP4'
p2337
ssbsg38
I00
sg39
I00
sg40
Nsg41
Nsg42
I5
sg43
I4
sg44
Nsg45
Nsg46
S'NN'
p2338
sg48
g2321
sg49
I00
sba(issf_api
Word
p2339
(dp2340
g6
I00
sg7
V\u0915\u0940
p2341
sg9
(issf_api
FeatureSet
p2342
(dp2343
g12
(dp2344
S'posn'
p2345
S'80'
p2346
sS'name'
p2347
S'\xe0\xa4\x95\xe0\xa5\x80'
p2348
sS'drel'
p2349
S'lwg__psp:NP4'
p2350
sS'chunktype'
p2351
S'child:NP4'
p2352
sS'af'
p2353
S'\xe0\xa4\x95\xe0\xa4\xbe,psp,f,sg,,d,,'
p2354
ssbsg38
I00
sg39
I00
sg40
Nsg41
Nsg42
I5
sg43
I4
sg44
Nsg45
Nsg46
S'PSP'
p2355
sg48
g2342
sg49
I00
sba(issf_api
Word
p2356
(dp2357
g6
I00
sg7
V\u0938\u0930\u093e\u0939\u0928\u093e
p2358
sg9
(issf_api
FeatureSet
p2359
(dp2360
g12
(dp2361
S'posn'
p2362
S'90'
p2363
sS'name'
p2364
S'\xe0\xa4\xb8\xe0\xa4\xb0\xe0\xa4\xbe\xe0\xa4\xb9\xe0\xa4\xa8\xe0\xa4\xbe'
p2365
sS'af'
p2366
S'\xe0\xa4\xb8\xe0\xa4\xb0\xe0\xa4\xbe\xe0\xa4\xb9\xe0\xa4\xa8\xe0\xa4\xbe,n,f,sg,3,d,0,0'
p2367
sS'chunkid'
p2368
S'NP5'
p2369
sS'drel'
p2370
S'pof:VGF2'
p2371
sS'chunktype'
p2372
S'head:NP5'
p2373
ssbsg38
I00
sg39
I00
sg40
Nsg41
Nsg42
I6
sg43
I4
sg44
Nsg45
Nsg46
S'NN'
p2374
sg48
g2359
sg49
I00
sba(issf_api
Word
p2375
(dp2376
g6
I00
sg7
V\u0915\u0940
p2377
sg9
(issf_api
FeatureSet
p2378
(dp2379
g12
(dp2380
S'posn'
p2381
S'100'
p2382
sS'name'
p2383
S'\xe0\xa4\x95\xe0\xa5\x802'
p2384
sS'af'
p2385
S'\xe0\xa4\x95\xe0\xa4\xb0,v,f,sg,3,,\xe0\xa4\xaf\xe0\xa4\xbe_\xe0\xa4\xb9\xe0\xa5\x88,yA'
p2386
sS'chunkid'
p2387
S'VGF2'
p2388
sS'stype'
p2389
S'declarative'
p2390
sS'drel'
p2391
S'ccof:CCP'
p2392
sS'voicetype'
p2393
S'active'
p2394
sS'vpos'
p2395
S'tam_2'
p2396
sS'chunktype'
p2397
S'head:VGF2'
p2398
ssbsg38
I00
sg39
I00
sg40
Nsg41
Nsg42
I7
sg43
I4
sg44
Nsg45
Nsg46
S'VM'
p2399
sg48
g2378
sg49
I00
sba(issf_api
Word
p2400
(dp2401
g6
I00
sg7
V\u0939\u0948
p2402
sg9
(issf_api
FeatureSet
p2403
(dp2404
g12
(dp2405
S'posn'
p2406
S'110'
p2407
sS'name'
p2408
S'\xe0\xa4\xb9\xe0\xa5\x88'
p2409
sS'drel'
p2410
S'lwg__vaux:VGF2'
p2411
sS'chunktype'
p2412
S'child:VGF2'
p2413
sS'af'
p2414
S'\xe0\xa4\xb9\xe0\xa5\x88,v,any,sg,3,,\xe0\xa4\xb9\xe0\xa5\x88,hE'
p2415
ssbsg38
I00
sg39
I00
sg40
Nsg41
Nsg42
I7
sg43
I4
sg44
Nsg45
Nsg46
S'VAUX'
p2416
sg48
g2403
sg49
I00
sba(issf_api
Word
p2417
(dp2418
g6
I00
sg7
V\u0964
p2419
sg9
(issf_api
FeatureSet
p2420
(dp2421
g12
(dp2422
S'posn'
p2423
S'120'
p2424
sS'name'
p2425
S'\xe0\xa5\xa4'
p2426
sS'af'
p2427
S'\xe0\xa5\xa4,punc,,,,,,'
p2428
sS'chunkid'
p2429
S'BLK'
p2430
sS'drel'
p2431
S'rsym:VGF'
p2432
sS'chunktype'
p2433
S'head:BLK'
p2434
ssbsg38
I00
sg39
I00
sg40
Nsg41
Nsg42
I8
sg43
I4
sg44
Nsg45
Nsg46
S'SYM'
p2435
sg48
g2420
sg49
I00
sba(issf_api
Word
p2436
(dp2437
g6
I00
sg7
V\u092a\u093e\u091f\u093f\u0932
p2438
sg9
(issf_api
FeatureSet
p2439
(dp2440
g12
(dp2441
S'crefhead'
p2442
S'\xe0\xa4\xaa\xe0\xa4\xbe\xe0\xa4\x9f\xe0\xa4\xbf\xe0\xa4\xb2:i26'
p2443
sS'posn'
p2444
S'10'
p2445
sS'name'
p2446
S'\xe0\xa4\xaa\xe0\xa4\xbe\xe0\xa4\x9f\xe0\xa4\xbf\xe0\xa4\xb2'
p2447
sS'af'
p2448
S'\xe0\xa4\xaa\xe0\xa4\xbe\xe0\xa4\x9f\xe0\xa4\xbf\xe0\xa4\xb2,n,m,sg,3,o,0_\xe0\xa4\x95\xe0\xa5\x87_\xe0\xa4\xb8\xe0\xa4\xbe\xe0\xa4\xa5,0'
p2449
sS'chunkid'
p2450
S'NP'
p2451
sS'creftype'
p2452
S'Coreference-Identity:i24'
p2453
sS'chunktype'
p2454
S'head:NP'
p2455
sS'vpos'
p2456
S'vib_2_3'
p2457
sS'cref'
p2458
S'i26%1:t3'
p2459
sS'drel'
p2460
S'nmod:NP2'
p2461
ssbsg38
I00
sg39
I00
sg40
Nsg41
Nsg42
I0
sg43
I5
sg44
Nsg45
Nsg46
S'NNP'
p2462
sg48
g2439
sg49
I00
sba(issf_api
Word
p2463
(dp2464
g6
I00
sg7
V\u0915\u0947
p2465
sg9
(issf_api
FeatureSet
p2466
(dp2467
g12
(dp2468
S'posn'
p2469
S'20'
p2470
sS'name'
p2471
S'\xe0\xa4\x95\xe0\xa5\x87'
p2472
sS'drel'
p2473
S'lwg__psp:NP'
p2474
sS'chunktype'
p2475
S'child:NP'
p2476
sS'af'
p2477
S'\xe0\xa4\x95\xe0\xa5\x87,psp,,,,,,'
p2478
ssbsg38
I00
sg39
I00
sg40
Nsg41
Nsg42
I0
sg43
I5
sg44
Nsg45
Nsg46
S'PSP'
p2479
sg48
g2466
sg49
I00
sba(issf_api
Word
p2480
(dp2481
g6
I00
sg7
V\u0938\u093e\u0925
p2482
sg9
(issf_api
FeatureSet
p2483
(dp2484
g12
(dp2485
S'posn'
p2486
S'30'
p2487
sS'name'
p2488
S'\xe0\xa4\xb8\xe0\xa4\xbe\xe0\xa4\xa5'
p2489
sS'drel'
p2490
S'lwg__psp:NP'
p2491
sS'chunktype'
p2492
S'child:NP'
p2493
sS'af'
p2494
S'\xe0\xa4\xb8\xe0\xa4\xbe\xe0\xa4\xa5,nst,m,sg,3,d,,'
p2495
ssbsg38
I00
sg39
I00
sg40
Nsg41
Nsg42
I0
sg43
I5
sg44
Nsg45
Nsg46
S'NST'
p2496
sg48
g2483
sg49
I00
sba(issf_api
Word
p2497
(dp2498
g6
I00
sg7
V\u092e\u0941\u0932\u093e\u0915\u093e\u0924
p2499
sg9
(issf_api
FeatureSet
p2500
(dp2501
g12
(dp2502
S'crefhead'
p2503
S'\xe0\xa4\xae\xe0\xa5\x81\xe0\xa4\xb2\xe0\xa4\xbe\xe0\xa4\x95\xe0\xa4\xbe\xe0\xa4\xa4:i27'
p2504
sS'posn'
p2505
S'40'
p2506
sS'name'
p2507
S'\xe0\xa4\xae\xe0\xa5\x81\xe0\xa4\xb2\xe0\xa4\xbe\xe0\xa4\x95\xe0\xa4\xbe\xe0\xa4\xa4'
p2508
sS'af'
p2509
S'\xe0\xa4\xae\xe0\xa5\x81\xe0\xa4\xb2\xe0\xa4\xbe\xe0\xa4\x95\xe0\xa4\xbe\xe0\xa4\xa4,n,f,sg,3,o,0_\xe0\xa4\x95\xe0\xa5\x8b,0'
p2510
sS'chunkid'
p2511
S'NP2'
p2512
sS'creftype'
p2513
S'Coreference-Identity:i6'
p2514
sS'chunktype'
p2515
S'head:NP2'
p2516
sS'vpos'
p2517
S'vib_2'
p2518
sS'cref'
p2519
S'i27%1:t4'
p2520
sS'drel'
p2521
S'k2:VGNF'
p2522
ssbsg38
I00
sg39
I00
sg40
Nsg41
Nsg42
I1
sg43
I5
sg44
Nsg45
Nsg46
S'NN'
p2523
sg48
g2500
sg49
I00
sba(issf_api
Word
p2524
(dp2525
g6
I00
sg7
V\u0915\u094b
p2526
sg9
(issf_api
FeatureSet
p2527
(dp2528
g12
(dp2529
S'posn'
p2530
S'50'
p2531
sS'name'
p2532
S'\xe0\xa4\x95\xe0\xa5\x8b'
p2533
sS'drel'
p2534
S'lwg__psp:NP2'
p2535
sS'chunktype'
p2536
S'child:NP2'
p2537
sS'af'
p2538
S'\xe0\xa4\x95\xe0\xa5\x8b,psp,,,,,,'
p2539
ssbsg38
I00
sg39
I00
sg40
Nsg41
Nsg42
I1
sg43
I5
sg44
Nsg45
Nsg46
S'PSP'
p2540
sg48
g2527
sg49
I00
sba(issf_api
Word
p2541
(dp2542
g6
I00
sg7
V\u0936\u093f\u0937\u094d\u091f\u093e\u091a\u093e\u0930
p2543
sg9
(issf_api
FeatureSet
p2544
(dp2545
g12
(dp2546
S'posn'
p2547
S'60'
p2548
sS'name'
p2549
S'\xe0\xa4\xb6\xe0\xa4\xbf\xe0\xa4\xb7\xe0\xa5\x8d\xe0\xa4\x9f\xe0\xa4\xbe\xe0\xa4\x9a\xe0\xa4\xbe\xe0\xa4\xb0'
p2550
sS'af'
p2551
S'\xe0\xa4\xb6\xe0\xa4\xbf\xe0\xa4\xb7\xe0\xa5\x8d\xe0\xa4\x9f\xe0\xa4\xbe\xe0\xa4\x9a\xe0\xa4\xbe\xe0\xa4\xb0,n,m,sg,3,d,0,0'
p2552
sS'drel'
p2553
S'pof__cn:NP3'
p2554
sS'chunktype'
p2555
S'child:NP3'
p2556
sS'cref'
p2557
S'i28%0:t4,i29%0:t8'
p2558
ssbsg38
I00
sg39
I00
sg40
Nsg41
Nsg42
I2
sg43
I5
sg44
Nsg45
Nsg46
S'NNC'
p2559
sg48
g2544
sg49
I00
sba(issf_api
Word
p2560
(dp2561
g6
I00
sg7
V\u092c\u0948\u0920\u0915
p2562
sg9
(issf_api
FeatureSet
p2563
(dp2564
g12
(dp2565
S'crefhead'
p2566
S'\xe0\xa4\xac\xe0\xa5\x88\xe0\xa4\xa0\xe0\xa4\x95:i28,\xe0\xa4\xac\xe0\xa5\x88\xe0\xa4\xa0\xe0\xa4\x95:i29'
p2567
sS'posn'
p2568
S'70'
p2569
sS'name'
p2570
S'\xe0\xa4\xac\xe0\xa5\x88\xe0\xa4\xa0\xe0\xa4\x95'
p2571
sS'af'
p2572
S'\xe0\xa4\xac\xe0\xa5\x88\xe0\xa4\xa0\xe0\xa4\x95,n,f,sg,3,d,0,0'
p2573
sS'chunkid'
p2574
S'NP3'
p2575
sS'creftype'
p2576
S'Coreference-Identity:i11,Coreference-Apposition:i27'
p2577
sS'chunktype'
p2578
S'head:NP3'
p2579
sS'cref'
p2580
S'i28%1:t4,i29%1:t8'
p2581
sS'drel'
p2582
S'k2s:VGNF'
p2583
ssbsg38
I00
sg39
I00
sg40
Nsg41
Nsg42
I2
sg43
I5
sg44
Nsg45
Nsg46
S'NN'
p2584
sg48
g2563
sg49
I00
sba(issf_api
Word
p2585
(dp2586
g6
I00
sg7
V\u092c\u0924\u093e\u0924\u0947
p2587
sg9
(issf_api
FeatureSet
p2588
(dp2589
g12
(dp2590
S'posn'
p2591
S'80'
p2592
sS'name'
p2593
S'\xe0\xa4\xac\xe0\xa4\xa4\xe0\xa4\xbe\xe0\xa4\xa4\xe0\xa5\x87'
p2594
sS'af'
p2595
S'\xe0\xa4\xac\xe0\xa4\xa4\xe0\xa4\xbe,v,m,sg,any,,\xe0\xa4\xa4\xe0\xa4\xbe_\xe0\xa4\xb9\xe0\xa5\x8b+\xe0\xa4\xaf\xe0\xa4\xbe,wA'
p2596
sS'chunkid'
p2597
S'VGNF'
p2598
sS'drel'
p2599
S'vmod:VGF'
p2600
sS'vpos'
p2601
S'tam_2'
p2602
sS'chunktype'
p2603
S'head:VGNF'
p2604
ssbsg38
I00
sg39
I00
sg40
Nsg41
Nsg42
I3
sg43
I5
sg44
Nsg45
Nsg46
S'VM'
p2605
sg48
g2588
sg49
I00
sba(issf_api
Word
p2606
(dp2607
g6
I00
sg7
V\u0939\u0941\u090f
p2608
sg9
(issf_api
FeatureSet
p2609
(dp2610
g12
(dp2611
S'posn'
p2612
S'90'
p2613
sS'name'
p2614
S'\xe0\xa4\xb9\xe0\xa5\x81\xe0\xa4\x8f'
p2615
sS'drel'
p2616
S'lwg__vaux:VGNF'
p2617
sS'chunktype'
p2618
S'child:VGNF'
p2619
sS'af'
p2620
S'\xe0\xa4\xb9\xe0\xa5\x8b,v,m,sg,any,,\xe0\xa4\xaf\xe0\xa4\xbe,yA'
p2621
ssbsg38
I00
sg39
I00
sg40
Nsg41
Nsg42
I3
sg43
I5
sg44
Nsg45
Nsg46
S'VAUX'
p2622
sg48
g2609
sg49
I00
sba(issf_api
Word
p2623
(dp2624
g6
I00
sg7
V\u092e\u094b\u0926\u0940
p2625
sg9
(issf_api
FeatureSet
p2626
(dp2627
g12
(dp2628
S'crefhead'
p2629
S'\xe0\xa4\xae\xe0\xa5\x8b\xe0\xa4\xa6\xe0\xa5\x80:i30'
p2630
sS'posn'
p2631
S'100'
p2632
sS'name'
p2633
S'\xe0\xa4\xae\xe0\xa5\x8b\xe0\xa4\xa6\xe0\xa5\x80'
p2634
sS'af'
p2635
S'\xe0\xa4\xae\xe0\xa5\x8b\xe0\xa4\xa6\xe0\xa5\x80,n,m,sg,3,o,0_\xe0\xa4\xa8\xe0\xa5\x87,0'
p2636
sS'chunkid'
p2637
S'NP4'
p2638
sS'creftype'
p2639
S'Coreference-Identity:i25'
p2640
sS'chunktype'
p2641
S'head:NP4'
p2642
sS'vpos'
p2643
S'vib_2'
p2644
sS'cref'
p2645
S'i30%1:t2'
p2646
sS'drel'
p2647
S'k1:VGF'
p2648
ssbsg38
I00
sg39
I00
sg40
Nsg41
Nsg42
I4
sg43
I5
sg44
Nsg45
Nsg46
S'NNP'
p2649
sg48
g2626
sg49
I00
sba(issf_api
Word
p2650
(dp2651
g6
I00
sg7
V\u0928\u0947
p2652
sg9
(issf_api
FeatureSet
p2653
(dp2654
g12
(dp2655
S'posn'
p2656
S'110'
p2657
sS'name'
p2658
S'\xe0\xa4\xa8\xe0\xa5\x87'
p2659
sS'drel'
p2660
S'lwg__psp:NP4'
p2661
sS'chunktype'
p2662
S'child:NP4'
p2663
sS'af'
p2664
S'\xe0\xa4\xa8\xe0\xa5\x87,psp,,,,,,'
p2665
ssbsg38
I00
sg39
I00
sg40
Nsg41
Nsg42
I4
sg43
I5
sg44
Nsg45
Nsg46
S'PSP'
p2666
sg48
g2653
sg49
I00
sba(issf_api
Word
p2667
(dp2668
g6
I00
sg7
V\u0915\u0939\u093e
p2669
sg9
(issf_api
FeatureSet
p2670
(dp2671
g12
(dp2672
S'posn'
p2673
S'120'
p2674
sS'name'
p2675
S'\xe0\xa4\x95\xe0\xa4\xb9\xe0\xa4\xbe'
p2676
sS'af'
p2677
S'\xe0\xa4\x95\xe0\xa4\xb9,v,m,sg,any,,\xe0\xa4\xaf\xe0\xa4\xbe,yA'
p2678
sS'chunkid'
p2679
S'VGF'
p2680
sS'chunktype'
p2681
S'head:VGF'
p2682
sS'voicetype'
p2683
S'active'
p2684
sS'stype'
p2685
S'declarative'
p2686
ssbsg38
I00
sg39
I00
sg40
Nsg41
Nsg42
I5
sg43
I5
sg44
Nsg45
Nsg46
S'VM'
p2687
sg48
g2670
sg49
I00
sba(issf_api
Word
p2688
(dp2689
g6
I00
sg7
V\u0915\u093f
p2690
sg9
(issf_api
FeatureSet
p2691
(dp2692
g12
(dp2693
S'posn'
p2694
S'130'
p2695
sS'name'
p2696
S'\xe0\xa4\x95\xe0\xa4\xbf'
p2697
sS'af'
p2698
S'\xe0\xa4\x95\xe0\xa4\xbf,avy,,,,,,'
p2699
sS'chunkid'
p2700
S'CCP'
p2701
sS'drel'
p2702
S'k2:VGF'
p2703
sS'chunktype'
p2704
S'head:CCP'
p2705
ssbsg38
I00
sg39
I00
sg40
Nsg41
Nsg42
I6
sg43
I5
sg44
Nsg45
Nsg46
S'CC'
p2706
sg48
g2691
sg49
I00
sba(issf_api
Word
p2707
(dp2708
g6
I00
sg7
V\u0909\u0928\u094d\u0939\u094b\u0902\u0928\u0947
p2709
sg9
(issf_api
FeatureSet
p2710
(dp2711
g12
(dp2712
S'crefhead'
p2713
S'\xe0\xa4\x89\xe0\xa4\xa8\xe0\xa5\x8d\xe0\xa4\xb9\xe0\xa5\x8b\xe0\xa4\x82\xe0\xa4\xa8\xe0\xa5\x87:i31'
p2714
sS'posn'
p2715
S'140'
p2716
sS'name'
p2717
S'\xe0\xa4\x89\xe0\xa4\xa8\xe0\xa5\x8d\xe0\xa4\xb9\xe0\xa5\x8b\xe0\xa4\x82\xe0\xa4\xa8\xe0\xa5\x87'
p2718
sS'af'
p2719
S'\xe0\xa4\xb5\xe0\xa4\xb9,pn,any,sg,3h,o,\xe0\xa4\xa8\xe0\xa5\x87,ne'
p2720
sS'chunkid'
p2721
S'NP5'
p2722
sS'creftype'
p2723
S'Anaphora-C:i30'
p2724
sS'chunktype'
p2725
S'head:NP5'
p2726
sS'cref'
p2727
S'i31%1:t2'
p2728
sS'drel'
p2729
S'k1:VGF2'
p2730
ssbsg38
I00
sg39
I00
sg40
Nsg41
Nsg42
I7
sg43
I5
sg44
Nsg45
Nsg46
S'PRP'
p2731
sg48
g2710
sg49
I00
sba(issf_api
Word
p2732
(dp2733
g6
I00
sg7
V\u0917\u0941\u091c\u0930\u093e\u0924
p2734
sg9
(issf_api
FeatureSet
p2735
(dp2736
g12
(dp2737
S'crefhead'
p2738
S'\xe0\xa4\x97\xe0\xa5\x81\xe0\xa4\x9c\xe0\xa4\xb0\xe0\xa4\xbe\xe0\xa4\xa4:i32'
p2739
sS'posn'
p2740
S'150'
p2741
sS'name'
p2742
S'\xe0\xa4\x97\xe0\xa5\x81\xe0\xa4\x9c\xe0\xa4\xb0\xe0\xa4\xbe\xe0\xa4\xa4'
p2743
sS'af'
p2744
S'\xe0\xa4\x97\xe0\xa5\x81\xe0\xa4\x9c\xe0\xa4\xb0\xe0\xa4\xbe\xe0\xa4\xa4,n,m,sg,3,o,0_\xe0\xa4\x95\xe0\xa4\xbe,0'
p2745
sS'chunkid'
p2746
S'NP6'
p2747
sS'creftype'
p2748
S'Coreference-Identity:i1'
p2749
sS'chunktype'
p2750
S'head:NP6'
p2751
sS'vpos'
p2752
S'vib_2'
p2753
sS'cref'
p2754
S'i32%1:t1'
p2755
sS'drel'
p2756
S'r6:NP7'
p2757
ssbsg38
I00
sg39
I00
sg40
Nsg41
Nsg42
I8
sg43
I5
sg44
Nsg45
Nsg46
S'NNP'
p2758
sg48
g2735
sg49
I00
sba(issf_api
Word
p2759
(dp2760
g6
I00
sg7
V\u0915\u0947
p2761
sg9
(issf_api
FeatureSet
p2762
(dp2763
g12
(dp2764
S'posn'
p2765
S'160'
p2766
sS'name'
p2767
S'\xe0\xa4\x95\xe0\xa5\x872'
p2768
sS'drel'
p2769
S'lwg__psp:NP6'
p2770
sS'chunktype'
p2771
S'child:NP6'
p2772
sS'af'
p2773
S'\xe0\xa4\x95\xe0\xa4\xbe,psp,m,sg,,o,,'
p2774
ssbsg38
I00
sg39
I00
sg40
Nsg41
Nsg42
I8
sg43
I5
sg44
Nsg45
Nsg46
S'PSP'
p2775
sg48
g2762
sg49
I00
sba(issf_api
Word
p2776
(dp2777
g6
I00
sg7
V1600
p2778
sg9
(issf_api
FeatureSet
p2779
(dp2780
g12
(dp2781
S'posn'
p2782
S'170'
p2783
sS'name'
p2784
S'1600'
p2785
sS'drel'
p2786
S'nmod__adj:NP7'
p2787
sS'chunktype'
p2788
S'child:NP7'
p2789
sS'af'
p2790
S'1600,num,any,any,,any,,'
p2791
ssbsg38
I00
sg39
I00
sg40
Nsg41
Nsg42
I9
sg43
I5
sg44
Nsg45
Nsg46
S'QC'
p2792
sg48
g2779
sg49
I00
sba(issf_api
Word
p2793
(dp2794
g6
I00
sg7
V\u0915\u093f\u092e\u0940
p2795
sg9
(issf_api
FeatureSet
p2796
(dp2797
g12
(dp2798
S'posn'
p2799
S'180'
p2800
sS'name'
p2801
S'\xe0\xa4\x95\xe0\xa4\xbf\xe0\xa4\xae\xe0\xa5\x80'
p2802
sS'af'
p2803
S'\xe0\xa4\x95\xe0\xa4\xbf\xe0\xa4\xae\xe0\xa5\x80,n,m,sg,3,d,0,0'
p2804
sS'chunkid'
p2805
S'NP7'
p2806
sS'drel'
p2807
S'jjmod:JJP'
p2808
sS'chunktype'
p2809
S'head:NP7'
p2810
ssbsg38
I00
sg39
I00
sg40
Nsg41
Nsg42
I9
sg43
I5
sg44
Nsg45
Nsg46
S'NN'
p2811
sg48
g2796
sg49
I00
sba(issf_api
Word
p2812
(dp2813
g6
I00
sg7
V\u0932\u0902\u092c\u0947
p2814
sg9
(issf_api
FeatureSet
p2815
(dp2816
g12
(dp2817
S'posn'
p2818
S'190'
p2819
sS'name'
p2820
S'\xe0\xa4\xb2\xe0\xa4\x82\xe0\xa4\xac\xe0\xa5\x87'
p2821
sS'af'
p2822
S'\xe0\xa4\xb2\xe0\xa4\x82\xe0\xa4\xac\xe0\xa4\xbe,adj,m,sg,,o,,'
p2823
sS'chunkid'
p2824
S'JJP'
p2825
sS'drel'
p2826
S'nmod:NP8'
p2827
sS'chunktype'
p2828
S'head:JJP'
p2829
ssbsg38
I00
sg39
I00
sg40
Nsg41
Nsg42
I10
sg43
I5
sg44
Nsg45
Nsg46
S'JJ'
p2830
sg48
g2815
sg49
I00
sba(issf_api
Word
p2831
(dp2832
g6
I00
sg7
V\u0938\u092e\u0941\u0926\u094d\u0930\u0940
p2833
sg9
(issf_api
FeatureSet
p2834
(dp2835
g12
(dp2836
S'posn'
p2837
S'200'
p2838
sS'name'
p2839
S'\xe0\xa4\xb8\xe0\xa4\xae\xe0\xa5\x81\xe0\xa4\xa6\xe0\xa5\x8d\xe0\xa4\xb0\xe0\xa5\x80'
p2840
sS'drel'
p2841
S'nmod__adj:NP8'
p2842
sS'chunktype'
p2843
S'child:NP8'
p2844
sS'af'
p2845
S'\xe0\xa4\xb8\xe0\xa4\xae\xe0\xa5\x81\xe0\xa4\xa6\xe0\xa5\x8d\xe0\xa4\xb0\xe0\xa5\x80,adj,any,any,,o,,'
p2846
ssbsg38
I00
sg39
I00
sg40
Nsg41
Nsg42
I11
sg43
I5
sg44
Nsg45
Nsg46
S'JJ'
p2847
sg48
g2834
sg49
I00
sba(issf_api
Word
p2848
(dp2849
g6
I00
sg7
V\u0924\u091f
p2850
sg9
(issf_api
FeatureSet
p2851
(dp2852
g12
(dp2853
S'posn'
p2854
S'210'
p2855
sS'name'
p2856
S'\xe0\xa4\xa4\xe0\xa4\x9f'
p2857
sS'af'
p2858
S'\xe0\xa4\xa4\xe0\xa4\x9f,n,m,sg,3,o,0_\xe0\xa4\x95\xe0\xa4\xbe,0'
p2859
sS'chunkid'
p2860
S'NP8'
p2861
sS'drel'
p2862
S'r6:NP9'
p2863
sS'vpos'
p2864
S'vib_3'
p2865
sS'chunktype'
p2866
S'head:NP8'
p2867
ssbsg38
I00
sg39
I00
sg40
Nsg41
Nsg42
I11
sg43
I5
sg44
Nsg45
Nsg46
S'NN'
p2868
sg48
g2851
sg49
I00
sba(issf_api
Word
p2869
(dp2870
g6
I00
sg7
V\u0915\u0940
p2871
sg9
(issf_api
FeatureSet
p2872
(dp2873
g12
(dp2874
S'posn'
p2875
S'220'
p2876
sS'name'
p2877
S'\xe0\xa4\x95\xe0\xa5\x80'
p2878
sS'drel'
p2879
S'lwg__psp:NP8'
p2880
sS'chunktype'
p2881
S'child:NP8'
p2882
sS'af'
p2883
S'\xe0\xa4\x95\xe0\xa4\xbe,psp,f,sg,,o,,'
p2884
ssbsg38
I00
sg39
I00
sg40
Nsg41
Nsg42
I11
sg43
I5
sg44
Nsg45
Nsg46
S'PSP'
p2885
sg48
g2872
sg49
I00
sba(issf_api
Word
p2886
(dp2887
g6
I00
sg7
V\u0938\u0941\u0930\u0915\u094d\u0937\u093e
p2888
sg9
(issf_api
FeatureSet
p2889
(dp2890
g12
(dp2891
S'posn'
p2892
S'230'
p2893
sS'name'
p2894
S'\xe0\xa4\xb8\xe0\xa5\x81\xe0\xa4\xb0\xe0\xa4\x95\xe0\xa5\x8d\xe0\xa4\xb7\xe0\xa4\xbe'
p2895
sS'af'
p2896
S'\xe0\xa4\xb8\xe0\xa5\x81\xe0\xa4\xb0\xe0\xa4\x95\xe0\xa5\x8d\xe0\xa4\xb7\xe0\xa4\xbe,n,f,sg,3,o,0_\xe0\xa4\x95\xe0\xa5\x87_\xe0\xa4\xb2\xe0\xa4\xbf\xe0\xa4\x8f,0'
p2897
sS'chunkid'
p2898
S'NP9'
p2899
sS'drel'
p2900
S'rt:VGF2'
p2901
sS'vpos'
p2902
S'vib_2_3'
p2903
sS'chunktype'
p2904
S'head:NP9'
p2905
ssbsg38
I00
sg39
I00
sg40
Nsg41
Nsg42
I12
sg43
I5
sg44
Nsg45
Nsg46
S'NN'
p2906
sg48
g2889
sg49
I00
sba(issf_api
Word
p2907
(dp2908
g6
I00
sg7
V\u0915\u0947
p2909
sg9
(issf_api
FeatureSet
p2910
(dp2911
g12
(dp2912
S'posn'
p2913
S'240'
p2914
sS'name'
p2915
S'\xe0\xa4\x95\xe0\xa5\x873'
p2916
sS'drel'
p2917
S'lwg__psp:NP9'
p2918
sS'chunktype'
p2919
S'child:NP9'
p2920
sS'af'
p2921
S'\xe0\xa4\x95\xe0\xa5\x87,psp,,,,,,'
p2922
ssbsg38
I00
sg39
I00
sg40
Nsg41
Nsg42
I12
sg43
I5
sg44
Nsg45
Nsg46
S'PSP'
p2923
sg48
g2910
sg49
I00
sba(issf_api
Word
p2924
(dp2925
g6
I00
sg7
V\u0932\u093f\u090f
p2926
sg9
(issf_api
FeatureSet
p2927
(dp2928
g12
(dp2929
S'posn'
p2930
S'250'
p2931
sS'name'
p2932
S'\xe0\xa4\xb2\xe0\xa4\xbf\xe0\xa4\x8f'
p2933
sS'drel'
p2934
S'lwg__psp:NP9'
p2935
sS'chunktype'
p2936
S'child:NP9'
p2937
sS'af'
p2938
S'\xe0\xa4\xb2\xe0\xa4\xbf\xe0\xa4\x8f,psp,,,,,,'
p2939
ssbsg38
I00
sg39
I00
sg40
Nsg41
Nsg42
I12
sg43
I5
sg44
Nsg45
Nsg46
S'PSP'
p2940
sg48
g2927
sg49
I00
sba(issf_api
Word
p2941
(dp2942
g6
I00
sg7
V400
p2943
sg9
(issf_api
FeatureSet
p2944
(dp2945
g12
(dp2946
S'posn'
p2947
S'260'
p2948
sS'name'
p2949
S'400'
p2950
sS'drel'
p2951
S'mod:NP10'
p2952
sS'chunktype'
p2953
S'child:NP10'
p2954
sS'af'
p2955
S'400,num,any,any,,any,,'
p2956
ssbsg38
I00
sg39
I00
sg40
Nsg41
Nsg42
I13
sg43
I5
sg44
Nsg45
Nsg46
S'QCC'
p2957
sg48
g2944
sg49
I00
sba(issf_api
Word
p2958
(dp2959
g6
I00
sg7
V\u0915\u0930\u094b\u0921\u093c
p2960
sg9
(issf_api
FeatureSet
p2961
(dp2962
g12
(dp2963
S'posn'
p2964
S'270'
p2965
sS'name'
p2966
S'\xe0\xa4\x95\xe0\xa4\xb0\xe0\xa5\x8b\xe0\xa4\xa1\xe0\xa4\xbc'
p2967
sS'drel'
p2968
S'nmod__adj:NP10'
p2969
sS'chunktype'
p2970
S'child:NP10'
p2971
sS'af'
p2972
S'\xe0\xa4\x95\xe0\xa4\xb0\xe0\xa5\x8b\xe0\xa4\xa1,num,any,any,,any,,'
p2973
ssbsg38
I00
sg39
I00
sg40
Nsg41
Nsg42
I13
sg43
I5
sg44
Nsg45
Nsg46
S'QC'
p2974
sg48
g2961
sg49
I00
sba(issf_api
Word
p2975
(dp2976
g6
I00
sg7
V\u0930\u0941\u092a\u092f\u0947
p2977
sg9
(issf_api
FeatureSet
p2978
(dp2979
g12
(dp2980
S'posn'
p2981
S'280'
p2982
sS'name'
p2983
S'\xe0\xa4\xb0\xe0\xa5\x81\xe0\xa4\xaa\xe0\xa4\xaf\xe0\xa5\x87'
p2984
sS'af'
p2985
S'\xe0\xa4\xb0\xe0\xa5\x81\xe0\xa4\xaa\xe0\xa4\xaf\xe0\xa4\xbe,n,m,sg,3,o,0_\xe0\xa4\x95\xe0\xa4\xbe,0'
p2986
sS'chunkid'
p2987
S'NP10'
p2988
sS'drel'
p2989
S'r6:NP12'
p2990
sS'vpos'
p2991
S'vib_4'
p2992
sS'chunktype'
p2993
S'head:NP10'
p2994
ssbsg38
I00
sg39
I00
sg40
Nsg41
Nsg42
I13
sg43
I5
sg44
Nsg45
Nsg46
S'NN'
p2995
sg48
g2978
sg49
I00
sba(issf_api
Word
p2996
(dp2997
g6
I00
sg7
V\u0915\u0947
p2998
sg9
(issf_api
FeatureSet
p2999
(dp3000
g12
(dp3001
S'posn'
p3002
S'290'
p3003
sS'name'
p3004
S'\xe0\xa4\x95\xe0\xa5\x874'
p3005
sS'drel'
p3006
S'lwg__psp:NP10'
p3007
sS'chunktype'
p3008
S'child:NP10'
p3009
sS'af'
p3010
S'\xe0\xa4\x95\xe0\xa4\xbe,psp,f,sg,,o,,'
p3011
ssbsg38
I00
sg39
I00
sg40
Nsg41
Nsg42
I13
sg43
I5
sg44
Nsg45
Nsg46
S'PSP'
p3012
sg48
g2999
sg49
I00
sba(issf_api
Word
p3013
(dp3014
g6
I00
sg7
V\u0924\u091f\u0940\u092f
p3015
sg9
(issf_api
FeatureSet
p3016
(dp3017
g12
(dp3018
S'posn'
p3019
S'300'
p3020
sS'name'
p3021
S'\xe0\xa4\xa4\xe0\xa4\x9f\xe0\xa5\x80\xe0\xa4\xaf'
p3022
sS'af'
p3023
S'\xe0\xa4\xa4\xe0\xa4\x9f\xe0\xa5\x80\xe0\xa4\xaf,adj,any,any,,o,,'
p3024
sS'acrefmod'
p3025
S'm2%0:i33'
p3026
sS'drel'
p3027
S'nmod__adj:NP11'
p3028
sS'chunktype'
p3029
S'child:NP11'
p3030
ssbsg38
I00
sg39
I00
sg40
Nsg41
Nsg42
I14
sg43
I5
sg44
Nsg45
Nsg46
S'JJ'
p3031
sg48
g3016
sg49
I00
sba(issf_api
Word
p3032
(dp3033
g6
I00
sg7
V\u0935\u093f\u0915\u093e\u0938
p3034
sg9
(issf_api
FeatureSet
p3035
(dp3036
g12
(dp3037
S'posn'
p3038
S'310'
p3039
sS'name'
p3040
S'\xe0\xa4\xb5\xe0\xa4\xbf\xe0\xa4\x95\xe0\xa4\xbe\xe0\xa4\xb8'
p3041
sS'af'
p3042
S'\xe0\xa4\xb5\xe0\xa4\xbf\xe0\xa4\x95\xe0\xa4\xbe\xe0\xa4\xb8,n,m,sg,3,o,0_\xe0\xa4\x95\xe0\xa4\xbe,0'
p3043
sS'acrefmodhead'
p3044
S'\xe0\xa4\xb5\xe0\xa4\xbf\xe0\xa4\x95\xe0\xa4\xbe\xe0\xa4\xb8:m2'
p3045
sS'chunkid'
p3046
S'NP11'
p3047
sS'acrefmod'
p3048
S'm2%1:i33'
p3049
sS'drel'
p3050
S'r6:NP12'
p3051
sS'vpos'
p3052
S'vib_3'
p3053
sS'chunktype'
p3054
S'head:NP11'
p3055
ssbsg38
I00
sg39
I00
sg40
Nsg41
Nsg42
I14
sg43
I5
sg44
Nsg45
Nsg46
S'NN'
p3056
sg48
g3035
sg49
I00
sba(issf_api
Word
p3057
(dp3058
g6
I00
sg7
V\u0915\u0940
p3059
sg9
(issf_api
FeatureSet
p3060
(dp3061
g12
(dp3062
S'posn'
p3063
S'320'
p3064
sS'name'
p3065
S'\xe0\xa4\x95\xe0\xa5\x802'
p3066
sS'drel'
p3067
S'lwg__psp:NP11'
p3068
sS'chunktype'
p3069
S'child:NP11'
p3070
sS'af'
p3071
S'\xe0\xa4\x95\xe0\xa4\xbe,psp,f,sg,,d,,'
p3072
ssbsg38
I00
sg39
I00
sg40
Nsg41
Nsg42
I14
sg43
I5
sg44
Nsg45
Nsg46
S'PSP'
p3073
sg48
g3060
sg49
I00
sba(issf_api
Word
p3074
(dp3075
g6
I00
sg7
V\u092f\u094b\u091c\u0928\u093e
p3076
sg9
(issf_api
FeatureSet
p3077
(dp3078
g12
(dp3079
S'crefhead'
p3080
S'\xe0\xa4\xaf\xe0\xa5\x8b\xe0\xa4\x9c\xe0\xa4\xa8\xe0\xa4\xbe:i33'
p3081
sS'posn'
p3082
S'330'
p3083
sS'name'
p3084
S'\xe0\xa4\xaf\xe0\xa5\x8b\xe0\xa4\x9c\xe0\xa4\xa8\xe0\xa4\xbe'
p3085
sS'af'
p3086
S'\xe0\xa4\xaf\xe0\xa5\x8b\xe0\xa4\x9c\xe0\xa4\xa8\xe0\xa4\xbe,n,f,sg,3,d,0,0'
p3087
sS'chunkid'
p3088
S'NP12'
p3089
sS'crefmod'
p3090
S'm2:i33'
p3091
sS'chunktype'
p3092
S'head:NP12'
p3093
sS'crefchainhead'
p3094
S'i33:t10'
p3095
sS'cref'
p3096
S'i33%1:t10'
p3097
sS'drel'
p3098
S'k2:VGF2'
p3099
ssbsg38
I00
sg39
I00
sg40
Nsg41
Nsg42
I15
sg43
I5
sg44
Nsg45
Nsg46
S'NN'
p3100
sg48
g3077
sg49
I00
sba(issf_api
Word
p3101
(dp3102
g6
I00
sg7
V\u0926\u0940
p3103
sg9
(issf_api
FeatureSet
p3104
(dp3105
g12
(dp3106
S'posn'
p3107
S'340'
p3108
sS'name'
p3109
S'\xe0\xa4\xa6\xe0\xa5\x80'
p3110
sS'af'
p3111
S'\xe0\xa4\xa6\xe0\xa5\x87,v,f,sg,3,,\xe0\xa4\xaf\xe0\xa4\xbe_\xe0\xa4\xb9\xe0\xa5\x88,yA'
p3112
sS'chunkid'
p3113
S'VGF2'
p3114
sS'stype'
p3115
S'declarative'
p3116
sS'drel'
p3117
S'ccof:CCP'
p3118
sS'voicetype'
p3119
S'active'
p3120
sS'vpos'
p3121
S'tam_2'
p3122
sS'chunktype'
p3123
S'head:VGF2'
p3124
ssbsg38
I00
sg39
I00
sg40
Nsg41
Nsg42
I16
sg43
I5
sg44
Nsg45
Nsg46
S'VM'
p3125
sg48
g3104
sg49
I00
sba(issf_api
Word
p3126
(dp3127
g6
I00
sg7
V\u0939\u0948
p3128
sg9
(issf_api
FeatureSet
p3129
(dp3130
g12
(dp3131
S'posn'
p3132
S'350'
p3133
sS'name'
p3134
S'\xe0\xa4\xb9\xe0\xa5\x88'
p3135
sS'drel'
p3136
S'lwg__vaux:VGF2'
p3137
sS'chunktype'
p3138
S'child:VGF2'
p3139
sS'af'
p3140
S'\xe0\xa4\xb9\xe0\xa5\x88,v,any,sg,3,,\xe0\xa4\xb9\xe0\xa5\x88,hE'
p3141
ssbsg38
I00
sg39
I00
sg40
Nsg41
Nsg42
I16
sg43
I5
sg44
Nsg45
Nsg46
S'VAUX'
p3142
sg48
g3129
sg49
I00
sba(issf_api
Word
p3143
(dp3144
g6
I00
sg7
V\u0964
p3145
sg9
(issf_api
FeatureSet
p3146
(dp3147
g12
(dp3148
S'posn'
p3149
S'360'
p3150
sS'name'
p3151
S'\xe0\xa5\xa4'
p3152
sS'af'
p3153
S'\xe0\xa5\xa4,punc,,,,,,'
p3154
sS'chunkid'
p3155
S'BLK'
p3156
sS'drel'
p3157
S'rsym:VGF'
p3158
sS'chunktype'
p3159
S'head:BLK'
p3160
ssbsg38
I00
sg39
I00
sg40
Nsg41
Nsg42
I17
sg43
I5
sg44
Nsg45
Nsg46
S'SYM'
p3161
sg48
g3146
sg49
I00
sba(issf_api
Word
p3162
(dp3163
g6
I00
sg7
V\u0909\u0928\u094d\u0939\u094b\u0902\u0928\u0947
p3164
sg9
(issf_api
FeatureSet
p3165
(dp3166
g12
(dp3167
S'crefhead'
p3168
S'\xe0\xa4\x89\xe0\xa4\xa8\xe0\xa5\x8d\xe0\xa4\xb9\xe0\xa5\x8b\xe0\xa4\x82\xe0\xa4\xa8\xe0\xa5\x87:i34'
p3169
sS'posn'
p3170
S'10'
p3171
sS'name'
p3172
S'\xe0\xa4\x89\xe0\xa4\xa8\xe0\xa5\x8d\xe0\xa4\xb9\xe0\xa5\x8b\xe0\xa4\x82\xe0\xa4\xa8\xe0\xa5\x87'
p3173
sS'af'
p3174
S'\xe0\xa4\xb5\xe0\xa4\xb9,pn,any,sg,3h,o,\xe0\xa4\xa8\xe0\xa5\x87,ne'
p3175
sS'chunkid'
p3176
S'NP'
p3177
sS'creftype'
p3178
S'Anaphora-C:i31'
p3179
sS'chunktype'
p3180
S'head:NP'
p3181
sS'cref'
p3182
S'i34%1:t2'
p3183
sS'drel'
p3184
S'k1:VGF'
p3185
ssbsg38
I00
sg39
I00
sg40
Nsg41
Nsg42
I0
sg43
I6
sg44
Nsg45
Nsg46
S'PRP'
p3186
sg48
g3165
sg49
I00
sba(issf_api
Word
p3187
(dp3188
g6
I00
sg7
V\u0915\u0939\u093e
p3189
sg9
(issf_api
FeatureSet
p3190
(dp3191
g12
(dp3192
S'posn'
p3193
S'20'
p3194
sS'name'
p3195
S'\xe0\xa4\x95\xe0\xa4\xb9\xe0\xa4\xbe'
p3196
sS'af'
p3197
S'\xe0\xa4\x95\xe0\xa4\xb9,v,m,sg,any,,\xe0\xa4\xaf\xe0\xa4\xbe,yA'
p3198
sS'chunkid'
p3199
S'VGF'
p3200
sS'chunktype'
p3201
S'head:VGF'
p3202
sS'voicetype'
p3203
S'active'
p3204
sS'stype'
p3205
S'declarative'
p3206
ssbsg38
I00
sg39
I00
sg40
Nsg41
Nsg42
I1
sg43
I6
sg44
Nsg45
Nsg46
S'VM'
p3207
sg48
g3190
sg49
I00
sba(issf_api
Word
p3208
(dp3209
g6
I00
sg7
V\u0915\u093f
p3210
sg9
(issf_api
FeatureSet
p3211
(dp3212
g12
(dp3213
S'posn'
p3214
S'30'
p3215
sS'name'
p3216
S'\xe0\xa4\x95\xe0\xa4\xbf'
p3217
sS'af'
p3218
S'\xe0\xa4\x95\xe0\xa4\xbf,avy,,,,,,'
p3219
sS'chunkid'
p3220
S'CCP'
p3221
sS'drel'
p3222
S'k2:VGF'
p3223
sS'chunktype'
p3224
S'head:CCP'
p3225
ssbsg38
I00
sg39
I00
sg40
Nsg41
Nsg42
I2
sg43
I6
sg44
Nsg45
Nsg46
S'CC'
p3226
sg48
g3211
sg49
I00
sba(issf_api
Word
p3227
(dp3228
g6
I00
sg7
V\u092f\u0939
p3229
sg9
(issf_api
FeatureSet
p3230
(dp3231
g12
(dp3232
S'posn'
p3233
S'40'
p3234
sS'name'
p3235
S'\xe0\xa4\xaf\xe0\xa4\xb9'
p3236
sS'af'
p3237
S'\xe0\xa4\xaf\xe0\xa4\xb9,pn,any,sg,3,d,,'
p3238
sS'drel'
p3239
S'nmod__adj:NP2'
p3240
sS'chunktype'
p3241
S'child:NP2'
p3242
sS'cref'
p3243
S'i35%0:t10'
p3244
ssbsg38
I00
sg39
I00
sg40
Nsg41
Nsg42
I3
sg43
I6
sg44
Nsg45
Nsg46
S'DEM'
p3245
sg48
g3230
sg49
I00
sba(issf_api
Word
p3246
(dp3247
g6
I00
sg7
V\u092f\u094b\u091c\u0928\u093e
p3248
sg9
(issf_api
FeatureSet
p3249
(dp3250
g12
(dp3251
S'crefhead'
p3252
S'\xe0\xa4\xaf\xe0\xa5\x8b\xe0\xa4\x9c\xe0\xa4\xa8\xe0\xa4\xbe:i35'
p3253
sS'posn'
p3254
S'50'
p3255
sS'name'
p3256
S'\xe0\xa4\xaf\xe0\xa5\x8b\xe0\xa4\x9c\xe0\xa4\xa8\xe0\xa4\xbe'
p3257
sS'af'
p3258
S'\xe0\xa4\xaf\xe0\xa5\x8b\xe0\xa4\x9c\xe0\xa4\xa8\xe0\xa4\xbe,n,f,sg,3,d,0,0'
p3259
sS'chunkid'
p3260
S'NP2'
p3261
sS'creftype'
p3262
S'Coreference-Identity:i33'
p3263
sS'chunktype'
p3264
S'head:NP2'
p3265
sS'cref'
p3266
S'i35%1:t10'
p3267
sS'drel'
p3268
S'k2:VGF2'
p3269
ssbsg38
I00
sg39
I00
sg40
Nsg41
Nsg42
I3
sg43
I6
sg44
Nsg45
Nsg46
S'NN'
p3270
sg48
g3249
sg49
I00
sba(issf_api
Word
p3271
(dp3272
g6
I00
sg7
V\u0938\u0940\u092e\u093e
p3273
sg9
(issf_api
FeatureSet
p3274
(dp3275
g12
(dp3276
S'posn'
p3277
S'60'
p3278
sS'name'
p3279
S'\xe0\xa4\xb8\xe0\xa5\x80\xe0\xa4\xae\xe0\xa4\xbe'
p3280
sS'drel'
p3281
S'pof__cn:NP3'
p3282
sS'chunktype'
p3283
S'child:NP3'
p3284
sS'af'
p3285
S'\xe0\xa4\xb8\xe0\xa5\x80\xe0\xa4\xae\xe0\xa4\xbe,n,f,sg,3,d,0,0'
p3286
ssbsg38
I00
sg39
I00
sg40
Nsg41
Nsg42
I4
sg43
I6
sg44
Nsg45
Nsg46
S'NNPC'
p3287
sg48
g3274
sg49
I00
sba(issf_api
Word
p3288
(dp3289
g6
I00
sg7
V\u0935\u093f\u0915\u093e\u0938
p3290
sg9
(issf_api
FeatureSet
p3291
(dp3292
g12
(dp3293
S'posn'
p3294
S'70'
p3295
sS'name'
p3296
S'\xe0\xa4\xb5\xe0\xa4\xbf\xe0\xa4\x95\xe0\xa4\xbe\xe0\xa4\xb8'
p3297
sS'drel'
p3298
S'pof__cn:NP3'
p3299
sS'chunktype'
p3300
S'child:NP3'
p3301
sS'af'
p3302
S'\xe0\xa4\xb5\xe0\xa4\xbf\xe0\xa4\x95\xe0\xa4\xbe\xe0\xa4\xb8,n,m,sg,3,d,0,0'
p3303
ssbsg38
I00
sg39
I00
sg40
Nsg41
Nsg42
I4
sg43
I6
sg44
Nsg45
Nsg46
S'NNPC'
p3304
sg48
g3291
sg49
I00
sba(issf_api
Word
p3305
(dp3306
g6
I00
sg7
V\u092f\u094b\u091c\u0928\u093e
p3307
sg9
(issf_api
FeatureSet
p3308
(dp3309
g12
(dp3310
S'posn'
p3311
S'80'
p3312
sS'name'
p3313
S'\xe0\xa4\xaf\xe0\xa5\x8b\xe0\xa4\x9c\xe0\xa4\xa8\xe0\xa4\xbe2'
p3314
sS'af'
p3315
S'\xe0\xa4\xaf\xe0\xa5\x8b\xe0\xa4\x9c\xe0\xa4\xa8\xe0\xa4\xbe,n,f,sg,3,o,0_\xe0\xa4\x95\xe0\xa4\xbe,0'
p3316
sS'chunkid'
p3317
S'NP3'
p3318
sS'drel'
p3319
S'r6:NP4'
p3320
sS'vpos'
p3321
S'vib_4'
p3322
sS'chunktype'
p3323
S'head:NP3'
p3324
ssbsg38
I00
sg39
I00
sg40
Nsg41
Nsg42
I4
sg43
I6
sg44
Nsg45
Nsg46
S'NNP'
p3325
sg48
g3308
sg49
I00
sba(issf_api
Word
p3326
(dp3327
g6
I00
sg7
V\u0915\u0940
p3328
sg9
(issf_api
FeatureSet
p3329
(dp3330
g12
(dp3331
S'posn'
p3332
S'90'
p3333
sS'name'
p3334
S'\xe0\xa4\x95\xe0\xa5\x80'
p3335
sS'drel'
p3336
S'lwg__psp:NP3'
p3337
sS'chunktype'
p3338
S'child:NP3'
p3339
sS'af'
p3340
S'\xe0\xa4\x95\xe0\xa4\xbe,psp,f,sg,,o,,'
p3341
ssbsg38
I00
sg39
I00
sg40
Nsg41
Nsg42
I4
sg43
I6
sg44
Nsg45
Nsg46
S'PSP'
p3342
sg48
g3329
sg49
I00
sba(issf_api
Word
p3343
(dp3344
g6
I00
sg7
V\u0924\u0930\u094d\u091c
p3345
sg9
(issf_api
FeatureSet
p3346
(dp3347
g12
(dp3348
S'posn'
p3349
S'100'
p3350
sS'name'
p3351
S'\xe0\xa4\xa4\xe0\xa4\xb0\xe0\xa5\x8d\xe0\xa4\x9c'
p3352
sS'af'
p3353
S'\xe0\xa4\xa4\xe0\xa4\xb0\xe0\xa5\x8d\xe0\xa4\x9c,n,f,sg,3,o,0_\xe0\xa4\xaa\xe0\xa4\xb0,0'
p3354
sS'chunkid'
p3355
S'NP4'
p3356
sS'drel'
p3357
S'k7:VGF2'
p3358
sS'vpos'
p3359
S'vib_2'
p3360
sS'chunktype'
p3361
S'head:NP4'
p3362
ssbsg38
I00
sg39
I00
sg40
Nsg41
Nsg42
I5
sg43
I6
sg44
Nsg45
Nsg46
S'NN'
p3363
sg48
g3346
sg49
I00
sba(issf_api
Word
p3364
(dp3365
g6
I00
sg7
V\u092a\u0930
p3366
sg9
(issf_api
FeatureSet
p3367
(dp3368
g12
(dp3369
S'posn'
p3370
S'110'
p3371
sS'name'
p3372
S'\xe0\xa4\xaa\xe0\xa4\xb0'
p3373
sS'drel'
p3374
S'lwg__psp:NP4'
p3375
sS'chunktype'
p3376
S'child:NP4'
p3377
sS'af'
p3378
S'\xe0\xa4\xaa\xe0\xa4\xb0,psp,,,,,,'
p3379
ssbsg38
I00
sg39
I00
sg40
Nsg41
Nsg42
I5
sg43
I6
sg44
Nsg45
Nsg46
S'PSP'
p3380
sg48
g3367
sg49
I00
sba(issf_api
Word
p3381
(dp3382
g6
I00
sg7
V\u0939\u094b\u0928\u0940
p3383
sg9
(issf_api
FeatureSet
p3384
(dp3385
g12
(dp3386
S'posn'
p3387
S'120'
p3388
sS'name'
p3389
S'\xe0\xa4\xb9\xe0\xa5\x8b\xe0\xa4\xa8\xe0\xa5\x80'
p3390
sS'af'
p3391
S'\xe0\xa4\xb9\xe0\xa5\x8b,v,f,any,any,,\xe0\xa4\xa8\xe0\xa4\xbe_\xe0\xa4\x9a\xe0\xa4\xbe\xe0\xa4\xb9\xe0\xa4\xbf\xe0\xa4\x8f,nA'
p3392
sS'chunkid'
p3393
S'VGF2'
p3394
sS'stype'
p3395
S'declarative'
p3396
sS'drel'
p3397
S'ccof:CCP'
p3398
sS'voicetype'
p3399
S'active'
p3400
sS'vpos'
p3401
S'tam_2'
p3402
sS'chunktype'
p3403
S'head:VGF2'
p3404
ssbsg38
I00
sg39
I00
sg40
Nsg41
Nsg42
I6
sg43
I6
sg44
Nsg45
Nsg46
S'VM'
p3405
sg48
g3384
sg49
I00
sba(issf_api
Word
p3406
(dp3407
g6
I00
sg7
V\u091a\u093e\u0939\u093f\u090f
p3408
sg9
(issf_api
FeatureSet
p3409
(dp3410
g12
(dp3411
S'posn'
p3412
S'130'
p3413
sS'name'
p3414
S'\xe0\xa4\x9a\xe0\xa4\xbe\xe0\xa4\xb9\xe0\xa4\xbf\xe0\xa4\x8f'
p3415
sS'drel'
p3416
S'lwg__vaux:VGF2'
p3417
sS'chunktype'
p3418
S'child:VGF2'
p3419
sS'af'
p3420
S'\xe0\xa4\x9a\xe0\xa4\xbe\xe0\xa4\xb9\xe0\xa4\xbf\xe0\xa4\x8f,v,any,any,any,,0,0'
p3421
ssbsg38
I00
sg39
I00
sg40
Nsg41
Nsg42
I6
sg43
I6
sg44
Nsg45
Nsg46
S'VAUX'
p3422
sg48
g3409
sg49
I00
sba(issf_api
Word
p3423
(dp3424
g6
I00
sg7
V\u0924\u093e\u0915\u093f
p3425
sg9
(issf_api
FeatureSet
p3426
(dp3427
g12
(dp3428
S'posn'
p3429
S'140'
p3430
sS'name'
p3431
S'\xe0\xa4\xa4\xe0\xa4\xbe\xe0\xa4\x95\xe0\xa4\xbf'
p3432
sS'af'
p3433
S'\xe0\xa4\xa4\xe0\xa4\xbe\xe0\xa4\x95\xe0\xa4\xbf,avy,,,,,,'
p3434
sS'chunkid'
p3435
S'CCP2'
p3436
sS'drel'
p3437
S'vmod:VGF2'
p3438
sS'chunktype'
p3439
S'head:CCP2'
p3440
ssbsg38
I00
sg39
I00
sg40
Nsg41
Nsg42
I7
sg43
I6
sg44
Nsg45
Nsg46
S'CC'
p3441
sg48
g3426
sg49
I00
sba(issf_api
Word
p3442
(dp3443
g6
I00
sg7
V\u0930\u093e\u0937\u094d\u091f\u094d\u0930\u0940\u092f
p3444
sg9
(issf_api
FeatureSet
p3445
(dp3446
g12
(dp3447
S'posn'
p3448
S'150'
p3449
sS'name'
p3450
S'\xe0\xa4\xb0\xe0\xa4\xbe\xe0\xa4\xb7\xe0\xa5\x8d\xe0\xa4\x9f\xe0\xa5\x8d\xe0\xa4\xb0\xe0\xa5\x80\xe0\xa4\xaf'
p3451
sS'drel'
p3452
S'nmod__adj:NP5'
p3453
sS'chunktype'
p3454
S'child:NP5'
p3455
sS'af'
p3456
S'\xe0\xa4\xb0\xe0\xa4\xbe\xe0\xa4\xb7\xe0\xa5\x8d\xe0\xa4\x9f\xe0\xa5\x8d\xe0\xa4\xb0\xe0\xa5\x80\xe0\xa4\xaf,adj,any,any,,o,,'
p3457
ssbsg38
I00
sg39
I00
sg40
Nsg41
Nsg42
I8
sg43
I6
sg44
Nsg45
Nsg46
S'JJ'
p3458
sg48
g3445
sg49
I00
sba(issf_api
Word
p3459
(dp3460
g6
I00
sg7
V\u0938\u0941\u0930\u0915\u094d\u0937\u093e
p3461
sg9
(issf_api
FeatureSet
p3462
(dp3463
g12
(dp3464
S'posn'
p3465
S'160'
p3466
sS'name'
p3467
S'\xe0\xa4\xb8\xe0\xa5\x81\xe0\xa4\xb0\xe0\xa4\x95\xe0\xa5\x8d\xe0\xa4\xb7\xe0\xa4\xbe'
p3468
sS'af'
p3469
S'\xe0\xa4\xb8\xe0\xa5\x81\xe0\xa4\xb0\xe0\xa4\x95\xe0\xa5\x8d\xe0\xa4\xb7\xe0\xa4\xbe,n,f,sg,3,o,0_\xe0\xa4\x95\xe0\xa5\x8b,0'
p3470
sS'chunkid'
p3471
S'NP5'
p3472
sS'drel'
p3473
S'k2:VGF3'
p3474
sS'vpos'
p3475
S'vib_3'
p3476
sS'chunktype'
p3477
S'head:NP5'
p3478
ssbsg38
I00
sg39
I00
sg40
Nsg41
Nsg42
I8
sg43
I6
sg44
Nsg45
Nsg46
S'NN'
p3479
sg48
g3462
sg49
I00
sba(issf_api
Word
p3480
(dp3481
g6
I00
sg7
V\u0915\u094b
p3482
sg9
(issf_api
FeatureSet
p3483
(dp3484
g12
(dp3485
S'posn'
p3486
S'170'
p3487
sS'name'
p3488
S'\xe0\xa4\x95\xe0\xa5\x8b'
p3489
sS'drel'
p3490
S'lwg__psp:NP5'
p3491
sS'chunktype'
p3492
S'child:NP5'
p3493
sS'af'
p3494
S'\xe0\xa4\x95\xe0\xa5\x8b,psp,,,,,,'
p3495
ssbsg38
I00
sg39
I00
sg40
Nsg41
Nsg42
I8
sg43
I6
sg44
Nsg45
Nsg46
S'PSP'
p3496
sg48
g3483
sg49
I00
sba(issf_api
Word
p3497
(dp3498
g6
I00
sg7
V\u092e\u091c\u092c\u0942\u0924\u0940
p3499
sg9
(issf_api
FeatureSet
p3500
(dp3501
g12
(dp3502
S'posn'
p3503
S'180'
p3504
sS'name'
p3505
S'\xe0\xa4\xae\xe0\xa4\x9c\xe0\xa4\xac\xe0\xa5\x82\xe0\xa4\xa4\xe0\xa5\x80'
p3506
sS'af'
p3507
S'\xe0\xa4\xae\xe0\xa4\x9c\xe0\xa4\xac\xe0\xa5\x82\xe0\xa4\xa4\xe0\xa5\x80,n,f,sg,3,d,0,0'
p3508
sS'chunkid'
p3509
S'NP6'
p3510
sS'drel'
p3511
S'pof:VGF3'
p3512
sS'chunktype'
p3513
S'head:NP6'
p3514
ssbsg38
I00
sg39
I00
sg40
Nsg41
Nsg42
I9
sg43
I6
sg44
Nsg45
Nsg46
S'NN'
p3515
sg48
g3500
sg49
I00
sba(issf_api
Word
p3516
(dp3517
g6
I00
sg7
V\u092e\u093f\u0932
p3518
sg9
(issf_api
FeatureSet
p3519
(dp3520
g12
(dp3521
S'posn'
p3522
S'190'
p3523
sS'name'
p3524
S'\xe0\xa4\xae\xe0\xa4\xbf\xe0\xa4\xb2'
p3525
sS'af'
p3526
S'\xe0\xa4\xae\xe0\xa4\xbf\xe0\xa4\xb2,v,any,sg,3,,0_\xe0\xa4\xb8\xe0\xa4\x95+\xe0\xa4\x8f\xe0\xa4\x82,0'
p3527
sS'chunkid'
p3528
S'VGF3'
p3529
sS'stype'
p3530
S'declarative'
p3531
sS'drel'
p3532
S'ccof:CCP2'
p3533
sS'voicetype'
p3534
S'active'
p3535
sS'vpos'
p3536
S'tam_2'
p3537
sS'chunktype'
p3538
S'head:VGF3'
p3539
ssbsg38
I00
sg39
I00
sg40
Nsg41
Nsg42
I10
sg43
I6
sg44
Nsg45
Nsg46
S'VM'
p3540
sg48
g3519
sg49
I00
sba(issf_api
Word
p3541
(dp3542
g6
I00
sg7
V\u0938\u0915\u0947
p3543
sg9
(issf_api
FeatureSet
p3544
(dp3545
g12
(dp3546
S'posn'
p3547
S'200'
p3548
sS'name'
p3549
S'\xe0\xa4\xb8\xe0\xa4\x95\xe0\xa5\x87'
p3550
sS'drel'
p3551
S'lwg__vaux:VGF3'
p3552
sS'chunktype'
p3553
S'child:VGF3'
p3554
sS'af'
p3555
S'\xe0\xa4\xb8\xe0\xa4\x95,v,any,sg,3,,\xe0\xa4\x8f\xe0\xa4\x82,eM'
p3556
ssbsg38
I00
sg39
I00
sg40
Nsg41
Nsg42
I10
sg43
I6
sg44
Nsg45
Nsg46
S'VAUX'
p3557
sg48
g3544
sg49
I00
sba(issf_api
Word
p3558
(dp3559
g6
I00
sg7
V\u0964
p3560
sg9
(issf_api
FeatureSet
p3561
(dp3562
g12
(dp3563
S'posn'
p3564
S'210'
p3565
sS'name'
p3566
S'\xe0\xa5\xa4'
p3567
sS'af'
p3568
S'\xe0\xa5\xa4,punc,,,,,,'
p3569
sS'chunkid'
p3570
S'BLK'
p3571
sS'drel'
p3572
S'rsym:VGF'
p3573
sS'chunktype'
p3574
S'head:BLK'
p3575
ssbsg38
I00
sg39
I00
sg40
Nsg41
Nsg42
I11
sg43
I6
sg44
Nsg45
Nsg46
S'SYM'
p3576
sg48
g3561
sg49
I00
sba(issf_api
Word
p3577
(dp3578
g6
I00
sg7
V\u092e\u094b\u0926\u0940
p3579
sg9
(issf_api
FeatureSet
p3580
(dp3581
g12
(dp3582
S'crefhead'
p3583
S'\xe0\xa4\xae\xe0\xa5\x8b\xe0\xa4\xa6\xe0\xa5\x80:i36'
p3584
sS'posn'
p3585
S'10'
p3586
sS'name'
p3587
S'\xe0\xa4\xae\xe0\xa5\x8b\xe0\xa4\xa6\xe0\xa5\x80'
p3588
sS'af'
p3589
S'\xe0\xa4\xae\xe0\xa5\x8b\xe0\xa4\xa6\xe0\xa5\x80,n,m,sg,3,o,0_\xe0\xa4\xa8\xe0\xa5\x87,0'
p3590
sS'chunkid'
p3591
S'NP'
p3592
sS'creftype'
p3593
S'Coreference-Identity:i34'
p3594
sS'chunktype'
p3595
S'head:NP'
p3596
sS'vpos'
p3597
S'vib_2'
p3598
sS'cref'
p3599
S'i36%1:t2'
p3600
sS'drel'
p3601
S'k1:VGF'
p3602
ssbsg38
I00
sg39
I00
sg40
Nsg41
Nsg42
I0
sg43
I7
sg44
Nsg45
Nsg46
S'NNP'
p3603
sg48
g3580
sg49
I00
sba(issf_api
Word
p3604
(dp3605
g6
I00
sg7
V\u0928\u0947
p3606
sg9
(issf_api
FeatureSet
p3607
(dp3608
g12
(dp3609
S'posn'
p3610
S'20'
p3611
sS'name'
p3612
S'\xe0\xa4\xa8\xe0\xa5\x87'
p3613
sS'drel'
p3614
S'lwg__psp:NP'
p3615
sS'chunktype'
p3616
S'child:NP'
p3617
sS'af'
p3618
S'\xe0\xa4\xa8\xe0\xa5\x87,psp,,,,,,'
p3619
ssbsg38
I00
sg39
I00
sg40
Nsg41
Nsg42
I0
sg43
I7
sg44
Nsg45
Nsg46
S'PSP'
p3620
sg48
g3607
sg49
I00
sba(issf_api
Word
p3621
(dp3622
g6
I00
sg7
V\u0915\u0939\u093e
p3623
sg9
(issf_api
FeatureSet
p3624
(dp3625
g12
(dp3626
S'posn'
p3627
S'30'
p3628
sS'name'
p3629
S'\xe0\xa4\x95\xe0\xa4\xb9\xe0\xa4\xbe'
p3630
sS'af'
p3631
S'\xe0\xa4\x95\xe0\xa4\xb9,v,m,sg,any,,\xe0\xa4\xaf\xe0\xa4\xbe,yA'
p3632
sS'chunkid'
p3633
S'VGF'
p3634
sS'chunktype'
p3635
S'head:VGF'
p3636
sS'voicetype'
p3637
S'active'
p3638
sS'stype'
p3639
S'declarative'
p3640
ssbsg38
I00
sg39
I00
sg40
Nsg41
Nsg42
I1
sg43
I7
sg44
Nsg45
Nsg46
S'VM'
p3641
sg48
g3624
sg49
I00
sba(issf_api
Word
p3642
(dp3643
g6
I00
sg7
V\u0915\u093f
p3644
sg9
(issf_api
FeatureSet
p3645
(dp3646
g12
(dp3647
S'posn'
p3648
S'40'
p3649
sS'name'
p3650
S'\xe0\xa4\x95\xe0\xa4\xbf'
p3651
sS'af'
p3652
S'\xe0\xa4\x95\xe0\xa4\xbf,avy,,,,,,'
p3653
sS'chunkid'
p3654
S'CCP'
p3655
sS'drel'
p3656
S'k2:VGF'
p3657
sS'chunktype'
p3658
S'head:CCP'
p3659
ssbsg38
I00
sg39
I00
sg40
Nsg41
Nsg42
I2
sg43
I7
sg44
Nsg45
Nsg46
S'CC'
p3660
sg48
g3645
sg49
I00
sba(issf_api
Word
p3661
(dp3662
g6
I00
sg7
V\u0909\u0928\u0915\u0940
p3663
sg9
(issf_api
FeatureSet
p3664
(dp3665
g12
(dp3666
S'crefhead'
p3667
S'\xe0\xa4\x89\xe0\xa4\xa8\xe0\xa4\x95\xe0\xa5\x80:i37'
p3668
sS'posn'
p3669
S'50'
p3670
sS'name'
p3671
S'\xe0\xa4\x89\xe0\xa4\xa8\xe0\xa4\x95\xe0\xa5\x80'
p3672
sS'af'
p3673
S'\xe0\xa4\xb5\xe0\xa4\xb9,pn,f,sg,3h,o,\xe0\xa4\x95\xe0\xa4\xbe,kA'
p3674
sS'chunkid'
p3675
S'NP2'
p3676
sS'creftype'
p3677
S'Anaphora-C:i36'
p3678
sS'chunktype'
p3679
S'head:NP2'
p3680
sS'cref'
p3681
S'i37%1:t2'
p3682
sS'drel'
p3683
S'r6-k1:NP4'
p3684
ssbsg38
I00
sg39
I00
sg40
Nsg41
Nsg42
I3
sg43
I7
sg44
Nsg45
Nsg46
S'PRP'
p3685
sg48
g3664
sg49
I00
sba(issf_api
Word
p3686
(dp3687
g6
I00
sg7
V\u092a\u093e\u091f\u093f\u0932
p3688
sg9
(issf_api
FeatureSet
p3689
(dp3690
g12
(dp3691
S'crefhead'
p3692
S'\xe0\xa4\xaa\xe0\xa4\xbe\xe0\xa4\x9f\xe0\xa4\xbf\xe0\xa4\xb2:i38'
p3693
sS'posn'
p3694
S'60'
p3695
sS'name'
p3696
S'\xe0\xa4\xaa\xe0\xa4\xbe\xe0\xa4\x9f\xe0\xa4\xbf\xe0\xa4\xb2'
p3697
sS'af'
p3698
S'\xe0\xa4\xaa\xe0\xa4\xbe\xe0\xa4\x9f\xe0\xa4\xbf\xe0\xa4\xb2,n,m,sg,3,o,0_\xe0\xa4\x95\xe0\xa5\x87_\xe0\xa4\xb8\xe0\xa4\xbe\xe0\xa4\xa5,0'
p3699
sS'chunkid'
p3700
S'NP3'
p3701
sS'creftype'
p3702
S'Coreference-Identity:i26'
p3703
sS'chunktype'
p3704
S'head:NP3'
p3705
sS'vpos'
p3706
S'vib_2_3'
p3707
sS'cref'
p3708
S'i38%1:t3'
p3709
sS'drel'
p3710
S'ras-k2:VGF2'
p3711
ssbsg38
I00
sg39
I00
sg40
Nsg41
Nsg42
I4
sg43
I7
sg44
Nsg45
Nsg46
S'NNP'
p3712
sg48
g3689
sg49
I00
sba(issf_api
Word
p3713
(dp3714
g6
I00
sg7
V\u0915\u0947
p3715
sg9
(issf_api
FeatureSet
p3716
(dp3717
g12
(dp3718
S'posn'
p3719
S'70'
p3720
sS'name'
p3721
S'\xe0\xa4\x95\xe0\xa5\x87'
p3722
sS'drel'
p3723
S'lwg__psp:NP3'
p3724
sS'chunktype'
p3725
S'child:NP3'
p3726
sS'af'
p3727
S'\xe0\xa4\x95\xe0\xa5\x87,psp,,,,,,'
p3728
ssbsg38
I00
sg39
I00
sg40
Nsg41
Nsg42
I4
sg43
I7
sg44
Nsg45
Nsg46
S'PSP'
p3729
sg48
g3716
sg49
I00
sba(issf_api
Word
p3730
(dp3731
g6
I00
sg7
V\u0938\u093e\u0925
p3732
sg9
(issf_api
FeatureSet
p3733
(dp3734
g12
(dp3735
S'posn'
p3736
S'80'
p3737
sS'name'
p3738
S'\xe0\xa4\xb8\xe0\xa4\xbe\xe0\xa4\xa5'
p3739
sS'drel'
p3740
S'lwg__psp:NP3'
p3741
sS'chunktype'
p3742
S'child:NP3'
p3743
sS'af'
p3744
S'\xe0\xa4\xb8\xe0\xa4\xbe\xe0\xa4\xa5,nst,m,sg,3,d,,'
p3745
ssbsg38
I00
sg39
I00
sg40
Nsg41
Nsg42
I4
sg43
I7
sg44
Nsg45
Nsg46
S'NST'
p3746
sg48
g3733
sg49
I00
sba(issf_api
Word
p3747
(dp3748
g6
I00
sg7
V\u0917\u0939\u0928
p3749
sg9
(issf_api
FeatureSet
p3750
(dp3751
g12
(dp3752
S'posn'
p3753
S'90'
p3754
sS'name'
p3755
S'\xe0\xa4\x97\xe0\xa4\xb9\xe0\xa4\xa8'
p3756
sS'af'
p3757
S'\xe0\xa4\x97\xe0\xa4\xb9\xe0\xa4\xa8,adj,any,any,,d,,'
p3758
sS'drel'
p3759
S'nmod__adj:NP4'
p3760
sS'chunktype'
p3761
S'child:NP4'
p3762
sS'cref'
p3763
S'i39%0:t8'
p3764
ssbsg38
I00
sg39
I00
sg40
Nsg41
Nsg42
I5
sg43
I7
sg44
Nsg45
Nsg46
S'JJ'
p3765
sg48
g3750
sg49
I00
sba(issf_api
Word
p3766
(dp3767
g6
I00
sg7
V\u092c\u0948\u0920\u0915
p3768
sg9
(issf_api
FeatureSet
p3769
(dp3770
g12
(dp3771
S'crefhead'
p3772
S'\xe0\xa4\xac\xe0\xa5\x88\xe0\xa4\xa0\xe0\xa4\x95:i39'
p3773
sS'posn'
p3774
S'100'
p3775
sS'name'
p3776
S'\xe0\xa4\xac\xe0\xa5\x88\xe0\xa4\xa0\xe0\xa4\x95'
p3777
sS'af'
p3778
S'\xe0\xa4\xac\xe0\xa5\x88\xe0\xa4\xa0\xe0\xa4\x95,n,f,sg,3,d,0,0'
p3779
sS'chunkid'
p3780
S'NP4'
p3781
sS'creftype'
p3782
S'Coreference-Identity:i29'
p3783
sS'chunktype'
p3784
S'head:NP4'
p3785
sS'cref'
p3786
S'i39%1:t8'
p3787
sS'drel'
p3788
S'pof:VGF2'
p3789
ssbsg38
I00
sg39
I00
sg40
Nsg41
Nsg42
I5
sg43
I7
sg44
Nsg45
Nsg46
S'NN'
p3790
sg48
g3769
sg49
I00
sba(issf_api
Word
p3791
(dp3792
g6
I00
sg7
V\u0939\u0941\u0908
p3793
sg9
(issf_api
FeatureSet
p3794
(dp3795
g12
(dp3796
S'posn'
p3797
S'110'
p3798
sS'name'
p3799
S'\xe0\xa4\xb9\xe0\xa5\x81\xe0\xa4\x88'
p3800
sS'af'
p3801
S'\xe0\xa4\xb9\xe0\xa5\x8b,v,f,sg,3,,\xe0\xa4\xaf\xe0\xa4\xbe_\xe0\xa4\xb9\xe0\xa5\x88,yA'
p3802
sS'chunkid'
p3803
S'VGF2'
p3804
sS'stype'
p3805
S'declarative'
p3806
sS'drel'
p3807
S'ccof:CCP2'
p3808
sS'voicetype'
p3809
S'active'
p3810
sS'vpos'
p3811
S'tam_2'
p3812
sS'chunktype'
p3813
S'head:VGF2'
p3814
ssbsg38
I00
sg39
I00
sg40
Nsg41
Nsg42
I6
sg43
I7
sg44
Nsg45
Nsg46
S'VM'
p3815
sg48
g3794
sg49
I00
sba(issf_api
Word
p3816
(dp3817
g6
I00
sg7
V\u0939\u0948
p3818
sg9
(issf_api
FeatureSet
p3819
(dp3820
g12
(dp3821
S'posn'
p3822
S'120'
p3823
sS'name'
p3824
S'\xe0\xa4\xb9\xe0\xa5\x88'
p3825
sS'drel'
p3826
S'lwg__vaux:VGF2'
p3827
sS'chunktype'
p3828
S'child:VGF2'
p3829
sS'af'
p3830
S'\xe0\xa4\xb9\xe0\xa5\x88,v,any,sg,3,,\xe0\xa4\xb9\xe0\xa5\x88,hE'
p3831
ssbsg38
I00
sg39
I00
sg40
Nsg41
Nsg42
I6
sg43
I7
sg44
Nsg45
Nsg46
S'VAUX'
p3832
sg48
g3819
sg49
I00
sba(issf_api
Word
p3833
(dp3834
g6
I00
sg7
V\u0914\u0930
p3835
sg9
(issf_api
FeatureSet
p3836
(dp3837
g12
(dp3838
S'posn'
p3839
S'130'
p3840
sS'name'
p3841
S'\xe0\xa4\x94\xe0\xa4\xb0'
p3842
sS'af'
p3843
S'\xe0\xa4\x94\xe0\xa4\xb0,avy,,,,,,'
p3844
sS'chunkid'
p3845
S'CCP2'
p3846
sS'drel'
p3847
S'ccof:CCP'
p3848
sS'chunktype'
p3849
S'head:CCP2'
p3850
ssbsg38
I00
sg39
I00
sg40
Nsg41
Nsg42
I7
sg43
I7
sg44
Nsg45
Nsg46
S'CC'
p3851
sg48
g3836
sg49
I00
sba(issf_api
Word
p3852
(dp3853
g6
I00
sg7
V\u0917\u0943\u0939
p3854
sg9
(issf_api
FeatureSet
p3855
(dp3856
g12
(dp3857
S'posn'
p3858
S'140'
p3859
sS'name'
p3860
S'\xe0\xa4\x97\xe0\xa5\x83\xe0\xa4\xb9'
p3861
sS'af'
p3862
S'\xe0\xa4\x97\xe0\xa5\x83\xe0\xa4\xb9,n,m,sg,3,d,0,0'
p3863
sS'drel'
p3864
S'pof__cn:NP5'
p3865
sS'chunktype'
p3866
S'child:NP5'
p3867
sS'cref'
p3868
S'i40%0:t3'
p3869
ssbsg38
I00
sg39
I00
sg40
Nsg41
Nsg42
I8
sg43
I7
sg44
Nsg45
Nsg46
S'NNPC'
p3870
sg48
g3855
sg49
I00
sba(issf_api
Word
p3871
(dp3872
g6
I00
sg7
V\u092e\u0902\u0924\u094d\u0930\u0940
p3873
sg9
(issf_api
FeatureSet
p3874
(dp3875
g12
(dp3876
S'crefhead'
p3877
S'\xe0\xa4\xae\xe0\xa4\x82\xe0\xa4\xa4\xe0\xa5\x8d\xe0\xa4\xb0\xe0\xa5\x80:i40'
p3878
sS'posn'
p3879
S'150'
p3880
sS'name'
p3881
S'\xe0\xa4\xae\xe0\xa4\x82\xe0\xa4\xa4\xe0\xa5\x8d\xe0\xa4\xb0\xe0\xa5\x80'
p3882
sS'af'
p3883
S'\xe0\xa4\xae\xe0\xa4\x82\xe0\xa4\xa4\xe0\xa5\x8d\xe0\xa4\xb0\xe0\xa5\x80,n,m,sg,3,o,0_\xe0\xa4\xa8\xe0\xa5\x87,0'
p3884
sS'chunkid'
p3885
S'NP5'
p3886
sS'creftype'
p3887
S'Coreference-Noun-Noun:i38'
p3888
sS'chunktype'
p3889
S'head:NP5'
p3890
sS'vpos'
p3891
S'vib_3'
p3892
sS'cref'
p3893
S'i40%1:t3'
p3894
sS'drel'
p3895
S'k1:VGF3'
p3896
ssbsg38
I00
sg39
I00
sg40
Nsg41
Nsg42
I8
sg43
I7
sg44
Nsg45
Nsg46
S'NNP'
p3897
sg48
g3874
sg49
I00
sba(issf_api
Word
p3898
(dp3899
g6
I00
sg7
V\u0928\u0947
p3900
sg9
(issf_api
FeatureSet
p3901
(dp3902
g12
(dp3903
S'posn'
p3904
S'160'
p3905
sS'name'
p3906
S'\xe0\xa4\xa8\xe0\xa5\x872'
p3907
sS'drel'
p3908
S'lwg__psp:NP5'
p3909
sS'chunktype'
p3910
S'child:NP5'
p3911
sS'af'
p3912
S'\xe0\xa4\xa8\xe0\xa5\x87,psp,,,,,,'
p3913
ssbsg38
I00
sg39
I00
sg40
Nsg41
Nsg42
I8
sg43
I7
sg44
Nsg45
Nsg46
S'PSP'
p3914
sg48
g3901
sg49
I00
sba(issf_api
Word
p3915
(dp3916
g6
I00
sg7
V\u0909\u0928\u0915\u0947
p3917
sg9
(issf_api
FeatureSet
p3918
(dp3919
g12
(dp3920
S'crefhead'
p3921
S'\xe0\xa4\x89\xe0\xa4\xa8\xe0\xa4\x95\xe0\xa5\x87:i41'
p3922
sS'posn'
p3923
S'170'
p3924
sS'name'
p3925
S'\xe0\xa4\x89\xe0\xa4\xa8\xe0\xa4\x95\xe0\xa5\x87'
p3926
sS'af'
p3927
S'\xe0\xa4\xb5\xe0\xa4\xb9,pn,m,sg,3h,o,\xe0\xa4\x95\xe0\xa4\xbe,kA'
p3928
sS'chunkid'
p3929
S'NP6'
p3930
sS'creftype'
p3931
S'Anaphora-C:i37'
p3932
sS'chunktype'
p3933
S'head:NP6'
p3934
sS'cref'
p3935
S'i41%1:t2'
p3936
sS'drel'
p3937
S'r6:NP7'
p3938
ssbsg38
I00
sg39
I00
sg40
Nsg41
Nsg42
I9
sg43
I7
sg44
Nsg45
Nsg46
S'PRP'
p3939
sg48
g3918
sg49
I00
sba(issf_api
Word
p3940
(dp3941
g6
I00
sg7
V\u092a\u094d\u0930\u0938\u094d\u0924\u093e\u0935\u094b\u0902
p3942
sg9
(issf_api
FeatureSet
p3943
(dp3944
g12
(dp3945
S'posn'
p3946
S'180'
p3947
sS'name'
p3948
S'\xe0\xa4\xaa\xe0\xa5\x8d\xe0\xa4\xb0\xe0\xa4\xb8\xe0\xa5\x8d\xe0\xa4\xa4\xe0\xa4\xbe\xe0\xa4\xb5\xe0\xa5\x8b\xe0\xa4\x82'
p3949
sS'af'
p3950
S'\xe0\xa4\xaa\xe0\xa5\x8d\xe0\xa4\xb0\xe0\xa4\xb8\xe0\xa5\x8d\xe0\xa4\xa4\xe0\xa4\xbe\xe0\xa4\xb5,n,m,pl,3,o,0_\xe0\xa4\x95\xe0\xa5\x8b,0'
p3951
sS'chunkid'
p3952
S'NP7'
p3953
sS'drel'
p3954
S'k2:VGF3'
p3955
sS'vpos'
p3956
S'vib_2'
p3957
sS'chunktype'
p3958
S'head:NP7'
p3959
ssbsg38
I00
sg39
I00
sg40
Nsg41
Nsg42
I10
sg43
I7
sg44
Nsg45
Nsg46
S'NN'
p3960
sg48
g3943
sg49
I00
sba(issf_api
Word
p3961
(dp3962
g6
I00
sg7
V\u0915\u094b
p3963
sg9
(issf_api
FeatureSet
p3964
(dp3965
g12
(dp3966
S'posn'
p3967
S'190'
p3968
sS'name'
p3969
S'\xe0\xa4\x95\xe0\xa5\x8b'
p3970
sS'drel'
p3971
S'lwg__psp:NP7'
p3972
sS'chunktype'
p3973
S'child:NP7'
p3974
sS'af'
p3975
S'\xe0\xa4\x95\xe0\xa5\x8b,psp,,,,,,'
p3976
ssbsg38
I00
sg39
I00
sg40
Nsg41
Nsg42
I10
sg43
I7
sg44
Nsg45
Nsg46
S'PSP'
p3977
sg48
g3964
sg49
I00
sba(issf_api
Word
p3978
(dp3979
g6
I00
sg7
V\u0915\u093e\u092b\u0940
p3980
sg9
(issf_api
FeatureSet
p3981
(dp3982
g12
(dp3983
S'posn'
p3984
S'200'
p3985
sS'name'
p3986
S'\xe0\xa4\x95\xe0\xa4\xbe\xe0\xa4\xab\xe0\xa5\x80'
p3987
sS'drel'
p3988
S'nmod__adj:NP8'
p3989
sS'chunktype'
p3990
S'child:NP8'
p3991
sS'af'
p3992
S'\xe0\xa4\x95\xe0\xa4\xbe\xe0\xa4\xab\xe0\xa5\x80,avy,,,,,,'
p3993
ssbsg38
I00
sg39
I00
sg40
Nsg41
Nsg42
I11
sg43
I7
sg44
Nsg45
Nsg46
S'QF'
p3994
sg48
g3981
sg49
I00
sba(issf_api
Word
p3995
(dp3996
g6
I00
sg7
V\u0927\u094d\u092f\u093e\u0928
p3997
sg9
(issf_api
FeatureSet
p3998
(dp3999
g12
(dp4000
S'posn'
p4001
S'210'
p4002
sS'name'
p4003
S'\xe0\xa4\xa7\xe0\xa5\x8d\xe0\xa4\xaf\xe0\xa4\xbe\xe0\xa4\xa8'
p4004
sS'af'
p4005
S'\xe0\xa4\xa7\xe0\xa5\x8d\xe0\xa4\xaf\xe0\xa4\xbe\xe0\xa4\xa8,n,m,sg,3,o,0_\xe0\xa4\xb8\xe0\xa5\x87,0'
p4006
sS'chunkid'
p4007
S'NP8'
p4008
sS'drel'
p4009
S'k3:VGF3'
p4010
sS'vpos'
p4011
S'vib_3'
p4012
sS'chunktype'
p4013
S'head:NP8'
p4014
ssbsg38
I00
sg39
I00
sg40
Nsg41
Nsg42
I11
sg43
I7
sg44
Nsg45
Nsg46
S'NN'
p4015
sg48
g3998
sg49
I00
sba(issf_api
Word
p4016
(dp4017
g6
I00
sg7
V\u0938\u0947
p4018
sg9
(issf_api
FeatureSet
p4019
(dp4020
g12
(dp4021
S'posn'
p4022
S'220'
p4023
sS'name'
p4024
S'\xe0\xa4\xb8\xe0\xa5\x87'
p4025
sS'drel'
p4026
S'lwg__psp:NP8'
p4027
sS'chunktype'
p4028
S'child:NP8'
p4029
sS'af'
p4030
S'\xe0\xa4\xb8\xe0\xa5\x87,psp,,,,,,'
p4031
ssbsg38
I00
sg39
I00
sg40
Nsg41
Nsg42
I11
sg43
I7
sg44
Nsg45
Nsg46
S'PSP'
p4032
sg48
g4019
sg49
I00
sba(issf_api
Word
p4033
(dp4034
g6
I00
sg7
V\u0938\u0941\u0928\u093e
p4035
sg9
(issf_api
FeatureSet
p4036
(dp4037
g12
(dp4038
S'posn'
p4039
S'230'
p4040
sS'name'
p4041
S'\xe0\xa4\xb8\xe0\xa5\x81\xe0\xa4\xa8\xe0\xa4\xbe'
p4042
sS'af'
p4043
S'\xe0\xa4\xb8\xe0\xa5\x81\xe0\xa4\xa8,v,m,sg,3,,\xe0\xa4\xaf\xe0\xa4\xbe_\xe0\xa4\xb9\xe0\xa5\x88,yA'
p4044
sS'chunkid'
p4045
S'VGF3'
p4046
sS'stype'
p4047
S'declarative'
p4048
sS'drel'
p4049
S'ccof:CCP2'
p4050
sS'voicetype'
p4051
S'active'
p4052
sS'vpos'
p4053
S'tam_2'
p4054
sS'chunktype'
p4055
S'head:VGF3'
p4056
ssbsg38
I00
sg39
I00
sg40
Nsg41
Nsg42
I12
sg43
I7
sg44
Nsg45
Nsg46
S'VM'
p4057
sg48
g4036
sg49
I00
sba(issf_api
Word
p4058
(dp4059
g6
I00
sg7
V\u0939\u0948
p4060
sg9
(issf_api
FeatureSet
p4061
(dp4062
g12
(dp4063
S'posn'
p4064
S'240'
p4065
sS'name'
p4066
S'\xe0\xa4\xb9\xe0\xa5\x882'
p4067
sS'drel'
p4068
S'lwg__vaux:VGF3'
p4069
sS'chunktype'
p4070
S'child:VGF3'
p4071
sS'af'
p4072
S'\xe0\xa4\xb9\xe0\xa5\x88,v,any,sg,3,,\xe0\xa4\xb9\xe0\xa5\x88,hE'
p4073
ssbsg38
I00
sg39
I00
sg40
Nsg41
Nsg42
I12
sg43
I7
sg44
Nsg45
Nsg46
S'VAUX'
p4074
sg48
g4061
sg49
I00
sba(issf_api
Word
p4075
(dp4076
g6
I00
sg7
V\u0964
p4077
sg9
(issf_api
FeatureSet
p4078
(dp4079
g12
(dp4080
S'posn'
p4081
S'250'
p4082
sS'name'
p4083
S'\xe0\xa5\xa4'
p4084
sS'af'
p4085
S'\xe0\xa5\xa4,punc,,,,,,'
p4086
sS'chunkid'
p4087
S'BLK'
p4088
sS'drel'
p4089
S'rsym:VGF'
p4090
sS'chunktype'
p4091
S'head:BLK'
p4092
ssbsg38
I00
sg39
I00
sg40
Nsg41
Nsg42
I13
sg43
I7
sg44
Nsg45
Nsg46
S'SYM'
p4093
sg48
g4078
sg49
I00
sba(issf_api
Word
p4094
(dp4095
g6
I00
sg7
V\u0917\u0943\u0939
p4096
sg9
(issf_api
FeatureSet
p4097
(dp4098
g12
(dp4099
S'posn'
p4100
S'10'
p4101
sS'name'
p4102
S'\xe0\xa4\x97\xe0\xa5\x83\xe0\xa4\xb9'
p4103
sS'af'
p4104
S'\xe0\xa4\x97\xe0\xa5\x83\xe0\xa4\xb9,n,m,sg,3,d,0,0'
p4105
sS'drel'
p4106
S'pof__cn:NP'
p4107
sS'chunktype'
p4108
S'child:NP'
p4109
sS'cref'
p4110
S'i42%0:t3'
p4111
ssbsg38
I00
sg39
I00
sg40
Nsg41
Nsg42
I0
sg43
I8
sg44
Nsg45
Nsg46
S'NNPC'
p4112
sg48
g4097
sg49
I00
sba(issf_api
Word
p4113
(dp4114
g6
I00
sg7
V\u092e\u0902\u0924\u094d\u0930\u0940
p4115
sg9
(issf_api
FeatureSet
p4116
(dp4117
g12
(dp4118
S'crefhead'
p4119
S'\xe0\xa4\xae\xe0\xa4\x82\xe0\xa4\xa4\xe0\xa5\x8d\xe0\xa4\xb0\xe0\xa5\x80:i42'
p4120
sS'posn'
p4121
S'20'
p4122
sS'name'
p4123
S'\xe0\xa4\xae\xe0\xa4\x82\xe0\xa4\xa4\xe0\xa5\x8d\xe0\xa4\xb0\xe0\xa5\x80'
p4124
sS'af'
p4125
S'\xe0\xa4\xae\xe0\xa4\x82\xe0\xa4\xa4\xe0\xa5\x8d\xe0\xa4\xb0\xe0\xa5\x80,n,m,sg,3,o,0_\xe0\xa4\xa8\xe0\xa5\x87,0'
p4126
sS'chunkid'
p4127
S'NP'
p4128
sS'creftype'
p4129
S'Coreference-Identity:i40'
p4130
sS'chunktype'
p4131
S'head:NP'
p4132
sS'vpos'
p4133
S'vib_3'
p4134
sS'cref'
p4135
S'i42%1:t3'
p4136
sS'drel'
p4137
S'k1:VGF'
p4138
ssbsg38
I00
sg39
I00
sg40
Nsg41
Nsg42
I0
sg43
I8
sg44
Nsg45
Nsg46
S'NNP'
p4139
sg48
g4116
sg49
I00
sba(issf_api
Word
p4140
(dp4141
g6
I00
sg7
V\u0928\u0947
p4142
sg9
(issf_api
FeatureSet
p4143
(dp4144
g12
(dp4145
S'posn'
p4146
S'30'
p4147
sS'name'
p4148
S'\xe0\xa4\xa8\xe0\xa5\x87'
p4149
sS'drel'
p4150
S'lwg__psp:NP'
p4151
sS'chunktype'
p4152
S'child:NP'
p4153
sS'af'
p4154
S'\xe0\xa4\xa8\xe0\xa5\x87,psp,,,,,,'
p4155
ssbsg38
I00
sg39
I00
sg40
Nsg41
Nsg42
I0
sg43
I8
sg44
Nsg45
Nsg46
S'PSP'
p4156
sg48
g4143
sg49
I00
sba(issf_api
Word
p4157
(dp4158
g6
I00
sg7
V\u0930\u093e\u091c\u094d\u092f
p4159
sg9
(issf_api
FeatureSet
p4160
(dp4161
g12
(dp4162
S'crefhead'
p4163
S'\xe0\xa4\xb0\xe0\xa4\xbe\xe0\xa4\x9c\xe0\xa5\x8d\xe0\xa4\xaf:i43'
p4164
sS'posn'
p4165
S'40'
p4166
sS'name'
p4167
S'\xe0\xa4\xb0\xe0\xa4\xbe\xe0\xa4\x9c\xe0\xa5\x8d\xe0\xa4\xaf'
p4168
sS'af'
p4169
S'\xe0\xa4\xb0\xe0\xa4\xbe\xe0\xa4\x9c\xe0\xa5\x8d\xe0\xa4\xaf,n,m,sg,3,o,0_\xe0\xa4\x95\xe0\xa4\xbe,0'
p4170
sS'chunkid'
p4171
S'NP2'
p4172
sS'creftype'
p4173
S'Coreference-InferedRelation:i32'
p4174
sS'chunktype'
p4175
S'head:NP2'
p4176
sS'vpos'
p4177
S'vib_2'
p4178
sS'cref'
p4179
S'i43%1:t1'
p4180
sS'drel'
p4181
S'r6:NP3'
p4182
ssbsg38
I00
sg39
I00
sg40
Nsg41
Nsg42
I1
sg43
I8
sg44
Nsg45
Nsg46
S'NN'
p4183
sg48
g4160
sg49
I00
sba(issf_api
Word
p4184
(dp4185
g6
I00
sg7
V\u0915\u0947
p4186
sg9
(issf_api
FeatureSet
p4187
(dp4188
g12
(dp4189
S'posn'
p4190
S'50'
p4191
sS'name'
p4192
S'\xe0\xa4\x95\xe0\xa5\x87'
p4193
sS'drel'
p4194
S'lwg__psp:NP2'
p4195
sS'chunktype'
p4196
S'child:NP2'
p4197
sS'af'
p4198
S'\xe0\xa4\x95\xe0\xa4\xbe,psp,m,pl,,o,,'
p4199
ssbsg38
I00
sg39
I00
sg40
Nsg41
Nsg42
I1
sg43
I8
sg44
Nsg45
Nsg46
S'PSP'
p4200
sg48
g4187
sg49
I00
sba(issf_api
Word
p4201
(dp4202
g6
I00
sg7
V\u0924\u091f\u0940\u092f
p4203
sg9
(issf_api
FeatureSet
p4204
(dp4205
g12
(dp4206
S'posn'
p4207
S'60'
p4208
sS'name'
p4209
S'\xe0\xa4\xa4\xe0\xa4\x9f\xe0\xa5\x80\xe0\xa4\xaf'
p4210
sS'drel'
p4211
S'nmod__adj:NP3'
p4212
sS'chunktype'
p4213
S'child:NP3'
p4214
sS'af'
p4215
S'\xe0\xa4\xa4\xe0\xa4\x9f\xe0\xa5\x80\xe0\xa4\xaf,adj,any,any,,o,,'
p4216
ssbsg38
I00
sg39
I00
sg40
Nsg41
Nsg42
I2
sg43
I8
sg44
Nsg45
Nsg46
S'JJ'
p4217
sg48
g4204
sg49
I00
sba(issf_api
Word
p4218
(dp4219
g6
I00
sg7
V\u0907\u0932\u093e\u0915\u094b\u0902
p4220
sg9
(issf_api
FeatureSet
p4221
(dp4222
g12
(dp4223
S'posn'
p4224
S'70'
p4225
sS'name'
p4226
S'\xe0\xa4\x87\xe0\xa4\xb2\xe0\xa4\xbe\xe0\xa4\x95\xe0\xa5\x8b\xe0\xa4\x82'
p4227
sS'af'
p4228
S'\xe0\xa4\x87\xe0\xa4\xb2\xe0\xa4\xbe\xe0\xa4\x95\xe0\xa4\xbe,n,m,pl,3,o,0_\xe0\xa4\x95\xe0\xa4\xbe,0'
p4229
sS'chunkid'
p4230
S'NP3'
p4231
sS'drel'
p4232
S'r6:NP4'
p4233
sS'vpos'
p4234
S'vib_3'
p4235
sS'chunktype'
p4236
S'head:NP3'
p4237
ssbsg38
I00
sg39
I00
sg40
Nsg41
Nsg42
I2
sg43
I8
sg44
Nsg45
Nsg46
S'NN'
p4238
sg48
g4221
sg49
I00
sba(issf_api
Word
p4239
(dp4240
g6
I00
sg7
V\u0915\u0947
p4241
sg9
(issf_api
FeatureSet
p4242
(dp4243
g12
(dp4244
S'posn'
p4245
S'80'
p4246
sS'name'
p4247
S'\xe0\xa4\x95\xe0\xa5\x872'
p4248
sS'drel'
p4249
S'lwg__psp:NP3'
p4250
sS'chunktype'
p4251
S'child:NP3'
p4252
sS'af'
p4253
S'\xe0\xa4\x95\xe0\xa4\xbe,psp,m,sg,,o,,'
p4254
ssbsg38
I00
sg39
I00
sg40
Nsg41
Nsg42
I2
sg43
I8
sg44
Nsg45
Nsg46
S'PSP'
p4255
sg48
g4242
sg49
I00
sba(issf_api
Word
p4256
(dp4257
g6
I00
sg7
V\u0926\u094c\u0930\u0947
p4258
sg9
(issf_api
FeatureSet
p4259
(dp4260
g12
(dp4261
S'posn'
p4262
S'90'
p4263
sS'name'
p4264
S'\xe0\xa4\xa6\xe0\xa5\x8c\xe0\xa4\xb0\xe0\xa5\x87'
p4265
sS'af'
p4266
S'\xe0\xa4\xa6\xe0\xa5\x8c\xe0\xa4\xb0\xe0\xa4\xbe,n,m,sg,3,o,0_\xe0\xa4\x95\xe0\xa4\xbe,0'
p4267
sS'chunkid'
p4268
S'NP4'
p4269
sS'drel'
p4270
S'r6:NP5'
p4271
sS'vpos'
p4272
S'vib_2'
p4273
sS'chunktype'
p4274
S'head:NP4'
p4275
ssbsg38
I00
sg39
I00
sg40
Nsg41
Nsg42
I3
sg43
I8
sg44
Nsg45
Nsg46
S'NN'
p4276
sg48
g4259
sg49
I00
sba(issf_api
Word
p4277
(dp4278
g6
I00
sg7
V\u0915\u0947
p4279
sg9
(issf_api
FeatureSet
p4280
(dp4281
g12
(dp4282
S'posn'
p4283
S'100'
p4284
sS'name'
p4285
S'\xe0\xa4\x95\xe0\xa5\x873'
p4286
sS'drel'
p4287
S'lwg__psp:NP4'
p4288
sS'chunktype'
p4289
S'child:NP4'
p4290
sS'af'
p4291
S'\xe0\xa4\x95\xe0\xa4\xbe,psp,m,sg,,o,,'
p4292
ssbsg38
I00
sg39
I00
sg40
Nsg41
Nsg42
I3
sg43
I8
sg44
Nsg45
Nsg46
S'PSP'
p4293
sg48
g4280
sg49
I00
sba(issf_api
Word
p4294
(dp4295
g6
I00
sg7
V\u0928\u093f\u092e\u0902\u0924\u094d\u0930\u0923
p4296
sg9
(issf_api
FeatureSet
p4297
(dp4298
g12
(dp4299
S'posn'
p4300
S'110'
p4301
sS'name'
p4302
S'\xe0\xa4\xa8\xe0\xa4\xbf\xe0\xa4\xae\xe0\xa4\x82\xe0\xa4\xa4\xe0\xa5\x8d\xe0\xa4\xb0\xe0\xa4\xa3'
p4303
sS'af'
p4304
S'\xe0\xa4\xa8\xe0\xa4\xbf\xe0\xa4\xae\xe0\xa4\x82\xe0\xa4\xa4\xe0\xa5\x8d\xe0\xa4\xb0\xe0\xa4\xa3,n,m,sg,3,o,0_\xe0\xa4\x95\xe0\xa5\x8b,0'
p4305
sS'chunkid'
p4306
S'NP5'
p4307
sS'drel'
p4308
S'k2:VGF'
p4309
sS'vpos'
p4310
S'vib_2_RP'
p4311
sS'chunktype'
p4312
S'head:NP5'
p4313
ssbsg38
I00
sg39
I00
sg40
Nsg41
Nsg42
I4
sg43
I8
sg44
Nsg45
Nsg46
S'NN'
p4314
sg48
g4297
sg49
I00
sba(issf_api
Word
p4315
(dp4316
g6
I00
sg7
V\u0915\u094b
p4317
sg9
(issf_api
FeatureSet
p4318
(dp4319
g12
(dp4320
S'posn'
p4321
S'120'
p4322
sS'name'
p4323
S'\xe0\xa4\x95\xe0\xa5\x8b'
p4324
sS'drel'
p4325
S'lwg__psp:NP5'
p4326
sS'chunktype'
p4327
S'child:NP5'
p4328
sS'af'
p4329
S'\xe0\xa4\x95\xe0\xa5\x8b,psp,,,,,,'
p4330
ssbsg38
I00
sg39
I00
sg40
Nsg41
Nsg42
I4
sg43
I8
sg44
Nsg45
Nsg46
S'PSP'
p4331
sg48
g4318
sg49
I00
sba(issf_api
Word
p4332
(dp4333
g6
I00
sg7
V\u092d\u0940
p4334
sg9
(issf_api
FeatureSet
p4335
(dp4336
g12
(dp4337
S'posn'
p4338
S'130'
p4339
sS'name'
p4340
S'\xe0\xa4\xad\xe0\xa5\x80'
p4341
sS'drel'
p4342
S'lwg__rp:NP5'
p4343
sS'chunktype'
p4344
S'child:NP5'
p4345
sS'af'
p4346
S'\xe0\xa4\xad\xe0\xa5\x80,avy,,,,,,'
p4347
ssbsg38
I00
sg39
I00
sg40
Nsg41
Nsg42
I4
sg43
I8
sg44
Nsg45
Nsg46
S'RP'
p4348
sg48
g4335
sg49
I00
sba(issf_api
Word
p4349
(dp4350
g6
I00
sg7
V\u0938\u094d\u0935\u0940\u0915\u093e\u0930
p4351
sg9
(issf_api
FeatureSet
p4352
(dp4353
g12
(dp4354
S'posn'
p4355
S'140'
p4356
sS'name'
p4357
S'\xe0\xa4\xb8\xe0\xa5\x8d\xe0\xa4\xb5\xe0\xa5\x80\xe0\xa4\x95\xe0\xa4\xbe\xe0\xa4\xb0'
p4358
sS'af'
p4359
S'\xe0\xa4\xb8\xe0\xa5\x8d\xe0\xa4\xb5\xe0\xa5\x80\xe0\xa4\x95\xe0\xa4\xbe\xe0\xa4\xb0,n,m,sg,3,d,0,0'
p4360
sS'chunkid'
p4361
S'NP6'
p4362
sS'drel'
p4363
S'pof:VGF'
p4364
sS'chunktype'
p4365
S'head:NP6'
p4366
ssbsg38
I00
sg39
I00
sg40
Nsg41
Nsg42
I5
sg43
I8
sg44
Nsg45
Nsg46
S'NN'
p4367
sg48
g4352
sg49
I00
sba(issf_api
Word
p4368
(dp4369
g6
I00
sg7
V\u0915\u0930
p4370
sg9
(issf_api
FeatureSet
p4371
(dp4372
g12
(dp4373
S'posn'
p4374
S'150'
p4375
sS'name'
p4376
S'\xe0\xa4\x95\xe0\xa4\xb0'
p4377
sS'af'
p4378
S'\xe0\xa4\x95\xe0\xa4\xb0,v,m,sg,3,,0_\xe0\xa4\xb2\xe0\xa5\x87+\xe0\xa4\xaf\xe0\xa4\xbe_\xe0\xa4\xb9\xe0\xa5\x88,0'
p4379
sS'chunkid'
p4380
S'VGF'
p4381
sS'chunktype'
p4382
S'head:VGF'
p4383
sS'voicetype'
p4384
S'active'
p4385
sS'vpos'
p4386
S'tam_2_3'
p4387
sS'stype'
p4388
S'declarative'
p4389
ssbsg38
I00
sg39
I00
sg40
Nsg41
Nsg42
I6
sg43
I8
sg44
Nsg45
Nsg46
S'VM'
p4390
sg48
g4371
sg49
I00
sba(issf_api
Word
p4391
(dp4392
g6
I00
sg7
V\u0932\u093f\u092f\u093e
p4393
sg9
(issf_api
FeatureSet
p4394
(dp4395
g12
(dp4396
S'posn'
p4397
S'160'
p4398
sS'name'
p4399
S'\xe0\xa4\xb2\xe0\xa4\xbf\xe0\xa4\xaf\xe0\xa4\xbe'
p4400
sS'drel'
p4401
S'lwg__vaux:VGF'
p4402
sS'chunktype'
p4403
S'child:VGF'
p4404
sS'af'
p4405
S'\xe0\xa4\xb2\xe0\xa5\x87,v,m,sg,any,,\xe0\xa4\xaf\xe0\xa4\xbe,yA'
p4406
ssbsg38
I00
sg39
I00
sg40
Nsg41
Nsg42
I6
sg43
I8
sg44
Nsg45
Nsg46
S'VAUX'
p4407
sg48
g4394
sg49
I00
sba(issf_api
Word
p4408
(dp4409
g6
I00
sg7
V\u0939\u0948
p4410
sg9
(issf_api
FeatureSet
p4411
(dp4412
g12
(dp4413
S'posn'
p4414
S'170'
p4415
sS'name'
p4416
S'\xe0\xa4\xb9\xe0\xa5\x88'
p4417
sS'drel'
p4418
S'lwg__vaux:VGF'
p4419
sS'chunktype'
p4420
S'child:VGF'
p4421
sS'af'
p4422
S'\xe0\xa4\xb9\xe0\xa5\x88,v,any,sg,3,,\xe0\xa4\xb9\xe0\xa5\x88,hE'
p4423
ssbsg38
I00
sg39
I00
sg40
Nsg41
Nsg42
I6
sg43
I8
sg44
Nsg45
Nsg46
S'VAUX'
p4424
sg48
g4411
sg49
I00
sba(issf_api
Word
p4425
(dp4426
g6
I00
sg7
V\u0964
p4427
sg9
(issf_api
FeatureSet
p4428
(dp4429
g12
(dp4430
S'posn'
p4431
S'180'
p4432
sS'name'
p4433
S'\xe0\xa5\xa4'
p4434
sS'af'
p4435
S'\xe0\xa5\xa4,punc,,,,,,'
p4436
sS'chunkid'
p4437
S'BLK'
p4438
sS'drel'
p4439
S'rsym:VGF'
p4440
sS'chunktype'
p4441
S'head:BLK'
p4442
ssbsg38
I00
sg39
I00
sg40
Nsg41
Nsg42
I7
sg43
I8
sg44
Nsg45
Nsg46
S'SYM'
p4443
sg48
g4428
sg49
I00
sba(issf_api
Word
p4444
(dp4445
g6
I00
sg7
V\u0939\u093e\u0932\u093e\u0902\u0915\u093f
p4446
sg9
(issf_api
FeatureSet
p4447
(dp4448
g12
(dp4449
S'posn'
p4450
S'10'
p4451
sS'chunkid'
p4452
S'CCP'
p4453
sS'name'
p4454
S'\xe0\xa4\xb9\xe0\xa4\xbe\xe0\xa4\xb2\xe0\xa4\xbe\xe0\xa4\x82\xe0\xa4\x95\xe0\xa4\xbf'
p4455
sS'chunktype'
p4456
S'head:CCP'
p4457
sS'af'
p4458
S'\xe0\xa4\xb9\xe0\xa4\xbe\xe0\xa4\xb2\xe0\xa4\xbe\xe0\xa4\x82\xe0\xa4\x95\xe0\xa4\xbf,avy,,,,,,'
p4459
ssbsg38
I00
sg39
I00
sg40
Nsg41
Nsg42
I0
sg43
I9
sg44
Nsg45
Nsg46
S'CC'
p4460
sg48
g4447
sg49
I00
sba(issf_api
Word
p4461
(dp4462
g6
I00
sg7
V\u0907\u0938
p4463
sg9
(issf_api
FeatureSet
p4464
(dp4465
g12
(dp4466
S'posn'
p4467
S'20'
p4468
sS'name'
p4469
S'\xe0\xa4\x87\xe0\xa4\xb8'
p4470
sS'drel'
p4471
S'nmod__adj:NP'
p4472
sS'chunktype'
p4473
S'child:NP'
p4474
sS'af'
p4475
S'\xe0\xa4\xaf\xe0\xa4\xb9,pn,any,sg,3,o,,'
p4476
ssbsg38
I00
sg39
I00
sg40
Nsg41
Nsg42
I1
sg43
I9
sg44
Nsg45
Nsg46
S'DEM'
p4477
sg48
g4464
sg49
I00
sba(issf_api
Word
p4478
(dp4479
g6
I00
sg7
V\u092e\u094c\u0915\u0947
p4480
sg9
(issf_api
FeatureSet
p4481
(dp4482
g12
(dp4483
S'posn'
p4484
S'30'
p4485
sS'name'
p4486
S'\xe0\xa4\xae\xe0\xa5\x8c\xe0\xa4\x95\xe0\xa5\x87'
p4487
sS'af'
p4488
S'\xe0\xa4\xae\xe0\xa5\x8c\xe0\xa4\x95\xe0\xa4\xbe,n,m,sg,3,o,0_\xe0\xa4\xaa\xe0\xa4\xb0,0'
p4489
sS'chunkid'
p4490
S'NP'
p4491
sS'drel'
p4492
S'k7:VGF'
p4493
sS'vpos'
p4494
S'vib_3'
p4495
sS'chunktype'
p4496
S'head:NP'
p4497
ssbsg38
I00
sg39
I00
sg40
Nsg41
Nsg42
I1
sg43
I9
sg44
Nsg45
Nsg46
S'NN'
p4498
sg48
g4481
sg49
I00
sba(issf_api
Word
p4499
(dp4500
g6
I00
sg7
V\u092a\u0930
p4501
sg9
(issf_api
FeatureSet
p4502
(dp4503
g12
(dp4504
S'posn'
p4505
S'40'
p4506
sS'name'
p4507
S'\xe0\xa4\xaa\xe0\xa4\xb0'
p4508
sS'drel'
p4509
S'lwg__psp:NP'
p4510
sS'chunktype'
p4511
S'child:NP'
p4512
sS'af'
p4513
S'\xe0\xa4\xaa\xe0\xa4\xb0,psp,,,,,,'
p4514
ssbsg38
I00
sg39
I00
sg40
Nsg41
Nsg42
I1
sg43
I9
sg44
Nsg45
Nsg46
S'PSP'
p4515
sg48
g4502
sg49
I00
sba(issf_api
Word
p4516
(dp4517
g6
I00
sg7
V\u092e\u094b\u0926\u0940
p4518
sg9
(issf_api
FeatureSet
p4519
(dp4520
g12
(dp4521
S'crefhead'
p4522
S'\xe0\xa4\xae\xe0\xa5\x8b\xe0\xa4\xa6\xe0\xa5\x80:i44'
p4523
sS'posn'
p4524
S'50'
p4525
sS'name'
p4526
S'\xe0\xa4\xae\xe0\xa5\x8b\xe0\xa4\xa6\xe0\xa5\x80'
p4527
sS'af'
p4528
S'\xe0\xa4\xae\xe0\xa5\x8b\xe0\xa4\xa6\xe0\xa5\x80,n,m,sg,3,o,0_\xe0\xa4\xa8\xe0\xa5\x87,0'
p4529
sS'chunkid'
p4530
S'NP2'
p4531
sS'creftype'
p4532
S'Coreference-Identity:i41'
p4533
sS'chunktype'
p4534
S'head:NP2'
p4535
sS'vpos'
p4536
S'vib_2'
p4537
sS'cref'
p4538
S'i44%1:t2'
p4539
sS'drel'
p4540
S'k1:VGF'
p4541
ssbsg38
I00
sg39
I00
sg40
Nsg41
Nsg42
I2
sg43
I9
sg44
Nsg45
Nsg46
S'NNP'
p4542
sg48
g4519
sg49
I00
sba(issf_api
Word
p4543
(dp4544
g6
I00
sg7
V\u0928\u0947
p4545
sg9
(issf_api
FeatureSet
p4546
(dp4547
g12
(dp4548
S'posn'
p4549
S'60'
p4550
sS'name'
p4551
S'\xe0\xa4\xa8\xe0\xa5\x87'
p4552
sS'drel'
p4553
S'lwg__psp:NP2'
p4554
sS'chunktype'
p4555
S'child:NP2'
p4556
sS'af'
p4557
S'\xe0\xa4\xa8\xe0\xa5\x87,psp,,,,,,'
p4558
ssbsg38
I00
sg39
I00
sg40
Nsg41
Nsg42
I2
sg43
I9
sg44
Nsg45
Nsg46
S'PSP'
p4559
sg48
g4546
sg49
I00
sba(issf_api
Word
p4560
(dp4561
g6
I00
sg7
V\u0939\u093e\u0932
p4562
sg9
(issf_api
FeatureSet
p4563
(dp4564
g12
(dp4565
S'posn'
p4566
S'70'
p4567
sS'name'
p4568
S'\xe0\xa4\xb9\xe0\xa4\xbe\xe0\xa4\xb2'
p4569
sS'af'
p4570
S'\xe0\xa4\xb9\xe0\xa4\xbe\xe0\xa4\xb2,n,m,sg,3,o,0_\xe0\xa4\xae\xe0\xa5\x87\xe0\xa4\x82,0'
p4571
sS'chunkid'
p4572
S'NP3'
p4573
sS'drel'
p4574
S'k7t:VGF'
p4575
sS'vpos'
p4576
S'vib_2'
p4577
sS'chunktype'
p4578
S'head:NP3'
p4579
ssbsg38
I00
sg39
I00
sg40
Nsg41
Nsg42
I3
sg43
I9
sg44
Nsg45
Nsg46
S'NN'
p4580
sg48
g4563
sg49
I00
sba(issf_api
Word
p4581
(dp4582
g6
I00
sg7
V\u092e\u0947\u0902
p4583
sg9
(issf_api
FeatureSet
p4584
(dp4585
g12
(dp4586
S'posn'
p4587
S'80'
p4588
sS'name'
p4589
S'\xe0\xa4\xae\xe0\xa5\x87\xe0\xa4\x82'
p4590
sS'drel'
p4591
S'lwg__psp:NP3'
p4592
sS'chunktype'
p4593
S'child:NP3'
p4594
sS'af'
p4595
S'\xe0\xa4\xae\xe0\xa5\x87\xe0\xa4\x82,psp,,,,,,'
p4596
ssbsg38
I00
sg39
I00
sg40
Nsg41
Nsg42
I3
sg43
I9
sg44
Nsg45
Nsg46
S'PSP'
p4597
sg48
g4584
sg49
I00
sba(issf_api
Word
p4598
(dp4599
g6
I00
sg7
V\u092a\u0941\u0932\u093f\u0938
p4600
sg9
(issf_api
FeatureSet
p4601
(dp4602
g12
(dp4603
S'posn'
p4604
S'90'
p4605
sS'name'
p4606
S'\xe0\xa4\xaa\xe0\xa5\x81\xe0\xa4\xb2\xe0\xa4\xbf\xe0\xa4\xb8'
p4607
sS'drel'
p4608
S'pof__cn:NP4'
p4609
sS'chunktype'
p4610
S'child:NP4'
p4611
sS'af'
p4612
S'\xe0\xa4\xaa\xe0\xa5\x81\xe0\xa4\xb2\xe0\xa4\xbf\xe0\xa4\xb8,n,f,sg,3,d,0,0'
p4613
ssbsg38
I00
sg39
I00
sg40
Nsg41
Nsg42
I4
sg43
I9
sg44
Nsg45
Nsg46
S'NNC'
p4614
sg48
g4601
sg49
I00
sba(issf_api
Word
p4615
(dp4616
g6
I00
sg7
V\u092e\u0941\u0920\u092d\u0947\u0921\u093c
p4617
sg9
(issf_api
FeatureSet
p4618
(dp4619
g12
(dp4620
S'posn'
p4621
S'100'
p4622
sS'name'
p4623
S'\xe0\xa4\xae\xe0\xa5\x81\xe0\xa4\xa0\xe0\xa4\xad\xe0\xa5\x87\xe0\xa4\xa1\xe0\xa4\xbc'
p4624
sS'af'
p4625
S'\xe0\xa4\xae\xe0\xa5\x81\xe0\xa4\xa0\xe0\xa4\xad\xe0\xa5\x87\xe0\xa4\xa1,n,f,sg,3,o,0_\xe0\xa4\xae\xe0\xa5\x87\xe0\xa4\x82,0'
p4626
sS'chunkid'
p4627
S'NP4'
p4628
sS'drel'
p4629
S'k7:VGNF'
p4630
sS'vpos'
p4631
S'vib_3'
p4632
sS'chunktype'
p4633
S'head:NP4'
p4634
ssbsg38
I00
sg39
I00
sg40
Nsg41
Nsg42
I4
sg43
I9
sg44
Nsg45
Nsg46
S'NN'
p4635
sg48
g4618
sg49
I00
sba(issf_api
Word
p4636
(dp4637
g6
I00
sg7
V\u092e\u0947\u0902
p4638
sg9
(issf_api
FeatureSet
p4639
(dp4640
g12
(dp4641
S'posn'
p4642
S'110'
p4643
sS'name'
p4644
S'\xe0\xa4\xae\xe0\xa5\x87\xe0\xa4\x822'
p4645
sS'drel'
p4646
S'lwg__psp:NP4'
p4647
sS'chunktype'
p4648
S'child:NP4'
p4649
sS'af'
p4650
S'\xe0\xa4\xae\xe0\xa5\x87\xe0\xa4\x82,psp,,,,,,'
p4651
ssbsg38
I00
sg39
I00
sg40
Nsg41
Nsg42
I4
sg43
I9
sg44
Nsg45
Nsg46
S'PSP'
p4652
sg48
g4639
sg49
I00
sba(issf_api
Word
p4653
(dp4654
g6
I00
sg7
V\u092e\u093e\u0930\u0947
p4655
sg9
(issf_api
FeatureSet
p4656
(dp4657
g12
(dp4658
S'posn'
p4659
S'120'
p4660
sS'name'
p4661
S'\xe0\xa4\xae\xe0\xa4\xbe\xe0\xa4\xb0\xe0\xa5\x87'
p4662
sS'af'
p4663
S'\xe0\xa4\xae\xe0\xa4\xbe\xe0\xa4\xb0,v,m,pl,any,,\xe0\xa4\xaf\xe0\xa4\xbe_\xe0\xa4\x9c\xe0\xa4\xbe+\xe0\xa4\xaf\xe0\xa4\xbe1,yA'
p4664
sS'chunkid'
p4665
S'VGNF'
p4666
sS'drel'
p4667
S'nmod__k2inv:NP5'
p4668
sS'vpos'
p4669
S'tam_2'
p4670
sS'chunktype'
p4671
S'head:VGNF'
p4672
ssbsg38
I00
sg39
I00
sg40
Nsg41
Nsg42
I5
sg43
I9
sg44
Nsg45
Nsg46
S'VM'
p4673
sg48
g4656
sg49
I00
sba(issf_api
Word
p4674
(dp4675
g6
I00
sg7
V\u0917\u090f
p4676
sg9
(issf_api
FeatureSet
p4677
(dp4678
g12
(dp4679
S'posn'
p4680
S'130'
p4681
sS'name'
p4682
S'\xe0\xa4\x97\xe0\xa4\x8f'
p4683
sS'drel'
p4684
S'lwg__vaux:VGNF'
p4685
sS'chunktype'
p4686
S'child:VGNF'
p4687
sS'af'
p4688
S'\xe0\xa4\x9c\xe0\xa4\xbe,v,m,pl,any,,\xe0\xa4\xaf\xe0\xa4\xbe1,yA1'
p4689
ssbsg38
I00
sg39
I00
sg40
Nsg41
Nsg42
I5
sg43
I9
sg44
Nsg45
Nsg46
S'VAUX'
p4690
sg48
g4677
sg49
I00
sba(issf_api
Word
p4691
(dp4692
g6
I00
sg7
V\u0932\u0936\u094d\u0915\u0930
p4693
sg9
(issf_api
FeatureSet
p4694
(dp4695
g12
(dp4696
S'posn'
p4697
S'140'
p4698
sS'name'
p4699
S'\xe0\xa4\xb2\xe0\xa4\xb6\xe0\xa5\x8d\xe0\xa4\x95\xe0\xa4\xb0'
p4700
sS'drel'
p4701
S'pof__cn:NP5'
p4702
sS'chunktype'
p4703
S'child:NP5'
p4704
sS'af'
p4705
S'\xe0\xa4\xb2\xe0\xa4\xb6\xe0\xa5\x8d\xe0\xa4\x95\xe0\xa4\xb0,n,m,sg,3,d,0,0'
p4706
ssbsg38
I00
sg39
I00
sg40
Nsg41
Nsg42
I6
sg43
I9
sg44
Nsg45
Nsg46
S'NNPC'
p4707
sg48
g4694
sg49
I00
sba(issf_api
Word
p4708
(dp4709
g6
I00
sg7
V-
p4710
sg9
(issf_api
FeatureSet
p4711
(dp4712
g12
(dp4713
S'posn'
p4714
S'150'
p4715
sS'name'
p4716
S'-'
p4717
sS'drel'
p4718
S'rsym:NP5'
p4719
sS'chunktype'
p4720
S'child:NP5'
p4721
sS'af'
p4722
S'-,punc,,,,,,'
p4723
ssbsg38
I00
sg39
I00
sg40
Nsg41
Nsg42
I6
sg43
I9
sg44
Nsg45
Nsg46
S'SYM'
p4724
sg48
g4711
sg49
I00
sba(issf_api
Word
p4725
(dp4726
g6
I00
sg7
V\u090f
p4727
sg9
(issf_api
FeatureSet
p4728
(dp4729
g12
(dp4730
S'posn'
p4731
S'160'
p4732
sS'name'
p4733
S'\xe0\xa4\x8f'
p4734
sS'drel'
p4735
S'nmod__adj:NP5'
p4736
sS'chunktype'
p4737
S'child:NP5'
p4738
sS'af'
p4739
S'\xe0\xa4\x8f,unk,,,,,,'
p4740
ssbsg38
I00
sg39
I00
sg40
Nsg41
Nsg42
I6
sg43
I9
sg44
Nsg45
Nsg46
S'NNPC'
p4741
sg48
g4728
sg49
I00
sba(issf_api
Word
p4742
(dp4743
g6
I00
sg7
V-
p4744
sg9
(issf_api
FeatureSet
p4745
(dp4746
g12
(dp4747
S'posn'
p4748
S'170'
p4749
sS'name'
p4750
S'-2'
p4751
sS'drel'
p4752
S'rsym:NP5'
p4753
sS'chunktype'
p4754
S'child:NP5'
p4755
sS'af'
p4756
S'-,punc,,,,,,'
p4757
ssbsg38
I00
sg39
I00
sg40
Nsg41
Nsg42
I6
sg43
I9
sg44
Nsg45
Nsg46
S'SYM'
p4758
sg48
g4745
sg49
I00
sba(issf_api
Word
p4759
(dp4760
g6
I00
sg7
V\u0924\u093e\u0907\u092c\u093e
p4761
sg9
(issf_api
FeatureSet
p4762
(dp4763
g12
(dp4764
S'posn'
p4765
S'180'
p4766
sS'name'
p4767
S'\xe0\xa4\xa4\xe0\xa4\xbe\xe0\xa4\x87\xe0\xa4\xac\xe0\xa4\xbe'
p4768
sS'af'
p4769
S'\xe0\xa4\xa4\xe0\xa4\xbe\xe0\xa4\x87\xe0\xa4\xac\xe0\xa4\xbe,n,m,sg,3,o,0_\xe0\xa4\x95\xe0\xa4\xbe,0'
p4770
sS'chunkid'
p4771
S'NP5'
p4772
sS'drel'
p4773
S'r6:NP6'
p4774
sS'vpos'
p4775
S'vib_6'
p4776
sS'chunktype'
p4777
S'head:NP5'
p4778
ssbsg38
I00
sg39
I00
sg40
Nsg41
Nsg42
I6
sg43
I9
sg44
Nsg45
Nsg46
S'NNP'
p4779
sg48
g4762
sg49
I00
sba(issf_api
Word
p4780
(dp4781
g6
I00
sg7
V\u0915\u0947
p4782
sg9
(issf_api
FeatureSet
p4783
(dp4784
g12
(dp4785
S'posn'
p4786
S'190'
p4787
sS'name'
p4788
S'\xe0\xa4\x95\xe0\xa5\x87'
p4789
sS'drel'
p4790
S'lwg__psp:NP5'
p4791
sS'chunktype'
p4792
S'child:NP5'
p4793
sS'af'
p4794
S'\xe0\xa4\x95\xe0\xa4\xbe,psp,m,pl,,o,,'
p4795
ssbsg38
I00
sg39
I00
sg40
Nsg41
Nsg42
I6
sg43
I9
sg44
Nsg45
Nsg46
S'PSP'
p4796
sg48
g4783
sg49
I00
sba(issf_api
Word
p4797
(dp4798
g6
I00
sg7
V\u091a\u093e\u0930
p4799
sg9
(issf_api
FeatureSet
p4800
(dp4801
g12
(dp4802
S'posn'
p4803
S'200'
p4804
sS'name'
p4805
S'\xe0\xa4\x9a\xe0\xa4\xbe\xe0\xa4\xb0'
p4806
sS'drel'
p4807
S'nmod__adj:NP6'
p4808
sS'chunktype'
p4809
S'child:NP6'
p4810
sS'af'
p4811
S'\xe0\xa4\x9a\xe0\xa4\xbe\xe0\xa4\xb0,num,any,any,,any,,'
p4812
ssbsg38
I00
sg39
I00
sg40
Nsg41
Nsg42
I7
sg43
I9
sg44
Nsg45
Nsg46
S'QC'
p4813
sg48
g4800
sg49
I00
sba(issf_api
Word
p4814
(dp4815
g6
I00
sg7
V\u0906\u0924\u0902\u0915\u0935\u093e\u0926\u093f\u092f\u094b\u0902
p4816
sg9
(issf_api
FeatureSet
p4817
(dp4818
g12
(dp4819
S'posn'
p4820
S'210'
p4821
sS'name'
p4822
S'\xe0\xa4\x86\xe0\xa4\xa4\xe0\xa4\x82\xe0\xa4\x95\xe0\xa4\xb5\xe0\xa4\xbe\xe0\xa4\xa6\xe0\xa4\xbf\xe0\xa4\xaf\xe0\xa5\x8b\xe0\xa4\x82'
p4823
sS'af'
p4824
S'\xe0\xa4\x86\xe0\xa4\xa4\xe0\xa4\x82\xe0\xa4\x95\xe0\xa4\xb5\xe0\xa4\xbe\xe0\xa4\xa6\xe0\xa5\x80,n,m,pl,3,o,0_\xe0\xa4\x95\xe0\xa5\x87_\xe0\xa4\xac\xe0\xa4\xbe\xe0\xa4\xb0\xe0\xa5\x87_\xe0\xa4\xae\xe0\xa5\x87\xe0\xa4\x82,0'
p4825
sS'chunkid'
p4826
S'NP6'
p4827
sS'drel'
p4828
S'k7:VGF'
p4829
sS'vpos'
p4830
S'vib_3_4_5'
p4831
sS'chunktype'
p4832
S'head:NP6'
p4833
ssbsg38
I00
sg39
I00
sg40
Nsg41
Nsg42
I7
sg43
I9
sg44
Nsg45
Nsg46
S'NN'
p4834
sg48
g4817
sg49
I00
sba(issf_api
Word
p4835
(dp4836
g6
I00
sg7
V\u0915\u0947
p4837
sg9
(issf_api
FeatureSet
p4838
(dp4839
g12
(dp4840
S'posn'
p4841
S'220'
p4842
sS'name'
p4843
S'\xe0\xa4\x95\xe0\xa5\x872'
p4844
sS'drel'
p4845
S'lwg__psp:NP6'
p4846
sS'chunktype'
p4847
S'child:NP6'
p4848
sS'af'
p4849
S'\xe0\xa4\x95\xe0\xa5\x87,psp,,,,,,'
p4850
ssbsg38
I00
sg39
I00
sg40
Nsg41
Nsg42
I7
sg43
I9
sg44
Nsg45
Nsg46
S'PSP'
p4851
sg48
g4838
sg49
I00
sba(issf_api
Word
p4852
(dp4853
g6
I00
sg7
V\u092c\u093e\u0930\u0947
p4854
sg9
(issf_api
FeatureSet
p4855
(dp4856
g12
(dp4857
S'posn'
p4858
S'230'
p4859
sS'name'
p4860
S'\xe0\xa4\xac\xe0\xa4\xbe\xe0\xa4\xb0\xe0\xa5\x87'
p4861
sS'drel'
p4862
S'lwg__psp:NP6'
p4863
sS'chunktype'
p4864
S'child:NP6'
p4865
sS'af'
p4866
S'\xe0\xa4\xac\xe0\xa4\xbe\xe0\xa4\xb0\xe0\xa5\x87,psp,,,,,,'
p4867
ssbsg38
I00
sg39
I00
sg40
Nsg41
Nsg42
I7
sg43
I9
sg44
Nsg45
Nsg46
S'PSP'
p4868
sg48
g4855
sg49
I00
sba(issf_api
Word
p4869
(dp4870
g6
I00
sg7
V\u092e\u0947\u0902
p4871
sg9
(issf_api
FeatureSet
p4872
(dp4873
g12
(dp4874
S'posn'
p4875
S'240'
p4876
sS'name'
p4877
S'\xe0\xa4\xae\xe0\xa5\x87\xe0\xa4\x823'
p4878
sS'drel'
p4879
S'lwg__psp:NP6'
p4880
sS'chunktype'
p4881
S'child:NP6'
p4882
sS'af'
p4883
S'\xe0\xa4\xae\xe0\xa5\x87\xe0\xa4\x82,psp,,,,,,'
p4884
ssbsg38
I00
sg39
I00
sg40
Nsg41
Nsg42
I7
sg43
I9
sg44
Nsg45
Nsg46
S'PSP'
p4885
sg48
g4872
sg49
I00
sba(issf_api
Word
p4886
(dp4887
g6
I00
sg7
V\u0915\u093f\u0938\u0940
p4888
sg9
(issf_api
FeatureSet
p4889
(dp4890
g12
(dp4891
S'crefhead'
p4892
S'\xe0\xa4\x95\xe0\xa4\xbf\xe0\xa4\xb8\xe0\xa5\x80:i45'
p4893
sS'posn'
p4894
S'250'
p4895
sS'name'
p4896
S'\xe0\xa4\x95\xe0\xa4\xbf\xe0\xa4\xb8\xe0\xa5\x80'
p4897
sS'af'
p4898
S'\xe0\xa4\x95\xe0\xa5\x8b\xe0\xa4\x88,pn,any,sg,3,o,0,0'
p4899
sS'creftype'
p4900
S'anaphora-?:i45'
p4901
sS'chunktype'
p4902
S'child:NP7'
p4903
sS'crefchainhead'
p4904
S'i45:t11'
p4905
sS'cref'
p4906
S'i45%1:t11'
p4907
sS'drel'
p4908
S'nmod__adj:NP7'
p4909
ssbsg38
I00
sg39
I00
sg40
Nsg41
Nsg42
I8
sg43
I9
sg44
Nsg45
Nsg46
S'PRP'
p4910
sg48
g4889
sg49
I00
sba(issf_api
Word
p4911
(dp4912
g6
I00
sg7
V\u0938\u0935\u093e\u0932
p4913
sg9
(issf_api
FeatureSet
p4914
(dp4915
g12
(dp4916
S'posn'
p4917
S'260'
p4918
sS'name'
p4919
S'\xe0\xa4\xb8\xe0\xa4\xb5\xe0\xa4\xbe\xe0\xa4\xb2'
p4920
sS'af'
p4921
S'\xe0\xa4\xb8\xe0\xa4\xb5\xe0\xa4\xbe\xe0\xa4\xb2,n,m,sg,3,o,0_\xe0\xa4\x95\xe0\xa4\xbe,0'
p4922
sS'chunkid'
p4923
S'NP7'
p4924
sS'drel'
p4925
S'r6:NP8'
p4926
sS'vpos'
p4927
S'vib_vib_3'
p4928
sS'chunktype'
p4929
S'head:NP7'
p4930
ssbsg38
I00
sg39
I00
sg40
Nsg41
Nsg42
I8
sg43
I9
sg44
Nsg45
Nsg46
S'NN'
p4931
sg48
g4914
sg49
I00
sba(issf_api
Word
p4932
(dp4933
g6
I00
sg7
V\u0915\u093e
p4934
sg9
(issf_api
FeatureSet
p4935
(dp4936
g12
(dp4937
S'posn'
p4938
S'270'
p4939
sS'name'
p4940
S'\xe0\xa4\x95\xe0\xa4\xbe'
p4941
sS'drel'
p4942
S'lwg__psp:NP7'
p4943
sS'chunktype'
p4944
S'child:NP7'
p4945
sS'af'
p4946
S'\xe0\xa4\x95\xe0\xa4\xbe,psp,m,sg,,d,,'
p4947
ssbsg38
I00
sg39
I00
sg40
Nsg41
Nsg42
I8
sg43
I9
sg44
Nsg45
Nsg46
S'PSP'
p4948
sg48
g4935
sg49
I00
sba(issf_api
Word
p4949
(dp4950
g6
I00
sg7
V\u091c\u0935\u093e\u092c
p4951
sg9
(issf_api
FeatureSet
p4952
(dp4953
g12
(dp4954
S'posn'
p4955
S'280'
p4956
sS'name'
p4957
S'\xe0\xa4\x9c\xe0\xa4\xb5\xe0\xa4\xbe\xe0\xa4\xac'
p4958
sS'af'
p4959
S'\xe0\xa4\x9c\xe0\xa4\xb5\xe0\xa4\xbe\xe0\xa4\xac,n,m,sg,3,d,0,0'
p4960
sS'chunkid'
p4961
S'NP8'
p4962
sS'drel'
p4963
S'k2:VGNN'
p4964
sS'chunktype'
p4965
S'head:NP8'
p4966
ssbsg38
I00
sg39
I00
sg40
Nsg41
Nsg42
I9
sg43
I9
sg44
Nsg45
Nsg46
S'NN'
p4967
sg48
g4952
sg49
I00
sba(issf_api
Word
p4968
(dp4969
g6
I00
sg7
V\u0926\u0947\u0928\u0947
p4970
sg9
(issf_api
FeatureSet
p4971
(dp4972
g12
(dp4973
S'posn'
p4974
S'290'
p4975
sS'name'
p4976
S'\xe0\xa4\xa6\xe0\xa5\x87\xe0\xa4\xa8\xe0\xa5\x87'
p4977
sS'af'
p4978
S'\xe0\xa4\xa6\xe0\xa5\x87,v,any,any,any,o,\xe0\xa4\xa8\xe0\xa4\xbe_\xe0\xa4\xb8\xe0\xa5\x87,nA'
p4979
sS'chunkid'
p4980
S'VGNN'
p4981
sS'drel'
p4982
S'k2:VGF'
p4983
sS'vpos'
p4984
S'tam_2'
p4985
sS'chunktype'
p4986
S'head:VGNN'
p4987
ssbsg38
I00
sg39
I00
sg40
Nsg41
Nsg42
I10
sg43
I9
sg44
Nsg45
Nsg46
S'VM'
p4988
sg48
g4971
sg49
I00
sba(issf_api
Word
p4989
(dp4990
g6
I00
sg7
V\u0938\u0947
p4991
sg9
(issf_api
FeatureSet
p4992
(dp4993
g12
(dp4994
S'posn'
p4995
S'300'
p4996
sS'name'
p4997
S'\xe0\xa4\xb8\xe0\xa5\x87'
p4998
sS'drel'
p4999
S'lwg__psp:VGNN'
p5000
sS'chunktype'
p5001
S'child:VGNN'
p5002
sS'af'
p5003
S'\xe0\xa4\xb8\xe0\xa5\x87,psp,,,,,,'
p5004
ssbsg38
I00
sg39
I00
sg40
Nsg41
Nsg42
I10
sg43
I9
sg44
Nsg45
Nsg46
S'PSP'
p5005
sg48
g4992
sg49
I00
sba(issf_api
Word
p5006
(dp5007
g6
I00
sg7
V\u0907\u0928\u0915\u093e\u0930
p5008
sg9
(issf_api
FeatureSet
p5009
(dp5010
g12
(dp5011
S'posn'
p5012
S'310'
p5013
sS'name'
p5014
S'\xe0\xa4\x87\xe0\xa4\xa8\xe0\xa4\x95\xe0\xa4\xbe\xe0\xa4\xb0'
p5015
sS'af'
p5016
S'\xe0\xa4\x87\xe0\xa4\xa8\xe0\xa4\x95\xe0\xa4\xbe\xe0\xa4\xb0,n,m,sg,3,d,0,0'
p5017
sS'chunkid'
p5018
S'NP9'
p5019
sS'drel'
p5020
S'pof:VGF'
p5021
sS'chunktype'
p5022
S'head:NP9'
p5023
ssbsg38
I00
sg39
I00
sg40
Nsg41
Nsg42
I11
sg43
I9
sg44
Nsg45
Nsg46
S'NN'
p5024
sg48
g5009
sg49
I00
sba(issf_api
Word
p5025
(dp5026
g6
I00
sg7
V\u0915\u0930
p5027
sg9
(issf_api
FeatureSet
p5028
(dp5029
g12
(dp5030
S'posn'
p5031
S'320'
p5032
sS'name'
p5033
S'\xe0\xa4\x95\xe0\xa4\xb0'
p5034
sS'af'
p5035
S'\xe0\xa4\x95\xe0\xa4\xb0,v,any,sg,any,,0_\xe0\xa4\xa6\xe0\xa5\x87+\xe0\xa4\xaf\xe0\xa4\xbe,0'
p5036
sS'chunkid'
p5037
S'VGF'
p5038
sS'stype'
p5039
S'declarative'
p5040
sS'drel'
p5041
S'ccof:CCP'
p5042
sS'voicetype'
p5043
S'active'
p5044
sS'vpos'
p5045
S'tam_2'
p5046
sS'chunktype'
p5047
S'head:VGF'
p5048
ssbsg38
I00
sg39
I00
sg40
Nsg41
Nsg42
I12
sg43
I9
sg44
Nsg45
Nsg46
S'VM'
p5049
sg48
g5028
sg49
I00
sba(issf_api
Word
p5050
(dp5051
g6
I00
sg7
V\u0926\u093f\u092f\u093e
p5052
sg9
(issf_api
FeatureSet
p5053
(dp5054
g12
(dp5055
S'posn'
p5056
S'330'
p5057
sS'name'
p5058
S'\xe0\xa4\xa6\xe0\xa4\xbf\xe0\xa4\xaf\xe0\xa4\xbe'
p5059
sS'drel'
p5060
S'lwg__vaux:VGF'
p5061
sS'chunktype'
p5062
S'child:VGF'
p5063
sS'af'
p5064
S'\xe0\xa4\xa6\xe0\xa5\x87,v,m,sg,any,,\xe0\xa4\xaf\xe0\xa4\xbe,yA'
p5065
ssbsg38
I00
sg39
I00
sg40
Nsg41
Nsg42
I12
sg43
I9
sg44
Nsg45
Nsg46
S'VAUX'
p5066
sg48
g5053
sg49
I00
sba(issf_api
Word
p5067
(dp5068
g6
I00
sg7
V\u0964
p5069
sg9
(issf_api
FeatureSet
p5070
(dp5071
g12
(dp5072
S'posn'
p5073
S'340'
p5074
sS'name'
p5075
S'\xe0\xa5\xa4'
p5076
sS'af'
p5077
S'\xe0\xa5\xa4,punc,,,,,,'
p5078
sS'chunkid'
p5079
S'BLK'
p5080
sS'drel'
p5081
S'rsym:CCP'
p5082
sS'chunktype'
p5083
S'head:BLK'
p5084
ssbsg38
I00
sg39
I00
sg40
Nsg41
Nsg42
I13
sg43
I9
sg44
Nsg45
Nsg46
S'SYM'
p5085
sg48
g5070
sg49
I00
sbasS'sentenceList'
p5086
(lp5087
(issf_api
Sentence
p5088
(dp5089
S'rootNode'
p5090
(lp5091
sg43
I0
sS'wordNumList'
p5092
(lp5093
I0
aI1
aI2
aI3
aI4
aI5
aI6
aI7
aI8
aI9
aI10
aI11
aI12
aI13
aI14
aI15
aI16
aI17
aI18
aI19
aI20
aI21
aI22
aI23
aI24
aI25
aI26
aI27
aI28
aI29
aI30
aI31
aI32
asS'nodeDict'
p5094
(dp5095
S'VGNF'
p5096
(issf_api
Node
p5097
(dp5098
S'nodeRelation'
p5099
S'vmod'
p5100
sS'nodeName'
p5101
g5096
sS'nodeParent'
p5102
S'VGF'
p5103
sS'nodeLevel'
p5104
I-1
sg42
I6
sS'childList'
p5105
(lp5106
S'NP6'
p5107
asbsS'NP11'
p5108
(issf_api
Node
p5109
(dp5110
g5099
S'k2'
p5111
sg5101
g5108
sg5102
S'VGNN'
p5112
sg5104
I-1
sg42
I12
sg5105
(lp5113
sbsS'NP10'
p5114
(issf_api
Node
p5115
(dp5116
g5099
S'k7'
p5117
sg5101
g5114
sg5102
S'VGF'
p5118
sg5104
I-1
sg42
I11
sg5105
(lp5119
sbsS'NP13'
p5120
(issf_api
Node
p5121
(dp5122
g5099
S'pof'
p5123
sg5101
g5120
sg5102
S'VGF'
p5124
sg5104
I-1
sg42
I15
sg5105
(lp5125
S'VGNN'
p5126
asbsS'NP12'
p5127
(issf_api
Node
p5128
(dp5129
g5099
S'pof'
p5130
sg5101
g5127
sg5102
S'VGNN'
p5131
sg5104
I-1
sg42
I13
sg5105
(lp5132
sbsS'CCP'
p5133
(issf_api
Node
p5134
(dp5135
g5099
S'r6'
p5136
sg5101
g5133
sg5102
S'NP9'
p5137
sg5104
I-1
sg42
I8
sg5105
(lp5138
S'NP8'
p5139
aS'NP7'
p5140
asbsS'NP5'
p5141
(issf_api
Node
p5142
(dp5143
g5099
S'k4'
p5144
sg5101
g5141
sg5102
S'VGF'
p5145
sg5104
I-1
sg42
I4
sg5105
(lp5146
sbsS'NP9'
p5147
(issf_api
Node
p5148
(dp5149
g5099
S'k7'
p5150
sg5101
g5147
sg5102
S'VGF'
p5151
sg5104
I-1
sg42
I10
sg5105
(lp5152
g5133
asbsg5139
(issf_api
Node
p5153
(dp5154
g5099
S'ccof'
p5155
sg5101
g5139
sg5102
S'CCP'
p5156
sg5104
I-1
sg42
I9
sg5105
(lp5157
sbsS'BLK'
p5158
(issf_api
Node
p5159
(dp5160
g5099
S'rsym'
p5161
sg5101
g5158
sg5102
S'VGF'
p5162
sg5104
I-1
sg42
I17
sg5105
(lp5163
sbsg5126
(issf_api
Node
p5164
(dp5165
g5099
S'r6-k2'
p5166
sg5101
g5126
sg5102
S'NP13'
p5167
sg5104
I-1
sg42
I14
sg5105
(lp5168
g5108
ag5127
asbsS'NP'
p5169
(issf_api
Node
p5170
(dp5171
g5099
S'r6'
p5172
sg5101
g5169
sg5102
S'NP2'
p5173
sg5104
I-1
sg42
I0
sg5105
(lp5174
sbsS'NP4'
p5175
(issf_api
Node
p5176
(dp5177
g5099
S'k7t'
p5178
sg5101
g5175
sg5102
S'VGF'
p5179
sg5104
I-1
sg42
I3
sg5105
(lp5180
sbsg5140
(issf_api
Node
p5181
(dp5182
g5099
S'ccof'
p5183
sg5101
g5140
sg5102
S'CCP'
p5184
sg5104
I-1
sg42
I7
sg5105
(lp5185
sbsg5107
(issf_api
Node
p5186
(dp5187
g5099
S'pof'
p5188
sg5101
g5107
sg5102
S'VGNF'
p5189
sg5104
I-1
sg42
I5
sg5105
(lp5190
sbsS'VGF'
p5191
(issf_api
Node
p5192
(dp5193
g5099
S'None'
p5194
sg5101
g5191
sg5102
g5194
sg5104
I-1
sg42
I16
sg5105
(lp5195
g5096
ag5114
ag5120
ag5141
ag5147
ag5158
ag5175
aS'NP3'
p5196
asbsg5196
(issf_api
Node
p5197
(dp5198
g5099
S'k1'
p5199
sg5101
g5196
sg5102
S'VGF'
p5200
sg5104
I-1
sg42
I2
sg5105
(lp5201
S'NP2'
p5202
asbsg5202
(issf_api
Node
p5203
(dp5204
g5099
S'nmod'
p5205
sg5101
g5202
sg5102
S'NP3'
p5206
sg5104
I-1
sg42
I1
sg5105
(lp5207
g5169
asbssS'chunkList'
p5208
(lp5209
(issf_api
Chunk
p5210
(dp5211
g5101
g25
sg42
I0
sS'chunkTag'
p5212
g47
sg43
I0
sg5092
(lp5213
I0
aI1
asg48
(issf_api
FeatureSet
p5214
(dp5215
g12
(dp5216
S'name'
p5217
g5169
sS'drel'
p5218
S'r6:NP2'
p5219
ssbsba(issf_api
Chunk
p5220
(dp5221
g5101
g82
sg42
I1
sg5212
g91
sg43
I0
sg5092
(lp5222
I2
asg48
(issf_api
FeatureSet
p5223
(dp5224
g12
(dp5225
S'name'
p5226
g5202
sS'drel'
p5227
S'nmod:NP3'
p5228
ssbsba(issf_api
Chunk
p5229
(dp5230
g5101
g126
sg42
I2
sg5212
g139
sg43
I0
sg5092
(lp5231
I3
aI4
aI5
asg48
(issf_api
FeatureSet
p5232
(dp5233
g12
(dp5234
S'name'
p5235
g5196
sS'drel'
p5236
S'k1:VGF'
p5237
ssbsba(issf_api
Chunk
p5238
(dp5239
g5101
g170
sg42
I3
sg5212
g177
sg43
I0
sg5092
(lp5240
I6
aI7
asg48
(issf_api
FeatureSet
p5241
(dp5242
g12
(dp5243
S'name'
p5244
g5175
sS'drel'
p5245
S'k7t:VGF'
p5246
ssbsba(issf_api
Chunk
p5247
(dp5248
g5101
g269
sg42
I4
sg5212
g282
sg43
I0
sg5092
(lp5249
I8
aI9
aI10
aI11
aI12
asg48
(issf_api
FeatureSet
p5250
(dp5251
g12
(dp5252
S'name'
p5253
g5141
sS'drel'
p5254
S'k4:VGF'
p5255
ssbsba(issf_api
Chunk
p5256
(dp5257
g5101
g315
sg42
I5
sg5212
g324
sg43
I0
sg5092
(lp5258
I13
asg48
(issf_api
FeatureSet
p5259
(dp5260
g12
(dp5261
S'name'
p5262
g5107
sS'drel'
p5263
S'pof:VGNF'
p5264
ssbsba(issf_api
Chunk
p5265
(dp5266
g5101
g338
sg42
I6
sg5212
g343
sg43
I0
sg5092
(lp5267
I14
asg48
(issf_api
FeatureSet
p5268
(dp5269
g12
(dp5270
S'name'
p5271
g5096
sS'drel'
p5272
S'vmod:VGF'
p5273
ssbsba(issf_api
Chunk
p5274
(dp5275
g5101
g359
sg42
I7
sg5212
g368
sg43
I0
sg5092
(lp5276
I15
asg48
(issf_api
FeatureSet
p5277
(dp5278
g12
(dp5279
S'name'
p5280
g5140
sS'drel'
p5281
S'ccof:CCP'
p5282
ssbsba(issf_api
Chunk
p5283
(dp5284
g5101
g382
sg42
I8
sg5212
g387
sg43
I0
sg5092
(lp5285
I16
asg48
(issf_api
FeatureSet
p5286
(dp5287
g12
(dp5288
S'name'
p5289
g5133
sS'drel'
p5290
S'r6:NP9'
p5291
ssbsba(issf_api
Chunk
p5292
(dp5293
g5101
g403
sg42
I9
sg5212
g414
sg43
I0
sg5092
(lp5294
I17
aI18
asg48
(issf_api
FeatureSet
p5295
(dp5296
g12
(dp5297
S'name'
p5298
g5139
sS'drel'
p5299
S'ccof:CCP'
p5300
ssbsba(issf_api
Chunk
p5301
(dp5302
g5101
g445
sg42
I10
sg5212
g452
sg43
I0
sg5092
(lp5303
I19
aI20
asg48
(issf_api
FeatureSet
p5304
(dp5305
g12
(dp5306
S'name'
p5307
g5147
sS'drel'
p5308
S'k7:VGF'
p5309
ssbsba(issf_api
Chunk
p5310
(dp5311
g5101
g500
sg42
I11
sg5212
g507
sg43
I0
sg5092
(lp5312
I21
aI22
aI23
asg48
(issf_api
FeatureSet
p5313
(dp5314
g12
(dp5315
S'name'
p5316
g5114
sS'drel'
p5317
S'k7:VGF'
p5318
ssbsba(issf_api
Chunk
p5319
(dp5320
g5101
g578
sg42
I12
sg5212
g587
sg43
I0
sg5092
(lp5321
I24
aI25
aI26
asg48
(issf_api
FeatureSet
p5322
(dp5323
g12
(dp5324
S'name'
p5325
g5108
sS'drel'
p5326
S'k2:VGNN'
p5327
ssbsba(issf_api
Chunk
p5328
(dp5329
g5101
g601
sg42
I13
sg5212
g606
sg43
I0
sg5092
(lp5330
I27
asg48
(issf_api
FeatureSet
p5331
(dp5332
g12
(dp5333
S'name'
p5334
g5127
sS'drel'
p5335
S'pof:VGNN'
p5336
ssbsba(issf_api
Chunk
p5337
(dp5338
g5101
g620
sg42
I14
sg5212
g627
sg43
I0
sg5092
(lp5339
I28
aI29
asg48
(issf_api
FeatureSet
p5340
(dp5341
g12
(dp5342
S'name'
p5343
g5126
sS'drel'
p5344
S'r6-k2:NP13'
p5345
ssbsba(issf_api
Chunk
p5346
(dp5347
g5101
g658
sg42
I15
sg5212
g663
sg43
I0
sg5092
(lp5348
I30
asg48
(issf_api
FeatureSet
p5349
(dp5350
g12
(dp5351
S'name'
p5352
g5120
sS'drel'
p5353
S'pof:VGF'
p5354
ssbsba(issf_api
Chunk
p5355
(dp5356
g5101
g677
sg42
I16
sg5212
g684
sg43
I0
sg5092
(lp5357
I31
asg48
(issf_api
FeatureSet
p5358
(dp5359
g12
(dp5360
S'name'
p5361
g5191
ssbsba(issf_api
Chunk
p5362
(dp5363
g5101
g698
sg42
I17
sg5212
g703
sg43
I0
sg5092
(lp5364
I32
asg48
(issf_api
FeatureSet
p5365
(dp5366
g12
(dp5367
S'name'
p5368
g5158
sS'drel'
p5369
S'rsym:VGF'
p5370
ssbsbasba(issf_api
Sentence
p5371
(dp5372
g5090
(lp5373
sg43
I1
sg5092
(lp5374
I33
aI34
aI35
aI36
aI37
aI38
aI39
aI40
aI41
aI42
aI43
aI44
aI45
aI46
aI47
aI48
aI49
aI50
aI51
aI52
aI53
aI54
aI55
aI56
aI57
aI58
aI59
aI60
aI61
aI62
aI63
aI64
aI65
aI66
aI67
aI68
aI69
aI70
aI71
asg5094
(dp5375
S'VGNF'
p5376
(issf_api
Node
p5377
(dp5378
g5099
S'vmod'
p5379
sg5101
g5376
sg5102
S'VGF2'
p5380
sg5104
I-1
sg42
I10
sg5105
(lp5381
S'NP8'
p5382
aS'NP7'
p5383
asbsS'NP11'
p5384
(issf_api
Node
p5385
(dp5386
g5099
S'ccof'
p5387
sg5101
g5384
sg5102
S'CCP2'
p5388
sg5104
I-1
sg42
I14
sg5105
(lp5389
sbsS'NP10'
p5390
(issf_api
Node
p5391
(dp5392
g5099
S'ccof'
p5393
sg5101
g5390
sg5102
S'CCP2'
p5394
sg5104
I-1
sg42
I12
sg5105
(lp5395
sbsS'VGF'
p5396
(issf_api
Node
p5397
(dp5398
g5099
g5194
sg5101
g5396
sg5102
g5194
sg5104
I-1
sg42
I5
sg5105
(lp5399
S'CCP'
p5400
aS'NP5'
p5401
aS'BLK'
p5402
aS'NP'
p5403
aS'NP4'
p5404
aS'NP3'
p5405
asbsS'NP12'
p5406
(issf_api
Node
p5407
(dp5408
g5099
S'k7p'
p5409
sg5101
g5406
sg5102
S'VGF2'
p5410
sg5104
I-1
sg42
I15
sg5105
(lp5411
sbsg5400
(issf_api
Node
p5412
(dp5413
g5099
S'k2'
p5414
sg5101
g5400
sg5102
S'VGF'
p5415
sg5104
I-1
sg42
I6
sg5105
(lp5416
S'VGF2'
p5417
asbsS'NP14'
p5418
(issf_api
Node
p5419
(dp5420
g5099
S'pof'
p5421
sg5101
g5418
sg5102
S'VGF2'
p5422
sg5104
I-1
sg42
I17
sg5105
(lp5423
sbsg5417
(issf_api
Node
p5424
(dp5425
g5099
S'ccof'
p5426
sg5101
g5417
sg5102
S'CCP'
p5427
sg5104
I-1
sg42
I18
sg5105
(lp5428
g5376
ag5406
ag5418
aS'NP9'
p5429
aS'CCP2'
p5430
aS'NP13'
p5431
asbsg5401
(issf_api
Node
p5432
(dp5433
g5099
S'k4'
p5434
sg5101
g5401
sg5102
S'VGF'
p5435
sg5104
I-1
sg42
I4
sg5105
(lp5436
sbsg5429
(issf_api
Node
p5437
(dp5438
g5099
S'k1'
p5439
sg5101
g5429
sg5102
S'VGF2'
p5440
sg5104
I-1
sg42
I11
sg5105
(lp5441
sbsg5382
(issf_api
Node
p5442
(dp5443
g5099
S'k7'
p5444
sg5101
g5382
sg5102
S'VGNF'
p5445
sg5104
I-1
sg42
I9
sg5105
(lp5446
sbsg5402
(issf_api
Node
p5447
(dp5448
g5099
S'rsym'
p5449
sg5101
g5402
sg5102
S'VGF'
p5450
sg5104
I-1
sg42
I19
sg5105
(lp5451
sbsg5403
(issf_api
Node
p5452
(dp5453
g5099
S'ras-k1'
p5454
sg5101
g5403
sg5102
S'VGF'
p5455
sg5104
I-1
sg42
I0
sg5105
(lp5456
sbsg5404
(issf_api
Node
p5457
(dp5458
g5099
S'k1'
p5459
sg5101
g5404
sg5102
S'VGF'
p5460
sg5104
I-1
sg42
I3
sg5105
(lp5461
sbsg5383
(issf_api
Node
p5462
(dp5463
g5099
S'k2'
p5464
sg5101
g5383
sg5102
S'VGNF'
p5465
sg5104
I-1
sg42
I8
sg5105
(lp5466
S'NP6'
p5467
asbsg5467
(issf_api
Node
p5468
(dp5469
g5099
S'r6'
p5470
sg5101
g5467
sg5102
S'NP7'
p5471
sg5104
I-1
sg42
I7
sg5105
(lp5472
sbsg5430
(issf_api
Node
p5473
(dp5474
g5099
S'k2u'
p5475
sg5101
g5430
sg5102
S'VGF2'
p5476
sg5104
I-1
sg42
I13
sg5105
(lp5477
g5384
ag5390
asbsg5431
(issf_api
Node
p5478
(dp5479
g5099
S'k2'
p5480
sg5101
g5431
sg5102
S'VGF2'
p5481
sg5104
I-1
sg42
I16
sg5105
(lp5482
sbsg5405
(issf_api
Node
p5483
(dp5484
g5099
S'k7t'
p5485
sg5101
g5405
sg5102
S'VGF'
p5486
sg5104
I-1
sg42
I2
sg5105
(lp5487
S'NP2'
p5488
asbsg5488
(issf_api
Node
p5489
(dp5490
g5099
S'r6'
p5491
sg5101
g5488
sg5102
S'NP3'
p5492
sg5104
I-1
sg42
I1
sg5105
(lp5493
sbssg5208
(lp5494
(issf_api
Chunk
p5495
(dp5496
g5101
g719
sg42
I0
sg5212
g730
sg43
I1
sg5092
(lp5497
I33
aI34
aI35
asg48
(issf_api
FeatureSet
p5498
(dp5499
g12
(dp5500
S'name'
p5501
g5403
sS'drel'
p5502
S'ras-k1:VGF'
p5503
ssbsba(issf_api
Chunk
p5504
(dp5505
g5101
g795
sg42
I1
sg5212
g802
sg43
I1
sg5092
(lp5506
I36
aI37
aI38
asg48
(issf_api
FeatureSet
p5507
(dp5508
g12
(dp5509
S'name'
p5510
g5488
sS'drel'
p5511
S'r6:NP3'
p5512
ssbsba(issf_api
Chunk
p5513
(dp5514
g5101
g835
sg42
I2
sg5212
g846
sg43
I1
sg5092
(lp5515
I39
aI40
aI41
asg48
(issf_api
FeatureSet
p5516
(dp5517
g12
(dp5518
S'name'
p5519
g5405
sS'drel'
p5520
S'k7t:VGF'
p5521
ssbsba(issf_api
Chunk
p5522
(dp5523
g5101
g896
sg42
I3
sg5212
g907
sg43
I1
sg5092
(lp5524
I42
aI43
asg48
(issf_api
FeatureSet
p5525
(dp5526
g12
(dp5527
S'name'
p5528
g5404
sS'drel'
p5529
S'k1:VGF'
p5530
ssbsba(issf_api
Chunk
p5531
(dp5532
g5101
g938
sg42
I4
sg5212
g945
sg43
I1
sg5092
(lp5533
I44
aI45
asg48
(issf_api
FeatureSet
p5534
(dp5535
g12
(dp5536
S'name'
p5537
g5401
sS'drel'
p5538
S'k4:VGF'
p5539
ssbsba(issf_api
Chunk
p5540
(dp5541
g5101
g976
sg42
I5
sg5212
g983
sg43
I1
sg5092
(lp5542
I46
asg48
(issf_api
FeatureSet
p5543
(dp5544
g12
(dp5545
S'name'
p5546
g5396
ssbsba(issf_api
Chunk
p5547
(dp5548
g5101
g997
sg42
I6
sg5212
g1002
sg43
I1
sg5092
(lp5549
I47
asg48
(issf_api
FeatureSet
p5550
(dp5551
g12
(dp5552
S'name'
p5553
g5400
sS'drel'
p5554
S'k2:VGF'
p5555
ssbsba(issf_api
Chunk
p5556
(dp5557
g5101
g1033
sg42
I7
sg5212
g1040
sg43
I1
sg5092
(lp5558
I48
aI49
aI50
asg48
(issf_api
FeatureSet
p5559
(dp5560
g12
(dp5561
S'name'
p5562
g5467
sS'drel'
p5563
S'r6:NP7'
p5564
ssbsba(issf_api
Chunk
p5565
(dp5566
g5101
g1071
sg42
I8
sg5212
g1078
sg43
I1
sg5092
(lp5567
I51
aI52
asg48
(issf_api
FeatureSet
p5568
(dp5569
g12
(dp5570
S'name'
p5571
g5383
sS'drel'
p5572
S'k2:VGNF'
p5573
ssbsba(issf_api
Chunk
p5574
(dp5575
g5101
g1109
sg42
I9
sg5212
g1116
sg43
I1
sg5092
(lp5576
I53
aI54
asg48
(issf_api
FeatureSet
p5577
(dp5578
g12
(dp5579
S'name'
p5580
g5382
sS'drel'
p5581
S'k7:VGNF'
p5582
ssbsba(issf_api
Chunk
p5583
(dp5584
g5101
g1147
sg42
I10
sg5212
g1154
sg43
I1
sg5092
(lp5585
I55
aI56
asg48
(issf_api
FeatureSet
p5586
(dp5587
g12
(dp5588
S'name'
p5589
g5376
sS'drel'
p5590
S'vmod:VGF2'
p5591
ssbsba(issf_api
Chunk
p5592
(dp5593
g5101
g1187
sg42
I11
sg5212
g1196
sg43
I1
sg5092
(lp5594
I57
asg48
(issf_api
FeatureSet
p5595
(dp5596
g12
(dp5597
S'name'
p5598
g5429
sS'drel'
p5599
S'k1:VGF2'
p5600
ssbsba(issf_api
Chunk
p5601
(dp5602
g5101
g1212
sg42
I12
sg5212
g1221
sg43
I1
sg5092
(lp5603
I58
asg48
(issf_api
FeatureSet
p5604
(dp5605
g12
(dp5606
S'name'
p5607
g5390
sS'drel'
p5608
S'ccof:CCP2'
p5609
ssbsba(issf_api
Chunk
p5610
(dp5611
g5101
g1235
sg42
I13
sg5212
g1240
sg43
I1
sg5092
(lp5612
I59
asg48
(issf_api
FeatureSet
p5613
(dp5614
g12
(dp5615
S'name'
p5616
g5430
sS'drel'
p5617
S'k2u:VGF2'
p5618
ssbsba(issf_api
Chunk
p5619
(dp5620
g5101
g1256
sg42
I14
sg5212
g1267
sg43
I1
sg5092
(lp5621
I60
aI61
aI62
aI63
asg48
(issf_api
FeatureSet
p5622
(dp5623
g12
(dp5624
S'name'
p5625
g5384
sS'drel'
p5626
S'ccof:CCP2'
p5627
ssbsba(issf_api
Chunk
p5628
(dp5629
g5101
g1334
sg42
I15
sg5212
g1345
sg43
I1
sg5092
(lp5630
I64
aI65
asg48
(issf_api
FeatureSet
p5631
(dp5632
g12
(dp5633
S'name'
p5634
g5406
sS'drel'
p5635
S'k7p:VGF2'
p5636
ssbsba(issf_api
Chunk
p5637
(dp5638
g5101
g1397
sg42
I16
sg5212
g1406
sg43
I1
sg5092
(lp5639
I66
aI67
asg48
(issf_api
FeatureSet
p5640
(dp5641
g12
(dp5642
S'name'
p5643
g5431
sS'drel'
p5644
S'k2:VGF2'
p5645
ssbsba(issf_api
Chunk
p5646
(dp5647
g5101
g1420
sg42
I17
sg5212
g1425
sg43
I1
sg5092
(lp5648
I68
asg48
(issf_api
FeatureSet
p5649
(dp5650
g12
(dp5651
S'name'
p5652
g5418
sS'drel'
p5653
S'pof:VGF2'
p5654
ssbsba(issf_api
Chunk
p5655
(dp5656
g5101
g1439
sg42
I18
sg5212
g1450
sg43
I1
sg5092
(lp5657
I69
aI70
asg48
(issf_api
FeatureSet
p5658
(dp5659
g12
(dp5660
S'name'
p5661
g5417
sS'drel'
p5662
S'ccof:CCP'
p5663
ssbsba(issf_api
Chunk
p5664
(dp5665
g5101
g1481
sg42
I19
sg5212
g1486
sg43
I1
sg5092
(lp5666
I71
asg48
(issf_api
FeatureSet
p5667
(dp5668
g12
(dp5669
S'name'
p5670
g5402
sS'drel'
p5671
S'rsym:VGF'
p5672
ssbsbasba(issf_api
Sentence
p5673
(dp5674
g5090
(lp5675
sg43
I2
sg5092
(lp5676
I72
aI73
aI74
aI75
aI76
aI77
aI78
aI79
aI80
aI81
aI82
aI83
aI84
aI85
aI86
aI87
aI88
aI89
aI90
aI91
aI92
aI93
aI94
aI95
aI96
aI97
aI98
aI99
aI100
asg5094
(dp5677
S'VGF2'
p5678
(issf_api
Node
p5679
(dp5680
g5099
S'ccof'
p5681
sg5101
g5678
sg5102
S'CCP3'
p5682
sg5104
I-1
sg42
I10
sg5105
(lp5683
S'JJP3'
p5684
aS'NP4'
p5685
aS'NP2'
p5686
asbsS'VGF'
p5687
(issf_api
Node
p5688
(dp5689
g5099
g5194
sg5101
g5687
sg5102
g5194
sg5104
I-1
sg42
I1
sg5105
(lp5690
S'CCP'
p5691
aS'BLK'
p5692
aS'NP'
p5693
asbsS'VGF3'
p5694
(issf_api
Node
p5695
(dp5696
g5099
S'ccof'
p5697
sg5101
g5694
sg5102
S'CCP3'
p5698
sg5104
I-1
sg42
I16
sg5105
(lp5699
S'JJP4'
p5700
aS'NP7'
p5701
aS'NP6'
p5702
asbsg5691
(issf_api
Node
p5703
(dp5704
g5099
S'k2'
p5705
sg5101
g5691
sg5102
S'VGF'
p5706
sg5104
I-1
sg42
I2
sg5105
(lp5707
S'CCP3'
p5708
asbsS'JJP'
p5709
(issf_api
Node
p5710
(dp5711
g5099
S'ccof'
p5712
sg5101
g5709
sg5102
S'CCP2'
p5713
sg5104
I-1
sg42
I5
sg5105
(lp5714
S'NP3'
p5715
asbsS'NP5'
p5716
(issf_api
Node
p5717
(dp5718
g5099
S'r6'
p5719
sg5101
g5716
sg5102
S'NP7'
p5720
sg5104
I-1
sg42
I12
sg5105
(lp5721
sbsS'JJP2'
p5722
(issf_api
Node
p5723
(dp5724
g5099
S'ccof'
p5725
sg5101
g5722
sg5102
S'CCP2'
p5726
sg5104
I-1
sg42
I7
sg5105
(lp5727
sbsg5684
(issf_api
Node
p5728
(dp5729
g5099
S'pof'
p5730
sg5101
g5684
sg5102
S'VGF2'
p5731
sg5104
I-1
sg42
I9
sg5105
(lp5732
sbsg5700
(issf_api
Node
p5733
(dp5734
g5099
S'pof'
p5735
sg5101
g5700
sg5102
S'VGF3'
p5736
sg5104
I-1
sg42
I15
sg5105
(lp5737
sbsg5692
(issf_api
Node
p5738
(dp5739
g5099
S'rsym'
p5740
sg5101
g5692
sg5102
S'VGF'
p5741
sg5104
I-1
sg42
I17
sg5105
(lp5742
sbsg5693
(issf_api
Node
p5743
(dp5744
g5099
S'k1'
p5745
sg5101
g5693
sg5102
S'VGF'
p5746
sg5104
I-1
sg42
I0
sg5105
(lp5747
sbsg5685
(issf_api
Node
p5748
(dp5749
g5099
S'k2'
p5750
sg5101
g5685
sg5102
S'VGF2'
p5751
sg5104
I-1
sg42
I8
sg5105
(lp5752
sbsg5701
(issf_api
Node
p5753
(dp5754
g5099
S'k2'
p5755
sg5101
g5701
sg5102
S'VGF3'
p5756
sg5104
I-1
sg42
I14
sg5105
(lp5757
g5716
aS'CCP2'
p5758
asbsg5702
(issf_api
Node
p5759
(dp5760
g5099
S'k7p'
p5761
sg5101
g5702
sg5102
S'VGF3'
p5762
sg5104
I-1
sg42
I13
sg5105
(lp5763
sbsg5758
(issf_api
Node
p5764
(dp5765
g5099
S'fragof'
p5766
sg5101
g5758
sg5102
S'NP7'
p5767
sg5104
I-1
sg42
I6
sg5105
(lp5768
g5709
ag5722
asbsg5708
(issf_api
Node
p5769
(dp5770
g5099
S'ccof'
p5771
sg5101
g5708
sg5102
S'CCP'
p5772
sg5104
I-1
sg42
I11
sg5105
(lp5773
g5678
ag5694
asbsg5715
(issf_api
Node
p5774
(dp5775
g5099
S'jjmod'
p5776
sg5101
g5715
sg5102
S'JJP'
p5777
sg5104
I-1
sg42
I4
sg5105
(lp5778
sbsg5686
(issf_api
Node
p5779
(dp5780
g5099
S'k7'
p5781
sg5101
g5686
sg5102
S'VGF2'
p5782
sg5104
I-1
sg42
I3
sg5105
(lp5783
sbssg5208
(lp5784
(issf_api
Chunk
p5785
(dp5786
g5101
g1502
sg42
I0
sg5212
g1513
sg43
I2
sg5092
(lp5787
I72
aI73
asg48
(issf_api
FeatureSet
p5788
(dp5789
g12
(dp5790
S'name'
p5791
g5693
sS'drel'
p5792
S'k1:VGF'
p5793
ssbsba(issf_api
Chunk
p5794
(dp5795
g5101
g1544
sg42
I1
sg5212
g1551
sg43
I2
sg5092
(lp5796
I74
asg48
(issf_api
FeatureSet
p5797
(dp5798
g12
(dp5799
S'name'
p5800
g5687
ssbsba(issf_api
Chunk
p5801
(dp5802
g5101
g1565
sg42
I2
sg5212
g1570
sg43
I2
sg5092
(lp5803
I75
asg48
(issf_api
FeatureSet
p5804
(dp5805
g12
(dp5806
S'name'
p5807
g5691
sS'drel'
p5808
S'k2:VGF'
p5809
ssbsba(issf_api
Chunk
p5810
(dp5811
g5101
g1605
sg42
I3
sg5212
g1616
sg43
I2
sg5092
(lp5812
I76
aI77
aI78
asg48
(issf_api
FeatureSet
p5813
(dp5814
g12
(dp5815
S'name'
p5816
g5686
sS'drel'
p5817
S'k7:VGF2'
p5818
ssbsba(issf_api
Chunk
p5819
(dp5820
g5101
g1664
sg42
I4
sg5212
g1669
sg43
I2
sg5092
(lp5821
I79
aI80
asg48
(issf_api
FeatureSet
p5822
(dp5823
g12
(dp5824
S'name'
p5825
g5715
sS'drel'
p5826
S'jjmod:JJP'
p5827
ssbsba(issf_api
Chunk
p5828
(dp5829
g5101
g1683
sg42
I5
sg5212
g1688
sg43
I2
sg5092
(lp5830
I81
asg48
(issf_api
FeatureSet
p5831
(dp5832
g12
(dp5833
S'name'
p5834
g5709
sS'drel'
p5835
S'ccof:CCP2'
p5836
ssbsba(issf_api
Chunk
p5837
(dp5838
g5101
g1702
sg42
I6
sg5212
g1707
sg43
I2
sg5092
(lp5839
I82
asg48
(issf_api
FeatureSet
p5840
(dp5841
g12
(dp5842
S'name'
p5843
g5758
sS'drel'
p5844
S'fragof:NP7'
p5845
ssbsba(issf_api
Chunk
p5846
(dp5847
g5101
g1721
sg42
I7
sg5212
g1726
sg43
I2
sg5092
(lp5848
I83
asg48
(issf_api
FeatureSet
p5849
(dp5850
g12
(dp5851
S'name'
p5852
g5722
sS'drel'
p5853
S'ccof:CCP2'
p5854
ssbsba(issf_api
Chunk
p5855
(dp5856
g5101
g1740
sg42
I8
sg5212
g1747
sg43
I2
sg5092
(lp5857
I84
aI85
asg48
(issf_api
FeatureSet
p5858
(dp5859
g12
(dp5860
S'name'
p5861
g5685
sS'drel'
p5862
S'k2:VGF2'
p5863
ssbsba(issf_api
Chunk
p5864
(dp5865
g5101
g1778
sg42
I9
sg5212
g1783
sg43
I2
sg5092
(lp5866
I86
asg48
(issf_api
FeatureSet
p5867
(dp5868
g12
(dp5869
S'name'
p5870
g5684
sS'drel'
p5871
S'pof:VGF2'
p5872
ssbsba(issf_api
Chunk
p5873
(dp5874
g5101
g1797
sg42
I10
sg5212
g1808
sg43
I2
sg5092
(lp5875
I87
aI88
aI89
asg48
(issf_api
FeatureSet
p5876
(dp5877
g12
(dp5878
S'name'
p5879
g5678
sS'drel'
p5880
S'ccof:CCP3'
p5881
ssbsba(issf_api
Chunk
p5882
(dp5883
g5101
g1856
sg42
I11
sg5212
g1861
sg43
I2
sg5092
(lp5884
I90
asg48
(issf_api
FeatureSet
p5885
(dp5886
g12
(dp5887
S'name'
p5888
g5708
sS'drel'
p5889
S'ccof:CCP'
p5890
ssbsba(issf_api
Chunk
p5891
(dp5892
g5101
g1877
sg42
I12
sg5212
g1886
sg43
I2
sg5092
(lp5893
I91
asg48
(issf_api
FeatureSet
p5894
(dp5895
g12
(dp5896
S'name'
p5897
g5716
sS'drel'
p5898
S'r6:NP7'
p5899
ssbsba(issf_api
Chunk
p5900
(dp5901
g5101
g1919
sg42
I13
sg5212
g1930
sg43
I2
sg5092
(lp5902
I92
aI93
aI94
asg48
(issf_api
FeatureSet
p5903
(dp5904
g12
(dp5905
S'name'
p5906
g5702
sS'drel'
p5907
S'k7p:VGF3'
p5908
ssbsba(issf_api
Chunk
p5909
(dp5910
g5101
g1961
sg42
I14
sg5212
g1966
sg43
I2
sg5092
(lp5911
I95
asg48
(issf_api
FeatureSet
p5912
(dp5913
g12
(dp5914
S'name'
p5915
g5701
sS'drel'
p5916
S'k2:VGF3'
p5917
ssbsba(issf_api
Chunk
p5918
(dp5919
g5101
g1980
sg42
I15
sg5212
g1985
sg43
I2
sg5092
(lp5920
I96
asg48
(issf_api
FeatureSet
p5921
(dp5922
g12
(dp5923
S'name'
p5924
g5700
sS'drel'
p5925
S'pof:VGF3'
p5926
ssbsba(issf_api
Chunk
p5927
(dp5928
g5101
g1999
sg42
I16
sg5212
g2010
sg43
I2
sg5092
(lp5929
I97
aI98
aI99
asg48
(issf_api
FeatureSet
p5930
(dp5931
g12
(dp5932
S'name'
p5933
g5694
sS'drel'
p5934
S'ccof:CCP3'
p5935
ssbsba(issf_api
Chunk
p5936
(dp5937
g5101
g2058
sg42
I17
sg5212
g2063
sg43
I2
sg5092
(lp5938
I100
asg48
(issf_api
FeatureSet
p5939
(dp5940
g12
(dp5941
S'name'
p5942
g5692
sS'drel'
p5943
S'rsym:VGF'
p5944
ssbsbasba(issf_api
Sentence
p5945
(dp5946
g5090
(lp5947
sg43
I3
sg5092
(lp5948
I101
aI102
aI103
aI104
aI105
aI106
asg5094
(dp5949
S'NP'
p5950
(issf_api
Node
p5951
(dp5952
g5099
S'k3'
p5953
sg5101
g5950
sg5102
S'VGF'
p5954
sg5104
I-1
sg42
I0
sg5105
(lp5955
sbsS'VGF'
p5956
(issf_api
Node
p5957
(dp5958
g5099
g5194
sg5101
g5956
sg5102
g5194
sg5104
I-1
sg42
I2
sg5105
(lp5959
g5950
aS'BLK'
p5960
aS'NP2'
p5961
asbsg5960
(issf_api
Node
p5962
(dp5963
g5099
S'rsym'
p5964
sg5101
g5960
sg5102
S'VGF'
p5965
sg5104
I-1
sg42
I3
sg5105
(lp5966
sbsg5961
(issf_api
Node
p5967
(dp5968
g5099
S'k1'
p5969
sg5101
g5961
sg5102
S'VGF'
p5970
sg5104
I-1
sg42
I1
sg5105
(lp5971
sbssg5208
(lp5972
(issf_api
Chunk
p5973
(dp5974
g5101
g2079
sg42
I0
sg5212
g2088
sg43
I3
sg5092
(lp5975
I101
asg48
(issf_api
FeatureSet
p5976
(dp5977
g12
(dp5978
S'name'
p5979
g5950
sS'drel'
p5980
S'k3:VGF'
p5981
ssbsba(issf_api
Chunk
p5982
(dp5983
g5101
g2119
sg42
I1
sg5212
g2124
sg43
I3
sg5092
(lp5984
I102
aI103
asg48
(issf_api
FeatureSet
p5985
(dp5986
g12
(dp5987
S'name'
p5988
g5961
sS'drel'
p5989
S'k1:VGF'
p5990
ssbsba(issf_api
Chunk
p5991
(dp5992
g5101
g2138
sg42
I2
sg5212
g2147
sg43
I3
sg5092
(lp5993
I104
aI105
asg48
(issf_api
FeatureSet
p5994
(dp5995
g12
(dp5996
S'name'
p5997
g5956
ssbsba(issf_api
Chunk
p5998
(dp5999
g5101
g2178
sg42
I3
sg5212
g2183
sg43
I3
sg5092
(lp6000
I106
asg48
(issf_api
FeatureSet
p6001
(dp6002
g12
(dp6003
S'name'
p6004
g5960
sS'drel'
p6005
S'rsym:VGF'
p6006
ssbsbasba(issf_api
Sentence
p6007
(dp6008
g5090
(lp6009
sg43
I4
sg5092
(lp6010
I107
aI108
aI109
aI110
aI111
aI112
aI113
aI114
aI115
aI116
aI117
aI118
asg5094
(dp6011
S'VGF'
p6012
(issf_api
Node
p6013
(dp6014
g5099
g5194
sg5101
g6012
sg5102
g5194
sg5104
I-1
sg42
I1
sg5105
(lp6015
S'CCP'
p6016
aS'BLK'
p6017
aS'NP'
p6018
asbsg6016
(issf_api
Node
p6019
(dp6020
g5099
S'k2'
p6021
sg5101
g6016
sg5102
S'VGF'
p6022
sg5104
I-1
sg42
I2
sg5105
(lp6023
S'VGF2'
p6024
asbsg6024
(issf_api
Node
p6025
(dp6026
g5099
S'ccof'
p6027
sg5101
g6024
sg5102
S'CCP'
p6028
sg5104
I-1
sg42
I7
sg5105
(lp6029
S'NP5'
p6030
aS'NP2'
p6031
asbsg6030
(issf_api
Node
p6032
(dp6033
g5099
S'pof'
p6034
sg5101
g6030
sg5102
S'VGF2'
p6035
sg5104
I-1
sg42
I6
sg5105
(lp6036
S'NP4'
p6037
asbsg6017
(issf_api
Node
p6038
(dp6039
g5099
S'rsym'
p6040
sg5101
g6017
sg5102
S'VGF'
p6041
sg5104
I-1
sg42
I8
sg5105
(lp6042
sbsg6018
(issf_api
Node
p6043
(dp6044
g5099
S'k1'
p6045
sg5101
g6018
sg5102
S'VGF'
p6046
sg5104
I-1
sg42
I0
sg5105
(lp6047
sbsg6037
(issf_api
Node
p6048
(dp6049
g5099
S'r6-k2'
p6050
sg5101
g6037
sg5102
S'NP5'
p6051
sg5104
I-1
sg42
I5
sg5105
(lp6052
S'NP3'
p6053
asbsg6053
(issf_api
Node
p6054
(dp6055
g5099
S'r6'
p6056
sg5101
g6053
sg5102
S'NP4'
p6057
sg5104
I-1
sg42
I4
sg5105
(lp6058
sbsg6031
(issf_api
Node
p6059
(dp6060
g5099
S'k1'
p6061
sg5101
g6031
sg5102
S'VGF2'
p6062
sg5104
I-1
sg42
I3
sg5105
(lp6063
sbssg5208
(lp6064
(issf_api
Chunk
p6065
(dp6066
g5101
g2199
sg42
I0
sg5212
g2208
sg43
I4
sg5092
(lp6067
I107
asg48
(issf_api
FeatureSet
p6068
(dp6069
g12
(dp6070
S'name'
p6071
g6018
sS'drel'
p6072
S'k1:VGF'
p6073
ssbsba(issf_api
Chunk
p6074
(dp6075
g5101
g2222
sg42
I1
sg5212
g2229
sg43
I4
sg5092
(lp6076
I108
asg48
(issf_api
FeatureSet
p6077
(dp6078
g12
(dp6079
S'name'
p6080
g6012
ssbsba(issf_api
Chunk
p6081
(dp6082
g5101
g2243
sg42
I2
sg5212
g2248
sg43
I4
sg5092
(lp6083
I109
asg48
(issf_api
FeatureSet
p6084
(dp6085
g12
(dp6086
S'name'
p6087
g6016
sS'drel'
p6088
S'k2:VGF'
p6089
ssbsba(issf_api
Chunk
p6090
(dp6091
g5101
g2264
sg42
I3
sg5212
g2275
sg43
I4
sg5092
(lp6092
I110
aI111
asg48
(issf_api
FeatureSet
p6093
(dp6094
g12
(dp6095
S'name'
p6096
g6031
sS'drel'
p6097
S'k1:VGF2'
p6098
ssbsba(issf_api
Chunk
p6099
(dp6100
g5101
g2308
sg42
I4
sg5212
g2317
sg43
I4
sg5092
(lp6101
I112
asg48
(issf_api
FeatureSet
p6102
(dp6103
g12
(dp6104
S'name'
p6105
g6053
sS'drel'
p6106
S'r6:NP4'
p6107
ssbsba(issf_api
Chunk
p6108
(dp6109
g5101
g2331
sg42
I5
sg5212
g2338
sg43
I4
sg5092
(lp6110
I113
aI114
asg48
(issf_api
FeatureSet
p6111
(dp6112
g12
(dp6113
S'name'
p6114
g6037
sS'drel'
p6115
S'r6-k2:NP5'
p6116
ssbsba(issf_api
Chunk
p6117
(dp6118
g5101
g2369
sg42
I6
sg5212
g2374
sg43
I4
sg5092
(lp6119
I115
asg48
(issf_api
FeatureSet
p6120
(dp6121
g12
(dp6122
S'name'
p6123
g6030
sS'drel'
p6124
S'pof:VGF2'
p6125
ssbsba(issf_api
Chunk
p6126
(dp6127
g5101
g2388
sg42
I7
sg5212
g2399
sg43
I4
sg5092
(lp6128
I116
aI117
asg48
(issf_api
FeatureSet
p6129
(dp6130
g12
(dp6131
S'name'
p6132
g6024
sS'drel'
p6133
S'ccof:CCP'
p6134
ssbsba(issf_api
Chunk
p6135
(dp6136
g5101
g2430
sg42
I8
sg5212
g2435
sg43
I4
sg5092
(lp6137
I118
asg48
(issf_api
FeatureSet
p6138
(dp6139
g12
(dp6140
S'name'
p6141
g6017
sS'drel'
p6142
S'rsym:VGF'
p6143
ssbsbasba(issf_api
Sentence
p6144
(dp6145
g5090
(lp6146
sg43
I5
sg5092
(lp6147
I119
aI120
aI121
aI122
aI123
aI124
aI125
aI126
aI127
aI128
aI129
aI130
aI131
aI132
aI133
aI134
aI135
aI136
aI137
aI138
aI139
aI140
aI141
aI142
aI143
aI144
aI145
aI146
aI147
aI148
aI149
aI150
aI151
aI152
aI153
aI154
asg5094
(dp6148
S'VGNF'
p6149
(issf_api
Node
p6150
(dp6151
g5099
S'vmod'
p6152
sg5101
g6149
sg5102
S'VGF'
p6153
sg5104
I-1
sg42
I3
sg5105
(lp6154
S'NP3'
p6155
aS'NP2'
p6156
asbsS'NP11'
p6157
(issf_api
Node
p6158
(dp6159
g5099
S'r6'
p6160
sg5101
g6157
sg5102
S'NP12'
p6161
sg5104
I-1
sg42
I14
sg5105
(lp6162
sbsS'NP10'
p6163
(issf_api
Node
p6164
(dp6165
g5099
S'r6'
p6166
sg5101
g6163
sg5102
S'NP12'
p6167
sg5104
I-1
sg42
I13
sg5105
(lp6168
sbsS'VGF'
p6169
(issf_api
Node
p6170
(dp6171
g5099
g5194
sg5101
g6169
sg5102
g5194
sg5104
I-1
sg42
I5
sg5105
(lp6172
g6149
aS'CCP'
p6173
aS'BLK'
p6174
aS'NP4'
p6175
asbsS'NP12'
p6176
(issf_api
Node
p6177
(dp6178
g5099
S'k2'
p6179
sg5101
g6176
sg5102
S'VGF2'
p6180
sg5104
I-1
sg42
I15
sg5105
(lp6181
g6157
ag6163
asbsg6173
(issf_api
Node
p6182
(dp6183
g5099
S'k2'
p6184
sg5101
g6173
sg5102
S'VGF'
p6185
sg5104
I-1
sg42
I6
sg5105
(lp6186
S'VGF2'
p6187
asbsS'JJP'
p6188
(issf_api
Node
p6189
(dp6190
g5099
S'nmod'
p6191
sg5101
g6188
sg5102
S'NP8'
p6192
sg5104
I-1
sg42
I10
sg5105
(lp6193
S'NP7'
p6194
asbsg6187
(issf_api
Node
p6195
(dp6196
g5099
S'ccof'
p6197
sg5101
g6187
sg5102
S'CCP'
p6198
sg5104
I-1
sg42
I16
sg5105
(lp6199
g6176
aS'NP5'
p6200
aS'NP9'
p6201
asbsg6200
(issf_api
Node
p6202
(dp6203
g5099
S'k1'
p6204
sg5101
g6200
sg5102
S'VGF2'
p6205
sg5104
I-1
sg42
I7
sg5105
(lp6206
sbsg6201
(issf_api
Node
p6207
(dp6208
g5099
S'rt'
p6209
sg5101
g6201
sg5102
S'VGF2'
p6210
sg5104
I-1
sg42
I12
sg5105
(lp6211
S'NP8'
p6212
asbsg6212
(issf_api
Node
p6213
(dp6214
g5099
S'r6'
p6215
sg5101
g6212
sg5102
S'NP9'
p6216
sg5104
I-1
sg42
I11
sg5105
(lp6217
g6188
asbsg6174
(issf_api
Node
p6218
(dp6219
g5099
S'rsym'
p6220
sg5101
g6174
sg5102
S'VGF'
p6221
sg5104
I-1
sg42
I17
sg5105
(lp6222
sbsS'NP'
p6223
(issf_api
Node
p6224
(dp6225
g5099
S'nmod'
p6226
sg5101
g6223
sg5102
S'NP2'
p6227
sg5104
I-1
sg42
I0
sg5105
(lp6228
sbsg6175
(issf_api
Node
p6229
(dp6230
g5099
S'k1'
p6231
sg5101
g6175
sg5102
S'VGF'
p6232
sg5104
I-1
sg42
I4
sg5105
(lp6233
sbsg6194
(issf_api
Node
p6234
(dp6235
g5099
S'jjmod'
p6236
sg5101
g6194
sg5102
S'JJP'
p6237
sg5104
I-1
sg42
I9
sg5105
(lp6238
S'NP6'
p6239
asbsg6239
(issf_api
Node
p6240
(dp6241
g5099
S'r6'
p6242
sg5101
g6239
sg5102
S'NP7'
p6243
sg5104
I-1
sg42
I8
sg5105
(lp6244
sbsg6155
(issf_api
Node
p6245
(dp6246
g5099
S'k2s'
p6247
sg5101
g6155
sg5102
S'VGNF'
p6248
sg5104
I-1
sg42
I2
sg5105
(lp6249
sbsg6156
(issf_api
Node
p6250
(dp6251
g5099
S'k2'
p6252
sg5101
g6156
sg5102
S'VGNF'
p6253
sg5104
I-1
sg42
I1
sg5105
(lp6254
g6223
asbssg5208
(lp6255
(issf_api
Chunk
p6256
(dp6257
g5101
g2451
sg42
I0
sg5212
g2462
sg43
I5
sg5092
(lp6258
I119
aI120
aI121
asg48
(issf_api
FeatureSet
p6259
(dp6260
g12
(dp6261
S'name'
p6262
g6223
sS'drel'
p6263
S'nmod:NP2'
p6264
ssbsba(issf_api
Chunk
p6265
(dp6266
g5101
g2512
sg42
I1
sg5212
g2523
sg43
I5
sg5092
(lp6267
I122
aI123
asg48
(issf_api
FeatureSet
p6268
(dp6269
g12
(dp6270
S'name'
p6271
g6156
sS'drel'
p6272
S'k2:VGNF'
p6273
ssbsba(issf_api
Chunk
p6274
(dp6275
g5101
g2575
sg42
I2
sg5212
g2584
sg43
I5
sg5092
(lp6276
I124
aI125
asg48
(issf_api
FeatureSet
p6277
(dp6278
g12
(dp6279
S'name'
p6280
g6155
sS'drel'
p6281
S'k2s:VGNF'
p6282
ssbsba(issf_api
Chunk
p6283
(dp6284
g5101
g2598
sg42
I3
sg5212
g2605
sg43
I5
sg5092
(lp6285
I126
aI127
asg48
(issf_api
FeatureSet
p6286
(dp6287
g12
(dp6288
S'name'
p6289
g6149
sS'drel'
p6290
S'vmod:VGF'
p6291
ssbsba(issf_api
Chunk
p6292
(dp6293
g5101
g2638
sg42
I4
sg5212
g2649
sg43
I5
sg5092
(lp6294
I128
aI129
asg48
(issf_api
FeatureSet
p6295
(dp6296
g12
(dp6297
S'name'
p6298
g6175
sS'drel'
p6299
S'k1:VGF'
p6300
ssbsba(issf_api
Chunk
p6301
(dp6302
g5101
g2680
sg42
I5
sg5212
g2687
sg43
I5
sg5092
(lp6303
I130
asg48
(issf_api
FeatureSet
p6304
(dp6305
g12
(dp6306
S'name'
p6307
g6169
ssbsba(issf_api
Chunk
p6308
(dp6309
g5101
g2701
sg42
I6
sg5212
g2706
sg43
I5
sg5092
(lp6310
I131
asg48
(issf_api
FeatureSet
p6311
(dp6312
g12
(dp6313
S'name'
p6314
g6173
sS'drel'
p6315
S'k2:VGF'
p6316
ssbsba(issf_api
Chunk
p6317
(dp6318
g5101
g2722
sg42
I7
sg5212
g2731
sg43
I5
sg5092
(lp6319
I132
asg48
(issf_api
FeatureSet
p6320
(dp6321
g12
(dp6322
S'name'
p6323
g6200
sS'drel'
p6324
S'k1:VGF2'
p6325
ssbsba(issf_api
Chunk
p6326
(dp6327
g5101
g2747
sg42
I8
sg5212
g2758
sg43
I5
sg5092
(lp6328
I133
aI134
asg48
(issf_api
FeatureSet
p6329
(dp6330
g12
(dp6331
S'name'
p6332
g6239
sS'drel'
p6333
S'r6:NP7'
p6334
ssbsba(issf_api
Chunk
p6335
(dp6336
g5101
g2806
sg42
I9
sg5212
g2811
sg43
I5
sg5092
(lp6337
I135
aI136
asg48
(issf_api
FeatureSet
p6338
(dp6339
g12
(dp6340
S'name'
p6341
g6194
sS'drel'
p6342
S'jjmod:JJP'
p6343
ssbsba(issf_api
Chunk
p6344
(dp6345
g5101
g2825
sg42
I10
sg5212
g2830
sg43
I5
sg5092
(lp6346
I137
asg48
(issf_api
FeatureSet
p6347
(dp6348
g12
(dp6349
S'name'
p6350
g6188
sS'drel'
p6351
S'nmod:NP8'
p6352
ssbsba(issf_api
Chunk
p6353
(dp6354
g5101
g2861
sg42
I11
sg5212
g2868
sg43
I5
sg5092
(lp6355
I138
aI139
aI140
asg48
(issf_api
FeatureSet
p6356
(dp6357
g12
(dp6358
S'name'
p6359
g6212
sS'drel'
p6360
S'r6:NP9'
p6361
ssbsba(issf_api
Chunk
p6362
(dp6363
g5101
g2899
sg42
I12
sg5212
g2906
sg43
I5
sg5092
(lp6364
I141
aI142
aI143
asg48
(issf_api
FeatureSet
p6365
(dp6366
g12
(dp6367
S'name'
p6368
g6201
sS'drel'
p6369
S'rt:VGF2'
p6370
ssbsba(issf_api
Chunk
p6371
(dp6372
g5101
g2988
sg42
I13
sg5212
g2995
sg43
I5
sg5092
(lp6373
I144
aI145
aI146
aI147
asg48
(issf_api
FeatureSet
p6374
(dp6375
g12
(dp6376
S'name'
p6377
g6163
sS'drel'
p6378
S'r6:NP12'
p6379
ssbsba(issf_api
Chunk
p6380
(dp6381
g5101
g3047
sg42
I14
sg5212
g3056
sg43
I5
sg5092
(lp6382
I148
aI149
aI150
asg48
(issf_api
FeatureSet
p6383
(dp6384
g12
(dp6385
S'name'
p6386
g6157
sS'drel'
p6387
S'r6:NP12'
p6388
ssbsba(issf_api
Chunk
p6389
(dp6390
g5101
g3089
sg42
I15
sg5212
g3100
sg43
I5
sg5092
(lp6391
I151
asg48
(issf_api
FeatureSet
p6392
(dp6393
g12
(dp6394
S'name'
p6395
g6176
sS'drel'
p6396
S'k2:VGF2'
p6397
ssbsba(issf_api
Chunk
p6398
(dp6399
g5101
g3114
sg42
I16
sg5212
g3125
sg43
I5
sg5092
(lp6400
I152
aI153
asg48
(issf_api
FeatureSet
p6401
(dp6402
g12
(dp6403
S'name'
p6404
g6187
sS'drel'
p6405
S'ccof:CCP'
p6406
ssbsba(issf_api
Chunk
p6407
(dp6408
g5101
g3156
sg42
I17
sg5212
g3161
sg43
I5
sg5092
(lp6409
I154
asg48
(issf_api
FeatureSet
p6410
(dp6411
g12
(dp6412
S'name'
p6413
g6174
sS'drel'
p6414
S'rsym:VGF'
p6415
ssbsbasba(issf_api
Sentence
p6416
(dp6417
g5090
(lp6418
sg43
I6
sg5092
(lp6419
I155
aI156
aI157
aI158
aI159
aI160
aI161
aI162
aI163
aI164
aI165
aI166
aI167
aI168
aI169
aI170
aI171
aI172
aI173
aI174
aI175
asg5094
(dp6420
S'VGF'
p6421
(issf_api
Node
p6422
(dp6423
g5099
g5194
sg5101
g6421
sg5102
g5194
sg5104
I-1
sg42
I1
sg5105
(lp6424
S'CCP'
p6425
aS'BLK'
p6426
aS'NP'
p6427
asbsS'VGF3'
p6428
(issf_api
Node
p6429
(dp6430
g5099
S'ccof'
p6431
sg5101
g6428
sg5102
S'CCP2'
p6432
sg5104
I-1
sg42
I10
sg5105
(lp6433
S'NP5'
p6434
aS'NP6'
p6435
asbsg6425
(issf_api
Node
p6436
(dp6437
g5099
S'k2'
p6438
sg5101
g6425
sg5102
S'VGF'
p6439
sg5104
I-1
sg42
I2
sg5105
(lp6440
S'VGF2'
p6441
asbsg6441
(issf_api
Node
p6442
(dp6443
g5099
S'ccof'
p6444
sg5101
g6441
sg5102
S'CCP'
p6445
sg5104
I-1
sg42
I6
sg5105
(lp6446
S'NP4'
p6447
aS'CCP2'
p6448
aS'NP2'
p6449
asbsg6434
(issf_api
Node
p6450
(dp6451
g5099
S'k2'
p6452
sg5101
g6434
sg5102
S'VGF3'
p6453
sg5104
I-1
sg42
I8
sg5105
(lp6454
sbsg6426
(issf_api
Node
p6455
(dp6456
g5099
S'rsym'
p6457
sg5101
g6426
sg5102
S'VGF'
p6458
sg5104
I-1
sg42
I11
sg5105
(lp6459
sbsg6427
(issf_api
Node
p6460
(dp6461
g5099
S'k1'
p6462
sg5101
g6427
sg5102
S'VGF'
p6463
sg5104
I-1
sg42
I0
sg5105
(lp6464
sbsg6447
(issf_api
Node
p6465
(dp6466
g5099
S'k7'
p6467
sg5101
g6447
sg5102
S'VGF2'
p6468
sg5104
I-1
sg42
I5
sg5105
(lp6469
S'NP3'
p6470
asbsg6435
(issf_api
Node
p6471
(dp6472
g5099
S'pof'
p6473
sg5101
g6435
sg5102
S'VGF3'
p6474
sg5104
I-1
sg42
I9
sg5105
(lp6475
sbsg6448
(issf_api
Node
p6476
(dp6477
g5099
S'vmod'
p6478
sg5101
g6448
sg5102
S'VGF2'
p6479
sg5104
I-1
sg42
I7
sg5105
(lp6480
g6428
asbsg6470
(issf_api
Node
p6481
(dp6482
g5099
S'r6'
p6483
sg5101
g6470
sg5102
S'NP4'
p6484
sg5104
I-1
sg42
I4
sg5105
(lp6485
sbsg6449
(issf_api
Node
p6486
(dp6487
g5099
S'k2'
p6488
sg5101
g6449
sg5102
S'VGF2'
p6489
sg5104
I-1
sg42
I3
sg5105
(lp6490
sbssg5208
(lp6491
(issf_api
Chunk
p6492
(dp6493
g5101
g3177
sg42
I0
sg5212
g3186
sg43
I6
sg5092
(lp6494
I155
asg48
(issf_api
FeatureSet
p6495
(dp6496
g12
(dp6497
S'name'
p6498
g6427
sS'drel'
p6499
S'k1:VGF'
p6500
ssbsba(issf_api
Chunk
p6501
(dp6502
g5101
g3200
sg42
I1
sg5212
g3207
sg43
I6
sg5092
(lp6503
I156
asg48
(issf_api
FeatureSet
p6504
(dp6505
g12
(dp6506
S'name'
p6507
g6421
ssbsba(issf_api
Chunk
p6508
(dp6509
g5101
g3221
sg42
I2
sg5212
g3226
sg43
I6
sg5092
(lp6510
I157
asg48
(issf_api
FeatureSet
p6511
(dp6512
g12
(dp6513
S'name'
p6514
g6425
sS'drel'
p6515
S'k2:VGF'
p6516
ssbsba(issf_api
Chunk
p6517
(dp6518
g5101
g3261
sg42
I3
sg5212
g3270
sg43
I6
sg5092
(lp6519
I158
aI159
asg48
(issf_api
FeatureSet
p6520
(dp6521
g12
(dp6522
S'name'
p6523
g6449
sS'drel'
p6524
S'k2:VGF2'
p6525
ssbsba(issf_api
Chunk
p6526
(dp6527
g5101
g3318
sg42
I4
sg5212
g3325
sg43
I6
sg5092
(lp6528
I160
aI161
aI162
aI163
asg48
(issf_api
FeatureSet
p6529
(dp6530
g12
(dp6531
S'name'
p6532
g6470
sS'drel'
p6533
S'r6:NP4'
p6534
ssbsba(issf_api
Chunk
p6535
(dp6536
g5101
g3356
sg42
I5
sg5212
g3363
sg43
I6
sg5092
(lp6537
I164
aI165
asg48
(issf_api
FeatureSet
p6538
(dp6539
g12
(dp6540
S'name'
p6541
g6447
sS'drel'
p6542
S'k7:VGF2'
p6543
ssbsba(issf_api
Chunk
p6544
(dp6545
g5101
g3394
sg42
I6
sg5212
g3405
sg43
I6
sg5092
(lp6546
I166
aI167
asg48
(issf_api
FeatureSet
p6547
(dp6548
g12
(dp6549
S'name'
p6550
g6441
sS'drel'
p6551
S'ccof:CCP'
p6552
ssbsba(issf_api
Chunk
p6553
(dp6554
g5101
g3436
sg42
I7
sg5212
g3441
sg43
I6
sg5092
(lp6555
I168
asg48
(issf_api
FeatureSet
p6556
(dp6557
g12
(dp6558
S'name'
p6559
g6448
sS'drel'
p6560
S'vmod:VGF2'
p6561
ssbsba(issf_api
Chunk
p6562
(dp6563
g5101
g3472
sg42
I8
sg5212
g3479
sg43
I6
sg5092
(lp6564
I169
aI170
aI171
asg48
(issf_api
FeatureSet
p6565
(dp6566
g12
(dp6567
S'name'
p6568
g6434
sS'drel'
p6569
S'k2:VGF3'
p6570
ssbsba(issf_api
Chunk
p6571
(dp6572
g5101
g3510
sg42
I9
sg5212
g3515
sg43
I6
sg5092
(lp6573
I172
asg48
(issf_api
FeatureSet
p6574
(dp6575
g12
(dp6576
S'name'
p6577
g6435
sS'drel'
p6578
S'pof:VGF3'
p6579
ssbsba(issf_api
Chunk
p6580
(dp6581
g5101
g3529
sg42
I10
sg5212
g3540
sg43
I6
sg5092
(lp6582
I173
aI174
asg48
(issf_api
FeatureSet
p6583
(dp6584
g12
(dp6585
S'name'
p6586
g6428
sS'drel'
p6587
S'ccof:CCP2'
p6588
ssbsba(issf_api
Chunk
p6589
(dp6590
g5101
g3571
sg42
I11
sg5212
g3576
sg43
I6
sg5092
(lp6591
I175
asg48
(issf_api
FeatureSet
p6592
(dp6593
g12
(dp6594
S'name'
p6595
g6426
sS'drel'
p6596
S'rsym:VGF'
p6597
ssbsbasba(issf_api
Sentence
p6598
(dp6599
g5090
(lp6600
sg43
I7
sg5092
(lp6601
I176
aI177
aI178
aI179
aI180
aI181
aI182
aI183
aI184
aI185
aI186
aI187
aI188
aI189
aI190
aI191
aI192
aI193
aI194
aI195
aI196
aI197
aI198
aI199
aI200
asg5094
(dp6602
S'VGF'
p6603
(issf_api
Node
p6604
(dp6605
g5099
g5194
sg5101
g6603
sg5102
g5194
sg5104
I-1
sg42
I1
sg5105
(lp6606
S'CCP'
p6607
aS'BLK'
p6608
aS'NP'
p6609
asbsS'VGF3'
p6610
(issf_api
Node
p6611
(dp6612
g5099
S'ccof'
p6613
sg5101
g6610
sg5102
S'CCP2'
p6614
sg5104
I-1
sg42
I12
sg5105
(lp6615
S'NP5'
p6616
aS'NP8'
p6617
aS'NP7'
p6618
asbsg6607
(issf_api
Node
p6619
(dp6620
g5099
S'k2'
p6621
sg5101
g6607
sg5102
S'VGF'
p6622
sg5104
I-1
sg42
I2
sg5105
(lp6623
S'CCP2'
p6624
asbsS'VGF2'
p6625
(issf_api
Node
p6626
(dp6627
g5099
S'ccof'
p6628
sg5101
g6625
sg5102
S'CCP2'
p6629
sg5104
I-1
sg42
I6
sg5105
(lp6630
S'NP4'
p6631
aS'NP3'
p6632
asbsg6616
(issf_api
Node
p6633
(dp6634
g5099
S'k1'
p6635
sg5101
g6616
sg5102
S'VGF3'
p6636
sg5104
I-1
sg42
I8
sg5105
(lp6637
sbsg6617
(issf_api
Node
p6638
(dp6639
g5099
S'k3'
p6640
sg5101
g6617
sg5102
S'VGF3'
p6641
sg5104
I-1
sg42
I11
sg5105
(lp6642
sbsg6608
(issf_api
Node
p6643
(dp6644
g5099
S'rsym'
p6645
sg5101
g6608
sg5102
S'VGF'
p6646
sg5104
I-1
sg42
I13
sg5105
(lp6647
sbsg6609
(issf_api
Node
p6648
(dp6649
g5099
S'k1'
p6650
sg5101
g6609
sg5102
S'VGF'
p6651
sg5104
I-1
sg42
I0
sg5105
(lp6652
sbsg6631
(issf_api
Node
p6653
(dp6654
g5099
S'pof'
p6655
sg5101
g6631
sg5102
S'VGF2'
p6656
sg5104
I-1
sg42
I5
sg5105
(lp6657
S'NP2'
p6658
asbsg6618
(issf_api
Node
p6659
(dp6660
g5099
S'k2'
p6661
sg5101
g6618
sg5102
S'VGF3'
p6662
sg5104
I-1
sg42
I10
sg5105
(lp6663
S'NP6'
p6664
asbsg6664
(issf_api
Node
p6665
(dp6666
g5099
S'r6'
p6667
sg5101
g6664
sg5102
S'NP7'
p6668
sg5104
I-1
sg42
I9
sg5105
(lp6669
sbsg6624
(issf_api
Node
p6670
(dp6671
g5099
S'ccof'
p6672
sg5101
g6624
sg5102
S'CCP'
p6673
sg5104
I-1
sg42
I7
sg5105
(lp6674
g6610
ag6625
asbsg6632
(issf_api
Node
p6675
(dp6676
g5099
S'ras-k2'
p6677
sg5101
g6632
sg5102
S'VGF2'
p6678
sg5104
I-1
sg42
I4
sg5105
(lp6679
sbsg6658
(issf_api
Node
p6680
(dp6681
g5099
S'r6-k1'
p6682
sg5101
g6658
sg5102
S'NP4'
p6683
sg5104
I-1
sg42
I3
sg5105
(lp6684
sbssg5208
(lp6685
(issf_api
Chunk
p6686
(dp6687
g5101
g3592
sg42
I0
sg5212
g3603
sg43
I7
sg5092
(lp6688
I176
aI177
asg48
(issf_api
FeatureSet
p6689
(dp6690
g12
(dp6691
S'name'
p6692
g6609
sS'drel'
p6693
S'k1:VGF'
p6694
ssbsba(issf_api
Chunk
p6695
(dp6696
g5101
g3634
sg42
I1
sg5212
g3641
sg43
I7
sg5092
(lp6697
I178
asg48
(issf_api
FeatureSet
p6698
(dp6699
g12
(dp6700
S'name'
p6701
g6603
ssbsba(issf_api
Chunk
p6702
(dp6703
g5101
g3655
sg42
I2
sg5212
g3660
sg43
I7
sg5092
(lp6704
I179
asg48
(issf_api
FeatureSet
p6705
(dp6706
g12
(dp6707
S'name'
p6708
g6607
sS'drel'
p6709
S'k2:VGF'
p6710
ssbsba(issf_api
Chunk
p6711
(dp6712
g5101
g3676
sg42
I3
sg5212
g3685
sg43
I7
sg5092
(lp6713
I180
asg48
(issf_api
FeatureSet
p6714
(dp6715
g12
(dp6716
S'name'
p6717
g6658
sS'drel'
p6718
S'r6-k1:NP4'
p6719
ssbsba(issf_api
Chunk
p6720
(dp6721
g5101
g3701
sg42
I4
sg5212
g3712
sg43
I7
sg5092
(lp6722
I181
aI182
aI183
asg48
(issf_api
FeatureSet
p6723
(dp6724
g12
(dp6725
S'name'
p6726
g6632
sS'drel'
p6727
S'ras-k2:VGF2'
p6728
ssbsba(issf_api
Chunk
p6729
(dp6730
g5101
g3781
sg42
I5
sg5212
g3790
sg43
I7
sg5092
(lp6731
I184
aI185
asg48
(issf_api
FeatureSet
p6732
(dp6733
g12
(dp6734
S'name'
p6735
g6631
sS'drel'
p6736
S'pof:VGF2'
p6737
ssbsba(issf_api
Chunk
p6738
(dp6739
g5101
g3804
sg42
I6
sg5212
g3815
sg43
I7
sg5092
(lp6740
I186
aI187
asg48
(issf_api
FeatureSet
p6741
(dp6742
g12
(dp6743
S'name'
p6744
g6625
sS'drel'
p6745
S'ccof:CCP2'
p6746
ssbsba(issf_api
Chunk
p6747
(dp6748
g5101
g3846
sg42
I7
sg5212
g3851
sg43
I7
sg5092
(lp6749
I188
asg48
(issf_api
FeatureSet
p6750
(dp6751
g12
(dp6752
S'name'
p6753
g6624
sS'drel'
p6754
S'ccof:CCP'
p6755
ssbsba(issf_api
Chunk
p6756
(dp6757
g5101
g3886
sg42
I8
sg5212
g3897
sg43
I7
sg5092
(lp6758
I189
aI190
aI191
asg48
(issf_api
FeatureSet
p6759
(dp6760
g12
(dp6761
S'name'
p6762
g6616
sS'drel'
p6763
S'k1:VGF3'
p6764
ssbsba(issf_api
Chunk
p6765
(dp6766
g5101
g3930
sg42
I9
sg5212
g3939
sg43
I7
sg5092
(lp6767
I192
asg48
(issf_api
FeatureSet
p6768
(dp6769
g12
(dp6770
S'name'
p6771
g6664
sS'drel'
p6772
S'r6:NP7'
p6773
ssbsba(issf_api
Chunk
p6774
(dp6775
g5101
g3953
sg42
I10
sg5212
g3960
sg43
I7
sg5092
(lp6776
I193
aI194
asg48
(issf_api
FeatureSet
p6777
(dp6778
g12
(dp6779
S'name'
p6780
g6618
sS'drel'
p6781
S'k2:VGF3'
p6782
ssbsba(issf_api
Chunk
p6783
(dp6784
g5101
g4008
sg42
I11
sg5212
g4015
sg43
I7
sg5092
(lp6785
I195
aI196
aI197
asg48
(issf_api
FeatureSet
p6786
(dp6787
g12
(dp6788
S'name'
p6789
g6617
sS'drel'
p6790
S'k3:VGF3'
p6791
ssbsba(issf_api
Chunk
p6792
(dp6793
g5101
g4046
sg42
I12
sg5212
g4057
sg43
I7
sg5092
(lp6794
I198
aI199
asg48
(issf_api
FeatureSet
p6795
(dp6796
g12
(dp6797
S'name'
p6798
g6610
sS'drel'
p6799
S'ccof:CCP2'
p6800
ssbsba(issf_api
Chunk
p6801
(dp6802
g5101
g4088
sg42
I13
sg5212
g4093
sg43
I7
sg5092
(lp6803
I200
asg48
(issf_api
FeatureSet
p6804
(dp6805
g12
(dp6806
S'name'
p6807
g6608
sS'drel'
p6808
S'rsym:VGF'
p6809
ssbsbasba(issf_api
Sentence
p6810
(dp6811
g5090
(lp6812
sg43
I8
sg5092
(lp6813
I201
aI202
aI203
aI204
aI205
aI206
aI207
aI208
aI209
aI210
aI211
aI212
aI213
aI214
aI215
aI216
aI217
aI218
asg5094
(dp6814
S'VGF'
p6815
(issf_api
Node
p6816
(dp6817
g5099
g5194
sg5101
g6815
sg5102
g5194
sg5104
I-1
sg42
I6
sg5105
(lp6818
S'NP5'
p6819
aS'BLK'
p6820
aS'NP'
p6821
aS'NP6'
p6822
asbsg6819
(issf_api
Node
p6823
(dp6824
g5099
S'k2'
p6825
sg5101
g6819
sg5102
S'VGF'
p6826
sg5104
I-1
sg42
I4
sg5105
(lp6827
S'NP4'
p6828
asbsg6820
(issf_api
Node
p6829
(dp6830
g5099
S'rsym'
p6831
sg5101
g6820
sg5102
S'VGF'
p6832
sg5104
I-1
sg42
I7
sg5105
(lp6833
sbsg6821
(issf_api
Node
p6834
(dp6835
g5099
S'k1'
p6836
sg5101
g6821
sg5102
S'VGF'
p6837
sg5104
I-1
sg42
I0
sg5105
(lp6838
sbsg6828
(issf_api
Node
p6839
(dp6840
g5099
S'r6'
p6841
sg5101
g6828
sg5102
S'NP5'
p6842
sg5104
I-1
sg42
I3
sg5105
(lp6843
S'NP3'
p6844
asbsg6822
(issf_api
Node
p6845
(dp6846
g5099
S'pof'
p6847
sg5101
g6822
sg5102
S'VGF'
p6848
sg5104
I-1
sg42
I5
sg5105
(lp6849
sbsg6844
(issf_api
Node
p6850
(dp6851
g5099
S'r6'
p6852
sg5101
g6844
sg5102
S'NP4'
p6853
sg5104
I-1
sg42
I2
sg5105
(lp6854
S'NP2'
p6855
asbsg6855
(issf_api
Node
p6856
(dp6857
g5099
S'r6'
p6858
sg5101
g6855
sg5102
S'NP3'
p6859
sg5104
I-1
sg42
I1
sg5105
(lp6860
sbssg5208
(lp6861
(issf_api
Chunk
p6862
(dp6863
g5101
g4128
sg42
I0
sg5212
g4139
sg43
I8
sg5092
(lp6864
I201
aI202
aI203
asg48
(issf_api
FeatureSet
p6865
(dp6866
g12
(dp6867
S'name'
p6868
g6821
sS'drel'
p6869
S'k1:VGF'
p6870
ssbsba(issf_api
Chunk
p6871
(dp6872
g5101
g4172
sg42
I1
sg5212
g4183
sg43
I8
sg5092
(lp6873
I204
aI205
asg48
(issf_api
FeatureSet
p6874
(dp6875
g12
(dp6876
S'name'
p6877
g6855
sS'drel'
p6878
S'r6:NP3'
p6879
ssbsba(issf_api
Chunk
p6880
(dp6881
g5101
g4231
sg42
I2
sg5212
g4238
sg43
I8
sg5092
(lp6882
I206
aI207
aI208
asg48
(issf_api
FeatureSet
p6883
(dp6884
g12
(dp6885
S'name'
p6886
g6844
sS'drel'
p6887
S'r6:NP4'
p6888
ssbsba(issf_api
Chunk
p6889
(dp6890
g5101
g4269
sg42
I3
sg5212
g4276
sg43
I8
sg5092
(lp6891
I209
aI210
asg48
(issf_api
FeatureSet
p6892
(dp6893
g12
(dp6894
S'name'
p6895
g6828
sS'drel'
p6896
S'r6:NP5'
p6897
ssbsba(issf_api
Chunk
p6898
(dp6899
g5101
g4307
sg42
I4
sg5212
g4314
sg43
I8
sg5092
(lp6900
I211
aI212
aI213
asg48
(issf_api
FeatureSet
p6901
(dp6902
g12
(dp6903
S'name'
p6904
g6819
sS'drel'
p6905
S'k2:VGF'
p6906
ssbsba(issf_api
Chunk
p6907
(dp6908
g5101
g4362
sg42
I5
sg5212
g4367
sg43
I8
sg5092
(lp6909
I214
asg48
(issf_api
FeatureSet
p6910
(dp6911
g12
(dp6912
S'name'
p6913
g6822
sS'drel'
p6914
S'pof:VGF'
p6915
ssbsba(issf_api
Chunk
p6916
(dp6917
g5101
g4381
sg42
I6
sg5212
g4390
sg43
I8
sg5092
(lp6918
I215
aI216
aI217
asg48
(issf_api
FeatureSet
p6919
(dp6920
g12
(dp6921
S'name'
p6922
g6815
ssbsba(issf_api
Chunk
p6923
(dp6924
g5101
g4438
sg42
I7
sg5212
g4443
sg43
I8
sg5092
(lp6925
I218
asg48
(issf_api
FeatureSet
p6926
(dp6927
g12
(dp6928
S'name'
p6929
g6820
sS'drel'
p6930
S'rsym:VGF'
p6931
ssbsbasba(issf_api
Sentence
p6932
(dp6933
g5090
(lp6934
sg43
I9
sg5092
(lp6935
I219
aI220
aI221
aI222
aI223
aI224
aI225
aI226
aI227
aI228
aI229
aI230
aI231
aI232
aI233
aI234
aI235
aI236
aI237
aI238
aI239
aI240
aI241
aI242
aI243
aI244
aI245
aI246
aI247
aI248
aI249
aI250
aI251
aI252
asg5094
(dp6936
S'VGNF'
p6937
(issf_api
Node
p6938
(dp6939
g5099
S'nmod__k2inv'
p6940
sg5101
g6937
sg5102
S'NP5'
p6941
sg5104
I-1
sg42
I5
sg5105
(lp6942
S'NP4'
p6943
asbsS'VGNN'
p6944
(issf_api
Node
p6945
(dp6946
g5099
S'k2'
p6947
sg5101
g6944
sg5102
S'VGF'
p6948
sg5104
I-1
sg42
I10
sg5105
(lp6949
S'NP8'
p6950
asbsS'VGF'
p6951
(issf_api
Node
p6952
(dp6953
g5099
S'ccof'
p6954
sg5101
g6951
sg5102
S'CCP'
p6955
sg5104
I-1
sg42
I12
sg5105
(lp6956
g6944
aS'NP9'
p6957
aS'NP'
p6958
aS'NP6'
p6959
aS'NP3'
p6960
aS'NP2'
p6961
asbsS'CCP'
p6962
(issf_api
Node
p6963
(dp6964
g5099
g5194
sg5101
g6962
sg5102
g5194
sg5104
I-1
sg42
I0
sg5105
(lp6965
g6951
aS'BLK'
p6966
asbsS'NP5'
p6967
(issf_api
Node
p6968
(dp6969
g5099
S'r6'
p6970
sg5101
g6967
sg5102
S'NP6'
p6971
sg5104
I-1
sg42
I6
sg5105
(lp6972
g6937
asbsg6957
(issf_api
Node
p6973
(dp6974
g5099
S'pof'
p6975
sg5101
g6957
sg5102
S'VGF'
p6976
sg5104
I-1
sg42
I11
sg5105
(lp6977
sbsg6950
(issf_api
Node
p6978
(dp6979
g5099
S'k2'
p6980
sg5101
g6950
sg5102
S'VGNN'
p6981
sg5104
I-1
sg42
I9
sg5105
(lp6982
S'NP7'
p6983
asbsg6966
(issf_api
Node
p6984
(dp6985
g5099
S'rsym'
p6986
sg5101
g6966
sg5102
S'CCP'
p6987
sg5104
I-1
sg42
I13
sg5105
(lp6988
sbsg6958
(issf_api
Node
p6989
(dp6990
g5099
S'k7'
p6991
sg5101
g6958
sg5102
S'VGF'
p6992
sg5104
I-1
sg42
I1
sg5105
(lp6993
sbsg6943
(issf_api
Node
p6994
(dp6995
g5099
S'k7'
p6996
sg5101
g6943
sg5102
S'VGNF'
p6997
sg5104
I-1
sg42
I4
sg5105
(lp6998
sbsg6983
(issf_api
Node
p6999
(dp7000
g5099
S'r6'
p7001
sg5101
g6983
sg5102
S'NP8'
p7002
sg5104
I-1
sg42
I8
sg5105
(lp7003
sbsg6959
(issf_api
Node
p7004
(dp7005
g5099
S'k7'
p7006
sg5101
g6959
sg5102
S'VGF'
p7007
sg5104
I-1
sg42
I7
sg5105
(lp7008
g6967
asbsg6960
(issf_api
Node
p7009
(dp7010
g5099
S'k7t'
p7011
sg5101
g6960
sg5102
S'VGF'
p7012
sg5104
I-1
sg42
I3
sg5105
(lp7013
sbsg6961
(issf_api
Node
p7014
(dp7015
g5099
S'k1'
p7016
sg5101
g6961
sg5102
S'VGF'
p7017
sg5104
I-1
sg42
I2
sg5105
(lp7018
sbssg5208
(lp7019
(issf_api
Chunk
p7020
(dp7021
g5101
g4453
sg42
I0
sg5212
g4460
sg43
I9
sg5092
(lp7022
I219
asg48
(issf_api
FeatureSet
p7023
(dp7024
g12
(dp7025
S'name'
p7026
g6962
ssbsba(issf_api
Chunk
p7027
(dp7028
g5101
g4491
sg42
I1
sg5212
g4498
sg43
I9
sg5092
(lp7029
I220
aI221
aI222
asg48
(issf_api
FeatureSet
p7030
(dp7031
g12
(dp7032
S'name'
p7033
g6958
sS'drel'
p7034
S'k7:VGF'
p7035
ssbsba(issf_api
Chunk
p7036
(dp7037
g5101
g4531
sg42
I2
sg5212
g4542
sg43
I9
sg5092
(lp7038
I223
aI224
asg48
(issf_api
FeatureSet
p7039
(dp7040
g12
(dp7041
S'name'
p7042
g6961
sS'drel'
p7043
S'k1:VGF'
p7044
ssbsba(issf_api
Chunk
p7045
(dp7046
g5101
g4573
sg42
I3
sg5212
g4580
sg43
I9
sg5092
(lp7047
I225
aI226
asg48
(issf_api
FeatureSet
p7048
(dp7049
g12
(dp7050
S'name'
p7051
g6960
sS'drel'
p7052
S'k7t:VGF'
p7053
ssbsba(issf_api
Chunk
p7054
(dp7055
g5101
g4628
sg42
I4
sg5212
g4635
sg43
I9
sg5092
(lp7056
I227
aI228
aI229
asg48
(issf_api
FeatureSet
p7057
(dp7058
g12
(dp7059
S'name'
p7060
g6943
sS'drel'
p7061
S'k7:VGNF'
p7062
ssbsba(issf_api
Chunk
p7063
(dp7064
g5101
g4666
sg42
I5
sg5212
g4673
sg43
I9
sg5092
(lp7065
I230
aI231
asg48
(issf_api
FeatureSet
p7066
(dp7067
g12
(dp7068
S'name'
p7069
g6937
sS'drel'
p7070
S'nmod__k2inv:NP5'
p7071
ssbsba(issf_api
Chunk
p7072
(dp7073
g5101
g4772
sg42
I6
sg5212
g4779
sg43
I9
sg5092
(lp7074
I232
aI233
aI234
aI235
aI236
aI237
asg48
(issf_api
FeatureSet
p7075
(dp7076
g12
(dp7077
S'name'
p7078
g6967
sS'drel'
p7079
S'r6:NP6'
p7080
ssbsba(issf_api
Chunk
p7081
(dp7082
g5101
g4827
sg42
I7
sg5212
g4834
sg43
I9
sg5092
(lp7083
I238
aI239
aI240
aI241
aI242
asg48
(issf_api
FeatureSet
p7084
(dp7085
g12
(dp7086
S'name'
p7087
g6959
sS'drel'
p7088
S'k7:VGF'
p7089
ssbsba(issf_api
Chunk
p7090
(dp7091
g5101
g4924
sg42
I8
sg5212
g4931
sg43
I9
sg5092
(lp7092
I243
aI244
aI245
asg48
(issf_api
FeatureSet
p7093
(dp7094
g12
(dp7095
S'name'
p7096
g6983
sS'drel'
p7097
S'r6:NP8'
p7098
ssbsba(issf_api
Chunk
p7099
(dp7100
g5101
g4962
sg42
I9
sg5212
g4967
sg43
I9
sg5092
(lp7101
I246
asg48
(issf_api
FeatureSet
p7102
(dp7103
g12
(dp7104
S'name'
p7105
g6950
sS'drel'
p7106
S'k2:VGNN'
p7107
ssbsba(issf_api
Chunk
p7108
(dp7109
g5101
g4981
sg42
I10
sg5212
g4988
sg43
I9
sg5092
(lp7110
I247
aI248
asg48
(issf_api
FeatureSet
p7111
(dp7112
g12
(dp7113
S'name'
p7114
g6944
sS'drel'
p7115
S'k2:VGF'
p7116
ssbsba(issf_api
Chunk
p7117
(dp7118
g5101
g5019
sg42
I11
sg5212
g5024
sg43
I9
sg5092
(lp7119
I249
asg48
(issf_api
FeatureSet
p7120
(dp7121
g12
(dp7122
S'name'
p7123
g6957
sS'drel'
p7124
S'pof:VGF'
p7125
ssbsba(issf_api
Chunk
p7126
(dp7127
g5101
g5038
sg42
I12
sg5212
g5049
sg43
I9
sg5092
(lp7128
I250
aI251
asg48
(issf_api
FeatureSet
p7129
(dp7130
g12
(dp7131
S'name'
p7132
g6951
sS'drel'
p7133
S'ccof:CCP'
p7134
ssbsba(issf_api
Chunk
p7135
(dp7136
g5101
g5080
sg42
I13
sg5212
g5085
sg43
I9
sg5092
(lp7137
I252
asg48
(issf_api
FeatureSet
p7138
(dp7139
g12
(dp7140
S'name'
p7141
g6966
sS'drel'
p7142
S'rsym:CCP'
p7143
ssbsbasbasb.