(lp0
V\u0939\u092e\u0938\u0947
p1
aV\u0939\u092e\u093e\u0930\u0947
p2
aV\u092e\u0947\u0930\u093e
p3
aV\u092e\u0947\u0930\u0940
p4
aV\u092e\u0947\u0930\u0947
p5
aV\u0939\u092e
p6
aV\u0939\u092e\u093e\u0930\u093e
p7
aV\u0939\u092e\u0928\u0947
p8
aV\u092e\u0941\u091d\u0947
p9
aV\u092e\u0948\u0902
p10
aV\u092e\u0941\u091d
p11
aV\u092e\u0948\u0928\u0947
p12
aV\u0939\u092e\u0947\u0902
p13
aV\u092e\u0948\u0902\u0928\u0947
p14
aV\u0939\u092e\u093e\u0930\u0940
p15
a.