(lp0
V\u091c\u093f\u0938\u0915\u094b
p1
aV\u091c\u093f\u0938\u0915\u0947
p2
aV\u091c\u093f\u0938
p3
aV\u091c\u093f\u0938\u0915\u0940
p4
aV\u091c\u093f\u0938\u0915\u093e
p5
aV\u091c\u093f\u0928\u094d\u0939\u0947\u0902
p6
aV\u091c\u093f\u0938\u092e\u0947\u0902
p7
aV\u091c\u0948\u0938\u093e
p8
aV\u091c\u094b\u0915\u093f
p9
aV\u091c\u094b
p10
aV\u091c\u093f\u0928\u094d\u0939\u094b\u0902\u0928\u0947
p11
aV\u091c\u093f\u0928\u092e\u0947\u0902
p12
aV\u091c\u093f\u0938\u0928\u0947
p13
aV\u091c\u093f\u0938\u0938\u0947
p14
aV\u091c\u093f\u0938\u0947
p15
aV\u091c\u093f\u0928\u0915\u0940
p16
a.