(lp0
V\u0907\u0928\u094d\u0939\u0947\u0902
p1
aV\u0907\u0928\u0915\u0947
p2
aV\u0935\u094b
p3
aV\u0935\u0947
p4
aV\u0907\u0928\u0915\u093e
p5
aV\u0909\u0938\u0947
p6
aV\u0907\u0928\u0938\u0947
p7
aV\u0909\u0938\u0928\u0947
p8
aV\u0935\u0939
p9
aV\u0909\u0938\u0938\u0947
p10
aV\u0909\u0928\u094d\u0939\u094b\u0902\u0928\u0947
p11
aV\u0907\u0938\u0928\u0947
p12
aV\u0907\u0938\u0938\u0947
p13
aV\u0907\u0938\u0947
p14
aV\u0907\u0938\u0940
p15
aV\u0909\u0938
p16
aV\u0909\u0928
p17
aV\u0909\u0938\u0940
p18
aV\u0907\u0938\u0915\u093e
p19
aV\u0915\u094b\u0908
p20
aV\u0907\u0928\u0915\u0940
p21
aV\u0907\u0928\u0915\u094b
p22
aV\u0909\u0938\u0915\u0940
p23
aV\u0909\u0938\u0915\u0947
p24
aV\u0909\u0938\u0915\u093e
p25
aV\u0909\u0928\u0938\u0947
p26
aV\u0909\u0928\u092e\u0947\u0902
p27
aV\u0907\u0938\u0915\u0940
p28
aV\u0907\u0938\u0915\u094b
p29
aV\u0907\u0928
p30
aV\u092f\u0947
p31
aV\u0909\u0928\u0915\u093e
p32
aV\u0909\u0928\u0915\u0940
p33
aV\u0909\u0928\u0915\u0947
p34
aV\u0909\u0928\u0915\u094b
p35
aV\u092f\u0939\u0940
p36
aV\u0935\u0939\u0940
p37
aV\u092f\u0939
p38
aV\u0926\u0942\u0938\u0930\u0947
p39
a.